ARM GAS  C:\Users\MARTHN~1\AppData\Local\Temp\cctbkY5q.s 			page 1


   1              		.syntax unified
   2              		.cpu cortex-m3
   3              		.fpu softvfp
   4              		.eabi_attribute 20, 1
   5              		.eabi_attribute 21, 1
   6              		.eabi_attribute 23, 3
   7              		.eabi_attribute 24, 1
   8              		.eabi_attribute 25, 1
   9              		.eabi_attribute 26, 1
  10              		.eabi_attribute 30, 6
  11              		.eabi_attribute 34, 1
  12              		.eabi_attribute 18, 4
  13              		.thumb
  14              		.syntax unified
  15              		.file	"CD4051BPW_Driver.c"
  16              		.text
  17              	.Ltext0:
  18              		.cfi_sections	.debug_frame
  19              		.section	.text.initDiagnostics,"ax",%progbits
  20              		.align	2
  21              		.global	initDiagnostics
  22              		.thumb
  23              		.thumb_func
  24              		.type	initDiagnostics, %function
  25              	initDiagnostics:
  26              	.LFB63:
  27              		.file 1 "CD4051BPW_Driver.c"
   1:CD4051BPW_Driver.c **** /* ========================================
   2:CD4051BPW_Driver.c ****  *
   3:CD4051BPW_Driver.c ****  * Copyright YOUR COMPANY, THE YEAR
   4:CD4051BPW_Driver.c ****  * All Rights Reserved
   5:CD4051BPW_Driver.c ****  * UNPUBLISHED, LICENSED SOFTWARE.
   6:CD4051BPW_Driver.c ****  *
   7:CD4051BPW_Driver.c ****  * CONFIDENTIAL AND PROPRIETARY INFORMATION
   8:CD4051BPW_Driver.c ****  * WHICH IS THE PROPERTY OF your company.
   9:CD4051BPW_Driver.c ****  *
  10:CD4051BPW_Driver.c ****  * ========================================
  11:CD4051BPW_Driver.c **** */
  12:CD4051BPW_Driver.c **** 
  13:CD4051BPW_Driver.c **** #include <CD4051BPW_Driver.h>
  14:CD4051BPW_Driver.c **** 
  15:CD4051BPW_Driver.c **** //#define OTHER_CHIP_EN 33
  16:CD4051BPW_Driver.c **** 
  17:CD4051BPW_Driver.c **** // *** Pins need to be remapped if they are going to be read individually
  18:CD4051BPW_Driver.c **** // *** Right now it is set up to read all channels only
  19:CD4051BPW_Driver.c **** //  Out_1   -   Mux_2 Channel_5
  20:CD4051BPW_Driver.c **** //  Out_2   -   Mux_2 Channel_7
  21:CD4051BPW_Driver.c **** //  Out_3   -   Mux_2 Channel_6
  22:CD4051BPW_Driver.c **** //  Out_4   -   Mux_2 Channel_4
  23:CD4051BPW_Driver.c **** //
  24:CD4051BPW_Driver.c **** //  Out_5   -   Mux_1 Channel_2
  25:CD4051BPW_Driver.c **** //  Out_6   -   Mux_1 Channel_1
  26:CD4051BPW_Driver.c **** //  Out_7   -   Mux_1 Channel_0
  27:CD4051BPW_Driver.c **** //  Out_8   -   Mux_1 Channel_3
  28:CD4051BPW_Driver.c **** //
  29:CD4051BPW_Driver.c **** //  Out_21   -   Mux_1 Channel_5
  30:CD4051BPW_Driver.c **** //  Out_22   -   Mux_1 Channel_7
ARM GAS  C:\Users\MARTHN~1\AppData\Local\Temp\cctbkY5q.s 			page 2


  31:CD4051BPW_Driver.c **** //  Out_23   -   Mux_1 Channel_6
  32:CD4051BPW_Driver.c **** //  Out_24   -   Mux_1 Channel_4
  33:CD4051BPW_Driver.c **** 
  34:CD4051BPW_Driver.c **** 
  35:CD4051BPW_Driver.c **** 
  36:CD4051BPW_Driver.c **** //  Out_7   -   Mux_1 Channel_0         - 0
  37:CD4051BPW_Driver.c **** //  Out_6   -   Mux_1 Channel_1         - 1
  38:CD4051BPW_Driver.c **** //  Out_5   -   Mux_1 Channel_2         - 2
  39:CD4051BPW_Driver.c **** //  Out_8   -   Mux_1 Channel_3         - 3
  40:CD4051BPW_Driver.c **** //  Out_24   -   Mux_1 Channel_4        - 4
  41:CD4051BPW_Driver.c **** //  Out_21   -   Mux_1 Channel_5        - 5
  42:CD4051BPW_Driver.c **** //  Out_23   -   Mux_1 Channel_6        - 6
  43:CD4051BPW_Driver.c **** //  Out_22   -   Mux_1 Channel_7        - 7
  44:CD4051BPW_Driver.c **** //
  45:CD4051BPW_Driver.c **** //  Out_14   -   Mux_2 Channel_0        - 8
  46:CD4051BPW_Driver.c **** //  Out_15   -   Mux_2 Channel_1        - 9
  47:CD4051BPW_Driver.c **** //  Out_16   -   Mux_2 Channel_2        - 10
  48:CD4051BPW_Driver.c **** //  Out_13   -   Mux_2 Channel_3        - 11
  49:CD4051BPW_Driver.c **** //  Out_4   -   Mux_2 Channel_4         - 12
  50:CD4051BPW_Driver.c **** //  Out_1   -   Mux_2 Channel_5         - 13
  51:CD4051BPW_Driver.c **** //  Out_3   -   Mux_2 Channel_6         - 14
  52:CD4051BPW_Driver.c **** //  Out_2   -   Mux_2 Channel_7         - 15
  53:CD4051BPW_Driver.c **** //
  54:CD4051BPW_Driver.c **** //  Out_26   -   Mux_3 Channel_0        - 16
  55:CD4051BPW_Driver.c **** //  Out_27   -   Mux_3 Channel_1        - 17
  56:CD4051BPW_Driver.c **** //  Out_28   -   Mux_3 Channel_2        - 18
  57:CD4051BPW_Driver.c **** //  Out_25   -   Mux_3 Channel_3        - 19
  58:CD4051BPW_Driver.c **** //  Out_29   -   Mux_3 Channel_4        - 20
  59:CD4051BPW_Driver.c **** //  Out_32   -   Mux_3 Channel_5        - 21
  60:CD4051BPW_Driver.c **** //  Out_30   -   Mux_3 Channel_6        - 22
  61:CD4051BPW_Driver.c **** //  Out_31   -   Mux_3 Channel_7        - 23
  62:CD4051BPW_Driver.c **** //
  63:CD4051BPW_Driver.c **** //  Out_18   -   Mux_4 Channel_0        - 24
  64:CD4051BPW_Driver.c **** //  Out_19   -   Mux_4 Channel_1        - 25
  65:CD4051BPW_Driver.c **** //  Out_20   -   Mux_4 Channel_2        - 26
  66:CD4051BPW_Driver.c **** //  Out_17   -   Mux_4 Channel_3        - 27
  67:CD4051BPW_Driver.c **** //  Out_12   -   Mux_4 Channel_4        - 28
  68:CD4051BPW_Driver.c **** //  Out_9   -   Mux_4 Channel_5         - 29
  69:CD4051BPW_Driver.c **** //  Out_11   -   Mux_4 Channel_6        - 30
  70:CD4051BPW_Driver.c **** //  Out_10   -   Mux_4 Channel_7        - 31
  71:CD4051BPW_Driver.c **** 
  72:CD4051BPW_Driver.c **** 
  73:CD4051BPW_Driver.c **** 
  74:CD4051BPW_Driver.c **** 
  75:CD4051BPW_Driver.c **** 
  76:CD4051BPW_Driver.c **** void initDiagnostics(void)
  77:CD4051BPW_Driver.c **** {
  28              		.loc 1 77 0
  29              		.cfi_startproc
  30              		@ args = 0, pretend = 0, frame = 0
  31              		@ frame_needed = 1, uses_anonymous_args = 0
  32              		@ link register save eliminated.
  33 0000 80B4     		push	{r7}
  34              		.cfi_def_cfa_offset 4
  35              		.cfi_offset 7, -4
  36 0002 00AF     		add	r7, sp, #0
  37              		.cfi_def_cfa_register 7
ARM GAS  C:\Users\MARTHN~1\AppData\Local\Temp\cctbkY5q.s 			page 3


  78:CD4051BPW_Driver.c ****     //DIAG_INH_1_Write(0);
  79:CD4051BPW_Driver.c ****     //DIAG_INH_2_Write(0);
  80:CD4051BPW_Driver.c ****     //DIAG_INH_3_Write(0);
  81:CD4051BPW_Driver.c **** }
  38              		.loc 1 81 0
  39 0004 00BF     		nop
  40 0006 BD46     		mov	sp, r7
  41              		.cfi_def_cfa_register 13
  42              		@ sp needed
  43 0008 80BC     		pop	{r7}
  44              		.cfi_restore 7
  45              		.cfi_def_cfa_offset 0
  46 000a 7047     		bx	lr
  47              		.cfi_endproc
  48              	.LFE63:
  49              		.size	initDiagnostics, .-initDiagnostics
  50              		.section	.text.getMuxValue,"ax",%progbits
  51              		.align	2
  52              		.thumb
  53              		.thumb_func
  54              		.type	getMuxValue, %function
  55              	getMuxValue:
  56              	.LFB64:
  82:CD4051BPW_Driver.c **** 
  83:CD4051BPW_Driver.c **** static unsigned char getMuxValue(uint8 channelToRead)
  84:CD4051BPW_Driver.c **** {
  57              		.loc 1 84 0
  58              		.cfi_startproc
  59              		@ args = 0, pretend = 0, frame = 8
  60              		@ frame_needed = 1, uses_anonymous_args = 0
  61              		@ link register save eliminated.
  62 0000 80B4     		push	{r7}
  63              		.cfi_def_cfa_offset 4
  64              		.cfi_offset 7, -4
  65 0002 83B0     		sub	sp, sp, #12
  66              		.cfi_def_cfa_offset 16
  67 0004 00AF     		add	r7, sp, #0
  68              		.cfi_def_cfa_register 7
  69 0006 0346     		mov	r3, r0
  70 0008 FB71     		strb	r3, [r7, #7]
  85:CD4051BPW_Driver.c **** 
  86:CD4051BPW_Driver.c ****     static unsigned char lookUpChipMuxValues[32] = {13, 15, 14, 12, 2, 1, 0, 3,         //Output_1-
  87:CD4051BPW_Driver.c ****                                                     29, 31, 30, 28, 11, 8, 9, 10,       //Output_9-
  88:CD4051BPW_Driver.c ****                                                     27, 24, 25, 26, 5, 7, 6, 4,         //Output_17
  89:CD4051BPW_Driver.c ****                                                     19, 16, 17, 18, 20, 22, 23, 21,};   //Output_25
  90:CD4051BPW_Driver.c ****     
  91:CD4051BPW_Driver.c ****     return lookUpChipMuxValues[channelToRead];
  71              		.loc 1 91 0
  72 000a FB79     		ldrb	r3, [r7, #7]	@ zero_extendqisi2
  73 000c 034A     		ldr	r2, .L4
  74 000e D35C     		ldrb	r3, [r2, r3]	@ zero_extendqisi2
  92:CD4051BPW_Driver.c **** }
  75              		.loc 1 92 0
  76 0010 1846     		mov	r0, r3
  77 0012 0C37     		adds	r7, r7, #12
  78              		.cfi_def_cfa_offset 4
  79 0014 BD46     		mov	sp, r7
ARM GAS  C:\Users\MARTHN~1\AppData\Local\Temp\cctbkY5q.s 			page 4


  80              		.cfi_def_cfa_register 13
  81              		@ sp needed
  82 0016 80BC     		pop	{r7}
  83              		.cfi_restore 7
  84              		.cfi_def_cfa_offset 0
  85 0018 7047     		bx	lr
  86              	.L5:
  87 001a 00BF     		.align	2
  88              	.L4:
  89 001c 00000000 		.word	lookUpChipMuxValues.6419
  90              		.cfi_endproc
  91              	.LFE64:
  92              		.size	getMuxValue, .-getMuxValue
  93              		.section	.text.selectADCChannelMux,"ax",%progbits
  94              		.align	2
  95              		.global	selectADCChannelMux
  96              		.thumb
  97              		.thumb_func
  98              		.type	selectADCChannelMux, %function
  99              	selectADCChannelMux:
 100              	.LFB65:
  93:CD4051BPW_Driver.c **** 
  94:CD4051BPW_Driver.c **** void selectADCChannelMux(uint8 channelToRead)
  95:CD4051BPW_Driver.c **** {
 101              		.loc 1 95 0
 102              		.cfi_startproc
 103              		@ args = 0, pretend = 0, frame = 16
 104              		@ frame_needed = 1, uses_anonymous_args = 0
 105 0000 80B5     		push	{r7, lr}
 106              		.cfi_def_cfa_offset 8
 107              		.cfi_offset 7, -8
 108              		.cfi_offset 14, -4
 109 0002 84B0     		sub	sp, sp, #16
 110              		.cfi_def_cfa_offset 24
 111 0004 00AF     		add	r7, sp, #0
 112              		.cfi_def_cfa_register 7
 113 0006 0346     		mov	r3, r0
 114 0008 FB71     		strb	r3, [r7, #7]
  96:CD4051BPW_Driver.c ****     unsigned char localMuxValue = 0;
 115              		.loc 1 96 0
 116 000a 0023     		movs	r3, #0
 117 000c FB73     		strb	r3, [r7, #15]
  97:CD4051BPW_Driver.c ****     //localMuxValue = channelToRead;
  98:CD4051BPW_Driver.c ****     
  99:CD4051BPW_Driver.c ****     localMuxValue = getMuxValue(channelToRead);
 118              		.loc 1 99 0
 119 000e FB79     		ldrb	r3, [r7, #7]	@ zero_extendqisi2
 120 0010 1846     		mov	r0, r3
 121 0012 FFF7FEFF 		bl	getMuxValue
 122 0016 0346     		mov	r3, r0
 123 0018 FB73     		strb	r3, [r7, #15]
 100:CD4051BPW_Driver.c ****     
 101:CD4051BPW_Driver.c ****     if(localMuxValue < 8)
 124              		.loc 1 101 0
 125 001a FB7B     		ldrb	r3, [r7, #15]	@ zero_extendqisi2
 126 001c 072B     		cmp	r3, #7
 127 001e 02D8     		bhi	.L8
ARM GAS  C:\Users\MARTHN~1\AppData\Local\Temp\cctbkY5q.s 			page 5


 102:CD4051BPW_Driver.c ****     {
 103:CD4051BPW_Driver.c **** 
 104:CD4051BPW_Driver.c ****         LED_EN_Write(0);
 128              		.loc 1 104 0
 129 0020 0020     		movs	r0, #0
 130 0022 FFF7FEFF 		bl	LED_EN_Write
 131              	.L8:
 105:CD4051BPW_Driver.c ****         
 106:CD4051BPW_Driver.c **** //        RTest_BLOCK_1_EN_Write(0);                                  // Address Mux_1
 107:CD4051BPW_Driver.c **** //        RTest_BLOCK_2_EN_Write(1);
 108:CD4051BPW_Driver.c **** //        RTest_BLOCK_3_EN_Write(1);
 109:CD4051BPW_Driver.c **** //        RTest_BLOCK_4_EN_Write(1);
 110:CD4051BPW_Driver.c **** //        
 111:CD4051BPW_Driver.c **** //        RTest_DEMUX_C_Write(((localMuxValue&0x04)>>2));
 112:CD4051BPW_Driver.c **** //        RTest_DEMUX_B_Write(((localMuxValue&0x02)>>1));
 113:CD4051BPW_Driver.c **** //        RTest_DEMUX_A_Write(localMuxValue&0x01);
 114:CD4051BPW_Driver.c ****     }
 115:CD4051BPW_Driver.c **** //    else if(channelToRead>CHANNEL16 && channelToRead<=CHANNEL32)
 116:CD4051BPW_Driver.c **** //    {
 117:CD4051BPW_Driver.c **** ////        DIAG_INH_1_Write(1);
 118:CD4051BPW_Driver.c **** ////        DIAG_INH_2_Write(0);
 119:CD4051BPW_Driver.c **** ////        DIAG_INH_3_Write(1);
 120:CD4051BPW_Driver.c **** //        
 121:CD4051BPW_Driver.c **** ////        DIAG_BCD_C_Write(((localMuxValue&0x04)>>2));
 122:CD4051BPW_Driver.c **** ////        DIAG_BCD_B_Write(((localMuxValue&0x02)>>1));
 123:CD4051BPW_Driver.c **** ////        DIAG_BCD_A_Write(localMuxValue&0x01);
 124:CD4051BPW_Driver.c **** //    }
 125:CD4051BPW_Driver.c **** //    else if(channelToRead == VSENSEBATT)
 126:CD4051BPW_Driver.c **** //    {
 127:CD4051BPW_Driver.c **** ////        DIAG_INH_1_Write(1);
 128:CD4051BPW_Driver.c **** ////        DIAG_INH_2_Write(1);
 129:CD4051BPW_Driver.c **** ////        DIAG_INH_3_Write(0);
 130:CD4051BPW_Driver.c **** //        
 131:CD4051BPW_Driver.c **** ////        DIAG_BCD_C_Write(((localMuxValue&0x04)>>2));
 132:CD4051BPW_Driver.c **** ////        DIAG_BCD_B_Write(((localMuxValue&0x02)>>1));
 133:CD4051BPW_Driver.c **** ////        DIAG_BCD_A_Write(localMuxValue&0x01);
 134:CD4051BPW_Driver.c **** //    }
 135:CD4051BPW_Driver.c **** //    else if(channelToRead>CHANNEL32)
 136:CD4051BPW_Driver.c **** //    {
 137:CD4051BPW_Driver.c **** ////        DIAG_INH_1_Write(1);
 138:CD4051BPW_Driver.c **** ////        DIAG_INH_2_Write(1);
 139:CD4051BPW_Driver.c **** ////        DIAG_INH_3_Write(0);
 140:CD4051BPW_Driver.c **** //        
 141:CD4051BPW_Driver.c **** ////        DIAG_BCD_C_Write(((localMuxValue&0x04)>>2));
 142:CD4051BPW_Driver.c **** ////        DIAG_BCD_B_Write(((localMuxValue&0x02)>>1));
 143:CD4051BPW_Driver.c **** ////        DIAG_BCD_A_Write(localMuxValue&0x01);
 144:CD4051BPW_Driver.c **** //    }
 145:CD4051BPW_Driver.c **** }
 132              		.loc 1 145 0
 133 0026 00BF     		nop
 134 0028 1037     		adds	r7, r7, #16
 135              		.cfi_def_cfa_offset 8
 136 002a BD46     		mov	sp, r7
 137              		.cfi_def_cfa_register 13
 138              		@ sp needed
 139 002c 80BD     		pop	{r7, pc}
 140              		.cfi_endproc
ARM GAS  C:\Users\MARTHN~1\AppData\Local\Temp\cctbkY5q.s 			page 6


 141              	.LFE65:
 142              		.size	selectADCChannelMux, .-selectADCChannelMux
 143 002e 00BF     		.data
 144              		.align	2
 145              		.type	lookUpChipMuxValues.6419, %object
 146              		.size	lookUpChipMuxValues.6419, 32
 147              	lookUpChipMuxValues.6419:
 148 0000 0D       		.byte	13
 149 0001 0F       		.byte	15
 150 0002 0E       		.byte	14
 151 0003 0C       		.byte	12
 152 0004 02       		.byte	2
 153 0005 01       		.byte	1
 154 0006 00       		.byte	0
 155 0007 03       		.byte	3
 156 0008 1D       		.byte	29
 157 0009 1F       		.byte	31
 158 000a 1E       		.byte	30
 159 000b 1C       		.byte	28
 160 000c 0B       		.byte	11
 161 000d 08       		.byte	8
 162 000e 09       		.byte	9
 163 000f 0A       		.byte	10
 164 0010 1B       		.byte	27
 165 0011 18       		.byte	24
 166 0012 19       		.byte	25
 167 0013 1A       		.byte	26
 168 0014 05       		.byte	5
 169 0015 07       		.byte	7
 170 0016 06       		.byte	6
 171 0017 04       		.byte	4
 172 0018 13       		.byte	19
 173 0019 10       		.byte	16
 174 001a 11       		.byte	17
 175 001b 12       		.byte	18
 176 001c 14       		.byte	20
 177 001d 16       		.byte	22
 178 001e 17       		.byte	23
 179 001f 15       		.byte	21
 180              		.text
 181              	.Letext0:
 182              		.file 2 "c:\\program files (x86)\\cypress\\psoc creator\\4.3\\psoc creator\\import\\gnu\\arm\\5.4.
 183              		.file 3 "c:\\program files (x86)\\cypress\\psoc creator\\4.3\\psoc creator\\import\\gnu\\arm\\5.4.
 184              		.file 4 "Generated_Source\\PSoC5/cytypes.h"
 185              		.file 5 "Generated_Source\\PSoC5/core_cm3.h"