ARM GAS  C:\Users\MARTHN~1\AppData\Local\Temp\ccfUmdHa.s 			page 1


   1              		.syntax unified
   2              		.cpu cortex-m3
   3              		.fpu softvfp
   4              		.eabi_attribute 20, 1
   5              		.eabi_attribute 21, 1
   6              		.eabi_attribute 23, 3
   7              		.eabi_attribute 24, 1
   8              		.eabi_attribute 25, 1
   9              		.eabi_attribute 26, 1
  10              		.eabi_attribute 30, 6
  11              		.eabi_attribute 34, 1
  12              		.eabi_attribute 18, 4
  13              		.thumb
  14              		.syntax unified
  15              		.file	"CommManager.c"
  16              		.text
  17              	.Ltext0:
  18              		.cfi_sections	.debug_frame
  19              		.data
  20              		.align	2
  21              		.type	PacketList, %object
  22              		.size	PacketList, 20
  23              	PacketList:
  24 0000 7E       		.byte	126
  25 0001 50       		.byte	80
  26 0002 06       		.byte	6
  27 0003 0D       		.byte	13
  28 0004 0A       		.byte	10
  29 0005 7E       		.byte	126
  30 0006 44       		.byte	68
  31 0007 0F       		.byte	15
  32 0008 0D       		.byte	13
  33 0009 0A       		.byte	10
  34 000a 7E       		.byte	126
  35 000b 53       		.byte	83
  36 000c 05       		.byte	5
  37 000d 0D       		.byte	13
  38 000e 0A       		.byte	10
  39 000f 7E       		.byte	126
  40 0010 48       		.byte	72
  41 0011 03       		.byte	3
  42 0012 0D       		.byte	13
  43 0013 0A       		.byte	10
  44              		.bss
  45              		.align	2
  46              	packetsuccess:
  47 0000 00000000 		.space	8
  47      00000000 
  48              		.align	2
  49              	rxPacket:
  50 0008 00000000 		.space	6
  50      0000
  51 000e 0000     		.align	2
  52              	pRxPacket:
  53 0010 00000000 		.space	4
  54              		.section	.text.getRxPacket,"ax",%progbits
  55              		.align	2
ARM GAS  C:\Users\MARTHN~1\AppData\Local\Temp\ccfUmdHa.s 			page 2


  56              		.global	getRxPacket
  57              		.thumb
  58              		.thumb_func
  59              		.type	getRxPacket, %function
  60              	getRxPacket:
  61              	.LFB63:
  62              		.file 1 "CommManager.c"
   1:CommManager.c **** /* ========================================
   2:CommManager.c ****  *
   3:CommManager.c ****  * Copyright FENIEX INDUSTRIES, 2016
   4:CommManager.c ****  * 200W SIREN
   5:CommManager.c ****  *
   6:CommManager.c ****  * All Rights Reserved
   7:CommManager.c ****  * UNPUBLISHED, LICENSED SOFTWARE.
   8:CommManager.c ****  *
   9:CommManager.c ****  * CONFIDENTIAL AND PROPRIETARY INFORMATION
  10:CommManager.c ****  * WHICH IS THE PROPERTY OF your company.
  11:CommManager.c ****  *
  12:CommManager.c ****  * ========================================
  13:CommManager.c **** */
  14:CommManager.c **** 
  15:CommManager.c **** /**********CHANGE LOG**********/
  16:CommManager.c **** 
  17:CommManager.c **** 
  18:CommManager.c **** /**********PREPROCESSOR DIRECTIVES**********/
  19:CommManager.c **** #include "CommManager.h"
  20:CommManager.c **** 
  21:CommManager.c **** #define HEADER_BYTE_COUNT       2
  22:CommManager.c **** #define EOP_BYTE_COUNT          2
  23:CommManager.c **** 
  24:CommManager.c **** #define HEADER_START_INDEX      0
  25:CommManager.c **** #define PAYLOAD_START_INDEX     HEADER_BYTE_COUNT
  26:CommManager.c **** 
  27:CommManager.c **** #define MAX_PAYLOAD_BYTE_COUNT  15
  28:CommManager.c **** #define PACKET_TYPE_COUNT       4
  29:CommManager.c **** 
  30:CommManager.c **** /**********DEFINED CONSTANTS**********/
  31:CommManager.c **** enum DataType
  32:CommManager.c **** { 
  33:CommManager.c ****     CTEST_RELAY, 
  34:CommManager.c ****     RTEST_CONTROLLER,
  35:CommManager.c ****     RTEST_SIREN,
  36:CommManager.c ****     STEST_RELAY
  37:CommManager.c **** };
  38:CommManager.c **** 
  39:CommManager.c **** enum PacketState
  40:CommManager.c **** {
  41:CommManager.c ****     HEADER_STATE,
  42:CommManager.c ****     PAYLOAD_STATE,
  43:CommManager.c ****     EOP_STATE
  44:CommManager.c **** };
  45:CommManager.c **** 
  46:CommManager.c **** /**********DATA STRUCTURES**********/
  47:CommManager.c **** typedef struct
  48:CommManager.c **** {
  49:CommManager.c ****     const uint8 HEADER_BYTE;
  50:CommManager.c ****     const uint8 PACKET_TYPE;
ARM GAS  C:\Users\MARTHN~1\AppData\Local\Temp\ccfUmdHa.s 			page 3


  51:CommManager.c ****     const uint8 PAYLOAD_SIZE;
  52:CommManager.c ****     const uint8 EOP_CARRIAGE_RETURN;
  53:CommManager.c ****     const uint8 EOP_LINE_FEED;
  54:CommManager.c **** }Packet;
  55:CommManager.c **** 
  56:CommManager.c **** static Packet PacketList[PACKET_TYPE_COUNT] = 
  57:CommManager.c **** {
  58:CommManager.c ****     {'~', 'P', 6, '\r', '\n'},         //*** RelayPacket(from Controller) - payload size should be 
  59:CommManager.c ****     {'~', 'D', 15, '\r', '\n'},         // RelayPacket(to Controller)
  60:CommManager.c ****     {'~', 'S', 5, '\r', '\n'},          //*** SirenPacket(from Relay) - payload size should be 4 **
  61:CommManager.c ****     {'~', 'H', 3, '\r', '\n'},          //*** RelayPacket(from Siren) - This needs work eventually
  62:CommManager.c **** };
  63:CommManager.c **** 
  64:CommManager.c **** ///**********GLOBAL VARIABLES**********/
  65:CommManager.c **** static uint16 packetsuccess[4] = {0,0,0,0};
  66:CommManager.c **** //static uint8 packetsuccess_log[100];
  67:CommManager.c **** //static uint8 count = 0;
  68:CommManager.c **** 
  69:CommManager.c **** //static RxPacket_DL2 rxPacket_DL2;                    
  70:CommManager.c **** //static RxPacket_DL2 * pRxPacket_DL2;      
  71:CommManager.c **** static RxPacket rxPacket;            
  72:CommManager.c **** static RxPacket * pRxPacket;       
  73:CommManager.c **** 
  74:CommManager.c **** 
  75:CommManager.c **** 
  76:CommManager.c **** /**********LOCAL FUNCTION PROTOTYPES**********/
  77:CommManager.c **** static void detectPacket(uint8 dataByte);
  78:CommManager.c **** 
  79:CommManager.c **** /**********DEFINED GLOBAL FUNCTIONS**********/
  80:CommManager.c **** 
  81:CommManager.c **** //RxPacket_DL2 * getRxPacket_DL2(void)
  82:CommManager.c **** //{
  83:CommManager.c **** //    pRxPacket_DL2 = &rxPacket_DL2;
  84:CommManager.c **** //    
  85:CommManager.c **** //    return pRxPacket_DL2;
  86:CommManager.c **** //}
  87:CommManager.c **** 
  88:CommManager.c **** RxPacket * getRxPacket(void)
  89:CommManager.c **** {
  63              		.loc 1 89 0
  64              		.cfi_startproc
  65              		@ args = 0, pretend = 0, frame = 0
  66              		@ frame_needed = 1, uses_anonymous_args = 0
  67              		@ link register save eliminated.
  68 0000 80B4     		push	{r7}
  69              		.cfi_def_cfa_offset 4
  70              		.cfi_offset 7, -4
  71 0002 00AF     		add	r7, sp, #0
  72              		.cfi_def_cfa_register 7
  90:CommManager.c ****     pRxPacket = &rxPacket;
  73              		.loc 1 90 0
  74 0004 044B     		ldr	r3, .L3
  75 0006 054A     		ldr	r2, .L3+4
  76 0008 1A60     		str	r2, [r3]
  91:CommManager.c ****     
  92:CommManager.c ****     return pRxPacket;
  77              		.loc 1 92 0
ARM GAS  C:\Users\MARTHN~1\AppData\Local\Temp\ccfUmdHa.s 			page 4


  78 000a 034B     		ldr	r3, .L3
  79 000c 1B68     		ldr	r3, [r3]
  93:CommManager.c **** }
  80              		.loc 1 93 0
  81 000e 1846     		mov	r0, r3
  82 0010 BD46     		mov	sp, r7
  83              		.cfi_def_cfa_register 13
  84              		@ sp needed
  85 0012 80BC     		pop	{r7}
  86              		.cfi_restore 7
  87              		.cfi_def_cfa_offset 0
  88 0014 7047     		bx	lr
  89              	.L4:
  90 0016 00BF     		.align	2
  91              	.L3:
  92 0018 10000000 		.word	pRxPacket
  93 001c 08000000 		.word	rxPacket
  94              		.cfi_endproc
  95              	.LFE63:
  96              		.size	getRxPacket, .-getRxPacket
  97              		.section	.text.processByteReceivedHandler,"ax",%progbits
  98              		.align	2
  99              		.global	processByteReceivedHandler
 100              		.thumb
 101              		.thumb_func
 102              		.type	processByteReceivedHandler, %function
 103              	processByteReceivedHandler:
 104              	.LFB64:
  94:CommManager.c **** 
  95:CommManager.c **** /*******************************************************************************
  96:CommManager.c **** * Function Name: processByteReceivedHandler
  97:CommManager.c **** ********************************************************************************
  98:CommManager.c **** *
  99:CommManager.c **** * Summary:
 100:CommManager.c **** *  Triggers when a byte is received in UART, called in UART_ISR(). If in voice
 101:CommManager.c **** *  stream mode, the byte is sent directly to the DAC.
 102:CommManager.c **** *
 103:CommManager.c **** * Parameters:
 104:CommManager.c **** *  None.
 105:CommManager.c **** *
 106:CommManager.c **** * Return:
 107:CommManager.c **** *  None.
 108:CommManager.c **** *
 109:CommManager.c **** *******************************************************************************/
 110:CommManager.c **** void processByteReceivedHandler(void)
 111:CommManager.c **** {
 105              		.loc 1 111 0
 106              		.cfi_startproc
 107              		@ args = 0, pretend = 0, frame = 8
 108              		@ frame_needed = 1, uses_anonymous_args = 0
 109 0000 80B5     		push	{r7, lr}
 110              		.cfi_def_cfa_offset 8
 111              		.cfi_offset 7, -8
 112              		.cfi_offset 14, -4
 113 0002 82B0     		sub	sp, sp, #8
 114              		.cfi_def_cfa_offset 16
 115 0004 00AF     		add	r7, sp, #0
ARM GAS  C:\Users\MARTHN~1\AppData\Local\Temp\ccfUmdHa.s 			page 5


 116              		.cfi_def_cfa_register 7
 112:CommManager.c ****     uint8 dataByte = 0;
 117              		.loc 1 112 0
 118 0006 0023     		movs	r3, #0
 119 0008 FB71     		strb	r3, [r7, #7]
 120              	.L6:
 113:CommManager.c ****     
 114:CommManager.c **** //    static uint8 testbuffer[100];
 115:CommManager.c **** //    static uint8 testbuffer_count = 0;
 116:CommManager.c ****     
 117:CommManager.c ****     do
 118:CommManager.c ****     {
 119:CommManager.c ****         dataByte = UART_230400_GetChar();
 121              		.loc 1 119 0 discriminator 1
 122 000a FFF7FEFF 		bl	UART_230400_GetChar
 123 000e 0346     		mov	r3, r0
 124 0010 FB71     		strb	r3, [r7, #7]
 120:CommManager.c ****         
 121:CommManager.c **** //        testbuffer[testbuffer_count] = dataByte;
 122:CommManager.c **** //        testbuffer_count++;
 123:CommManager.c **** //        if(testbuffer_count >= 100)
 124:CommManager.c **** //            testbuffer_count = 0;
 125:CommManager.c ****         
 126:CommManager.c ****         detectPacket(dataByte);
 125              		.loc 1 126 0 discriminator 1
 126 0012 FB79     		ldrb	r3, [r7, #7]	@ zero_extendqisi2
 127 0014 1846     		mov	r0, r3
 128 0016 FFF7FEFF 		bl	detectPacket
 127:CommManager.c ****         
 128:CommManager.c ****     }while(UART_230400_ReadRxStatus() & UART_230400_RX_STS_FIFO_NOTEMPTY);
 129              		.loc 1 128 0 discriminator 1
 130 001a FFF7FEFF 		bl	UART_230400_ReadRxStatus
 131 001e 0346     		mov	r3, r0
 132 0020 03F02003 		and	r3, r3, #32
 133 0024 002B     		cmp	r3, #0
 134 0026 F0D1     		bne	.L6
 129:CommManager.c ****     
 130:CommManager.c ****     //UART_Timer_Start();
 131:CommManager.c **** }
 135              		.loc 1 131 0
 136 0028 00BF     		nop
 137 002a 0837     		adds	r7, r7, #8
 138              		.cfi_def_cfa_offset 8
 139 002c BD46     		mov	sp, r7
 140              		.cfi_def_cfa_register 13
 141              		@ sp needed
 142 002e 80BD     		pop	{r7, pc}
 143              		.cfi_endproc
 144              	.LFE64:
 145              		.size	processByteReceivedHandler, .-processByteReceivedHandler
 146              		.section	.text.detectPacket,"ax",%progbits
 147              		.align	2
 148              		.thumb
 149              		.thumb_func
 150              		.type	detectPacket, %function
 151              	detectPacket:
 152              	.LFB65:
ARM GAS  C:\Users\MARTHN~1\AppData\Local\Temp\ccfUmdHa.s 			page 6


 132:CommManager.c **** 
 133:CommManager.c **** 
 134:CommManager.c **** /**********DEFINED LOCAL FUNCTIONS**********/
 135:CommManager.c **** /*******************************************************************************
 136:CommManager.c **** * Function Name: detectPacket
 137:CommManager.c **** ********************************************************************************
 138:CommManager.c **** *
 139:CommManager.c **** * Summary:
 140:CommManager.c **** *  Determines if the incoming byte belongs to a valid packet. If the packet is for
 141:CommManager.c **** *  for starting voice stream, voice stream mode will be activated.
 142:CommManager.c **** *
 143:CommManager.c **** * Parameters:
 144:CommManager.c **** *  dataByte: The byte to check
 145:CommManager.c **** *
 146:CommManager.c **** * Return:
 147:CommManager.c **** *  None.
 148:CommManager.c **** *
 149:CommManager.c **** *******************************************************************************/
 150:CommManager.c **** static void detectPacket(uint8 dataByte)
 151:CommManager.c **** {
 153              		.loc 1 151 0
 154              		.cfi_startproc
 155              		@ args = 0, pretend = 0, frame = 8
 156              		@ frame_needed = 1, uses_anonymous_args = 0
 157              		@ link register save eliminated.
 158 0000 80B4     		push	{r7}
 159              		.cfi_def_cfa_offset 4
 160              		.cfi_offset 7, -4
 161 0002 83B0     		sub	sp, sp, #12
 162              		.cfi_def_cfa_offset 16
 163 0004 00AF     		add	r7, sp, #0
 164              		.cfi_def_cfa_register 7
 165 0006 0346     		mov	r3, r0
 166 0008 FB71     		strb	r3, [r7, #7]
 152:CommManager.c ****     static uint8 packet[MAX_PAYLOAD_BYTE_COUNT+HEADER_BYTE_COUNT+EOP_BYTE_COUNT];   
 153:CommManager.c ****     static enum PacketState currentState = HEADER_STATE;
 154:CommManager.c ****     static enum DataType currentType = CTEST_RELAY;
 155:CommManager.c ****     static uint8 currentPacketIndex = HEADER_START_INDEX;
 156:CommManager.c ****     
 157:CommManager.c ****     switch(currentState)
 167              		.loc 1 157 0
 168 000a 984B     		ldr	r3, .L31
 169 000c 1B78     		ldrb	r3, [r3]	@ zero_extendqisi2
 170 000e 012B     		cmp	r3, #1
 171 0010 78D0     		beq	.L9
 172 0012 022B     		cmp	r3, #2
 173 0014 00F09780 		beq	.L10
 174 0018 002B     		cmp	r3, #0
 175 001a 00D0     		beq	.L11
 158:CommManager.c ****     {
 159:CommManager.c ****         case HEADER_STATE:
 160:CommManager.c ****             if((currentPacketIndex == HEADER_START_INDEX) && ( (dataByte == PacketList[CTEST_RELAY]
 161:CommManager.c ****                                                                (dataByte == PacketList[RTEST_CONTRO
 162:CommManager.c ****                                                                (dataByte == PacketList[RTEST_SIREN]
 163:CommManager.c ****                                                                (dataByte == PacketList[STEST_RELAY]
 164:CommManager.c ****             {
 165:CommManager.c ****                 packet[currentPacketIndex] = dataByte;
ARM GAS  C:\Users\MARTHN~1\AppData\Local\Temp\ccfUmdHa.s 			page 7


 166:CommManager.c ****                 currentPacketIndex++;
 167:CommManager.c ****             }
 168:CommManager.c ****             else if((currentPacketIndex == (HEADER_START_INDEX+1)) && ( (dataByte == PacketList[CTE
 169:CommManager.c ****                                                                         (dataByte == PacketList[RTE
 170:CommManager.c ****                                                                         (dataByte == PacketList[RTE
 171:CommManager.c ****                                                                         (dataByte == PacketList[STE
 172:CommManager.c ****             {
 173:CommManager.c ****                 packet[currentPacketIndex] = dataByte;
 174:CommManager.c ****                 currentPacketIndex++;
 175:CommManager.c ****                 currentState = PAYLOAD_STATE;
 176:CommManager.c ****                 
 177:CommManager.c ****                 if(dataByte == PacketList[RTEST_CONTROLLER].PACKET_TYPE)
 178:CommManager.c ****                     currentType = RTEST_CONTROLLER;
 179:CommManager.c ****                 else if(dataByte == PacketList[RTEST_SIREN].PACKET_TYPE)
 180:CommManager.c ****                     currentType = RTEST_SIREN;
 181:CommManager.c ****                 else if(dataByte == PacketList[STEST_RELAY].PACKET_TYPE)
 182:CommManager.c ****                     currentType = STEST_RELAY;
 183:CommManager.c ****                 else
 184:CommManager.c ****                     currentType = CTEST_RELAY;
 185:CommManager.c ****             }
 186:CommManager.c ****             else
 187:CommManager.c ****             {
 188:CommManager.c ****                 currentPacketIndex = HEADER_START_INDEX;
 189:CommManager.c ****                 currentType = CTEST_RELAY;
 190:CommManager.c ****             }
 191:CommManager.c ****             break;
 192:CommManager.c ****             
 193:CommManager.c ****         case PAYLOAD_STATE:
 194:CommManager.c ****             packet[currentPacketIndex] = dataByte;
 195:CommManager.c ****             currentPacketIndex++;
 196:CommManager.c ****             
 197:CommManager.c ****             if(currentPacketIndex >= (PAYLOAD_START_INDEX + PacketList[currentType].PAYLOAD_SIZE))
 198:CommManager.c ****                 currentState = EOP_STATE;
 199:CommManager.c ****             break;   
 200:CommManager.c ****             
 201:CommManager.c ****         case EOP_STATE:
 202:CommManager.c ****             if((currentPacketIndex == (PAYLOAD_START_INDEX + PacketList[currentType].PAYLOAD_SIZE))
 203:CommManager.c ****                 (dataByte == PacketList[currentType].EOP_CARRIAGE_RETURN))
 204:CommManager.c ****             {
 205:CommManager.c ****                 packet[currentPacketIndex] = dataByte;
 206:CommManager.c ****                 currentPacketIndex++;
 207:CommManager.c ****             }
 208:CommManager.c ****             else if((currentPacketIndex == (PAYLOAD_START_INDEX + PacketList[currentType].PAYLOAD_S
 209:CommManager.c ****                 (dataByte == PacketList[currentType].EOP_LINE_FEED))
 210:CommManager.c ****             {
 211:CommManager.c ****                 packet[currentPacketIndex] = dataByte;
 212:CommManager.c ****                               
 213:CommManager.c ****                 if(currentType == CTEST_RELAY)
 214:CommManager.c ****                    packetsuccess[0]++;
 215:CommManager.c ****                 else if(currentType == RTEST_CONTROLLER)
 216:CommManager.c ****                    packetsuccess[1]++;
 217:CommManager.c ****                 else if(currentType == RTEST_SIREN)
 218:CommManager.c ****                    packetsuccess[2]++;
 219:CommManager.c ****                 else if(currentType == STEST_RELAY)
 220:CommManager.c ****                    packetsuccess[3]++;
 221:CommManager.c **** 
 222:CommManager.c **** 
ARM GAS  C:\Users\MARTHN~1\AppData\Local\Temp\ccfUmdHa.s 			page 8


 223:CommManager.c **** //                if(packetsuccess[0] > 1000)
 224:CommManager.c **** //                    packetsuccess[0] = 0;
 225:CommManager.c **** //                if(packetsuccess[2] > 1000)
 226:CommManager.c **** //                    packetsuccess[2] = 0;
 227:CommManager.c **** 
 228:CommManager.c **** //                if(count >= 50)
 229:CommManager.c **** //                    packetsuccess[2] = 0;
 230:CommManager.c **** //                if(count == 0)
 231:CommManager.c **** //                    packetsuccess[2] = 0;
 232:CommManager.c ****                 
 233:CommManager.c ****                 currentPacketIndex = HEADER_START_INDEX;
 234:CommManager.c ****                 currentState = HEADER_STATE;
 235:CommManager.c ****                 currentType = CTEST_RELAY;
 236:CommManager.c ****             }
 237:CommManager.c ****             else
 238:CommManager.c ****             {
 239:CommManager.c ****                 currentPacketIndex = HEADER_START_INDEX;
 240:CommManager.c ****                 currentState = HEADER_STATE;
 241:CommManager.c ****                 currentType = CTEST_RELAY;
 242:CommManager.c ****             }
 243:CommManager.c ****             break;
 244:CommManager.c ****     }
 245:CommManager.c **** }
 176              		.loc 1 245 0
 177 001c 21E1     		b	.L30
 178              	.L11:
 160:CommManager.c ****                                                                (dataByte == PacketList[RTEST_CONTRO
 179              		.loc 1 160 0
 180 001e 944B     		ldr	r3, .L31+4
 181 0020 1B78     		ldrb	r3, [r3]	@ zero_extendqisi2
 182 0022 002B     		cmp	r3, #0
 183 0024 20D1     		bne	.L12
 160:CommManager.c ****                                                                (dataByte == PacketList[RTEST_CONTRO
 184              		.loc 1 160 0 is_stmt 0 discriminator 1
 185 0026 934B     		ldr	r3, .L31+8
 186 0028 1B78     		ldrb	r3, [r3]	@ zero_extendqisi2
 187 002a FA79     		ldrb	r2, [r7, #7]	@ zero_extendqisi2
 188 002c 9A42     		cmp	r2, r3
 189 002e 0ED0     		beq	.L13
 161:CommManager.c ****                                                                (dataByte == PacketList[RTEST_SIREN]
 190              		.loc 1 161 0 is_stmt 1 discriminator 2
 191 0030 904B     		ldr	r3, .L31+8
 192 0032 5B79     		ldrb	r3, [r3, #5]	@ zero_extendqisi2
 160:CommManager.c ****                                                                (dataByte == PacketList[RTEST_CONTRO
 193              		.loc 1 160 0 discriminator 2
 194 0034 FA79     		ldrb	r2, [r7, #7]	@ zero_extendqisi2
 195 0036 9A42     		cmp	r2, r3
 196 0038 09D0     		beq	.L13
 162:CommManager.c ****                                                                (dataByte == PacketList[STEST_RELAY]
 197              		.loc 1 162 0
 198 003a 8E4B     		ldr	r3, .L31+8
 199 003c 9B7A     		ldrb	r3, [r3, #10]	@ zero_extendqisi2
 161:CommManager.c ****                                                                (dataByte == PacketList[RTEST_SIREN]
 200              		.loc 1 161 0
 201 003e FA79     		ldrb	r2, [r7, #7]	@ zero_extendqisi2
 202 0040 9A42     		cmp	r2, r3
 203 0042 04D0     		beq	.L13
ARM GAS  C:\Users\MARTHN~1\AppData\Local\Temp\ccfUmdHa.s 			page 9


 163:CommManager.c ****             {
 204              		.loc 1 163 0
 205 0044 8B4B     		ldr	r3, .L31+8
 206 0046 DB7B     		ldrb	r3, [r3, #15]	@ zero_extendqisi2
 162:CommManager.c ****                                                                (dataByte == PacketList[STEST_RELAY]
 207              		.loc 1 162 0
 208 0048 FA79     		ldrb	r2, [r7, #7]	@ zero_extendqisi2
 209 004a 9A42     		cmp	r2, r3
 210 004c 0CD1     		bne	.L12
 211              	.L13:
 165:CommManager.c ****                 currentPacketIndex++;
 212              		.loc 1 165 0
 213 004e 884B     		ldr	r3, .L31+4
 214 0050 1B78     		ldrb	r3, [r3]	@ zero_extendqisi2
 215 0052 1946     		mov	r1, r3
 216 0054 884A     		ldr	r2, .L31+12
 217 0056 FB79     		ldrb	r3, [r7, #7]
 218 0058 5354     		strb	r3, [r2, r1]
 166:CommManager.c ****             }
 219              		.loc 1 166 0
 220 005a 854B     		ldr	r3, .L31+4
 221 005c 1B78     		ldrb	r3, [r3]	@ zero_extendqisi2
 222 005e 0133     		adds	r3, r3, #1
 223 0060 DAB2     		uxtb	r2, r3
 224 0062 834B     		ldr	r3, .L31+4
 225 0064 1A70     		strb	r2, [r3]
 226 0066 4CE0     		b	.L14
 227              	.L12:
 168:CommManager.c ****                                                                         (dataByte == PacketList[RTE
 228              		.loc 1 168 0
 229 0068 814B     		ldr	r3, .L31+4
 230 006a 1B78     		ldrb	r3, [r3]	@ zero_extendqisi2
 231 006c 012B     		cmp	r3, #1
 232 006e 41D1     		bne	.L15
 168:CommManager.c ****                                                                         (dataByte == PacketList[RTE
 233              		.loc 1 168 0 is_stmt 0 discriminator 1
 234 0070 804B     		ldr	r3, .L31+8
 235 0072 5B78     		ldrb	r3, [r3, #1]	@ zero_extendqisi2
 236 0074 FA79     		ldrb	r2, [r7, #7]	@ zero_extendqisi2
 237 0076 9A42     		cmp	r2, r3
 238 0078 0ED0     		beq	.L16
 169:CommManager.c ****                                                                         (dataByte == PacketList[RTE
 239              		.loc 1 169 0 is_stmt 1 discriminator 2
 240 007a 7E4B     		ldr	r3, .L31+8
 241 007c 9B79     		ldrb	r3, [r3, #6]	@ zero_extendqisi2
 168:CommManager.c ****                                                                         (dataByte == PacketList[RTE
 242              		.loc 1 168 0 discriminator 2
 243 007e FA79     		ldrb	r2, [r7, #7]	@ zero_extendqisi2
 244 0080 9A42     		cmp	r2, r3
 245 0082 09D0     		beq	.L16
 170:CommManager.c ****                                                                         (dataByte == PacketList[STE
 246              		.loc 1 170 0
 247 0084 7B4B     		ldr	r3, .L31+8
 248 0086 DB7A     		ldrb	r3, [r3, #11]	@ zero_extendqisi2
 169:CommManager.c ****                                                                         (dataByte == PacketList[RTE
 249              		.loc 1 169 0
 250 0088 FA79     		ldrb	r2, [r7, #7]	@ zero_extendqisi2
ARM GAS  C:\Users\MARTHN~1\AppData\Local\Temp\ccfUmdHa.s 			page 10


 251 008a 9A42     		cmp	r2, r3
 252 008c 04D0     		beq	.L16
 171:CommManager.c ****             {
 253              		.loc 1 171 0
 254 008e 794B     		ldr	r3, .L31+8
 255 0090 1B7C     		ldrb	r3, [r3, #16]	@ zero_extendqisi2
 170:CommManager.c ****                                                                         (dataByte == PacketList[STE
 256              		.loc 1 170 0
 257 0092 FA79     		ldrb	r2, [r7, #7]	@ zero_extendqisi2
 258 0094 9A42     		cmp	r2, r3
 259 0096 2DD1     		bne	.L15
 260              	.L16:
 173:CommManager.c ****                 currentPacketIndex++;
 261              		.loc 1 173 0
 262 0098 754B     		ldr	r3, .L31+4
 263 009a 1B78     		ldrb	r3, [r3]	@ zero_extendqisi2
 264 009c 1946     		mov	r1, r3
 265 009e 764A     		ldr	r2, .L31+12
 266 00a0 FB79     		ldrb	r3, [r7, #7]
 267 00a2 5354     		strb	r3, [r2, r1]
 174:CommManager.c ****                 currentState = PAYLOAD_STATE;
 268              		.loc 1 174 0
 269 00a4 724B     		ldr	r3, .L31+4
 270 00a6 1B78     		ldrb	r3, [r3]	@ zero_extendqisi2
 271 00a8 0133     		adds	r3, r3, #1
 272 00aa DAB2     		uxtb	r2, r3
 273 00ac 704B     		ldr	r3, .L31+4
 274 00ae 1A70     		strb	r2, [r3]
 175:CommManager.c ****                 
 275              		.loc 1 175 0
 276 00b0 6E4B     		ldr	r3, .L31
 277 00b2 0122     		movs	r2, #1
 278 00b4 1A70     		strb	r2, [r3]
 177:CommManager.c ****                     currentType = RTEST_CONTROLLER;
 279              		.loc 1 177 0
 280 00b6 6F4B     		ldr	r3, .L31+8
 281 00b8 9B79     		ldrb	r3, [r3, #6]	@ zero_extendqisi2
 282 00ba FA79     		ldrb	r2, [r7, #7]	@ zero_extendqisi2
 283 00bc 9A42     		cmp	r2, r3
 284 00be 03D1     		bne	.L17
 178:CommManager.c ****                 else if(dataByte == PacketList[RTEST_SIREN].PACKET_TYPE)
 285              		.loc 1 178 0
 286 00c0 6E4B     		ldr	r3, .L31+16
 287 00c2 0122     		movs	r2, #1
 288 00c4 1A70     		strb	r2, [r3]
 177:CommManager.c ****                     currentType = RTEST_CONTROLLER;
 289              		.loc 1 177 0
 290 00c6 1CE0     		b	.L14
 291              	.L17:
 179:CommManager.c ****                     currentType = RTEST_SIREN;
 292              		.loc 1 179 0
 293 00c8 6A4B     		ldr	r3, .L31+8
 294 00ca DB7A     		ldrb	r3, [r3, #11]	@ zero_extendqisi2
 295 00cc FA79     		ldrb	r2, [r7, #7]	@ zero_extendqisi2
 296 00ce 9A42     		cmp	r2, r3
 297 00d0 03D1     		bne	.L19
 180:CommManager.c ****                 else if(dataByte == PacketList[STEST_RELAY].PACKET_TYPE)
ARM GAS  C:\Users\MARTHN~1\AppData\Local\Temp\ccfUmdHa.s 			page 11


 298              		.loc 1 180 0
 299 00d2 6A4B     		ldr	r3, .L31+16
 300 00d4 0222     		movs	r2, #2
 301 00d6 1A70     		strb	r2, [r3]
 177:CommManager.c ****                     currentType = RTEST_CONTROLLER;
 302              		.loc 1 177 0
 303 00d8 13E0     		b	.L14
 304              	.L19:
 181:CommManager.c ****                     currentType = STEST_RELAY;
 305              		.loc 1 181 0
 306 00da 664B     		ldr	r3, .L31+8
 307 00dc 1B7C     		ldrb	r3, [r3, #16]	@ zero_extendqisi2
 308 00de FA79     		ldrb	r2, [r7, #7]	@ zero_extendqisi2
 309 00e0 9A42     		cmp	r2, r3
 310 00e2 03D1     		bne	.L20
 182:CommManager.c ****                 else
 311              		.loc 1 182 0
 312 00e4 654B     		ldr	r3, .L31+16
 313 00e6 0322     		movs	r2, #3
 314 00e8 1A70     		strb	r2, [r3]
 177:CommManager.c ****                     currentType = RTEST_CONTROLLER;
 315              		.loc 1 177 0
 316 00ea 0AE0     		b	.L14
 317              	.L20:
 184:CommManager.c ****             }
 318              		.loc 1 184 0
 319 00ec 634B     		ldr	r3, .L31+16
 320 00ee 0022     		movs	r2, #0
 321 00f0 1A70     		strb	r2, [r3]
 177:CommManager.c ****                     currentType = RTEST_CONTROLLER;
 322              		.loc 1 177 0
 323 00f2 06E0     		b	.L14
 324              	.L15:
 188:CommManager.c ****                 currentType = CTEST_RELAY;
 325              		.loc 1 188 0
 326 00f4 5E4B     		ldr	r3, .L31+4
 327 00f6 0022     		movs	r2, #0
 328 00f8 1A70     		strb	r2, [r3]
 189:CommManager.c ****             }
 329              		.loc 1 189 0
 330 00fa 604B     		ldr	r3, .L31+16
 331 00fc 0022     		movs	r2, #0
 332 00fe 1A70     		strb	r2, [r3]
 191:CommManager.c ****             
 333              		.loc 1 191 0
 334 0100 AFE0     		b	.L8
 335              	.L14:
 191:CommManager.c ****             
 336              		.loc 1 191 0 is_stmt 0 discriminator 1
 337 0102 AEE0     		b	.L8
 338              	.L9:
 194:CommManager.c ****             currentPacketIndex++;
 339              		.loc 1 194 0 is_stmt 1
 340 0104 5A4B     		ldr	r3, .L31+4
 341 0106 1B78     		ldrb	r3, [r3]	@ zero_extendqisi2
 342 0108 1946     		mov	r1, r3
 343 010a 5B4A     		ldr	r2, .L31+12
ARM GAS  C:\Users\MARTHN~1\AppData\Local\Temp\ccfUmdHa.s 			page 12


 344 010c FB79     		ldrb	r3, [r7, #7]
 345 010e 5354     		strb	r3, [r2, r1]
 195:CommManager.c ****             
 346              		.loc 1 195 0
 347 0110 574B     		ldr	r3, .L31+4
 348 0112 1B78     		ldrb	r3, [r3]	@ zero_extendqisi2
 349 0114 0133     		adds	r3, r3, #1
 350 0116 DAB2     		uxtb	r2, r3
 351 0118 554B     		ldr	r3, .L31+4
 352 011a 1A70     		strb	r2, [r3]
 197:CommManager.c ****                 currentState = EOP_STATE;
 353              		.loc 1 197 0
 354 011c 544B     		ldr	r3, .L31+4
 355 011e 1B78     		ldrb	r3, [r3]	@ zero_extendqisi2
 356 0120 1846     		mov	r0, r3
 357 0122 564B     		ldr	r3, .L31+16
 358 0124 1B78     		ldrb	r3, [r3]	@ zero_extendqisi2
 359 0126 1946     		mov	r1, r3
 360 0128 524A     		ldr	r2, .L31+8
 361 012a 0B46     		mov	r3, r1
 362 012c 9B00     		lsls	r3, r3, #2
 363 012e 0B44     		add	r3, r3, r1
 364 0130 1344     		add	r3, r3, r2
 365 0132 0233     		adds	r3, r3, #2
 366 0134 1B78     		ldrb	r3, [r3]	@ zero_extendqisi2
 367 0136 0233     		adds	r3, r3, #2
 368 0138 9842     		cmp	r0, r3
 369 013a C0F29180 		blt	.L29
 198:CommManager.c ****             break;   
 370              		.loc 1 198 0
 371 013e 4B4B     		ldr	r3, .L31
 372 0140 0222     		movs	r2, #2
 373 0142 1A70     		strb	r2, [r3]
 199:CommManager.c ****             
 374              		.loc 1 199 0
 375 0144 8CE0     		b	.L29
 376              	.L10:
 202:CommManager.c ****                 (dataByte == PacketList[currentType].EOP_CARRIAGE_RETURN))
 377              		.loc 1 202 0
 378 0146 4A4B     		ldr	r3, .L31+4
 379 0148 1B78     		ldrb	r3, [r3]	@ zero_extendqisi2
 380 014a 1846     		mov	r0, r3
 381 014c 4B4B     		ldr	r3, .L31+16
 382 014e 1B78     		ldrb	r3, [r3]	@ zero_extendqisi2
 383 0150 1946     		mov	r1, r3
 384 0152 484A     		ldr	r2, .L31+8
 385 0154 0B46     		mov	r3, r1
 386 0156 9B00     		lsls	r3, r3, #2
 387 0158 0B44     		add	r3, r3, r1
 388 015a 1344     		add	r3, r3, r2
 389 015c 0233     		adds	r3, r3, #2
 390 015e 1B78     		ldrb	r3, [r3]	@ zero_extendqisi2
 391 0160 0233     		adds	r3, r3, #2
 392 0162 9842     		cmp	r0, r3
 393 0164 19D1     		bne	.L22
 203:CommManager.c ****             {
 394              		.loc 1 203 0 discriminator 1
ARM GAS  C:\Users\MARTHN~1\AppData\Local\Temp\ccfUmdHa.s 			page 13


 395 0166 454B     		ldr	r3, .L31+16
 396 0168 1B78     		ldrb	r3, [r3]	@ zero_extendqisi2
 397 016a 1946     		mov	r1, r3
 398 016c 414A     		ldr	r2, .L31+8
 399 016e 0B46     		mov	r3, r1
 400 0170 9B00     		lsls	r3, r3, #2
 401 0172 0B44     		add	r3, r3, r1
 402 0174 1344     		add	r3, r3, r2
 403 0176 0333     		adds	r3, r3, #3
 404 0178 1B78     		ldrb	r3, [r3]	@ zero_extendqisi2
 202:CommManager.c ****                 (dataByte == PacketList[currentType].EOP_CARRIAGE_RETURN))
 405              		.loc 1 202 0 discriminator 1
 406 017a FA79     		ldrb	r2, [r7, #7]	@ zero_extendqisi2
 407 017c 9A42     		cmp	r2, r3
 408 017e 0CD1     		bne	.L22
 205:CommManager.c ****                 currentPacketIndex++;
 409              		.loc 1 205 0
 410 0180 3B4B     		ldr	r3, .L31+4
 411 0182 1B78     		ldrb	r3, [r3]	@ zero_extendqisi2
 412 0184 1946     		mov	r1, r3
 413 0186 3C4A     		ldr	r2, .L31+12
 414 0188 FB79     		ldrb	r3, [r7, #7]
 415 018a 5354     		strb	r3, [r2, r1]
 206:CommManager.c ****             }
 416              		.loc 1 206 0
 417 018c 384B     		ldr	r3, .L31+4
 418 018e 1B78     		ldrb	r3, [r3]	@ zero_extendqisi2
 419 0190 0133     		adds	r3, r3, #1
 420 0192 DAB2     		uxtb	r2, r3
 421 0194 364B     		ldr	r3, .L31+4
 422 0196 1A70     		strb	r2, [r3]
 423 0198 61E0     		b	.L23
 424              	.L22:
 208:CommManager.c ****                 (dataByte == PacketList[currentType].EOP_LINE_FEED))
 425              		.loc 1 208 0
 426 019a 354B     		ldr	r3, .L31+4
 427 019c 1B78     		ldrb	r3, [r3]	@ zero_extendqisi2
 428 019e 1846     		mov	r0, r3
 429 01a0 364B     		ldr	r3, .L31+16
 430 01a2 1B78     		ldrb	r3, [r3]	@ zero_extendqisi2
 431 01a4 1946     		mov	r1, r3
 432 01a6 334A     		ldr	r2, .L31+8
 433 01a8 0B46     		mov	r3, r1
 434 01aa 9B00     		lsls	r3, r3, #2
 435 01ac 0B44     		add	r3, r3, r1
 436 01ae 1344     		add	r3, r3, r2
 437 01b0 0233     		adds	r3, r3, #2
 438 01b2 1B78     		ldrb	r3, [r3]	@ zero_extendqisi2
 439 01b4 0333     		adds	r3, r3, #3
 440 01b6 9842     		cmp	r0, r3
 441 01b8 47D1     		bne	.L24
 209:CommManager.c ****             {
 442              		.loc 1 209 0 discriminator 1
 443 01ba 304B     		ldr	r3, .L31+16
 444 01bc 1B78     		ldrb	r3, [r3]	@ zero_extendqisi2
 445 01be 1946     		mov	r1, r3
 446 01c0 2C4A     		ldr	r2, .L31+8
ARM GAS  C:\Users\MARTHN~1\AppData\Local\Temp\ccfUmdHa.s 			page 14


 447 01c2 0B46     		mov	r3, r1
 448 01c4 9B00     		lsls	r3, r3, #2
 449 01c6 0B44     		add	r3, r3, r1
 450 01c8 1344     		add	r3, r3, r2
 451 01ca 0433     		adds	r3, r3, #4
 452 01cc 1B78     		ldrb	r3, [r3]	@ zero_extendqisi2
 208:CommManager.c ****                 (dataByte == PacketList[currentType].EOP_LINE_FEED))
 453              		.loc 1 208 0 discriminator 1
 454 01ce FA79     		ldrb	r2, [r7, #7]	@ zero_extendqisi2
 455 01d0 9A42     		cmp	r2, r3
 456 01d2 3AD1     		bne	.L24
 211:CommManager.c ****                               
 457              		.loc 1 211 0
 458 01d4 264B     		ldr	r3, .L31+4
 459 01d6 1B78     		ldrb	r3, [r3]	@ zero_extendqisi2
 460 01d8 1946     		mov	r1, r3
 461 01da 274A     		ldr	r2, .L31+12
 462 01dc FB79     		ldrb	r3, [r7, #7]
 463 01de 5354     		strb	r3, [r2, r1]
 213:CommManager.c ****                    packetsuccess[0]++;
 464              		.loc 1 213 0
 465 01e0 264B     		ldr	r3, .L31+16
 466 01e2 1B78     		ldrb	r3, [r3]	@ zero_extendqisi2
 467 01e4 002B     		cmp	r3, #0
 468 01e6 06D1     		bne	.L25
 214:CommManager.c ****                 else if(currentType == RTEST_CONTROLLER)
 469              		.loc 1 214 0
 470 01e8 254B     		ldr	r3, .L31+20
 471 01ea 1B88     		ldrh	r3, [r3]
 472 01ec 0133     		adds	r3, r3, #1
 473 01ee 9AB2     		uxth	r2, r3
 474 01f0 234B     		ldr	r3, .L31+20
 475 01f2 1A80     		strh	r2, [r3]	@ movhi
 476 01f4 1FE0     		b	.L26
 477              	.L25:
 215:CommManager.c ****                    packetsuccess[1]++;
 478              		.loc 1 215 0
 479 01f6 214B     		ldr	r3, .L31+16
 480 01f8 1B78     		ldrb	r3, [r3]	@ zero_extendqisi2
 481 01fa 012B     		cmp	r3, #1
 482 01fc 06D1     		bne	.L27
 216:CommManager.c ****                 else if(currentType == RTEST_SIREN)
 483              		.loc 1 216 0
 484 01fe 204B     		ldr	r3, .L31+20
 485 0200 5B88     		ldrh	r3, [r3, #2]
 486 0202 0133     		adds	r3, r3, #1
 487 0204 9AB2     		uxth	r2, r3
 488 0206 1E4B     		ldr	r3, .L31+20
 489 0208 5A80     		strh	r2, [r3, #2]	@ movhi
 490 020a 14E0     		b	.L26
 491              	.L27:
 217:CommManager.c ****                    packetsuccess[2]++;
 492              		.loc 1 217 0
 493 020c 1B4B     		ldr	r3, .L31+16
 494 020e 1B78     		ldrb	r3, [r3]	@ zero_extendqisi2
 495 0210 022B     		cmp	r3, #2
 496 0212 06D1     		bne	.L28
ARM GAS  C:\Users\MARTHN~1\AppData\Local\Temp\ccfUmdHa.s 			page 15


 218:CommManager.c ****                 else if(currentType == STEST_RELAY)
 497              		.loc 1 218 0
 498 0214 1A4B     		ldr	r3, .L31+20
 499 0216 9B88     		ldrh	r3, [r3, #4]
 500 0218 0133     		adds	r3, r3, #1
 501 021a 9AB2     		uxth	r2, r3
 502 021c 184B     		ldr	r3, .L31+20
 503 021e 9A80     		strh	r2, [r3, #4]	@ movhi
 504 0220 09E0     		b	.L26
 505              	.L28:
 219:CommManager.c ****                    packetsuccess[3]++;
 506              		.loc 1 219 0
 507 0222 164B     		ldr	r3, .L31+16
 508 0224 1B78     		ldrb	r3, [r3]	@ zero_extendqisi2
 509 0226 032B     		cmp	r3, #3
 510 0228 05D1     		bne	.L26
 220:CommManager.c **** 
 511              		.loc 1 220 0
 512 022a 154B     		ldr	r3, .L31+20
 513 022c DB88     		ldrh	r3, [r3, #6]
 514 022e 0133     		adds	r3, r3, #1
 515 0230 9AB2     		uxth	r2, r3
 516 0232 134B     		ldr	r3, .L31+20
 517 0234 DA80     		strh	r2, [r3, #6]	@ movhi
 518              	.L26:
 233:CommManager.c ****                 currentState = HEADER_STATE;
 519              		.loc 1 233 0
 520 0236 0E4B     		ldr	r3, .L31+4
 521 0238 0022     		movs	r2, #0
 522 023a 1A70     		strb	r2, [r3]
 234:CommManager.c ****                 currentType = CTEST_RELAY;
 523              		.loc 1 234 0
 524 023c 0B4B     		ldr	r3, .L31
 525 023e 0022     		movs	r2, #0
 526 0240 1A70     		strb	r2, [r3]
 235:CommManager.c ****             }
 527              		.loc 1 235 0
 528 0242 0E4B     		ldr	r3, .L31+16
 529 0244 0022     		movs	r2, #0
 530 0246 1A70     		strb	r2, [r3]
 531 0248 09E0     		b	.L23
 532              	.L24:
 239:CommManager.c ****                 currentState = HEADER_STATE;
 533              		.loc 1 239 0
 534 024a 094B     		ldr	r3, .L31+4
 535 024c 0022     		movs	r2, #0
 536 024e 1A70     		strb	r2, [r3]
 240:CommManager.c ****                 currentType = CTEST_RELAY;
 537              		.loc 1 240 0
 538 0250 064B     		ldr	r3, .L31
 539 0252 0022     		movs	r2, #0
 540 0254 1A70     		strb	r2, [r3]
 241:CommManager.c ****             }
 541              		.loc 1 241 0
 542 0256 094B     		ldr	r3, .L31+16
 543 0258 0022     		movs	r2, #0
 544 025a 1A70     		strb	r2, [r3]
ARM GAS  C:\Users\MARTHN~1\AppData\Local\Temp\ccfUmdHa.s 			page 16


 243:CommManager.c ****     }
 545              		.loc 1 243 0
 546 025c 01E0     		b	.L8
 547              	.L23:
 548 025e 00E0     		b	.L8
 549              	.L29:
 199:CommManager.c ****             
 550              		.loc 1 199 0
 551 0260 00BF     		nop
 552              	.L8:
 553              	.L30:
 554              		.loc 1 245 0
 555 0262 00BF     		nop
 556 0264 0C37     		adds	r7, r7, #12
 557              		.cfi_def_cfa_offset 4
 558 0266 BD46     		mov	sp, r7
 559              		.cfi_def_cfa_register 13
 560              		@ sp needed
 561 0268 80BC     		pop	{r7}
 562              		.cfi_restore 7
 563              		.cfi_def_cfa_offset 0
 564 026a 7047     		bx	lr
 565              	.L32:
 566              		.align	2
 567              	.L31:
 568 026c 14000000 		.word	currentState.5759
 569 0270 15000000 		.word	currentPacketIndex.5761
 570 0274 00000000 		.word	PacketList
 571 0278 18000000 		.word	packet.5758
 572 027c 2B000000 		.word	currentType.5760
 573 0280 00000000 		.word	packetsuccess
 574              		.cfi_endproc
 575              	.LFE65:
 576              		.size	detectPacket, .-detectPacket
 577              		.bss
 578              	currentState.5759:
 579 0014 00       		.space	1
 580              	currentPacketIndex.5761:
 581 0015 00       		.space	1
 582 0016 0000     		.align	2
 583              	packet.5758:
 584 0018 00000000 		.space	19
 584      00000000 
 584      00000000 
 584      00000000 
 584      000000
 585              	currentType.5760:
 586 002b 00       		.space	1
 587              		.text
 588              	.Letext0:
 589              		.file 2 "c:\\program files (x86)\\cypress\\psoc creator\\4.3\\psoc creator\\import\\gnu\\arm\\5.4.
 590              		.file 3 "c:\\program files (x86)\\cypress\\psoc creator\\4.3\\psoc creator\\import\\gnu\\arm\\5.4.
 591              		.file 4 "Generated_Source\\PSoC5/cytypes.h"
 592              		.file 5 "CommManager.h"
 593              		.file 6 "Generated_Source\\PSoC5/core_cm3.h"