ARM GAS  C:\Users\MARTHN~1\AppData\Local\Temp\ccbPVIdg.s 			page 1


   1              		.syntax unified
   2              		.cpu cortex-m3
   3              		.fpu softvfp
   4              		.eabi_attribute 20, 1
   5              		.eabi_attribute 21, 1
   6              		.eabi_attribute 23, 3
   7              		.eabi_attribute 24, 1
   8              		.eabi_attribute 25, 1
   9              		.eabi_attribute 26, 1
  10              		.eabi_attribute 30, 6
  11              		.eabi_attribute 34, 1
  12              		.eabi_attribute 18, 4
  13              		.thumb
  14              		.syntax unified
  15              		.file	"ControllerTest.c"
  16              		.text
  17              	.Ltext0:
  18              		.cfi_sections	.debug_frame
  19              		.comm	Test,3,4
  20              		.bss
  21              		.align	2
  22              	rxPacket_Controller:
  23 0000 00000000 		.space	79
  23      00000000 
  23      00000000 
  23      00000000 
  23      00000000 
  24 004f 00       		.align	2
  25              	pRxPacket_Controller:
  26 0050 00000000 		.space	4
  27              		.align	2
  28              	txPacket_Controller:
  29 0054 00000000 		.space	15
  29      00000000 
  29      00000000 
  29      000000
  30 0063 00       		.align	2
  31              	pTxPacket_Controller:
  32 0064 00000000 		.space	4
  33              		.align	2
  34              	txPacket_Relay:
  35 0068 00000000 		.space	80
  35      00000000 
  35      00000000 
  35      00000000 
  35      00000000 
  36              		.align	2
  37              	pTxPacket_Relay:
  38 00b8 00000000 		.space	4
  39              		.align	2
  40              	txPacket_Intermotive:
  41 00bc 00000000 		.space	9
  41      00000000 
  41      00
  42 00c5 000000   		.align	2
  43              	pTxPacket_Intermotive:
  44 00c8 00000000 		.space	4
ARM GAS  C:\Users\MARTHN~1\AppData\Local\Temp\ccbPVIdg.s 			page 2


  45              		.align	1
  46              	CTest_20ms_isr_count:
  47 00cc 0000     		.space	2
  48              		.align	1
  49              	CTest_20ms_isr_EN:
  50 00ce 0000     		.space	2
  51              	PB_NextAction_Pressed:
  52 00d0 00       		.space	1
  53              	PB_NextAction_Released:
  54 00d1 00       		.space	1
  55              		.data
  56              		.align	2
  57              		.type	CTest_TimeoutCount, %object
  58              		.size	CTest_TimeoutCount, 22
  59              	CTest_TimeoutCount:
  60 0000 3200     		.short	50
  61 0002 D007     		.short	2000
  62 0004 6400     		.short	100
  63 0006 3200     		.short	50
  64 0008 3200     		.short	50
  65 000a 3200     		.short	50
  66 000c 3200     		.short	50
  67 000e 3200     		.short	50
  68 0010 3200     		.short	50
  69 0012 3200     		.short	50
  70 0014 3200     		.short	50
  71              		.bss
  72 00d2 0000     		.align	2
  73              	CTestStatus:
  74 00d4 00000000 		.space	11
  74      00000000 
  74      000000
  75              		.section	.text.ControllerTest,"ax",%progbits
  76              		.align	2
  77              		.global	ControllerTest
  78              		.thumb
  79              		.thumb_func
  80              		.type	ControllerTest, %function
  81              	ControllerTest:
  82              	.LFB63:
  83              		.file 1 "ControllerTest.c"
   1:ControllerTest.c **** /* ========================================
   2:ControllerTest.c ****  *
   3:ControllerTest.c ****  * Copyright YOUR COMPANY, THE YEAR
   4:ControllerTest.c ****  * All Rights Reserved
   5:ControllerTest.c ****  * UNPUBLISHED, LICENSED SOFTWARE.
   6:ControllerTest.c ****  *
   7:ControllerTest.c ****  * CONFIDENTIAL AND PROPRIETARY INFORMATION
   8:ControllerTest.c ****  * WHICH IS THE PROPERTY OF your company.
   9:ControllerTest.c ****  *
  10:ControllerTest.c ****  * ========================================
  11:ControllerTest.c **** */
  12:ControllerTest.c **** 
  13:ControllerTest.c **** /* F1-Controller Test ***********************************************************
  14:ControllerTest.c **** *  - Designed to test a F1-Controller PCBA with a SOM installed (w OS and image)   
  15:ControllerTest.c **** *  - Requires a configfile (for Desktop Software) that consists of:
  16:ControllerTest.c **** *       - PB 1-16 turn on Outputs 1-16 (toggle)
ARM GAS  C:\Users\MARTHN~1\AppData\Local\Temp\ccbPVIdg.s 			page 3


  17:ControllerTest.c **** *       - PB 1 sends Quad packet (any packet)
  18:ControllerTest.c **** *       - OBDII turns on Output 32
  19:ControllerTest.c **** *********************************************************************************/
  20:ControllerTest.c **** 
  21:ControllerTest.c **** #include <project.h>
  22:ControllerTest.c **** #include "CommonVariables.h"
  23:ControllerTest.c **** #include "ControllerTest.h"
  24:ControllerTest.c **** #include "UART_460800_Functions.h"
  25:ControllerTest.c **** #include "UART_230400_Functions.h"
  26:ControllerTest.c **** 
  27:ControllerTest.c **** #define DEBOUNCE_COUNT      2           // (5 * 20msec)
  28:ControllerTest.c **** #define CONFIRM_TIME        100
  29:ControllerTest.c **** 
  30:ControllerTest.c **** 
  31:ControllerTest.c **** static RxPacket_Controller rxPacket_Controller;         // 'I' (includes 'P') packet (controller to
  32:ControllerTest.c **** static RxPacket_Controller * pRxPacket_Controller;
  33:ControllerTest.c **** 
  34:ControllerTest.c **** static TxPacket_Controller txPacket_Controller;         // 'D' packet (relay to controller) - Initi
  35:ControllerTest.c **** static TxPacket_Controller * pTxPacket_Controller;
  36:ControllerTest.c **** 
  37:ControllerTest.c **** static TxPacket_RelaySiren txPacket_Relay;              // 'I' packet (relay to controller) - LEDS_
  38:ControllerTest.c **** static TxPacket_RelaySiren * pTxPacket_Relay;
  39:ControllerTest.c **** 
  40:ControllerTest.c **** static TxPacket_Intermotive txPacket_Intermotive;       // Intermotive Packet - for ignition and OB
  41:ControllerTest.c **** static TxPacket_Intermotive * pTxPacket_Intermotive;    // 
  42:ControllerTest.c **** 
  43:ControllerTest.c **** 
  44:ControllerTest.c **** static uint16 CTest_20ms_isr_count = 0;         // Test step timeout variables
  45:ControllerTest.c **** static uint16 CTest_20ms_isr_EN = 0;
  46:ControllerTest.c **** 
  47:ControllerTest.c **** static uint8 PB_NextAction_Pressed = 0;         // Pushbutton 
  48:ControllerTest.c **** static uint8 PB_NextAction_Released = 0;
  49:ControllerTest.c **** 
  50:ControllerTest.c **** enum LEDColor
  51:ControllerTest.c **** { 
  52:ControllerTest.c ****     RED,       
  53:ControllerTest.c ****     BLUE,  
  54:ControllerTest.c ****     GREEN,
  55:ControllerTest.c ****     OFF
  56:ControllerTest.c **** };
  57:ControllerTest.c **** 
  58:ControllerTest.c **** 
  59:ControllerTest.c **** enum DATA_TYPE_460800
  60:ControllerTest.c **** { 
  61:ControllerTest.c ****     CTEST_AUDIO,        // This is for both cont and relay tests
  62:ControllerTest.c ****     CTEST_RTEST_QUAD   // CTest/RTest - quad normal - (controller to relay, relay to quad)
  63:ControllerTest.c **** //    CTEST_A,            //*** needs to  (*** not used - only need to look for 'L' packet)
  64:ControllerTest.c **** //    QTEST_QUAD          // (*** not used - Quad-Controller packets - type 'C')
  65:ControllerTest.c **** };
  66:ControllerTest.c **** 
  67:ControllerTest.c **** enum MUX_460800_CHANNEL
  68:ControllerTest.c **** { 
  69:ControllerTest.c ****     CTEST_QUAD,  
  70:ControllerTest.c ****     CTEST_AUDIOSTREAM,
  71:ControllerTest.c ****     //QTEST_QUAD             
  72:ControllerTest.c **** };
  73:ControllerTest.c **** enum DEMUX_460800_CHANNEL
ARM GAS  C:\Users\MARTHN~1\AppData\Local\Temp\ccbPVIdg.s 			page 4


  74:ControllerTest.c **** { 
  75:ControllerTest.c ****     CTEST_OBDII_TX,       
  76:ControllerTest.c ****     RTEST_QUAD_TX,       
  77:ControllerTest.c ****     STEST_AUDIO_TX,
  78:ControllerTest.c **** };
  79:ControllerTest.c **** 
  80:ControllerTest.c **** enum MUX_DEMUX_230400_CHANNEL              
  81:ControllerTest.c **** { 
  82:ControllerTest.c ****     CTEST_RELAY, 
  83:ControllerTest.c ****     RTEST_CONT,
  84:ControllerTest.c ****     RTEST_SIREN,
  85:ControllerTest.c ****     STEST_RELAY            
  86:ControllerTest.c **** };
  87:ControllerTest.c **** 
  88:ControllerTest.c **** // --------------Test steps---------------
  89:ControllerTest.c **** #define NUMBER_TEST_STEPS       11
  90:ControllerTest.c **** static uint16 CTest_TimeoutCount[NUMBER_TEST_STEPS] = {50,2000,100,50,50,50,50,50,50,50,50};    // 
  91:ControllerTest.c **** 
  92:ControllerTest.c **** static uint8 CTestStatus[NUMBER_TEST_STEPS];
  93:ControllerTest.c **** 
  94:ControllerTest.c **** enum TestStep           
  95:ControllerTest.c **** { 
  96:ControllerTest.c ****     INITIALIZE_TEST,        // COMPLETE
  97:ControllerTest.c ****     CONFIRM_BOOTUP,         // COMPLETE
  98:ControllerTest.c ****     CONFIG_FILE,            // COMPLETE (unused - the config file does not need to be manually prog
  99:ControllerTest.c ****     TEST_POWERMODES,        // COMPLETE (***not testing usb power only)(resets pushbuttons) 
 100:ControllerTest.c ****     OBDII,                  // COMPLETE (configfile) (***this is already tested by using it for ign
 101:ControllerTest.c ****     PUSHBUTTONS,            // COMPLETE (configfile)
 102:ControllerTest.c ****     QUAD_STREAM,            // COMPLETE (configfile)
 103:ControllerTest.c ****     LEDS_RGB,               // COMPLETE (***leds take up to 5 seconds to turn on)
 104:ControllerTest.c ****     AUDIO_STREAM,           // (not included)
 105:ControllerTest.c ****     DEBUG_PORT,             // (not included)
 106:ControllerTest.c ****     PASS                    // COMPLETE
 107:ControllerTest.c **** };
 108:ControllerTest.c **** 
 109:ControllerTest.c **** 
 110:ControllerTest.c **** static uint8 CTestStatus[NUMBER_TEST_STEPS];
 111:ControllerTest.c **** 
 112:ControllerTest.c **** uint8 ControllerTest(void)
 113:ControllerTest.c **** {
  84              		.loc 1 113 0
  85              		.cfi_startproc
  86              		@ args = 0, pretend = 0, frame = 8
  87              		@ frame_needed = 1, uses_anonymous_args = 0
  88 0000 80B5     		push	{r7, lr}
  89              		.cfi_def_cfa_offset 8
  90              		.cfi_offset 7, -8
  91              		.cfi_offset 14, -4
  92 0002 82B0     		sub	sp, sp, #8
  93              		.cfi_def_cfa_offset 16
  94 0004 00AF     		add	r7, sp, #0
  95              		.cfi_def_cfa_register 7
 114:ControllerTest.c ****     
 115:ControllerTest.c ****     switch(CurrentTest.TestStep)
  96              		.loc 1 115 0
  97 0006 AA4B     		ldr	r3, .L50
  98 0008 5B78     		ldrb	r3, [r3, #1]	@ zero_extendqisi2
ARM GAS  C:\Users\MARTHN~1\AppData\Local\Temp\ccbPVIdg.s 			page 5


  99 000a 0A2B     		cmp	r3, #10
 100 000c 00F23282 		bhi	.L2
 101 0010 01A2     		adr	r2, .L4
 102 0012 52F823F0 		ldr	pc, [r2, r3, lsl #2]
 103 0016 00BF     		.p2align 2
 104              	.L4:
 105 0018 45000000 		.word	.L3+1
 106 001c 8B000000 		.word	.L5+1
 107 0020 EB000000 		.word	.L6+1
 108 0024 0B010000 		.word	.L7+1
 109 0028 E1010000 		.word	.L8+1
 110 002c 3F020000 		.word	.L9+1
 111 0030 C1020000 		.word	.L10+1
 112 0034 0F030000 		.word	.L11+1
 113 0038 D1030000 		.word	.L12+1
 114 003c F1030000 		.word	.L13+1
 115 0040 11040000 		.word	.L14+1
 116              		.p2align 1
 117              	.L3:
 116:ControllerTest.c ****     {   
 117:ControllerTest.c ****        
 118:ControllerTest.c ****         case INITIALIZE_TEST:
 119:ControllerTest.c ****         
 120:ControllerTest.c ****             CTest_CONT_VBATT_EN_Write(1);                           // Enable Vbatt power to contro
 118              		.loc 1 120 0
 119 0044 0120     		movs	r0, #1
 120 0046 FFF7FEFF 		bl	CTest_CONT_VBATT_EN_Write
 121:ControllerTest.c ****             CTest_USB_5V_EN_Write(0);
 121              		.loc 1 121 0
 122 004a 0020     		movs	r0, #0
 123 004c FFF7FEFF 		bl	CTest_USB_5V_EN_Write
 124              	.LBB2:
 122:ControllerTest.c **** 
 123:ControllerTest.c ****             for (uint8 i=0;i<NUMBER_TEST_STEPS;i++)                 // Reset Status of aall test st
 125              		.loc 1 123 0
 126 0050 0023     		movs	r3, #0
 127 0052 FB71     		strb	r3, [r7, #7]
 128 0054 06E0     		b	.L15
 129              	.L16:
 124:ControllerTest.c ****                 CTestStatus[i] = '_';
 130              		.loc 1 124 0 discriminator 3
 131 0056 FB79     		ldrb	r3, [r7, #7]	@ zero_extendqisi2
 132 0058 964A     		ldr	r2, .L50+4
 133 005a 5F21     		movs	r1, #95
 134 005c D154     		strb	r1, [r2, r3]
 123:ControllerTest.c ****                 CTestStatus[i] = '_';
 135              		.loc 1 123 0 discriminator 3
 136 005e FB79     		ldrb	r3, [r7, #7]	@ zero_extendqisi2
 137 0060 0133     		adds	r3, r3, #1
 138 0062 FB71     		strb	r3, [r7, #7]
 139              	.L15:
 123:ControllerTest.c ****                 CTestStatus[i] = '_';
 140              		.loc 1 123 0 is_stmt 0 discriminator 1
 141 0064 FB79     		ldrb	r3, [r7, #7]	@ zero_extendqisi2
 142 0066 0A2B     		cmp	r3, #10
 143 0068 F5D9     		bls	.L16
 144              	.LBE2:
ARM GAS  C:\Users\MARTHN~1\AppData\Local\Temp\ccbPVIdg.s 			page 6


 125:ControllerTest.c ****             
 126:ControllerTest.c ****             CTestStatus[CurrentTest.TestStep] = 'I';
 145              		.loc 1 126 0 is_stmt 1
 146 006a 914B     		ldr	r3, .L50
 147 006c 5B78     		ldrb	r3, [r3, #1]	@ zero_extendqisi2
 148 006e 1A46     		mov	r2, r3
 149 0070 904B     		ldr	r3, .L50+4
 150 0072 4921     		movs	r1, #73
 151 0074 9954     		strb	r1, [r3, r2]
 127:ControllerTest.c ****             CurrentTest.Status = 'I';
 152              		.loc 1 127 0
 153 0076 8E4B     		ldr	r3, .L50
 154 0078 4922     		movs	r2, #73
 155 007a 9A70     		strb	r2, [r3, #2]
 128:ControllerTest.c **** 
 129:ControllerTest.c ****             CyDelay(CONFIRM_TIME);
 156              		.loc 1 129 0
 157 007c 6420     		movs	r0, #100
 158 007e FFF7FEFF 		bl	CyDelay
 130:ControllerTest.c ****             
 131:ControllerTest.c **** //            CTestStatus[CurrentTest.TestStep] = 'P';
 132:ControllerTest.c **** //            CurrentTest.Status = 'P';
 133:ControllerTest.c ****       
 134:ControllerTest.c ****             //CurrentTest.TestStep = INITIALIZE_TEST;
 135:ControllerTest.c ****             CurrentTest.TestStep = CONFIRM_BOOTUP;
 159              		.loc 1 135 0
 160 0082 8B4B     		ldr	r3, .L50
 161 0084 0122     		movs	r2, #1
 162 0086 5A70     		strb	r2, [r3, #1]
 136:ControllerTest.c ****             //CurrentTest.TestStep = TEST_POWERMODES;
 137:ControllerTest.c ****             //CurrentTest.TestStep = DEBUG_PORT;
 138:ControllerTest.c ****             //CurrentTest.TestStep = QUAD_STREAM;
 139:ControllerTest.c ****             //CurrentTest.TestStep = AUDIO_STREAM;
 140:ControllerTest.c ****             //CurrentTest.TestStep = OBDII;     
 141:ControllerTest.c ****             //CurrentTest.TestStep = LEDS_RGB;
 142:ControllerTest.c ****             //CurrentTest.TestStep = PUSHBUTTONS;
 143:ControllerTest.c ****         
 144:ControllerTest.c ****         break;
 163              		.loc 1 144 0
 164 0088 F4E1     		b	.L2
 165              	.L5:
 145:ControllerTest.c ****         
 146:ControllerTest.c ****         case CONFIRM_BOOTUP:
 147:ControllerTest.c ****         
 148:ControllerTest.c ****             CTest_StartAutomatedStep();
 166              		.loc 1 148 0
 167 008a FFF7FEFF 		bl	CTest_StartAutomatedStep
 149:ControllerTest.c **** 
 150:ControllerTest.c ****             MUX_CTRL_230400_Write(CTEST_RELAY);
 168              		.loc 1 150 0
 169 008e 0020     		movs	r0, #0
 170 0090 FFF7FEFF 		bl	MUX_CTRL_230400_Write
 151:ControllerTest.c **** 
 152:ControllerTest.c ****             while( (!VerifyPacket_230400(CTEST_RELAY)) && (CTestStatus[CurrentTest.TestStep] != 'F'
 171              		.loc 1 152 0
 172 0094 00BF     		nop
 173              	.L18:
ARM GAS  C:\Users\MARTHN~1\AppData\Local\Temp\ccbPVIdg.s 			page 7


 174              		.loc 1 152 0 is_stmt 0 discriminator 2
 175 0096 0020     		movs	r0, #0
 176 0098 FFF7FEFF 		bl	VerifyPacket_230400
 177 009c 0346     		mov	r3, r0
 178 009e 002B     		cmp	r3, #0
 179 00a0 06D1     		bne	.L17
 180              		.loc 1 152 0 discriminator 1
 181 00a2 834B     		ldr	r3, .L50
 182 00a4 5B78     		ldrb	r3, [r3, #1]	@ zero_extendqisi2
 183 00a6 1A46     		mov	r2, r3
 184 00a8 824B     		ldr	r3, .L50+4
 185 00aa 9B5C     		ldrb	r3, [r3, r2]	@ zero_extendqisi2
 186 00ac 462B     		cmp	r3, #70
 187 00ae F2D1     		bne	.L18
 188              	.L17:
 153:ControllerTest.c ****             {} 
 154:ControllerTest.c ****             
 155:ControllerTest.c ****             CTest_StopAutomatedStep();
 189              		.loc 1 155 0 is_stmt 1
 190 00b0 FFF7FEFF 		bl	CTest_StopAutomatedStep
 156:ControllerTest.c ****             
 157:ControllerTest.c ****             pTxPacket_Intermotive = getTxPacket_Intermotive();   // Send ignition on signal (OBDII)
 191              		.loc 1 157 0
 192 00b4 FFF7FEFF 		bl	getTxPacket_Intermotive
 193 00b8 0246     		mov	r2, r0
 194 00ba 7F4B     		ldr	r3, .L50+8
 195 00bc 1A60     		str	r2, [r3]
 158:ControllerTest.c ****             pTxPacket_Intermotive->Payload.Data5 = 0x02; 
 196              		.loc 1 158 0
 197 00be 7E4B     		ldr	r3, .L50+8
 198 00c0 1B68     		ldr	r3, [r3]
 199 00c2 0222     		movs	r2, #2
 200 00c4 5A71     		strb	r2, [r3, #5]
 159:ControllerTest.c ****             
 160:ControllerTest.c ****             CyDelay(CONFIRM_TIME);
 201              		.loc 1 160 0
 202 00c6 6420     		movs	r0, #100
 203 00c8 FFF7FEFF 		bl	CyDelay
 161:ControllerTest.c ****             
 162:ControllerTest.c ****             if(CTestStatus[CurrentTest.TestStep] == 'F')
 204              		.loc 1 162 0
 205 00cc 784B     		ldr	r3, .L50
 206 00ce 5B78     		ldrb	r3, [r3, #1]	@ zero_extendqisi2
 207 00d0 1A46     		mov	r2, r3
 208 00d2 784B     		ldr	r3, .L50+4
 209 00d4 9B5C     		ldrb	r3, [r3, r2]	@ zero_extendqisi2
 210 00d6 462B     		cmp	r3, #70
 211 00d8 03D1     		bne	.L19
 163:ControllerTest.c ****             {
 164:ControllerTest.c ****                 CurrentTest.TestStep = PASS;
 212              		.loc 1 164 0
 213 00da 754B     		ldr	r3, .L50
 214 00dc 0A22     		movs	r2, #10
 215 00de 5A70     		strb	r2, [r3, #1]
 165:ControllerTest.c ****             }
 166:ControllerTest.c ****             else
 167:ControllerTest.c ****             {
ARM GAS  C:\Users\MARTHN~1\AppData\Local\Temp\ccbPVIdg.s 			page 8


 168:ControllerTest.c ****                 //CurrentTest.TestStep = INITIALIZE_TEST;
 169:ControllerTest.c ****                 CurrentTest.TestStep = CONFIG_FILE;
 170:ControllerTest.c ****                 //CurrentTest.TestStep = TEST_POWERMODES;
 171:ControllerTest.c ****                 //CurrentTest.TestStep = QUAD_STREAM;
 172:ControllerTest.c ****                 //CurrentTest.TestStep = LEDS_RGB;
 173:ControllerTest.c ****             }
 174:ControllerTest.c ****         
 175:ControllerTest.c ****         break;
 216              		.loc 1 175 0
 217 00e0 C8E1     		b	.L2
 218              	.L19:
 169:ControllerTest.c ****                 //CurrentTest.TestStep = TEST_POWERMODES;
 219              		.loc 1 169 0
 220 00e2 734B     		ldr	r3, .L50
 221 00e4 0222     		movs	r2, #2
 222 00e6 5A70     		strb	r2, [r3, #1]
 223              		.loc 1 175 0
 224 00e8 C4E1     		b	.L2
 225              	.L6:
 176:ControllerTest.c ****             
 177:ControllerTest.c ****         case CONFIG_FILE:   // configfile is already programmed to the SOM by default
 178:ControllerTest.c ****             
 179:ControllerTest.c ****             CTestStatus[CurrentTest.TestStep] = 'U';           
 226              		.loc 1 179 0
 227 00ea 714B     		ldr	r3, .L50
 228 00ec 5B78     		ldrb	r3, [r3, #1]	@ zero_extendqisi2
 229 00ee 1A46     		mov	r2, r3
 230 00f0 704B     		ldr	r3, .L50+4
 231 00f2 5521     		movs	r1, #85
 232 00f4 9954     		strb	r1, [r3, r2]
 180:ControllerTest.c ****             CurrentTest.Status = 'U'; 
 233              		.loc 1 180 0
 234 00f6 6E4B     		ldr	r3, .L50
 235 00f8 5522     		movs	r2, #85
 236 00fa 9A70     		strb	r2, [r3, #2]
 181:ControllerTest.c **** //            pTxPacket_Intermotive = getTxPacket_Intermotive();   // Send ignition on signal (OBDI
 182:ControllerTest.c **** //            pTxPacket_Intermotive->Payload.Data5 = 0x02; 
 183:ControllerTest.c **** //            CTest_PB_WaitForAction();
 184:ControllerTest.c ****  
 185:ControllerTest.c ****             CyDelay(CONFIRM_TIME);
 237              		.loc 1 185 0
 238 00fc 6420     		movs	r0, #100
 239 00fe FFF7FEFF 		bl	CyDelay
 186:ControllerTest.c ****             
 187:ControllerTest.c ****             //CurrentTest.TestStep = INITIALIZE_TEST;                   
 188:ControllerTest.c ****             CurrentTest.TestStep = TEST_POWERMODES;
 240              		.loc 1 188 0
 241 0102 6B4B     		ldr	r3, .L50
 242 0104 0322     		movs	r2, #3
 243 0106 5A70     		strb	r2, [r3, #1]
 189:ControllerTest.c ****             //CurrentTest.TestStep = QUAD_STREAM;
 190:ControllerTest.c ****             //CurrentTest.TestStep = LEDS_RGB;
 191:ControllerTest.c ****         
 192:ControllerTest.c ****         break;
 244              		.loc 1 192 0
 245 0108 B4E1     		b	.L2
 246              	.L7:
ARM GAS  C:\Users\MARTHN~1\AppData\Local\Temp\ccbPVIdg.s 			page 9


 193:ControllerTest.c ****         
 194:ControllerTest.c ****         case TEST_POWERMODES:  // Test Vbatt detect and USB detect
 195:ControllerTest.c **** 
 196:ControllerTest.c ****             MUX_CTRL_230400_Write(CTEST_RELAY);
 247              		.loc 1 196 0
 248 010a 0020     		movs	r0, #0
 249 010c FFF7FEFF 		bl	MUX_CTRL_230400_Write
 197:ControllerTest.c ****             
 198:ControllerTest.c ****             pRxPacket_Controller = getRxPacket_Controller();        // 'I' packet - check powermode
 250              		.loc 1 198 0
 251 0110 FFF7FEFF 		bl	getRxPacket_Controller
 252 0114 0246     		mov	r2, r0
 253 0116 694B     		ldr	r3, .L50+12
 254 0118 1A60     		str	r2, [r3]
 199:ControllerTest.c ****             pTxPacket_Intermotive = getTxPacket_Intermotive();      // '1' packet - set ignition 
 255              		.loc 1 199 0
 256 011a FFF7FEFF 		bl	getTxPacket_Intermotive
 257 011e 0246     		mov	r2, r0
 258 0120 654B     		ldr	r3, .L50+8
 259 0122 1A60     		str	r2, [r3]
 200:ControllerTest.c ****             //pTxPacket_Controller = getTxPacket_Controller();      // 'D' packet - set ignition (n
 201:ControllerTest.c ****             
 202:ControllerTest.c **** //            //CTest_StartAutomatedStep();
 203:ControllerTest.c **** //            //CTest_PB_WaitForAction();
 204:ControllerTest.c **** //         
 205:ControllerTest.c **** //            /**** Live Power Mode (Normal Mode) - Vbatt-on, USB_5V-on, Ignition-on ***/
 206:ControllerTest.c **** //            CTest_CONT_VBATT_EN_Write(1);                   
 207:ControllerTest.c **** //            CTest_USB_5V_EN_Write(1);
 208:ControllerTest.c **** //            pTxPacket_Intermotive->Payload.Data5 = 0x02;
 209:ControllerTest.c **** ////            while( (pRxPacket_Controller->Payload.PowerState != 0x01) && (CTestStatus[CurrentTe
 210:ControllerTest.c **** ////            {}
 211:ControllerTest.c **** //            CyDelay(1000);
 212:ControllerTest.c **** //            CTest_PB_WaitForAction();
 213:ControllerTest.c **** //            
 214:ControllerTest.c **** ////            CTest_CONT_VBATT_EN_Write(1);                   
 215:ControllerTest.c **** ////            CTest_USB_5V_EN_Write(1);
 216:ControllerTest.c **** ////            pTxPacket_Intermotive->Payload.Data5 = 0x00;
 217:ControllerTest.c **** ////            CyDelay(1000);
 218:ControllerTest.c **** //
 219:ControllerTest.c **** //            /**** Low Power Mode (USB Power Only) - Vbatt-off, USB_5V-on, Ignition-off ***/
 220:ControllerTest.c **** //            CTest_CONT_VBATT_EN_Write(0);               
 221:ControllerTest.c **** //            CTest_USB_5V_EN_Write(1);
 222:ControllerTest.c **** //            pTxPacket_Intermotive->Payload.Data5 = 0x00;    
 223:ControllerTest.c **** ////            while( (pRxPacket_Controller->Payload.PowerState != 0x00) && (CTestStatus[CurrentTe
 224:ControllerTest.c **** ////            {}
 225:ControllerTest.c **** //            CyDelay(1000);             
 226:ControllerTest.c **** //            CTest_PB_WaitForAction();
 227:ControllerTest.c **** //            
 228:ControllerTest.c **** //            /**** Normal Power Mode - Vbatt-on, USB_5V-on, Ignition-on ***/
 229:ControllerTest.c **** //            CTest_CONT_VBATT_EN_Write(1);                                       
 230:ControllerTest.c **** //            CTest_USB_5V_EN_Write(1);
 231:ControllerTest.c **** //            pTxPacket_Intermotive->Payload.Data5 = 0x02;
 232:ControllerTest.c **** //            
 233:ControllerTest.c **** //            CyDelay(1000);   
 234:ControllerTest.c **** //            CTest_PB_WaitForAction();
 235:ControllerTest.c **** //            
 236:ControllerTest.c **** //            CTest_CONT_VBATT_EN_Write(1);                                    
ARM GAS  C:\Users\MARTHN~1\AppData\Local\Temp\ccbPVIdg.s 			page 10


 237:ControllerTest.c **** //            CTest_USB_5V_EN_Write(0);
 238:ControllerTest.c **** //            pTxPacket_Intermotive->Payload.Data5 = 0x02;
 239:ControllerTest.c **** ////            while( (pRxPacket_Controller->Payload.PowerState != 0x01) && (CTestStatus[CurrentTe
 240:ControllerTest.c **** ////            {}
 241:ControllerTest.c **** //            CyDelay(1000);
 242:ControllerTest.c **** //            CTest_PB_WaitForAction();
 243:ControllerTest.c **** //            
 244:ControllerTest.c **** //            //CTest_StopAutomatedStep();
 245:ControllerTest.c ****             
 246:ControllerTest.c ****             CTest_StartAutomatedStep();
 260              		.loc 1 246 0
 261 0124 FFF7FEFF 		bl	CTest_StartAutomatedStep
 247:ControllerTest.c ****             //CTest_PB_WaitForAction();
 248:ControllerTest.c ****          
 249:ControllerTest.c ****             /**** Low Power Mode - Vbatt-on, USB_5V-off, Ignition-off ***/
 250:ControllerTest.c ****             CTest_CONT_VBATT_EN_Write(1);                   
 262              		.loc 1 250 0
 263 0128 0120     		movs	r0, #1
 264 012a FFF7FEFF 		bl	CTest_CONT_VBATT_EN_Write
 251:ControllerTest.c ****             CTest_USB_5V_EN_Write(0);
 265              		.loc 1 251 0
 266 012e 0020     		movs	r0, #0
 267 0130 FFF7FEFF 		bl	CTest_USB_5V_EN_Write
 252:ControllerTest.c ****             pTxPacket_Intermotive->Payload.Data5 = 0x00;
 268              		.loc 1 252 0
 269 0134 604B     		ldr	r3, .L50+8
 270 0136 1B68     		ldr	r3, [r3]
 271 0138 0022     		movs	r2, #0
 272 013a 5A71     		strb	r2, [r3, #5]
 253:ControllerTest.c ****             while( (pRxPacket_Controller->Payload.PowerState != 0x00) && (CTestStatus[CurrentTest.T
 273              		.loc 1 253 0
 274 013c 00BF     		nop
 275              	.L22:
 276              		.loc 1 253 0 is_stmt 0 discriminator 2
 277 013e 5F4B     		ldr	r3, .L50+12
 278 0140 1B68     		ldr	r3, [r3]
 279 0142 93F84A30 		ldrb	r3, [r3, #74]	@ zero_extendqisi2
 280 0146 002B     		cmp	r3, #0
 281 0148 06D0     		beq	.L21
 282              		.loc 1 253 0 discriminator 1
 283 014a 594B     		ldr	r3, .L50
 284 014c 5B78     		ldrb	r3, [r3, #1]	@ zero_extendqisi2
 285 014e 1A46     		mov	r2, r3
 286 0150 584B     		ldr	r3, .L50+4
 287 0152 9B5C     		ldrb	r3, [r3, r2]	@ zero_extendqisi2
 288 0154 462B     		cmp	r3, #70
 289 0156 F2D1     		bne	.L22
 290              	.L21:
 254:ControllerTest.c ****             {}
 255:ControllerTest.c **** //            CyDelay(1000);
 256:ControllerTest.c ****             //CTest_PB_WaitForAction();
 257:ControllerTest.c ****             
 258:ControllerTest.c ****             /**** Low Power Mode (USB Power Only) - Vbatt-on, USB_5V-on, Ignition-on ***/
 259:ControllerTest.c ****             CTest_CONT_VBATT_EN_Write(1);               
 291              		.loc 1 259 0 is_stmt 1
 292 0158 0120     		movs	r0, #1
 293 015a FFF7FEFF 		bl	CTest_CONT_VBATT_EN_Write
ARM GAS  C:\Users\MARTHN~1\AppData\Local\Temp\ccbPVIdg.s 			page 11


 260:ControllerTest.c ****             CTest_USB_5V_EN_Write(1);
 294              		.loc 1 260 0
 295 015e 0120     		movs	r0, #1
 296 0160 FFF7FEFF 		bl	CTest_USB_5V_EN_Write
 261:ControllerTest.c ****             pTxPacket_Intermotive->Payload.Data5 = 0x02;    
 297              		.loc 1 261 0
 298 0164 544B     		ldr	r3, .L50+8
 299 0166 1B68     		ldr	r3, [r3]
 300 0168 0222     		movs	r2, #2
 301 016a 5A71     		strb	r2, [r3, #5]
 262:ControllerTest.c ****             while( (pRxPacket_Controller->Payload.PowerState != 0x01) && (CTestStatus[CurrentTest.T
 302              		.loc 1 262 0
 303 016c 00BF     		nop
 304              	.L24:
 305              		.loc 1 262 0 is_stmt 0 discriminator 2
 306 016e 534B     		ldr	r3, .L50+12
 307 0170 1B68     		ldr	r3, [r3]
 308 0172 93F84A30 		ldrb	r3, [r3, #74]	@ zero_extendqisi2
 309 0176 012B     		cmp	r3, #1
 310 0178 06D0     		beq	.L23
 311              		.loc 1 262 0 discriminator 1
 312 017a 4D4B     		ldr	r3, .L50
 313 017c 5B78     		ldrb	r3, [r3, #1]	@ zero_extendqisi2
 314 017e 1A46     		mov	r2, r3
 315 0180 4C4B     		ldr	r3, .L50+4
 316 0182 9B5C     		ldrb	r3, [r3, r2]	@ zero_extendqisi2
 317 0184 462B     		cmp	r3, #70
 318 0186 F2D1     		bne	.L24
 319              	.L23:
 263:ControllerTest.c ****             {}
 264:ControllerTest.c **** //            CyDelay(1000);             
 265:ControllerTest.c ****             //CTest_PB_WaitForAction();
 266:ControllerTest.c ****             
 267:ControllerTest.c ****             /**** Normal Power Mode - Vbatt-on, USB_5V-on, Ignition-on ***/
 268:ControllerTest.c ****             CTest_CONT_VBATT_EN_Write(1);                                       
 320              		.loc 1 268 0 is_stmt 1
 321 0188 0120     		movs	r0, #1
 322 018a FFF7FEFF 		bl	CTest_CONT_VBATT_EN_Write
 269:ControllerTest.c ****             CTest_USB_5V_EN_Write(0);
 323              		.loc 1 269 0
 324 018e 0020     		movs	r0, #0
 325 0190 FFF7FEFF 		bl	CTest_USB_5V_EN_Write
 270:ControllerTest.c ****             pTxPacket_Intermotive->Payload.Data5 = 0x02;
 326              		.loc 1 270 0
 327 0194 484B     		ldr	r3, .L50+8
 328 0196 1B68     		ldr	r3, [r3]
 329 0198 0222     		movs	r2, #2
 330 019a 5A71     		strb	r2, [r3, #5]
 271:ControllerTest.c ****             while( (pRxPacket_Controller->Payload.PowerState != 0x01) && (CTestStatus[CurrentTest.T
 331              		.loc 1 271 0
 332 019c 00BF     		nop
 333              	.L26:
 334              		.loc 1 271 0 is_stmt 0 discriminator 2
 335 019e 474B     		ldr	r3, .L50+12
 336 01a0 1B68     		ldr	r3, [r3]
 337 01a2 93F84A30 		ldrb	r3, [r3, #74]	@ zero_extendqisi2
 338 01a6 012B     		cmp	r3, #1
ARM GAS  C:\Users\MARTHN~1\AppData\Local\Temp\ccbPVIdg.s 			page 12


 339 01a8 06D0     		beq	.L25
 340              		.loc 1 271 0 discriminator 1
 341 01aa 414B     		ldr	r3, .L50
 342 01ac 5B78     		ldrb	r3, [r3, #1]	@ zero_extendqisi2
 343 01ae 1A46     		mov	r2, r3
 344 01b0 404B     		ldr	r3, .L50+4
 345 01b2 9B5C     		ldrb	r3, [r3, r2]	@ zero_extendqisi2
 346 01b4 462B     		cmp	r3, #70
 347 01b6 F2D1     		bne	.L26
 348              	.L25:
 272:ControllerTest.c ****             {}
 273:ControllerTest.c **** //            CyDelay(1000);
 274:ControllerTest.c ****             //CTest_PB_WaitForAction();
 275:ControllerTest.c ****             
 276:ControllerTest.c ****             CTest_StopAutomatedStep();
 349              		.loc 1 276 0 is_stmt 1
 350 01b8 FFF7FEFF 		bl	CTest_StopAutomatedStep
 277:ControllerTest.c ****             
 278:ControllerTest.c ****             CyDelay(CONFIRM_TIME);
 351              		.loc 1 278 0
 352 01bc 6420     		movs	r0, #100
 353 01be FFF7FEFF 		bl	CyDelay
 279:ControllerTest.c ****             
 280:ControllerTest.c ****             if(CTestStatus[CurrentTest.TestStep] == 'F')
 354              		.loc 1 280 0
 355 01c2 3B4B     		ldr	r3, .L50
 356 01c4 5B78     		ldrb	r3, [r3, #1]	@ zero_extendqisi2
 357 01c6 1A46     		mov	r2, r3
 358 01c8 3A4B     		ldr	r3, .L50+4
 359 01ca 9B5C     		ldrb	r3, [r3, r2]	@ zero_extendqisi2
 360 01cc 462B     		cmp	r3, #70
 361 01ce 03D1     		bne	.L27
 281:ControllerTest.c ****             {
 282:ControllerTest.c ****                 CurrentTest.TestStep = PASS;
 362              		.loc 1 282 0
 363 01d0 374B     		ldr	r3, .L50
 364 01d2 0A22     		movs	r2, #10
 365 01d4 5A70     		strb	r2, [r3, #1]
 283:ControllerTest.c ****             }
 284:ControllerTest.c ****             else
 285:ControllerTest.c ****             {
 286:ControllerTest.c ****                 //CurrentTest.TestStep = INITIALIZE_TEST;
 287:ControllerTest.c ****                 //CurrentTest.TestStep = TEST_POWERMODES;
 288:ControllerTest.c ****                 CurrentTest.TestStep = OBDII;
 289:ControllerTest.c ****                 //CurrentTest.TestStep = PASS;
 290:ControllerTest.c ****             }
 291:ControllerTest.c ****             
 292:ControllerTest.c ****         break;
 366              		.loc 1 292 0
 367 01d6 4DE1     		b	.L2
 368              	.L27:
 288:ControllerTest.c ****                 //CurrentTest.TestStep = PASS;
 369              		.loc 1 288 0
 370 01d8 354B     		ldr	r3, .L50
 371 01da 0422     		movs	r2, #4
 372 01dc 5A70     		strb	r2, [r3, #1]
 373              		.loc 1 292 0
ARM GAS  C:\Users\MARTHN~1\AppData\Local\Temp\ccbPVIdg.s 			page 13


 374 01de 49E1     		b	.L2
 375              	.L8:
 293:ControllerTest.c ****             
 294:ControllerTest.c ****         case OBDII: //configfile
 295:ControllerTest.c ****             
 296:ControllerTest.c **** //            pTxPacket_Intermotive = getTxPacket_Intermotive(); 
 297:ControllerTest.c **** //            pTxPacket_Intermotive->Payload.Data5 = 0x00; 
 298:ControllerTest.c **** 
 299:ControllerTest.c ****             CTest_StartAutomatedStep();
 376              		.loc 1 299 0
 377 01e0 FFF7FEFF 		bl	CTest_StartAutomatedStep
 300:ControllerTest.c **** 
 301:ControllerTest.c ****             MUX_CTRL_230400_Write(CTEST_RELAY);                             // Read a 'I' (includes
 378              		.loc 1 301 0
 379 01e4 0020     		movs	r0, #0
 380 01e6 FFF7FEFF 		bl	MUX_CTRL_230400_Write
 302:ControllerTest.c ****             pRxPacket_Controller = getRxPacket_Controller();    
 381              		.loc 1 302 0
 382 01ea FFF7FEFF 		bl	getRxPacket_Controller
 383 01ee 0246     		mov	r2, r0
 384 01f0 324B     		ldr	r3, .L50+12
 385 01f2 1A60     		str	r2, [r3]
 303:ControllerTest.c ****             
 304:ControllerTest.c ****             while( ( !(pRxPacket_Controller->Payload.Outputs_25to32 >> 7) ) && (CTestStatus[Current
 386              		.loc 1 304 0
 387 01f4 01E0     		b	.L29
 388              	.L31:
 305:ControllerTest.c ****             {
 306:ControllerTest.c ****                 sendPacketToController_OBDII();                             // Send 'drivers side d
 389              		.loc 1 306 0
 390 01f6 FFF7FEFF 		bl	sendPacketToController_OBDII
 391              	.L29:
 304:ControllerTest.c ****             {
 392              		.loc 1 304 0
 393 01fa 304B     		ldr	r3, .L50+12
 394 01fc 1B68     		ldr	r3, [r3]
 395 01fe 93F84830 		ldrb	r3, [r3, #72]	@ zero_extendqisi2
 396 0202 5BB2     		sxtb	r3, r3
 397 0204 002B     		cmp	r3, #0
 398 0206 06DB     		blt	.L30
 304:ControllerTest.c ****             {
 399              		.loc 1 304 0 is_stmt 0 discriminator 1
 400 0208 294B     		ldr	r3, .L50
 401 020a 5B78     		ldrb	r3, [r3, #1]	@ zero_extendqisi2
 402 020c 1A46     		mov	r2, r3
 403 020e 294B     		ldr	r3, .L50+4
 404 0210 9B5C     		ldrb	r3, [r3, r2]	@ zero_extendqisi2
 405 0212 462B     		cmp	r3, #70
 406 0214 EFD1     		bne	.L31
 407              	.L30:
 307:ControllerTest.c ****             }
 308:ControllerTest.c ****             
 309:ControllerTest.c ****             CTest_StopAutomatedStep();
 408              		.loc 1 309 0 is_stmt 1
 409 0216 FFF7FEFF 		bl	CTest_StopAutomatedStep
 310:ControllerTest.c ****             
 311:ControllerTest.c ****             CyDelay(CONFIRM_TIME);    
ARM GAS  C:\Users\MARTHN~1\AppData\Local\Temp\ccbPVIdg.s 			page 14


 410              		.loc 1 311 0
 411 021a 6420     		movs	r0, #100
 412 021c FFF7FEFF 		bl	CyDelay
 312:ControllerTest.c ****             
 313:ControllerTest.c ****             if(CTestStatus[CurrentTest.TestStep] == 'F')
 413              		.loc 1 313 0
 414 0220 234B     		ldr	r3, .L50
 415 0222 5B78     		ldrb	r3, [r3, #1]	@ zero_extendqisi2
 416 0224 1A46     		mov	r2, r3
 417 0226 234B     		ldr	r3, .L50+4
 418 0228 9B5C     		ldrb	r3, [r3, r2]	@ zero_extendqisi2
 419 022a 462B     		cmp	r3, #70
 420 022c 03D1     		bne	.L32
 314:ControllerTest.c ****             {
 315:ControllerTest.c ****                 CurrentTest.TestStep = PASS;
 421              		.loc 1 315 0
 422 022e 204B     		ldr	r3, .L50
 423 0230 0A22     		movs	r2, #10
 424 0232 5A70     		strb	r2, [r3, #1]
 316:ControllerTest.c ****             }
 317:ControllerTest.c ****             else
 318:ControllerTest.c ****             {
 319:ControllerTest.c ****                 //CurrentTest.TestStep = INITIALIZE_TEST;
 320:ControllerTest.c ****                 //CurrentTest.TestStep = LEDS_RGB;
 321:ControllerTest.c ****                 CurrentTest.TestStep = PUSHBUTTONS;
 322:ControllerTest.c ****             }
 323:ControllerTest.c ****       
 324:ControllerTest.c ****         break;  
 425              		.loc 1 324 0
 426 0234 1EE1     		b	.L2
 427              	.L32:
 321:ControllerTest.c ****             }
 428              		.loc 1 321 0
 429 0236 1E4B     		ldr	r3, .L50
 430 0238 0522     		movs	r2, #5
 431 023a 5A70     		strb	r2, [r3, #1]
 432              		.loc 1 324 0
 433 023c 1AE1     		b	.L2
 434              	.L9:
 325:ControllerTest.c ****             
 326:ControllerTest.c ****         case PUSHBUTTONS:  // configfile - Controller should have the config file setup to turn on 
 327:ControllerTest.c **** 
 328:ControllerTest.c ****             CTestStatus[CurrentTest.TestStep] = 'W';
 435              		.loc 1 328 0
 436 023e 1C4B     		ldr	r3, .L50
 437 0240 5B78     		ldrb	r3, [r3, #1]	@ zero_extendqisi2
 438 0242 1A46     		mov	r2, r3
 439 0244 1B4B     		ldr	r3, .L50+4
 440 0246 5721     		movs	r1, #87
 441 0248 9954     		strb	r1, [r3, r2]
 329:ControllerTest.c ****             CurrentTest.Status = 'W';
 442              		.loc 1 329 0
 443 024a 194B     		ldr	r3, .L50
 444 024c 5722     		movs	r2, #87
 445 024e 9A70     		strb	r2, [r3, #2]
 330:ControllerTest.c ****             
 331:ControllerTest.c ****             while( (!CTest_ReadPushbuttons()) && (CTestStatus[CurrentTest.TestStep] != 'F') )   // 
ARM GAS  C:\Users\MARTHN~1\AppData\Local\Temp\ccbPVIdg.s 			page 15


 446              		.loc 1 331 0
 447 0250 00BF     		nop
 448              	.L35:
 449              		.loc 1 331 0 is_stmt 0 discriminator 2
 450 0252 FFF7FEFF 		bl	CTest_ReadPushbuttons
 451 0256 0346     		mov	r3, r0
 452 0258 002B     		cmp	r3, #0
 453 025a 06D1     		bne	.L34
 454              		.loc 1 331 0 discriminator 1
 455 025c 144B     		ldr	r3, .L50
 456 025e 5B78     		ldrb	r3, [r3, #1]	@ zero_extendqisi2
 457 0260 1A46     		mov	r2, r3
 458 0262 144B     		ldr	r3, .L50+4
 459 0264 9B5C     		ldrb	r3, [r3, r2]	@ zero_extendqisi2
 460 0266 462B     		cmp	r3, #70
 461 0268 F3D1     		bne	.L35
 462              	.L34:
 332:ControllerTest.c ****             {}
 333:ControllerTest.c ****             
 334:ControllerTest.c ****             if(CTestStatus[CurrentTest.TestStep] != 'F')       // If not failed, then pass
 463              		.loc 1 334 0 is_stmt 1
 464 026a 114B     		ldr	r3, .L50
 465 026c 5B78     		ldrb	r3, [r3, #1]	@ zero_extendqisi2
 466 026e 1A46     		mov	r2, r3
 467 0270 104B     		ldr	r3, .L50+4
 468 0272 9B5C     		ldrb	r3, [r3, r2]	@ zero_extendqisi2
 469 0274 462B     		cmp	r3, #70
 470 0276 08D0     		beq	.L36
 335:ControllerTest.c ****             {
 336:ControllerTest.c ****                 CTestStatus[CurrentTest.TestStep] = 'P';
 471              		.loc 1 336 0
 472 0278 0D4B     		ldr	r3, .L50
 473 027a 5B78     		ldrb	r3, [r3, #1]	@ zero_extendqisi2
 474 027c 1A46     		mov	r2, r3
 475 027e 0D4B     		ldr	r3, .L50+4
 476 0280 5021     		movs	r1, #80
 477 0282 9954     		strb	r1, [r3, r2]
 337:ControllerTest.c ****                 CurrentTest.Status = 'P';
 478              		.loc 1 337 0
 479 0284 0A4B     		ldr	r3, .L50
 480 0286 5022     		movs	r2, #80
 481 0288 9A70     		strb	r2, [r3, #2]
 482              	.L36:
 338:ControllerTest.c ****             }
 339:ControllerTest.c ****             
 340:ControllerTest.c ****             CyDelay(CONFIRM_TIME);
 483              		.loc 1 340 0
 484 028a 6420     		movs	r0, #100
 485 028c FFF7FEFF 		bl	CyDelay
 341:ControllerTest.c ****             
 342:ControllerTest.c ****             if(CTestStatus[CurrentTest.TestStep] == 'F')
 486              		.loc 1 342 0
 487 0290 074B     		ldr	r3, .L50
 488 0292 5B78     		ldrb	r3, [r3, #1]	@ zero_extendqisi2
 489 0294 1A46     		mov	r2, r3
 490 0296 074B     		ldr	r3, .L50+4
 491 0298 9B5C     		ldrb	r3, [r3, r2]	@ zero_extendqisi2
ARM GAS  C:\Users\MARTHN~1\AppData\Local\Temp\ccbPVIdg.s 			page 16


 492 029a 462B     		cmp	r3, #70
 493 029c 03D1     		bne	.L37
 343:ControllerTest.c ****             {
 344:ControllerTest.c ****                 CurrentTest.TestStep = PASS;
 494              		.loc 1 344 0
 495 029e 044B     		ldr	r3, .L50
 496 02a0 0A22     		movs	r2, #10
 497 02a2 5A70     		strb	r2, [r3, #1]
 345:ControllerTest.c ****             }
 346:ControllerTest.c ****             else
 347:ControllerTest.c ****             {    
 348:ControllerTest.c ****                 CurrentTest.TestStep = QUAD_STREAM;
 349:ControllerTest.c ****                 //CurrentTest.TestStep = PASS;
 350:ControllerTest.c ****             }
 351:ControllerTest.c ****       
 352:ControllerTest.c ****         break;  
 498              		.loc 1 352 0
 499 02a4 E6E0     		b	.L2
 500              	.L37:
 348:ControllerTest.c ****                 //CurrentTest.TestStep = PASS;
 501              		.loc 1 348 0
 502 02a6 024B     		ldr	r3, .L50
 503 02a8 0622     		movs	r2, #6
 504 02aa 5A70     		strb	r2, [r3, #1]
 505              		.loc 1 352 0
 506 02ac E2E0     		b	.L2
 507              	.L51:
 508 02ae 00BF     		.align	2
 509              	.L50:
 510 02b0 00000000 		.word	CurrentTest
 511 02b4 D4000000 		.word	CTestStatus
 512 02b8 C8000000 		.word	pTxPacket_Intermotive
 513 02bc 50000000 		.word	pRxPacket_Controller
 514              	.L10:
 353:ControllerTest.c ****                 
 354:ControllerTest.c ****         case QUAD_STREAM:   // configfile     
 355:ControllerTest.c ****         
 356:ControllerTest.c ****             CTest_StartAutomatedStep();
 515              		.loc 1 356 0
 516 02c0 FFF7FEFF 		bl	CTest_StartAutomatedStep
 357:ControllerTest.c **** 
 358:ControllerTest.c ****             MUX_CTRL_460800_Write(CTEST_QUAD);
 517              		.loc 1 358 0
 518 02c4 0020     		movs	r0, #0
 519 02c6 FFF7FEFF 		bl	MUX_CTRL_460800_Write
 359:ControllerTest.c **** 
 360:ControllerTest.c ****             while( (!VerifyPacket_460800(CTEST_RTEST_QUAD)) && (CTestStatus[CurrentTest.TestStep] !
 520              		.loc 1 360 0
 521 02ca 00BF     		nop
 522              	.L40:
 523              		.loc 1 360 0 is_stmt 0 discriminator 2
 524 02cc 0120     		movs	r0, #1
 525 02ce FFF7FEFF 		bl	VerifyPacket_460800
 526 02d2 0346     		mov	r3, r0
 527 02d4 002B     		cmp	r3, #0
 528 02d6 06D1     		bne	.L39
 529              		.loc 1 360 0 discriminator 1
ARM GAS  C:\Users\MARTHN~1\AppData\Local\Temp\ccbPVIdg.s 			page 17


 530 02d8 694B     		ldr	r3, .L52
 531 02da 5B78     		ldrb	r3, [r3, #1]	@ zero_extendqisi2
 532 02dc 1A46     		mov	r2, r3
 533 02de 694B     		ldr	r3, .L52+4
 534 02e0 9B5C     		ldrb	r3, [r3, r2]	@ zero_extendqisi2
 535 02e2 462B     		cmp	r3, #70
 536 02e4 F2D1     		bne	.L40
 537              	.L39:
 361:ControllerTest.c ****             {}
 362:ControllerTest.c ****             
 363:ControllerTest.c ****             CTest_StopAutomatedStep();
 538              		.loc 1 363 0 is_stmt 1
 539 02e6 FFF7FEFF 		bl	CTest_StopAutomatedStep
 364:ControllerTest.c ****             
 365:ControllerTest.c ****             CyDelay(CONFIRM_TIME);
 540              		.loc 1 365 0
 541 02ea 6420     		movs	r0, #100
 542 02ec FFF7FEFF 		bl	CyDelay
 366:ControllerTest.c ****             
 367:ControllerTest.c ****             if(CTestStatus[CurrentTest.TestStep] == 'F')
 543              		.loc 1 367 0
 544 02f0 634B     		ldr	r3, .L52
 545 02f2 5B78     		ldrb	r3, [r3, #1]	@ zero_extendqisi2
 546 02f4 1A46     		mov	r2, r3
 547 02f6 634B     		ldr	r3, .L52+4
 548 02f8 9B5C     		ldrb	r3, [r3, r2]	@ zero_extendqisi2
 549 02fa 462B     		cmp	r3, #70
 550 02fc 03D1     		bne	.L41
 368:ControllerTest.c ****             {
 369:ControllerTest.c ****                 CurrentTest.TestStep = PASS;
 551              		.loc 1 369 0
 552 02fe 604B     		ldr	r3, .L52
 553 0300 0A22     		movs	r2, #10
 554 0302 5A70     		strb	r2, [r3, #1]
 370:ControllerTest.c ****             }
 371:ControllerTest.c ****             else
 372:ControllerTest.c ****             {
 373:ControllerTest.c ****                 //CurrentTest.TestStep = INITIALIZE_TEST;
 374:ControllerTest.c ****                 //CurrentTest.TestStep = AUDIO_STREAM;
 375:ControllerTest.c ****                 //CurrentTest.TestStep = QUAD_STREAM;
 376:ControllerTest.c ****                 CurrentTest.TestStep = LEDS_RGB;
 377:ControllerTest.c ****                 //CurrentTest.TestStep = PASS;
 378:ControllerTest.c ****             }
 379:ControllerTest.c **** 
 380:ControllerTest.c ****         break;
 555              		.loc 1 380 0
 556 0304 B6E0     		b	.L2
 557              	.L41:
 376:ControllerTest.c ****                 //CurrentTest.TestStep = PASS;
 558              		.loc 1 376 0
 559 0306 5E4B     		ldr	r3, .L52
 560 0308 0722     		movs	r2, #7
 561 030a 5A70     		strb	r2, [r3, #1]
 562              		.loc 1 380 0
 563 030c B2E0     		b	.L2
 564              	.L11:
 381:ControllerTest.c ****             
ARM GAS  C:\Users\MARTHN~1\AppData\Local\Temp\ccbPVIdg.s 			page 18


 382:ControllerTest.c ****         case LEDS_RGB:   
 383:ControllerTest.c ****             
 384:ControllerTest.c ****             //CTest_PB_WaitForAction();
 385:ControllerTest.c ****             setLEDs(RED);
 565              		.loc 1 385 0
 566 030e 0020     		movs	r0, #0
 567 0310 FFF7FEFF 		bl	setLEDs
 386:ControllerTest.c ****             CTestStatus[CurrentTest.TestStep] = 'B';
 568              		.loc 1 386 0
 569 0314 5A4B     		ldr	r3, .L52
 570 0316 5B78     		ldrb	r3, [r3, #1]	@ zero_extendqisi2
 571 0318 1A46     		mov	r2, r3
 572 031a 5A4B     		ldr	r3, .L52+4
 573 031c 4221     		movs	r1, #66
 574 031e 9954     		strb	r1, [r3, r2]
 387:ControllerTest.c ****             CurrentTest.Status = 'B';            
 575              		.loc 1 387 0
 576 0320 574B     		ldr	r3, .L52
 577 0322 4222     		movs	r2, #66
 578 0324 9A70     		strb	r2, [r3, #2]
 388:ControllerTest.c ****             CyDelay(5000);
 579              		.loc 1 388 0
 580 0326 41F28830 		movw	r0, #5000
 581 032a FFF7FEFF 		bl	CyDelay
 389:ControllerTest.c ****             CTest_PB_WaitForAction();  
 582              		.loc 1 389 0
 583 032e FFF7FEFF 		bl	CTest_PB_WaitForAction
 390:ControllerTest.c ****             
 391:ControllerTest.c ****             setLEDs(BLUE);
 584              		.loc 1 391 0
 585 0332 0120     		movs	r0, #1
 586 0334 FFF7FEFF 		bl	setLEDs
 392:ControllerTest.c ****             CTestStatus[CurrentTest.TestStep] = 'B';
 587              		.loc 1 392 0
 588 0338 514B     		ldr	r3, .L52
 589 033a 5B78     		ldrb	r3, [r3, #1]	@ zero_extendqisi2
 590 033c 1A46     		mov	r2, r3
 591 033e 514B     		ldr	r3, .L52+4
 592 0340 4221     		movs	r1, #66
 593 0342 9954     		strb	r1, [r3, r2]
 393:ControllerTest.c ****             CurrentTest.Status = 'B';            
 594              		.loc 1 393 0
 595 0344 4E4B     		ldr	r3, .L52
 596 0346 4222     		movs	r2, #66
 597 0348 9A70     		strb	r2, [r3, #2]
 394:ControllerTest.c ****             CyDelay(5000);
 598              		.loc 1 394 0
 599 034a 41F28830 		movw	r0, #5000
 600 034e FFF7FEFF 		bl	CyDelay
 395:ControllerTest.c ****             CTest_PB_WaitForAction();
 601              		.loc 1 395 0
 602 0352 FFF7FEFF 		bl	CTest_PB_WaitForAction
 396:ControllerTest.c ****             
 397:ControllerTest.c ****             setLEDs(GREEN);
 603              		.loc 1 397 0
 604 0356 0220     		movs	r0, #2
 605 0358 FFF7FEFF 		bl	setLEDs
ARM GAS  C:\Users\MARTHN~1\AppData\Local\Temp\ccbPVIdg.s 			page 19


 398:ControllerTest.c ****             CTestStatus[CurrentTest.TestStep] = 'B';
 606              		.loc 1 398 0
 607 035c 484B     		ldr	r3, .L52
 608 035e 5B78     		ldrb	r3, [r3, #1]	@ zero_extendqisi2
 609 0360 1A46     		mov	r2, r3
 610 0362 484B     		ldr	r3, .L52+4
 611 0364 4221     		movs	r1, #66
 612 0366 9954     		strb	r1, [r3, r2]
 399:ControllerTest.c ****             CurrentTest.Status = 'B';
 613              		.loc 1 399 0
 614 0368 454B     		ldr	r3, .L52
 615 036a 4222     		movs	r2, #66
 616 036c 9A70     		strb	r2, [r3, #2]
 400:ControllerTest.c ****             CyDelay(5000);
 617              		.loc 1 400 0
 618 036e 41F28830 		movw	r0, #5000
 619 0372 FFF7FEFF 		bl	CyDelay
 401:ControllerTest.c ****             CTest_PB_WaitForAction();
 620              		.loc 1 401 0
 621 0376 FFF7FEFF 		bl	CTest_PB_WaitForAction
 402:ControllerTest.c ****             
 403:ControllerTest.c ****             setLEDs(OFF);
 622              		.loc 1 403 0
 623 037a 0320     		movs	r0, #3
 624 037c FFF7FEFF 		bl	setLEDs
 404:ControllerTest.c ****             CTestStatus[CurrentTest.TestStep] = 'B';
 625              		.loc 1 404 0
 626 0380 3F4B     		ldr	r3, .L52
 627 0382 5B78     		ldrb	r3, [r3, #1]	@ zero_extendqisi2
 628 0384 1A46     		mov	r2, r3
 629 0386 3F4B     		ldr	r3, .L52+4
 630 0388 4221     		movs	r1, #66
 631 038a 9954     		strb	r1, [r3, r2]
 405:ControllerTest.c ****             CurrentTest.Status = 'B';
 632              		.loc 1 405 0
 633 038c 3C4B     		ldr	r3, .L52
 634 038e 4222     		movs	r2, #66
 635 0390 9A70     		strb	r2, [r3, #2]
 406:ControllerTest.c ****             CyDelay(5000);
 636              		.loc 1 406 0
 637 0392 41F28830 		movw	r0, #5000
 638 0396 FFF7FEFF 		bl	CyDelay
 407:ControllerTest.c **** //            CTest_PB_WaitForAction();
 408:ControllerTest.c **** 
 409:ControllerTest.c ****             CTestStatus[CurrentTest.TestStep] = 'P';
 639              		.loc 1 409 0
 640 039a 394B     		ldr	r3, .L52
 641 039c 5B78     		ldrb	r3, [r3, #1]	@ zero_extendqisi2
 642 039e 1A46     		mov	r2, r3
 643 03a0 384B     		ldr	r3, .L52+4
 644 03a2 5021     		movs	r1, #80
 645 03a4 9954     		strb	r1, [r3, r2]
 410:ControllerTest.c ****             CurrentTest.Status = 'P';
 646              		.loc 1 410 0
 647 03a6 364B     		ldr	r3, .L52
 648 03a8 5022     		movs	r2, #80
 649 03aa 9A70     		strb	r2, [r3, #2]
ARM GAS  C:\Users\MARTHN~1\AppData\Local\Temp\ccbPVIdg.s 			page 20


 411:ControllerTest.c ****             
 412:ControllerTest.c ****             CyDelay(CONFIRM_TIME);
 650              		.loc 1 412 0
 651 03ac 6420     		movs	r0, #100
 652 03ae FFF7FEFF 		bl	CyDelay
 413:ControllerTest.c ****             
 414:ControllerTest.c ****             if(CTestStatus[CurrentTest.TestStep] == 'F')
 653              		.loc 1 414 0
 654 03b2 334B     		ldr	r3, .L52
 655 03b4 5B78     		ldrb	r3, [r3, #1]	@ zero_extendqisi2
 656 03b6 1A46     		mov	r2, r3
 657 03b8 324B     		ldr	r3, .L52+4
 658 03ba 9B5C     		ldrb	r3, [r3, r2]	@ zero_extendqisi2
 659 03bc 462B     		cmp	r3, #70
 660 03be 03D1     		bne	.L43
 415:ControllerTest.c ****             {
 416:ControllerTest.c ****                 CurrentTest.TestStep = PASS;
 661              		.loc 1 416 0
 662 03c0 2F4B     		ldr	r3, .L52
 663 03c2 0A22     		movs	r2, #10
 664 03c4 5A70     		strb	r2, [r3, #1]
 417:ControllerTest.c ****             }
 418:ControllerTest.c ****             else
 419:ControllerTest.c ****             {
 420:ControllerTest.c ****                 //CurrentTest.TestStep = LEDS_RGB;
 421:ControllerTest.c ****                 CurrentTest.TestStep = AUDIO_STREAM;
 422:ControllerTest.c ****                 //CurrentTest.TestStep = PUSHBUTTONS;
 423:ControllerTest.c ****             }
 424:ControllerTest.c ****       
 425:ControllerTest.c ****         break; 
 665              		.loc 1 425 0
 666 03c6 55E0     		b	.L2
 667              	.L43:
 421:ControllerTest.c ****                 //CurrentTest.TestStep = PUSHBUTTONS;
 668              		.loc 1 421 0
 669 03c8 2D4B     		ldr	r3, .L52
 670 03ca 0822     		movs	r2, #8
 671 03cc 5A70     		strb	r2, [r3, #1]
 672              		.loc 1 425 0
 673 03ce 51E0     		b	.L2
 674              	.L12:
 426:ControllerTest.c ****                        
 427:ControllerTest.c ****         case AUDIO_STREAM:  // (not a priority)
 428:ControllerTest.c ****             
 429:ControllerTest.c ****             CTestStatus[CurrentTest.TestStep] = 'U';           
 675              		.loc 1 429 0
 676 03d0 2B4B     		ldr	r3, .L52
 677 03d2 5B78     		ldrb	r3, [r3, #1]	@ zero_extendqisi2
 678 03d4 1A46     		mov	r2, r3
 679 03d6 2B4B     		ldr	r3, .L52+4
 680 03d8 5521     		movs	r1, #85
 681 03da 9954     		strb	r1, [r3, r2]
 430:ControllerTest.c ****             CurrentTest.Status = 'U'; 
 682              		.loc 1 430 0
 683 03dc 284B     		ldr	r3, .L52
 684 03de 5522     		movs	r2, #85
 685 03e0 9A70     		strb	r2, [r3, #2]
ARM GAS  C:\Users\MARTHN~1\AppData\Local\Temp\ccbPVIdg.s 			page 21


 431:ControllerTest.c ****             CyDelay(CONFIRM_TIME);
 686              		.loc 1 431 0
 687 03e2 6420     		movs	r0, #100
 688 03e4 FFF7FEFF 		bl	CyDelay
 432:ControllerTest.c **** //            CTestStatus[CurrentTest.TestStep] = 'P';
 433:ControllerTest.c **** //            CurrentTest.Status = 'P';
 434:ControllerTest.c **** //            CyDelay(CONFIRM_TIME);
 435:ControllerTest.c ****             
 436:ControllerTest.c ****             CurrentTest.TestStep = DEBUG_PORT;
 689              		.loc 1 436 0
 690 03e8 254B     		ldr	r3, .L52
 691 03ea 0922     		movs	r2, #9
 692 03ec 5A70     		strb	r2, [r3, #1]
 437:ControllerTest.c ****                 
 438:ControllerTest.c ****         break;
 693              		.loc 1 438 0
 694 03ee 41E0     		b	.L2
 695              	.L13:
 439:ControllerTest.c ****                          
 440:ControllerTest.c ****         case DEBUG_PORT:    // (not a priority)    
 441:ControllerTest.c ****             
 442:ControllerTest.c ****             CTestStatus[CurrentTest.TestStep] = 'U';           
 696              		.loc 1 442 0
 697 03f0 234B     		ldr	r3, .L52
 698 03f2 5B78     		ldrb	r3, [r3, #1]	@ zero_extendqisi2
 699 03f4 1A46     		mov	r2, r3
 700 03f6 234B     		ldr	r3, .L52+4
 701 03f8 5521     		movs	r1, #85
 702 03fa 9954     		strb	r1, [r3, r2]
 443:ControllerTest.c ****             CurrentTest.Status = 'U'; 
 703              		.loc 1 443 0
 704 03fc 204B     		ldr	r3, .L52
 705 03fe 5522     		movs	r2, #85
 706 0400 9A70     		strb	r2, [r3, #2]
 444:ControllerTest.c ****             CyDelay(CONFIRM_TIME);
 707              		.loc 1 444 0
 708 0402 6420     		movs	r0, #100
 709 0404 FFF7FEFF 		bl	CyDelay
 445:ControllerTest.c **** //            CTestStatus[CurrentTest.TestStep] = 'P';
 446:ControllerTest.c **** //            CurrentTest.Status = 'P';
 447:ControllerTest.c **** //            CyDelay(CONFIRM_TIME);
 448:ControllerTest.c ****             
 449:ControllerTest.c ****             //CurrentTest.TestStep = INITIALIZE_TEST;
 450:ControllerTest.c ****             //CurrentTest.TestStep = OBDII;
 451:ControllerTest.c ****             CurrentTest.TestStep = PASS;
 710              		.loc 1 451 0
 711 0408 1D4B     		ldr	r3, .L52
 712 040a 0A22     		movs	r2, #10
 713 040c 5A70     		strb	r2, [r3, #1]
 452:ControllerTest.c ****       
 453:ControllerTest.c ****         break;  
 714              		.loc 1 453 0
 715 040e 31E0     		b	.L2
 716              	.L14:
 717              	.LBB3:
 454:ControllerTest.c ****             
 455:ControllerTest.c ****         case PASS:   
ARM GAS  C:\Users\MARTHN~1\AppData\Local\Temp\ccbPVIdg.s 			page 22


 456:ControllerTest.c **** 
 457:ControllerTest.c ****             for(uint8 i=0;i<(NUMBER_TEST_STEPS-1);i++)
 718              		.loc 1 457 0
 719 0410 0023     		movs	r3, #0
 720 0412 BB71     		strb	r3, [r7, #6]
 721 0414 1AE0     		b	.L45
 722              	.L47:
 458:ControllerTest.c ****             {
 459:ControllerTest.c ****                 if( (CTestStatus[i] != 'P') && (CTestStatus[i] != 'U') && (CTestStatus[i] != 'I') )
 723              		.loc 1 459 0
 724 0416 BB79     		ldrb	r3, [r7, #6]	@ zero_extendqisi2
 725 0418 1A4A     		ldr	r2, .L52+4
 726 041a D35C     		ldrb	r3, [r2, r3]	@ zero_extendqisi2
 727 041c 502B     		cmp	r3, #80
 728 041e 12D0     		beq	.L46
 729              		.loc 1 459 0 is_stmt 0 discriminator 1
 730 0420 BB79     		ldrb	r3, [r7, #6]	@ zero_extendqisi2
 731 0422 184A     		ldr	r2, .L52+4
 732 0424 D35C     		ldrb	r3, [r2, r3]	@ zero_extendqisi2
 733 0426 552B     		cmp	r3, #85
 734 0428 0DD0     		beq	.L46
 735              		.loc 1 459 0 discriminator 2
 736 042a BB79     		ldrb	r3, [r7, #6]	@ zero_extendqisi2
 737 042c 154A     		ldr	r2, .L52+4
 738 042e D35C     		ldrb	r3, [r2, r3]	@ zero_extendqisi2
 739 0430 492B     		cmp	r3, #73
 740 0432 08D0     		beq	.L46
 460:ControllerTest.c ****                 {
 461:ControllerTest.c ****                     CTestStatus[CurrentTest.TestStep] = 'f';
 741              		.loc 1 461 0 is_stmt 1
 742 0434 124B     		ldr	r3, .L52
 743 0436 5B78     		ldrb	r3, [r3, #1]	@ zero_extendqisi2
 744 0438 1A46     		mov	r2, r3
 745 043a 124B     		ldr	r3, .L52+4
 746 043c 6621     		movs	r1, #102
 747 043e 9954     		strb	r1, [r3, r2]
 462:ControllerTest.c ****                     CurrentTest.Status = 'f';                      
 748              		.loc 1 462 0
 749 0440 0F4B     		ldr	r3, .L52
 750 0442 6622     		movs	r2, #102
 751 0444 9A70     		strb	r2, [r3, #2]
 752              	.L46:
 457:ControllerTest.c ****             {
 753              		.loc 1 457 0 discriminator 2
 754 0446 BB79     		ldrb	r3, [r7, #6]	@ zero_extendqisi2
 755 0448 0133     		adds	r3, r3, #1
 756 044a BB71     		strb	r3, [r7, #6]
 757              	.L45:
 457:ControllerTest.c ****             {
 758              		.loc 1 457 0 is_stmt 0 discriminator 1
 759 044c BB79     		ldrb	r3, [r7, #6]	@ zero_extendqisi2
 760 044e 092B     		cmp	r3, #9
 761 0450 E1D9     		bls	.L47
 762              	.LBE3:
 463:ControllerTest.c ****                 }    
 464:ControllerTest.c ****             }
 465:ControllerTest.c ****  
ARM GAS  C:\Users\MARTHN~1\AppData\Local\Temp\ccbPVIdg.s 			page 23


 466:ControllerTest.c ****             if(CTestStatus[CurrentTest.TestStep] != 'f')
 763              		.loc 1 466 0 is_stmt 1
 764 0452 0B4B     		ldr	r3, .L52
 765 0454 5B78     		ldrb	r3, [r3, #1]	@ zero_extendqisi2
 766 0456 1A46     		mov	r2, r3
 767 0458 0A4B     		ldr	r3, .L52+4
 768 045a 9B5C     		ldrb	r3, [r3, r2]	@ zero_extendqisi2
 769 045c 662B     		cmp	r3, #102
 770 045e 08D0     		beq	.L48
 467:ControllerTest.c ****             {
 468:ControllerTest.c ****                 CTestStatus[CurrentTest.TestStep] = 'p';
 771              		.loc 1 468 0
 772 0460 074B     		ldr	r3, .L52
 773 0462 5B78     		ldrb	r3, [r3, #1]	@ zero_extendqisi2
 774 0464 1A46     		mov	r2, r3
 775 0466 074B     		ldr	r3, .L52+4
 776 0468 7021     		movs	r1, #112
 777 046a 9954     		strb	r1, [r3, r2]
 469:ControllerTest.c ****                 CurrentTest.Status = 'p'; 
 778              		.loc 1 469 0
 779 046c 044B     		ldr	r3, .L52
 780 046e 7022     		movs	r2, #112
 781 0470 9A70     		strb	r2, [r3, #2]
 782              	.L48:
 470:ControllerTest.c ****             }
 471:ControllerTest.c ****             
 472:ControllerTest.c ****             while(1);
 783              		.loc 1 472 0 discriminator 1
 784 0472 FEE7     		b	.L48
 785              	.L2:
 473:ControllerTest.c **** //            while(PB_NextAction_Read() != 1){};
 474:ControllerTest.c **** //            CTestStatus[CurrentTest.TestStep] = 'r';
 475:ControllerTest.c **** //            CurrentTest.Status = 'r'; 
 476:ControllerTest.c **** //            CyDelay(1000);
 477:ControllerTest.c **** //            CurrentTest.TestStep = INITIALIZE_TEST;
 478:ControllerTest.c ****       
 479:ControllerTest.c ****         break; 
 480:ControllerTest.c ****        
 481:ControllerTest.c ****     }
 482:ControllerTest.c ****     
 483:ControllerTest.c ****     return(0);
 786              		.loc 1 483 0
 787 0474 0023     		movs	r3, #0
 484:ControllerTest.c **** }
 788              		.loc 1 484 0
 789 0476 1846     		mov	r0, r3
 790 0478 0837     		adds	r7, r7, #8
 791              		.cfi_def_cfa_offset 8
 792 047a BD46     		mov	sp, r7
 793              		.cfi_def_cfa_register 13
 794              		@ sp needed
 795 047c 80BD     		pop	{r7, pc}
 796              	.L53:
 797 047e 00BF     		.align	2
 798              	.L52:
 799 0480 00000000 		.word	CurrentTest
 800 0484 D4000000 		.word	CTestStatus
ARM GAS  C:\Users\MARTHN~1\AppData\Local\Temp\ccbPVIdg.s 			page 24


 801              		.cfi_endproc
 802              	.LFE63:
 803              		.size	ControllerTest, .-ControllerTest
 804              		.section	.text.CTest_ReadPushbuttons,"ax",%progbits
 805              		.align	2
 806              		.global	CTest_ReadPushbuttons
 807              		.thumb
 808              		.thumb_func
 809              		.type	CTest_ReadPushbuttons, %function
 810              	CTest_ReadPushbuttons:
 811              	.LFB64:
 485:ControllerTest.c **** 
 486:ControllerTest.c **** 
 487:ControllerTest.c **** 
 488:ControllerTest.c **** uint8 CTest_ReadPushbuttons()
 489:ControllerTest.c **** {
 812              		.loc 1 489 0
 813              		.cfi_startproc
 814              		@ args = 0, pretend = 0, frame = 0
 815              		@ frame_needed = 1, uses_anonymous_args = 0
 816 0000 80B5     		push	{r7, lr}
 817              		.cfi_def_cfa_offset 8
 818              		.cfi_offset 7, -8
 819              		.cfi_offset 14, -4
 820 0002 00AF     		add	r7, sp, #0
 821              		.cfi_def_cfa_register 7
 490:ControllerTest.c **** 
 491:ControllerTest.c ****     MUX_CTRL_230400_Write(CTEST_RELAY);                             // Read a 'I' (includes 'P') pa
 822              		.loc 1 491 0
 823 0004 0020     		movs	r0, #0
 824 0006 FFF7FEFF 		bl	MUX_CTRL_230400_Write
 492:ControllerTest.c ****     pRxPacket_Controller = getRxPacket_Controller();    
 825              		.loc 1 492 0
 826 000a FFF7FEFF 		bl	getRxPacket_Controller
 827 000e 0246     		mov	r2, r0
 828 0010 094B     		ldr	r3, .L57
 829 0012 1A60     		str	r2, [r3]
 493:ControllerTest.c ****     
 494:ControllerTest.c ****     if( (pRxPacket_Controller->Payload.Outputs_1to8 == 0xFF) &&
 830              		.loc 1 494 0
 831 0014 084B     		ldr	r3, .L57
 832 0016 1B68     		ldr	r3, [r3]
 833 0018 93F84530 		ldrb	r3, [r3, #69]	@ zero_extendqisi2
 834 001c FF2B     		cmp	r3, #255
 835 001e 07D1     		bne	.L55
 495:ControllerTest.c ****         (pRxPacket_Controller->Payload.Outputs_9to16 == 0xFF) ) //&&
 836              		.loc 1 495 0 discriminator 1
 837 0020 054B     		ldr	r3, .L57
 838 0022 1B68     		ldr	r3, [r3]
 839 0024 93F84630 		ldrb	r3, [r3, #70]	@ zero_extendqisi2
 494:ControllerTest.c ****         (pRxPacket_Controller->Payload.Outputs_9to16 == 0xFF) ) //&&
 840              		.loc 1 494 0 discriminator 1
 841 0028 FF2B     		cmp	r3, #255
 842 002a 01D1     		bne	.L55
 496:ControllerTest.c **** //        (pRxPacket_Controller->Payload.Outputs_17to24 == 0xFF) &&
 497:ControllerTest.c **** //        (pRxPacket_Controller->Payload.Outputs_25to32 == 0xFF) )
 498:ControllerTest.c ****     {
ARM GAS  C:\Users\MARTHN~1\AppData\Local\Temp\ccbPVIdg.s 			page 25


 499:ControllerTest.c ****         return(1);
 843              		.loc 1 499 0
 844 002c 0123     		movs	r3, #1
 845 002e 00E0     		b	.L56
 846              	.L55:
 500:ControllerTest.c ****     } 
 501:ControllerTest.c ****     else
 502:ControllerTest.c ****         return(0);
 847              		.loc 1 502 0
 848 0030 0023     		movs	r3, #0
 849              	.L56:
 503:ControllerTest.c ****        
 504:ControllerTest.c **** }
 850              		.loc 1 504 0
 851 0032 1846     		mov	r0, r3
 852 0034 80BD     		pop	{r7, pc}
 853              	.L58:
 854 0036 00BF     		.align	2
 855              	.L57:
 856 0038 50000000 		.word	pRxPacket_Controller
 857              		.cfi_endproc
 858              	.LFE64:
 859              		.size	CTest_ReadPushbuttons, .-CTest_ReadPushbuttons
 860              		.section	.text.getTxPacket_Relay,"ax",%progbits
 861              		.align	2
 862              		.global	getTxPacket_Relay
 863              		.thumb
 864              		.thumb_func
 865              		.type	getTxPacket_Relay, %function
 866              	getTxPacket_Relay:
 867              	.LFB65:
 505:ControllerTest.c **** 
 506:ControllerTest.c **** //uint8 CTest_ReadPowerMode()
 507:ControllerTest.c **** //{  
 508:ControllerTest.c **** //    
 509:ControllerTest.c **** //    //*** We need to inlude Relay ignition signal, and OBD as triggers
 510:ControllerTest.c **** //    //*** (Controller config file should have all input logic set to Hi???)
 511:ControllerTest.c **** //    
 512:ControllerTest.c **** //    // Switch MUX_230400 to read CTest_RS485_Relay_Rx
 513:ControllerTest.c **** ////        MUX_CTRL_230400_Write(0x00);
 514:ControllerTest.c **** //     
 515:ControllerTest.c **** //    // Read the PowerState byte, Return the Powerstate byte
 516:ControllerTest.c **** //        pRxPacket_Controller = getRxPacket_Controller();
 517:ControllerTest.c **** //        return(pRxPacket_Controller->Payload.PowerState);
 518:ControllerTest.c **** //   
 519:ControllerTest.c **** //}
 520:ControllerTest.c **** 
 521:ControllerTest.c **** //void CTest_SendIgnitionState(uint8 ignition_state)           //*** This function needs work
 522:ControllerTest.c **** //{
 523:ControllerTest.c **** //    
 524:ControllerTest.c **** //    pTxPacket_Controller = getTxPacket_Controller();
 525:ControllerTest.c **** //    pTxPacket_Controller->Payload.RelayInputs = (pTxPacket_Controller->Payload.RelayInputs | 0x01
 526:ControllerTest.c **** //    
 527:ControllerTest.c **** //    MUX_CTRL_230400_Write(0x00);                        // Set the Mux channel
 528:ControllerTest.c **** //    
 529:ControllerTest.c **** //    
 530:ControllerTest.c **** //    return;
ARM GAS  C:\Users\MARTHN~1\AppData\Local\Temp\ccbPVIdg.s 			page 26


 531:ControllerTest.c **** //}
 532:ControllerTest.c **** 
 533:ControllerTest.c **** 
 534:ControllerTest.c **** TxPacket_RelaySiren * getTxPacket_Relay(void)
 535:ControllerTest.c **** {
 868              		.loc 1 535 0
 869              		.cfi_startproc
 870              		@ args = 0, pretend = 0, frame = 0
 871              		@ frame_needed = 1, uses_anonymous_args = 0
 872              		@ link register save eliminated.
 873 0000 80B4     		push	{r7}
 874              		.cfi_def_cfa_offset 4
 875              		.cfi_offset 7, -4
 876 0002 00AF     		add	r7, sp, #0
 877              		.cfi_def_cfa_register 7
 536:ControllerTest.c ****     pTxPacket_Relay = &txPacket_Relay;
 878              		.loc 1 536 0
 879 0004 044B     		ldr	r3, .L61
 880 0006 054A     		ldr	r2, .L61+4
 881 0008 1A60     		str	r2, [r3]
 537:ControllerTest.c ****     
 538:ControllerTest.c ****     return pTxPacket_Relay;
 882              		.loc 1 538 0
 883 000a 034B     		ldr	r3, .L61
 884 000c 1B68     		ldr	r3, [r3]
 539:ControllerTest.c **** }
 885              		.loc 1 539 0
 886 000e 1846     		mov	r0, r3
 887 0010 BD46     		mov	sp, r7
 888              		.cfi_def_cfa_register 13
 889              		@ sp needed
 890 0012 80BC     		pop	{r7}
 891              		.cfi_restore 7
 892              		.cfi_def_cfa_offset 0
 893 0014 7047     		bx	lr
 894              	.L62:
 895 0016 00BF     		.align	2
 896              	.L61:
 897 0018 B8000000 		.word	pTxPacket_Relay
 898 001c 68000000 		.word	txPacket_Relay
 899              		.cfi_endproc
 900              	.LFE65:
 901              		.size	getTxPacket_Relay, .-getTxPacket_Relay
 902              		.section	.text.getRxPacket_Controller,"ax",%progbits
 903              		.align	2
 904              		.global	getRxPacket_Controller
 905              		.thumb
 906              		.thumb_func
 907              		.type	getRxPacket_Controller, %function
 908              	getRxPacket_Controller:
 909              	.LFB66:
 540:ControllerTest.c **** 
 541:ControllerTest.c **** RxPacket_Controller * getRxPacket_Controller(void)
 542:ControllerTest.c **** {
 910              		.loc 1 542 0
 911              		.cfi_startproc
 912              		@ args = 0, pretend = 0, frame = 0
ARM GAS  C:\Users\MARTHN~1\AppData\Local\Temp\ccbPVIdg.s 			page 27


 913              		@ frame_needed = 1, uses_anonymous_args = 0
 914              		@ link register save eliminated.
 915 0000 80B4     		push	{r7}
 916              		.cfi_def_cfa_offset 4
 917              		.cfi_offset 7, -4
 918 0002 00AF     		add	r7, sp, #0
 919              		.cfi_def_cfa_register 7
 543:ControllerTest.c ****     pRxPacket_Controller = &rxPacket_Controller;
 920              		.loc 1 543 0
 921 0004 044B     		ldr	r3, .L65
 922 0006 054A     		ldr	r2, .L65+4
 923 0008 1A60     		str	r2, [r3]
 544:ControllerTest.c ****     
 545:ControllerTest.c ****     return pRxPacket_Controller;
 924              		.loc 1 545 0
 925 000a 034B     		ldr	r3, .L65
 926 000c 1B68     		ldr	r3, [r3]
 546:ControllerTest.c **** }
 927              		.loc 1 546 0
 928 000e 1846     		mov	r0, r3
 929 0010 BD46     		mov	sp, r7
 930              		.cfi_def_cfa_register 13
 931              		@ sp needed
 932 0012 80BC     		pop	{r7}
 933              		.cfi_restore 7
 934              		.cfi_def_cfa_offset 0
 935 0014 7047     		bx	lr
 936              	.L66:
 937 0016 00BF     		.align	2
 938              	.L65:
 939 0018 50000000 		.word	pRxPacket_Controller
 940 001c 00000000 		.word	rxPacket_Controller
 941              		.cfi_endproc
 942              	.LFE66:
 943              		.size	getRxPacket_Controller, .-getRxPacket_Controller
 944              		.section	.text.getTxPacket_Controller,"ax",%progbits
 945              		.align	2
 946              		.global	getTxPacket_Controller
 947              		.thumb
 948              		.thumb_func
 949              		.type	getTxPacket_Controller, %function
 950              	getTxPacket_Controller:
 951              	.LFB67:
 547:ControllerTest.c **** 
 548:ControllerTest.c **** TxPacket_Controller * getTxPacket_Controller(void)
 549:ControllerTest.c **** {
 952              		.loc 1 549 0
 953              		.cfi_startproc
 954              		@ args = 0, pretend = 0, frame = 0
 955              		@ frame_needed = 1, uses_anonymous_args = 0
 956              		@ link register save eliminated.
 957 0000 80B4     		push	{r7}
 958              		.cfi_def_cfa_offset 4
 959              		.cfi_offset 7, -4
 960 0002 00AF     		add	r7, sp, #0
 961              		.cfi_def_cfa_register 7
 550:ControllerTest.c ****     pTxPacket_Controller = &txPacket_Controller;
ARM GAS  C:\Users\MARTHN~1\AppData\Local\Temp\ccbPVIdg.s 			page 28


 962              		.loc 1 550 0
 963 0004 044B     		ldr	r3, .L69
 964 0006 054A     		ldr	r2, .L69+4
 965 0008 1A60     		str	r2, [r3]
 551:ControllerTest.c ****     
 552:ControllerTest.c ****     return pTxPacket_Controller;
 966              		.loc 1 552 0
 967 000a 034B     		ldr	r3, .L69
 968 000c 1B68     		ldr	r3, [r3]
 553:ControllerTest.c **** }
 969              		.loc 1 553 0
 970 000e 1846     		mov	r0, r3
 971 0010 BD46     		mov	sp, r7
 972              		.cfi_def_cfa_register 13
 973              		@ sp needed
 974 0012 80BC     		pop	{r7}
 975              		.cfi_restore 7
 976              		.cfi_def_cfa_offset 0
 977 0014 7047     		bx	lr
 978              	.L70:
 979 0016 00BF     		.align	2
 980              	.L69:
 981 0018 64000000 		.word	pTxPacket_Controller
 982 001c 54000000 		.word	txPacket_Controller
 983              		.cfi_endproc
 984              	.LFE67:
 985              		.size	getTxPacket_Controller, .-getTxPacket_Controller
 986              		.section	.text.CTest_sendDiagPacket,"ax",%progbits
 987              		.align	2
 988              		.global	CTest_sendDiagPacket
 989              		.thumb
 990              		.thumb_func
 991              		.type	CTest_sendDiagPacket, %function
 992              	CTest_sendDiagPacket:
 993              	.LFB68:
 554:ControllerTest.c **** 
 555:ControllerTest.c **** void CTest_sendDiagPacket(void)
 556:ControllerTest.c **** {
 994              		.loc 1 556 0
 995              		.cfi_startproc
 996              		@ args = 0, pretend = 0, frame = 8
 997              		@ frame_needed = 1, uses_anonymous_args = 0
 998 0000 80B5     		push	{r7, lr}
 999              		.cfi_def_cfa_offset 8
 1000              		.cfi_offset 7, -8
 1001              		.cfi_offset 14, -4
 1002 0002 82B0     		sub	sp, sp, #8
 1003              		.cfi_def_cfa_offset 16
 1004 0004 00AF     		add	r7, sp, #0
 1005              		.cfi_def_cfa_register 7
 1006              	.LBB4:
 557:ControllerTest.c **** 
 558:ControllerTest.c ****     static uint8 CTestStatus_display[ (NUMBER_TEST_STEPS*2) ];
 559:ControllerTest.c ****     
 560:ControllerTest.c ****     for(uint8 i=0;i<NUMBER_TEST_STEPS;i++)
 1007              		.loc 1 560 0
 1008 0006 0023     		movs	r3, #0
ARM GAS  C:\Users\MARTHN~1\AppData\Local\Temp\ccbPVIdg.s 			page 29


 1009 0008 FB71     		strb	r3, [r7, #7]
 1010 000a 0FE0     		b	.L72
 1011              	.L73:
 561:ControllerTest.c ****     {
 562:ControllerTest.c ****         CTestStatus_display[i*2] = CTestStatus[i];
 1012              		.loc 1 562 0 discriminator 3
 1013 000c FB79     		ldrb	r3, [r7, #7]	@ zero_extendqisi2
 1014 000e 5B00     		lsls	r3, r3, #1
 1015 0010 FA79     		ldrb	r2, [r7, #7]	@ zero_extendqisi2
 1016 0012 0F49     		ldr	r1, .L75
 1017 0014 895C     		ldrb	r1, [r1, r2]	@ zero_extendqisi2
 1018 0016 0F4A     		ldr	r2, .L75+4
 1019 0018 D154     		strb	r1, [r2, r3]
 563:ControllerTest.c ****         CTestStatus_display[(i*2) + 1] = ' ';
 1020              		.loc 1 563 0 discriminator 3
 1021 001a FB79     		ldrb	r3, [r7, #7]	@ zero_extendqisi2
 1022 001c 5B00     		lsls	r3, r3, #1
 1023 001e 0133     		adds	r3, r3, #1
 1024 0020 0C4A     		ldr	r2, .L75+4
 1025 0022 2021     		movs	r1, #32
 1026 0024 D154     		strb	r1, [r2, r3]
 560:ControllerTest.c ****     {
 1027              		.loc 1 560 0 discriminator 3
 1028 0026 FB79     		ldrb	r3, [r7, #7]	@ zero_extendqisi2
 1029 0028 0133     		adds	r3, r3, #1
 1030 002a FB71     		strb	r3, [r7, #7]
 1031              	.L72:
 560:ControllerTest.c ****     {
 1032              		.loc 1 560 0 is_stmt 0 discriminator 1
 1033 002c FB79     		ldrb	r3, [r7, #7]	@ zero_extendqisi2
 1034 002e 0A2B     		cmp	r3, #10
 1035 0030 ECD9     		bls	.L73
 1036              	.LBE4:
 564:ControllerTest.c ****     }
 565:ControllerTest.c ****     
 566:ControllerTest.c ****     //DEMUX_CTRL_115200_Write();
 567:ControllerTest.c ****     
 568:ControllerTest.c ****     UART_115200_PutArray(CTestStatus_display, (NUMBER_TEST_STEPS*2) );
 1037              		.loc 1 568 0 is_stmt 1
 1038 0032 1621     		movs	r1, #22
 1039 0034 0748     		ldr	r0, .L75+4
 1040 0036 FFF7FEFF 		bl	UART_115200_PutArray
 569:ControllerTest.c ****     
 570:ControllerTest.c ****     UART_115200_PutChar('\r');
 1041              		.loc 1 570 0
 1042 003a 0D20     		movs	r0, #13
 1043 003c FFF7FEFF 		bl	UART_115200_PutChar
 571:ControllerTest.c ****     UART_115200_PutChar('\n');
 1044              		.loc 1 571 0
 1045 0040 0A20     		movs	r0, #10
 1046 0042 FFF7FEFF 		bl	UART_115200_PutChar
 572:ControllerTest.c **** 
 573:ControllerTest.c ****     //LED_EN_Write(1);
 574:ControllerTest.c ****     
 575:ControllerTest.c ****     return;
 1047              		.loc 1 575 0
 1048 0046 00BF     		nop
ARM GAS  C:\Users\MARTHN~1\AppData\Local\Temp\ccbPVIdg.s 			page 30


 576:ControllerTest.c **** }
 1049              		.loc 1 576 0
 1050 0048 0837     		adds	r7, r7, #8
 1051              		.cfi_def_cfa_offset 8
 1052 004a BD46     		mov	sp, r7
 1053              		.cfi_def_cfa_register 13
 1054              		@ sp needed
 1055 004c 80BD     		pop	{r7, pc}
 1056              	.L76:
 1057 004e 00BF     		.align	2
 1058              	.L75:
 1059 0050 D4000000 		.word	CTestStatus
 1060 0054 E0000000 		.word	CTestStatus_display.7459
 1061              		.cfi_endproc
 1062              	.LFE68:
 1063              		.size	CTest_sendDiagPacket, .-CTest_sendDiagPacket
 1064              		.section	.text.CTest_isr_PB,"ax",%progbits
 1065              		.align	2
 1066              		.global	CTest_isr_PB
 1067              		.thumb
 1068              		.thumb_func
 1069              		.type	CTest_isr_PB, %function
 1070              	CTest_isr_PB:
 1071              	.LFB69:
 577:ControllerTest.c **** //----------------------------------------Timer Interrupts------------------------------
 578:ControllerTest.c **** void CTest_isr_PB(void)
 579:ControllerTest.c **** {
 1072              		.loc 1 579 0
 1073              		.cfi_startproc
 1074              		@ args = 0, pretend = 0, frame = 0
 1075              		@ frame_needed = 1, uses_anonymous_args = 0
 1076 0000 80B5     		push	{r7, lr}
 1077              		.cfi_def_cfa_offset 8
 1078              		.cfi_offset 7, -8
 1079              		.cfi_offset 14, -4
 1080 0002 00AF     		add	r7, sp, #0
 1081              		.cfi_def_cfa_register 7
 580:ControllerTest.c ****     static uint8 PB_NextAction_debouncecount = 0;
 581:ControllerTest.c ****     static uint8 PB_NextAction_failcount = 0;
 582:ControllerTest.c ****     static uint8 PB_NextAction_prevstate = 0;
 583:ControllerTest.c ****     
 584:ControllerTest.c ****     static uint8 debouncetrue = 0;
 585:ControllerTest.c ****     
 586:ControllerTest.c ****     static uint8 PB_reading = 0;
 587:ControllerTest.c ****     static uint8 PB_reading_previous = 0;
 588:ControllerTest.c ****     PB_reading = PB_NextAction_Read();
 1082              		.loc 1 588 0
 1083 0004 FFF7FEFF 		bl	PB_NextAction_Read
 1084 0008 0346     		mov	r3, r0
 1085 000a 1A46     		mov	r2, r3
 1086 000c 2C4B     		ldr	r3, .L87
 1087 000e 1A70     		strb	r2, [r3]
 589:ControllerTest.c ****     
 590:ControllerTest.c ****     
 591:ControllerTest.c ****     if(PB_reading == PB_reading_previous)               // If reading is the same as the last, incr
 1088              		.loc 1 591 0
 1089 0010 2B4B     		ldr	r3, .L87
ARM GAS  C:\Users\MARTHN~1\AppData\Local\Temp\ccbPVIdg.s 			page 31


 1090 0012 1A78     		ldrb	r2, [r3]	@ zero_extendqisi2
 1091 0014 2B4B     		ldr	r3, .L87+4
 1092 0016 1B78     		ldrb	r3, [r3]	@ zero_extendqisi2
 1093 0018 9A42     		cmp	r2, r3
 1094 001a 06D1     		bne	.L78
 592:ControllerTest.c ****         PB_NextAction_debouncecount++;
 1095              		.loc 1 592 0
 1096 001c 2A4B     		ldr	r3, .L87+8
 1097 001e 1B78     		ldrb	r3, [r3]	@ zero_extendqisi2
 1098 0020 0133     		adds	r3, r3, #1
 1099 0022 DAB2     		uxtb	r2, r3
 1100 0024 284B     		ldr	r3, .L87+8
 1101 0026 1A70     		strb	r2, [r3]
 1102 0028 02E0     		b	.L79
 1103              	.L78:
 593:ControllerTest.c ****     else
 594:ControllerTest.c ****         PB_NextAction_debouncecount = 0;
 1104              		.loc 1 594 0
 1105 002a 274B     		ldr	r3, .L87+8
 1106 002c 0022     		movs	r2, #0
 1107 002e 1A70     		strb	r2, [r3]
 1108              	.L79:
 595:ControllerTest.c ****     
 596:ControllerTest.c ****     if(PB_NextAction_debouncecount > DEBOUNCE_COUNT)    // Set debouncetrue
 1109              		.loc 1 596 0
 1110 0030 254B     		ldr	r3, .L87+8
 1111 0032 1B78     		ldrb	r3, [r3]	@ zero_extendqisi2
 1112 0034 022B     		cmp	r3, #2
 1113 0036 06D9     		bls	.L80
 597:ControllerTest.c ****     {
 598:ControllerTest.c ****         debouncetrue = PB_reading;
 1114              		.loc 1 598 0
 1115 0038 214B     		ldr	r3, .L87
 1116 003a 1A78     		ldrb	r2, [r3]	@ zero_extendqisi2
 1117 003c 234B     		ldr	r3, .L87+12
 1118 003e 1A70     		strb	r2, [r3]
 599:ControllerTest.c ****         PB_NextAction_debouncecount = 0;
 1119              		.loc 1 599 0
 1120 0040 214B     		ldr	r3, .L87+8
 1121 0042 0022     		movs	r2, #0
 1122 0044 1A70     		strb	r2, [r3]
 1123              	.L80:
 600:ControllerTest.c ****     }
 601:ControllerTest.c **** 
 602:ControllerTest.c ****     PB_reading_previous = PB_reading;                   // Save current reading for next interrupt
 1124              		.loc 1 602 0
 1125 0046 1E4B     		ldr	r3, .L87
 1126 0048 1A78     		ldrb	r2, [r3]	@ zero_extendqisi2
 1127 004a 1E4B     		ldr	r3, .L87+4
 1128 004c 1A70     		strb	r2, [r3]
 603:ControllerTest.c ****     
 604:ControllerTest.c ****     if(debouncetrue == 1)                               // If debounced and asserted
 1129              		.loc 1 604 0
 1130 004e 1F4B     		ldr	r3, .L87+12
 1131 0050 1B78     		ldrb	r3, [r3]	@ zero_extendqisi2
 1132 0052 012B     		cmp	r3, #1
 1133 0054 09D1     		bne	.L81
ARM GAS  C:\Users\MARTHN~1\AppData\Local\Temp\ccbPVIdg.s 			page 32


 605:ControllerTest.c ****     {
 606:ControllerTest.c ****         PB_NextAction_Pressed = 1;
 1134              		.loc 1 606 0
 1135 0056 1E4B     		ldr	r3, .L87+16
 1136 0058 0122     		movs	r2, #1
 1137 005a 1A70     		strb	r2, [r3]
 607:ControllerTest.c ****         PB_NextAction_failcount++;
 1138              		.loc 1 607 0
 1139 005c 1D4B     		ldr	r3, .L87+20
 1140 005e 1B78     		ldrb	r3, [r3]	@ zero_extendqisi2
 1141 0060 0133     		adds	r3, r3, #1
 1142 0062 DAB2     		uxtb	r2, r3
 1143 0064 1B4B     		ldr	r3, .L87+20
 1144 0066 1A70     		strb	r2, [r3]
 1145 0068 05E0     		b	.L82
 1146              	.L81:
 608:ControllerTest.c ****     }
 609:ControllerTest.c ****     else
 610:ControllerTest.c ****     {
 611:ControllerTest.c ****         PB_NextAction_Pressed = 0;
 1147              		.loc 1 611 0
 1148 006a 194B     		ldr	r3, .L87+16
 1149 006c 0022     		movs	r2, #0
 1150 006e 1A70     		strb	r2, [r3]
 612:ControllerTest.c ****         PB_NextAction_failcount = 0;
 1151              		.loc 1 612 0
 1152 0070 184B     		ldr	r3, .L87+20
 1153 0072 0022     		movs	r2, #0
 1154 0074 1A70     		strb	r2, [r3]
 1155              	.L82:
 613:ControllerTest.c ****     }
 614:ControllerTest.c ****     
 615:ControllerTest.c **** 
 616:ControllerTest.c ****     if(PB_NextAction_failcount > 75)                       // If PB is held for (150 * 20msec = 3se
 1156              		.loc 1 616 0
 1157 0076 174B     		ldr	r3, .L87+20
 1158 0078 1B78     		ldrb	r3, [r3]	@ zero_extendqisi2
 1159 007a 4B2B     		cmp	r3, #75
 1160 007c 0BD9     		bls	.L83
 617:ControllerTest.c ****     {  
 618:ControllerTest.c ****         CTestStatus[CurrentTest.TestStep] = 'F';
 1161              		.loc 1 618 0
 1162 007e 164B     		ldr	r3, .L87+24
 1163 0080 5B78     		ldrb	r3, [r3, #1]	@ zero_extendqisi2
 1164 0082 1A46     		mov	r2, r3
 1165 0084 154B     		ldr	r3, .L87+28
 1166 0086 4621     		movs	r1, #70
 1167 0088 9954     		strb	r1, [r3, r2]
 619:ControllerTest.c ****         CurrentTest.Status = 'F';
 1168              		.loc 1 619 0
 1169 008a 134B     		ldr	r3, .L87+24
 1170 008c 4622     		movs	r2, #70
 1171 008e 9A70     		strb	r2, [r3, #2]
 620:ControllerTest.c ****         PB_NextAction_failcount = 0;
 1172              		.loc 1 620 0
 1173 0090 104B     		ldr	r3, .L87+20
 1174 0092 0022     		movs	r2, #0
ARM GAS  C:\Users\MARTHN~1\AppData\Local\Temp\ccbPVIdg.s 			page 33


 1175 0094 1A70     		strb	r2, [r3]
 1176              	.L83:
 621:ControllerTest.c ****         
 622:ControllerTest.c ****     }
 623:ControllerTest.c ****     
 624:ControllerTest.c **** 
 625:ControllerTest.c ****     if( (PB_NextAction_prevstate == 1) && (PB_NextAction_Pressed == 0) )        // Determine if PB 
 1177              		.loc 1 625 0
 1178 0096 124B     		ldr	r3, .L87+32
 1179 0098 1B78     		ldrb	r3, [r3]	@ zero_extendqisi2
 1180 009a 012B     		cmp	r3, #1
 1181 009c 07D1     		bne	.L84
 1182              		.loc 1 625 0 is_stmt 0 discriminator 1
 1183 009e 0C4B     		ldr	r3, .L87+16
 1184 00a0 1B78     		ldrb	r3, [r3]	@ zero_extendqisi2
 1185 00a2 002B     		cmp	r3, #0
 1186 00a4 03D1     		bne	.L84
 626:ControllerTest.c ****     {
 627:ControllerTest.c ****         PB_NextAction_Released = 1;
 1187              		.loc 1 627 0 is_stmt 1
 1188 00a6 0F4B     		ldr	r3, .L87+36
 1189 00a8 0122     		movs	r2, #1
 1190 00aa 1A70     		strb	r2, [r3]
 1191 00ac 02E0     		b	.L85
 1192              	.L84:
 628:ControllerTest.c ****     }
 629:ControllerTest.c ****     else
 630:ControllerTest.c ****         PB_NextAction_Released = 0;
 1193              		.loc 1 630 0
 1194 00ae 0D4B     		ldr	r3, .L87+36
 1195 00b0 0022     		movs	r2, #0
 1196 00b2 1A70     		strb	r2, [r3]
 1197              	.L85:
 631:ControllerTest.c ****     
 632:ControllerTest.c ****     PB_NextAction_prevstate = PB_NextAction_Pressed;
 1198              		.loc 1 632 0
 1199 00b4 064B     		ldr	r3, .L87+16
 1200 00b6 1A78     		ldrb	r2, [r3]	@ zero_extendqisi2
 1201 00b8 094B     		ldr	r3, .L87+32
 1202 00ba 1A70     		strb	r2, [r3]
 633:ControllerTest.c ****     
 634:ControllerTest.c ****     return;
 1203              		.loc 1 634 0
 1204 00bc 00BF     		nop
 635:ControllerTest.c **** }
 1205              		.loc 1 635 0
 1206 00be 80BD     		pop	{r7, pc}
 1207              	.L88:
 1208              		.align	2
 1209              	.L87:
 1210 00c0 F6000000 		.word	PB_reading.7471
 1211 00c4 F7000000 		.word	PB_reading_previous.7472
 1212 00c8 F8000000 		.word	PB_NextAction_debouncecount.7467
 1213 00cc F9000000 		.word	debouncetrue.7470
 1214 00d0 D0000000 		.word	PB_NextAction_Pressed
 1215 00d4 FA000000 		.word	PB_NextAction_failcount.7468
 1216 00d8 00000000 		.word	CurrentTest
ARM GAS  C:\Users\MARTHN~1\AppData\Local\Temp\ccbPVIdg.s 			page 34


 1217 00dc D4000000 		.word	CTestStatus
 1218 00e0 FB000000 		.word	PB_NextAction_prevstate.7469
 1219 00e4 D1000000 		.word	PB_NextAction_Released
 1220              		.cfi_endproc
 1221              	.LFE69:
 1222              		.size	CTest_isr_PB, .-CTest_isr_PB
 1223              		.section	.text.CTest_20ms_isr,"ax",%progbits
 1224              		.align	2
 1225              		.global	CTest_20ms_isr
 1226              		.thumb
 1227              		.thumb_func
 1228              		.type	CTest_20ms_isr, %function
 1229              	CTest_20ms_isr:
 1230              	.LFB70:
 636:ControllerTest.c **** void CTest_20ms_isr(void)
 637:ControllerTest.c **** {
 1231              		.loc 1 637 0
 1232              		.cfi_startproc
 1233              		@ args = 0, pretend = 0, frame = 0
 1234              		@ frame_needed = 1, uses_anonymous_args = 0
 1235              		@ link register save eliminated.
 1236 0000 80B4     		push	{r7}
 1237              		.cfi_def_cfa_offset 4
 1238              		.cfi_offset 7, -4
 1239 0002 00AF     		add	r7, sp, #0
 1240              		.cfi_def_cfa_register 7
 638:ControllerTest.c ****     
 639:ControllerTest.c **** //    if(CurrentTest.TestStep == QUAD_PORTS)       // *** send quad packet if needed 
 640:ControllerTest.c **** //    {
 641:ControllerTest.c **** //        sendPacketToRelay_Quad();
 642:ControllerTest.c **** //    }
 643:ControllerTest.c ****     
 644:ControllerTest.c ****     CTest_20ms_isr_count++;                                         // 
 1241              		.loc 1 644 0
 1242 0004 184B     		ldr	r3, .L96
 1243 0006 1B88     		ldrh	r3, [r3]
 1244 0008 0133     		adds	r3, r3, #1
 1245 000a 9AB2     		uxth	r2, r3
 1246 000c 164B     		ldr	r3, .L96
 1247 000e 1A80     		strh	r2, [r3]	@ movhi
 645:ControllerTest.c **** 
 646:ControllerTest.c ****     if(CTest_20ms_isr_count > CTest_TimeoutCount[CurrentTest.TestStep])
 1248              		.loc 1 646 0
 1249 0010 164B     		ldr	r3, .L96+4
 1250 0012 5B78     		ldrb	r3, [r3, #1]	@ zero_extendqisi2
 1251 0014 1A46     		mov	r2, r3
 1252 0016 164B     		ldr	r3, .L96+8
 1253 0018 33F81220 		ldrh	r2, [r3, r2, lsl #1]
 1254 001c 124B     		ldr	r3, .L96
 1255 001e 1B88     		ldrh	r3, [r3]
 1256 0020 9A42     		cmp	r2, r3
 1257 0022 10D2     		bcs	.L90
 647:ControllerTest.c ****     {
 648:ControllerTest.c ****         CTest_20ms_isr_count = 0;
 1258              		.loc 1 648 0
 1259 0024 104B     		ldr	r3, .L96
 1260 0026 0022     		movs	r2, #0
ARM GAS  C:\Users\MARTHN~1\AppData\Local\Temp\ccbPVIdg.s 			page 35


 1261 0028 1A80     		strh	r2, [r3]	@ movhi
 649:ControllerTest.c ****         
 650:ControllerTest.c ****         if(CTest_20ms_isr_EN == 1)
 1262              		.loc 1 650 0
 1263 002a 124B     		ldr	r3, .L96+12
 1264 002c 1B88     		ldrh	r3, [r3]
 1265 002e 012B     		cmp	r3, #1
 1266 0030 14D1     		bne	.L94
 651:ControllerTest.c ****         {
 652:ControllerTest.c ****             CTestStatus[CurrentTest.TestStep] = 'F';
 1267              		.loc 1 652 0
 1268 0032 0E4B     		ldr	r3, .L96+4
 1269 0034 5B78     		ldrb	r3, [r3, #1]	@ zero_extendqisi2
 1270 0036 1A46     		mov	r2, r3
 1271 0038 0F4B     		ldr	r3, .L96+16
 1272 003a 4621     		movs	r1, #70
 1273 003c 9954     		strb	r1, [r3, r2]
 653:ControllerTest.c ****             CurrentTest.Status = 'F';
 1274              		.loc 1 653 0
 1275 003e 0B4B     		ldr	r3, .L96+4
 1276 0040 4622     		movs	r2, #70
 1277 0042 9A70     		strb	r2, [r3, #2]
 654:ControllerTest.c ****         }
 655:ControllerTest.c ****             
 656:ControllerTest.c ****         return;
 1278              		.loc 1 656 0
 1279 0044 0AE0     		b	.L94
 1280              	.L90:
 657:ControllerTest.c ****     }
 658:ControllerTest.c ****     
 659:ControllerTest.c ****     if(CTest_20ms_isr_count > 65000)
 1281              		.loc 1 659 0
 1282 0046 084B     		ldr	r3, .L96
 1283 0048 1B88     		ldrh	r3, [r3]
 1284 004a 4FF6E852 		movw	r2, #65000
 1285 004e 9342     		cmp	r3, r2
 1286 0050 06D9     		bls	.L95
 660:ControllerTest.c ****         CTest_20ms_isr_count = 0;
 1287              		.loc 1 660 0
 1288 0052 054B     		ldr	r3, .L96
 1289 0054 0022     		movs	r2, #0
 1290 0056 1A80     		strh	r2, [r3]	@ movhi
 661:ControllerTest.c ****     
 662:ControllerTest.c ****     return;
 1291              		.loc 1 662 0
 1292 0058 00BF     		nop
 1293 005a 01E0     		b	.L95
 1294              	.L94:
 656:ControllerTest.c ****     }
 1295              		.loc 1 656 0
 1296 005c 00BF     		nop
 1297 005e 00E0     		b	.L89
 1298              	.L95:
 1299              		.loc 1 662 0
 1300 0060 00BF     		nop
 1301              	.L89:
 663:ControllerTest.c ****        
ARM GAS  C:\Users\MARTHN~1\AppData\Local\Temp\ccbPVIdg.s 			page 36


 664:ControllerTest.c **** }
 1302              		.loc 1 664 0
 1303 0062 BD46     		mov	sp, r7
 1304              		.cfi_def_cfa_register 13
 1305              		@ sp needed
 1306 0064 80BC     		pop	{r7}
 1307              		.cfi_restore 7
 1308              		.cfi_def_cfa_offset 0
 1309 0066 7047     		bx	lr
 1310              	.L97:
 1311              		.align	2
 1312              	.L96:
 1313 0068 CC000000 		.word	CTest_20ms_isr_count
 1314 006c 00000000 		.word	CurrentTest
 1315 0070 00000000 		.word	CTest_TimeoutCount
 1316 0074 CE000000 		.word	CTest_20ms_isr_EN
 1317 0078 D4000000 		.word	CTestStatus
 1318              		.cfi_endproc
 1319              	.LFE70:
 1320              		.size	CTest_20ms_isr, .-CTest_20ms_isr
 1321              		.section	.text.CTest_50ms_isr,"ax",%progbits
 1322              		.align	2
 1323              		.global	CTest_50ms_isr
 1324              		.thumb
 1325              		.thumb_func
 1326              		.type	CTest_50ms_isr, %function
 1327              	CTest_50ms_isr:
 1328              	.LFB71:
 665:ControllerTest.c **** 
 666:ControllerTest.c **** void CTest_50ms_isr(void)
 667:ControllerTest.c **** {
 1329              		.loc 1 667 0
 1330              		.cfi_startproc
 1331              		@ args = 0, pretend = 0, frame = 0
 1332              		@ frame_needed = 1, uses_anonymous_args = 0
 1333 0000 80B5     		push	{r7, lr}
 1334              		.cfi_def_cfa_offset 8
 1335              		.cfi_offset 7, -8
 1336              		.cfi_offset 14, -4
 1337 0002 00AF     		add	r7, sp, #0
 1338              		.cfi_def_cfa_register 7
 668:ControllerTest.c ****     
 669:ControllerTest.c ****     CTest_sendDiagPacket();                             // Send diagnostic packet to terminal
 1339              		.loc 1 669 0
 1340 0004 FFF7FEFF 		bl	CTest_sendDiagPacket
 670:ControllerTest.c **** //    pRxPacket_Controller = getRxPacket_Controller();  
 671:ControllerTest.c **** //    UART_115200_WriteTxData(pRxPacket_Controller->Payload.PowerState + 48);
 672:ControllerTest.c **** //    UART_115200_WriteTxData('\r');
 673:ControllerTest.c **** //    UART_115200_WriteTxData('\n');
 674:ControllerTest.c ****     
 675:ControllerTest.c ****     
 676:ControllerTest.c ****     sendPacket_OBDII();
 1341              		.loc 1 676 0
 1342 0008 FFF7FEFF 		bl	sendPacket_OBDII
 677:ControllerTest.c **** 
 678:ControllerTest.c ****     if( (CurrentTest.TestStep == INITIALIZE_TEST) ||    // Send packet to controller if it applies 
 1343              		.loc 1 678 0
ARM GAS  C:\Users\MARTHN~1\AppData\Local\Temp\ccbPVIdg.s 			page 37


 1344 000c 0D4B     		ldr	r3, .L104
 1345 000e 5B78     		ldrb	r3, [r3, #1]	@ zero_extendqisi2
 1346 0010 002B     		cmp	r3, #0
 1347 0012 0BD0     		beq	.L99
 679:ControllerTest.c ****         (CurrentTest.TestStep == CONFIRM_BOOTUP) || 
 1348              		.loc 1 679 0 discriminator 1
 1349 0014 0B4B     		ldr	r3, .L104
 1350 0016 5B78     		ldrb	r3, [r3, #1]	@ zero_extendqisi2
 678:ControllerTest.c ****         (CurrentTest.TestStep == CONFIRM_BOOTUP) || 
 1351              		.loc 1 678 0 discriminator 1
 1352 0018 012B     		cmp	r3, #1
 1353 001a 07D0     		beq	.L99
 680:ControllerTest.c ****         (CurrentTest.TestStep == CONFIG_FILE) ||
 1354              		.loc 1 680 0
 1355 001c 094B     		ldr	r3, .L104
 1356 001e 5B78     		ldrb	r3, [r3, #1]	@ zero_extendqisi2
 679:ControllerTest.c ****         (CurrentTest.TestStep == CONFIRM_BOOTUP) || 
 1357              		.loc 1 679 0
 1358 0020 022B     		cmp	r3, #2
 1359 0022 03D0     		beq	.L99
 681:ControllerTest.c ****         (CurrentTest.TestStep == TEST_POWERMODES) )     // This is just to test relay ignition sign
 1360              		.loc 1 681 0
 1361 0024 074B     		ldr	r3, .L104
 1362 0026 5B78     		ldrb	r3, [r3, #1]	@ zero_extendqisi2
 680:ControllerTest.c ****         (CurrentTest.TestStep == CONFIG_FILE) ||
 1363              		.loc 1 680 0
 1364 0028 032B     		cmp	r3, #3
 1365 002a 01D1     		bne	.L100
 1366              	.L99:
 682:ControllerTest.c ****     {      
 683:ControllerTest.c ****         //sendPacket_OBDII();
 684:ControllerTest.c ****         sendPacket_RelayToController();
 1367              		.loc 1 684 0
 1368 002c FFF7FEFF 		bl	sendPacket_RelayToController
 1369              	.L100:
 685:ControllerTest.c ****     }
 686:ControllerTest.c ****     if(CurrentTest.TestStep == LEDS_RGB)
 1370              		.loc 1 686 0
 1371 0030 044B     		ldr	r3, .L104
 1372 0032 5B78     		ldrb	r3, [r3, #1]	@ zero_extendqisi2
 1373 0034 072B     		cmp	r3, #7
 1374 0036 02D1     		bne	.L103
 687:ControllerTest.c ****     {      
 688:ControllerTest.c ****         //sendIgnition_OBDII();
 689:ControllerTest.c ****         sendPacket_RelayToController_Test();
 1375              		.loc 1 689 0
 1376 0038 FFF7FEFF 		bl	sendPacket_RelayToController_Test
 690:ControllerTest.c ****     }
 691:ControllerTest.c ****     
 692:ControllerTest.c ****     return;    
 1377              		.loc 1 692 0
 1378 003c 00BF     		nop
 1379              	.L103:
 1380 003e 00BF     		nop
 693:ControllerTest.c ****     
 694:ControllerTest.c **** }
 1381              		.loc 1 694 0
ARM GAS  C:\Users\MARTHN~1\AppData\Local\Temp\ccbPVIdg.s 			page 38


 1382 0040 80BD     		pop	{r7, pc}
 1383              	.L105:
 1384 0042 00BF     		.align	2
 1385              	.L104:
 1386 0044 00000000 		.word	CurrentTest
 1387              		.cfi_endproc
 1388              	.LFE71:
 1389              		.size	CTest_50ms_isr, .-CTest_50ms_isr
 1390              		.section	.text.CTest_StartAutomatedStep,"ax",%progbits
 1391              		.align	2
 1392              		.global	CTest_StartAutomatedStep
 1393              		.thumb
 1394              		.thumb_func
 1395              		.type	CTest_StartAutomatedStep, %function
 1396              	CTest_StartAutomatedStep:
 1397              	.LFB72:
 695:ControllerTest.c **** 
 696:ControllerTest.c **** void CTest_StartAutomatedStep(void)
 697:ControllerTest.c **** {
 1398              		.loc 1 697 0
 1399              		.cfi_startproc
 1400              		@ args = 0, pretend = 0, frame = 0
 1401              		@ frame_needed = 1, uses_anonymous_args = 0
 1402              		@ link register save eliminated.
 1403 0000 80B4     		push	{r7}
 1404              		.cfi_def_cfa_offset 4
 1405              		.cfi_offset 7, -4
 1406 0002 00AF     		add	r7, sp, #0
 1407              		.cfi_def_cfa_register 7
 698:ControllerTest.c ****     
 699:ControllerTest.c ****     CTestStatus[CurrentTest.TestStep] = 'B';
 1408              		.loc 1 699 0
 1409 0004 094B     		ldr	r3, .L108
 1410 0006 5B78     		ldrb	r3, [r3, #1]	@ zero_extendqisi2
 1411 0008 1A46     		mov	r2, r3
 1412 000a 094B     		ldr	r3, .L108+4
 1413 000c 4221     		movs	r1, #66
 1414 000e 9954     		strb	r1, [r3, r2]
 700:ControllerTest.c ****     CurrentTest.Status = 'B';
 1415              		.loc 1 700 0
 1416 0010 064B     		ldr	r3, .L108
 1417 0012 4222     		movs	r2, #66
 1418 0014 9A70     		strb	r2, [r3, #2]
 701:ControllerTest.c ****     
 702:ControllerTest.c ****     CTest_20ms_isr_count = 0;
 1419              		.loc 1 702 0
 1420 0016 074B     		ldr	r3, .L108+8
 1421 0018 0022     		movs	r2, #0
 1422 001a 1A80     		strh	r2, [r3]	@ movhi
 703:ControllerTest.c ****     CTest_20ms_isr_EN = 1;
 1423              		.loc 1 703 0
 1424 001c 064B     		ldr	r3, .L108+12
 1425 001e 0122     		movs	r2, #1
 1426 0020 1A80     		strh	r2, [r3]	@ movhi
 704:ControllerTest.c ****     
 705:ControllerTest.c ****     return;
 1427              		.loc 1 705 0
ARM GAS  C:\Users\MARTHN~1\AppData\Local\Temp\ccbPVIdg.s 			page 39


 1428 0022 00BF     		nop
 706:ControllerTest.c ****     
 707:ControllerTest.c **** }
 1429              		.loc 1 707 0
 1430 0024 BD46     		mov	sp, r7
 1431              		.cfi_def_cfa_register 13
 1432              		@ sp needed
 1433 0026 80BC     		pop	{r7}
 1434              		.cfi_restore 7
 1435              		.cfi_def_cfa_offset 0
 1436 0028 7047     		bx	lr
 1437              	.L109:
 1438 002a 00BF     		.align	2
 1439              	.L108:
 1440 002c 00000000 		.word	CurrentTest
 1441 0030 D4000000 		.word	CTestStatus
 1442 0034 CC000000 		.word	CTest_20ms_isr_count
 1443 0038 CE000000 		.word	CTest_20ms_isr_EN
 1444              		.cfi_endproc
 1445              	.LFE72:
 1446              		.size	CTest_StartAutomatedStep, .-CTest_StartAutomatedStep
 1447              		.section	.text.CTest_StopAutomatedStep,"ax",%progbits
 1448              		.align	2
 1449              		.global	CTest_StopAutomatedStep
 1450              		.thumb
 1451              		.thumb_func
 1452              		.type	CTest_StopAutomatedStep, %function
 1453              	CTest_StopAutomatedStep:
 1454              	.LFB73:
 708:ControllerTest.c **** 
 709:ControllerTest.c **** void CTest_StopAutomatedStep(void)
 710:ControllerTest.c **** {
 1455              		.loc 1 710 0
 1456              		.cfi_startproc
 1457              		@ args = 0, pretend = 0, frame = 0
 1458              		@ frame_needed = 1, uses_anonymous_args = 0
 1459              		@ link register save eliminated.
 1460 0000 80B4     		push	{r7}
 1461              		.cfi_def_cfa_offset 4
 1462              		.cfi_offset 7, -4
 1463 0002 00AF     		add	r7, sp, #0
 1464              		.cfi_def_cfa_register 7
 711:ControllerTest.c ****     
 712:ControllerTest.c ****     CTest_20ms_isr_EN = 0;
 1465              		.loc 1 712 0
 1466 0004 0B4B     		ldr	r3, .L114
 1467 0006 0022     		movs	r2, #0
 1468 0008 1A80     		strh	r2, [r3]	@ movhi
 713:ControllerTest.c ****     if(CTestStatus[CurrentTest.TestStep] != 'F')       // If not failed, then pass
 1469              		.loc 1 713 0
 1470 000a 0B4B     		ldr	r3, .L114+4
 1471 000c 5B78     		ldrb	r3, [r3, #1]	@ zero_extendqisi2
 1472 000e 1A46     		mov	r2, r3
 1473 0010 0A4B     		ldr	r3, .L114+8
 1474 0012 9B5C     		ldrb	r3, [r3, r2]	@ zero_extendqisi2
 1475 0014 462B     		cmp	r3, #70
 1476 0016 09D0     		beq	.L113
ARM GAS  C:\Users\MARTHN~1\AppData\Local\Temp\ccbPVIdg.s 			page 40


 714:ControllerTest.c ****     {
 715:ControllerTest.c ****         CTestStatus[CurrentTest.TestStep] = 'P';
 1477              		.loc 1 715 0
 1478 0018 074B     		ldr	r3, .L114+4
 1479 001a 5B78     		ldrb	r3, [r3, #1]	@ zero_extendqisi2
 1480 001c 1A46     		mov	r2, r3
 1481 001e 074B     		ldr	r3, .L114+8
 1482 0020 5021     		movs	r1, #80
 1483 0022 9954     		strb	r1, [r3, r2]
 716:ControllerTest.c ****         CurrentTest.Status = 'P';
 1484              		.loc 1 716 0
 1485 0024 044B     		ldr	r3, .L114+4
 1486 0026 5022     		movs	r2, #80
 1487 0028 9A70     		strb	r2, [r3, #2]
 717:ControllerTest.c ****     }
 718:ControllerTest.c ****     
 719:ControllerTest.c ****     return;
 1488              		.loc 1 719 0
 1489 002a 00BF     		nop
 1490              	.L113:
 1491 002c 00BF     		nop
 720:ControllerTest.c ****     
 721:ControllerTest.c **** }
 1492              		.loc 1 721 0
 1493 002e BD46     		mov	sp, r7
 1494              		.cfi_def_cfa_register 13
 1495              		@ sp needed
 1496 0030 80BC     		pop	{r7}
 1497              		.cfi_restore 7
 1498              		.cfi_def_cfa_offset 0
 1499 0032 7047     		bx	lr
 1500              	.L115:
 1501              		.align	2
 1502              	.L114:
 1503 0034 CE000000 		.word	CTest_20ms_isr_EN
 1504 0038 00000000 		.word	CurrentTest
 1505 003c D4000000 		.word	CTestStatus
 1506              		.cfi_endproc
 1507              	.LFE73:
 1508              		.size	CTest_StopAutomatedStep, .-CTest_StopAutomatedStep
 1509              		.section	.text.CTest_PB_WaitForAction,"ax",%progbits
 1510              		.align	2
 1511              		.global	CTest_PB_WaitForAction
 1512              		.thumb
 1513              		.thumb_func
 1514              		.type	CTest_PB_WaitForAction, %function
 1515              	CTest_PB_WaitForAction:
 1516              	.LFB74:
 722:ControllerTest.c **** 
 723:ControllerTest.c **** void CTest_PB_WaitForAction(void)
 724:ControllerTest.c **** {
 1517              		.loc 1 724 0
 1518              		.cfi_startproc
 1519              		@ args = 0, pretend = 0, frame = 0
 1520              		@ frame_needed = 1, uses_anonymous_args = 0
 1521 0000 80B5     		push	{r7, lr}
 1522              		.cfi_def_cfa_offset 8
ARM GAS  C:\Users\MARTHN~1\AppData\Local\Temp\ccbPVIdg.s 			page 41


 1523              		.cfi_offset 7, -8
 1524              		.cfi_offset 14, -4
 1525 0002 00AF     		add	r7, sp, #0
 1526              		.cfi_def_cfa_register 7
 725:ControllerTest.c ****     
 726:ControllerTest.c ****     CTestStatus[CurrentTest.TestStep] = 'W';                                        // Set status t
 1527              		.loc 1 726 0
 1528 0004 164B     		ldr	r3, .L121
 1529 0006 5B78     		ldrb	r3, [r3, #1]	@ zero_extendqisi2
 1530 0008 1A46     		mov	r2, r3
 1531 000a 164B     		ldr	r3, .L121+4
 1532 000c 5721     		movs	r1, #87
 1533 000e 9954     		strb	r1, [r3, r2]
 727:ControllerTest.c ****     CurrentTest.Status = 'W';
 1534              		.loc 1 727 0
 1535 0010 134B     		ldr	r3, .L121
 1536 0012 5722     		movs	r2, #87
 1537 0014 9A70     		strb	r2, [r3, #2]
 728:ControllerTest.c ****     
 729:ControllerTest.c ****     while( (CTestStatus[CurrentTest.TestStep] != 'P') && (CTestStatus[CurrentTest.TestStep] != 'F')
 1538              		.loc 1 729 0
 1539 0016 0FE0     		b	.L117
 1540              	.L119:
 730:ControllerTest.c ****     {
 731:ControllerTest.c ****         if(PB_NextAction_Released) 
 1541              		.loc 1 731 0
 1542 0018 134B     		ldr	r3, .L121+8
 1543 001a 1B78     		ldrb	r3, [r3]	@ zero_extendqisi2
 1544 001c 002B     		cmp	r3, #0
 1545 001e 0BD0     		beq	.L117
 732:ControllerTest.c ****         {
 733:ControllerTest.c ****             //LED_EN_Write(1);
 734:ControllerTest.c ****             CTestStatus[CurrentTest.TestStep] = 'P';
 1546              		.loc 1 734 0
 1547 0020 0F4B     		ldr	r3, .L121
 1548 0022 5B78     		ldrb	r3, [r3, #1]	@ zero_extendqisi2
 1549 0024 1A46     		mov	r2, r3
 1550 0026 0F4B     		ldr	r3, .L121+4
 1551 0028 5021     		movs	r1, #80
 1552 002a 9954     		strb	r1, [r3, r2]
 735:ControllerTest.c ****             CurrentTest.Status = 'P';
 1553              		.loc 1 735 0
 1554 002c 0C4B     		ldr	r3, .L121
 1555 002e 5022     		movs	r2, #80
 1556 0030 9A70     		strb	r2, [r3, #2]
 736:ControllerTest.c ****             PB_NextAction_Released = 0;
 1557              		.loc 1 736 0
 1558 0032 0D4B     		ldr	r3, .L121+8
 1559 0034 0022     		movs	r2, #0
 1560 0036 1A70     		strb	r2, [r3]
 1561              	.L117:
 729:ControllerTest.c ****     {
 1562              		.loc 1 729 0
 1563 0038 094B     		ldr	r3, .L121
 1564 003a 5B78     		ldrb	r3, [r3, #1]	@ zero_extendqisi2
 1565 003c 1A46     		mov	r2, r3
 1566 003e 094B     		ldr	r3, .L121+4
ARM GAS  C:\Users\MARTHN~1\AppData\Local\Temp\ccbPVIdg.s 			page 42


 1567 0040 9B5C     		ldrb	r3, [r3, r2]	@ zero_extendqisi2
 1568 0042 502B     		cmp	r3, #80
 1569 0044 06D0     		beq	.L118
 729:ControllerTest.c ****     {
 1570              		.loc 1 729 0 is_stmt 0 discriminator 1
 1571 0046 064B     		ldr	r3, .L121
 1572 0048 5B78     		ldrb	r3, [r3, #1]	@ zero_extendqisi2
 1573 004a 1A46     		mov	r2, r3
 1574 004c 054B     		ldr	r3, .L121+4
 1575 004e 9B5C     		ldrb	r3, [r3, r2]	@ zero_extendqisi2
 1576 0050 462B     		cmp	r3, #70
 1577 0052 E1D1     		bne	.L119
 1578              	.L118:
 737:ControllerTest.c ****         }
 738:ControllerTest.c ****     } 
 739:ControllerTest.c **** 
 740:ControllerTest.c ****     LED_EN_Write(0);    // ***not sure why this seems to be needed to make it work
 1579              		.loc 1 740 0 is_stmt 1
 1580 0054 0020     		movs	r0, #0
 1581 0056 FFF7FEFF 		bl	LED_EN_Write
 741:ControllerTest.c ****     
 742:ControllerTest.c ****     return;
 1582              		.loc 1 742 0
 1583 005a 00BF     		nop
 743:ControllerTest.c **** }
 1584              		.loc 1 743 0
 1585 005c 80BD     		pop	{r7, pc}
 1586              	.L122:
 1587 005e 00BF     		.align	2
 1588              	.L121:
 1589 0060 00000000 		.word	CurrentTest
 1590 0064 D4000000 		.word	CTestStatus
 1591 0068 D1000000 		.word	PB_NextAction_Released
 1592              		.cfi_endproc
 1593              	.LFE74:
 1594              		.size	CTest_PB_WaitForAction, .-CTest_PB_WaitForAction
 1595              		.section	.text.getTxPacket_Intermotive,"ax",%progbits
 1596              		.align	2
 1597              		.global	getTxPacket_Intermotive
 1598              		.thumb
 1599              		.thumb_func
 1600              		.type	getTxPacket_Intermotive, %function
 1601              	getTxPacket_Intermotive:
 1602              	.LFB75:
 744:ControllerTest.c **** 
 745:ControllerTest.c **** TxPacket_Intermotive * getTxPacket_Intermotive()          // CTest Tx - Intermotive packet sent to 
 746:ControllerTest.c **** {
 1603              		.loc 1 746 0
 1604              		.cfi_startproc
 1605              		@ args = 0, pretend = 0, frame = 0
 1606              		@ frame_needed = 1, uses_anonymous_args = 0
 1607              		@ link register save eliminated.
 1608 0000 80B4     		push	{r7}
 1609              		.cfi_def_cfa_offset 4
 1610              		.cfi_offset 7, -4
 1611 0002 00AF     		add	r7, sp, #0
 1612              		.cfi_def_cfa_register 7
ARM GAS  C:\Users\MARTHN~1\AppData\Local\Temp\ccbPVIdg.s 			page 43


 747:ControllerTest.c ****     pTxPacket_Intermotive = &txPacket_Intermotive;
 1613              		.loc 1 747 0
 1614 0004 044B     		ldr	r3, .L125
 1615 0006 054A     		ldr	r2, .L125+4
 1616 0008 1A60     		str	r2, [r3]
 748:ControllerTest.c ****     
 749:ControllerTest.c ****     return pTxPacket_Intermotive;
 1617              		.loc 1 749 0
 1618 000a 034B     		ldr	r3, .L125
 1619 000c 1B68     		ldr	r3, [r3]
 750:ControllerTest.c **** }
 1620              		.loc 1 750 0
 1621 000e 1846     		mov	r0, r3
 1622 0010 BD46     		mov	sp, r7
 1623              		.cfi_def_cfa_register 13
 1624              		@ sp needed
 1625 0012 80BC     		pop	{r7}
 1626              		.cfi_restore 7
 1627              		.cfi_def_cfa_offset 0
 1628 0014 7047     		bx	lr
 1629              	.L126:
 1630 0016 00BF     		.align	2
 1631              	.L125:
 1632 0018 C8000000 		.word	pTxPacket_Intermotive
 1633 001c BC000000 		.word	txPacket_Intermotive
 1634              		.cfi_endproc
 1635              	.LFE75:
 1636              		.size	getTxPacket_Intermotive, .-getTxPacket_Intermotive
 1637              		.section	.text.setLEDs,"ax",%progbits
 1638              		.align	2
 1639              		.global	setLEDs
 1640              		.thumb
 1641              		.thumb_func
 1642              		.type	setLEDs, %function
 1643              	setLEDs:
 1644              	.LFB76:
 751:ControllerTest.c **** 
 752:ControllerTest.c **** void setLEDs(uint8 color)
 753:ControllerTest.c **** {
 1645              		.loc 1 753 0
 1646              		.cfi_startproc
 1647              		@ args = 0, pretend = 0, frame = 8
 1648              		@ frame_needed = 1, uses_anonymous_args = 0
 1649 0000 80B5     		push	{r7, lr}
 1650              		.cfi_def_cfa_offset 8
 1651              		.cfi_offset 7, -8
 1652              		.cfi_offset 14, -4
 1653 0002 82B0     		sub	sp, sp, #8
 1654              		.cfi_def_cfa_offset 16
 1655 0004 00AF     		add	r7, sp, #0
 1656              		.cfi_def_cfa_register 7
 1657 0006 0346     		mov	r3, r0
 1658 0008 FB71     		strb	r3, [r7, #7]
 754:ControllerTest.c ****     
 755:ControllerTest.c ****     pTxPacket_Relay = getTxPacket_Relay();
 1659              		.loc 1 755 0
 1660 000a FFF7FEFF 		bl	getTxPacket_Relay
ARM GAS  C:\Users\MARTHN~1\AppData\Local\Temp\ccbPVIdg.s 			page 44


 1661 000e 0246     		mov	r2, r0
 1662 0010 6D4B     		ldr	r3, .L133
 1663 0012 1A60     		str	r2, [r3]
 756:ControllerTest.c ****     pRxPacket_Controller = getRxPacket_Controller();
 1664              		.loc 1 756 0
 1665 0014 FFF7FEFF 		bl	getRxPacket_Controller
 1666 0018 0246     		mov	r2, r0
 1667 001a 6C4B     		ldr	r3, .L133+4
 1668 001c 1A60     		str	r2, [r3]
 757:ControllerTest.c ****     
 758:ControllerTest.c ****     if(color == RED)
 1669              		.loc 1 758 0
 1670 001e FB79     		ldrb	r3, [r7, #7]	@ zero_extendqisi2
 1671 0020 002B     		cmp	r3, #0
 1672 0022 40F0D580 		bne	.L128
 759:ControllerTest.c ****     {
 760:ControllerTest.c ****         pTxPacket_Relay->Payload.LED_01_R = 0xFF;
 1673              		.loc 1 760 0
 1674 0026 684B     		ldr	r3, .L133
 1675 0028 1B68     		ldr	r3, [r3]
 1676 002a FF22     		movs	r2, #255
 1677 002c 83F82D20 		strb	r2, [r3, #45]
 761:ControllerTest.c ****         pTxPacket_Relay->Payload.LED_02_R = 0xFF;
 1678              		.loc 1 761 0
 1679 0030 654B     		ldr	r3, .L133
 1680 0032 1B68     		ldr	r3, [r3]
 1681 0034 FF22     		movs	r2, #255
 1682 0036 83F82A20 		strb	r2, [r3, #42]
 762:ControllerTest.c ****         pTxPacket_Relay->Payload.LED_03_R = 0xFF;
 1683              		.loc 1 762 0
 1684 003a 634B     		ldr	r3, .L133
 1685 003c 1B68     		ldr	r3, [r3]
 1686 003e FF22     		movs	r2, #255
 1687 0040 83F82720 		strb	r2, [r3, #39]
 763:ControllerTest.c ****         pTxPacket_Relay->Payload.LED_04_R = 0xFF;
 1688              		.loc 1 763 0
 1689 0044 604B     		ldr	r3, .L133
 1690 0046 1B68     		ldr	r3, [r3]
 1691 0048 FF22     		movs	r2, #255
 1692 004a 83F82420 		strb	r2, [r3, #36]
 764:ControllerTest.c ****         pTxPacket_Relay->Payload.LED_05_R = 0xFF;
 1693              		.loc 1 764 0
 1694 004e 5E4B     		ldr	r3, .L133
 1695 0050 1B68     		ldr	r3, [r3]
 1696 0052 FF22     		movs	r2, #255
 1697 0054 83F82120 		strb	r2, [r3, #33]
 765:ControllerTest.c ****         pTxPacket_Relay->Payload.LED_06_R = 0xFF;
 1698              		.loc 1 765 0
 1699 0058 5B4B     		ldr	r3, .L133
 1700 005a 1B68     		ldr	r3, [r3]
 1701 005c FF22     		movs	r2, #255
 1702 005e 9A77     		strb	r2, [r3, #30]
 766:ControllerTest.c ****         pTxPacket_Relay->Payload.LED_07_R = 0xFF;
 1703              		.loc 1 766 0
 1704 0060 594B     		ldr	r3, .L133
 1705 0062 1B68     		ldr	r3, [r3]
 1706 0064 FF22     		movs	r2, #255
ARM GAS  C:\Users\MARTHN~1\AppData\Local\Temp\ccbPVIdg.s 			page 45


 1707 0066 DA76     		strb	r2, [r3, #27]
 767:ControllerTest.c ****         pTxPacket_Relay->Payload.LED_08_R = 0xFF;
 1708              		.loc 1 767 0
 1709 0068 574B     		ldr	r3, .L133
 1710 006a 1B68     		ldr	r3, [r3]
 1711 006c FF22     		movs	r2, #255
 1712 006e 1A76     		strb	r2, [r3, #24]
 768:ControllerTest.c ****         pTxPacket_Relay->Payload.LED_09_R = 0xFF;
 1713              		.loc 1 768 0
 1714 0070 554B     		ldr	r3, .L133
 1715 0072 1B68     		ldr	r3, [r3]
 1716 0074 FF22     		movs	r2, #255
 1717 0076 5A75     		strb	r2, [r3, #21]
 769:ControllerTest.c ****         pTxPacket_Relay->Payload.LED_10_R = 0xFF;
 1718              		.loc 1 769 0
 1719 0078 534B     		ldr	r3, .L133
 1720 007a 1B68     		ldr	r3, [r3]
 1721 007c FF22     		movs	r2, #255
 1722 007e 9A74     		strb	r2, [r3, #18]
 770:ControllerTest.c ****         pTxPacket_Relay->Payload.LED_11_R = 0xFF;
 1723              		.loc 1 770 0
 1724 0080 514B     		ldr	r3, .L133
 1725 0082 1B68     		ldr	r3, [r3]
 1726 0084 FF22     		movs	r2, #255
 1727 0086 DA73     		strb	r2, [r3, #15]
 771:ControllerTest.c ****         pTxPacket_Relay->Payload.LED_12_R = 0xFF;
 1728              		.loc 1 771 0
 1729 0088 4F4B     		ldr	r3, .L133
 1730 008a 1B68     		ldr	r3, [r3]
 1731 008c FF22     		movs	r2, #255
 1732 008e 1A73     		strb	r2, [r3, #12]
 772:ControllerTest.c ****         pTxPacket_Relay->Payload.LED_13_R = 0xFF;
 1733              		.loc 1 772 0
 1734 0090 4D4B     		ldr	r3, .L133
 1735 0092 1B68     		ldr	r3, [r3]
 1736 0094 FF22     		movs	r2, #255
 1737 0096 5A72     		strb	r2, [r3, #9]
 773:ControllerTest.c ****         pTxPacket_Relay->Payload.LED_14_R = 0xFF;
 1738              		.loc 1 773 0
 1739 0098 4B4B     		ldr	r3, .L133
 1740 009a 1B68     		ldr	r3, [r3]
 1741 009c FF22     		movs	r2, #255
 1742 009e 9A71     		strb	r2, [r3, #6]
 774:ControllerTest.c ****         pTxPacket_Relay->Payload.LED_15_R = 0xFF;
 1743              		.loc 1 774 0
 1744 00a0 494B     		ldr	r3, .L133
 1745 00a2 1B68     		ldr	r3, [r3]
 1746 00a4 FF22     		movs	r2, #255
 1747 00a6 DA70     		strb	r2, [r3, #3]
 775:ControllerTest.c ****         pTxPacket_Relay->Payload.LED_16_R = 0xFF;
 1748              		.loc 1 775 0
 1749 00a8 474B     		ldr	r3, .L133
 1750 00aa 1B68     		ldr	r3, [r3]
 1751 00ac FF22     		movs	r2, #255
 1752 00ae 1A70     		strb	r2, [r3]
 776:ControllerTest.c ****         
 777:ControllerTest.c ****         pTxPacket_Relay->Payload.LED_01_B = 0x00;
ARM GAS  C:\Users\MARTHN~1\AppData\Local\Temp\ccbPVIdg.s 			page 46


 1753              		.loc 1 777 0
 1754 00b0 454B     		ldr	r3, .L133
 1755 00b2 1B68     		ldr	r3, [r3]
 1756 00b4 0022     		movs	r2, #0
 1757 00b6 83F82F20 		strb	r2, [r3, #47]
 778:ControllerTest.c ****         pTxPacket_Relay->Payload.LED_02_B = 0x00;
 1758              		.loc 1 778 0
 1759 00ba 434B     		ldr	r3, .L133
 1760 00bc 1B68     		ldr	r3, [r3]
 1761 00be 0022     		movs	r2, #0
 1762 00c0 83F82C20 		strb	r2, [r3, #44]
 779:ControllerTest.c ****         pTxPacket_Relay->Payload.LED_03_B = 0x00;
 1763              		.loc 1 779 0
 1764 00c4 404B     		ldr	r3, .L133
 1765 00c6 1B68     		ldr	r3, [r3]
 1766 00c8 0022     		movs	r2, #0
 1767 00ca 83F82920 		strb	r2, [r3, #41]
 780:ControllerTest.c ****         pTxPacket_Relay->Payload.LED_04_B = 0x00;
 1768              		.loc 1 780 0
 1769 00ce 3E4B     		ldr	r3, .L133
 1770 00d0 1B68     		ldr	r3, [r3]
 1771 00d2 0022     		movs	r2, #0
 1772 00d4 83F82620 		strb	r2, [r3, #38]
 781:ControllerTest.c ****         pTxPacket_Relay->Payload.LED_05_B = 0x00;
 1773              		.loc 1 781 0
 1774 00d8 3B4B     		ldr	r3, .L133
 1775 00da 1B68     		ldr	r3, [r3]
 1776 00dc 0022     		movs	r2, #0
 1777 00de 83F82320 		strb	r2, [r3, #35]
 782:ControllerTest.c ****         pTxPacket_Relay->Payload.LED_06_B = 0x00;
 1778              		.loc 1 782 0
 1779 00e2 394B     		ldr	r3, .L133
 1780 00e4 1B68     		ldr	r3, [r3]
 1781 00e6 0022     		movs	r2, #0
 1782 00e8 83F82020 		strb	r2, [r3, #32]
 783:ControllerTest.c ****         pTxPacket_Relay->Payload.LED_07_B = 0x00;
 1783              		.loc 1 783 0
 1784 00ec 364B     		ldr	r3, .L133
 1785 00ee 1B68     		ldr	r3, [r3]
 1786 00f0 0022     		movs	r2, #0
 1787 00f2 5A77     		strb	r2, [r3, #29]
 784:ControllerTest.c ****         pTxPacket_Relay->Payload.LED_08_B = 0x00;
 1788              		.loc 1 784 0
 1789 00f4 344B     		ldr	r3, .L133
 1790 00f6 1B68     		ldr	r3, [r3]
 1791 00f8 0022     		movs	r2, #0
 1792 00fa 9A76     		strb	r2, [r3, #26]
 785:ControllerTest.c ****         pTxPacket_Relay->Payload.LED_09_B = 0x00;
 1793              		.loc 1 785 0
 1794 00fc 324B     		ldr	r3, .L133
 1795 00fe 1B68     		ldr	r3, [r3]
 1796 0100 0022     		movs	r2, #0
 1797 0102 DA75     		strb	r2, [r3, #23]
 786:ControllerTest.c ****         pTxPacket_Relay->Payload.LED_10_B = 0x00;
 1798              		.loc 1 786 0
 1799 0104 304B     		ldr	r3, .L133
 1800 0106 1B68     		ldr	r3, [r3]
ARM GAS  C:\Users\MARTHN~1\AppData\Local\Temp\ccbPVIdg.s 			page 47


 1801 0108 0022     		movs	r2, #0
 1802 010a 1A75     		strb	r2, [r3, #20]
 787:ControllerTest.c ****         pTxPacket_Relay->Payload.LED_11_B = 0x00;
 1803              		.loc 1 787 0
 1804 010c 2E4B     		ldr	r3, .L133
 1805 010e 1B68     		ldr	r3, [r3]
 1806 0110 0022     		movs	r2, #0
 1807 0112 5A74     		strb	r2, [r3, #17]
 788:ControllerTest.c ****         pTxPacket_Relay->Payload.LED_12_B = 0x00;
 1808              		.loc 1 788 0
 1809 0114 2C4B     		ldr	r3, .L133
 1810 0116 1B68     		ldr	r3, [r3]
 1811 0118 0022     		movs	r2, #0
 1812 011a 9A73     		strb	r2, [r3, #14]
 789:ControllerTest.c ****         pTxPacket_Relay->Payload.LED_13_B = 0x00;
 1813              		.loc 1 789 0
 1814 011c 2A4B     		ldr	r3, .L133
 1815 011e 1B68     		ldr	r3, [r3]
 1816 0120 0022     		movs	r2, #0
 1817 0122 DA72     		strb	r2, [r3, #11]
 790:ControllerTest.c ****         pTxPacket_Relay->Payload.LED_14_B = 0x00;
 1818              		.loc 1 790 0
 1819 0124 284B     		ldr	r3, .L133
 1820 0126 1B68     		ldr	r3, [r3]
 1821 0128 0022     		movs	r2, #0
 1822 012a 1A72     		strb	r2, [r3, #8]
 791:ControllerTest.c ****         pTxPacket_Relay->Payload.LED_15_B = 0x00;
 1823              		.loc 1 791 0
 1824 012c 264B     		ldr	r3, .L133
 1825 012e 1B68     		ldr	r3, [r3]
 1826 0130 0022     		movs	r2, #0
 1827 0132 5A71     		strb	r2, [r3, #5]
 792:ControllerTest.c ****         pTxPacket_Relay->Payload.LED_16_B = 0x00;
 1828              		.loc 1 792 0
 1829 0134 244B     		ldr	r3, .L133
 1830 0136 1B68     		ldr	r3, [r3]
 1831 0138 0022     		movs	r2, #0
 1832 013a 9A70     		strb	r2, [r3, #2]
 793:ControllerTest.c ****         
 794:ControllerTest.c ****         pTxPacket_Relay->Payload.LED_01_G = 0x00;
 1833              		.loc 1 794 0
 1834 013c 224B     		ldr	r3, .L133
 1835 013e 1B68     		ldr	r3, [r3]
 1836 0140 0022     		movs	r2, #0
 1837 0142 83F82E20 		strb	r2, [r3, #46]
 795:ControllerTest.c ****         pTxPacket_Relay->Payload.LED_02_G = 0x00;
 1838              		.loc 1 795 0
 1839 0146 204B     		ldr	r3, .L133
 1840 0148 1B68     		ldr	r3, [r3]
 1841 014a 0022     		movs	r2, #0
 1842 014c 83F82B20 		strb	r2, [r3, #43]
 796:ControllerTest.c ****         pTxPacket_Relay->Payload.LED_03_G = 0x00;
 1843              		.loc 1 796 0
 1844 0150 1D4B     		ldr	r3, .L133
 1845 0152 1B68     		ldr	r3, [r3]
 1846 0154 0022     		movs	r2, #0
 1847 0156 83F82820 		strb	r2, [r3, #40]
ARM GAS  C:\Users\MARTHN~1\AppData\Local\Temp\ccbPVIdg.s 			page 48


 797:ControllerTest.c ****         pTxPacket_Relay->Payload.LED_04_G = 0x00;
 1848              		.loc 1 797 0
 1849 015a 1B4B     		ldr	r3, .L133
 1850 015c 1B68     		ldr	r3, [r3]
 1851 015e 0022     		movs	r2, #0
 1852 0160 83F82520 		strb	r2, [r3, #37]
 798:ControllerTest.c ****         pTxPacket_Relay->Payload.LED_05_G = 0x00;
 1853              		.loc 1 798 0
 1854 0164 184B     		ldr	r3, .L133
 1855 0166 1B68     		ldr	r3, [r3]
 1856 0168 0022     		movs	r2, #0
 1857 016a 83F82220 		strb	r2, [r3, #34]
 799:ControllerTest.c ****         pTxPacket_Relay->Payload.LED_06_G = 0x00;
 1858              		.loc 1 799 0
 1859 016e 164B     		ldr	r3, .L133
 1860 0170 1B68     		ldr	r3, [r3]
 1861 0172 0022     		movs	r2, #0
 1862 0174 DA77     		strb	r2, [r3, #31]
 800:ControllerTest.c ****         pTxPacket_Relay->Payload.LED_07_G = 0x00;
 1863              		.loc 1 800 0
 1864 0176 144B     		ldr	r3, .L133
 1865 0178 1B68     		ldr	r3, [r3]
 1866 017a 0022     		movs	r2, #0
 1867 017c 1A77     		strb	r2, [r3, #28]
 801:ControllerTest.c ****         pTxPacket_Relay->Payload.LED_08_G = 0x00;
 1868              		.loc 1 801 0
 1869 017e 124B     		ldr	r3, .L133
 1870 0180 1B68     		ldr	r3, [r3]
 1871 0182 0022     		movs	r2, #0
 1872 0184 5A76     		strb	r2, [r3, #25]
 802:ControllerTest.c ****         pTxPacket_Relay->Payload.LED_09_G = 0x00;
 1873              		.loc 1 802 0
 1874 0186 104B     		ldr	r3, .L133
 1875 0188 1B68     		ldr	r3, [r3]
 1876 018a 0022     		movs	r2, #0
 1877 018c 9A75     		strb	r2, [r3, #22]
 803:ControllerTest.c ****         pTxPacket_Relay->Payload.LED_10_G = 0x00;
 1878              		.loc 1 803 0
 1879 018e 0E4B     		ldr	r3, .L133
 1880 0190 1B68     		ldr	r3, [r3]
 1881 0192 0022     		movs	r2, #0
 1882 0194 DA74     		strb	r2, [r3, #19]
 804:ControllerTest.c ****         pTxPacket_Relay->Payload.LED_11_G = 0x00;
 1883              		.loc 1 804 0
 1884 0196 0C4B     		ldr	r3, .L133
 1885 0198 1B68     		ldr	r3, [r3]
 1886 019a 0022     		movs	r2, #0
 1887 019c 1A74     		strb	r2, [r3, #16]
 805:ControllerTest.c ****         pTxPacket_Relay->Payload.LED_12_G = 0x00;
 1888              		.loc 1 805 0
 1889 019e 0A4B     		ldr	r3, .L133
 1890 01a0 1B68     		ldr	r3, [r3]
 1891 01a2 0022     		movs	r2, #0
 1892 01a4 5A73     		strb	r2, [r3, #13]
 806:ControllerTest.c ****         pTxPacket_Relay->Payload.LED_13_G = 0x00;
 1893              		.loc 1 806 0
 1894 01a6 084B     		ldr	r3, .L133
ARM GAS  C:\Users\MARTHN~1\AppData\Local\Temp\ccbPVIdg.s 			page 49


 1895 01a8 1B68     		ldr	r3, [r3]
 1896 01aa 0022     		movs	r2, #0
 1897 01ac 9A72     		strb	r2, [r3, #10]
 807:ControllerTest.c ****         pTxPacket_Relay->Payload.LED_14_G = 0x00;
 1898              		.loc 1 807 0
 1899 01ae 064B     		ldr	r3, .L133
 1900 01b0 1B68     		ldr	r3, [r3]
 1901 01b2 0022     		movs	r2, #0
 1902 01b4 DA71     		strb	r2, [r3, #7]
 808:ControllerTest.c ****         pTxPacket_Relay->Payload.LED_15_G = 0x00;
 1903              		.loc 1 808 0
 1904 01b6 044B     		ldr	r3, .L133
 1905 01b8 1B68     		ldr	r3, [r3]
 1906 01ba 0022     		movs	r2, #0
 1907 01bc 1A71     		strb	r2, [r3, #4]
 809:ControllerTest.c ****         pTxPacket_Relay->Payload.LED_16_G = 0x00;
 1908              		.loc 1 809 0
 1909 01be 024B     		ldr	r3, .L133
 1910 01c0 1B68     		ldr	r3, [r3]
 1911 01c2 0022     		movs	r2, #0
 1912 01c4 5A70     		strb	r2, [r3, #1]
 810:ControllerTest.c ****     }
 811:ControllerTest.c ****     
 812:ControllerTest.c ****     else if(color == BLUE)
 813:ControllerTest.c ****     {
 814:ControllerTest.c ****         pTxPacket_Relay->Payload.LED_01_R = 0x00;
 815:ControllerTest.c ****         pTxPacket_Relay->Payload.LED_02_R = 0x00;
 816:ControllerTest.c ****         pTxPacket_Relay->Payload.LED_03_R = 0x00;
 817:ControllerTest.c ****         pTxPacket_Relay->Payload.LED_04_R = 0x00;
 818:ControllerTest.c ****         pTxPacket_Relay->Payload.LED_05_R = 0x00;
 819:ControllerTest.c ****         pTxPacket_Relay->Payload.LED_06_R = 0x00;
 820:ControllerTest.c ****         pTxPacket_Relay->Payload.LED_07_R = 0x00;
 821:ControllerTest.c ****         pTxPacket_Relay->Payload.LED_08_R = 0x00;
 822:ControllerTest.c ****         pTxPacket_Relay->Payload.LED_09_R = 0x00;
 823:ControllerTest.c ****         pTxPacket_Relay->Payload.LED_10_R = 0x00;
 824:ControllerTest.c ****         pTxPacket_Relay->Payload.LED_11_R = 0x00;
 825:ControllerTest.c ****         pTxPacket_Relay->Payload.LED_12_R = 0x00;
 826:ControllerTest.c ****         pTxPacket_Relay->Payload.LED_13_R = 0x00;
 827:ControllerTest.c ****         pTxPacket_Relay->Payload.LED_14_R = 0x00;
 828:ControllerTest.c ****         pTxPacket_Relay->Payload.LED_15_R = 0x00;
 829:ControllerTest.c ****         pTxPacket_Relay->Payload.LED_16_R = 0x00;
 830:ControllerTest.c ****         
 831:ControllerTest.c ****         pTxPacket_Relay->Payload.LED_01_B = 0xFF;
 832:ControllerTest.c ****         pTxPacket_Relay->Payload.LED_02_B = 0xFF;
 833:ControllerTest.c ****         pTxPacket_Relay->Payload.LED_03_B = 0xFF;
 834:ControllerTest.c ****         pTxPacket_Relay->Payload.LED_04_B = 0xFF;
 835:ControllerTest.c ****         pTxPacket_Relay->Payload.LED_05_B = 0xFF;
 836:ControllerTest.c ****         pTxPacket_Relay->Payload.LED_06_B = 0xFF;
 837:ControllerTest.c ****         pTxPacket_Relay->Payload.LED_07_B = 0xFF;
 838:ControllerTest.c ****         pTxPacket_Relay->Payload.LED_08_B = 0xFF;
 839:ControllerTest.c ****         pTxPacket_Relay->Payload.LED_09_B = 0xFF;
 840:ControllerTest.c ****         pTxPacket_Relay->Payload.LED_10_B = 0xFF;
 841:ControllerTest.c ****         pTxPacket_Relay->Payload.LED_11_B = 0xFF;
 842:ControllerTest.c ****         pTxPacket_Relay->Payload.LED_12_B = 0xFF;
 843:ControllerTest.c ****         pTxPacket_Relay->Payload.LED_13_B = 0xFF;
 844:ControllerTest.c ****         pTxPacket_Relay->Payload.LED_14_B = 0xFF;
 845:ControllerTest.c ****         pTxPacket_Relay->Payload.LED_15_B = 0xFF;
ARM GAS  C:\Users\MARTHN~1\AppData\Local\Temp\ccbPVIdg.s 			page 50


 846:ControllerTest.c ****         pTxPacket_Relay->Payload.LED_16_B = 0xFF;
 847:ControllerTest.c ****         
 848:ControllerTest.c ****         pTxPacket_Relay->Payload.LED_01_G = 0x00;
 849:ControllerTest.c ****         pTxPacket_Relay->Payload.LED_02_G = 0x00;
 850:ControllerTest.c ****         pTxPacket_Relay->Payload.LED_03_G = 0x00;
 851:ControllerTest.c ****         pTxPacket_Relay->Payload.LED_04_G = 0x00;
 852:ControllerTest.c ****         pTxPacket_Relay->Payload.LED_05_G = 0x00;
 853:ControllerTest.c ****         pTxPacket_Relay->Payload.LED_06_G = 0x00;
 854:ControllerTest.c ****         pTxPacket_Relay->Payload.LED_07_G = 0x00;
 855:ControllerTest.c ****         pTxPacket_Relay->Payload.LED_08_G = 0x00;
 856:ControllerTest.c ****         pTxPacket_Relay->Payload.LED_09_G = 0x00;
 857:ControllerTest.c ****         pTxPacket_Relay->Payload.LED_10_G = 0x00;
 858:ControllerTest.c ****         pTxPacket_Relay->Payload.LED_11_G = 0x00;
 859:ControllerTest.c ****         pTxPacket_Relay->Payload.LED_12_G = 0x00;
 860:ControllerTest.c ****         pTxPacket_Relay->Payload.LED_13_G = 0x00;
 861:ControllerTest.c ****         pTxPacket_Relay->Payload.LED_14_G = 0x00;
 862:ControllerTest.c ****         pTxPacket_Relay->Payload.LED_15_G = 0x00;
 863:ControllerTest.c ****         pTxPacket_Relay->Payload.LED_16_G = 0x00;
 864:ControllerTest.c ****     }
 865:ControllerTest.c ****     
 866:ControllerTest.c ****     else if(color == GREEN)
 867:ControllerTest.c ****     {
 868:ControllerTest.c ****         pTxPacket_Relay->Payload.LED_01_R = 0x00;
 869:ControllerTest.c ****         pTxPacket_Relay->Payload.LED_02_R = 0x00;
 870:ControllerTest.c ****         pTxPacket_Relay->Payload.LED_03_R = 0x00;
 871:ControllerTest.c ****         pTxPacket_Relay->Payload.LED_04_R = 0x00;
 872:ControllerTest.c ****         pTxPacket_Relay->Payload.LED_05_R = 0x00;
 873:ControllerTest.c ****         pTxPacket_Relay->Payload.LED_06_R = 0x00;
 874:ControllerTest.c ****         pTxPacket_Relay->Payload.LED_07_R = 0x00;
 875:ControllerTest.c ****         pTxPacket_Relay->Payload.LED_08_R = 0x00;
 876:ControllerTest.c ****         pTxPacket_Relay->Payload.LED_09_R = 0x00;
 877:ControllerTest.c ****         pTxPacket_Relay->Payload.LED_10_R = 0x00;
 878:ControllerTest.c ****         pTxPacket_Relay->Payload.LED_11_R = 0x00;
 879:ControllerTest.c ****         pTxPacket_Relay->Payload.LED_12_R = 0x00;
 880:ControllerTest.c ****         pTxPacket_Relay->Payload.LED_13_R = 0x00;
 881:ControllerTest.c ****         pTxPacket_Relay->Payload.LED_14_R = 0x00;
 882:ControllerTest.c ****         pTxPacket_Relay->Payload.LED_15_R = 0x00;
 883:ControllerTest.c ****         pTxPacket_Relay->Payload.LED_16_R = 0x00;
 884:ControllerTest.c ****         
 885:ControllerTest.c ****         pTxPacket_Relay->Payload.LED_01_B = 0x00;
 886:ControllerTest.c ****         pTxPacket_Relay->Payload.LED_02_B = 0x00;
 887:ControllerTest.c ****         pTxPacket_Relay->Payload.LED_03_B = 0x00;
 888:ControllerTest.c ****         pTxPacket_Relay->Payload.LED_04_B = 0x00;
 889:ControllerTest.c ****         pTxPacket_Relay->Payload.LED_05_B = 0x00;
 890:ControllerTest.c ****         pTxPacket_Relay->Payload.LED_06_B = 0x00;
 891:ControllerTest.c ****         pTxPacket_Relay->Payload.LED_07_B = 0x00;
 892:ControllerTest.c ****         pTxPacket_Relay->Payload.LED_08_B = 0x00;
 893:ControllerTest.c ****         pTxPacket_Relay->Payload.LED_09_B = 0x00;
 894:ControllerTest.c ****         pTxPacket_Relay->Payload.LED_10_B = 0x00;
 895:ControllerTest.c ****         pTxPacket_Relay->Payload.LED_11_B = 0x00;
 896:ControllerTest.c ****         pTxPacket_Relay->Payload.LED_12_B = 0x00;
 897:ControllerTest.c ****         pTxPacket_Relay->Payload.LED_13_B = 0x00;
 898:ControllerTest.c ****         pTxPacket_Relay->Payload.LED_14_B = 0x00;
 899:ControllerTest.c ****         pTxPacket_Relay->Payload.LED_15_B = 0x00;
 900:ControllerTest.c ****         pTxPacket_Relay->Payload.LED_16_B = 0x00;
 901:ControllerTest.c ****         
 902:ControllerTest.c ****         pTxPacket_Relay->Payload.LED_01_G = 0xFF;
ARM GAS  C:\Users\MARTHN~1\AppData\Local\Temp\ccbPVIdg.s 			page 51


 903:ControllerTest.c ****         pTxPacket_Relay->Payload.LED_02_G = 0xFF;
 904:ControllerTest.c ****         pTxPacket_Relay->Payload.LED_03_G = 0xFF;
 905:ControllerTest.c ****         pTxPacket_Relay->Payload.LED_04_G = 0xFF;
 906:ControllerTest.c ****         pTxPacket_Relay->Payload.LED_05_G = 0xFF;
 907:ControllerTest.c ****         pTxPacket_Relay->Payload.LED_06_G = 0xFF;
 908:ControllerTest.c ****         pTxPacket_Relay->Payload.LED_07_G = 0xFF;
 909:ControllerTest.c ****         pTxPacket_Relay->Payload.LED_08_G = 0xFF;
 910:ControllerTest.c ****         pTxPacket_Relay->Payload.LED_09_G = 0xFF;
 911:ControllerTest.c ****         pTxPacket_Relay->Payload.LED_10_G = 0xFF;
 912:ControllerTest.c ****         pTxPacket_Relay->Payload.LED_11_G = 0xFF;
 913:ControllerTest.c ****         pTxPacket_Relay->Payload.LED_12_G = 0xFF;
 914:ControllerTest.c ****         pTxPacket_Relay->Payload.LED_13_G = 0xFF;
 915:ControllerTest.c ****         pTxPacket_Relay->Payload.LED_14_G = 0xFF;
 916:ControllerTest.c ****         pTxPacket_Relay->Payload.LED_15_G = 0xFF;
 917:ControllerTest.c ****         pTxPacket_Relay->Payload.LED_16_G = 0xFF;
 918:ControllerTest.c ****     }
 919:ControllerTest.c ****     
 920:ControllerTest.c ****     else
 921:ControllerTest.c ****     {
 922:ControllerTest.c ****         pTxPacket_Relay->Payload.LED_01_R = 0x00;
 923:ControllerTest.c ****         pTxPacket_Relay->Payload.LED_02_R = 0x00;
 924:ControllerTest.c ****         pTxPacket_Relay->Payload.LED_03_R = 0x00;
 925:ControllerTest.c ****         pTxPacket_Relay->Payload.LED_04_R = 0x00;
 926:ControllerTest.c ****         pTxPacket_Relay->Payload.LED_05_R = 0x00;
 927:ControllerTest.c ****         pTxPacket_Relay->Payload.LED_06_R = 0x00;
 928:ControllerTest.c ****         pTxPacket_Relay->Payload.LED_07_R = 0x00;
 929:ControllerTest.c ****         pTxPacket_Relay->Payload.LED_08_R = 0x00;
 930:ControllerTest.c ****         pTxPacket_Relay->Payload.LED_09_R = 0x00;
 931:ControllerTest.c ****         pTxPacket_Relay->Payload.LED_10_R = 0x00;
 932:ControllerTest.c ****         pTxPacket_Relay->Payload.LED_11_R = 0x00;
 933:ControllerTest.c ****         pTxPacket_Relay->Payload.LED_12_R = 0x00;
 934:ControllerTest.c ****         pTxPacket_Relay->Payload.LED_13_R = 0x00;
 935:ControllerTest.c ****         pTxPacket_Relay->Payload.LED_14_R = 0x00;
 936:ControllerTest.c ****         pTxPacket_Relay->Payload.LED_15_R = 0x00;
 937:ControllerTest.c ****         pTxPacket_Relay->Payload.LED_16_R = 0x00;
 938:ControllerTest.c ****         
 939:ControllerTest.c ****         pTxPacket_Relay->Payload.LED_01_B = 0x00;
 940:ControllerTest.c ****         pTxPacket_Relay->Payload.LED_02_B = 0x00;
 941:ControllerTest.c ****         pTxPacket_Relay->Payload.LED_03_B = 0x00;
 942:ControllerTest.c ****         pTxPacket_Relay->Payload.LED_04_B = 0x00;
 943:ControllerTest.c ****         pTxPacket_Relay->Payload.LED_05_B = 0x00;
 944:ControllerTest.c ****         pTxPacket_Relay->Payload.LED_06_B = 0x00;
 945:ControllerTest.c ****         pTxPacket_Relay->Payload.LED_07_B = 0x00;
 946:ControllerTest.c ****         pTxPacket_Relay->Payload.LED_08_B = 0x00;
 947:ControllerTest.c ****         pTxPacket_Relay->Payload.LED_09_B = 0x00;
 948:ControllerTest.c ****         pTxPacket_Relay->Payload.LED_10_B = 0x00;
 949:ControllerTest.c ****         pTxPacket_Relay->Payload.LED_11_B = 0x00;
 950:ControllerTest.c ****         pTxPacket_Relay->Payload.LED_12_B = 0x00;
 951:ControllerTest.c ****         pTxPacket_Relay->Payload.LED_13_B = 0x00;
 952:ControllerTest.c ****         pTxPacket_Relay->Payload.LED_14_B = 0x00;
 953:ControllerTest.c ****         pTxPacket_Relay->Payload.LED_15_B = 0x00;
 954:ControllerTest.c ****         pTxPacket_Relay->Payload.LED_16_B = 0x00;
 955:ControllerTest.c ****         
 956:ControllerTest.c ****         pTxPacket_Relay->Payload.LED_01_G = 0x00;
 957:ControllerTest.c ****         pTxPacket_Relay->Payload.LED_02_G = 0x00;
 958:ControllerTest.c ****         pTxPacket_Relay->Payload.LED_03_G = 0x00;
 959:ControllerTest.c ****         pTxPacket_Relay->Payload.LED_04_G = 0x00;
ARM GAS  C:\Users\MARTHN~1\AppData\Local\Temp\ccbPVIdg.s 			page 52


 960:ControllerTest.c ****         pTxPacket_Relay->Payload.LED_05_G = 0x00;
 961:ControllerTest.c ****         pTxPacket_Relay->Payload.LED_06_G = 0x00;
 962:ControllerTest.c ****         pTxPacket_Relay->Payload.LED_07_G = 0x00;
 963:ControllerTest.c ****         pTxPacket_Relay->Payload.LED_08_G = 0x00;
 964:ControllerTest.c ****         pTxPacket_Relay->Payload.LED_09_G = 0x00;
 965:ControllerTest.c ****         pTxPacket_Relay->Payload.LED_10_G = 0x00;
 966:ControllerTest.c ****         pTxPacket_Relay->Payload.LED_11_G = 0x00;
 967:ControllerTest.c ****         pTxPacket_Relay->Payload.LED_12_G = 0x00;
 968:ControllerTest.c ****         pTxPacket_Relay->Payload.LED_13_G = 0x00;
 969:ControllerTest.c ****         pTxPacket_Relay->Payload.LED_14_G = 0x00;
 970:ControllerTest.c ****         pTxPacket_Relay->Payload.LED_15_G = 0x00;
 971:ControllerTest.c ****         pTxPacket_Relay->Payload.LED_16_G = 0x00;
 972:ControllerTest.c ****     }
 973:ControllerTest.c ****     
 974:ControllerTest.c ****     return;
 1913              		.loc 1 974 0
 1914 01c6 84E2     		b	.L127
 1915              	.L134:
 1916              		.align	2
 1917              	.L133:
 1918 01c8 B8000000 		.word	pTxPacket_Relay
 1919 01cc 50000000 		.word	pRxPacket_Controller
 1920              	.L128:
 812:ControllerTest.c ****     {
 1921              		.loc 1 812 0
 1922 01d0 FB79     		ldrb	r3, [r7, #7]	@ zero_extendqisi2
 1923 01d2 012B     		cmp	r3, #1
 1924 01d4 40F0D480 		bne	.L130
 814:ControllerTest.c ****         pTxPacket_Relay->Payload.LED_02_R = 0x00;
 1925              		.loc 1 814 0
 1926 01d8 684B     		ldr	r3, .L135
 1927 01da 1B68     		ldr	r3, [r3]
 1928 01dc 0022     		movs	r2, #0
 1929 01de 83F82D20 		strb	r2, [r3, #45]
 815:ControllerTest.c ****         pTxPacket_Relay->Payload.LED_03_R = 0x00;
 1930              		.loc 1 815 0
 1931 01e2 664B     		ldr	r3, .L135
 1932 01e4 1B68     		ldr	r3, [r3]
 1933 01e6 0022     		movs	r2, #0
 1934 01e8 83F82A20 		strb	r2, [r3, #42]
 816:ControllerTest.c ****         pTxPacket_Relay->Payload.LED_04_R = 0x00;
 1935              		.loc 1 816 0
 1936 01ec 634B     		ldr	r3, .L135
 1937 01ee 1B68     		ldr	r3, [r3]
 1938 01f0 0022     		movs	r2, #0
 1939 01f2 83F82720 		strb	r2, [r3, #39]
 817:ControllerTest.c ****         pTxPacket_Relay->Payload.LED_05_R = 0x00;
 1940              		.loc 1 817 0
 1941 01f6 614B     		ldr	r3, .L135
 1942 01f8 1B68     		ldr	r3, [r3]
 1943 01fa 0022     		movs	r2, #0
 1944 01fc 83F82420 		strb	r2, [r3, #36]
 818:ControllerTest.c ****         pTxPacket_Relay->Payload.LED_06_R = 0x00;
 1945              		.loc 1 818 0
 1946 0200 5E4B     		ldr	r3, .L135
 1947 0202 1B68     		ldr	r3, [r3]
 1948 0204 0022     		movs	r2, #0
ARM GAS  C:\Users\MARTHN~1\AppData\Local\Temp\ccbPVIdg.s 			page 53


 1949 0206 83F82120 		strb	r2, [r3, #33]
 819:ControllerTest.c ****         pTxPacket_Relay->Payload.LED_07_R = 0x00;
 1950              		.loc 1 819 0
 1951 020a 5C4B     		ldr	r3, .L135
 1952 020c 1B68     		ldr	r3, [r3]
 1953 020e 0022     		movs	r2, #0
 1954 0210 9A77     		strb	r2, [r3, #30]
 820:ControllerTest.c ****         pTxPacket_Relay->Payload.LED_08_R = 0x00;
 1955              		.loc 1 820 0
 1956 0212 5A4B     		ldr	r3, .L135
 1957 0214 1B68     		ldr	r3, [r3]
 1958 0216 0022     		movs	r2, #0
 1959 0218 DA76     		strb	r2, [r3, #27]
 821:ControllerTest.c ****         pTxPacket_Relay->Payload.LED_09_R = 0x00;
 1960              		.loc 1 821 0
 1961 021a 584B     		ldr	r3, .L135
 1962 021c 1B68     		ldr	r3, [r3]
 1963 021e 0022     		movs	r2, #0
 1964 0220 1A76     		strb	r2, [r3, #24]
 822:ControllerTest.c ****         pTxPacket_Relay->Payload.LED_10_R = 0x00;
 1965              		.loc 1 822 0
 1966 0222 564B     		ldr	r3, .L135
 1967 0224 1B68     		ldr	r3, [r3]
 1968 0226 0022     		movs	r2, #0
 1969 0228 5A75     		strb	r2, [r3, #21]
 823:ControllerTest.c ****         pTxPacket_Relay->Payload.LED_11_R = 0x00;
 1970              		.loc 1 823 0
 1971 022a 544B     		ldr	r3, .L135
 1972 022c 1B68     		ldr	r3, [r3]
 1973 022e 0022     		movs	r2, #0
 1974 0230 9A74     		strb	r2, [r3, #18]
 824:ControllerTest.c ****         pTxPacket_Relay->Payload.LED_12_R = 0x00;
 1975              		.loc 1 824 0
 1976 0232 524B     		ldr	r3, .L135
 1977 0234 1B68     		ldr	r3, [r3]
 1978 0236 0022     		movs	r2, #0
 1979 0238 DA73     		strb	r2, [r3, #15]
 825:ControllerTest.c ****         pTxPacket_Relay->Payload.LED_13_R = 0x00;
 1980              		.loc 1 825 0
 1981 023a 504B     		ldr	r3, .L135
 1982 023c 1B68     		ldr	r3, [r3]
 1983 023e 0022     		movs	r2, #0
 1984 0240 1A73     		strb	r2, [r3, #12]
 826:ControllerTest.c ****         pTxPacket_Relay->Payload.LED_14_R = 0x00;
 1985              		.loc 1 826 0
 1986 0242 4E4B     		ldr	r3, .L135
 1987 0244 1B68     		ldr	r3, [r3]
 1988 0246 0022     		movs	r2, #0
 1989 0248 5A72     		strb	r2, [r3, #9]
 827:ControllerTest.c ****         pTxPacket_Relay->Payload.LED_15_R = 0x00;
 1990              		.loc 1 827 0
 1991 024a 4C4B     		ldr	r3, .L135
 1992 024c 1B68     		ldr	r3, [r3]
 1993 024e 0022     		movs	r2, #0
 1994 0250 9A71     		strb	r2, [r3, #6]
 828:ControllerTest.c ****         pTxPacket_Relay->Payload.LED_16_R = 0x00;
 1995              		.loc 1 828 0
ARM GAS  C:\Users\MARTHN~1\AppData\Local\Temp\ccbPVIdg.s 			page 54


 1996 0252 4A4B     		ldr	r3, .L135
 1997 0254 1B68     		ldr	r3, [r3]
 1998 0256 0022     		movs	r2, #0
 1999 0258 DA70     		strb	r2, [r3, #3]
 829:ControllerTest.c ****         
 2000              		.loc 1 829 0
 2001 025a 484B     		ldr	r3, .L135
 2002 025c 1B68     		ldr	r3, [r3]
 2003 025e 0022     		movs	r2, #0
 2004 0260 1A70     		strb	r2, [r3]
 831:ControllerTest.c ****         pTxPacket_Relay->Payload.LED_02_B = 0xFF;
 2005              		.loc 1 831 0
 2006 0262 464B     		ldr	r3, .L135
 2007 0264 1B68     		ldr	r3, [r3]
 2008 0266 FF22     		movs	r2, #255
 2009 0268 83F82F20 		strb	r2, [r3, #47]
 832:ControllerTest.c ****         pTxPacket_Relay->Payload.LED_03_B = 0xFF;
 2010              		.loc 1 832 0
 2011 026c 434B     		ldr	r3, .L135
 2012 026e 1B68     		ldr	r3, [r3]
 2013 0270 FF22     		movs	r2, #255
 2014 0272 83F82C20 		strb	r2, [r3, #44]
 833:ControllerTest.c ****         pTxPacket_Relay->Payload.LED_04_B = 0xFF;
 2015              		.loc 1 833 0
 2016 0276 414B     		ldr	r3, .L135
 2017 0278 1B68     		ldr	r3, [r3]
 2018 027a FF22     		movs	r2, #255
 2019 027c 83F82920 		strb	r2, [r3, #41]
 834:ControllerTest.c ****         pTxPacket_Relay->Payload.LED_05_B = 0xFF;
 2020              		.loc 1 834 0
 2021 0280 3E4B     		ldr	r3, .L135
 2022 0282 1B68     		ldr	r3, [r3]
 2023 0284 FF22     		movs	r2, #255
 2024 0286 83F82620 		strb	r2, [r3, #38]
 835:ControllerTest.c ****         pTxPacket_Relay->Payload.LED_06_B = 0xFF;
 2025              		.loc 1 835 0
 2026 028a 3C4B     		ldr	r3, .L135
 2027 028c 1B68     		ldr	r3, [r3]
 2028 028e FF22     		movs	r2, #255
 2029 0290 83F82320 		strb	r2, [r3, #35]
 836:ControllerTest.c ****         pTxPacket_Relay->Payload.LED_07_B = 0xFF;
 2030              		.loc 1 836 0
 2031 0294 394B     		ldr	r3, .L135
 2032 0296 1B68     		ldr	r3, [r3]
 2033 0298 FF22     		movs	r2, #255
 2034 029a 83F82020 		strb	r2, [r3, #32]
 837:ControllerTest.c ****         pTxPacket_Relay->Payload.LED_08_B = 0xFF;
 2035              		.loc 1 837 0
 2036 029e 374B     		ldr	r3, .L135
 2037 02a0 1B68     		ldr	r3, [r3]
 2038 02a2 FF22     		movs	r2, #255
 2039 02a4 5A77     		strb	r2, [r3, #29]
 838:ControllerTest.c ****         pTxPacket_Relay->Payload.LED_09_B = 0xFF;
 2040              		.loc 1 838 0
 2041 02a6 354B     		ldr	r3, .L135
 2042 02a8 1B68     		ldr	r3, [r3]
 2043 02aa FF22     		movs	r2, #255
ARM GAS  C:\Users\MARTHN~1\AppData\Local\Temp\ccbPVIdg.s 			page 55


 2044 02ac 9A76     		strb	r2, [r3, #26]
 839:ControllerTest.c ****         pTxPacket_Relay->Payload.LED_10_B = 0xFF;
 2045              		.loc 1 839 0
 2046 02ae 334B     		ldr	r3, .L135
 2047 02b0 1B68     		ldr	r3, [r3]
 2048 02b2 FF22     		movs	r2, #255
 2049 02b4 DA75     		strb	r2, [r3, #23]
 840:ControllerTest.c ****         pTxPacket_Relay->Payload.LED_11_B = 0xFF;
 2050              		.loc 1 840 0
 2051 02b6 314B     		ldr	r3, .L135
 2052 02b8 1B68     		ldr	r3, [r3]
 2053 02ba FF22     		movs	r2, #255
 2054 02bc 1A75     		strb	r2, [r3, #20]
 841:ControllerTest.c ****         pTxPacket_Relay->Payload.LED_12_B = 0xFF;
 2055              		.loc 1 841 0
 2056 02be 2F4B     		ldr	r3, .L135
 2057 02c0 1B68     		ldr	r3, [r3]
 2058 02c2 FF22     		movs	r2, #255
 2059 02c4 5A74     		strb	r2, [r3, #17]
 842:ControllerTest.c ****         pTxPacket_Relay->Payload.LED_13_B = 0xFF;
 2060              		.loc 1 842 0
 2061 02c6 2D4B     		ldr	r3, .L135
 2062 02c8 1B68     		ldr	r3, [r3]
 2063 02ca FF22     		movs	r2, #255
 2064 02cc 9A73     		strb	r2, [r3, #14]
 843:ControllerTest.c ****         pTxPacket_Relay->Payload.LED_14_B = 0xFF;
 2065              		.loc 1 843 0
 2066 02ce 2B4B     		ldr	r3, .L135
 2067 02d0 1B68     		ldr	r3, [r3]
 2068 02d2 FF22     		movs	r2, #255
 2069 02d4 DA72     		strb	r2, [r3, #11]
 844:ControllerTest.c ****         pTxPacket_Relay->Payload.LED_15_B = 0xFF;
 2070              		.loc 1 844 0
 2071 02d6 294B     		ldr	r3, .L135
 2072 02d8 1B68     		ldr	r3, [r3]
 2073 02da FF22     		movs	r2, #255
 2074 02dc 1A72     		strb	r2, [r3, #8]
 845:ControllerTest.c ****         pTxPacket_Relay->Payload.LED_16_B = 0xFF;
 2075              		.loc 1 845 0
 2076 02de 274B     		ldr	r3, .L135
 2077 02e0 1B68     		ldr	r3, [r3]
 2078 02e2 FF22     		movs	r2, #255
 2079 02e4 5A71     		strb	r2, [r3, #5]
 846:ControllerTest.c ****         
 2080              		.loc 1 846 0
 2081 02e6 254B     		ldr	r3, .L135
 2082 02e8 1B68     		ldr	r3, [r3]
 2083 02ea FF22     		movs	r2, #255
 2084 02ec 9A70     		strb	r2, [r3, #2]
 848:ControllerTest.c ****         pTxPacket_Relay->Payload.LED_02_G = 0x00;
 2085              		.loc 1 848 0
 2086 02ee 234B     		ldr	r3, .L135
 2087 02f0 1B68     		ldr	r3, [r3]
 2088 02f2 0022     		movs	r2, #0
 2089 02f4 83F82E20 		strb	r2, [r3, #46]
 849:ControllerTest.c ****         pTxPacket_Relay->Payload.LED_03_G = 0x00;
 2090              		.loc 1 849 0
ARM GAS  C:\Users\MARTHN~1\AppData\Local\Temp\ccbPVIdg.s 			page 56


 2091 02f8 204B     		ldr	r3, .L135
 2092 02fa 1B68     		ldr	r3, [r3]
 2093 02fc 0022     		movs	r2, #0
 2094 02fe 83F82B20 		strb	r2, [r3, #43]
 850:ControllerTest.c ****         pTxPacket_Relay->Payload.LED_04_G = 0x00;
 2095              		.loc 1 850 0
 2096 0302 1E4B     		ldr	r3, .L135
 2097 0304 1B68     		ldr	r3, [r3]
 2098 0306 0022     		movs	r2, #0
 2099 0308 83F82820 		strb	r2, [r3, #40]
 851:ControllerTest.c ****         pTxPacket_Relay->Payload.LED_05_G = 0x00;
 2100              		.loc 1 851 0
 2101 030c 1B4B     		ldr	r3, .L135
 2102 030e 1B68     		ldr	r3, [r3]
 2103 0310 0022     		movs	r2, #0
 2104 0312 83F82520 		strb	r2, [r3, #37]
 852:ControllerTest.c ****         pTxPacket_Relay->Payload.LED_06_G = 0x00;
 2105              		.loc 1 852 0
 2106 0316 194B     		ldr	r3, .L135
 2107 0318 1B68     		ldr	r3, [r3]
 2108 031a 0022     		movs	r2, #0
 2109 031c 83F82220 		strb	r2, [r3, #34]
 853:ControllerTest.c ****         pTxPacket_Relay->Payload.LED_07_G = 0x00;
 2110              		.loc 1 853 0
 2111 0320 164B     		ldr	r3, .L135
 2112 0322 1B68     		ldr	r3, [r3]
 2113 0324 0022     		movs	r2, #0
 2114 0326 DA77     		strb	r2, [r3, #31]
 854:ControllerTest.c ****         pTxPacket_Relay->Payload.LED_08_G = 0x00;
 2115              		.loc 1 854 0
 2116 0328 144B     		ldr	r3, .L135
 2117 032a 1B68     		ldr	r3, [r3]
 2118 032c 0022     		movs	r2, #0
 2119 032e 1A77     		strb	r2, [r3, #28]
 855:ControllerTest.c ****         pTxPacket_Relay->Payload.LED_09_G = 0x00;
 2120              		.loc 1 855 0
 2121 0330 124B     		ldr	r3, .L135
 2122 0332 1B68     		ldr	r3, [r3]
 2123 0334 0022     		movs	r2, #0
 2124 0336 5A76     		strb	r2, [r3, #25]
 856:ControllerTest.c ****         pTxPacket_Relay->Payload.LED_10_G = 0x00;
 2125              		.loc 1 856 0
 2126 0338 104B     		ldr	r3, .L135
 2127 033a 1B68     		ldr	r3, [r3]
 2128 033c 0022     		movs	r2, #0
 2129 033e 9A75     		strb	r2, [r3, #22]
 857:ControllerTest.c ****         pTxPacket_Relay->Payload.LED_11_G = 0x00;
 2130              		.loc 1 857 0
 2131 0340 0E4B     		ldr	r3, .L135
 2132 0342 1B68     		ldr	r3, [r3]
 2133 0344 0022     		movs	r2, #0
 2134 0346 DA74     		strb	r2, [r3, #19]
 858:ControllerTest.c ****         pTxPacket_Relay->Payload.LED_12_G = 0x00;
 2135              		.loc 1 858 0
 2136 0348 0C4B     		ldr	r3, .L135
 2137 034a 1B68     		ldr	r3, [r3]
 2138 034c 0022     		movs	r2, #0
ARM GAS  C:\Users\MARTHN~1\AppData\Local\Temp\ccbPVIdg.s 			page 57


 2139 034e 1A74     		strb	r2, [r3, #16]
 859:ControllerTest.c ****         pTxPacket_Relay->Payload.LED_13_G = 0x00;
 2140              		.loc 1 859 0
 2141 0350 0A4B     		ldr	r3, .L135
 2142 0352 1B68     		ldr	r3, [r3]
 2143 0354 0022     		movs	r2, #0
 2144 0356 5A73     		strb	r2, [r3, #13]
 860:ControllerTest.c ****         pTxPacket_Relay->Payload.LED_14_G = 0x00;
 2145              		.loc 1 860 0
 2146 0358 084B     		ldr	r3, .L135
 2147 035a 1B68     		ldr	r3, [r3]
 2148 035c 0022     		movs	r2, #0
 2149 035e 9A72     		strb	r2, [r3, #10]
 861:ControllerTest.c ****         pTxPacket_Relay->Payload.LED_15_G = 0x00;
 2150              		.loc 1 861 0
 2151 0360 064B     		ldr	r3, .L135
 2152 0362 1B68     		ldr	r3, [r3]
 2153 0364 0022     		movs	r2, #0
 2154 0366 DA71     		strb	r2, [r3, #7]
 862:ControllerTest.c ****         pTxPacket_Relay->Payload.LED_16_G = 0x00;
 2155              		.loc 1 862 0
 2156 0368 044B     		ldr	r3, .L135
 2157 036a 1B68     		ldr	r3, [r3]
 2158 036c 0022     		movs	r2, #0
 2159 036e 1A71     		strb	r2, [r3, #4]
 863:ControllerTest.c ****     }
 2160              		.loc 1 863 0
 2161 0370 024B     		ldr	r3, .L135
 2162 0372 1B68     		ldr	r3, [r3]
 2163 0374 0022     		movs	r2, #0
 2164 0376 5A70     		strb	r2, [r3, #1]
 2165              		.loc 1 974 0
 2166 0378 ABE1     		b	.L127
 2167              	.L136:
 2168 037a 00BF     		.align	2
 2169              	.L135:
 2170 037c B8000000 		.word	pTxPacket_Relay
 2171              	.L130:
 866:ControllerTest.c ****     {
 2172              		.loc 1 866 0
 2173 0380 FB79     		ldrb	r3, [r7, #7]	@ zero_extendqisi2
 2174 0382 022B     		cmp	r3, #2
 2175 0384 40F0D480 		bne	.L131
 868:ControllerTest.c ****         pTxPacket_Relay->Payload.LED_02_R = 0x00;
 2176              		.loc 1 868 0
 2177 0388 684B     		ldr	r3, .L137
 2178 038a 1B68     		ldr	r3, [r3]
 2179 038c 0022     		movs	r2, #0
 2180 038e 83F82D20 		strb	r2, [r3, #45]
 869:ControllerTest.c ****         pTxPacket_Relay->Payload.LED_03_R = 0x00;
 2181              		.loc 1 869 0
 2182 0392 664B     		ldr	r3, .L137
 2183 0394 1B68     		ldr	r3, [r3]
 2184 0396 0022     		movs	r2, #0
 2185 0398 83F82A20 		strb	r2, [r3, #42]
 870:ControllerTest.c ****         pTxPacket_Relay->Payload.LED_04_R = 0x00;
 2186              		.loc 1 870 0
ARM GAS  C:\Users\MARTHN~1\AppData\Local\Temp\ccbPVIdg.s 			page 58


 2187 039c 634B     		ldr	r3, .L137
 2188 039e 1B68     		ldr	r3, [r3]
 2189 03a0 0022     		movs	r2, #0
 2190 03a2 83F82720 		strb	r2, [r3, #39]
 871:ControllerTest.c ****         pTxPacket_Relay->Payload.LED_05_R = 0x00;
 2191              		.loc 1 871 0
 2192 03a6 614B     		ldr	r3, .L137
 2193 03a8 1B68     		ldr	r3, [r3]
 2194 03aa 0022     		movs	r2, #0
 2195 03ac 83F82420 		strb	r2, [r3, #36]
 872:ControllerTest.c ****         pTxPacket_Relay->Payload.LED_06_R = 0x00;
 2196              		.loc 1 872 0
 2197 03b0 5E4B     		ldr	r3, .L137
 2198 03b2 1B68     		ldr	r3, [r3]
 2199 03b4 0022     		movs	r2, #0
 2200 03b6 83F82120 		strb	r2, [r3, #33]
 873:ControllerTest.c ****         pTxPacket_Relay->Payload.LED_07_R = 0x00;
 2201              		.loc 1 873 0
 2202 03ba 5C4B     		ldr	r3, .L137
 2203 03bc 1B68     		ldr	r3, [r3]
 2204 03be 0022     		movs	r2, #0
 2205 03c0 9A77     		strb	r2, [r3, #30]
 874:ControllerTest.c ****         pTxPacket_Relay->Payload.LED_08_R = 0x00;
 2206              		.loc 1 874 0
 2207 03c2 5A4B     		ldr	r3, .L137
 2208 03c4 1B68     		ldr	r3, [r3]
 2209 03c6 0022     		movs	r2, #0
 2210 03c8 DA76     		strb	r2, [r3, #27]
 875:ControllerTest.c ****         pTxPacket_Relay->Payload.LED_09_R = 0x00;
 2211              		.loc 1 875 0
 2212 03ca 584B     		ldr	r3, .L137
 2213 03cc 1B68     		ldr	r3, [r3]
 2214 03ce 0022     		movs	r2, #0
 2215 03d0 1A76     		strb	r2, [r3, #24]
 876:ControllerTest.c ****         pTxPacket_Relay->Payload.LED_10_R = 0x00;
 2216              		.loc 1 876 0
 2217 03d2 564B     		ldr	r3, .L137
 2218 03d4 1B68     		ldr	r3, [r3]
 2219 03d6 0022     		movs	r2, #0
 2220 03d8 5A75     		strb	r2, [r3, #21]
 877:ControllerTest.c ****         pTxPacket_Relay->Payload.LED_11_R = 0x00;
 2221              		.loc 1 877 0
 2222 03da 544B     		ldr	r3, .L137
 2223 03dc 1B68     		ldr	r3, [r3]
 2224 03de 0022     		movs	r2, #0
 2225 03e0 9A74     		strb	r2, [r3, #18]
 878:ControllerTest.c ****         pTxPacket_Relay->Payload.LED_12_R = 0x00;
 2226              		.loc 1 878 0
 2227 03e2 524B     		ldr	r3, .L137
 2228 03e4 1B68     		ldr	r3, [r3]
 2229 03e6 0022     		movs	r2, #0
 2230 03e8 DA73     		strb	r2, [r3, #15]
 879:ControllerTest.c ****         pTxPacket_Relay->Payload.LED_13_R = 0x00;
 2231              		.loc 1 879 0
 2232 03ea 504B     		ldr	r3, .L137
 2233 03ec 1B68     		ldr	r3, [r3]
 2234 03ee 0022     		movs	r2, #0
ARM GAS  C:\Users\MARTHN~1\AppData\Local\Temp\ccbPVIdg.s 			page 59


 2235 03f0 1A73     		strb	r2, [r3, #12]
 880:ControllerTest.c ****         pTxPacket_Relay->Payload.LED_14_R = 0x00;
 2236              		.loc 1 880 0
 2237 03f2 4E4B     		ldr	r3, .L137
 2238 03f4 1B68     		ldr	r3, [r3]
 2239 03f6 0022     		movs	r2, #0
 2240 03f8 5A72     		strb	r2, [r3, #9]
 881:ControllerTest.c ****         pTxPacket_Relay->Payload.LED_15_R = 0x00;
 2241              		.loc 1 881 0
 2242 03fa 4C4B     		ldr	r3, .L137
 2243 03fc 1B68     		ldr	r3, [r3]
 2244 03fe 0022     		movs	r2, #0
 2245 0400 9A71     		strb	r2, [r3, #6]
 882:ControllerTest.c ****         pTxPacket_Relay->Payload.LED_16_R = 0x00;
 2246              		.loc 1 882 0
 2247 0402 4A4B     		ldr	r3, .L137
 2248 0404 1B68     		ldr	r3, [r3]
 2249 0406 0022     		movs	r2, #0
 2250 0408 DA70     		strb	r2, [r3, #3]
 883:ControllerTest.c ****         
 2251              		.loc 1 883 0
 2252 040a 484B     		ldr	r3, .L137
 2253 040c 1B68     		ldr	r3, [r3]
 2254 040e 0022     		movs	r2, #0
 2255 0410 1A70     		strb	r2, [r3]
 885:ControllerTest.c ****         pTxPacket_Relay->Payload.LED_02_B = 0x00;
 2256              		.loc 1 885 0
 2257 0412 464B     		ldr	r3, .L137
 2258 0414 1B68     		ldr	r3, [r3]
 2259 0416 0022     		movs	r2, #0
 2260 0418 83F82F20 		strb	r2, [r3, #47]
 886:ControllerTest.c ****         pTxPacket_Relay->Payload.LED_03_B = 0x00;
 2261              		.loc 1 886 0
 2262 041c 434B     		ldr	r3, .L137
 2263 041e 1B68     		ldr	r3, [r3]
 2264 0420 0022     		movs	r2, #0
 2265 0422 83F82C20 		strb	r2, [r3, #44]
 887:ControllerTest.c ****         pTxPacket_Relay->Payload.LED_04_B = 0x00;
 2266              		.loc 1 887 0
 2267 0426 414B     		ldr	r3, .L137
 2268 0428 1B68     		ldr	r3, [r3]
 2269 042a 0022     		movs	r2, #0
 2270 042c 83F82920 		strb	r2, [r3, #41]
 888:ControllerTest.c ****         pTxPacket_Relay->Payload.LED_05_B = 0x00;
 2271              		.loc 1 888 0
 2272 0430 3E4B     		ldr	r3, .L137
 2273 0432 1B68     		ldr	r3, [r3]
 2274 0434 0022     		movs	r2, #0
 2275 0436 83F82620 		strb	r2, [r3, #38]
 889:ControllerTest.c ****         pTxPacket_Relay->Payload.LED_06_B = 0x00;
 2276              		.loc 1 889 0
 2277 043a 3C4B     		ldr	r3, .L137
 2278 043c 1B68     		ldr	r3, [r3]
 2279 043e 0022     		movs	r2, #0
 2280 0440 83F82320 		strb	r2, [r3, #35]
 890:ControllerTest.c ****         pTxPacket_Relay->Payload.LED_07_B = 0x00;
 2281              		.loc 1 890 0
ARM GAS  C:\Users\MARTHN~1\AppData\Local\Temp\ccbPVIdg.s 			page 60


 2282 0444 394B     		ldr	r3, .L137
 2283 0446 1B68     		ldr	r3, [r3]
 2284 0448 0022     		movs	r2, #0
 2285 044a 83F82020 		strb	r2, [r3, #32]
 891:ControllerTest.c ****         pTxPacket_Relay->Payload.LED_08_B = 0x00;
 2286              		.loc 1 891 0
 2287 044e 374B     		ldr	r3, .L137
 2288 0450 1B68     		ldr	r3, [r3]
 2289 0452 0022     		movs	r2, #0
 2290 0454 5A77     		strb	r2, [r3, #29]
 892:ControllerTest.c ****         pTxPacket_Relay->Payload.LED_09_B = 0x00;
 2291              		.loc 1 892 0
 2292 0456 354B     		ldr	r3, .L137
 2293 0458 1B68     		ldr	r3, [r3]
 2294 045a 0022     		movs	r2, #0
 2295 045c 9A76     		strb	r2, [r3, #26]
 893:ControllerTest.c ****         pTxPacket_Relay->Payload.LED_10_B = 0x00;
 2296              		.loc 1 893 0
 2297 045e 334B     		ldr	r3, .L137
 2298 0460 1B68     		ldr	r3, [r3]
 2299 0462 0022     		movs	r2, #0
 2300 0464 DA75     		strb	r2, [r3, #23]
 894:ControllerTest.c ****         pTxPacket_Relay->Payload.LED_11_B = 0x00;
 2301              		.loc 1 894 0
 2302 0466 314B     		ldr	r3, .L137
 2303 0468 1B68     		ldr	r3, [r3]
 2304 046a 0022     		movs	r2, #0
 2305 046c 1A75     		strb	r2, [r3, #20]
 895:ControllerTest.c ****         pTxPacket_Relay->Payload.LED_12_B = 0x00;
 2306              		.loc 1 895 0
 2307 046e 2F4B     		ldr	r3, .L137
 2308 0470 1B68     		ldr	r3, [r3]
 2309 0472 0022     		movs	r2, #0
 2310 0474 5A74     		strb	r2, [r3, #17]
 896:ControllerTest.c ****         pTxPacket_Relay->Payload.LED_13_B = 0x00;
 2311              		.loc 1 896 0
 2312 0476 2D4B     		ldr	r3, .L137
 2313 0478 1B68     		ldr	r3, [r3]
 2314 047a 0022     		movs	r2, #0
 2315 047c 9A73     		strb	r2, [r3, #14]
 897:ControllerTest.c ****         pTxPacket_Relay->Payload.LED_14_B = 0x00;
 2316              		.loc 1 897 0
 2317 047e 2B4B     		ldr	r3, .L137
 2318 0480 1B68     		ldr	r3, [r3]
 2319 0482 0022     		movs	r2, #0
 2320 0484 DA72     		strb	r2, [r3, #11]
 898:ControllerTest.c ****         pTxPacket_Relay->Payload.LED_15_B = 0x00;
 2321              		.loc 1 898 0
 2322 0486 294B     		ldr	r3, .L137
 2323 0488 1B68     		ldr	r3, [r3]
 2324 048a 0022     		movs	r2, #0
 2325 048c 1A72     		strb	r2, [r3, #8]
 899:ControllerTest.c ****         pTxPacket_Relay->Payload.LED_16_B = 0x00;
 2326              		.loc 1 899 0
 2327 048e 274B     		ldr	r3, .L137
 2328 0490 1B68     		ldr	r3, [r3]
 2329 0492 0022     		movs	r2, #0
ARM GAS  C:\Users\MARTHN~1\AppData\Local\Temp\ccbPVIdg.s 			page 61


 2330 0494 5A71     		strb	r2, [r3, #5]
 900:ControllerTest.c ****         
 2331              		.loc 1 900 0
 2332 0496 254B     		ldr	r3, .L137
 2333 0498 1B68     		ldr	r3, [r3]
 2334 049a 0022     		movs	r2, #0
 2335 049c 9A70     		strb	r2, [r3, #2]
 902:ControllerTest.c ****         pTxPacket_Relay->Payload.LED_02_G = 0xFF;
 2336              		.loc 1 902 0
 2337 049e 234B     		ldr	r3, .L137
 2338 04a0 1B68     		ldr	r3, [r3]
 2339 04a2 FF22     		movs	r2, #255
 2340 04a4 83F82E20 		strb	r2, [r3, #46]
 903:ControllerTest.c ****         pTxPacket_Relay->Payload.LED_03_G = 0xFF;
 2341              		.loc 1 903 0
 2342 04a8 204B     		ldr	r3, .L137
 2343 04aa 1B68     		ldr	r3, [r3]
 2344 04ac FF22     		movs	r2, #255
 2345 04ae 83F82B20 		strb	r2, [r3, #43]
 904:ControllerTest.c ****         pTxPacket_Relay->Payload.LED_04_G = 0xFF;
 2346              		.loc 1 904 0
 2347 04b2 1E4B     		ldr	r3, .L137
 2348 04b4 1B68     		ldr	r3, [r3]
 2349 04b6 FF22     		movs	r2, #255
 2350 04b8 83F82820 		strb	r2, [r3, #40]
 905:ControllerTest.c ****         pTxPacket_Relay->Payload.LED_05_G = 0xFF;
 2351              		.loc 1 905 0
 2352 04bc 1B4B     		ldr	r3, .L137
 2353 04be 1B68     		ldr	r3, [r3]
 2354 04c0 FF22     		movs	r2, #255
 2355 04c2 83F82520 		strb	r2, [r3, #37]
 906:ControllerTest.c ****         pTxPacket_Relay->Payload.LED_06_G = 0xFF;
 2356              		.loc 1 906 0
 2357 04c6 194B     		ldr	r3, .L137
 2358 04c8 1B68     		ldr	r3, [r3]
 2359 04ca FF22     		movs	r2, #255
 2360 04cc 83F82220 		strb	r2, [r3, #34]
 907:ControllerTest.c ****         pTxPacket_Relay->Payload.LED_07_G = 0xFF;
 2361              		.loc 1 907 0
 2362 04d0 164B     		ldr	r3, .L137
 2363 04d2 1B68     		ldr	r3, [r3]
 2364 04d4 FF22     		movs	r2, #255
 2365 04d6 DA77     		strb	r2, [r3, #31]
 908:ControllerTest.c ****         pTxPacket_Relay->Payload.LED_08_G = 0xFF;
 2366              		.loc 1 908 0
 2367 04d8 144B     		ldr	r3, .L137
 2368 04da 1B68     		ldr	r3, [r3]
 2369 04dc FF22     		movs	r2, #255
 2370 04de 1A77     		strb	r2, [r3, #28]
 909:ControllerTest.c ****         pTxPacket_Relay->Payload.LED_09_G = 0xFF;
 2371              		.loc 1 909 0
 2372 04e0 124B     		ldr	r3, .L137
 2373 04e2 1B68     		ldr	r3, [r3]
 2374 04e4 FF22     		movs	r2, #255
 2375 04e6 5A76     		strb	r2, [r3, #25]
 910:ControllerTest.c ****         pTxPacket_Relay->Payload.LED_10_G = 0xFF;
 2376              		.loc 1 910 0
ARM GAS  C:\Users\MARTHN~1\AppData\Local\Temp\ccbPVIdg.s 			page 62


 2377 04e8 104B     		ldr	r3, .L137
 2378 04ea 1B68     		ldr	r3, [r3]
 2379 04ec FF22     		movs	r2, #255
 2380 04ee 9A75     		strb	r2, [r3, #22]
 911:ControllerTest.c ****         pTxPacket_Relay->Payload.LED_11_G = 0xFF;
 2381              		.loc 1 911 0
 2382 04f0 0E4B     		ldr	r3, .L137
 2383 04f2 1B68     		ldr	r3, [r3]
 2384 04f4 FF22     		movs	r2, #255
 2385 04f6 DA74     		strb	r2, [r3, #19]
 912:ControllerTest.c ****         pTxPacket_Relay->Payload.LED_12_G = 0xFF;
 2386              		.loc 1 912 0
 2387 04f8 0C4B     		ldr	r3, .L137
 2388 04fa 1B68     		ldr	r3, [r3]
 2389 04fc FF22     		movs	r2, #255
 2390 04fe 1A74     		strb	r2, [r3, #16]
 913:ControllerTest.c ****         pTxPacket_Relay->Payload.LED_13_G = 0xFF;
 2391              		.loc 1 913 0
 2392 0500 0A4B     		ldr	r3, .L137
 2393 0502 1B68     		ldr	r3, [r3]
 2394 0504 FF22     		movs	r2, #255
 2395 0506 5A73     		strb	r2, [r3, #13]
 914:ControllerTest.c ****         pTxPacket_Relay->Payload.LED_14_G = 0xFF;
 2396              		.loc 1 914 0
 2397 0508 084B     		ldr	r3, .L137
 2398 050a 1B68     		ldr	r3, [r3]
 2399 050c FF22     		movs	r2, #255
 2400 050e 9A72     		strb	r2, [r3, #10]
 915:ControllerTest.c ****         pTxPacket_Relay->Payload.LED_15_G = 0xFF;
 2401              		.loc 1 915 0
 2402 0510 064B     		ldr	r3, .L137
 2403 0512 1B68     		ldr	r3, [r3]
 2404 0514 FF22     		movs	r2, #255
 2405 0516 DA71     		strb	r2, [r3, #7]
 916:ControllerTest.c ****         pTxPacket_Relay->Payload.LED_16_G = 0xFF;
 2406              		.loc 1 916 0
 2407 0518 044B     		ldr	r3, .L137
 2408 051a 1B68     		ldr	r3, [r3]
 2409 051c FF22     		movs	r2, #255
 2410 051e 1A71     		strb	r2, [r3, #4]
 917:ControllerTest.c ****     }
 2411              		.loc 1 917 0
 2412 0520 024B     		ldr	r3, .L137
 2413 0522 1B68     		ldr	r3, [r3]
 2414 0524 FF22     		movs	r2, #255
 2415 0526 5A70     		strb	r2, [r3, #1]
 2416              		.loc 1 974 0
 2417 0528 D3E0     		b	.L127
 2418              	.L138:
 2419 052a 00BF     		.align	2
 2420              	.L137:
 2421 052c B8000000 		.word	pTxPacket_Relay
 2422              	.L131:
 922:ControllerTest.c ****         pTxPacket_Relay->Payload.LED_02_R = 0x00;
 2423              		.loc 1 922 0
 2424 0530 694B     		ldr	r3, .L139
 2425 0532 1B68     		ldr	r3, [r3]
ARM GAS  C:\Users\MARTHN~1\AppData\Local\Temp\ccbPVIdg.s 			page 63


 2426 0534 0022     		movs	r2, #0
 2427 0536 83F82D20 		strb	r2, [r3, #45]
 923:ControllerTest.c ****         pTxPacket_Relay->Payload.LED_03_R = 0x00;
 2428              		.loc 1 923 0
 2429 053a 674B     		ldr	r3, .L139
 2430 053c 1B68     		ldr	r3, [r3]
 2431 053e 0022     		movs	r2, #0
 2432 0540 83F82A20 		strb	r2, [r3, #42]
 924:ControllerTest.c ****         pTxPacket_Relay->Payload.LED_04_R = 0x00;
 2433              		.loc 1 924 0
 2434 0544 644B     		ldr	r3, .L139
 2435 0546 1B68     		ldr	r3, [r3]
 2436 0548 0022     		movs	r2, #0
 2437 054a 83F82720 		strb	r2, [r3, #39]
 925:ControllerTest.c ****         pTxPacket_Relay->Payload.LED_05_R = 0x00;
 2438              		.loc 1 925 0
 2439 054e 624B     		ldr	r3, .L139
 2440 0550 1B68     		ldr	r3, [r3]
 2441 0552 0022     		movs	r2, #0
 2442 0554 83F82420 		strb	r2, [r3, #36]
 926:ControllerTest.c ****         pTxPacket_Relay->Payload.LED_06_R = 0x00;
 2443              		.loc 1 926 0
 2444 0558 5F4B     		ldr	r3, .L139
 2445 055a 1B68     		ldr	r3, [r3]
 2446 055c 0022     		movs	r2, #0
 2447 055e 83F82120 		strb	r2, [r3, #33]
 927:ControllerTest.c ****         pTxPacket_Relay->Payload.LED_07_R = 0x00;
 2448              		.loc 1 927 0
 2449 0562 5D4B     		ldr	r3, .L139
 2450 0564 1B68     		ldr	r3, [r3]
 2451 0566 0022     		movs	r2, #0
 2452 0568 9A77     		strb	r2, [r3, #30]
 928:ControllerTest.c ****         pTxPacket_Relay->Payload.LED_08_R = 0x00;
 2453              		.loc 1 928 0
 2454 056a 5B4B     		ldr	r3, .L139
 2455 056c 1B68     		ldr	r3, [r3]
 2456 056e 0022     		movs	r2, #0
 2457 0570 DA76     		strb	r2, [r3, #27]
 929:ControllerTest.c ****         pTxPacket_Relay->Payload.LED_09_R = 0x00;
 2458              		.loc 1 929 0
 2459 0572 594B     		ldr	r3, .L139
 2460 0574 1B68     		ldr	r3, [r3]
 2461 0576 0022     		movs	r2, #0
 2462 0578 1A76     		strb	r2, [r3, #24]
 930:ControllerTest.c ****         pTxPacket_Relay->Payload.LED_10_R = 0x00;
 2463              		.loc 1 930 0
 2464 057a 574B     		ldr	r3, .L139
 2465 057c 1B68     		ldr	r3, [r3]
 2466 057e 0022     		movs	r2, #0
 2467 0580 5A75     		strb	r2, [r3, #21]
 931:ControllerTest.c ****         pTxPacket_Relay->Payload.LED_11_R = 0x00;
 2468              		.loc 1 931 0
 2469 0582 554B     		ldr	r3, .L139
 2470 0584 1B68     		ldr	r3, [r3]
 2471 0586 0022     		movs	r2, #0
 2472 0588 9A74     		strb	r2, [r3, #18]
 932:ControllerTest.c ****         pTxPacket_Relay->Payload.LED_12_R = 0x00;
ARM GAS  C:\Users\MARTHN~1\AppData\Local\Temp\ccbPVIdg.s 			page 64


 2473              		.loc 1 932 0
 2474 058a 534B     		ldr	r3, .L139
 2475 058c 1B68     		ldr	r3, [r3]
 2476 058e 0022     		movs	r2, #0
 2477 0590 DA73     		strb	r2, [r3, #15]
 933:ControllerTest.c ****         pTxPacket_Relay->Payload.LED_13_R = 0x00;
 2478              		.loc 1 933 0
 2479 0592 514B     		ldr	r3, .L139
 2480 0594 1B68     		ldr	r3, [r3]
 2481 0596 0022     		movs	r2, #0
 2482 0598 1A73     		strb	r2, [r3, #12]
 934:ControllerTest.c ****         pTxPacket_Relay->Payload.LED_14_R = 0x00;
 2483              		.loc 1 934 0
 2484 059a 4F4B     		ldr	r3, .L139
 2485 059c 1B68     		ldr	r3, [r3]
 2486 059e 0022     		movs	r2, #0
 2487 05a0 5A72     		strb	r2, [r3, #9]
 935:ControllerTest.c ****         pTxPacket_Relay->Payload.LED_15_R = 0x00;
 2488              		.loc 1 935 0
 2489 05a2 4D4B     		ldr	r3, .L139
 2490 05a4 1B68     		ldr	r3, [r3]
 2491 05a6 0022     		movs	r2, #0
 2492 05a8 9A71     		strb	r2, [r3, #6]
 936:ControllerTest.c ****         pTxPacket_Relay->Payload.LED_16_R = 0x00;
 2493              		.loc 1 936 0
 2494 05aa 4B4B     		ldr	r3, .L139
 2495 05ac 1B68     		ldr	r3, [r3]
 2496 05ae 0022     		movs	r2, #0
 2497 05b0 DA70     		strb	r2, [r3, #3]
 937:ControllerTest.c ****         
 2498              		.loc 1 937 0
 2499 05b2 494B     		ldr	r3, .L139
 2500 05b4 1B68     		ldr	r3, [r3]
 2501 05b6 0022     		movs	r2, #0
 2502 05b8 1A70     		strb	r2, [r3]
 939:ControllerTest.c ****         pTxPacket_Relay->Payload.LED_02_B = 0x00;
 2503              		.loc 1 939 0
 2504 05ba 474B     		ldr	r3, .L139
 2505 05bc 1B68     		ldr	r3, [r3]
 2506 05be 0022     		movs	r2, #0
 2507 05c0 83F82F20 		strb	r2, [r3, #47]
 940:ControllerTest.c ****         pTxPacket_Relay->Payload.LED_03_B = 0x00;
 2508              		.loc 1 940 0
 2509 05c4 444B     		ldr	r3, .L139
 2510 05c6 1B68     		ldr	r3, [r3]
 2511 05c8 0022     		movs	r2, #0
 2512 05ca 83F82C20 		strb	r2, [r3, #44]
 941:ControllerTest.c ****         pTxPacket_Relay->Payload.LED_04_B = 0x00;
 2513              		.loc 1 941 0
 2514 05ce 424B     		ldr	r3, .L139
 2515 05d0 1B68     		ldr	r3, [r3]
 2516 05d2 0022     		movs	r2, #0
 2517 05d4 83F82920 		strb	r2, [r3, #41]
 942:ControllerTest.c ****         pTxPacket_Relay->Payload.LED_05_B = 0x00;
 2518              		.loc 1 942 0
 2519 05d8 3F4B     		ldr	r3, .L139
 2520 05da 1B68     		ldr	r3, [r3]
ARM GAS  C:\Users\MARTHN~1\AppData\Local\Temp\ccbPVIdg.s 			page 65


 2521 05dc 0022     		movs	r2, #0
 2522 05de 83F82620 		strb	r2, [r3, #38]
 943:ControllerTest.c ****         pTxPacket_Relay->Payload.LED_06_B = 0x00;
 2523              		.loc 1 943 0
 2524 05e2 3D4B     		ldr	r3, .L139
 2525 05e4 1B68     		ldr	r3, [r3]
 2526 05e6 0022     		movs	r2, #0
 2527 05e8 83F82320 		strb	r2, [r3, #35]
 944:ControllerTest.c ****         pTxPacket_Relay->Payload.LED_07_B = 0x00;
 2528              		.loc 1 944 0
 2529 05ec 3A4B     		ldr	r3, .L139
 2530 05ee 1B68     		ldr	r3, [r3]
 2531 05f0 0022     		movs	r2, #0
 2532 05f2 83F82020 		strb	r2, [r3, #32]
 945:ControllerTest.c ****         pTxPacket_Relay->Payload.LED_08_B = 0x00;
 2533              		.loc 1 945 0
 2534 05f6 384B     		ldr	r3, .L139
 2535 05f8 1B68     		ldr	r3, [r3]
 2536 05fa 0022     		movs	r2, #0
 2537 05fc 5A77     		strb	r2, [r3, #29]
 946:ControllerTest.c ****         pTxPacket_Relay->Payload.LED_09_B = 0x00;
 2538              		.loc 1 946 0
 2539 05fe 364B     		ldr	r3, .L139
 2540 0600 1B68     		ldr	r3, [r3]
 2541 0602 0022     		movs	r2, #0
 2542 0604 9A76     		strb	r2, [r3, #26]
 947:ControllerTest.c ****         pTxPacket_Relay->Payload.LED_10_B = 0x00;
 2543              		.loc 1 947 0
 2544 0606 344B     		ldr	r3, .L139
 2545 0608 1B68     		ldr	r3, [r3]
 2546 060a 0022     		movs	r2, #0
 2547 060c DA75     		strb	r2, [r3, #23]
 948:ControllerTest.c ****         pTxPacket_Relay->Payload.LED_11_B = 0x00;
 2548              		.loc 1 948 0
 2549 060e 324B     		ldr	r3, .L139
 2550 0610 1B68     		ldr	r3, [r3]
 2551 0612 0022     		movs	r2, #0
 2552 0614 1A75     		strb	r2, [r3, #20]
 949:ControllerTest.c ****         pTxPacket_Relay->Payload.LED_12_B = 0x00;
 2553              		.loc 1 949 0
 2554 0616 304B     		ldr	r3, .L139
 2555 0618 1B68     		ldr	r3, [r3]
 2556 061a 0022     		movs	r2, #0
 2557 061c 5A74     		strb	r2, [r3, #17]
 950:ControllerTest.c ****         pTxPacket_Relay->Payload.LED_13_B = 0x00;
 2558              		.loc 1 950 0
 2559 061e 2E4B     		ldr	r3, .L139
 2560 0620 1B68     		ldr	r3, [r3]
 2561 0622 0022     		movs	r2, #0
 2562 0624 9A73     		strb	r2, [r3, #14]
 951:ControllerTest.c ****         pTxPacket_Relay->Payload.LED_14_B = 0x00;
 2563              		.loc 1 951 0
 2564 0626 2C4B     		ldr	r3, .L139
 2565 0628 1B68     		ldr	r3, [r3]
 2566 062a 0022     		movs	r2, #0
 2567 062c DA72     		strb	r2, [r3, #11]
 952:ControllerTest.c ****         pTxPacket_Relay->Payload.LED_15_B = 0x00;
ARM GAS  C:\Users\MARTHN~1\AppData\Local\Temp\ccbPVIdg.s 			page 66


 2568              		.loc 1 952 0
 2569 062e 2A4B     		ldr	r3, .L139
 2570 0630 1B68     		ldr	r3, [r3]
 2571 0632 0022     		movs	r2, #0
 2572 0634 1A72     		strb	r2, [r3, #8]
 953:ControllerTest.c ****         pTxPacket_Relay->Payload.LED_16_B = 0x00;
 2573              		.loc 1 953 0
 2574 0636 284B     		ldr	r3, .L139
 2575 0638 1B68     		ldr	r3, [r3]
 2576 063a 0022     		movs	r2, #0
 2577 063c 5A71     		strb	r2, [r3, #5]
 954:ControllerTest.c ****         
 2578              		.loc 1 954 0
 2579 063e 264B     		ldr	r3, .L139
 2580 0640 1B68     		ldr	r3, [r3]
 2581 0642 0022     		movs	r2, #0
 2582 0644 9A70     		strb	r2, [r3, #2]
 956:ControllerTest.c ****         pTxPacket_Relay->Payload.LED_02_G = 0x00;
 2583              		.loc 1 956 0
 2584 0646 244B     		ldr	r3, .L139
 2585 0648 1B68     		ldr	r3, [r3]
 2586 064a 0022     		movs	r2, #0
 2587 064c 83F82E20 		strb	r2, [r3, #46]
 957:ControllerTest.c ****         pTxPacket_Relay->Payload.LED_03_G = 0x00;
 2588              		.loc 1 957 0
 2589 0650 214B     		ldr	r3, .L139
 2590 0652 1B68     		ldr	r3, [r3]
 2591 0654 0022     		movs	r2, #0
 2592 0656 83F82B20 		strb	r2, [r3, #43]
 958:ControllerTest.c ****         pTxPacket_Relay->Payload.LED_04_G = 0x00;
 2593              		.loc 1 958 0
 2594 065a 1F4B     		ldr	r3, .L139
 2595 065c 1B68     		ldr	r3, [r3]
 2596 065e 0022     		movs	r2, #0
 2597 0660 83F82820 		strb	r2, [r3, #40]
 959:ControllerTest.c ****         pTxPacket_Relay->Payload.LED_05_G = 0x00;
 2598              		.loc 1 959 0
 2599 0664 1C4B     		ldr	r3, .L139
 2600 0666 1B68     		ldr	r3, [r3]
 2601 0668 0022     		movs	r2, #0
 2602 066a 83F82520 		strb	r2, [r3, #37]
 960:ControllerTest.c ****         pTxPacket_Relay->Payload.LED_06_G = 0x00;
 2603              		.loc 1 960 0
 2604 066e 1A4B     		ldr	r3, .L139
 2605 0670 1B68     		ldr	r3, [r3]
 2606 0672 0022     		movs	r2, #0
 2607 0674 83F82220 		strb	r2, [r3, #34]
 961:ControllerTest.c ****         pTxPacket_Relay->Payload.LED_07_G = 0x00;
 2608              		.loc 1 961 0
 2609 0678 174B     		ldr	r3, .L139
 2610 067a 1B68     		ldr	r3, [r3]
 2611 067c 0022     		movs	r2, #0
 2612 067e DA77     		strb	r2, [r3, #31]
 962:ControllerTest.c ****         pTxPacket_Relay->Payload.LED_08_G = 0x00;
 2613              		.loc 1 962 0
 2614 0680 154B     		ldr	r3, .L139
 2615 0682 1B68     		ldr	r3, [r3]
ARM GAS  C:\Users\MARTHN~1\AppData\Local\Temp\ccbPVIdg.s 			page 67


 2616 0684 0022     		movs	r2, #0
 2617 0686 1A77     		strb	r2, [r3, #28]
 963:ControllerTest.c ****         pTxPacket_Relay->Payload.LED_09_G = 0x00;
 2618              		.loc 1 963 0
 2619 0688 134B     		ldr	r3, .L139
 2620 068a 1B68     		ldr	r3, [r3]
 2621 068c 0022     		movs	r2, #0
 2622 068e 5A76     		strb	r2, [r3, #25]
 964:ControllerTest.c ****         pTxPacket_Relay->Payload.LED_10_G = 0x00;
 2623              		.loc 1 964 0
 2624 0690 114B     		ldr	r3, .L139
 2625 0692 1B68     		ldr	r3, [r3]
 2626 0694 0022     		movs	r2, #0
 2627 0696 9A75     		strb	r2, [r3, #22]
 965:ControllerTest.c ****         pTxPacket_Relay->Payload.LED_11_G = 0x00;
 2628              		.loc 1 965 0
 2629 0698 0F4B     		ldr	r3, .L139
 2630 069a 1B68     		ldr	r3, [r3]
 2631 069c 0022     		movs	r2, #0
 2632 069e DA74     		strb	r2, [r3, #19]
 966:ControllerTest.c ****         pTxPacket_Relay->Payload.LED_12_G = 0x00;
 2633              		.loc 1 966 0
 2634 06a0 0D4B     		ldr	r3, .L139
 2635 06a2 1B68     		ldr	r3, [r3]
 2636 06a4 0022     		movs	r2, #0
 2637 06a6 1A74     		strb	r2, [r3, #16]
 967:ControllerTest.c ****         pTxPacket_Relay->Payload.LED_13_G = 0x00;
 2638              		.loc 1 967 0
 2639 06a8 0B4B     		ldr	r3, .L139
 2640 06aa 1B68     		ldr	r3, [r3]
 2641 06ac 0022     		movs	r2, #0
 2642 06ae 5A73     		strb	r2, [r3, #13]
 968:ControllerTest.c ****         pTxPacket_Relay->Payload.LED_14_G = 0x00;
 2643              		.loc 1 968 0
 2644 06b0 094B     		ldr	r3, .L139
 2645 06b2 1B68     		ldr	r3, [r3]
 2646 06b4 0022     		movs	r2, #0
 2647 06b6 9A72     		strb	r2, [r3, #10]
 969:ControllerTest.c ****         pTxPacket_Relay->Payload.LED_15_G = 0x00;
 2648              		.loc 1 969 0
 2649 06b8 074B     		ldr	r3, .L139
 2650 06ba 1B68     		ldr	r3, [r3]
 2651 06bc 0022     		movs	r2, #0
 2652 06be DA71     		strb	r2, [r3, #7]
 970:ControllerTest.c ****         pTxPacket_Relay->Payload.LED_16_G = 0x00;
 2653              		.loc 1 970 0
 2654 06c0 054B     		ldr	r3, .L139
 2655 06c2 1B68     		ldr	r3, [r3]
 2656 06c4 0022     		movs	r2, #0
 2657 06c6 1A71     		strb	r2, [r3, #4]
 971:ControllerTest.c ****     }
 2658              		.loc 1 971 0
 2659 06c8 034B     		ldr	r3, .L139
 2660 06ca 1B68     		ldr	r3, [r3]
 2661 06cc 0022     		movs	r2, #0
 2662 06ce 5A70     		strb	r2, [r3, #1]
 2663              		.loc 1 974 0
ARM GAS  C:\Users\MARTHN~1\AppData\Local\Temp\ccbPVIdg.s 			page 68


 2664 06d0 00BF     		nop
 2665              	.L127:
 975:ControllerTest.c **** }
 2666              		.loc 1 975 0
 2667 06d2 0837     		adds	r7, r7, #8
 2668              		.cfi_def_cfa_offset 8
 2669 06d4 BD46     		mov	sp, r7
 2670              		.cfi_def_cfa_register 13
 2671              		@ sp needed
 2672 06d6 80BD     		pop	{r7, pc}
 2673              	.L140:
 2674              		.align	2
 2675              	.L139:
 2676 06d8 B8000000 		.word	pTxPacket_Relay
 2677              		.cfi_endproc
 2678              	.LFE76:
 2679              		.size	setLEDs, .-setLEDs
 2680              		.bss
 2681 00df 00       		.align	2
 2682              	CTestStatus_display.7459:
 2683 00e0 00000000 		.space	22
 2683      00000000 
 2683      00000000 
 2683      00000000 
 2683      00000000 
 2684              	PB_reading.7471:
 2685 00f6 00       		.space	1
 2686              	PB_reading_previous.7472:
 2687 00f7 00       		.space	1
 2688              	PB_NextAction_debouncecount.7467:
 2689 00f8 00       		.space	1
 2690              	debouncetrue.7470:
 2691 00f9 00       		.space	1
 2692              	PB_NextAction_failcount.7468:
 2693 00fa 00       		.space	1
 2694              	PB_NextAction_prevstate.7469:
 2695 00fb 00       		.space	1
 2696              		.text
 2697              	.Letext0:
 2698              		.file 2 "c:\\program files (x86)\\cypress\\psoc creator\\4.3\\psoc creator\\import\\gnu\\arm\\5.4.
 2699              		.file 3 "c:\\program files (x86)\\cypress\\psoc creator\\4.3\\psoc creator\\import\\gnu\\arm\\5.4.
 2700              		.file 4 "Generated_Source\\PSoC5/cytypes.h"
 2701              		.file 5 "CommonVariables.h"
 2702              		.file 6 "UART_460800_Functions.h"
 2703              		.file 7 "UART_230400_Functions.h"
 2704              		.file 8 "Generated_Source\\PSoC5/core_cm3.h"
 2705              		.section	.debug_info,"",%progbits
 2706              	.Ldebug_info0:
 2707 0000 480F0000 		.4byte	0xf48
 2708 0004 0400     		.2byte	0x4
 2709 0006 00000000 		.4byte	.Ldebug_abbrev0
 2710 000a 04       		.byte	0x4
 2711 000b 01       		.uleb128 0x1
 2712 000c AA000000 		.4byte	.LASF199
 2713 0010 0C       		.byte	0xc
 2714 0011 00000000 		.4byte	.LASF200
 2715 0015 940A0000 		.4byte	.LASF201
ARM GAS  C:\Users\MARTHN~1\AppData\Local\Temp\ccbPVIdg.s 			page 69


 2716 0019 00000000 		.4byte	.Ldebug_ranges0+0
 2717 001d 00000000 		.4byte	0
 2718 0021 00000000 		.4byte	.Ldebug_line0
 2719 0025 02       		.uleb128 0x2
 2720 0026 01       		.byte	0x1
 2721 0027 06       		.byte	0x6
 2722 0028 FC010000 		.4byte	.LASF0
 2723 002c 02       		.uleb128 0x2
 2724 002d 01       		.byte	0x1
 2725 002e 08       		.byte	0x8
 2726 002f DC060000 		.4byte	.LASF1
 2727 0033 02       		.uleb128 0x2
 2728 0034 02       		.byte	0x2
 2729 0035 05       		.byte	0x5
 2730 0036 4B070000 		.4byte	.LASF2
 2731 003a 02       		.uleb128 0x2
 2732 003b 02       		.byte	0x2
 2733 003c 07       		.byte	0x7
 2734 003d 52040000 		.4byte	.LASF3
 2735 0041 03       		.uleb128 0x3
 2736 0042 92010000 		.4byte	.LASF9
 2737 0046 02       		.byte	0x2
 2738 0047 3F       		.byte	0x3f
 2739 0048 4C000000 		.4byte	0x4c
 2740 004c 02       		.uleb128 0x2
 2741 004d 04       		.byte	0x4
 2742 004e 05       		.byte	0x5
 2743 004f 69020000 		.4byte	.LASF4
 2744 0053 02       		.uleb128 0x2
 2745 0054 04       		.byte	0x4
 2746 0055 07       		.byte	0x7
 2747 0056 AD030000 		.4byte	.LASF5
 2748 005a 02       		.uleb128 0x2
 2749 005b 08       		.byte	0x8
 2750 005c 05       		.byte	0x5
 2751 005d EE010000 		.4byte	.LASF6
 2752 0061 02       		.uleb128 0x2
 2753 0062 08       		.byte	0x8
 2754 0063 07       		.byte	0x7
 2755 0064 40020000 		.4byte	.LASF7
 2756 0068 04       		.uleb128 0x4
 2757 0069 04       		.byte	0x4
 2758 006a 05       		.byte	0x5
 2759 006b 696E7400 		.ascii	"int\000"
 2760 006f 02       		.uleb128 0x2
 2761 0070 04       		.byte	0x4
 2762 0071 07       		.byte	0x7
 2763 0072 4A030000 		.4byte	.LASF8
 2764 0076 03       		.uleb128 0x3
 2765 0077 D4060000 		.4byte	.LASF10
 2766 007b 03       		.byte	0x3
 2767 007c 2C       		.byte	0x2c
 2768 007d 41000000 		.4byte	0x41
 2769 0081 05       		.uleb128 0x5
 2770 0082 7B020000 		.4byte	.LASF11
 2771 0086 04       		.byte	0x4
 2772 0087 E401     		.2byte	0x1e4
ARM GAS  C:\Users\MARTHN~1\AppData\Local\Temp\ccbPVIdg.s 			page 70


 2773 0089 2C000000 		.4byte	0x2c
 2774 008d 05       		.uleb128 0x5
 2775 008e 25000000 		.4byte	.LASF12
 2776 0092 04       		.byte	0x4
 2777 0093 E501     		.2byte	0x1e5
 2778 0095 3A000000 		.4byte	0x3a
 2779 0099 02       		.uleb128 0x2
 2780 009a 04       		.byte	0x4
 2781 009b 04       		.byte	0x4
 2782 009c 5D060000 		.4byte	.LASF13
 2783 00a0 02       		.uleb128 0x2
 2784 00a1 08       		.byte	0x8
 2785 00a2 04       		.byte	0x4
 2786 00a3 91020000 		.4byte	.LASF14
 2787 00a7 02       		.uleb128 0x2
 2788 00a8 01       		.byte	0x1
 2789 00a9 08       		.byte	0x8
 2790 00aa 54080000 		.4byte	.LASF15
 2791 00ae 02       		.uleb128 0x2
 2792 00af 08       		.byte	0x8
 2793 00b0 04       		.byte	0x4
 2794 00b1 8F050000 		.4byte	.LASF16
 2795 00b5 02       		.uleb128 0x2
 2796 00b6 04       		.byte	0x4
 2797 00b7 07       		.byte	0x7
 2798 00b8 69050000 		.4byte	.LASF17
 2799 00bc 06       		.uleb128 0x6
 2800 00bd 2F0A0000 		.4byte	.LASF22
 2801 00c1 03       		.byte	0x3
 2802 00c2 05       		.byte	0x5
 2803 00c3 10       		.byte	0x10
 2804 00c4 ED000000 		.4byte	0xed
 2805 00c8 07       		.uleb128 0x7
 2806 00c9 D4070000 		.4byte	.LASF18
 2807 00cd 05       		.byte	0x5
 2808 00ce 12       		.byte	0x12
 2809 00cf 81000000 		.4byte	0x81
 2810 00d3 00       		.byte	0
 2811 00d4 07       		.uleb128 0x7
 2812 00d5 87070000 		.4byte	.LASF19
 2813 00d9 05       		.byte	0x5
 2814 00da 13       		.byte	0x13
 2815 00db 81000000 		.4byte	0x81
 2816 00df 01       		.byte	0x1
 2817 00e0 07       		.uleb128 0x7
 2818 00e1 7B0A0000 		.4byte	.LASF20
 2819 00e5 05       		.byte	0x5
 2820 00e6 14       		.byte	0x14
 2821 00e7 81000000 		.4byte	0x81
 2822 00eb 02       		.byte	0x2
 2823 00ec 00       		.byte	0
 2824 00ed 03       		.uleb128 0x3
 2825 00ee 90060000 		.4byte	.LASF21
 2826 00f2 05       		.byte	0x5
 2827 00f3 18       		.byte	0x18
 2828 00f4 BC000000 		.4byte	0xbc
 2829 00f8 08       		.uleb128 0x8
ARM GAS  C:\Users\MARTHN~1\AppData\Local\Temp\ccbPVIdg.s 			page 71


 2830 00f9 81000000 		.4byte	0x81
 2831 00fd 08010000 		.4byte	0x108
 2832 0101 09       		.uleb128 0x9
 2833 0102 B5000000 		.4byte	0xb5
 2834 0106 08       		.byte	0x8
 2835 0107 00       		.byte	0
 2836 0108 06       		.uleb128 0x6
 2837 0109 8D090000 		.4byte	.LASF23
 2838 010d 09       		.byte	0x9
 2839 010e 06       		.byte	0x6
 2840 010f B7       		.byte	0xb7
 2841 0110 81010000 		.4byte	0x181
 2842 0114 07       		.uleb128 0x7
 2843 0115 65040000 		.4byte	.LASF24
 2844 0119 06       		.byte	0x6
 2845 011a B9       		.byte	0xb9
 2846 011b 81000000 		.4byte	0x81
 2847 011f 00       		.byte	0
 2848 0120 07       		.uleb128 0x7
 2849 0121 6B040000 		.4byte	.LASF25
 2850 0125 06       		.byte	0x6
 2851 0126 BA       		.byte	0xba
 2852 0127 81000000 		.4byte	0x81
 2853 012b 01       		.byte	0x1
 2854 012c 07       		.uleb128 0x7
 2855 012d 71040000 		.4byte	.LASF26
 2856 0131 06       		.byte	0x6
 2857 0132 BB       		.byte	0xbb
 2858 0133 81000000 		.4byte	0x81
 2859 0137 02       		.byte	0x2
 2860 0138 07       		.uleb128 0x7
 2861 0139 77040000 		.4byte	.LASF27
 2862 013d 06       		.byte	0x6
 2863 013e BC       		.byte	0xbc
 2864 013f 81000000 		.4byte	0x81
 2865 0143 03       		.byte	0x3
 2866 0144 07       		.uleb128 0x7
 2867 0145 7D040000 		.4byte	.LASF28
 2868 0149 06       		.byte	0x6
 2869 014a BD       		.byte	0xbd
 2870 014b 81000000 		.4byte	0x81
 2871 014f 04       		.byte	0x4
 2872 0150 07       		.uleb128 0x7
 2873 0151 83040000 		.4byte	.LASF29
 2874 0155 06       		.byte	0x6
 2875 0156 BE       		.byte	0xbe
 2876 0157 81000000 		.4byte	0x81
 2877 015b 05       		.byte	0x5
 2878 015c 07       		.uleb128 0x7
 2879 015d 89040000 		.4byte	.LASF30
 2880 0161 06       		.byte	0x6
 2881 0162 BF       		.byte	0xbf
 2882 0163 81000000 		.4byte	0x81
 2883 0167 06       		.byte	0x6
 2884 0168 07       		.uleb128 0x7
 2885 0169 8F040000 		.4byte	.LASF31
 2886 016d 06       		.byte	0x6
ARM GAS  C:\Users\MARTHN~1\AppData\Local\Temp\ccbPVIdg.s 			page 72


 2887 016e C0       		.byte	0xc0
 2888 016f 81000000 		.4byte	0x81
 2889 0173 07       		.byte	0x7
 2890 0174 07       		.uleb128 0x7
 2891 0175 CE080000 		.4byte	.LASF32
 2892 0179 06       		.byte	0x6
 2893 017a C1       		.byte	0xc1
 2894 017b 81000000 		.4byte	0x81
 2895 017f 08       		.byte	0x8
 2896 0180 00       		.byte	0
 2897 0181 0A       		.uleb128 0xa
 2898 0182 54050000 		.4byte	.LASF115
 2899 0186 09       		.byte	0x9
 2900 0187 06       		.byte	0x6
 2901 0188 B3       		.byte	0xb3
 2902 0189 A4010000 		.4byte	0x1a4
 2903 018d 0B       		.uleb128 0xb
 2904 018e EF020000 		.4byte	.LASF33
 2905 0192 06       		.byte	0x6
 2906 0193 B5       		.byte	0xb5
 2907 0194 F8000000 		.4byte	0xf8
 2908 0198 0B       		.uleb128 0xb
 2909 0199 EA040000 		.4byte	.LASF34
 2910 019d 06       		.byte	0x6
 2911 019e C2       		.byte	0xc2
 2912 019f 08010000 		.4byte	0x108
 2913 01a3 00       		.byte	0
 2914 01a4 03       		.uleb128 0x3
 2915 01a5 C2020000 		.4byte	.LASF35
 2916 01a9 06       		.byte	0x6
 2917 01aa C3       		.byte	0xc3
 2918 01ab 81010000 		.4byte	0x181
 2919 01af 06       		.uleb128 0x6
 2920 01b0 C2070000 		.4byte	.LASF36
 2921 01b4 4F       		.byte	0x4f
 2922 01b5 07       		.byte	0x7
 2923 01b6 32       		.byte	0x32
 2924 01b7 70050000 		.4byte	0x570
 2925 01bb 07       		.uleb128 0x7
 2926 01bc F0030000 		.4byte	.LASF37
 2927 01c0 07       		.byte	0x7
 2928 01c1 34       		.byte	0x34
 2929 01c2 81000000 		.4byte	0x81
 2930 01c6 00       		.byte	0
 2931 01c7 07       		.uleb128 0x7
 2932 01c8 B6050000 		.4byte	.LASF38
 2933 01cc 07       		.byte	0x7
 2934 01cd 35       		.byte	0x35
 2935 01ce 81000000 		.4byte	0x81
 2936 01d2 01       		.byte	0x1
 2937 01d3 07       		.uleb128 0x7
 2938 01d4 57030000 		.4byte	.LASF39
 2939 01d8 07       		.byte	0x7
 2940 01d9 36       		.byte	0x36
 2941 01da 81000000 		.4byte	0x81
 2942 01de 02       		.byte	0x2
 2943 01df 07       		.uleb128 0x7
ARM GAS  C:\Users\MARTHN~1\AppData\Local\Temp\ccbPVIdg.s 			page 73


 2944 01e0 E2050000 		.4byte	.LASF40
 2945 01e4 07       		.byte	0x7
 2946 01e5 37       		.byte	0x37
 2947 01e6 81000000 		.4byte	0x81
 2948 01ea 03       		.byte	0x3
 2949 01eb 07       		.uleb128 0x7
 2950 01ec BF050000 		.4byte	.LASF41
 2951 01f0 07       		.byte	0x7
 2952 01f1 38       		.byte	0x38
 2953 01f2 81000000 		.4byte	0x81
 2954 01f6 04       		.byte	0x4
 2955 01f7 07       		.uleb128 0x7
 2956 01f8 AD050000 		.4byte	.LASF42
 2957 01fc 07       		.byte	0x7
 2958 01fd 39       		.byte	0x39
 2959 01fe 81000000 		.4byte	0x81
 2960 0202 05       		.byte	0x5
 2961 0203 07       		.uleb128 0x7
 2962 0204 E1070000 		.4byte	.LASF43
 2963 0208 07       		.byte	0x7
 2964 0209 3A       		.byte	0x3a
 2965 020a 81000000 		.4byte	0x81
 2966 020e 06       		.byte	0x6
 2967 020f 07       		.uleb128 0x7
 2968 0210 B9070000 		.4byte	.LASF44
 2969 0214 07       		.byte	0x7
 2970 0215 3B       		.byte	0x3b
 2971 0216 81000000 		.4byte	0x81
 2972 021a 07       		.byte	0x7
 2973 021b 07       		.uleb128 0x7
 2974 021c 90070000 		.4byte	.LASF45
 2975 0220 07       		.byte	0x7
 2976 0221 3C       		.byte	0x3c
 2977 0222 81000000 		.4byte	0x81
 2978 0226 08       		.byte	0x8
 2979 0227 07       		.uleb128 0x7
 2980 0228 470A0000 		.4byte	.LASF46
 2981 022c 07       		.byte	0x7
 2982 022d 3D       		.byte	0x3d
 2983 022e 81000000 		.4byte	0x81
 2984 0232 09       		.byte	0x9
 2985 0233 07       		.uleb128 0x7
 2986 0234 100A0000 		.4byte	.LASF47
 2987 0238 07       		.byte	0x7
 2988 0239 3E       		.byte	0x3e
 2989 023a 81000000 		.4byte	0x81
 2990 023e 0A       		.byte	0xa
 2991 023f 07       		.uleb128 0x7
 2992 0240 2E050000 		.4byte	.LASF48
 2993 0244 07       		.byte	0x7
 2994 0245 3F       		.byte	0x3f
 2995 0246 81000000 		.4byte	0x81
 2996 024a 0B       		.byte	0xb
 2997 024b 07       		.uleb128 0x7
 2998 024c 64010000 		.4byte	.LASF49
 2999 0250 07       		.byte	0x7
 3000 0251 40       		.byte	0x40
ARM GAS  C:\Users\MARTHN~1\AppData\Local\Temp\ccbPVIdg.s 			page 74


 3001 0252 81000000 		.4byte	0x81
 3002 0256 0C       		.byte	0xc
 3003 0257 07       		.uleb128 0x7
 3004 0258 A1000000 		.4byte	.LASF50
 3005 025c 07       		.byte	0x7
 3006 025d 41       		.byte	0x41
 3007 025e 81000000 		.4byte	0x81
 3008 0262 0D       		.byte	0xd
 3009 0263 07       		.uleb128 0x7
 3010 0264 F9050000 		.4byte	.LASF51
 3011 0268 07       		.byte	0x7
 3012 0269 42       		.byte	0x42
 3013 026a 81000000 		.4byte	0x81
 3014 026e 0E       		.byte	0xe
 3015 026f 07       		.uleb128 0x7
 3016 0270 F5020000 		.4byte	.LASF52
 3017 0274 07       		.byte	0x7
 3018 0275 43       		.byte	0x43
 3019 0276 81000000 		.4byte	0x81
 3020 027a 0F       		.byte	0xf
 3021 027b 07       		.uleb128 0x7
 3022 027c 1D020000 		.4byte	.LASF53
 3023 0280 07       		.byte	0x7
 3024 0281 44       		.byte	0x44
 3025 0282 81000000 		.4byte	0x81
 3026 0286 10       		.byte	0x10
 3027 0287 07       		.uleb128 0x7
 3028 0288 98020000 		.4byte	.LASF54
 3029 028c 07       		.byte	0x7
 3030 028d 45       		.byte	0x45
 3031 028e 81000000 		.4byte	0x81
 3032 0292 11       		.byte	0x11
 3033 0293 07       		.uleb128 0x7
 3034 0294 E1040000 		.4byte	.LASF55
 3035 0298 07       		.byte	0x7
 3036 0299 46       		.byte	0x46
 3037 029a 81000000 		.4byte	0x81
 3038 029e 12       		.byte	0x12
 3039 029f 07       		.uleb128 0x7
 3040 02a0 AF040000 		.4byte	.LASF56
 3041 02a4 07       		.byte	0x7
 3042 02a5 47       		.byte	0x47
 3043 02a6 81000000 		.4byte	0x81
 3044 02aa 13       		.byte	0x13
 3045 02ab 07       		.uleb128 0x7
 3046 02ac 95040000 		.4byte	.LASF57
 3047 02b0 07       		.byte	0x7
 3048 02b1 48       		.byte	0x48
 3049 02b2 81000000 		.4byte	0x81
 3050 02b6 14       		.byte	0x14
 3051 02b7 07       		.uleb128 0x7
 3052 02b8 650A0000 		.4byte	.LASF58
 3053 02bc 07       		.byte	0x7
 3054 02bd 49       		.byte	0x49
 3055 02be 81000000 		.4byte	0x81
 3056 02c2 15       		.byte	0x15
 3057 02c3 07       		.uleb128 0x7
ARM GAS  C:\Users\MARTHN~1\AppData\Local\Temp\ccbPVIdg.s 			page 75


 3058 02c4 500A0000 		.4byte	.LASF59
 3059 02c8 07       		.byte	0x7
 3060 02c9 4A       		.byte	0x4a
 3061 02ca 81000000 		.4byte	0x81
 3062 02ce 16       		.byte	0x16
 3063 02cf 07       		.uleb128 0x7
 3064 02d0 3E0A0000 		.4byte	.LASF60
 3065 02d4 07       		.byte	0x7
 3066 02d5 4B       		.byte	0x4b
 3067 02d6 81000000 		.4byte	0x81
 3068 02da 17       		.byte	0x17
 3069 02db 07       		.uleb128 0x7
 3070 02dc A8010000 		.4byte	.LASF61
 3071 02e0 07       		.byte	0x7
 3072 02e1 4C       		.byte	0x4c
 3073 02e2 81000000 		.4byte	0x81
 3074 02e6 18       		.byte	0x18
 3075 02e7 07       		.uleb128 0x7
 3076 02e8 6D010000 		.4byte	.LASF62
 3077 02ec 07       		.byte	0x7
 3078 02ed 4D       		.byte	0x4d
 3079 02ee 81000000 		.4byte	0x81
 3080 02f2 19       		.byte	0x19
 3081 02f3 07       		.uleb128 0x7
 3082 02f4 4F010000 		.4byte	.LASF63
 3083 02f8 07       		.byte	0x7
 3084 02f9 4E       		.byte	0x4e
 3085 02fa 81000000 		.4byte	0x81
 3086 02fe 1A       		.byte	0x1a
 3087 02ff 07       		.uleb128 0x7
 3088 0300 26030000 		.4byte	.LASF64
 3089 0304 07       		.byte	0x7
 3090 0305 4F       		.byte	0x4f
 3091 0306 81000000 		.4byte	0x81
 3092 030a 1B       		.byte	0x1b
 3093 030b 07       		.uleb128 0x7
 3094 030c FE020000 		.4byte	.LASF65
 3095 0310 07       		.byte	0x7
 3096 0311 50       		.byte	0x50
 3097 0312 81000000 		.4byte	0x81
 3098 0316 1C       		.byte	0x1c
 3099 0317 07       		.uleb128 0x7
 3100 0318 E6020000 		.4byte	.LASF66
 3101 031c 07       		.byte	0x7
 3102 031d 51       		.byte	0x51
 3103 031e 81000000 		.4byte	0x81
 3104 0322 1D       		.byte	0x1d
 3105 0323 07       		.uleb128 0x7
 3106 0324 25050000 		.4byte	.LASF67
 3107 0328 07       		.byte	0x7
 3108 0329 52       		.byte	0x52
 3109 032a 81000000 		.4byte	0x81
 3110 032e 1E       		.byte	0x1e
 3111 032f 07       		.uleb128 0x7
 3112 0330 F2040000 		.4byte	.LASF68
 3113 0334 07       		.byte	0x7
 3114 0335 53       		.byte	0x53
ARM GAS  C:\Users\MARTHN~1\AppData\Local\Temp\ccbPVIdg.s 			page 76


 3115 0336 81000000 		.4byte	0x81
 3116 033a 1F       		.byte	0x1f
 3117 033b 07       		.uleb128 0x7
 3118 033c D8040000 		.4byte	.LASF69
 3119 0340 07       		.byte	0x7
 3120 0341 54       		.byte	0x54
 3121 0342 81000000 		.4byte	0x81
 3122 0346 20       		.byte	0x20
 3123 0347 07       		.uleb128 0x7
 3124 0348 0C070000 		.4byte	.LASF70
 3125 034c 07       		.byte	0x7
 3126 034d 55       		.byte	0x55
 3127 034e 81000000 		.4byte	0x81
 3128 0352 21       		.byte	0x21
 3129 0353 07       		.uleb128 0x7
 3130 0354 CB060000 		.4byte	.LASF71
 3131 0358 07       		.byte	0x7
 3132 0359 56       		.byte	0x56
 3133 035a 81000000 		.4byte	0x81
 3134 035e 22       		.byte	0x22
 3135 035f 07       		.uleb128 0x7
 3136 0360 C2060000 		.4byte	.LASF72
 3137 0364 07       		.byte	0x7
 3138 0365 57       		.byte	0x57
 3139 0366 81000000 		.4byte	0x81
 3140 036a 23       		.byte	0x23
 3141 036b 07       		.uleb128 0x7
 3142 036c 23090000 		.4byte	.LASF73
 3143 0370 07       		.byte	0x7
 3144 0371 58       		.byte	0x58
 3145 0372 81000000 		.4byte	0x81
 3146 0376 24       		.byte	0x24
 3147 0377 07       		.uleb128 0x7
 3148 0378 E8080000 		.4byte	.LASF74
 3149 037c 07       		.byte	0x7
 3150 037d 59       		.byte	0x59
 3151 037e 81000000 		.4byte	0x81
 3152 0382 25       		.byte	0x25
 3153 0383 07       		.uleb128 0x7
 3154 0384 C5080000 		.4byte	.LASF75
 3155 0388 07       		.byte	0x7
 3156 0389 5A       		.byte	0x5a
 3157 038a 81000000 		.4byte	0x81
 3158 038e 26       		.byte	0x26
 3159 038f 07       		.uleb128 0x7
 3160 0390 34000000 		.4byte	.LASF76
 3161 0394 07       		.byte	0x7
 3162 0395 5B       		.byte	0x5b
 3163 0396 81000000 		.4byte	0x81
 3164 039a 27       		.byte	0x27
 3165 039b 07       		.uleb128 0x7
 3166 039c 190B0000 		.4byte	.LASF77
 3167 03a0 07       		.byte	0x7
 3168 03a1 5C       		.byte	0x5c
 3169 03a2 81000000 		.4byte	0x81
 3170 03a6 28       		.byte	0x28
 3171 03a7 07       		.uleb128 0x7
ARM GAS  C:\Users\MARTHN~1\AppData\Local\Temp\ccbPVIdg.s 			page 77


 3172 03a8 0B0B0000 		.4byte	.LASF78
 3173 03ac 07       		.byte	0x7
 3174 03ad 5D       		.byte	0x5d
 3175 03ae 81000000 		.4byte	0x81
 3176 03b2 29       		.byte	0x29
 3177 03b3 07       		.uleb128 0x7
 3178 03b4 72020000 		.4byte	.LASF79
 3179 03b8 07       		.byte	0x7
 3180 03b9 5E       		.byte	0x5e
 3181 03ba 81000000 		.4byte	0x81
 3182 03be 2A       		.byte	0x2a
 3183 03bf 07       		.uleb128 0x7
 3184 03c0 60020000 		.4byte	.LASF80
 3185 03c4 07       		.byte	0x7
 3186 03c5 5F       		.byte	0x5f
 3187 03c6 81000000 		.4byte	0x81
 3188 03ca 2B       		.byte	0x2b
 3189 03cb 07       		.uleb128 0x7
 3190 03cc 57020000 		.4byte	.LASF81
 3191 03d0 07       		.byte	0x7
 3192 03d1 60       		.byte	0x60
 3193 03d2 81000000 		.4byte	0x81
 3194 03d6 2C       		.byte	0x2c
 3195 03d7 07       		.uleb128 0x7
 3196 03d8 24040000 		.4byte	.LASF82
 3197 03dc 07       		.byte	0x7
 3198 03dd 61       		.byte	0x61
 3199 03de 81000000 		.4byte	0x81
 3200 03e2 2D       		.byte	0x2d
 3201 03e3 07       		.uleb128 0x7
 3202 03e4 E7030000 		.4byte	.LASF83
 3203 03e8 07       		.byte	0x7
 3204 03e9 62       		.byte	0x62
 3205 03ea 81000000 		.4byte	0x81
 3206 03ee 2E       		.byte	0x2e
 3207 03ef 07       		.uleb128 0x7
 3208 03f0 3D000000 		.4byte	.LASF84
 3209 03f4 07       		.byte	0x7
 3210 03f5 63       		.byte	0x63
 3211 03f6 81000000 		.4byte	0x81
 3212 03fa 2F       		.byte	0x2f
 3213 03fb 07       		.uleb128 0x7
 3214 03fc A1020000 		.4byte	.LASF85
 3215 0400 07       		.byte	0x7
 3216 0401 64       		.byte	0x64
 3217 0402 81000000 		.4byte	0x81
 3218 0406 30       		.byte	0x30
 3219 0407 07       		.uleb128 0x7
 3220 0408 F1080000 		.4byte	.LASF86
 3221 040c 07       		.byte	0x7
 3222 040d 65       		.byte	0x65
 3223 040e 81000000 		.4byte	0x81
 3224 0412 31       		.byte	0x31
 3225 0413 07       		.uleb128 0x7
 3226 0414 DB090000 		.4byte	.LASF87
 3227 0418 07       		.byte	0x7
 3228 0419 66       		.byte	0x66
ARM GAS  C:\Users\MARTHN~1\AppData\Local\Temp\ccbPVIdg.s 			page 78


 3229 041a 81000000 		.4byte	0x81
 3230 041e 32       		.byte	0x32
 3231 041f 07       		.uleb128 0x7
 3232 0420 AA020000 		.4byte	.LASF88
 3233 0424 07       		.byte	0x7
 3234 0425 67       		.byte	0x67
 3235 0426 81000000 		.4byte	0x81
 3236 042a 33       		.byte	0x33
 3237 042b 07       		.uleb128 0x7
 3238 042c 04040000 		.4byte	.LASF89
 3239 0430 07       		.byte	0x7
 3240 0431 68       		.byte	0x68
 3241 0432 81000000 		.4byte	0x81
 3242 0436 34       		.byte	0x34
 3243 0437 07       		.uleb128 0x7
 3244 0438 EB050000 		.4byte	.LASF90
 3245 043c 07       		.byte	0x7
 3246 043d 69       		.byte	0x69
 3247 043e 81000000 		.4byte	0x81
 3248 0442 35       		.byte	0x35
 3249 0443 07       		.uleb128 0x7
 3250 0444 B3060000 		.4byte	.LASF91
 3251 0448 07       		.byte	0x7
 3252 0449 6A       		.byte	0x6a
 3253 044a 81000000 		.4byte	0x81
 3254 044e 36       		.byte	0x36
 3255 044f 07       		.uleb128 0x7
 3256 0450 3C090000 		.4byte	.LASF92
 3257 0454 07       		.byte	0x7
 3258 0455 6B       		.byte	0x6b
 3259 0456 81000000 		.4byte	0x81
 3260 045a 37       		.byte	0x37
 3261 045b 07       		.uleb128 0x7
 3262 045c 4C090000 		.4byte	.LASF93
 3263 0460 07       		.byte	0x7
 3264 0461 6C       		.byte	0x6c
 3265 0462 81000000 		.4byte	0x81
 3266 0466 38       		.byte	0x38
 3267 0467 07       		.uleb128 0x7
 3268 0468 5C090000 		.4byte	.LASF94
 3269 046c 07       		.byte	0x7
 3270 046d 6D       		.byte	0x6d
 3271 046e 81000000 		.4byte	0x81
 3272 0472 39       		.byte	0x39
 3273 0473 07       		.uleb128 0x7
 3274 0474 9F030000 		.4byte	.LASF95
 3275 0478 07       		.byte	0x7
 3276 0479 6E       		.byte	0x6e
 3277 047a 81000000 		.4byte	0x81
 3278 047e 3A       		.byte	0x3a
 3279 047f 07       		.uleb128 0x7
 3280 0480 87000000 		.4byte	.LASF96
 3281 0484 07       		.byte	0x7
 3282 0485 6F       		.byte	0x6f
 3283 0486 81000000 		.4byte	0x81
 3284 048a 3B       		.byte	0x3b
 3285 048b 07       		.uleb128 0x7
ARM GAS  C:\Users\MARTHN~1\AppData\Local\Temp\ccbPVIdg.s 			page 79


 3286 048c 9E040000 		.4byte	.LASF97
 3287 0490 07       		.byte	0x7
 3288 0491 70       		.byte	0x70
 3289 0492 81000000 		.4byte	0x81
 3290 0496 3C       		.byte	0x3c
 3291 0497 07       		.uleb128 0x7
 3292 0498 82030000 		.4byte	.LASF98
 3293 049c 07       		.byte	0x7
 3294 049d 71       		.byte	0x71
 3295 049e 81000000 		.4byte	0x81
 3296 04a2 3D       		.byte	0x3d
 3297 04a3 07       		.uleb128 0x7
 3298 04a4 FD070000 		.4byte	.LASF99
 3299 04a8 07       		.byte	0x7
 3300 04a9 72       		.byte	0x72
 3301 04aa 81000000 		.4byte	0x81
 3302 04ae 3E       		.byte	0x3e
 3303 04af 07       		.uleb128 0x7
 3304 04b0 F9030000 		.4byte	.LASF100
 3305 04b4 07       		.byte	0x7
 3306 04b5 73       		.byte	0x73
 3307 04b6 81000000 		.4byte	0x81
 3308 04ba 3F       		.byte	0x3f
 3309 04bb 07       		.uleb128 0x7
 3310 04bc 36020000 		.4byte	.LASF101
 3311 04c0 07       		.byte	0x7
 3312 04c1 74       		.byte	0x74
 3313 04c2 81000000 		.4byte	0x81
 3314 04c6 40       		.byte	0x40
 3315 04c7 07       		.uleb128 0x7
 3316 04c8 2C090000 		.4byte	.LASF102
 3317 04cc 07       		.byte	0x7
 3318 04cd 75       		.byte	0x75
 3319 04ce 81000000 		.4byte	0x81
 3320 04d2 41       		.byte	0x41
 3321 04d3 07       		.uleb128 0x7
 3322 04d4 CB030000 		.4byte	.LASF103
 3323 04d8 07       		.byte	0x7
 3324 04d9 76       		.byte	0x76
 3325 04da 81000000 		.4byte	0x81
 3326 04de 42       		.byte	0x42
 3327 04df 07       		.uleb128 0x7
 3328 04e0 D7080000 		.4byte	.LASF104
 3329 04e4 07       		.byte	0x7
 3330 04e5 77       		.byte	0x77
 3331 04e6 81000000 		.4byte	0x81
 3332 04ea 43       		.byte	0x43
 3333 04eb 07       		.uleb128 0x7
 3334 04ec B8040000 		.4byte	.LASF105
 3335 04f0 07       		.byte	0x7
 3336 04f1 78       		.byte	0x78
 3337 04f2 81000000 		.4byte	0x81
 3338 04f6 44       		.byte	0x44
 3339 04f7 07       		.uleb128 0x7
 3340 04f8 60030000 		.4byte	.LASF106
 3341 04fc 07       		.byte	0x7
 3342 04fd 79       		.byte	0x79
ARM GAS  C:\Users\MARTHN~1\AppData\Local\Temp\ccbPVIdg.s 			page 80


 3343 04fe 81000000 		.4byte	0x81
 3344 0502 45       		.byte	0x45
 3345 0503 07       		.uleb128 0x7
 3346 0504 1F080000 		.4byte	.LASF107
 3347 0508 07       		.byte	0x7
 3348 0509 7A       		.byte	0x7a
 3349 050a 81000000 		.4byte	0x81
 3350 050e 46       		.byte	0x46
 3351 050f 07       		.uleb128 0x7
 3352 0510 D7020000 		.4byte	.LASF108
 3353 0514 07       		.byte	0x7
 3354 0515 7B       		.byte	0x7b
 3355 0516 81000000 		.4byte	0x81
 3356 051a 47       		.byte	0x47
 3357 051b 07       		.uleb128 0x7
 3358 051c 02060000 		.4byte	.LASF109
 3359 0520 07       		.byte	0x7
 3360 0521 7C       		.byte	0x7c
 3361 0522 81000000 		.4byte	0x81
 3362 0526 48       		.byte	0x48
 3363 0527 07       		.uleb128 0x7
 3364 0528 01050000 		.4byte	.LASF110
 3365 052c 07       		.byte	0x7
 3366 052d 7D       		.byte	0x7d
 3367 052e 81000000 		.4byte	0x81
 3368 0532 49       		.byte	0x49
 3369 0533 07       		.uleb128 0x7
 3370 0534 19040000 		.4byte	.LASF111
 3371 0538 07       		.byte	0x7
 3372 0539 7E       		.byte	0x7e
 3373 053a 81000000 		.4byte	0x81
 3374 053e 4A       		.byte	0x4a
 3375 053f 0C       		.uleb128 0xc
 3376 0540 52524200 		.ascii	"RRB\000"
 3377 0544 07       		.byte	0x7
 3378 0545 7F       		.byte	0x7f
 3379 0546 81000000 		.4byte	0x81
 3380 054a 4B       		.byte	0x4b
 3381 054b 07       		.uleb128 0x7
 3382 054c 08080000 		.4byte	.LASF112
 3383 0550 07       		.byte	0x7
 3384 0551 80       		.byte	0x80
 3385 0552 81000000 		.4byte	0x81
 3386 0556 4C       		.byte	0x4c
 3387 0557 07       		.uleb128 0x7
 3388 0558 81020000 		.4byte	.LASF113
 3389 055c 07       		.byte	0x7
 3390 055d 81       		.byte	0x81
 3391 055e 81000000 		.4byte	0x81
 3392 0562 4D       		.byte	0x4d
 3393 0563 07       		.uleb128 0x7
 3394 0564 A9070000 		.4byte	.LASF114
 3395 0568 07       		.byte	0x7
 3396 0569 82       		.byte	0x82
 3397 056a 81000000 		.4byte	0x81
 3398 056e 4E       		.byte	0x4e
 3399 056f 00       		.byte	0
ARM GAS  C:\Users\MARTHN~1\AppData\Local\Temp\ccbPVIdg.s 			page 81


 3400 0570 0A       		.uleb128 0xa
 3401 0571 9F060000 		.4byte	.LASF116
 3402 0575 4F       		.byte	0x4f
 3403 0576 07       		.byte	0x7
 3404 0577 2E       		.byte	0x2e
 3405 0578 93050000 		.4byte	0x593
 3406 057c 0B       		.uleb128 0xb
 3407 057d EF020000 		.4byte	.LASF33
 3408 0581 07       		.byte	0x7
 3409 0582 30       		.byte	0x30
 3410 0583 93050000 		.4byte	0x593
 3411 0587 0B       		.uleb128 0xb
 3412 0588 EA040000 		.4byte	.LASF34
 3413 058c 07       		.byte	0x7
 3414 058d 83       		.byte	0x83
 3415 058e AF010000 		.4byte	0x1af
 3416 0592 00       		.byte	0
 3417 0593 08       		.uleb128 0x8
 3418 0594 81000000 		.4byte	0x81
 3419 0598 A3050000 		.4byte	0x5a3
 3420 059c 09       		.uleb128 0x9
 3421 059d B5000000 		.4byte	0xb5
 3422 05a1 4E       		.byte	0x4e
 3423 05a2 00       		.byte	0
 3424 05a3 03       		.uleb128 0x3
 3425 05a4 37050000 		.4byte	.LASF117
 3426 05a8 07       		.byte	0x7
 3427 05a9 84       		.byte	0x84
 3428 05aa 70050000 		.4byte	0x570
 3429 05ae 06       		.uleb128 0x6
 3430 05af 9B050000 		.4byte	.LASF118
 3431 05b3 0F       		.byte	0xf
 3432 05b4 07       		.byte	0x7
 3433 05b5 8B       		.byte	0x8b
 3434 05b6 6F060000 		.4byte	0x66f
 3435 05ba 07       		.uleb128 0x7
 3436 05bb 59080000 		.4byte	.LASF119
 3437 05bf 07       		.byte	0x7
 3438 05c0 8D       		.byte	0x8d
 3439 05c1 81000000 		.4byte	0x81
 3440 05c5 00       		.byte	0
 3441 05c6 07       		.uleb128 0x7
 3442 05c7 68080000 		.4byte	.LASF120
 3443 05cb 07       		.byte	0x7
 3444 05cc 8E       		.byte	0x8e
 3445 05cd 81000000 		.4byte	0x81
 3446 05d1 01       		.byte	0x1
 3447 05d2 07       		.uleb128 0x7
 3448 05d3 77080000 		.4byte	.LASF121
 3449 05d7 07       		.byte	0x7
 3450 05d8 8F       		.byte	0x8f
 3451 05d9 81000000 		.4byte	0x81
 3452 05dd 02       		.byte	0x2
 3453 05de 07       		.uleb128 0x7
 3454 05df 86080000 		.4byte	.LASF122
 3455 05e3 07       		.byte	0x7
 3456 05e4 90       		.byte	0x90
ARM GAS  C:\Users\MARTHN~1\AppData\Local\Temp\ccbPVIdg.s 			page 82


 3457 05e5 81000000 		.4byte	0x81
 3458 05e9 03       		.byte	0x3
 3459 05ea 07       		.uleb128 0x7
 3460 05eb 6E0A0000 		.4byte	.LASF123
 3461 05ef 07       		.byte	0x7
 3462 05f0 91       		.byte	0x91
 3463 05f1 81000000 		.4byte	0x81
 3464 05f5 04       		.byte	0x4
 3465 05f6 07       		.uleb128 0x7
 3466 05f7 6D030000 		.4byte	.LASF124
 3467 05fb 07       		.byte	0x7
 3468 05fc 92       		.byte	0x92
 3469 05fd 81000000 		.4byte	0x81
 3470 0601 05       		.byte	0x5
 3471 0602 07       		.uleb128 0x7
 3472 0603 48060000 		.4byte	.LASF125
 3473 0607 07       		.byte	0x7
 3474 0608 93       		.byte	0x93
 3475 0609 81000000 		.4byte	0x81
 3476 060d 06       		.byte	0x6
 3477 060e 07       		.uleb128 0x7
 3478 060f 93030000 		.4byte	.LASF126
 3479 0613 07       		.byte	0x7
 3480 0614 94       		.byte	0x94
 3481 0615 81000000 		.4byte	0x81
 3482 0619 07       		.byte	0x7
 3483 061a 07       		.uleb128 0x7
 3484 061b BF030000 		.4byte	.LASF127
 3485 061f 07       		.byte	0x7
 3486 0620 95       		.byte	0x95
 3487 0621 81000000 		.4byte	0x81
 3488 0625 08       		.byte	0x8
 3489 0626 07       		.uleb128 0x7
 3490 0627 0D030000 		.4byte	.LASF128
 3491 062b 07       		.byte	0x7
 3492 062c 96       		.byte	0x96
 3493 062d 81000000 		.4byte	0x81
 3494 0631 09       		.byte	0x9
 3495 0632 07       		.uleb128 0x7
 3496 0633 DB030000 		.4byte	.LASF129
 3497 0637 07       		.byte	0x7
 3498 0638 97       		.byte	0x97
 3499 0639 81000000 		.4byte	0x81
 3500 063d 0A       		.byte	0xa
 3501 063e 07       		.uleb128 0x7
 3502 063f A0090000 		.4byte	.LASF130
 3503 0643 07       		.byte	0x7
 3504 0644 98       		.byte	0x98
 3505 0645 81000000 		.4byte	0x81
 3506 0649 0B       		.byte	0xb
 3507 064a 07       		.uleb128 0x7
 3508 064b AC090000 		.4byte	.LASF131
 3509 064f 07       		.byte	0x7
 3510 0650 99       		.byte	0x99
 3511 0651 81000000 		.4byte	0x81
 3512 0655 0C       		.byte	0xc
 3513 0656 07       		.uleb128 0x7
ARM GAS  C:\Users\MARTHN~1\AppData\Local\Temp\ccbPVIdg.s 			page 83


 3514 0657 EC090000 		.4byte	.LASF132
 3515 065b 07       		.byte	0x7
 3516 065c 9A       		.byte	0x9a
 3517 065d 81000000 		.4byte	0x81
 3518 0661 0D       		.byte	0xd
 3519 0662 07       		.uleb128 0x7
 3520 0663 4B050000 		.4byte	.LASF133
 3521 0667 07       		.byte	0x7
 3522 0668 9B       		.byte	0x9b
 3523 0669 81000000 		.4byte	0x81
 3524 066d 0E       		.byte	0xe
 3525 066e 00       		.byte	0
 3526 066f 0A       		.uleb128 0xa
 3527 0670 C5010000 		.4byte	.LASF134
 3528 0674 0F       		.byte	0xf
 3529 0675 07       		.byte	0x7
 3530 0676 87       		.byte	0x87
 3531 0677 92060000 		.4byte	0x692
 3532 067b 0B       		.uleb128 0xb
 3533 067c EF020000 		.4byte	.LASF33
 3534 0680 07       		.byte	0x7
 3535 0681 89       		.byte	0x89
 3536 0682 92060000 		.4byte	0x692
 3537 0686 0B       		.uleb128 0xb
 3538 0687 EA040000 		.4byte	.LASF34
 3539 068b 07       		.byte	0x7
 3540 068c 9C       		.byte	0x9c
 3541 068d AE050000 		.4byte	0x5ae
 3542 0691 00       		.byte	0
 3543 0692 08       		.uleb128 0x8
 3544 0693 81000000 		.4byte	0x81
 3545 0697 A2060000 		.4byte	0x6a2
 3546 069b 09       		.uleb128 0x9
 3547 069c B5000000 		.4byte	0xb5
 3548 06a0 0E       		.byte	0xe
 3549 06a1 00       		.byte	0
 3550 06a2 03       		.uleb128 0x3
 3551 06a3 F70A0000 		.4byte	.LASF135
 3552 06a7 07       		.byte	0x7
 3553 06a8 9D       		.byte	0x9d
 3554 06a9 6F060000 		.4byte	0x66f
 3555 06ad 0D       		.uleb128 0xd
 3556 06ae D80A0000 		.4byte	.LASF136
 3557 06b2 50       		.byte	0x50
 3558 06b3 07       		.byte	0x7
 3559 06b4 2D01     		.2byte	0x12d
 3560 06b6 CB0A0000 		.4byte	0xacb
 3561 06ba 0E       		.uleb128 0xe
 3562 06bb F0030000 		.4byte	.LASF37
 3563 06bf 07       		.byte	0x7
 3564 06c0 2F01     		.2byte	0x12f
 3565 06c2 81000000 		.4byte	0x81
 3566 06c6 00       		.byte	0
 3567 06c7 0E       		.uleb128 0xe
 3568 06c8 B6050000 		.4byte	.LASF38
 3569 06cc 07       		.byte	0x7
 3570 06cd 3001     		.2byte	0x130
ARM GAS  C:\Users\MARTHN~1\AppData\Local\Temp\ccbPVIdg.s 			page 84


 3571 06cf 81000000 		.4byte	0x81
 3572 06d3 01       		.byte	0x1
 3573 06d4 0E       		.uleb128 0xe
 3574 06d5 57030000 		.4byte	.LASF39
 3575 06d9 07       		.byte	0x7
 3576 06da 3101     		.2byte	0x131
 3577 06dc 81000000 		.4byte	0x81
 3578 06e0 02       		.byte	0x2
 3579 06e1 0E       		.uleb128 0xe
 3580 06e2 E2050000 		.4byte	.LASF40
 3581 06e6 07       		.byte	0x7
 3582 06e7 3201     		.2byte	0x132
 3583 06e9 81000000 		.4byte	0x81
 3584 06ed 03       		.byte	0x3
 3585 06ee 0E       		.uleb128 0xe
 3586 06ef BF050000 		.4byte	.LASF41
 3587 06f3 07       		.byte	0x7
 3588 06f4 3301     		.2byte	0x133
 3589 06f6 81000000 		.4byte	0x81
 3590 06fa 04       		.byte	0x4
 3591 06fb 0E       		.uleb128 0xe
 3592 06fc AD050000 		.4byte	.LASF42
 3593 0700 07       		.byte	0x7
 3594 0701 3401     		.2byte	0x134
 3595 0703 81000000 		.4byte	0x81
 3596 0707 05       		.byte	0x5
 3597 0708 0E       		.uleb128 0xe
 3598 0709 E1070000 		.4byte	.LASF43
 3599 070d 07       		.byte	0x7
 3600 070e 3501     		.2byte	0x135
 3601 0710 81000000 		.4byte	0x81
 3602 0714 06       		.byte	0x6
 3603 0715 0E       		.uleb128 0xe
 3604 0716 B9070000 		.4byte	.LASF44
 3605 071a 07       		.byte	0x7
 3606 071b 3601     		.2byte	0x136
 3607 071d 81000000 		.4byte	0x81
 3608 0721 07       		.byte	0x7
 3609 0722 0E       		.uleb128 0xe
 3610 0723 90070000 		.4byte	.LASF45
 3611 0727 07       		.byte	0x7
 3612 0728 3701     		.2byte	0x137
 3613 072a 81000000 		.4byte	0x81
 3614 072e 08       		.byte	0x8
 3615 072f 0E       		.uleb128 0xe
 3616 0730 470A0000 		.4byte	.LASF46
 3617 0734 07       		.byte	0x7
 3618 0735 3801     		.2byte	0x138
 3619 0737 81000000 		.4byte	0x81
 3620 073b 09       		.byte	0x9
 3621 073c 0E       		.uleb128 0xe
 3622 073d 100A0000 		.4byte	.LASF47
 3623 0741 07       		.byte	0x7
 3624 0742 3901     		.2byte	0x139
 3625 0744 81000000 		.4byte	0x81
 3626 0748 0A       		.byte	0xa
 3627 0749 0E       		.uleb128 0xe
ARM GAS  C:\Users\MARTHN~1\AppData\Local\Temp\ccbPVIdg.s 			page 85


 3628 074a 2E050000 		.4byte	.LASF48
 3629 074e 07       		.byte	0x7
 3630 074f 3A01     		.2byte	0x13a
 3631 0751 81000000 		.4byte	0x81
 3632 0755 0B       		.byte	0xb
 3633 0756 0E       		.uleb128 0xe
 3634 0757 64010000 		.4byte	.LASF49
 3635 075b 07       		.byte	0x7
 3636 075c 3B01     		.2byte	0x13b
 3637 075e 81000000 		.4byte	0x81
 3638 0762 0C       		.byte	0xc
 3639 0763 0E       		.uleb128 0xe
 3640 0764 A1000000 		.4byte	.LASF50
 3641 0768 07       		.byte	0x7
 3642 0769 3C01     		.2byte	0x13c
 3643 076b 81000000 		.4byte	0x81
 3644 076f 0D       		.byte	0xd
 3645 0770 0E       		.uleb128 0xe
 3646 0771 F9050000 		.4byte	.LASF51
 3647 0775 07       		.byte	0x7
 3648 0776 3D01     		.2byte	0x13d
 3649 0778 81000000 		.4byte	0x81
 3650 077c 0E       		.byte	0xe
 3651 077d 0E       		.uleb128 0xe
 3652 077e F5020000 		.4byte	.LASF52
 3653 0782 07       		.byte	0x7
 3654 0783 3E01     		.2byte	0x13e
 3655 0785 81000000 		.4byte	0x81
 3656 0789 0F       		.byte	0xf
 3657 078a 0E       		.uleb128 0xe
 3658 078b 1D020000 		.4byte	.LASF53
 3659 078f 07       		.byte	0x7
 3660 0790 3F01     		.2byte	0x13f
 3661 0792 81000000 		.4byte	0x81
 3662 0796 10       		.byte	0x10
 3663 0797 0E       		.uleb128 0xe
 3664 0798 98020000 		.4byte	.LASF54
 3665 079c 07       		.byte	0x7
 3666 079d 4001     		.2byte	0x140
 3667 079f 81000000 		.4byte	0x81
 3668 07a3 11       		.byte	0x11
 3669 07a4 0E       		.uleb128 0xe
 3670 07a5 E1040000 		.4byte	.LASF55
 3671 07a9 07       		.byte	0x7
 3672 07aa 4101     		.2byte	0x141
 3673 07ac 81000000 		.4byte	0x81
 3674 07b0 12       		.byte	0x12
 3675 07b1 0E       		.uleb128 0xe
 3676 07b2 AF040000 		.4byte	.LASF56
 3677 07b6 07       		.byte	0x7
 3678 07b7 4201     		.2byte	0x142
 3679 07b9 81000000 		.4byte	0x81
 3680 07bd 13       		.byte	0x13
 3681 07be 0E       		.uleb128 0xe
 3682 07bf 95040000 		.4byte	.LASF57
 3683 07c3 07       		.byte	0x7
 3684 07c4 4301     		.2byte	0x143
ARM GAS  C:\Users\MARTHN~1\AppData\Local\Temp\ccbPVIdg.s 			page 86


 3685 07c6 81000000 		.4byte	0x81
 3686 07ca 14       		.byte	0x14
 3687 07cb 0E       		.uleb128 0xe
 3688 07cc 650A0000 		.4byte	.LASF58
 3689 07d0 07       		.byte	0x7
 3690 07d1 4401     		.2byte	0x144
 3691 07d3 81000000 		.4byte	0x81
 3692 07d7 15       		.byte	0x15
 3693 07d8 0E       		.uleb128 0xe
 3694 07d9 500A0000 		.4byte	.LASF59
 3695 07dd 07       		.byte	0x7
 3696 07de 4501     		.2byte	0x145
 3697 07e0 81000000 		.4byte	0x81
 3698 07e4 16       		.byte	0x16
 3699 07e5 0E       		.uleb128 0xe
 3700 07e6 3E0A0000 		.4byte	.LASF60
 3701 07ea 07       		.byte	0x7
 3702 07eb 4601     		.2byte	0x146
 3703 07ed 81000000 		.4byte	0x81
 3704 07f1 17       		.byte	0x17
 3705 07f2 0E       		.uleb128 0xe
 3706 07f3 A8010000 		.4byte	.LASF61
 3707 07f7 07       		.byte	0x7
 3708 07f8 4701     		.2byte	0x147
 3709 07fa 81000000 		.4byte	0x81
 3710 07fe 18       		.byte	0x18
 3711 07ff 0E       		.uleb128 0xe
 3712 0800 6D010000 		.4byte	.LASF62
 3713 0804 07       		.byte	0x7
 3714 0805 4801     		.2byte	0x148
 3715 0807 81000000 		.4byte	0x81
 3716 080b 19       		.byte	0x19
 3717 080c 0E       		.uleb128 0xe
 3718 080d 4F010000 		.4byte	.LASF63
 3719 0811 07       		.byte	0x7
 3720 0812 4901     		.2byte	0x149
 3721 0814 81000000 		.4byte	0x81
 3722 0818 1A       		.byte	0x1a
 3723 0819 0E       		.uleb128 0xe
 3724 081a 26030000 		.4byte	.LASF64
 3725 081e 07       		.byte	0x7
 3726 081f 4A01     		.2byte	0x14a
 3727 0821 81000000 		.4byte	0x81
 3728 0825 1B       		.byte	0x1b
 3729 0826 0E       		.uleb128 0xe
 3730 0827 FE020000 		.4byte	.LASF65
 3731 082b 07       		.byte	0x7
 3732 082c 4B01     		.2byte	0x14b
 3733 082e 81000000 		.4byte	0x81
 3734 0832 1C       		.byte	0x1c
 3735 0833 0E       		.uleb128 0xe
 3736 0834 E6020000 		.4byte	.LASF66
 3737 0838 07       		.byte	0x7
 3738 0839 4C01     		.2byte	0x14c
 3739 083b 81000000 		.4byte	0x81
 3740 083f 1D       		.byte	0x1d
 3741 0840 0E       		.uleb128 0xe
ARM GAS  C:\Users\MARTHN~1\AppData\Local\Temp\ccbPVIdg.s 			page 87


 3742 0841 25050000 		.4byte	.LASF67
 3743 0845 07       		.byte	0x7
 3744 0846 4D01     		.2byte	0x14d
 3745 0848 81000000 		.4byte	0x81
 3746 084c 1E       		.byte	0x1e
 3747 084d 0E       		.uleb128 0xe
 3748 084e F2040000 		.4byte	.LASF68
 3749 0852 07       		.byte	0x7
 3750 0853 4E01     		.2byte	0x14e
 3751 0855 81000000 		.4byte	0x81
 3752 0859 1F       		.byte	0x1f
 3753 085a 0E       		.uleb128 0xe
 3754 085b D8040000 		.4byte	.LASF69
 3755 085f 07       		.byte	0x7
 3756 0860 4F01     		.2byte	0x14f
 3757 0862 81000000 		.4byte	0x81
 3758 0866 20       		.byte	0x20
 3759 0867 0E       		.uleb128 0xe
 3760 0868 0C070000 		.4byte	.LASF70
 3761 086c 07       		.byte	0x7
 3762 086d 5001     		.2byte	0x150
 3763 086f 81000000 		.4byte	0x81
 3764 0873 21       		.byte	0x21
 3765 0874 0E       		.uleb128 0xe
 3766 0875 CB060000 		.4byte	.LASF71
 3767 0879 07       		.byte	0x7
 3768 087a 5101     		.2byte	0x151
 3769 087c 81000000 		.4byte	0x81
 3770 0880 22       		.byte	0x22
 3771 0881 0E       		.uleb128 0xe
 3772 0882 C2060000 		.4byte	.LASF72
 3773 0886 07       		.byte	0x7
 3774 0887 5201     		.2byte	0x152
 3775 0889 81000000 		.4byte	0x81
 3776 088d 23       		.byte	0x23
 3777 088e 0E       		.uleb128 0xe
 3778 088f 23090000 		.4byte	.LASF73
 3779 0893 07       		.byte	0x7
 3780 0894 5301     		.2byte	0x153
 3781 0896 81000000 		.4byte	0x81
 3782 089a 24       		.byte	0x24
 3783 089b 0E       		.uleb128 0xe
 3784 089c E8080000 		.4byte	.LASF74
 3785 08a0 07       		.byte	0x7
 3786 08a1 5401     		.2byte	0x154
 3787 08a3 81000000 		.4byte	0x81
 3788 08a7 25       		.byte	0x25
 3789 08a8 0E       		.uleb128 0xe
 3790 08a9 C5080000 		.4byte	.LASF75
 3791 08ad 07       		.byte	0x7
 3792 08ae 5501     		.2byte	0x155
 3793 08b0 81000000 		.4byte	0x81
 3794 08b4 26       		.byte	0x26
 3795 08b5 0E       		.uleb128 0xe
 3796 08b6 34000000 		.4byte	.LASF76
 3797 08ba 07       		.byte	0x7
 3798 08bb 5601     		.2byte	0x156
ARM GAS  C:\Users\MARTHN~1\AppData\Local\Temp\ccbPVIdg.s 			page 88


 3799 08bd 81000000 		.4byte	0x81
 3800 08c1 27       		.byte	0x27
 3801 08c2 0E       		.uleb128 0xe
 3802 08c3 190B0000 		.4byte	.LASF77
 3803 08c7 07       		.byte	0x7
 3804 08c8 5701     		.2byte	0x157
 3805 08ca 81000000 		.4byte	0x81
 3806 08ce 28       		.byte	0x28
 3807 08cf 0E       		.uleb128 0xe
 3808 08d0 0B0B0000 		.4byte	.LASF78
 3809 08d4 07       		.byte	0x7
 3810 08d5 5801     		.2byte	0x158
 3811 08d7 81000000 		.4byte	0x81
 3812 08db 29       		.byte	0x29
 3813 08dc 0E       		.uleb128 0xe
 3814 08dd 72020000 		.4byte	.LASF79
 3815 08e1 07       		.byte	0x7
 3816 08e2 5901     		.2byte	0x159
 3817 08e4 81000000 		.4byte	0x81
 3818 08e8 2A       		.byte	0x2a
 3819 08e9 0E       		.uleb128 0xe
 3820 08ea 60020000 		.4byte	.LASF80
 3821 08ee 07       		.byte	0x7
 3822 08ef 5A01     		.2byte	0x15a
 3823 08f1 81000000 		.4byte	0x81
 3824 08f5 2B       		.byte	0x2b
 3825 08f6 0E       		.uleb128 0xe
 3826 08f7 57020000 		.4byte	.LASF81
 3827 08fb 07       		.byte	0x7
 3828 08fc 5B01     		.2byte	0x15b
 3829 08fe 81000000 		.4byte	0x81
 3830 0902 2C       		.byte	0x2c
 3831 0903 0E       		.uleb128 0xe
 3832 0904 24040000 		.4byte	.LASF82
 3833 0908 07       		.byte	0x7
 3834 0909 5C01     		.2byte	0x15c
 3835 090b 81000000 		.4byte	0x81
 3836 090f 2D       		.byte	0x2d
 3837 0910 0E       		.uleb128 0xe
 3838 0911 E7030000 		.4byte	.LASF83
 3839 0915 07       		.byte	0x7
 3840 0916 5D01     		.2byte	0x15d
 3841 0918 81000000 		.4byte	0x81
 3842 091c 2E       		.byte	0x2e
 3843 091d 0E       		.uleb128 0xe
 3844 091e 3D000000 		.4byte	.LASF84
 3845 0922 07       		.byte	0x7
 3846 0923 5E01     		.2byte	0x15e
 3847 0925 81000000 		.4byte	0x81
 3848 0929 2F       		.byte	0x2f
 3849 092a 0E       		.uleb128 0xe
 3850 092b A1020000 		.4byte	.LASF85
 3851 092f 07       		.byte	0x7
 3852 0930 5F01     		.2byte	0x15f
 3853 0932 81000000 		.4byte	0x81
 3854 0936 30       		.byte	0x30
 3855 0937 0E       		.uleb128 0xe
ARM GAS  C:\Users\MARTHN~1\AppData\Local\Temp\ccbPVIdg.s 			page 89


 3856 0938 F1080000 		.4byte	.LASF86
 3857 093c 07       		.byte	0x7
 3858 093d 6001     		.2byte	0x160
 3859 093f 81000000 		.4byte	0x81
 3860 0943 31       		.byte	0x31
 3861 0944 0E       		.uleb128 0xe
 3862 0945 DB090000 		.4byte	.LASF87
 3863 0949 07       		.byte	0x7
 3864 094a 6101     		.2byte	0x161
 3865 094c 81000000 		.4byte	0x81
 3866 0950 32       		.byte	0x32
 3867 0951 0E       		.uleb128 0xe
 3868 0952 AA020000 		.4byte	.LASF88
 3869 0956 07       		.byte	0x7
 3870 0957 6201     		.2byte	0x162
 3871 0959 81000000 		.4byte	0x81
 3872 095d 33       		.byte	0x33
 3873 095e 0E       		.uleb128 0xe
 3874 095f 04040000 		.4byte	.LASF89
 3875 0963 07       		.byte	0x7
 3876 0964 6301     		.2byte	0x163
 3877 0966 81000000 		.4byte	0x81
 3878 096a 34       		.byte	0x34
 3879 096b 0E       		.uleb128 0xe
 3880 096c EB050000 		.4byte	.LASF90
 3881 0970 07       		.byte	0x7
 3882 0971 6401     		.2byte	0x164
 3883 0973 81000000 		.4byte	0x81
 3884 0977 35       		.byte	0x35
 3885 0978 0E       		.uleb128 0xe
 3886 0979 B3060000 		.4byte	.LASF91
 3887 097d 07       		.byte	0x7
 3888 097e 6501     		.2byte	0x165
 3889 0980 81000000 		.4byte	0x81
 3890 0984 36       		.byte	0x36
 3891 0985 0E       		.uleb128 0xe
 3892 0986 3C090000 		.4byte	.LASF92
 3893 098a 07       		.byte	0x7
 3894 098b 6601     		.2byte	0x166
 3895 098d 81000000 		.4byte	0x81
 3896 0991 37       		.byte	0x37
 3897 0992 0E       		.uleb128 0xe
 3898 0993 4C090000 		.4byte	.LASF93
 3899 0997 07       		.byte	0x7
 3900 0998 6701     		.2byte	0x167
 3901 099a 81000000 		.4byte	0x81
 3902 099e 38       		.byte	0x38
 3903 099f 0E       		.uleb128 0xe
 3904 09a0 5C090000 		.4byte	.LASF94
 3905 09a4 07       		.byte	0x7
 3906 09a5 6801     		.2byte	0x168
 3907 09a7 81000000 		.4byte	0x81
 3908 09ab 39       		.byte	0x39
 3909 09ac 0E       		.uleb128 0xe
 3910 09ad 9F030000 		.4byte	.LASF95
 3911 09b1 07       		.byte	0x7
 3912 09b2 6901     		.2byte	0x169
ARM GAS  C:\Users\MARTHN~1\AppData\Local\Temp\ccbPVIdg.s 			page 90


 3913 09b4 81000000 		.4byte	0x81
 3914 09b8 3A       		.byte	0x3a
 3915 09b9 0E       		.uleb128 0xe
 3916 09ba 87000000 		.4byte	.LASF96
 3917 09be 07       		.byte	0x7
 3918 09bf 6A01     		.2byte	0x16a
 3919 09c1 81000000 		.4byte	0x81
 3920 09c5 3B       		.byte	0x3b
 3921 09c6 0E       		.uleb128 0xe
 3922 09c7 9E040000 		.4byte	.LASF97
 3923 09cb 07       		.byte	0x7
 3924 09cc 6B01     		.2byte	0x16b
 3925 09ce 81000000 		.4byte	0x81
 3926 09d2 3C       		.byte	0x3c
 3927 09d3 0E       		.uleb128 0xe
 3928 09d4 82030000 		.4byte	.LASF98
 3929 09d8 07       		.byte	0x7
 3930 09d9 6C01     		.2byte	0x16c
 3931 09db 81000000 		.4byte	0x81
 3932 09df 3D       		.byte	0x3d
 3933 09e0 0E       		.uleb128 0xe
 3934 09e1 FD070000 		.4byte	.LASF99
 3935 09e5 07       		.byte	0x7
 3936 09e6 6D01     		.2byte	0x16d
 3937 09e8 81000000 		.4byte	0x81
 3938 09ec 3E       		.byte	0x3e
 3939 09ed 0E       		.uleb128 0xe
 3940 09ee F9030000 		.4byte	.LASF100
 3941 09f2 07       		.byte	0x7
 3942 09f3 6E01     		.2byte	0x16e
 3943 09f5 81000000 		.4byte	0x81
 3944 09f9 3F       		.byte	0x3f
 3945 09fa 0E       		.uleb128 0xe
 3946 09fb 36020000 		.4byte	.LASF101
 3947 09ff 07       		.byte	0x7
 3948 0a00 6F01     		.2byte	0x16f
 3949 0a02 81000000 		.4byte	0x81
 3950 0a06 40       		.byte	0x40
 3951 0a07 0E       		.uleb128 0xe
 3952 0a08 2C090000 		.4byte	.LASF102
 3953 0a0c 07       		.byte	0x7
 3954 0a0d 7001     		.2byte	0x170
 3955 0a0f 81000000 		.4byte	0x81
 3956 0a13 41       		.byte	0x41
 3957 0a14 0E       		.uleb128 0xe
 3958 0a15 CB030000 		.4byte	.LASF103
 3959 0a19 07       		.byte	0x7
 3960 0a1a 7101     		.2byte	0x171
 3961 0a1c 81000000 		.4byte	0x81
 3962 0a20 42       		.byte	0x42
 3963 0a21 0E       		.uleb128 0xe
 3964 0a22 D7080000 		.4byte	.LASF104
 3965 0a26 07       		.byte	0x7
 3966 0a27 7201     		.2byte	0x172
 3967 0a29 81000000 		.4byte	0x81
 3968 0a2d 43       		.byte	0x43
 3969 0a2e 0E       		.uleb128 0xe
ARM GAS  C:\Users\MARTHN~1\AppData\Local\Temp\ccbPVIdg.s 			page 91


 3970 0a2f B8040000 		.4byte	.LASF105
 3971 0a33 07       		.byte	0x7
 3972 0a34 7301     		.2byte	0x173
 3973 0a36 81000000 		.4byte	0x81
 3974 0a3a 44       		.byte	0x44
 3975 0a3b 0E       		.uleb128 0xe
 3976 0a3c 60030000 		.4byte	.LASF106
 3977 0a40 07       		.byte	0x7
 3978 0a41 7401     		.2byte	0x174
 3979 0a43 81000000 		.4byte	0x81
 3980 0a47 45       		.byte	0x45
 3981 0a48 0E       		.uleb128 0xe
 3982 0a49 1F080000 		.4byte	.LASF107
 3983 0a4d 07       		.byte	0x7
 3984 0a4e 7501     		.2byte	0x175
 3985 0a50 81000000 		.4byte	0x81
 3986 0a54 46       		.byte	0x46
 3987 0a55 0E       		.uleb128 0xe
 3988 0a56 D7020000 		.4byte	.LASF108
 3989 0a5a 07       		.byte	0x7
 3990 0a5b 7601     		.2byte	0x176
 3991 0a5d 81000000 		.4byte	0x81
 3992 0a61 47       		.byte	0x47
 3993 0a62 0E       		.uleb128 0xe
 3994 0a63 02060000 		.4byte	.LASF109
 3995 0a67 07       		.byte	0x7
 3996 0a68 7701     		.2byte	0x177
 3997 0a6a 81000000 		.4byte	0x81
 3998 0a6e 48       		.byte	0x48
 3999 0a6f 0E       		.uleb128 0xe
 4000 0a70 01050000 		.4byte	.LASF110
 4001 0a74 07       		.byte	0x7
 4002 0a75 7801     		.2byte	0x178
 4003 0a77 81000000 		.4byte	0x81
 4004 0a7b 49       		.byte	0x49
 4005 0a7c 0E       		.uleb128 0xe
 4006 0a7d 19040000 		.4byte	.LASF111
 4007 0a81 07       		.byte	0x7
 4008 0a82 7901     		.2byte	0x179
 4009 0a84 81000000 		.4byte	0x81
 4010 0a88 4A       		.byte	0x4a
 4011 0a89 0F       		.uleb128 0xf
 4012 0a8a 52524200 		.ascii	"RRB\000"
 4013 0a8e 07       		.byte	0x7
 4014 0a8f 7A01     		.2byte	0x17a
 4015 0a91 81000000 		.4byte	0x81
 4016 0a95 4B       		.byte	0x4b
 4017 0a96 0E       		.uleb128 0xe
 4018 0a97 08080000 		.4byte	.LASF112
 4019 0a9b 07       		.byte	0x7
 4020 0a9c 7B01     		.2byte	0x17b
 4021 0a9e 81000000 		.4byte	0x81
 4022 0aa2 4C       		.byte	0x4c
 4023 0aa3 0E       		.uleb128 0xe
 4024 0aa4 81020000 		.4byte	.LASF113
 4025 0aa8 07       		.byte	0x7
 4026 0aa9 7C01     		.2byte	0x17c
ARM GAS  C:\Users\MARTHN~1\AppData\Local\Temp\ccbPVIdg.s 			page 92


 4027 0aab 81000000 		.4byte	0x81
 4028 0aaf 4D       		.byte	0x4d
 4029 0ab0 0E       		.uleb128 0xe
 4030 0ab1 A9070000 		.4byte	.LASF114
 4031 0ab5 07       		.byte	0x7
 4032 0ab6 7D01     		.2byte	0x17d
 4033 0ab8 81000000 		.4byte	0x81
 4034 0abc 4E       		.byte	0x4e
 4035 0abd 0E       		.uleb128 0xe
 4036 0abe 3B030000 		.4byte	.LASF137
 4037 0ac2 07       		.byte	0x7
 4038 0ac3 7E01     		.2byte	0x17e
 4039 0ac5 81000000 		.4byte	0x81
 4040 0ac9 4F       		.byte	0x4f
 4041 0aca 00       		.byte	0
 4042 0acb 10       		.uleb128 0x10
 4043 0acc 11000000 		.4byte	.LASF138
 4044 0ad0 50       		.byte	0x50
 4045 0ad1 07       		.byte	0x7
 4046 0ad2 2901     		.2byte	0x129
 4047 0ad4 F10A0000 		.4byte	0xaf1
 4048 0ad8 11       		.uleb128 0x11
 4049 0ad9 EF020000 		.4byte	.LASF33
 4050 0add 07       		.byte	0x7
 4051 0ade 2B01     		.2byte	0x12b
 4052 0ae0 F10A0000 		.4byte	0xaf1
 4053 0ae4 11       		.uleb128 0x11
 4054 0ae5 EA040000 		.4byte	.LASF34
 4055 0ae9 07       		.byte	0x7
 4056 0aea 7F01     		.2byte	0x17f
 4057 0aec AD060000 		.4byte	0x6ad
 4058 0af0 00       		.byte	0
 4059 0af1 08       		.uleb128 0x8
 4060 0af2 81000000 		.4byte	0x81
 4061 0af6 010B0000 		.4byte	0xb01
 4062 0afa 09       		.uleb128 0x9
 4063 0afb B5000000 		.4byte	0xb5
 4064 0aff 4F       		.byte	0x4f
 4065 0b00 00       		.byte	0
 4066 0b01 05       		.uleb128 0x5
 4067 0b02 11060000 		.4byte	.LASF139
 4068 0b06 07       		.byte	0x7
 4069 0b07 8001     		.2byte	0x180
 4070 0b09 CB0A0000 		.4byte	0xacb
 4071 0b0d 12       		.uleb128 0x12
 4072 0b0e B1010000 		.4byte	.LASF142
 4073 0b12 01       		.byte	0x1
 4074 0b13 2C000000 		.4byte	0x2c
 4075 0b17 01       		.byte	0x1
 4076 0b18 32       		.byte	0x32
 4077 0b19 360B0000 		.4byte	0xb36
 4078 0b1d 13       		.uleb128 0x13
 4079 0b1e 52454400 		.ascii	"RED\000"
 4080 0b22 00       		.byte	0
 4081 0b23 14       		.uleb128 0x14
 4082 0b24 A6080000 		.4byte	.LASF140
 4083 0b28 01       		.byte	0x1
ARM GAS  C:\Users\MARTHN~1\AppData\Local\Temp\ccbPVIdg.s 			page 93


 4084 0b29 14       		.uleb128 0x14
 4085 0b2a AB080000 		.4byte	.LASF141
 4086 0b2e 02       		.byte	0x2
 4087 0b2f 13       		.uleb128 0x13
 4088 0b30 4F464600 		.ascii	"OFF\000"
 4089 0b34 03       		.byte	0x3
 4090 0b35 00       		.byte	0
 4091 0b36 12       		.uleb128 0x12
 4092 0b37 67070000 		.4byte	.LASF143
 4093 0b3b 01       		.byte	0x1
 4094 0b3c 2C000000 		.4byte	0x2c
 4095 0b40 01       		.byte	0x1
 4096 0b41 3B       		.byte	0x3b
 4097 0b42 530B0000 		.4byte	0xb53
 4098 0b46 14       		.uleb128 0x14
 4099 0b47 9C010000 		.4byte	.LASF144
 4100 0b4b 00       		.byte	0
 4101 0b4c 14       		.uleb128 0x14
 4102 0b4d 95080000 		.4byte	.LASF145
 4103 0b51 01       		.byte	0x1
 4104 0b52 00       		.byte	0
 4105 0b53 12       		.uleb128 0x12
 4106 0b54 EA070000 		.4byte	.LASF146
 4107 0b58 01       		.byte	0x1
 4108 0b59 2C000000 		.4byte	0x2c
 4109 0b5d 01       		.byte	0x1
 4110 0b5e 43       		.byte	0x43
 4111 0b5f 700B0000 		.4byte	0xb70
 4112 0b63 14       		.uleb128 0x14
 4113 0b64 14080000 		.4byte	.LASF147
 4114 0b68 00       		.byte	0
 4115 0b69 14       		.uleb128 0x14
 4116 0b6a 55070000 		.4byte	.LASF148
 4117 0b6e 01       		.byte	0x1
 4118 0b6f 00       		.byte	0
 4119 0b70 12       		.uleb128 0x12
 4120 0b71 46000000 		.4byte	.LASF149
 4121 0b75 01       		.byte	0x1
 4122 0b76 2C000000 		.4byte	0x2c
 4123 0b7a 01       		.byte	0x1
 4124 0b7b 50       		.byte	0x50
 4125 0b7c 990B0000 		.4byte	0xb99
 4126 0b80 14       		.uleb128 0x14
 4127 0b81 2D040000 		.4byte	.LASF150
 4128 0b85 00       		.byte	0
 4129 0b86 14       		.uleb128 0x14
 4130 0b87 D0090000 		.4byte	.LASF151
 4131 0b8b 01       		.byte	0x1
 4132 0b8c 14       		.uleb128 0x14
 4133 0b8d 590A0000 		.4byte	.LASF152
 4134 0b91 02       		.byte	0x2
 4135 0b92 14       		.uleb128 0x14
 4136 0b93 95000000 		.4byte	.LASF153
 4137 0b97 03       		.byte	0x3
 4138 0b98 00       		.byte	0
 4139 0b99 12       		.uleb128 0x12
 4140 0b9a 87070000 		.4byte	.LASF19
ARM GAS  C:\Users\MARTHN~1\AppData\Local\Temp\ccbPVIdg.s 			page 94


 4141 0b9e 01       		.byte	0x1
 4142 0b9f 2C000000 		.4byte	0x2c
 4143 0ba3 01       		.byte	0x1
 4144 0ba4 5E       		.byte	0x5e
 4145 0ba5 EC0B0000 		.4byte	0xbec
 4146 0ba9 14       		.uleb128 0x14
 4147 0baa 26020000 		.4byte	.LASF154
 4148 0bae 00       		.byte	0
 4149 0baf 14       		.uleb128 0x14
 4150 0bb0 78070000 		.4byte	.LASF155
 4151 0bb4 01       		.byte	0x1
 4152 0bb5 14       		.uleb128 0x14
 4153 0bb6 6F000000 		.4byte	.LASF156
 4154 0bba 02       		.byte	0x2
 4155 0bbb 14       		.uleb128 0x14
 4156 0bbc 99070000 		.4byte	.LASF157
 4157 0bc0 03       		.byte	0x3
 4158 0bc1 14       		.uleb128 0x14
 4159 0bc2 07030000 		.4byte	.LASF158
 4160 0bc6 04       		.byte	0x4
 4161 0bc7 14       		.uleb128 0x14
 4162 0bc8 2F030000 		.4byte	.LASF159
 4163 0bcc 05       		.byte	0x5
 4164 0bcd 14       		.uleb128 0x14
 4165 0bce 25060000 		.4byte	.LASF160
 4166 0bd2 06       		.byte	0x6
 4167 0bd3 14       		.uleb128 0x14
 4168 0bd4 86050000 		.4byte	.LASF161
 4169 0bd8 07       		.byte	0x7
 4170 0bd9 14       		.uleb128 0x14
 4171 0bda 80090000 		.4byte	.LASF162
 4172 0bde 08       		.byte	0x8
 4173 0bdf 14       		.uleb128 0x14
 4174 0be0 BA010000 		.4byte	.LASF163
 4175 0be4 09       		.byte	0x9
 4176 0be5 14       		.uleb128 0x14
 4177 0be6 140B0000 		.4byte	.LASF164
 4178 0bea 0A       		.byte	0xa
 4179 0beb 00       		.byte	0
 4180 0bec 15       		.uleb128 0x15
 4181 0bed 45080000 		.4byte	.LASF202
 4182 0bf1 01       		.byte	0x1
 4183 0bf2 70       		.byte	0x70
 4184 0bf3 81000000 		.4byte	0x81
 4185 0bf7 00000000 		.4byte	.LFB63
 4186 0bfb 88040000 		.4byte	.LFE63-.LFB63
 4187 0bff 01       		.uleb128 0x1
 4188 0c00 9C       		.byte	0x9c
 4189 0c01 370C0000 		.4byte	0xc37
 4190 0c05 16       		.uleb128 0x16
 4191 0c06 50000000 		.4byte	.LBB2
 4192 0c0a 1A000000 		.4byte	.LBE2-.LBB2
 4193 0c0e 1F0C0000 		.4byte	0xc1f
 4194 0c12 17       		.uleb128 0x17
 4195 0c13 6900     		.ascii	"i\000"
 4196 0c15 01       		.byte	0x1
 4197 0c16 7B       		.byte	0x7b
ARM GAS  C:\Users\MARTHN~1\AppData\Local\Temp\ccbPVIdg.s 			page 95


 4198 0c17 81000000 		.4byte	0x81
 4199 0c1b 02       		.uleb128 0x2
 4200 0c1c 91       		.byte	0x91
 4201 0c1d 77       		.sleb128 -9
 4202 0c1e 00       		.byte	0
 4203 0c1f 18       		.uleb128 0x18
 4204 0c20 10040000 		.4byte	.LBB3
 4205 0c24 42000000 		.4byte	.LBE3-.LBB3
 4206 0c28 19       		.uleb128 0x19
 4207 0c29 6900     		.ascii	"i\000"
 4208 0c2b 01       		.byte	0x1
 4209 0c2c C901     		.2byte	0x1c9
 4210 0c2e 81000000 		.4byte	0x81
 4211 0c32 02       		.uleb128 0x2
 4212 0c33 91       		.byte	0x91
 4213 0c34 76       		.sleb128 -10
 4214 0c35 00       		.byte	0
 4215 0c36 00       		.byte	0
 4216 0c37 1A       		.uleb128 0x1a
 4217 0c38 7A060000 		.4byte	.LASF165
 4218 0c3c 01       		.byte	0x1
 4219 0c3d E801     		.2byte	0x1e8
 4220 0c3f 81000000 		.4byte	0x81
 4221 0c43 00000000 		.4byte	.LFB64
 4222 0c47 3C000000 		.4byte	.LFE64-.LFB64
 4223 0c4b 01       		.uleb128 0x1
 4224 0c4c 9C       		.byte	0x9c
 4225 0c4d 1B       		.uleb128 0x1b
 4226 0c4e 2C070000 		.4byte	.LASF166
 4227 0c52 01       		.byte	0x1
 4228 0c53 1602     		.2byte	0x216
 4229 0c55 630C0000 		.4byte	0xc63
 4230 0c59 00000000 		.4byte	.LFB65
 4231 0c5d 20000000 		.4byte	.LFE65-.LFB65
 4232 0c61 01       		.uleb128 0x1
 4233 0c62 9C       		.byte	0x9c
 4234 0c63 1C       		.uleb128 0x1c
 4235 0c64 04       		.byte	0x4
 4236 0c65 010B0000 		.4byte	0xb01
 4237 0c69 1B       		.uleb128 0x1b
 4238 0c6a 31060000 		.4byte	.LASF167
 4239 0c6e 01       		.byte	0x1
 4240 0c6f 1D02     		.2byte	0x21d
 4241 0c71 7F0C0000 		.4byte	0xc7f
 4242 0c75 00000000 		.4byte	.LFB66
 4243 0c79 20000000 		.4byte	.LFE66-.LFB66
 4244 0c7d 01       		.uleb128 0x1
 4245 0c7e 9C       		.byte	0x9c
 4246 0c7f 1C       		.uleb128 0x1c
 4247 0c80 04       		.byte	0x4
 4248 0c81 A3050000 		.4byte	0x5a3
 4249 0c85 1B       		.uleb128 0x1b
 4250 0c86 38010000 		.4byte	.LASF168
 4251 0c8a 01       		.byte	0x1
 4252 0c8b 2402     		.2byte	0x224
 4253 0c8d 9B0C0000 		.4byte	0xc9b
 4254 0c91 00000000 		.4byte	.LFB67
ARM GAS  C:\Users\MARTHN~1\AppData\Local\Temp\ccbPVIdg.s 			page 96


 4255 0c95 20000000 		.4byte	.LFE67-.LFB67
 4256 0c99 01       		.uleb128 0x1
 4257 0c9a 9C       		.byte	0x9c
 4258 0c9b 1C       		.uleb128 0x1c
 4259 0c9c 04       		.byte	0x4
 4260 0c9d A2060000 		.4byte	0x6a2
 4261 0ca1 1D       		.uleb128 0x1d
 4262 0ca2 10050000 		.4byte	.LASF170
 4263 0ca6 01       		.byte	0x1
 4264 0ca7 2B02     		.2byte	0x22b
 4265 0ca9 00000000 		.4byte	.LFB68
 4266 0cad 58000000 		.4byte	.LFE68-.LFB68
 4267 0cb1 01       		.uleb128 0x1
 4268 0cb2 9C       		.byte	0x9c
 4269 0cb3 E10C0000 		.4byte	0xce1
 4270 0cb7 1E       		.uleb128 0x1e
 4271 0cb8 B1080000 		.4byte	.LASF169
 4272 0cbc 01       		.byte	0x1
 4273 0cbd 2E02     		.2byte	0x22e
 4274 0cbf E10C0000 		.4byte	0xce1
 4275 0cc3 05       		.uleb128 0x5
 4276 0cc4 03       		.byte	0x3
 4277 0cc5 E0000000 		.4byte	CTestStatus_display.7459
 4278 0cc9 18       		.uleb128 0x18
 4279 0cca 06000000 		.4byte	.LBB4
 4280 0cce 2C000000 		.4byte	.LBE4-.LBB4
 4281 0cd2 19       		.uleb128 0x19
 4282 0cd3 6900     		.ascii	"i\000"
 4283 0cd5 01       		.byte	0x1
 4284 0cd6 3002     		.2byte	0x230
 4285 0cd8 81000000 		.4byte	0x81
 4286 0cdc 02       		.uleb128 0x2
 4287 0cdd 91       		.byte	0x91
 4288 0cde 77       		.sleb128 -9
 4289 0cdf 00       		.byte	0
 4290 0ce0 00       		.byte	0
 4291 0ce1 08       		.uleb128 0x8
 4292 0ce2 81000000 		.4byte	0x81
 4293 0ce6 F10C0000 		.4byte	0xcf1
 4294 0cea 09       		.uleb128 0x9
 4295 0ceb B5000000 		.4byte	0xb5
 4296 0cef 15       		.byte	0x15
 4297 0cf0 00       		.byte	0
 4298 0cf1 1D       		.uleb128 0x1d
 4299 0cf2 3E070000 		.4byte	.LASF171
 4300 0cf6 01       		.byte	0x1
 4301 0cf7 4202     		.2byte	0x242
 4302 0cf9 00000000 		.4byte	.LFB69
 4303 0cfd E8000000 		.4byte	.LFE69-.LFB69
 4304 0d01 01       		.uleb128 0x1
 4305 0d02 9C       		.byte	0x9c
 4306 0d03 740D0000 		.4byte	0xd74
 4307 0d07 1E       		.uleb128 0x1e
 4308 0d08 76010000 		.4byte	.LASF172
 4309 0d0c 01       		.byte	0x1
 4310 0d0d 4402     		.2byte	0x244
 4311 0d0f 81000000 		.4byte	0x81
ARM GAS  C:\Users\MARTHN~1\AppData\Local\Temp\ccbPVIdg.s 			page 97


 4312 0d13 05       		.uleb128 0x5
 4313 0d14 03       		.byte	0x3
 4314 0d15 F8000000 		.4byte	PB_NextAction_debouncecount.7467
 4315 0d19 1E       		.uleb128 0x1e
 4316 0d1a DF0A0000 		.4byte	.LASF173
 4317 0d1e 01       		.byte	0x1
 4318 0d1f 4502     		.2byte	0x245
 4319 0d21 81000000 		.4byte	0x81
 4320 0d25 05       		.uleb128 0x5
 4321 0d26 03       		.byte	0x3
 4322 0d27 FA000000 		.4byte	PB_NextAction_failcount.7468
 4323 0d2b 1E       		.uleb128 0x1e
 4324 0d2c F8090000 		.4byte	.LASF174
 4325 0d30 01       		.byte	0x1
 4326 0d31 4602     		.2byte	0x246
 4327 0d33 81000000 		.4byte	0x81
 4328 0d37 05       		.uleb128 0x5
 4329 0d38 03       		.byte	0x3
 4330 0d39 FB000000 		.4byte	PB_NextAction_prevstate.7469
 4331 0d3d 1E       		.uleb128 0x1e
 4332 0d3e 19030000 		.4byte	.LASF175
 4333 0d42 01       		.byte	0x1
 4334 0d43 4802     		.2byte	0x248
 4335 0d45 81000000 		.4byte	0x81
 4336 0d49 05       		.uleb128 0x5
 4337 0d4a 03       		.byte	0x3
 4338 0d4b F9000000 		.4byte	debouncetrue.7470
 4339 0d4f 1E       		.uleb128 0x1e
 4340 0d50 D7050000 		.4byte	.LASF176
 4341 0d54 01       		.byte	0x1
 4342 0d55 4A02     		.2byte	0x24a
 4343 0d57 81000000 		.4byte	0x81
 4344 0d5b 05       		.uleb128 0x5
 4345 0d5c 03       		.byte	0x3
 4346 0d5d F6000000 		.4byte	PB_reading.7471
 4347 0d61 1E       		.uleb128 0x1e
 4348 0d62 72050000 		.4byte	.LASF177
 4349 0d66 01       		.byte	0x1
 4350 0d67 4B02     		.2byte	0x24b
 4351 0d69 81000000 		.4byte	0x81
 4352 0d6d 05       		.uleb128 0x5
 4353 0d6e 03       		.byte	0x3
 4354 0d6f F7000000 		.4byte	PB_reading_previous.7472
 4355 0d73 00       		.byte	0
 4356 0d74 1F       		.uleb128 0x1f
 4357 0d75 C9040000 		.4byte	.LASF178
 4358 0d79 01       		.byte	0x1
 4359 0d7a 7C02     		.2byte	0x27c
 4360 0d7c 00000000 		.4byte	.LFB70
 4361 0d80 7C000000 		.4byte	.LFE70-.LFB70
 4362 0d84 01       		.uleb128 0x1
 4363 0d85 9C       		.byte	0x9c
 4364 0d86 20       		.uleb128 0x20
 4365 0d87 C8050000 		.4byte	.LASF179
 4366 0d8b 01       		.byte	0x1
 4367 0d8c 9A02     		.2byte	0x29a
 4368 0d8e 00000000 		.4byte	.LFB71
ARM GAS  C:\Users\MARTHN~1\AppData\Local\Temp\ccbPVIdg.s 			page 98


 4369 0d92 48000000 		.4byte	.LFE71-.LFB71
 4370 0d96 01       		.uleb128 0x1
 4371 0d97 9C       		.byte	0x9c
 4372 0d98 1F       		.uleb128 0x1f
 4373 0d99 39040000 		.4byte	.LASF180
 4374 0d9d 01       		.byte	0x1
 4375 0d9e B802     		.2byte	0x2b8
 4376 0da0 00000000 		.4byte	.LFB72
 4377 0da4 3C000000 		.4byte	.LFE72-.LFB72
 4378 0da8 01       		.uleb128 0x1
 4379 0da9 9C       		.byte	0x9c
 4380 0daa 1F       		.uleb128 0x1f
 4381 0dab B8090000 		.4byte	.LASF181
 4382 0daf 01       		.byte	0x1
 4383 0db0 C502     		.2byte	0x2c5
 4384 0db2 00000000 		.4byte	.LFB73
 4385 0db6 40000000 		.4byte	.LFE73-.LFB73
 4386 0dba 01       		.uleb128 0x1
 4387 0dbb 9C       		.byte	0x9c
 4388 0dbc 20       		.uleb128 0x20
 4389 0dbd 63060000 		.4byte	.LASF182
 4390 0dc1 01       		.byte	0x1
 4391 0dc2 D302     		.2byte	0x2d3
 4392 0dc4 00000000 		.4byte	.LFB74
 4393 0dc8 6C000000 		.4byte	.LFE74-.LFB74
 4394 0dcc 01       		.uleb128 0x1
 4395 0dcd 9C       		.byte	0x9c
 4396 0dce 1B       		.uleb128 0x1b
 4397 0dcf 2D080000 		.4byte	.LASF183
 4398 0dd3 01       		.byte	0x1
 4399 0dd4 E902     		.2byte	0x2e9
 4400 0dd6 E40D0000 		.4byte	0xde4
 4401 0dda 00000000 		.4byte	.LFB75
 4402 0dde 20000000 		.4byte	.LFE75-.LFB75
 4403 0de2 01       		.uleb128 0x1
 4404 0de3 9C       		.byte	0x9c
 4405 0de4 1C       		.uleb128 0x1c
 4406 0de5 04       		.byte	0x4
 4407 0de6 A4010000 		.4byte	0x1a4
 4408 0dea 1D       		.uleb128 0x1d
 4409 0deb 2C000000 		.4byte	.LASF184
 4410 0def 01       		.byte	0x1
 4411 0df0 F002     		.2byte	0x2f0
 4412 0df2 00000000 		.4byte	.LFB76
 4413 0df6 DC060000 		.4byte	.LFE76-.LFB76
 4414 0dfa 01       		.uleb128 0x1
 4415 0dfb 9C       		.byte	0x9c
 4416 0dfc 100E0000 		.4byte	0xe10
 4417 0e00 21       		.uleb128 0x21
 4418 0e01 FB040000 		.4byte	.LASF203
 4419 0e05 01       		.byte	0x1
 4420 0e06 F002     		.2byte	0x2f0
 4421 0e08 81000000 		.4byte	0x81
 4422 0e0c 02       		.uleb128 0x2
 4423 0e0d 91       		.byte	0x91
 4424 0e0e 77       		.sleb128 -9
 4425 0e0f 00       		.byte	0
ARM GAS  C:\Users\MARTHN~1\AppData\Local\Temp\ccbPVIdg.s 			page 99


 4426 0e10 22       		.uleb128 0x22
 4427 0e11 9F060000 		.4byte	.LASF116
 4428 0e15 01       		.byte	0x1
 4429 0e16 1F       		.byte	0x1f
 4430 0e17 A3050000 		.4byte	0x5a3
 4431 0e1b 05       		.uleb128 0x5
 4432 0e1c 03       		.byte	0x3
 4433 0e1d 00000000 		.4byte	rxPacket_Controller
 4434 0e21 22       		.uleb128 0x22
 4435 0e22 08020000 		.4byte	.LASF185
 4436 0e26 01       		.byte	0x1
 4437 0e27 20       		.byte	0x20
 4438 0e28 7F0C0000 		.4byte	0xc7f
 4439 0e2c 05       		.uleb128 0x5
 4440 0e2d 03       		.byte	0x3
 4441 0e2e 50000000 		.4byte	pRxPacket_Controller
 4442 0e32 22       		.uleb128 0x22
 4443 0e33 C5010000 		.4byte	.LASF134
 4444 0e37 01       		.byte	0x1
 4445 0e38 22       		.byte	0x22
 4446 0e39 A2060000 		.4byte	0x6a2
 4447 0e3d 05       		.uleb128 0x5
 4448 0e3e 03       		.byte	0x3
 4449 0e3f 54000000 		.4byte	txPacket_Controller
 4450 0e43 22       		.uleb128 0x22
 4451 0e44 EA060000 		.4byte	.LASF186
 4452 0e48 01       		.byte	0x1
 4453 0e49 23       		.byte	0x23
 4454 0e4a 9B0C0000 		.4byte	0xc9b
 4455 0e4e 05       		.uleb128 0x5
 4456 0e4f 03       		.byte	0x3
 4457 0e50 64000000 		.4byte	pTxPacket_Controller
 4458 0e54 22       		.uleb128 0x22
 4459 0e55 6C090000 		.4byte	.LASF187
 4460 0e59 01       		.byte	0x1
 4461 0e5a 25       		.byte	0x25
 4462 0e5b 010B0000 		.4byte	0xb01
 4463 0e5f 05       		.uleb128 0x5
 4464 0e60 03       		.byte	0x3
 4465 0e61 68000000 		.4byte	txPacket_Relay
 4466 0e65 22       		.uleb128 0x22
 4467 0e66 5F000000 		.4byte	.LASF188
 4468 0e6a 01       		.byte	0x1
 4469 0e6b 26       		.byte	0x26
 4470 0e6c 630C0000 		.4byte	0xc63
 4471 0e70 05       		.uleb128 0x5
 4472 0e71 03       		.byte	0x3
 4473 0e72 B8000000 		.4byte	pTxPacket_Relay
 4474 0e76 22       		.uleb128 0x22
 4475 0e77 54050000 		.4byte	.LASF115
 4476 0e7b 01       		.byte	0x1
 4477 0e7c 28       		.byte	0x28
 4478 0e7d A4010000 		.4byte	0x1a4
 4479 0e81 05       		.uleb128 0x5
 4480 0e82 03       		.byte	0x3
 4481 0e83 BC000000 		.4byte	txPacket_Intermotive
 4482 0e87 22       		.uleb128 0x22
ARM GAS  C:\Users\MARTHN~1\AppData\Local\Temp\ccbPVIdg.s 			page 100


 4483 0e88 0D090000 		.4byte	.LASF189
 4484 0e8c 01       		.byte	0x1
 4485 0e8d 29       		.byte	0x29
 4486 0e8e E40D0000 		.4byte	0xde4
 4487 0e92 05       		.uleb128 0x5
 4488 0e93 03       		.byte	0x3
 4489 0e94 C8000000 		.4byte	pTxPacket_Intermotive
 4490 0e98 22       		.uleb128 0x22
 4491 0e99 D9010000 		.4byte	.LASF190
 4492 0e9d 01       		.byte	0x1
 4493 0e9e 2C       		.byte	0x2c
 4494 0e9f 8D000000 		.4byte	0x8d
 4495 0ea3 05       		.uleb128 0x5
 4496 0ea4 03       		.byte	0x3
 4497 0ea5 CC000000 		.4byte	CTest_20ms_isr_count
 4498 0ea9 22       		.uleb128 0x22
 4499 0eaa 820A0000 		.4byte	.LASF191
 4500 0eae 01       		.byte	0x1
 4501 0eaf 2D       		.byte	0x2d
 4502 0eb0 8D000000 		.4byte	0x8d
 4503 0eb4 05       		.uleb128 0x5
 4504 0eb5 03       		.byte	0x3
 4505 0eb6 CE000000 		.4byte	CTest_20ms_isr_EN
 4506 0eba 22       		.uleb128 0x22
 4507 0ebb 190A0000 		.4byte	.LASF192
 4508 0ebf 01       		.byte	0x1
 4509 0ec0 2F       		.byte	0x2f
 4510 0ec1 81000000 		.4byte	0x81
 4511 0ec5 05       		.uleb128 0x5
 4512 0ec6 03       		.byte	0x3
 4513 0ec7 D0000000 		.4byte	PB_NextAction_Pressed
 4514 0ecb 22       		.uleb128 0x22
 4515 0ecc 15070000 		.4byte	.LASF193
 4516 0ed0 01       		.byte	0x1
 4517 0ed1 30       		.byte	0x30
 4518 0ed2 81000000 		.4byte	0x81
 4519 0ed6 05       		.uleb128 0x5
 4520 0ed7 03       		.byte	0x3
 4521 0ed8 D1000000 		.4byte	PB_NextAction_Released
 4522 0edc 08       		.uleb128 0x8
 4523 0edd 8D000000 		.4byte	0x8d
 4524 0ee1 EC0E0000 		.4byte	0xeec
 4525 0ee5 09       		.uleb128 0x9
 4526 0ee6 B5000000 		.4byte	0xb5
 4527 0eea 0A       		.byte	0xa
 4528 0eeb 00       		.byte	0
 4529 0eec 22       		.uleb128 0x22
 4530 0eed FA080000 		.4byte	.LASF194
 4531 0ef1 01       		.byte	0x1
 4532 0ef2 5A       		.byte	0x5a
 4533 0ef3 DC0E0000 		.4byte	0xedc
 4534 0ef7 05       		.uleb128 0x5
 4535 0ef8 03       		.byte	0x3
 4536 0ef9 00000000 		.4byte	CTest_TimeoutCount
 4537 0efd 08       		.uleb128 0x8
 4538 0efe 81000000 		.4byte	0x81
 4539 0f02 0D0F0000 		.4byte	0xf0d
ARM GAS  C:\Users\MARTHN~1\AppData\Local\Temp\ccbPVIdg.s 			page 101


 4540 0f06 09       		.uleb128 0x9
 4541 0f07 B5000000 		.4byte	0xb5
 4542 0f0b 0A       		.byte	0xa
 4543 0f0c 00       		.byte	0
 4544 0f0d 22       		.uleb128 0x22
 4545 0f0e 7B000000 		.4byte	.LASF195
 4546 0f12 01       		.byte	0x1
 4547 0f13 6E       		.byte	0x6e
 4548 0f14 FD0E0000 		.4byte	0xefd
 4549 0f18 05       		.uleb128 0x5
 4550 0f19 03       		.byte	0x3
 4551 0f1a D4000000 		.4byte	CTestStatus
 4552 0f1e 23       		.uleb128 0x23
 4553 0f1f FF060000 		.4byte	.LASF196
 4554 0f23 08       		.byte	0x8
 4555 0f24 1207     		.2byte	0x712
 4556 0f26 2A0F0000 		.4byte	0xf2a
 4557 0f2a 24       		.uleb128 0x24
 4558 0f2b 76000000 		.4byte	0x76
 4559 0f2f 25       		.uleb128 0x25
 4560 0f30 7B090000 		.4byte	.LASF197
 4561 0f34 05       		.byte	0x5
 4562 0f35 16       		.byte	0x16
 4563 0f36 BC000000 		.4byte	0xbc
 4564 0f3a 05       		.uleb128 0x5
 4565 0f3b 03       		.byte	0x3
 4566 0f3c 00000000 		.4byte	Test
 4567 0f40 26       		.uleb128 0x26
 4568 0f41 58010000 		.4byte	.LASF198
 4569 0f45 05       		.byte	0x5
 4570 0f46 1A       		.byte	0x1a
 4571 0f47 ED000000 		.4byte	0xed
 4572 0f4b 00       		.byte	0
 4573              		.section	.debug_abbrev,"",%progbits
 4574              	.Ldebug_abbrev0:
 4575 0000 01       		.uleb128 0x1
 4576 0001 11       		.uleb128 0x11
 4577 0002 01       		.byte	0x1
 4578 0003 25       		.uleb128 0x25
 4579 0004 0E       		.uleb128 0xe
 4580 0005 13       		.uleb128 0x13
 4581 0006 0B       		.uleb128 0xb
 4582 0007 03       		.uleb128 0x3
 4583 0008 0E       		.uleb128 0xe
 4584 0009 1B       		.uleb128 0x1b
 4585 000a 0E       		.uleb128 0xe
 4586 000b 55       		.uleb128 0x55
 4587 000c 17       		.uleb128 0x17
 4588 000d 11       		.uleb128 0x11
 4589 000e 01       		.uleb128 0x1
 4590 000f 10       		.uleb128 0x10
 4591 0010 17       		.uleb128 0x17
 4592 0011 00       		.byte	0
 4593 0012 00       		.byte	0
 4594 0013 02       		.uleb128 0x2
 4595 0014 24       		.uleb128 0x24
 4596 0015 00       		.byte	0
ARM GAS  C:\Users\MARTHN~1\AppData\Local\Temp\ccbPVIdg.s 			page 102


 4597 0016 0B       		.uleb128 0xb
 4598 0017 0B       		.uleb128 0xb
 4599 0018 3E       		.uleb128 0x3e
 4600 0019 0B       		.uleb128 0xb
 4601 001a 03       		.uleb128 0x3
 4602 001b 0E       		.uleb128 0xe
 4603 001c 00       		.byte	0
 4604 001d 00       		.byte	0
 4605 001e 03       		.uleb128 0x3
 4606 001f 16       		.uleb128 0x16
 4607 0020 00       		.byte	0
 4608 0021 03       		.uleb128 0x3
 4609 0022 0E       		.uleb128 0xe
 4610 0023 3A       		.uleb128 0x3a
 4611 0024 0B       		.uleb128 0xb
 4612 0025 3B       		.uleb128 0x3b
 4613 0026 0B       		.uleb128 0xb
 4614 0027 49       		.uleb128 0x49
 4615 0028 13       		.uleb128 0x13
 4616 0029 00       		.byte	0
 4617 002a 00       		.byte	0
 4618 002b 04       		.uleb128 0x4
 4619 002c 24       		.uleb128 0x24
 4620 002d 00       		.byte	0
 4621 002e 0B       		.uleb128 0xb
 4622 002f 0B       		.uleb128 0xb
 4623 0030 3E       		.uleb128 0x3e
 4624 0031 0B       		.uleb128 0xb
 4625 0032 03       		.uleb128 0x3
 4626 0033 08       		.uleb128 0x8
 4627 0034 00       		.byte	0
 4628 0035 00       		.byte	0
 4629 0036 05       		.uleb128 0x5
 4630 0037 16       		.uleb128 0x16
 4631 0038 00       		.byte	0
 4632 0039 03       		.uleb128 0x3
 4633 003a 0E       		.uleb128 0xe
 4634 003b 3A       		.uleb128 0x3a
 4635 003c 0B       		.uleb128 0xb
 4636 003d 3B       		.uleb128 0x3b
 4637 003e 05       		.uleb128 0x5
 4638 003f 49       		.uleb128 0x49
 4639 0040 13       		.uleb128 0x13
 4640 0041 00       		.byte	0
 4641 0042 00       		.byte	0
 4642 0043 06       		.uleb128 0x6
 4643 0044 13       		.uleb128 0x13
 4644 0045 01       		.byte	0x1
 4645 0046 03       		.uleb128 0x3
 4646 0047 0E       		.uleb128 0xe
 4647 0048 0B       		.uleb128 0xb
 4648 0049 0B       		.uleb128 0xb
 4649 004a 3A       		.uleb128 0x3a
 4650 004b 0B       		.uleb128 0xb
 4651 004c 3B       		.uleb128 0x3b
 4652 004d 0B       		.uleb128 0xb
 4653 004e 01       		.uleb128 0x1
ARM GAS  C:\Users\MARTHN~1\AppData\Local\Temp\ccbPVIdg.s 			page 103


 4654 004f 13       		.uleb128 0x13
 4655 0050 00       		.byte	0
 4656 0051 00       		.byte	0
 4657 0052 07       		.uleb128 0x7
 4658 0053 0D       		.uleb128 0xd
 4659 0054 00       		.byte	0
 4660 0055 03       		.uleb128 0x3
 4661 0056 0E       		.uleb128 0xe
 4662 0057 3A       		.uleb128 0x3a
 4663 0058 0B       		.uleb128 0xb
 4664 0059 3B       		.uleb128 0x3b
 4665 005a 0B       		.uleb128 0xb
 4666 005b 49       		.uleb128 0x49
 4667 005c 13       		.uleb128 0x13
 4668 005d 38       		.uleb128 0x38
 4669 005e 0B       		.uleb128 0xb
 4670 005f 00       		.byte	0
 4671 0060 00       		.byte	0
 4672 0061 08       		.uleb128 0x8
 4673 0062 01       		.uleb128 0x1
 4674 0063 01       		.byte	0x1
 4675 0064 49       		.uleb128 0x49
 4676 0065 13       		.uleb128 0x13
 4677 0066 01       		.uleb128 0x1
 4678 0067 13       		.uleb128 0x13
 4679 0068 00       		.byte	0
 4680 0069 00       		.byte	0
 4681 006a 09       		.uleb128 0x9
 4682 006b 21       		.uleb128 0x21
 4683 006c 00       		.byte	0
 4684 006d 49       		.uleb128 0x49
 4685 006e 13       		.uleb128 0x13
 4686 006f 2F       		.uleb128 0x2f
 4687 0070 0B       		.uleb128 0xb
 4688 0071 00       		.byte	0
 4689 0072 00       		.byte	0
 4690 0073 0A       		.uleb128 0xa
 4691 0074 17       		.uleb128 0x17
 4692 0075 01       		.byte	0x1
 4693 0076 03       		.uleb128 0x3
 4694 0077 0E       		.uleb128 0xe
 4695 0078 0B       		.uleb128 0xb
 4696 0079 0B       		.uleb128 0xb
 4697 007a 3A       		.uleb128 0x3a
 4698 007b 0B       		.uleb128 0xb
 4699 007c 3B       		.uleb128 0x3b
 4700 007d 0B       		.uleb128 0xb
 4701 007e 01       		.uleb128 0x1
 4702 007f 13       		.uleb128 0x13
 4703 0080 00       		.byte	0
 4704 0081 00       		.byte	0
 4705 0082 0B       		.uleb128 0xb
 4706 0083 0D       		.uleb128 0xd
 4707 0084 00       		.byte	0
 4708 0085 03       		.uleb128 0x3
 4709 0086 0E       		.uleb128 0xe
 4710 0087 3A       		.uleb128 0x3a
ARM GAS  C:\Users\MARTHN~1\AppData\Local\Temp\ccbPVIdg.s 			page 104


 4711 0088 0B       		.uleb128 0xb
 4712 0089 3B       		.uleb128 0x3b
 4713 008a 0B       		.uleb128 0xb
 4714 008b 49       		.uleb128 0x49
 4715 008c 13       		.uleb128 0x13
 4716 008d 00       		.byte	0
 4717 008e 00       		.byte	0
 4718 008f 0C       		.uleb128 0xc
 4719 0090 0D       		.uleb128 0xd
 4720 0091 00       		.byte	0
 4721 0092 03       		.uleb128 0x3
 4722 0093 08       		.uleb128 0x8
 4723 0094 3A       		.uleb128 0x3a
 4724 0095 0B       		.uleb128 0xb
 4725 0096 3B       		.uleb128 0x3b
 4726 0097 0B       		.uleb128 0xb
 4727 0098 49       		.uleb128 0x49
 4728 0099 13       		.uleb128 0x13
 4729 009a 38       		.uleb128 0x38
 4730 009b 0B       		.uleb128 0xb
 4731 009c 00       		.byte	0
 4732 009d 00       		.byte	0
 4733 009e 0D       		.uleb128 0xd
 4734 009f 13       		.uleb128 0x13
 4735 00a0 01       		.byte	0x1
 4736 00a1 03       		.uleb128 0x3
 4737 00a2 0E       		.uleb128 0xe
 4738 00a3 0B       		.uleb128 0xb
 4739 00a4 0B       		.uleb128 0xb
 4740 00a5 3A       		.uleb128 0x3a
 4741 00a6 0B       		.uleb128 0xb
 4742 00a7 3B       		.uleb128 0x3b
 4743 00a8 05       		.uleb128 0x5
 4744 00a9 01       		.uleb128 0x1
 4745 00aa 13       		.uleb128 0x13
 4746 00ab 00       		.byte	0
 4747 00ac 00       		.byte	0
 4748 00ad 0E       		.uleb128 0xe
 4749 00ae 0D       		.uleb128 0xd
 4750 00af 00       		.byte	0
 4751 00b0 03       		.uleb128 0x3
 4752 00b1 0E       		.uleb128 0xe
 4753 00b2 3A       		.uleb128 0x3a
 4754 00b3 0B       		.uleb128 0xb
 4755 00b4 3B       		.uleb128 0x3b
 4756 00b5 05       		.uleb128 0x5
 4757 00b6 49       		.uleb128 0x49
 4758 00b7 13       		.uleb128 0x13
 4759 00b8 38       		.uleb128 0x38
 4760 00b9 0B       		.uleb128 0xb
 4761 00ba 00       		.byte	0
 4762 00bb 00       		.byte	0
 4763 00bc 0F       		.uleb128 0xf
 4764 00bd 0D       		.uleb128 0xd
 4765 00be 00       		.byte	0
 4766 00bf 03       		.uleb128 0x3
 4767 00c0 08       		.uleb128 0x8
ARM GAS  C:\Users\MARTHN~1\AppData\Local\Temp\ccbPVIdg.s 			page 105


 4768 00c1 3A       		.uleb128 0x3a
 4769 00c2 0B       		.uleb128 0xb
 4770 00c3 3B       		.uleb128 0x3b
 4771 00c4 05       		.uleb128 0x5
 4772 00c5 49       		.uleb128 0x49
 4773 00c6 13       		.uleb128 0x13
 4774 00c7 38       		.uleb128 0x38
 4775 00c8 0B       		.uleb128 0xb
 4776 00c9 00       		.byte	0
 4777 00ca 00       		.byte	0
 4778 00cb 10       		.uleb128 0x10
 4779 00cc 17       		.uleb128 0x17
 4780 00cd 01       		.byte	0x1
 4781 00ce 03       		.uleb128 0x3
 4782 00cf 0E       		.uleb128 0xe
 4783 00d0 0B       		.uleb128 0xb
 4784 00d1 0B       		.uleb128 0xb
 4785 00d2 3A       		.uleb128 0x3a
 4786 00d3 0B       		.uleb128 0xb
 4787 00d4 3B       		.uleb128 0x3b
 4788 00d5 05       		.uleb128 0x5
 4789 00d6 01       		.uleb128 0x1
 4790 00d7 13       		.uleb128 0x13
 4791 00d8 00       		.byte	0
 4792 00d9 00       		.byte	0
 4793 00da 11       		.uleb128 0x11
 4794 00db 0D       		.uleb128 0xd
 4795 00dc 00       		.byte	0
 4796 00dd 03       		.uleb128 0x3
 4797 00de 0E       		.uleb128 0xe
 4798 00df 3A       		.uleb128 0x3a
 4799 00e0 0B       		.uleb128 0xb
 4800 00e1 3B       		.uleb128 0x3b
 4801 00e2 05       		.uleb128 0x5
 4802 00e3 49       		.uleb128 0x49
 4803 00e4 13       		.uleb128 0x13
 4804 00e5 00       		.byte	0
 4805 00e6 00       		.byte	0
 4806 00e7 12       		.uleb128 0x12
 4807 00e8 04       		.uleb128 0x4
 4808 00e9 01       		.byte	0x1
 4809 00ea 03       		.uleb128 0x3
 4810 00eb 0E       		.uleb128 0xe
 4811 00ec 0B       		.uleb128 0xb
 4812 00ed 0B       		.uleb128 0xb
 4813 00ee 49       		.uleb128 0x49
 4814 00ef 13       		.uleb128 0x13
 4815 00f0 3A       		.uleb128 0x3a
 4816 00f1 0B       		.uleb128 0xb
 4817 00f2 3B       		.uleb128 0x3b
 4818 00f3 0B       		.uleb128 0xb
 4819 00f4 01       		.uleb128 0x1
 4820 00f5 13       		.uleb128 0x13
 4821 00f6 00       		.byte	0
 4822 00f7 00       		.byte	0
 4823 00f8 13       		.uleb128 0x13
 4824 00f9 28       		.uleb128 0x28
ARM GAS  C:\Users\MARTHN~1\AppData\Local\Temp\ccbPVIdg.s 			page 106


 4825 00fa 00       		.byte	0
 4826 00fb 03       		.uleb128 0x3
 4827 00fc 08       		.uleb128 0x8
 4828 00fd 1C       		.uleb128 0x1c
 4829 00fe 0B       		.uleb128 0xb
 4830 00ff 00       		.byte	0
 4831 0100 00       		.byte	0
 4832 0101 14       		.uleb128 0x14
 4833 0102 28       		.uleb128 0x28
 4834 0103 00       		.byte	0
 4835 0104 03       		.uleb128 0x3
 4836 0105 0E       		.uleb128 0xe
 4837 0106 1C       		.uleb128 0x1c
 4838 0107 0B       		.uleb128 0xb
 4839 0108 00       		.byte	0
 4840 0109 00       		.byte	0
 4841 010a 15       		.uleb128 0x15
 4842 010b 2E       		.uleb128 0x2e
 4843 010c 01       		.byte	0x1
 4844 010d 3F       		.uleb128 0x3f
 4845 010e 19       		.uleb128 0x19
 4846 010f 03       		.uleb128 0x3
 4847 0110 0E       		.uleb128 0xe
 4848 0111 3A       		.uleb128 0x3a
 4849 0112 0B       		.uleb128 0xb
 4850 0113 3B       		.uleb128 0x3b
 4851 0114 0B       		.uleb128 0xb
 4852 0115 27       		.uleb128 0x27
 4853 0116 19       		.uleb128 0x19
 4854 0117 49       		.uleb128 0x49
 4855 0118 13       		.uleb128 0x13
 4856 0119 11       		.uleb128 0x11
 4857 011a 01       		.uleb128 0x1
 4858 011b 12       		.uleb128 0x12
 4859 011c 06       		.uleb128 0x6
 4860 011d 40       		.uleb128 0x40
 4861 011e 18       		.uleb128 0x18
 4862 011f 9642     		.uleb128 0x2116
 4863 0121 19       		.uleb128 0x19
 4864 0122 01       		.uleb128 0x1
 4865 0123 13       		.uleb128 0x13
 4866 0124 00       		.byte	0
 4867 0125 00       		.byte	0
 4868 0126 16       		.uleb128 0x16
 4869 0127 0B       		.uleb128 0xb
 4870 0128 01       		.byte	0x1
 4871 0129 11       		.uleb128 0x11
 4872 012a 01       		.uleb128 0x1
 4873 012b 12       		.uleb128 0x12
 4874 012c 06       		.uleb128 0x6
 4875 012d 01       		.uleb128 0x1
 4876 012e 13       		.uleb128 0x13
 4877 012f 00       		.byte	0
 4878 0130 00       		.byte	0
 4879 0131 17       		.uleb128 0x17
 4880 0132 34       		.uleb128 0x34
 4881 0133 00       		.byte	0
ARM GAS  C:\Users\MARTHN~1\AppData\Local\Temp\ccbPVIdg.s 			page 107


 4882 0134 03       		.uleb128 0x3
 4883 0135 08       		.uleb128 0x8
 4884 0136 3A       		.uleb128 0x3a
 4885 0137 0B       		.uleb128 0xb
 4886 0138 3B       		.uleb128 0x3b
 4887 0139 0B       		.uleb128 0xb
 4888 013a 49       		.uleb128 0x49
 4889 013b 13       		.uleb128 0x13
 4890 013c 02       		.uleb128 0x2
 4891 013d 18       		.uleb128 0x18
 4892 013e 00       		.byte	0
 4893 013f 00       		.byte	0
 4894 0140 18       		.uleb128 0x18
 4895 0141 0B       		.uleb128 0xb
 4896 0142 01       		.byte	0x1
 4897 0143 11       		.uleb128 0x11
 4898 0144 01       		.uleb128 0x1
 4899 0145 12       		.uleb128 0x12
 4900 0146 06       		.uleb128 0x6
 4901 0147 00       		.byte	0
 4902 0148 00       		.byte	0
 4903 0149 19       		.uleb128 0x19
 4904 014a 34       		.uleb128 0x34
 4905 014b 00       		.byte	0
 4906 014c 03       		.uleb128 0x3
 4907 014d 08       		.uleb128 0x8
 4908 014e 3A       		.uleb128 0x3a
 4909 014f 0B       		.uleb128 0xb
 4910 0150 3B       		.uleb128 0x3b
 4911 0151 05       		.uleb128 0x5
 4912 0152 49       		.uleb128 0x49
 4913 0153 13       		.uleb128 0x13
 4914 0154 02       		.uleb128 0x2
 4915 0155 18       		.uleb128 0x18
 4916 0156 00       		.byte	0
 4917 0157 00       		.byte	0
 4918 0158 1A       		.uleb128 0x1a
 4919 0159 2E       		.uleb128 0x2e
 4920 015a 00       		.byte	0
 4921 015b 3F       		.uleb128 0x3f
 4922 015c 19       		.uleb128 0x19
 4923 015d 03       		.uleb128 0x3
 4924 015e 0E       		.uleb128 0xe
 4925 015f 3A       		.uleb128 0x3a
 4926 0160 0B       		.uleb128 0xb
 4927 0161 3B       		.uleb128 0x3b
 4928 0162 05       		.uleb128 0x5
 4929 0163 27       		.uleb128 0x27
 4930 0164 19       		.uleb128 0x19
 4931 0165 49       		.uleb128 0x49
 4932 0166 13       		.uleb128 0x13
 4933 0167 11       		.uleb128 0x11
 4934 0168 01       		.uleb128 0x1
 4935 0169 12       		.uleb128 0x12
 4936 016a 06       		.uleb128 0x6
 4937 016b 40       		.uleb128 0x40
 4938 016c 18       		.uleb128 0x18
ARM GAS  C:\Users\MARTHN~1\AppData\Local\Temp\ccbPVIdg.s 			page 108


 4939 016d 9642     		.uleb128 0x2116
 4940 016f 19       		.uleb128 0x19
 4941 0170 00       		.byte	0
 4942 0171 00       		.byte	0
 4943 0172 1B       		.uleb128 0x1b
 4944 0173 2E       		.uleb128 0x2e
 4945 0174 00       		.byte	0
 4946 0175 3F       		.uleb128 0x3f
 4947 0176 19       		.uleb128 0x19
 4948 0177 03       		.uleb128 0x3
 4949 0178 0E       		.uleb128 0xe
 4950 0179 3A       		.uleb128 0x3a
 4951 017a 0B       		.uleb128 0xb
 4952 017b 3B       		.uleb128 0x3b
 4953 017c 05       		.uleb128 0x5
 4954 017d 27       		.uleb128 0x27
 4955 017e 19       		.uleb128 0x19
 4956 017f 49       		.uleb128 0x49
 4957 0180 13       		.uleb128 0x13
 4958 0181 11       		.uleb128 0x11
 4959 0182 01       		.uleb128 0x1
 4960 0183 12       		.uleb128 0x12
 4961 0184 06       		.uleb128 0x6
 4962 0185 40       		.uleb128 0x40
 4963 0186 18       		.uleb128 0x18
 4964 0187 9742     		.uleb128 0x2117
 4965 0189 19       		.uleb128 0x19
 4966 018a 00       		.byte	0
 4967 018b 00       		.byte	0
 4968 018c 1C       		.uleb128 0x1c
 4969 018d 0F       		.uleb128 0xf
 4970 018e 00       		.byte	0
 4971 018f 0B       		.uleb128 0xb
 4972 0190 0B       		.uleb128 0xb
 4973 0191 49       		.uleb128 0x49
 4974 0192 13       		.uleb128 0x13
 4975 0193 00       		.byte	0
 4976 0194 00       		.byte	0
 4977 0195 1D       		.uleb128 0x1d
 4978 0196 2E       		.uleb128 0x2e
 4979 0197 01       		.byte	0x1
 4980 0198 3F       		.uleb128 0x3f
 4981 0199 19       		.uleb128 0x19
 4982 019a 03       		.uleb128 0x3
 4983 019b 0E       		.uleb128 0xe
 4984 019c 3A       		.uleb128 0x3a
 4985 019d 0B       		.uleb128 0xb
 4986 019e 3B       		.uleb128 0x3b
 4987 019f 05       		.uleb128 0x5
 4988 01a0 27       		.uleb128 0x27
 4989 01a1 19       		.uleb128 0x19
 4990 01a2 11       		.uleb128 0x11
 4991 01a3 01       		.uleb128 0x1
 4992 01a4 12       		.uleb128 0x12
 4993 01a5 06       		.uleb128 0x6
 4994 01a6 40       		.uleb128 0x40
 4995 01a7 18       		.uleb128 0x18
ARM GAS  C:\Users\MARTHN~1\AppData\Local\Temp\ccbPVIdg.s 			page 109


 4996 01a8 9642     		.uleb128 0x2116
 4997 01aa 19       		.uleb128 0x19
 4998 01ab 01       		.uleb128 0x1
 4999 01ac 13       		.uleb128 0x13
 5000 01ad 00       		.byte	0
 5001 01ae 00       		.byte	0
 5002 01af 1E       		.uleb128 0x1e
 5003 01b0 34       		.uleb128 0x34
 5004 01b1 00       		.byte	0
 5005 01b2 03       		.uleb128 0x3
 5006 01b3 0E       		.uleb128 0xe
 5007 01b4 3A       		.uleb128 0x3a
 5008 01b5 0B       		.uleb128 0xb
 5009 01b6 3B       		.uleb128 0x3b
 5010 01b7 05       		.uleb128 0x5
 5011 01b8 49       		.uleb128 0x49
 5012 01b9 13       		.uleb128 0x13
 5013 01ba 02       		.uleb128 0x2
 5014 01bb 18       		.uleb128 0x18
 5015 01bc 00       		.byte	0
 5016 01bd 00       		.byte	0
 5017 01be 1F       		.uleb128 0x1f
 5018 01bf 2E       		.uleb128 0x2e
 5019 01c0 00       		.byte	0
 5020 01c1 3F       		.uleb128 0x3f
 5021 01c2 19       		.uleb128 0x19
 5022 01c3 03       		.uleb128 0x3
 5023 01c4 0E       		.uleb128 0xe
 5024 01c5 3A       		.uleb128 0x3a
 5025 01c6 0B       		.uleb128 0xb
 5026 01c7 3B       		.uleb128 0x3b
 5027 01c8 05       		.uleb128 0x5
 5028 01c9 27       		.uleb128 0x27
 5029 01ca 19       		.uleb128 0x19
 5030 01cb 11       		.uleb128 0x11
 5031 01cc 01       		.uleb128 0x1
 5032 01cd 12       		.uleb128 0x12
 5033 01ce 06       		.uleb128 0x6
 5034 01cf 40       		.uleb128 0x40
 5035 01d0 18       		.uleb128 0x18
 5036 01d1 9742     		.uleb128 0x2117
 5037 01d3 19       		.uleb128 0x19
 5038 01d4 00       		.byte	0
 5039 01d5 00       		.byte	0
 5040 01d6 20       		.uleb128 0x20
 5041 01d7 2E       		.uleb128 0x2e
 5042 01d8 00       		.byte	0
 5043 01d9 3F       		.uleb128 0x3f
 5044 01da 19       		.uleb128 0x19
 5045 01db 03       		.uleb128 0x3
 5046 01dc 0E       		.uleb128 0xe
 5047 01dd 3A       		.uleb128 0x3a
 5048 01de 0B       		.uleb128 0xb
 5049 01df 3B       		.uleb128 0x3b
 5050 01e0 05       		.uleb128 0x5
 5051 01e1 27       		.uleb128 0x27
 5052 01e2 19       		.uleb128 0x19
ARM GAS  C:\Users\MARTHN~1\AppData\Local\Temp\ccbPVIdg.s 			page 110


 5053 01e3 11       		.uleb128 0x11
 5054 01e4 01       		.uleb128 0x1
 5055 01e5 12       		.uleb128 0x12
 5056 01e6 06       		.uleb128 0x6
 5057 01e7 40       		.uleb128 0x40
 5058 01e8 18       		.uleb128 0x18
 5059 01e9 9642     		.uleb128 0x2116
 5060 01eb 19       		.uleb128 0x19
 5061 01ec 00       		.byte	0
 5062 01ed 00       		.byte	0
 5063 01ee 21       		.uleb128 0x21
 5064 01ef 05       		.uleb128 0x5
 5065 01f0 00       		.byte	0
 5066 01f1 03       		.uleb128 0x3
 5067 01f2 0E       		.uleb128 0xe
 5068 01f3 3A       		.uleb128 0x3a
 5069 01f4 0B       		.uleb128 0xb
 5070 01f5 3B       		.uleb128 0x3b
 5071 01f6 05       		.uleb128 0x5
 5072 01f7 49       		.uleb128 0x49
 5073 01f8 13       		.uleb128 0x13
 5074 01f9 02       		.uleb128 0x2
 5075 01fa 18       		.uleb128 0x18
 5076 01fb 00       		.byte	0
 5077 01fc 00       		.byte	0
 5078 01fd 22       		.uleb128 0x22
 5079 01fe 34       		.uleb128 0x34
 5080 01ff 00       		.byte	0
 5081 0200 03       		.uleb128 0x3
 5082 0201 0E       		.uleb128 0xe
 5083 0202 3A       		.uleb128 0x3a
 5084 0203 0B       		.uleb128 0xb
 5085 0204 3B       		.uleb128 0x3b
 5086 0205 0B       		.uleb128 0xb
 5087 0206 49       		.uleb128 0x49
 5088 0207 13       		.uleb128 0x13
 5089 0208 02       		.uleb128 0x2
 5090 0209 18       		.uleb128 0x18
 5091 020a 00       		.byte	0
 5092 020b 00       		.byte	0
 5093 020c 23       		.uleb128 0x23
 5094 020d 34       		.uleb128 0x34
 5095 020e 00       		.byte	0
 5096 020f 03       		.uleb128 0x3
 5097 0210 0E       		.uleb128 0xe
 5098 0211 3A       		.uleb128 0x3a
 5099 0212 0B       		.uleb128 0xb
 5100 0213 3B       		.uleb128 0x3b
 5101 0214 05       		.uleb128 0x5
 5102 0215 49       		.uleb128 0x49
 5103 0216 13       		.uleb128 0x13
 5104 0217 3F       		.uleb128 0x3f
 5105 0218 19       		.uleb128 0x19
 5106 0219 3C       		.uleb128 0x3c
 5107 021a 19       		.uleb128 0x19
 5108 021b 00       		.byte	0
 5109 021c 00       		.byte	0
ARM GAS  C:\Users\MARTHN~1\AppData\Local\Temp\ccbPVIdg.s 			page 111


 5110 021d 24       		.uleb128 0x24
 5111 021e 35       		.uleb128 0x35
 5112 021f 00       		.byte	0
 5113 0220 49       		.uleb128 0x49
 5114 0221 13       		.uleb128 0x13
 5115 0222 00       		.byte	0
 5116 0223 00       		.byte	0
 5117 0224 25       		.uleb128 0x25
 5118 0225 34       		.uleb128 0x34
 5119 0226 00       		.byte	0
 5120 0227 03       		.uleb128 0x3
 5121 0228 0E       		.uleb128 0xe
 5122 0229 3A       		.uleb128 0x3a
 5123 022a 0B       		.uleb128 0xb
 5124 022b 3B       		.uleb128 0x3b
 5125 022c 0B       		.uleb128 0xb
 5126 022d 49       		.uleb128 0x49
 5127 022e 13       		.uleb128 0x13
 5128 022f 3F       		.uleb128 0x3f
 5129 0230 19       		.uleb128 0x19
 5130 0231 02       		.uleb128 0x2
 5131 0232 18       		.uleb128 0x18
 5132 0233 00       		.byte	0
 5133 0234 00       		.byte	0
 5134 0235 26       		.uleb128 0x26
 5135 0236 34       		.uleb128 0x34
 5136 0237 00       		.byte	0
 5137 0238 03       		.uleb128 0x3
 5138 0239 0E       		.uleb128 0xe
 5139 023a 3A       		.uleb128 0x3a
 5140 023b 0B       		.uleb128 0xb
 5141 023c 3B       		.uleb128 0x3b
 5142 023d 0B       		.uleb128 0xb
 5143 023e 49       		.uleb128 0x49
 5144 023f 13       		.uleb128 0x13
 5145 0240 3F       		.uleb128 0x3f
 5146 0241 19       		.uleb128 0x19
 5147 0242 3C       		.uleb128 0x3c
 5148 0243 19       		.uleb128 0x19
 5149 0244 00       		.byte	0
 5150 0245 00       		.byte	0
 5151 0246 00       		.byte	0
 5152              		.section	.debug_aranges,"",%progbits
 5153 0000 84000000 		.4byte	0x84
 5154 0004 0200     		.2byte	0x2
 5155 0006 00000000 		.4byte	.Ldebug_info0
 5156 000a 04       		.byte	0x4
 5157 000b 00       		.byte	0
 5158 000c 0000     		.2byte	0
 5159 000e 0000     		.2byte	0
 5160 0010 00000000 		.4byte	.LFB63
 5161 0014 88040000 		.4byte	.LFE63-.LFB63
 5162 0018 00000000 		.4byte	.LFB64
 5163 001c 3C000000 		.4byte	.LFE64-.LFB64
 5164 0020 00000000 		.4byte	.LFB65
 5165 0024 20000000 		.4byte	.LFE65-.LFB65
 5166 0028 00000000 		.4byte	.LFB66
ARM GAS  C:\Users\MARTHN~1\AppData\Local\Temp\ccbPVIdg.s 			page 112


 5167 002c 20000000 		.4byte	.LFE66-.LFB66
 5168 0030 00000000 		.4byte	.LFB67
 5169 0034 20000000 		.4byte	.LFE67-.LFB67
 5170 0038 00000000 		.4byte	.LFB68
 5171 003c 58000000 		.4byte	.LFE68-.LFB68
 5172 0040 00000000 		.4byte	.LFB69
 5173 0044 E8000000 		.4byte	.LFE69-.LFB69
 5174 0048 00000000 		.4byte	.LFB70
 5175 004c 7C000000 		.4byte	.LFE70-.LFB70
 5176 0050 00000000 		.4byte	.LFB71
 5177 0054 48000000 		.4byte	.LFE71-.LFB71
 5178 0058 00000000 		.4byte	.LFB72
 5179 005c 3C000000 		.4byte	.LFE72-.LFB72
 5180 0060 00000000 		.4byte	.LFB73
 5181 0064 40000000 		.4byte	.LFE73-.LFB73
 5182 0068 00000000 		.4byte	.LFB74
 5183 006c 6C000000 		.4byte	.LFE74-.LFB74
 5184 0070 00000000 		.4byte	.LFB75
 5185 0074 20000000 		.4byte	.LFE75-.LFB75
 5186 0078 00000000 		.4byte	.LFB76
 5187 007c DC060000 		.4byte	.LFE76-.LFB76
 5188 0080 00000000 		.4byte	0
 5189 0084 00000000 		.4byte	0
 5190              		.section	.debug_ranges,"",%progbits
 5191              	.Ldebug_ranges0:
 5192 0000 00000000 		.4byte	.LFB63
 5193 0004 88040000 		.4byte	.LFE63
 5194 0008 00000000 		.4byte	.LFB64
 5195 000c 3C000000 		.4byte	.LFE64
 5196 0010 00000000 		.4byte	.LFB65
 5197 0014 20000000 		.4byte	.LFE65
 5198 0018 00000000 		.4byte	.LFB66
 5199 001c 20000000 		.4byte	.LFE66
 5200 0020 00000000 		.4byte	.LFB67
 5201 0024 20000000 		.4byte	.LFE67
 5202 0028 00000000 		.4byte	.LFB68
 5203 002c 58000000 		.4byte	.LFE68
 5204 0030 00000000 		.4byte	.LFB69
 5205 0034 E8000000 		.4byte	.LFE69
 5206 0038 00000000 		.4byte	.LFB70
 5207 003c 7C000000 		.4byte	.LFE70
 5208 0040 00000000 		.4byte	.LFB71
 5209 0044 48000000 		.4byte	.LFE71
 5210 0048 00000000 		.4byte	.LFB72
 5211 004c 3C000000 		.4byte	.LFE72
 5212 0050 00000000 		.4byte	.LFB73
 5213 0054 40000000 		.4byte	.LFE73
 5214 0058 00000000 		.4byte	.LFB74
 5215 005c 6C000000 		.4byte	.LFE74
 5216 0060 00000000 		.4byte	.LFB75
 5217 0064 20000000 		.4byte	.LFE75
 5218 0068 00000000 		.4byte	.LFB76
 5219 006c DC060000 		.4byte	.LFE76
 5220 0070 00000000 		.4byte	0
 5221 0074 00000000 		.4byte	0
 5222              		.section	.debug_line,"",%progbits
 5223              	.Ldebug_line0:
ARM GAS  C:\Users\MARTHN~1\AppData\Local\Temp\ccbPVIdg.s 			page 113


 5224 0000 14050000 		.section	.debug_str,"MS",%progbits,1
 5224      0200A101 
 5224      00000201 
 5224      FB0E0D00 
 5224      01010101 
 5225              	.LASF200:
 5226 0000 436F6E74 		.ascii	"ControllerTest.c\000"
 5226      726F6C6C 
 5226      65725465 
 5226      73742E63 
 5226      00
 5227              	.LASF138:
 5228 0011 74785061 		.ascii	"txPacket_RelaySiren\000"
 5228      636B6574 
 5228      5F52656C 
 5228      61795369 
 5228      72656E00 
 5229              	.LASF12:
 5230 0025 75696E74 		.ascii	"uint16\000"
 5230      313600
 5231              	.LASF184:
 5232 002c 7365744C 		.ascii	"setLEDs\000"
 5232      45447300 
 5233              	.LASF76:
 5234 0034 4C45445F 		.ascii	"LED_03_R\000"
 5234      30335F52 
 5234      00
 5235              	.LASF84:
 5236 003d 4C45445F 		.ascii	"LED_01_B\000"
 5236      30315F42 
 5236      00
 5237              	.LASF149:
 5238 0046 4D55585F 		.ascii	"MUX_DEMUX_230400_CHANNEL\000"
 5238      44454D55 
 5238      585F3233 
 5238      30343030 
 5238      5F434841 
 5239              	.LASF188:
 5240 005f 70547850 		.ascii	"pTxPacket_Relay\000"
 5240      61636B65 
 5240      745F5265 
 5240      6C617900 
 5241              	.LASF156:
 5242 006f 434F4E46 		.ascii	"CONFIG_FILE\000"
 5242      49475F46 
 5242      494C4500 
 5243              	.LASF195:
 5244 007b 43546573 		.ascii	"CTestStatus\000"
 5244      74537461 
 5244      74757300 
 5245              	.LASF96:
 5246 0087 53746F70 		.ascii	"StopByte2_FLB\000"
 5246      42797465 
 5246      325F464C 
 5246      4200
 5247              	.LASF153:
 5248 0095 53544553 		.ascii	"STEST_RELAY\000"
ARM GAS  C:\Users\MARTHN~1\AppData\Local\Temp\ccbPVIdg.s 			page 114


 5248      545F5245 
 5248      4C415900 
 5249              	.LASF50:
 5250 00a1 4C45445F 		.ascii	"LED_12_G\000"
 5250      31325F47 
 5250      00
 5251              	.LASF199:
 5252 00aa 474E5520 		.ascii	"GNU C11 5.4.1 20160609 (release) [ARM/embedded-5-br"
 5252      43313120 
 5252      352E342E 
 5252      31203230 
 5252      31363036 
 5253 00dd 616E6368 		.ascii	"anch revision 237715] -mcpu=cortex-m3 -mthumb -g -O"
 5253      20726576 
 5253      6973696F 
 5253      6E203233 
 5253      37373135 
 5254 0110 30202D66 		.ascii	"0 -ffunction-sections -ffat-lto-objects\000"
 5254      66756E63 
 5254      74696F6E 
 5254      2D736563 
 5254      74696F6E 
 5255              	.LASF168:
 5256 0138 67657454 		.ascii	"getTxPacket_Controller\000"
 5256      78506163 
 5256      6B65745F 
 5256      436F6E74 
 5256      726F6C6C 
 5257              	.LASF63:
 5258 014f 4C45445F 		.ascii	"LED_08_B\000"
 5258      30385F42 
 5258      00
 5259              	.LASF198:
 5260 0158 43757272 		.ascii	"CurrentTest\000"
 5260      656E7454 
 5260      65737400 
 5261              	.LASF49:
 5262 0164 4C45445F 		.ascii	"LED_12_R\000"
 5262      31325F52 
 5262      00
 5263              	.LASF62:
 5264 016d 4C45445F 		.ascii	"LED_08_G\000"
 5264      30385F47 
 5264      00
 5265              	.LASF172:
 5266 0176 50425F4E 		.ascii	"PB_NextAction_debouncecount\000"
 5266      65787441 
 5266      6374696F 
 5266      6E5F6465 
 5266      626F756E 
 5267              	.LASF9:
 5268 0192 5F5F696E 		.ascii	"__int32_t\000"
 5268      7433325F 
 5268      7400
 5269              	.LASF144:
 5270 019c 43544553 		.ascii	"CTEST_AUDIO\000"
 5270      545F4155 
ARM GAS  C:\Users\MARTHN~1\AppData\Local\Temp\ccbPVIdg.s 			page 115


 5270      44494F00 
 5271              	.LASF61:
 5272 01a8 4C45445F 		.ascii	"LED_08_R\000"
 5272      30385F52 
 5272      00
 5273              	.LASF142:
 5274 01b1 4C454443 		.ascii	"LEDColor\000"
 5274      6F6C6F72 
 5274      00
 5275              	.LASF163:
 5276 01ba 44454255 		.ascii	"DEBUG_PORT\000"
 5276      475F504F 
 5276      525400
 5277              	.LASF134:
 5278 01c5 74785061 		.ascii	"txPacket_Controller\000"
 5278      636B6574 
 5278      5F436F6E 
 5278      74726F6C 
 5278      6C657200 
 5279              	.LASF190:
 5280 01d9 43546573 		.ascii	"CTest_20ms_isr_count\000"
 5280      745F3230 
 5280      6D735F69 
 5280      73725F63 
 5280      6F756E74 
 5281              	.LASF6:
 5282 01ee 6C6F6E67 		.ascii	"long long int\000"
 5282      206C6F6E 
 5282      6720696E 
 5282      7400
 5283              	.LASF0:
 5284 01fc 7369676E 		.ascii	"signed char\000"
 5284      65642063 
 5284      68617200 
 5285              	.LASF185:
 5286 0208 70527850 		.ascii	"pRxPacket_Controller\000"
 5286      61636B65 
 5286      745F436F 
 5286      6E74726F 
 5286      6C6C6572 
 5287              	.LASF53:
 5288 021d 4C45445F 		.ascii	"LED_11_G\000"
 5288      31315F47 
 5288      00
 5289              	.LASF154:
 5290 0226 494E4954 		.ascii	"INITIALIZE_TEST\000"
 5290      49414C49 
 5290      5A455F54 
 5290      45535400 
 5291              	.LASF101:
 5292 0236 4475616C 		.ascii	"DualDelay\000"
 5292      44656C61 
 5292      7900
 5293              	.LASF7:
 5294 0240 6C6F6E67 		.ascii	"long long unsigned int\000"
 5294      206C6F6E 
 5294      6720756E 
ARM GAS  C:\Users\MARTHN~1\AppData\Local\Temp\ccbPVIdg.s 			page 116


 5294      7369676E 
 5294      65642069 
 5295              	.LASF81:
 5296 0257 4C45445F 		.ascii	"LED_02_B\000"
 5296      30325F42 
 5296      00
 5297              	.LASF80:
 5298 0260 4C45445F 		.ascii	"LED_02_G\000"
 5298      30325F47 
 5298      00
 5299              	.LASF4:
 5300 0269 6C6F6E67 		.ascii	"long int\000"
 5300      20696E74 
 5300      00
 5301              	.LASF79:
 5302 0272 4C45445F 		.ascii	"LED_02_R\000"
 5302      30325F52 
 5302      00
 5303              	.LASF11:
 5304 027b 75696E74 		.ascii	"uint8\000"
 5304      3800
 5305              	.LASF113:
 5306 0281 53746F70 		.ascii	"StopByte1_Relay\000"
 5306      42797465 
 5306      315F5265 
 5306      6C617900 
 5307              	.LASF14:
 5308 0291 646F7562 		.ascii	"double\000"
 5308      6C6500
 5309              	.LASF54:
 5310 0298 4C45445F 		.ascii	"LED_11_B\000"
 5310      31315F42 
 5310      00
 5311              	.LASF85:
 5312 02a1 42757A7A 		.ascii	"Buzzer_H\000"
 5312      65725F48 
 5312      00
 5313              	.LASF88:
 5314 02aa 636F6E74 		.ascii	"controllerSpeakerEnable\000"
 5314      726F6C6C 
 5314      65725370 
 5314      65616B65 
 5314      72456E61 
 5315              	.LASF35:
 5316 02c2 54785061 		.ascii	"TxPacket_Intermotive\000"
 5316      636B6574 
 5316      5F496E74 
 5316      65726D6F 
 5316      74697665 
 5317              	.LASF108:
 5318 02d7 4F757470 		.ascii	"Outputs_17to24\000"
 5318      7574735F 
 5318      3137746F 
 5318      323400
 5319              	.LASF66:
 5320 02e6 4C45445F 		.ascii	"LED_07_B\000"
 5320      30375F42 
ARM GAS  C:\Users\MARTHN~1\AppData\Local\Temp\ccbPVIdg.s 			page 117


 5320      00
 5321              	.LASF33:
 5322 02ef 62797465 		.ascii	"bytes\000"
 5322      7300
 5323              	.LASF52:
 5324 02f5 4C45445F 		.ascii	"LED_11_R\000"
 5324      31315F52 
 5324      00
 5325              	.LASF65:
 5326 02fe 4C45445F 		.ascii	"LED_07_G\000"
 5326      30375F47 
 5326      00
 5327              	.LASF158:
 5328 0307 4F424449 		.ascii	"OBDII\000"
 5328      4900
 5329              	.LASF128:
 5330 030d 53697265 		.ascii	"SirenFirm_1\000"
 5330      6E466972 
 5330      6D5F3100 
 5331              	.LASF175:
 5332 0319 6465626F 		.ascii	"debouncetrue\000"
 5332      756E6365 
 5332      74727565 
 5332      00
 5333              	.LASF64:
 5334 0326 4C45445F 		.ascii	"LED_07_R\000"
 5334      30375F52 
 5334      00
 5335              	.LASF159:
 5336 032f 50555348 		.ascii	"PUSHBUTTONS\000"
 5336      42555454 
 5336      4F4E5300 
 5337              	.LASF137:
 5338 033b 43686563 		.ascii	"Checksum_Relay\000"
 5338      6B73756D 
 5338      5F52656C 
 5338      617900
 5339              	.LASF8:
 5340 034a 756E7369 		.ascii	"unsigned int\000"
 5340      676E6564 
 5340      20696E74 
 5340      00
 5341              	.LASF39:
 5342 0357 4C45445F 		.ascii	"LED_16_B\000"
 5342      31365F42 
 5342      00
 5343              	.LASF106:
 5344 0360 4F757470 		.ascii	"Outputs_1to8\000"
 5344      7574735F 
 5344      31746F38 
 5344      00
 5345              	.LASF124:
 5346 036d 53706561 		.ascii	"Speaker1_Overcurrent\000"
 5346      6B657231 
 5346      5F4F7665 
 5346      72637572 
 5346      72656E74 
ARM GAS  C:\Users\MARTHN~1\AppData\Local\Temp\ccbPVIdg.s 			page 118


 5347              	.LASF98:
 5348 0382 53697265 		.ascii	"Siren_PacketType\000"
 5348      6E5F5061 
 5348      636B6574 
 5348      54797065 
 5348      00
 5349              	.LASF126:
 5350 0393 52656C61 		.ascii	"RelayInputs\000"
 5350      79496E70 
 5350      75747300 
 5351              	.LASF95:
 5352 039f 53746F70 		.ascii	"StopByte1_FLB\000"
 5352      42797465 
 5352      315F464C 
 5352      4200
 5353              	.LASF5:
 5354 03ad 6C6F6E67 		.ascii	"long unsigned int\000"
 5354      20756E73 
 5354      69676E65 
 5354      6420696E 
 5354      7400
 5355              	.LASF127:
 5356 03bf 53697265 		.ascii	"SirenFirm_0\000"
 5356      6E466972 
 5356      6D5F3000 
 5357              	.LASF103:
 5358 03cb 53746F70 		.ascii	"StopByte2_Siren\000"
 5358      42797465 
 5358      325F5369 
 5358      72656E00 
 5359              	.LASF129:
 5360 03db 53697265 		.ascii	"SirenFirm_2\000"
 5360      6E466972 
 5360      6D5F3200 
 5361              	.LASF83:
 5362 03e7 4C45445F 		.ascii	"LED_01_G\000"
 5362      30315F47 
 5362      00
 5363              	.LASF37:
 5364 03f0 4C45445F 		.ascii	"LED_16_R\000"
 5364      31365F52 
 5364      00
 5365              	.LASF100:
 5366 03f9 53697265 		.ascii	"Siren2Tone\000"
 5366      6E32546F 
 5366      6E6500
 5367              	.LASF89:
 5368 0404 636F6E74 		.ascii	"controllerPowerState\000"
 5368      726F6C6C 
 5368      6572506F 
 5368      77657253 
 5368      74617465 
 5369              	.LASF111:
 5370 0419 506F7765 		.ascii	"PowerState\000"
 5370      72537461 
 5370      746500
 5371              	.LASF82:
ARM GAS  C:\Users\MARTHN~1\AppData\Local\Temp\ccbPVIdg.s 			page 119


 5372 0424 4C45445F 		.ascii	"LED_01_R\000"
 5372      30315F52 
 5372      00
 5373              	.LASF150:
 5374 042d 43544553 		.ascii	"CTEST_RELAY\000"
 5374      545F5245 
 5374      4C415900 
 5375              	.LASF180:
 5376 0439 43546573 		.ascii	"CTest_StartAutomatedStep\000"
 5376      745F5374 
 5376      61727441 
 5376      75746F6D 
 5376      61746564 
 5377              	.LASF3:
 5378 0452 73686F72 		.ascii	"short unsigned int\000"
 5378      7420756E 
 5378      7369676E 
 5378      65642069 
 5378      6E7400
 5379              	.LASF24:
 5380 0465 44617461 		.ascii	"Data0\000"
 5380      3000
 5381              	.LASF25:
 5382 046b 44617461 		.ascii	"Data1\000"
 5382      3100
 5383              	.LASF26:
 5384 0471 44617461 		.ascii	"Data2\000"
 5384      3200
 5385              	.LASF27:
 5386 0477 44617461 		.ascii	"Data3\000"
 5386      3300
 5387              	.LASF28:
 5388 047d 44617461 		.ascii	"Data4\000"
 5388      3400
 5389              	.LASF29:
 5390 0483 44617461 		.ascii	"Data5\000"
 5390      3500
 5391              	.LASF30:
 5392 0489 44617461 		.ascii	"Data6\000"
 5392      3600
 5393              	.LASF31:
 5394 048f 44617461 		.ascii	"Data7\000"
 5394      3700
 5395              	.LASF57:
 5396 0495 4C45445F 		.ascii	"LED_10_B\000"
 5396      31305F42 
 5396      00
 5397              	.LASF97:
 5398 049e 53746172 		.ascii	"StartByte1_Siren\000"
 5398      74427974 
 5398      65315F53 
 5398      6972656E 
 5398      00
 5399              	.LASF56:
 5400 04af 4C45445F 		.ascii	"LED_10_G\000"
 5400      31305F47 
 5400      00
ARM GAS  C:\Users\MARTHN~1\AppData\Local\Temp\ccbPVIdg.s 			page 120


 5401              	.LASF105:
 5402 04b8 52656C61 		.ascii	"Relay_PacketType\000"
 5402      795F5061 
 5402      636B6574 
 5402      54797065 
 5402      00
 5403              	.LASF178:
 5404 04c9 43546573 		.ascii	"CTest_20ms_isr\000"
 5404      745F3230 
 5404      6D735F69 
 5404      737200
 5405              	.LASF69:
 5406 04d8 4C45445F 		.ascii	"LED_06_B\000"
 5406      30365F42 
 5406      00
 5407              	.LASF55:
 5408 04e1 4C45445F 		.ascii	"LED_10_R\000"
 5408      31305F52 
 5408      00
 5409              	.LASF34:
 5410 04ea 5061796C 		.ascii	"Payload\000"
 5410      6F616400 
 5411              	.LASF68:
 5412 04f2 4C45445F 		.ascii	"LED_06_G\000"
 5412      30365F47 
 5412      00
 5413              	.LASF203:
 5414 04fb 636F6C6F 		.ascii	"color\000"
 5414      7200
 5415              	.LASF110:
 5416 0501 48694C6F 		.ascii	"HiLoInputLogic\000"
 5416      496E7075 
 5416      744C6F67 
 5416      696300
 5417              	.LASF170:
 5418 0510 43546573 		.ascii	"CTest_sendDiagPacket\000"
 5418      745F7365 
 5418      6E644469 
 5418      61675061 
 5418      636B6574 
 5419              	.LASF67:
 5420 0525 4C45445F 		.ascii	"LED_06_R\000"
 5420      30365F52 
 5420      00
 5421              	.LASF48:
 5422 052e 4C45445F 		.ascii	"LED_13_B\000"
 5422      31335F42 
 5422      00
 5423              	.LASF117:
 5424 0537 52785061 		.ascii	"RxPacket_Controller\000"
 5424      636B6574 
 5424      5F436F6E 
 5424      74726F6C 
 5424      6C657200 
 5425              	.LASF133:
 5426 054b 63686563 		.ascii	"checkSum\000"
 5426      6B53756D 
ARM GAS  C:\Users\MARTHN~1\AppData\Local\Temp\ccbPVIdg.s 			page 121


 5426      00
 5427              	.LASF115:
 5428 0554 74785061 		.ascii	"txPacket_Intermotive\000"
 5428      636B6574 
 5428      5F496E74 
 5428      65726D6F 
 5428      74697665 
 5429              	.LASF17:
 5430 0569 73697A65 		.ascii	"sizetype\000"
 5430      74797065 
 5430      00
 5431              	.LASF177:
 5432 0572 50425F72 		.ascii	"PB_reading_previous\000"
 5432      65616469 
 5432      6E675F70 
 5432      72657669 
 5432      6F757300 
 5433              	.LASF161:
 5434 0586 4C454453 		.ascii	"LEDS_RGB\000"
 5434      5F524742 
 5434      00
 5435              	.LASF16:
 5436 058f 6C6F6E67 		.ascii	"long double\000"
 5436      20646F75 
 5436      626C6500 
 5437              	.LASF118:
 5438 059b 74784461 		.ascii	"txData_Controller\000"
 5438      74615F43 
 5438      6F6E7472 
 5438      6F6C6C65 
 5438      7200
 5439              	.LASF42:
 5440 05ad 4C45445F 		.ascii	"LED_15_B\000"
 5440      31355F42 
 5440      00
 5441              	.LASF38:
 5442 05b6 4C45445F 		.ascii	"LED_16_G\000"
 5442      31365F47 
 5442      00
 5443              	.LASF41:
 5444 05bf 4C45445F 		.ascii	"LED_15_G\000"
 5444      31355F47 
 5444      00
 5445              	.LASF179:
 5446 05c8 43546573 		.ascii	"CTest_50ms_isr\000"
 5446      745F3530 
 5446      6D735F69 
 5446      737200
 5447              	.LASF176:
 5448 05d7 50425F72 		.ascii	"PB_reading\000"
 5448      65616469 
 5448      6E6700
 5449              	.LASF40:
 5450 05e2 4C45445F 		.ascii	"LED_15_R\000"
 5450      31355F52 
 5450      00
 5451              	.LASF90:
ARM GAS  C:\Users\MARTHN~1\AppData\Local\Temp\ccbPVIdg.s 			page 122


 5452 05eb 53746172 		.ascii	"StartByte_FLB\000"
 5452      74427974 
 5452      655F464C 
 5452      4200
 5453              	.LASF51:
 5454 05f9 4C45445F 		.ascii	"LED_12_B\000"
 5454      31325F42 
 5454      00
 5455              	.LASF109:
 5456 0602 4F757470 		.ascii	"Outputs_25to32\000"
 5456      7574735F 
 5456      3235746F 
 5456      333200
 5457              	.LASF139:
 5458 0611 54785061 		.ascii	"TxPacket_RelaySiren\000"
 5458      636B6574 
 5458      5F52656C 
 5458      61795369 
 5458      72656E00 
 5459              	.LASF160:
 5460 0625 51554144 		.ascii	"QUAD_STREAM\000"
 5460      5F535452 
 5460      45414D00 
 5461              	.LASF167:
 5462 0631 67657452 		.ascii	"getRxPacket_Controller\000"
 5462      78506163 
 5462      6B65745F 
 5462      436F6E74 
 5462      726F6C6C 
 5463              	.LASF125:
 5464 0648 53706561 		.ascii	"Speaker2_Overcurrent\000"
 5464      6B657232 
 5464      5F4F7665 
 5464      72637572 
 5464      72656E74 
 5465              	.LASF13:
 5466 065d 666C6F61 		.ascii	"float\000"
 5466      7400
 5467              	.LASF182:
 5468 0663 43546573 		.ascii	"CTest_PB_WaitForAction\000"
 5468      745F5042 
 5468      5F576169 
 5468      74466F72 
 5468      41637469 
 5469              	.LASF165:
 5470 067a 43546573 		.ascii	"CTest_ReadPushbuttons\000"
 5470      745F5265 
 5470      61645075 
 5470      73686275 
 5470      74746F6E 
 5471              	.LASF21:
 5472 0690 53747275 		.ascii	"StructTestInfo\000"
 5472      63745465 
 5472      7374496E 
 5472      666F00
 5473              	.LASF116:
 5474 069f 72785061 		.ascii	"rxPacket_Controller\000"
ARM GAS  C:\Users\MARTHN~1\AppData\Local\Temp\ccbPVIdg.s 			page 123


 5474      636B6574 
 5474      5F436F6E 
 5474      74726F6C 
 5474      6C657200 
 5475              	.LASF91:
 5476 06b3 464C425F 		.ascii	"FLB_PacketType\000"
 5476      5061636B 
 5476      65745479 
 5476      706500
 5477              	.LASF72:
 5478 06c2 4C45445F 		.ascii	"LED_05_B\000"
 5478      30355F42 
 5478      00
 5479              	.LASF71:
 5480 06cb 4C45445F 		.ascii	"LED_05_G\000"
 5480      30355F47 
 5480      00
 5481              	.LASF10:
 5482 06d4 696E7433 		.ascii	"int32_t\000"
 5482      325F7400 
 5483              	.LASF1:
 5484 06dc 756E7369 		.ascii	"unsigned char\000"
 5484      676E6564 
 5484      20636861 
 5484      7200
 5485              	.LASF186:
 5486 06ea 70547850 		.ascii	"pTxPacket_Controller\000"
 5486      61636B65 
 5486      745F436F 
 5486      6E74726F 
 5486      6C6C6572 
 5487              	.LASF196:
 5488 06ff 49544D5F 		.ascii	"ITM_RxBuffer\000"
 5488      52784275 
 5488      66666572 
 5488      00
 5489              	.LASF70:
 5490 070c 4C45445F 		.ascii	"LED_05_R\000"
 5490      30355F52 
 5490      00
 5491              	.LASF193:
 5492 0715 50425F4E 		.ascii	"PB_NextAction_Released\000"
 5492      65787441 
 5492      6374696F 
 5492      6E5F5265 
 5492      6C656173 
 5493              	.LASF166:
 5494 072c 67657454 		.ascii	"getTxPacket_Relay\000"
 5494      78506163 
 5494      6B65745F 
 5494      52656C61 
 5494      7900
 5495              	.LASF171:
 5496 073e 43546573 		.ascii	"CTest_isr_PB\000"
 5496      745F6973 
 5496      725F5042 
 5496      00
ARM GAS  C:\Users\MARTHN~1\AppData\Local\Temp\ccbPVIdg.s 			page 124


 5497              	.LASF2:
 5498 074b 73686F72 		.ascii	"short int\000"
 5498      7420696E 
 5498      7400
 5499              	.LASF148:
 5500 0755 43544553 		.ascii	"CTEST_AUDIOSTREAM\000"
 5500      545F4155 
 5500      44494F53 
 5500      54524541 
 5500      4D00
 5501              	.LASF143:
 5502 0767 44415441 		.ascii	"DATA_TYPE_460800\000"
 5502      5F545950 
 5502      455F3436 
 5502      30383030 
 5502      00
 5503              	.LASF155:
 5504 0778 434F4E46 		.ascii	"CONFIRM_BOOTUP\000"
 5504      49524D5F 
 5504      424F4F54 
 5504      555000
 5505              	.LASF19:
 5506 0787 54657374 		.ascii	"TestStep\000"
 5506      53746570 
 5506      00
 5507              	.LASF45:
 5508 0790 4C45445F 		.ascii	"LED_14_B\000"
 5508      31345F42 
 5508      00
 5509              	.LASF157:
 5510 0799 54455354 		.ascii	"TEST_POWERMODES\000"
 5510      5F504F57 
 5510      45524D4F 
 5510      44455300 
 5511              	.LASF114:
 5512 07a9 53746F70 		.ascii	"StopByte2_Relay\000"
 5512      42797465 
 5512      325F5265 
 5512      6C617900 
 5513              	.LASF44:
 5514 07b9 4C45445F 		.ascii	"LED_14_G\000"
 5514      31345F47 
 5514      00
 5515              	.LASF36:
 5516 07c2 72784461 		.ascii	"rxData_Controller\000"
 5516      74615F43 
 5516      6F6E7472 
 5516      6F6C6C65 
 5516      7200
 5517              	.LASF18:
 5518 07d4 53656C65 		.ascii	"SelectedTest\000"
 5518      63746564 
 5518      54657374 
 5518      00
 5519              	.LASF43:
 5520 07e1 4C45445F 		.ascii	"LED_14_R\000"
 5520      31345F52 
ARM GAS  C:\Users\MARTHN~1\AppData\Local\Temp\ccbPVIdg.s 			page 125


 5520      00
 5521              	.LASF146:
 5522 07ea 4D55585F 		.ascii	"MUX_460800_CHANNEL\000"
 5522      34363038 
 5522      30305F43 
 5522      48414E4E 
 5522      454C00
 5523              	.LASF99:
 5524 07fd 53697265 		.ascii	"Siren1Tone\000"
 5524      6E31546F 
 5524      6E6500
 5525              	.LASF112:
 5526 0808 53697265 		.ascii	"SirenEnable\000"
 5526      6E456E61 
 5526      626C6500 
 5527              	.LASF147:
 5528 0814 43544553 		.ascii	"CTEST_QUAD\000"
 5528      545F5155 
 5528      414400
 5529              	.LASF107:
 5530 081f 4F757470 		.ascii	"Outputs_9to16\000"
 5530      7574735F 
 5530      39746F31 
 5530      3600
 5531              	.LASF183:
 5532 082d 67657454 		.ascii	"getTxPacket_Intermotive\000"
 5532      78506163 
 5532      6B65745F 
 5532      496E7465 
 5532      726D6F74 
 5533              	.LASF202:
 5534 0845 436F6E74 		.ascii	"ControllerTest\000"
 5534      726F6C6C 
 5534      65725465 
 5534      737400
 5535              	.LASF15:
 5536 0854 63686172 		.ascii	"char\000"
 5536      00
 5537              	.LASF119:
 5538 0859 426C6F63 		.ascii	"BlockCurrent_1\000"
 5538      6B437572 
 5538      72656E74 
 5538      5F3100
 5539              	.LASF120:
 5540 0868 426C6F63 		.ascii	"BlockCurrent_2\000"
 5540      6B437572 
 5540      72656E74 
 5540      5F3200
 5541              	.LASF121:
 5542 0877 426C6F63 		.ascii	"BlockCurrent_3\000"
 5542      6B437572 
 5542      72656E74 
 5542      5F3300
 5543              	.LASF122:
 5544 0886 426C6F63 		.ascii	"BlockCurrent_4\000"
 5544      6B437572 
 5544      72656E74 
ARM GAS  C:\Users\MARTHN~1\AppData\Local\Temp\ccbPVIdg.s 			page 126


 5544      5F3400
 5545              	.LASF145:
 5546 0895 43544553 		.ascii	"CTEST_RTEST_QUAD\000"
 5546      545F5254 
 5546      4553545F 
 5546      51554144 
 5546      00
 5547              	.LASF140:
 5548 08a6 424C5545 		.ascii	"BLUE\000"
 5548      00
 5549              	.LASF141:
 5550 08ab 47524545 		.ascii	"GREEN\000"
 5550      4E00
 5551              	.LASF169:
 5552 08b1 43546573 		.ascii	"CTestStatus_display\000"
 5552      74537461 
 5552      7475735F 
 5552      64697370 
 5552      6C617900 
 5553              	.LASF75:
 5554 08c5 4C45445F 		.ascii	"LED_04_B\000"
 5554      30345F42 
 5554      00
 5555              	.LASF32:
 5556 08ce 43686563 		.ascii	"Checksum\000"
 5556      6B73756D 
 5556      00
 5557              	.LASF104:
 5558 08d7 53746172 		.ascii	"StartByte1_Relay\000"
 5558      74427974 
 5558      65315F52 
 5558      656C6179 
 5558      00
 5559              	.LASF74:
 5560 08e8 4C45445F 		.ascii	"LED_04_G\000"
 5560      30345F47 
 5560      00
 5561              	.LASF86:
 5562 08f1 42757A7A 		.ascii	"Buzzer_L\000"
 5562      65725F4C 
 5562      00
 5563              	.LASF194:
 5564 08fa 43546573 		.ascii	"CTest_TimeoutCount\000"
 5564      745F5469 
 5564      6D656F75 
 5564      74436F75 
 5564      6E7400
 5565              	.LASF189:
 5566 090d 70547850 		.ascii	"pTxPacket_Intermotive\000"
 5566      61636B65 
 5566      745F496E 
 5566      7465726D 
 5566      6F746976 
 5567              	.LASF73:
 5568 0923 4C45445F 		.ascii	"LED_04_R\000"
 5568      30345F52 
 5568      00
ARM GAS  C:\Users\MARTHN~1\AppData\Local\Temp\ccbPVIdg.s 			page 127


 5569              	.LASF102:
 5570 092c 53746F70 		.ascii	"StopByte1_Siren\000"
 5570      42797465 
 5570      315F5369 
 5570      72656E00 
 5571              	.LASF92:
 5572 093c 57697265 		.ascii	"WireActivation1\000"
 5572      41637469 
 5572      76617469 
 5572      6F6E3100 
 5573              	.LASF93:
 5574 094c 57697265 		.ascii	"WireActivation2\000"
 5574      41637469 
 5574      76617469 
 5574      6F6E3200 
 5575              	.LASF94:
 5576 095c 57697265 		.ascii	"WireActivation3\000"
 5576      41637469 
 5576      76617469 
 5576      6F6E3300 
 5577              	.LASF187:
 5578 096c 74785061 		.ascii	"txPacket_Relay\000"
 5578      636B6574 
 5578      5F52656C 
 5578      617900
 5579              	.LASF197:
 5580 097b 54657374 		.ascii	"Test\000"
 5580      00
 5581              	.LASF162:
 5582 0980 41554449 		.ascii	"AUDIO_STREAM\000"
 5582      4F5F5354 
 5582      5245414D 
 5582      00
 5583              	.LASF23:
 5584 098d 74784461 		.ascii	"txData_Intermotive\000"
 5584      74615F49 
 5584      6E746572 
 5584      6D6F7469 
 5584      766500
 5585              	.LASF130:
 5586 09a0 52656C61 		.ascii	"RelayFirm_0\000"
 5586      79466972 
 5586      6D5F3000 
 5587              	.LASF131:
 5588 09ac 52656C61 		.ascii	"RelayFirm_1\000"
 5588      79466972 
 5588      6D5F3100 
 5589              	.LASF181:
 5590 09b8 43546573 		.ascii	"CTest_StopAutomatedStep\000"
 5590      745F5374 
 5590      6F704175 
 5590      746F6D61 
 5590      74656453 
 5591              	.LASF151:
 5592 09d0 52544553 		.ascii	"RTEST_CONT\000"
 5592      545F434F 
 5592      4E5400
ARM GAS  C:\Users\MARTHN~1\AppData\Local\Temp\ccbPVIdg.s 			page 128


 5593              	.LASF87:
 5594 09db 53637265 		.ascii	"ScreenBrightness\000"
 5594      656E4272 
 5594      69676874 
 5594      6E657373 
 5594      00
 5595              	.LASF132:
 5596 09ec 52656C61 		.ascii	"RelayFirm_2\000"
 5596      79466972 
 5596      6D5F3200 
 5597              	.LASF174:
 5598 09f8 50425F4E 		.ascii	"PB_NextAction_prevstate\000"
 5598      65787441 
 5598      6374696F 
 5598      6E5F7072 
 5598      65767374 
 5599              	.LASF47:
 5600 0a10 4C45445F 		.ascii	"LED_13_G\000"
 5600      31335F47 
 5600      00
 5601              	.LASF192:
 5602 0a19 50425F4E 		.ascii	"PB_NextAction_Pressed\000"
 5602      65787441 
 5602      6374696F 
 5602      6E5F5072 
 5602      65737365 
 5603              	.LASF22:
 5604 0a2f 73747275 		.ascii	"structTestInfo\000"
 5604      63745465 
 5604      7374496E 
 5604      666F00
 5605              	.LASF60:
 5606 0a3e 4C45445F 		.ascii	"LED_09_B\000"
 5606      30395F42 
 5606      00
 5607              	.LASF46:
 5608 0a47 4C45445F 		.ascii	"LED_13_R\000"
 5608      31335F52 
 5608      00
 5609              	.LASF59:
 5610 0a50 4C45445F 		.ascii	"LED_09_G\000"
 5610      30395F47 
 5610      00
 5611              	.LASF152:
 5612 0a59 52544553 		.ascii	"RTEST_SIREN\000"
 5612      545F5349 
 5612      52454E00 
 5613              	.LASF58:
 5614 0a65 4C45445F 		.ascii	"LED_09_R\000"
 5614      30395F52 
 5614      00
 5615              	.LASF123:
 5616 0a6e 566F6C74 		.ascii	"Voltage_BATT\000"
 5616      6167655F 
 5616      42415454 
 5616      00
 5617              	.LASF20:
ARM GAS  C:\Users\MARTHN~1\AppData\Local\Temp\ccbPVIdg.s 			page 129


 5618 0a7b 53746174 		.ascii	"Status\000"
 5618      757300
 5619              	.LASF191:
 5620 0a82 43546573 		.ascii	"CTest_20ms_isr_EN\000"
 5620      745F3230 
 5620      6D735F69 
 5620      73725F45 
 5620      4E00
 5621              	.LASF201:
 5622 0a94 433A5C55 		.ascii	"C:\\Users\\marthnick\\Desktop\\firm_F1-TestFixture\\"
 5622      73657273 
 5622      5C6D6172 
 5622      74686E69 
 5622      636B5C44 
 5623 0ac3 46312D54 		.ascii	"F1-TestFixture.cydsn\000"
 5623      65737446 
 5623      69787475 
 5623      72652E63 
 5623      7964736E 
 5624              	.LASF136:
 5625 0ad8 74784461 		.ascii	"txData\000"
 5625      746100
 5626              	.LASF173:
 5627 0adf 50425F4E 		.ascii	"PB_NextAction_failcount\000"
 5627      65787441 
 5627      6374696F 
 5627      6E5F6661 
 5627      696C636F 
 5628              	.LASF135:
 5629 0af7 54785061 		.ascii	"TxPacket_Controller\000"
 5629      636B6574 
 5629      5F436F6E 
 5629      74726F6C 
 5629      6C657200 
 5630              	.LASF78:
 5631 0b0b 4C45445F 		.ascii	"LED_03_B\000"
 5631      30335F42 
 5631      00
 5632              	.LASF164:
 5633 0b14 50415353 		.ascii	"PASS\000"
 5633      00
 5634              	.LASF77:
 5635 0b19 4C45445F 		.ascii	"LED_03_G\000"
 5635      30335F47 
 5635      00
 5636              		.ident	"GCC: (GNU Tools for ARM Embedded Processors) 5.4.1 20160609 (release) [ARM/embedded-5-bran
