ARM GAS  C:\Users\MARTHN~1\AppData\Local\Temp\cczzcuiY.s 			page 1


   1              		.syntax unified
   2              		.cpu cortex-m3
   3              		.fpu softvfp
   4              		.eabi_attribute 20, 1
   5              		.eabi_attribute 21, 1
   6              		.eabi_attribute 23, 3
   7              		.eabi_attribute 24, 1
   8              		.eabi_attribute 25, 1
   9              		.eabi_attribute 26, 1
  10              		.eabi_attribute 30, 6
  11              		.eabi_attribute 34, 1
  12              		.eabi_attribute 18, 4
  13              		.thumb
  14              		.syntax unified
  15              		.file	"ControllerTest.c"
  16              		.text
  17              	.Ltext0:
  18              		.cfi_sections	.debug_frame
  19              		.comm	Test,3,4
  20              		.bss
  21              		.align	2
  22              	rxPacket_Controller:
  23 0000 00000000 		.space	79
  23      00000000 
  23      00000000 
  23      00000000 
  23      00000000 
  24 004f 00       		.align	2
  25              	pRxPacket_Controller:
  26 0050 00000000 		.space	4
  27              		.align	2
  28              	txPacket_Controller:
  29 0054 00000000 		.space	15
  29      00000000 
  29      00000000 
  29      000000
  30 0063 00       		.align	2
  31              	pTxPacket_Controller:
  32 0064 00000000 		.space	4
  33              		.align	2
  34              	txPacket_Relay:
  35 0068 00000000 		.space	79
  35      00000000 
  35      00000000 
  35      00000000 
  35      00000000 
  36 00b7 00       		.align	2
  37              	pTxPacket_Relay:
  38 00b8 00000000 		.space	4
  39              		.align	1
  40              	CTest_20ms_isr_count:
  41 00bc 0000     		.space	2
  42              		.align	1
  43              	CTest_20ms_isr_EN:
  44 00be 0000     		.space	2
  45              	PB_NextAction_Pressed:
  46 00c0 00       		.space	1
ARM GAS  C:\Users\MARTHN~1\AppData\Local\Temp\cczzcuiY.s 			page 2


  47              	PB_NextAction_Released:
  48 00c1 00       		.space	1
  49              		.data
  50              		.align	2
  51              		.type	CTest_TimeoutCount, %object
  52              		.size	CTest_TimeoutCount, 20
  53              	CTest_TimeoutCount:
  54 0000 3200     		.short	50
  55 0002 DC05     		.short	1500
  56 0004 6400     		.short	100
  57 0006 3200     		.short	50
  58 0008 3200     		.short	50
  59 000a 3200     		.short	50
  60 000c 3200     		.short	50
  61 000e 3200     		.short	50
  62 0010 3200     		.short	50
  63 0012 0000     		.space	2
  64              		.bss
  65 00c2 0000     		.align	2
  66              	CTestStatus:
  67 00c4 00000000 		.space	10
  67      00000000 
  67      0000
  68              		.section	.text.ControllerTest,"ax",%progbits
  69              		.align	2
  70              		.global	ControllerTest
  71              		.thumb
  72              		.thumb_func
  73              		.type	ControllerTest, %function
  74              	ControllerTest:
  75              	.LFB63:
  76              		.file 1 "ControllerTest.c"
   1:ControllerTest.c **** /* ========================================
   2:ControllerTest.c ****  *
   3:ControllerTest.c ****  * Copyright YOUR COMPANY, THE YEAR
   4:ControllerTest.c ****  * All Rights Reserved
   5:ControllerTest.c ****  * UNPUBLISHED, LICENSED SOFTWARE.
   6:ControllerTest.c ****  *
   7:ControllerTest.c ****  * CONFIDENTIAL AND PROPRIETARY INFORMATION
   8:ControllerTest.c ****  * WHICH IS THE PROPERTY OF your company.
   9:ControllerTest.c ****  *
  10:ControllerTest.c ****  * ========================================
  11:ControllerTest.c **** */
  12:ControllerTest.c **** 
  13:ControllerTest.c **** #include <project.h>
  14:ControllerTest.c **** #include "CommonVariables.h"
  15:ControllerTest.c **** #include "ControllerTest.h"
  16:ControllerTest.c **** #include "UART_460800_Functions.h"
  17:ControllerTest.c **** #include "UART_230400_Functions.h"
  18:ControllerTest.c **** 
  19:ControllerTest.c **** #define DEBOUNCE_COUNT      2           // (5 * 20msec)
  20:ControllerTest.c **** 
  21:ControllerTest.c **** 
  22:ControllerTest.c **** static RxPacket_Controller rxPacket_Controller;         // 'I' (includes 'P') packet (controller to
  23:ControllerTest.c **** static RxPacket_Controller * pRxPacket_Controller;
  24:ControllerTest.c **** 
  25:ControllerTest.c **** static TxPacket_Controller txPacket_Controller;         // 'D' packet (relay to controller) - Initi
ARM GAS  C:\Users\MARTHN~1\AppData\Local\Temp\cczzcuiY.s 			page 3


  26:ControllerTest.c **** static TxPacket_Controller * pTxPacket_Controller;
  27:ControllerTest.c **** 
  28:ControllerTest.c **** static TxPacket_RelaySiren txPacket_Relay;              // 'I' packet (relay to controller) - LEDS_
  29:ControllerTest.c **** static TxPacket_RelaySiren * pTxPacket_Relay;
  30:ControllerTest.c **** 
  31:ControllerTest.c **** 
  32:ControllerTest.c **** static uint16 CTest_20ms_isr_count = 0;         // Test step timeout variables
  33:ControllerTest.c **** static uint16 CTest_20ms_isr_EN = 0;
  34:ControllerTest.c **** 
  35:ControllerTest.c **** static uint8 PB_NextAction_Pressed = 0;         // Pushbutton 
  36:ControllerTest.c **** static uint8 PB_NextAction_Released = 0;
  37:ControllerTest.c **** 
  38:ControllerTest.c **** 
  39:ControllerTest.c **** enum DATA_TYPE_460800
  40:ControllerTest.c **** { 
  41:ControllerTest.c ****     CTEST_AUDIO,        // This is for both cont and relay tests
  42:ControllerTest.c ****     CTEST_RTEST_QUAD   // CTest/RTest - quad normal - (controller to relay, relay to quad)
  43:ControllerTest.c **** //    CTEST_A,            //*** needs to  (*** not used - only need to look for 'L' packet)
  44:ControllerTest.c **** //    QTEST_QUAD          // (*** not used - Quad-Controller packets - type 'C')
  45:ControllerTest.c **** };
  46:ControllerTest.c **** 
  47:ControllerTest.c **** enum MUX_460800_CHANNEL
  48:ControllerTest.c **** { 
  49:ControllerTest.c ****     CTEST_QUAD,  
  50:ControllerTest.c ****     CTEST_AUDIOSTREAM,
  51:ControllerTest.c ****     //QTEST_QUAD             
  52:ControllerTest.c **** };
  53:ControllerTest.c **** enum DEMUX_460800_CHANNEL
  54:ControllerTest.c **** { 
  55:ControllerTest.c ****     CTEST_OBDII_TX,       
  56:ControllerTest.c ****     RTEST_QUAD_TX,       
  57:ControllerTest.c ****     STEST_AUDIO_TX,
  58:ControllerTest.c **** };
  59:ControllerTest.c **** 
  60:ControllerTest.c **** enum MUX_DEMUX_230400_CHANNEL              
  61:ControllerTest.c **** { 
  62:ControllerTest.c ****     CTEST_RELAY, 
  63:ControllerTest.c ****     RTEST_CONT,
  64:ControllerTest.c ****     RTEST_SIREN,
  65:ControllerTest.c ****     STEST_RELAY            
  66:ControllerTest.c **** };
  67:ControllerTest.c **** 
  68:ControllerTest.c **** // --------------Test steps---------------
  69:ControllerTest.c **** #define NUMBER_TEST_STEPS       10
  70:ControllerTest.c **** static uint16 CTest_TimeoutCount[NUMBER_TEST_STEPS] = {50,1500,100,50,50,50,50,50,50};    // Number
  71:ControllerTest.c **** 
  72:ControllerTest.c **** static uint8 CTestStatus[NUMBER_TEST_STEPS];
  73:ControllerTest.c **** 
  74:ControllerTest.c **** enum TestStep           
  75:ControllerTest.c **** { 
  76:ControllerTest.c ****     INITIALIZE_TEST, 
  77:ControllerTest.c ****     CONFIRM_BOOTUP,         // TESTED (needs timeout adjustment)
  78:ControllerTest.c ****     CONFIG_FILE,
  79:ControllerTest.c ****     TEST_POWERMODES,        // (had controller issue) - Tests Vbatt detect, USB_5V detect - (uses i
  80:ControllerTest.c ****     QUAD_STREAM,            // ***config (need to test)
  81:ControllerTest.c ****     AUDIO_STREAM,           // (not a priority)
  82:ControllerTest.c ****     DEBUG_PORT,             // (not a priority)
ARM GAS  C:\Users\MARTHN~1\AppData\Local\Temp\cczzcuiY.s 			page 4


  83:ControllerTest.c ****     OBDII,                  // ***config (need to test)
  84:ControllerTest.c ****     LEDS_RGB,               // (need to implement packet on controller side)
  85:ControllerTest.c ****     PUSHBUTTONS,            // ***config (need to test)
  86:ControllerTest.c **** };
  87:ControllerTest.c **** 
  88:ControllerTest.c **** 
  89:ControllerTest.c **** static uint8 CTestStatus[NUMBER_TEST_STEPS];
  90:ControllerTest.c **** 
  91:ControllerTest.c **** //static uint8 TestState = INITIALIZE_TEST;
  92:ControllerTest.c **** 
  93:ControllerTest.c **** // Should have SOM installed (maybe with test software embedded)
  94:ControllerTest.c **** // Controller should already be programmed with a test config file
  95:ControllerTest.c **** 
  96:ControllerTest.c **** 
  97:ControllerTest.c **** 
  98:ControllerTest.c **** uint8 ControllerTest(void)
  99:ControllerTest.c **** {
  77              		.loc 1 99 0
  78              		.cfi_startproc
  79              		@ args = 0, pretend = 0, frame = 8
  80              		@ frame_needed = 1, uses_anonymous_args = 0
  81 0000 80B5     		push	{r7, lr}
  82              		.cfi_def_cfa_offset 8
  83              		.cfi_offset 7, -8
  84              		.cfi_offset 14, -4
  85 0002 82B0     		sub	sp, sp, #8
  86              		.cfi_def_cfa_offset 16
  87 0004 00AF     		add	r7, sp, #0
  88              		.cfi_def_cfa_register 7
 100:ControllerTest.c ****     
 101:ControllerTest.c ****     switch(CurrentTest.TestStep)
  89              		.loc 1 101 0
  90 0006 A04B     		ldr	r3, .L29
  91 0008 5B78     		ldrb	r3, [r3, #1]	@ zero_extendqisi2
  92 000a 092B     		cmp	r3, #9
  93 000c 00F23781 		bhi	.L2
  94 0010 01A2     		adr	r2, .L4
  95 0012 52F823F0 		ldr	pc, [r2, r3, lsl #2]
  96 0016 00BF     		.p2align 2
  97              	.L4:
  98 0018 41000000 		.word	.L3+1
  99 001c 8F000000 		.word	.L5+1
 100 0020 C9000000 		.word	.L6+1
 101 0024 ED000000 		.word	.L7+1
 102 0028 8F010000 		.word	.L8+1
 103 002c CF010000 		.word	.L9+1
 104 0030 D7010000 		.word	.L10+1
 105 0034 DF010000 		.word	.L11+1
 106 0038 E7010000 		.word	.L12+1
 107 003c 45020000 		.word	.L13+1
 108              		.p2align 1
 109              	.L3:
 102:ControllerTest.c ****     {   
 103:ControllerTest.c ****         
 104:ControllerTest.c ****         //----------------Set Default States----------------------------
 105:ControllerTest.c ****         // Controller should be powered only by Vbatt at this time, with ignition ON
 106:ControllerTest.c ****         //  - Enable Vbatt
ARM GAS  C:\Users\MARTHN~1\AppData\Local\Temp\cczzcuiY.s 			page 5


 107:ControllerTest.c ****         //  - Disable USB_5V
 108:ControllerTest.c ****         //  - Send packet simulating ignition ON event
 109:ControllerTest.c ****         //--------------------------------------------------------------
 110:ControllerTest.c ****         
 111:ControllerTest.c ****         
 112:ControllerTest.c ****         // *** Wire up the boards so that they are powered through ech other, simultaneously
 113:ControllerTest.c ****         // ***Try new programmer on existing boards (maybe change micros on one or both)
 114:ControllerTest.c ****         // ***Setup a controller with a relay normally - see it working and load a config file
 115:ControllerTest.c ****         // ***Config file needs to: 
 116:ControllerTest.c ****         // ***
 117:ControllerTest.c ****         // ***See that the controller powers up through the TF and cable - start talking testing fr
 118:ControllerTest.c ****         
 119:ControllerTest.c ****         case INITIALIZE_TEST:
 120:ControllerTest.c ****         
 121:ControllerTest.c ****             CTest_CONT_VBATT_EN_Write(1);                           // Enable Vbatt power to contro
 110              		.loc 1 121 0
 111 0040 0120     		movs	r0, #1
 112 0042 FFF7FEFF 		bl	CTest_CONT_VBATT_EN_Write
 122:ControllerTest.c ****             CTest_USB_5V_EN_Write(0);
 113              		.loc 1 122 0
 114 0046 0020     		movs	r0, #0
 115 0048 FFF7FEFF 		bl	CTest_USB_5V_EN_Write
 116              	.LBB2:
 123:ControllerTest.c ****         
 124:ControllerTest.c ****             for (uint8 i=0;i<NUMBER_TEST_STEPS;i++)                 // Reset Status of aall test st
 117              		.loc 1 124 0
 118 004c 0023     		movs	r3, #0
 119 004e FB71     		strb	r3, [r7, #7]
 120 0050 06E0     		b	.L14
 121              	.L15:
 125:ControllerTest.c ****                 CTestStatus[i] = '_';
 122              		.loc 1 125 0 discriminator 3
 123 0052 FB79     		ldrb	r3, [r7, #7]	@ zero_extendqisi2
 124 0054 8D4A     		ldr	r2, .L29+4
 125 0056 5F21     		movs	r1, #95
 126 0058 D154     		strb	r1, [r2, r3]
 124:ControllerTest.c ****                 CTestStatus[i] = '_';
 127              		.loc 1 124 0 discriminator 3
 128 005a FB79     		ldrb	r3, [r7, #7]	@ zero_extendqisi2
 129 005c 0133     		adds	r3, r3, #1
 130 005e FB71     		strb	r3, [r7, #7]
 131              	.L14:
 124:ControllerTest.c ****                 CTestStatus[i] = '_';
 132              		.loc 1 124 0 is_stmt 0 discriminator 1
 133 0060 FB79     		ldrb	r3, [r7, #7]	@ zero_extendqisi2
 134 0062 092B     		cmp	r3, #9
 135 0064 F5D9     		bls	.L15
 136              	.LBE2:
 126:ControllerTest.c ****         
 127:ControllerTest.c **** //            for(uint8 i=0;i<NUMBER_TEST_STEPS;i++)                  // Set current state to 'Init
 128:ControllerTest.c **** //                CTestStatus[i] = 'I';        
 129:ControllerTest.c ****             CurrentTest.Status = 'I';
 137              		.loc 1 129 0 is_stmt 1
 138 0066 884B     		ldr	r3, .L29
 139 0068 4922     		movs	r2, #73
 140 006a 9A70     		strb	r2, [r3, #2]
 130:ControllerTest.c ****         
ARM GAS  C:\Users\MARTHN~1\AppData\Local\Temp\cczzcuiY.s 			page 6


 131:ControllerTest.c ****             pTxPacket_Controller = getTxPacket_Controller();        // Tx - Initialize Tx packet, a
 141              		.loc 1 131 0
 142 006c FFF7FEFF 		bl	getTxPacket_Controller
 143 0070 0246     		mov	r2, r0
 144 0072 874B     		ldr	r3, .L29+8
 145 0074 1A60     		str	r2, [r3]
 132:ControllerTest.c **** //            if( PB_NextAction_Read())
 133:ControllerTest.c ****                 pTxPacket_Controller->Payload.RelayInputs = 0x01;
 146              		.loc 1 133 0
 147 0076 864B     		ldr	r3, .L29+8
 148 0078 1B68     		ldr	r3, [r3]
 149 007a 0122     		movs	r2, #1
 150 007c DA71     		strb	r2, [r3, #7]
 134:ControllerTest.c **** //            else
 135:ControllerTest.c **** //                pTxPacket_Controller->Payload.RelayInputs = 0x00;
 136:ControllerTest.c **** 
 137:ControllerTest.c ****             CyDelay(1000);
 151              		.loc 1 137 0
 152 007e 4FF47A70 		mov	r0, #1000
 153 0082 FFF7FEFF 		bl	CyDelay
 138:ControllerTest.c ****       
 139:ControllerTest.c ****             //CurrentTest.TestStep = INITIALIZE_TEST;
 140:ControllerTest.c ****             CurrentTest.TestStep = CONFIRM_BOOTUP;
 154              		.loc 1 140 0
 155 0086 804B     		ldr	r3, .L29
 156 0088 0122     		movs	r2, #1
 157 008a 5A70     		strb	r2, [r3, #1]
 141:ControllerTest.c ****             //CurrentTest.TestStep = TEST_POWERMODES;
 142:ControllerTest.c **** //            CurrentTest.TestStep = DEBUG_PORT;
 143:ControllerTest.c **** //            CurrentTest.TestStep = QUAD_STREAM;
 144:ControllerTest.c **** //            CurrentTest.TestStep = AUDIO_STREAM;
 145:ControllerTest.c **** //            CurrentTest.TestStep = LEDS_RGB;
 146:ControllerTest.c **** //            CurrentTest.TestStep = PUSHBUTTONS;
 147:ControllerTest.c ****         
 148:ControllerTest.c ****         break;
 158              		.loc 1 148 0
 159 008c F7E0     		b	.L2
 160              	.L5:
 149:ControllerTest.c ****         
 150:ControllerTest.c ****         case CONFIRM_BOOTUP:
 151:ControllerTest.c ****         
 152:ControllerTest.c ****             CTest_StartAutomatedStep();
 161              		.loc 1 152 0
 162 008e FFF7FEFF 		bl	CTest_StartAutomatedStep
 153:ControllerTest.c **** 
 154:ControllerTest.c ****             MUX_CTRL_230400_Write(CTEST_RELAY);
 163              		.loc 1 154 0
 164 0092 0020     		movs	r0, #0
 165 0094 FFF7FEFF 		bl	MUX_CTRL_230400_Write
 155:ControllerTest.c **** 
 156:ControllerTest.c ****             while( (!VerifyPacket_230400(CTEST_RELAY)) && (CTestStatus[CurrentTest.TestStep] != 'F'
 166              		.loc 1 156 0
 167 0098 00BF     		nop
 168              	.L17:
 169              		.loc 1 156 0 is_stmt 0 discriminator 2
 170 009a 0020     		movs	r0, #0
 171 009c FFF7FEFF 		bl	VerifyPacket_230400
ARM GAS  C:\Users\MARTHN~1\AppData\Local\Temp\cczzcuiY.s 			page 7


 172 00a0 0346     		mov	r3, r0
 173 00a2 002B     		cmp	r3, #0
 174 00a4 06D1     		bne	.L16
 175              		.loc 1 156 0 discriminator 1
 176 00a6 784B     		ldr	r3, .L29
 177 00a8 5B78     		ldrb	r3, [r3, #1]	@ zero_extendqisi2
 178 00aa 1A46     		mov	r2, r3
 179 00ac 774B     		ldr	r3, .L29+4
 180 00ae 9B5C     		ldrb	r3, [r3, r2]	@ zero_extendqisi2
 181 00b0 462B     		cmp	r3, #70
 182 00b2 F2D1     		bne	.L17
 183              	.L16:
 157:ControllerTest.c ****             {} 
 158:ControllerTest.c ****             
 159:ControllerTest.c ****             CTest_StopAutomatedStep();
 184              		.loc 1 159 0 is_stmt 1
 185 00b4 FFF7FEFF 		bl	CTest_StopAutomatedStep
 160:ControllerTest.c ****             
 161:ControllerTest.c ****             CyDelay(1000);
 186              		.loc 1 161 0
 187 00b8 4FF47A70 		mov	r0, #1000
 188 00bc FFF7FEFF 		bl	CyDelay
 162:ControllerTest.c **** 
 163:ControllerTest.c ****             //CurrentTest.TestStep = INITIALIZE_TEST; 
 164:ControllerTest.c ****             CurrentTest.TestStep = CONFIG_FILE;
 189              		.loc 1 164 0
 190 00c0 714B     		ldr	r3, .L29
 191 00c2 0222     		movs	r2, #2
 192 00c4 5A70     		strb	r2, [r3, #1]
 165:ControllerTest.c ****             //CurrentTest.TestStep = TEST_POWERMODES;
 166:ControllerTest.c ****             //CurrentTest.TestStep = QUAD_STREAM;
 167:ControllerTest.c ****         
 168:ControllerTest.c ****         break;
 193              		.loc 1 168 0
 194 00c6 DAE0     		b	.L2
 195              	.L6:
 169:ControllerTest.c ****             
 170:ControllerTest.c ****         case CONFIG_FILE:       // User must manually load config file using desktop software
 171:ControllerTest.c ****         
 172:ControllerTest.c ****             CTest_CONT_VBATT_EN_Write(1);                           // Enable Vbatt power to contro
 196              		.loc 1 172 0
 197 00c8 0120     		movs	r0, #1
 198 00ca FFF7FEFF 		bl	CTest_CONT_VBATT_EN_Write
 173:ControllerTest.c ****             CTest_USB_5V_EN_Write(1);
 199              		.loc 1 173 0
 200 00ce 0120     		movs	r0, #1
 201 00d0 FFF7FEFF 		bl	CTest_USB_5V_EN_Write
 174:ControllerTest.c ****         
 175:ControllerTest.c ****             CTest_PB_WaitForAction();
 202              		.loc 1 175 0
 203 00d4 FFF7FEFF 		bl	CTest_PB_WaitForAction
 176:ControllerTest.c ****             
 177:ControllerTest.c ****             CTest_CONT_VBATT_EN_Write(1);                           // Enable Vbatt power to contro
 204              		.loc 1 177 0
 205 00d8 0120     		movs	r0, #1
 206 00da FFF7FEFF 		bl	CTest_CONT_VBATT_EN_Write
 178:ControllerTest.c ****             CTest_USB_5V_EN_Write(0);
ARM GAS  C:\Users\MARTHN~1\AppData\Local\Temp\cczzcuiY.s 			page 8


 207              		.loc 1 178 0
 208 00de 0020     		movs	r0, #0
 209 00e0 FFF7FEFF 		bl	CTest_USB_5V_EN_Write
 179:ControllerTest.c **** 
 180:ControllerTest.c ****             //CurrentTest.TestStep = INITIALIZE_TEST;                   
 181:ControllerTest.c ****             //CurrentTest.TestStep = TEST_POWERMODES;
 182:ControllerTest.c ****             CurrentTest.TestStep = QUAD_STREAM;
 210              		.loc 1 182 0
 211 00e4 684B     		ldr	r3, .L29
 212 00e6 0422     		movs	r2, #4
 213 00e8 5A70     		strb	r2, [r3, #1]
 183:ControllerTest.c ****         
 184:ControllerTest.c ****         break;
 214              		.loc 1 184 0
 215 00ea C8E0     		b	.L2
 216              	.L7:
 185:ControllerTest.c ****         
 186:ControllerTest.c ****         case TEST_POWERMODES:           // Vbatt Detect, USB Detect - 230400bps 
 187:ControllerTest.c ****             
 188:ControllerTest.c ****             //CTestStatus[CurrentTest.TestStep] = 'B';
 189:ControllerTest.c ****             CTest_StartAutomatedStep();
 217              		.loc 1 189 0
 218 00ec FFF7FEFF 		bl	CTest_StartAutomatedStep
 190:ControllerTest.c ****                 
 191:ControllerTest.c ****             CTest_CONT_VBATT_EN_Write(1);                           // Set initial power mode condi
 219              		.loc 1 191 0
 220 00f0 0120     		movs	r0, #1
 221 00f2 FFF7FEFF 		bl	CTest_CONT_VBATT_EN_Write
 192:ControllerTest.c ****             CTest_USB_5V_EN_Write(0);     
 222              		.loc 1 192 0
 223 00f6 0020     		movs	r0, #0
 224 00f8 FFF7FEFF 		bl	CTest_USB_5V_EN_Write
 193:ControllerTest.c ****             
 194:ControllerTest.c ****             pTxPacket_Controller = getTxPacket_Controller();        // Tx - Send relay ignition 'of
 225              		.loc 1 194 0
 226 00fc FFF7FEFF 		bl	getTxPacket_Controller
 227 0100 0246     		mov	r2, r0
 228 0102 634B     		ldr	r3, .L29+8
 229 0104 1A60     		str	r2, [r3]
 195:ControllerTest.c ****             pTxPacket_Controller->Payload.RelayInputs = 0x00;
 230              		.loc 1 195 0
 231 0106 624B     		ldr	r3, .L29+8
 232 0108 1B68     		ldr	r3, [r3]
 233 010a 0022     		movs	r2, #0
 234 010c DA71     		strb	r2, [r3, #7]
 196:ControllerTest.c ****                            
 197:ControllerTest.c ****             pRxPacket_Controller = getRxPacket_Controller();
 235              		.loc 1 197 0
 236 010e FFF7FEFF 		bl	getRxPacket_Controller
 237 0112 0246     		mov	r2, r0
 238 0114 5F4B     		ldr	r3, .L29+12
 239 0116 1A60     		str	r2, [r3]
 198:ControllerTest.c ****             while( (pRxPacket_Controller->Payload.PowerState != 0x00) && (CTestStatus[CurrentTest.T
 240              		.loc 1 198 0
 241 0118 00BF     		nop
 242              	.L19:
 243              		.loc 1 198 0 is_stmt 0 discriminator 2
ARM GAS  C:\Users\MARTHN~1\AppData\Local\Temp\cczzcuiY.s 			page 9


 244 011a 5E4B     		ldr	r3, .L29+12
 245 011c 1B68     		ldr	r3, [r3]
 246 011e 93F84A30 		ldrb	r3, [r3, #74]	@ zero_extendqisi2
 247 0122 002B     		cmp	r3, #0
 248 0124 06D0     		beq	.L18
 249              		.loc 1 198 0 discriminator 1
 250 0126 584B     		ldr	r3, .L29
 251 0128 5B78     		ldrb	r3, [r3, #1]	@ zero_extendqisi2
 252 012a 1A46     		mov	r2, r3
 253 012c 574B     		ldr	r3, .L29+4
 254 012e 9B5C     		ldrb	r3, [r3, r2]	@ zero_extendqisi2
 255 0130 462B     		cmp	r3, #70
 256 0132 F2D1     		bne	.L19
 257              	.L18:
 199:ControllerTest.c ****             {}
 200:ControllerTest.c ****             
 201:ControllerTest.c ****             pTxPacket_Controller->Payload.RelayInputs = 0x01;       // Tx - Send relay ignition 'on
 258              		.loc 1 201 0 is_stmt 1
 259 0134 564B     		ldr	r3, .L29+8
 260 0136 1B68     		ldr	r3, [r3]
 261 0138 0122     		movs	r2, #1
 262 013a DA71     		strb	r2, [r3, #7]
 202:ControllerTest.c ****             
 203:ControllerTest.c ****             while( (pRxPacket_Controller->Payload.PowerState != 0x01) && (CTestStatus[CurrentTest.T
 263              		.loc 1 203 0
 264 013c 00BF     		nop
 265              	.L21:
 266              		.loc 1 203 0 is_stmt 0 discriminator 2
 267 013e 554B     		ldr	r3, .L29+12
 268 0140 1B68     		ldr	r3, [r3]
 269 0142 93F84A30 		ldrb	r3, [r3, #74]	@ zero_extendqisi2
 270 0146 012B     		cmp	r3, #1
 271 0148 06D0     		beq	.L20
 272              		.loc 1 203 0 discriminator 1
 273 014a 4F4B     		ldr	r3, .L29
 274 014c 5B78     		ldrb	r3, [r3, #1]	@ zero_extendqisi2
 275 014e 1A46     		mov	r2, r3
 276 0150 4E4B     		ldr	r3, .L29+4
 277 0152 9B5C     		ldrb	r3, [r3, r2]	@ zero_extendqisi2
 278 0154 462B     		cmp	r3, #70
 279 0156 F2D1     		bne	.L21
 280              	.L20:
 204:ControllerTest.c ****             {}
 205:ControllerTest.c ****                                    
 206:ControllerTest.c ****             CTest_USB_5V_EN_Write(1);                               // Turn on USB_5V
 281              		.loc 1 206 0 is_stmt 1
 282 0158 0120     		movs	r0, #1
 283 015a FFF7FEFF 		bl	CTest_USB_5V_EN_Write
 207:ControllerTest.c **** 
 208:ControllerTest.c ****             while( (pRxPacket_Controller->Payload.PowerState != 0x02) && (CTestStatus[CurrentTest.T
 284              		.loc 1 208 0
 285 015e 00BF     		nop
 286              	.L23:
 287              		.loc 1 208 0 is_stmt 0 discriminator 2
 288 0160 4C4B     		ldr	r3, .L29+12
 289 0162 1B68     		ldr	r3, [r3]
 290 0164 93F84A30 		ldrb	r3, [r3, #74]	@ zero_extendqisi2
ARM GAS  C:\Users\MARTHN~1\AppData\Local\Temp\cczzcuiY.s 			page 10


 291 0168 022B     		cmp	r3, #2
 292 016a 06D0     		beq	.L22
 293              		.loc 1 208 0 discriminator 1
 294 016c 464B     		ldr	r3, .L29
 295 016e 5B78     		ldrb	r3, [r3, #1]	@ zero_extendqisi2
 296 0170 1A46     		mov	r2, r3
 297 0172 464B     		ldr	r3, .L29+4
 298 0174 9B5C     		ldrb	r3, [r3, r2]	@ zero_extendqisi2
 299 0176 462B     		cmp	r3, #70
 300 0178 F2D1     		bne	.L23
 301              	.L22:
 209:ControllerTest.c ****             {}
 210:ControllerTest.c ****             
 211:ControllerTest.c ****             CTest_StopAutomatedStep();
 302              		.loc 1 211 0 is_stmt 1
 303 017a FFF7FEFF 		bl	CTest_StopAutomatedStep
 212:ControllerTest.c ****             
 213:ControllerTest.c ****             CyDelay(1000);
 304              		.loc 1 213 0
 305 017e 4FF47A70 		mov	r0, #1000
 306 0182 FFF7FEFF 		bl	CyDelay
 214:ControllerTest.c **** 
 215:ControllerTest.c ****             //CurrentTest.TestStep = INITIALIZE_TEST;
 216:ControllerTest.c ****             CurrentTest.TestStep = QUAD_STREAM;
 307              		.loc 1 216 0
 308 0186 404B     		ldr	r3, .L29
 309 0188 0422     		movs	r2, #4
 310 018a 5A70     		strb	r2, [r3, #1]
 217:ControllerTest.c ****             
 218:ControllerTest.c ****         break;
 311              		.loc 1 218 0
 312 018c 77E0     		b	.L2
 313              	.L8:
 219:ControllerTest.c ****                 
 220:ControllerTest.c ****         case QUAD_STREAM:
 221:ControllerTest.c ****             // Config file should be sending a quad stream based on a pushbutton/slideswitch
 222:ControllerTest.c **** 
 223:ControllerTest.c ****             LED_EN_Write(1);        
 314              		.loc 1 223 0
 315 018e 0120     		movs	r0, #1
 316 0190 FFF7FEFF 		bl	LED_EN_Write
 224:ControllerTest.c ****         
 225:ControllerTest.c ****             CTest_StartAutomatedStep();
 317              		.loc 1 225 0
 318 0194 FFF7FEFF 		bl	CTest_StartAutomatedStep
 226:ControllerTest.c **** 
 227:ControllerTest.c ****             MUX_CTRL_230400_Write(CTEST_QUAD);
 319              		.loc 1 227 0
 320 0198 0020     		movs	r0, #0
 321 019a FFF7FEFF 		bl	MUX_CTRL_230400_Write
 228:ControllerTest.c **** 
 229:ControllerTest.c ****             while( (!VerifyPacket_460800(CTEST_RTEST_QUAD)) && (CTestStatus[CurrentTest.TestStep] !
 322              		.loc 1 229 0
 323 019e 00BF     		nop
 324              	.L25:
 325              		.loc 1 229 0 is_stmt 0 discriminator 2
 326 01a0 0120     		movs	r0, #1
ARM GAS  C:\Users\MARTHN~1\AppData\Local\Temp\cczzcuiY.s 			page 11


 327 01a2 FFF7FEFF 		bl	VerifyPacket_460800
 328 01a6 0346     		mov	r3, r0
 329 01a8 002B     		cmp	r3, #0
 330 01aa 06D1     		bne	.L24
 331              		.loc 1 229 0 discriminator 1
 332 01ac 364B     		ldr	r3, .L29
 333 01ae 5B78     		ldrb	r3, [r3, #1]	@ zero_extendqisi2
 334 01b0 1A46     		mov	r2, r3
 335 01b2 364B     		ldr	r3, .L29+4
 336 01b4 9B5C     		ldrb	r3, [r3, r2]	@ zero_extendqisi2
 337 01b6 462B     		cmp	r3, #70
 338 01b8 F2D1     		bne	.L25
 339              	.L24:
 230:ControllerTest.c ****             {}
 231:ControllerTest.c ****             
 232:ControllerTest.c ****             CTest_StopAutomatedStep();
 340              		.loc 1 232 0 is_stmt 1
 341 01ba FFF7FEFF 		bl	CTest_StopAutomatedStep
 233:ControllerTest.c ****             
 234:ControllerTest.c ****             CyDelay(1000);
 342              		.loc 1 234 0
 343 01be 4FF47A70 		mov	r0, #1000
 344 01c2 FFF7FEFF 		bl	CyDelay
 235:ControllerTest.c ****             
 236:ControllerTest.c ****             CurrentTest.TestStep = INITIALIZE_TEST;
 345              		.loc 1 236 0
 346 01c6 304B     		ldr	r3, .L29
 347 01c8 0022     		movs	r2, #0
 348 01ca 5A70     		strb	r2, [r3, #1]
 237:ControllerTest.c ****             //CurrentTest.TestStep = AUDIO_STREAM;
 238:ControllerTest.c **** 
 239:ControllerTest.c ****         break;
 349              		.loc 1 239 0
 350 01cc 57E0     		b	.L2
 351              	.L9:
 240:ControllerTest.c ****                        
 241:ControllerTest.c ****         case AUDIO_STREAM:
 242:ControllerTest.c ****                 
 243:ControllerTest.c ****             // Audio Stream (not a priority)
 244:ControllerTest.c ****             
 245:ControllerTest.c ****             CurrentTest.TestStep = INITIALIZE_TEST;
 352              		.loc 1 245 0
 353 01ce 2E4B     		ldr	r3, .L29
 354 01d0 0022     		movs	r2, #0
 355 01d2 5A70     		strb	r2, [r3, #1]
 246:ControllerTest.c ****             //CurrentTest.TestStep = DEBUG_PORT;
 247:ControllerTest.c ****                 
 248:ControllerTest.c ****         break;
 356              		.loc 1 248 0
 357 01d4 53E0     		b	.L2
 358              	.L10:
 249:ControllerTest.c ****                          
 250:ControllerTest.c ****         case DEBUG_PORT:   
 251:ControllerTest.c ****                 
 252:ControllerTest.c ****             // Debug Port (will need hardware to test) 
 253:ControllerTest.c ****             
 254:ControllerTest.c ****             CurrentTest.TestStep = INITIALIZE_TEST;
ARM GAS  C:\Users\MARTHN~1\AppData\Local\Temp\cczzcuiY.s 			page 12


 359              		.loc 1 254 0
 360 01d6 2C4B     		ldr	r3, .L29
 361 01d8 0022     		movs	r2, #0
 362 01da 5A70     		strb	r2, [r3, #1]
 255:ControllerTest.c ****             //CurrentTest.TestStep = OBDII;
 256:ControllerTest.c ****       
 257:ControllerTest.c ****         break;  
 363              		.loc 1 257 0
 364 01dc 4FE0     		b	.L2
 365              	.L11:
 258:ControllerTest.c ****             
 259:ControllerTest.c ****         case OBDII:  
 260:ControllerTest.c ****                 
 261:ControllerTest.c ****             // OBDII - (requires a config file)
 262:ControllerTest.c ****             // Send a known vehicle event
 263:ControllerTest.c ****             // Verify expected response - (corresponding output will be enabled)
 264:ControllerTest.c ****             
 265:ControllerTest.c ****             CurrentTest.TestStep = INITIALIZE_TEST;
 366              		.loc 1 265 0
 367 01de 2A4B     		ldr	r3, .L29
 368 01e0 0022     		movs	r2, #0
 369 01e2 5A70     		strb	r2, [r3, #1]
 266:ControllerTest.c ****             //CurrentTest.TestStep = LEDS_RGB;
 267:ControllerTest.c ****       
 268:ControllerTest.c ****         break;             
 370              		.loc 1 268 0
 371 01e4 4BE0     		b	.L2
 372              	.L12:
 269:ControllerTest.c ****             
 270:ControllerTest.c ****         case LEDS_RGB:   
 271:ControllerTest.c ****                 
 272:ControllerTest.c ****             // Send a 'I' packet upstream to controller to manually control the LEDs
 273:ControllerTest.c ****             // Make them full bright red for 1 sec, then green, then blue
 274:ControllerTest.c ****             
 275:ControllerTest.c ****             pTxPacket_Relay = getTxPacket_Relay();        // Tx - Initialize Tx packet, and begin s
 373              		.loc 1 275 0
 374 01e6 FFF7FEFF 		bl	getTxPacket_Relay
 375 01ea 0246     		mov	r2, r0
 376 01ec 2A4B     		ldr	r3, .L29+16
 377 01ee 1A60     		str	r2, [r3]
 276:ControllerTest.c **** 
 277:ControllerTest.c ****             pTxPacket_Relay->Payload.LED_01_B = 0xFF;
 378              		.loc 1 277 0
 379 01f0 294B     		ldr	r3, .L29+16
 380 01f2 1B68     		ldr	r3, [r3]
 381 01f4 FF22     		movs	r2, #255
 382 01f6 83F82F20 		strb	r2, [r3, #47]
 278:ControllerTest.c ****             pTxPacket_Relay->Payload.LED_02_B = 0xFF;
 383              		.loc 1 278 0
 384 01fa 274B     		ldr	r3, .L29+16
 385 01fc 1B68     		ldr	r3, [r3]
 386 01fe FF22     		movs	r2, #255
 387 0200 83F82C20 		strb	r2, [r3, #44]
 279:ControllerTest.c ****             pTxPacket_Relay->Payload.LED_03_B = 0xFF;
 388              		.loc 1 279 0
 389 0204 244B     		ldr	r3, .L29+16
 390 0206 1B68     		ldr	r3, [r3]
ARM GAS  C:\Users\MARTHN~1\AppData\Local\Temp\cczzcuiY.s 			page 13


 391 0208 FF22     		movs	r2, #255
 392 020a 83F82920 		strb	r2, [r3, #41]
 280:ControllerTest.c ****             pTxPacket_Relay->Payload.LED_04_B = 0xFF;
 393              		.loc 1 280 0
 394 020e 224B     		ldr	r3, .L29+16
 395 0210 1B68     		ldr	r3, [r3]
 396 0212 FF22     		movs	r2, #255
 397 0214 83F82620 		strb	r2, [r3, #38]
 281:ControllerTest.c ****             pTxPacket_Relay->Payload.LED_05_B = 0xFF;
 398              		.loc 1 281 0
 399 0218 1F4B     		ldr	r3, .L29+16
 400 021a 1B68     		ldr	r3, [r3]
 401 021c FF22     		movs	r2, #255
 402 021e 83F82320 		strb	r2, [r3, #35]
 282:ControllerTest.c ****             pTxPacket_Relay->Payload.LED_06_B = 0xFF;
 403              		.loc 1 282 0
 404 0222 1D4B     		ldr	r3, .L29+16
 405 0224 1B68     		ldr	r3, [r3]
 406 0226 FF22     		movs	r2, #255
 407 0228 83F82020 		strb	r2, [r3, #32]
 283:ControllerTest.c ****             pTxPacket_Relay->Payload.LED_07_B = 0xFF;
 408              		.loc 1 283 0
 409 022c 1A4B     		ldr	r3, .L29+16
 410 022e 1B68     		ldr	r3, [r3]
 411 0230 FF22     		movs	r2, #255
 412 0232 5A77     		strb	r2, [r3, #29]
 284:ControllerTest.c ****             pTxPacket_Relay->Payload.LED_08_B = 0xFF;
 413              		.loc 1 284 0
 414 0234 184B     		ldr	r3, .L29+16
 415 0236 1B68     		ldr	r3, [r3]
 416 0238 FF22     		movs	r2, #255
 417 023a 9A76     		strb	r2, [r3, #26]
 285:ControllerTest.c ****             
 286:ControllerTest.c ****             CurrentTest.TestStep = INITIALIZE_TEST;
 418              		.loc 1 286 0
 419 023c 124B     		ldr	r3, .L29
 420 023e 0022     		movs	r2, #0
 421 0240 5A70     		strb	r2, [r3, #1]
 287:ControllerTest.c ****             //CurrentTest.TestStep = PUSHBUTTONS;
 288:ControllerTest.c ****       
 289:ControllerTest.c ****         break;  
 422              		.loc 1 289 0
 423 0242 1CE0     		b	.L2
 424              	.L13:
 290:ControllerTest.c ****             
 291:ControllerTest.c ****         case PUSHBUTTONS:  
 292:ControllerTest.c ****             // configfile - Controller should have the config file setup to turn on all outputs wit
 293:ControllerTest.c ****             // wait until all 
 294:ControllerTest.c **** 
 295:ControllerTest.c ****             CTestStatus[CurrentTest.TestStep] = 'W';
 425              		.loc 1 295 0
 426 0244 104B     		ldr	r3, .L29
 427 0246 5B78     		ldrb	r3, [r3, #1]	@ zero_extendqisi2
 428 0248 1A46     		mov	r2, r3
 429 024a 104B     		ldr	r3, .L29+4
 430 024c 5721     		movs	r1, #87
 431 024e 9954     		strb	r1, [r3, r2]
ARM GAS  C:\Users\MARTHN~1\AppData\Local\Temp\cczzcuiY.s 			page 14


 296:ControllerTest.c ****             
 297:ControllerTest.c ****             while( (!CTest_ReadPushbuttons()) && (CTestStatus[CurrentTest.TestStep] != 'F') )   // 
 432              		.loc 1 297 0
 433 0250 00BF     		nop
 434              	.L27:
 435              		.loc 1 297 0 is_stmt 0 discriminator 2
 436 0252 FFF7FEFF 		bl	CTest_ReadPushbuttons
 437 0256 0346     		mov	r3, r0
 438 0258 002B     		cmp	r3, #0
 439 025a 06D1     		bne	.L26
 440              		.loc 1 297 0 discriminator 1
 441 025c 0A4B     		ldr	r3, .L29
 442 025e 5B78     		ldrb	r3, [r3, #1]	@ zero_extendqisi2
 443 0260 1A46     		mov	r2, r3
 444 0262 0A4B     		ldr	r3, .L29+4
 445 0264 9B5C     		ldrb	r3, [r3, r2]	@ zero_extendqisi2
 446 0266 462B     		cmp	r3, #70
 447 0268 F3D1     		bne	.L27
 448              	.L26:
 298:ControllerTest.c ****             {}
 299:ControllerTest.c ****             
 300:ControllerTest.c ****             CTestStatus[CurrentTest.TestStep] = 'P';
 449              		.loc 1 300 0 is_stmt 1
 450 026a 074B     		ldr	r3, .L29
 451 026c 5B78     		ldrb	r3, [r3, #1]	@ zero_extendqisi2
 452 026e 1A46     		mov	r2, r3
 453 0270 064B     		ldr	r3, .L29+4
 454 0272 5021     		movs	r1, #80
 455 0274 9954     		strb	r1, [r3, r2]
 301:ControllerTest.c ****                 
 302:ControllerTest.c ****             CurrentTest.TestStep = INITIALIZE_TEST;
 456              		.loc 1 302 0
 457 0276 044B     		ldr	r3, .L29
 458 0278 0022     		movs	r2, #0
 459 027a 5A70     		strb	r2, [r3, #1]
 303:ControllerTest.c ****       
 304:ControllerTest.c ****         break;  
 460              		.loc 1 304 0
 461 027c 00BF     		nop
 462              	.L2:
 305:ControllerTest.c ****             
 306:ControllerTest.c ****     }
 307:ControllerTest.c ****     
 308:ControllerTest.c ****     return(0);
 463              		.loc 1 308 0
 464 027e 0023     		movs	r3, #0
 309:ControllerTest.c **** }
 465              		.loc 1 309 0
 466 0280 1846     		mov	r0, r3
 467 0282 0837     		adds	r7, r7, #8
 468              		.cfi_def_cfa_offset 8
 469 0284 BD46     		mov	sp, r7
 470              		.cfi_def_cfa_register 13
 471              		@ sp needed
 472 0286 80BD     		pop	{r7, pc}
 473              	.L30:
 474              		.align	2
ARM GAS  C:\Users\MARTHN~1\AppData\Local\Temp\cczzcuiY.s 			page 15


 475              	.L29:
 476 0288 00000000 		.word	CurrentTest
 477 028c C4000000 		.word	CTestStatus
 478 0290 64000000 		.word	pTxPacket_Controller
 479 0294 50000000 		.word	pRxPacket_Controller
 480 0298 B8000000 		.word	pTxPacket_Relay
 481              		.cfi_endproc
 482              	.LFE63:
 483              		.size	ControllerTest, .-ControllerTest
 484              		.section	.text.CTest_ReadPushbuttons,"ax",%progbits
 485              		.align	2
 486              		.global	CTest_ReadPushbuttons
 487              		.thumb
 488              		.thumb_func
 489              		.type	CTest_ReadPushbuttons, %function
 490              	CTest_ReadPushbuttons:
 491              	.LFB64:
 310:ControllerTest.c **** 
 311:ControllerTest.c **** 
 312:ControllerTest.c **** 
 313:ControllerTest.c **** uint8 CTest_ReadPushbuttons()
 314:ControllerTest.c **** {
 492              		.loc 1 314 0
 493              		.cfi_startproc
 494              		@ args = 0, pretend = 0, frame = 0
 495              		@ frame_needed = 1, uses_anonymous_args = 0
 496 0000 80B5     		push	{r7, lr}
 497              		.cfi_def_cfa_offset 8
 498              		.cfi_offset 7, -8
 499              		.cfi_offset 14, -4
 500 0002 00AF     		add	r7, sp, #0
 501              		.cfi_def_cfa_register 7
 315:ControllerTest.c **** 
 316:ControllerTest.c ****     MUX_CTRL_230400_Write(CTEST_RELAY);                             // Read a 'I' (includes 'P') pa
 502              		.loc 1 316 0
 503 0004 0020     		movs	r0, #0
 504 0006 FFF7FEFF 		bl	MUX_CTRL_230400_Write
 317:ControllerTest.c ****     pRxPacket_Controller = getRxPacket_Controller();    
 505              		.loc 1 317 0
 506 000a FFF7FEFF 		bl	getRxPacket_Controller
 507 000e 0246     		mov	r2, r0
 508 0010 0F4B     		ldr	r3, .L34
 509 0012 1A60     		str	r2, [r3]
 318:ControllerTest.c ****     
 319:ControllerTest.c ****     if( (pRxPacket_Controller->Payload.Outputs_1to8 == 0xFF) &&
 510              		.loc 1 319 0
 511 0014 0E4B     		ldr	r3, .L34
 512 0016 1B68     		ldr	r3, [r3]
 513 0018 93F84530 		ldrb	r3, [r3, #69]	@ zero_extendqisi2
 514 001c FF2B     		cmp	r3, #255
 515 001e 13D1     		bne	.L32
 320:ControllerTest.c ****         (pRxPacket_Controller->Payload.Outputs_9to16 == 0xFF) &&
 516              		.loc 1 320 0 discriminator 1
 517 0020 0B4B     		ldr	r3, .L34
 518 0022 1B68     		ldr	r3, [r3]
 519 0024 93F84630 		ldrb	r3, [r3, #70]	@ zero_extendqisi2
 319:ControllerTest.c ****         (pRxPacket_Controller->Payload.Outputs_9to16 == 0xFF) &&
ARM GAS  C:\Users\MARTHN~1\AppData\Local\Temp\cczzcuiY.s 			page 16


 520              		.loc 1 319 0 discriminator 1
 521 0028 FF2B     		cmp	r3, #255
 522 002a 0DD1     		bne	.L32
 321:ControllerTest.c ****         (pRxPacket_Controller->Payload.Outputs_17to24 == 0xFF) &&
 523              		.loc 1 321 0
 524 002c 084B     		ldr	r3, .L34
 525 002e 1B68     		ldr	r3, [r3]
 526 0030 93F84730 		ldrb	r3, [r3, #71]	@ zero_extendqisi2
 320:ControllerTest.c ****         (pRxPacket_Controller->Payload.Outputs_9to16 == 0xFF) &&
 527              		.loc 1 320 0
 528 0034 FF2B     		cmp	r3, #255
 529 0036 07D1     		bne	.L32
 322:ControllerTest.c ****         (pRxPacket_Controller->Payload.Outputs_25to32 == 0xFF) )
 530              		.loc 1 322 0
 531 0038 054B     		ldr	r3, .L34
 532 003a 1B68     		ldr	r3, [r3]
 533 003c 93F84830 		ldrb	r3, [r3, #72]	@ zero_extendqisi2
 321:ControllerTest.c ****         (pRxPacket_Controller->Payload.Outputs_17to24 == 0xFF) &&
 534              		.loc 1 321 0
 535 0040 FF2B     		cmp	r3, #255
 536 0042 01D1     		bne	.L32
 323:ControllerTest.c ****     {
 324:ControllerTest.c ****         return(1);
 537              		.loc 1 324 0
 538 0044 0123     		movs	r3, #1
 539 0046 00E0     		b	.L33
 540              	.L32:
 325:ControllerTest.c ****     } 
 326:ControllerTest.c ****     else
 327:ControllerTest.c ****         return(0);
 541              		.loc 1 327 0
 542 0048 0023     		movs	r3, #0
 543              	.L33:
 328:ControllerTest.c ****        
 329:ControllerTest.c **** }
 544              		.loc 1 329 0
 545 004a 1846     		mov	r0, r3
 546 004c 80BD     		pop	{r7, pc}
 547              	.L35:
 548 004e 00BF     		.align	2
 549              	.L34:
 550 0050 50000000 		.word	pRxPacket_Controller
 551              		.cfi_endproc
 552              	.LFE64:
 553              		.size	CTest_ReadPushbuttons, .-CTest_ReadPushbuttons
 554              		.section	.text.getTxPacket_Relay,"ax",%progbits
 555              		.align	2
 556              		.global	getTxPacket_Relay
 557              		.thumb
 558              		.thumb_func
 559              		.type	getTxPacket_Relay, %function
 560              	getTxPacket_Relay:
 561              	.LFB65:
 330:ControllerTest.c **** 
 331:ControllerTest.c **** //uint8 CTest_ReadPowerMode()
 332:ControllerTest.c **** //{  
 333:ControllerTest.c **** //    
ARM GAS  C:\Users\MARTHN~1\AppData\Local\Temp\cczzcuiY.s 			page 17


 334:ControllerTest.c **** //    //*** We need to inlude Relay ignition signal, and OBD as triggers
 335:ControllerTest.c **** //    //*** (Controller config file should have all input logic set to Hi???)
 336:ControllerTest.c **** //    
 337:ControllerTest.c **** //    // Switch MUX_230400 to read CTest_RS485_Relay_Rx
 338:ControllerTest.c **** ////        MUX_CTRL_230400_Write(0x00);
 339:ControllerTest.c **** //     
 340:ControllerTest.c **** //    // Read the PowerState byte, Return the Powerstate byte
 341:ControllerTest.c **** //        pRxPacket_Controller = getRxPacket_Controller();
 342:ControllerTest.c **** //        return(pRxPacket_Controller->Payload.PowerState);
 343:ControllerTest.c **** //   
 344:ControllerTest.c **** //}
 345:ControllerTest.c **** 
 346:ControllerTest.c **** //void CTest_SendIgnitionState(uint8 ignition_state)           //*** This function needs work
 347:ControllerTest.c **** //{
 348:ControllerTest.c **** //    
 349:ControllerTest.c **** //    pTxPacket_Controller = getTxPacket_Controller();
 350:ControllerTest.c **** //    pTxPacket_Controller->Payload.RelayInputs = (pTxPacket_Controller->Payload.RelayInputs | 0x01
 351:ControllerTest.c **** //    
 352:ControllerTest.c **** //    MUX_CTRL_230400_Write(0x00);                        // Set the Mux channel
 353:ControllerTest.c **** //    
 354:ControllerTest.c **** //    
 355:ControllerTest.c **** //    return;
 356:ControllerTest.c **** //}
 357:ControllerTest.c **** 
 358:ControllerTest.c **** 
 359:ControllerTest.c **** TxPacket_RelaySiren * getTxPacket_Relay(void)
 360:ControllerTest.c **** {
 562              		.loc 1 360 0
 563              		.cfi_startproc
 564              		@ args = 0, pretend = 0, frame = 0
 565              		@ frame_needed = 1, uses_anonymous_args = 0
 566              		@ link register save eliminated.
 567 0000 80B4     		push	{r7}
 568              		.cfi_def_cfa_offset 4
 569              		.cfi_offset 7, -4
 570 0002 00AF     		add	r7, sp, #0
 571              		.cfi_def_cfa_register 7
 361:ControllerTest.c ****     pTxPacket_Relay = &txPacket_Relay;
 572              		.loc 1 361 0
 573 0004 044B     		ldr	r3, .L38
 574 0006 054A     		ldr	r2, .L38+4
 575 0008 1A60     		str	r2, [r3]
 362:ControllerTest.c ****     
 363:ControllerTest.c ****     return pTxPacket_Relay;
 576              		.loc 1 363 0
 577 000a 034B     		ldr	r3, .L38
 578 000c 1B68     		ldr	r3, [r3]
 364:ControllerTest.c **** }
 579              		.loc 1 364 0
 580 000e 1846     		mov	r0, r3
 581 0010 BD46     		mov	sp, r7
 582              		.cfi_def_cfa_register 13
 583              		@ sp needed
 584 0012 80BC     		pop	{r7}
 585              		.cfi_restore 7
 586              		.cfi_def_cfa_offset 0
 587 0014 7047     		bx	lr
ARM GAS  C:\Users\MARTHN~1\AppData\Local\Temp\cczzcuiY.s 			page 18


 588              	.L39:
 589 0016 00BF     		.align	2
 590              	.L38:
 591 0018 B8000000 		.word	pTxPacket_Relay
 592 001c 68000000 		.word	txPacket_Relay
 593              		.cfi_endproc
 594              	.LFE65:
 595              		.size	getTxPacket_Relay, .-getTxPacket_Relay
 596              		.section	.text.getRxPacket_Controller,"ax",%progbits
 597              		.align	2
 598              		.global	getRxPacket_Controller
 599              		.thumb
 600              		.thumb_func
 601              		.type	getRxPacket_Controller, %function
 602              	getRxPacket_Controller:
 603              	.LFB66:
 365:ControllerTest.c **** 
 366:ControllerTest.c **** RxPacket_Controller * getRxPacket_Controller(void)
 367:ControllerTest.c **** {
 604              		.loc 1 367 0
 605              		.cfi_startproc
 606              		@ args = 0, pretend = 0, frame = 0
 607              		@ frame_needed = 1, uses_anonymous_args = 0
 608              		@ link register save eliminated.
 609 0000 80B4     		push	{r7}
 610              		.cfi_def_cfa_offset 4
 611              		.cfi_offset 7, -4
 612 0002 00AF     		add	r7, sp, #0
 613              		.cfi_def_cfa_register 7
 368:ControllerTest.c ****     pRxPacket_Controller = &rxPacket_Controller;
 614              		.loc 1 368 0
 615 0004 044B     		ldr	r3, .L42
 616 0006 054A     		ldr	r2, .L42+4
 617 0008 1A60     		str	r2, [r3]
 369:ControllerTest.c ****     
 370:ControllerTest.c ****     return pRxPacket_Controller;
 618              		.loc 1 370 0
 619 000a 034B     		ldr	r3, .L42
 620 000c 1B68     		ldr	r3, [r3]
 371:ControllerTest.c **** }
 621              		.loc 1 371 0
 622 000e 1846     		mov	r0, r3
 623 0010 BD46     		mov	sp, r7
 624              		.cfi_def_cfa_register 13
 625              		@ sp needed
 626 0012 80BC     		pop	{r7}
 627              		.cfi_restore 7
 628              		.cfi_def_cfa_offset 0
 629 0014 7047     		bx	lr
 630              	.L43:
 631 0016 00BF     		.align	2
 632              	.L42:
 633 0018 50000000 		.word	pRxPacket_Controller
 634 001c 00000000 		.word	rxPacket_Controller
 635              		.cfi_endproc
 636              	.LFE66:
 637              		.size	getRxPacket_Controller, .-getRxPacket_Controller
ARM GAS  C:\Users\MARTHN~1\AppData\Local\Temp\cczzcuiY.s 			page 19


 638              		.section	.text.getTxPacket_Controller,"ax",%progbits
 639              		.align	2
 640              		.global	getTxPacket_Controller
 641              		.thumb
 642              		.thumb_func
 643              		.type	getTxPacket_Controller, %function
 644              	getTxPacket_Controller:
 645              	.LFB67:
 372:ControllerTest.c **** 
 373:ControllerTest.c **** TxPacket_Controller * getTxPacket_Controller(void)
 374:ControllerTest.c **** {
 646              		.loc 1 374 0
 647              		.cfi_startproc
 648              		@ args = 0, pretend = 0, frame = 0
 649              		@ frame_needed = 1, uses_anonymous_args = 0
 650              		@ link register save eliminated.
 651 0000 80B4     		push	{r7}
 652              		.cfi_def_cfa_offset 4
 653              		.cfi_offset 7, -4
 654 0002 00AF     		add	r7, sp, #0
 655              		.cfi_def_cfa_register 7
 375:ControllerTest.c ****     pTxPacket_Controller = &txPacket_Controller;
 656              		.loc 1 375 0
 657 0004 044B     		ldr	r3, .L46
 658 0006 054A     		ldr	r2, .L46+4
 659 0008 1A60     		str	r2, [r3]
 376:ControllerTest.c ****     
 377:ControllerTest.c ****     return pTxPacket_Controller;
 660              		.loc 1 377 0
 661 000a 034B     		ldr	r3, .L46
 662 000c 1B68     		ldr	r3, [r3]
 378:ControllerTest.c **** }
 663              		.loc 1 378 0
 664 000e 1846     		mov	r0, r3
 665 0010 BD46     		mov	sp, r7
 666              		.cfi_def_cfa_register 13
 667              		@ sp needed
 668 0012 80BC     		pop	{r7}
 669              		.cfi_restore 7
 670              		.cfi_def_cfa_offset 0
 671 0014 7047     		bx	lr
 672              	.L47:
 673 0016 00BF     		.align	2
 674              	.L46:
 675 0018 64000000 		.word	pTxPacket_Controller
 676 001c 54000000 		.word	txPacket_Controller
 677              		.cfi_endproc
 678              	.LFE67:
 679              		.size	getTxPacket_Controller, .-getTxPacket_Controller
 680              		.section	.text.CTest_sendDiagPacket,"ax",%progbits
 681              		.align	2
 682              		.global	CTest_sendDiagPacket
 683              		.thumb
 684              		.thumb_func
 685              		.type	CTest_sendDiagPacket, %function
 686              	CTest_sendDiagPacket:
 687              	.LFB68:
ARM GAS  C:\Users\MARTHN~1\AppData\Local\Temp\cczzcuiY.s 			page 20


 379:ControllerTest.c **** 
 380:ControllerTest.c **** void CTest_sendDiagPacket(void)
 381:ControllerTest.c **** {
 688              		.loc 1 381 0
 689              		.cfi_startproc
 690              		@ args = 0, pretend = 0, frame = 8
 691              		@ frame_needed = 1, uses_anonymous_args = 0
 692 0000 80B5     		push	{r7, lr}
 693              		.cfi_def_cfa_offset 8
 694              		.cfi_offset 7, -8
 695              		.cfi_offset 14, -4
 696 0002 82B0     		sub	sp, sp, #8
 697              		.cfi_def_cfa_offset 16
 698 0004 00AF     		add	r7, sp, #0
 699              		.cfi_def_cfa_register 7
 700              	.LBB3:
 382:ControllerTest.c **** 
 383:ControllerTest.c ****     static uint8 CTestStatus_display[ (NUMBER_TEST_STEPS*2) ];
 384:ControllerTest.c ****     
 385:ControllerTest.c ****     for(uint8 i=0;i<NUMBER_TEST_STEPS;i++)
 701              		.loc 1 385 0
 702 0006 0023     		movs	r3, #0
 703 0008 FB71     		strb	r3, [r7, #7]
 704 000a 0FE0     		b	.L49
 705              	.L50:
 386:ControllerTest.c ****     {
 387:ControllerTest.c ****         CTestStatus_display[i*2] = CTestStatus[i];
 706              		.loc 1 387 0 discriminator 3
 707 000c FB79     		ldrb	r3, [r7, #7]	@ zero_extendqisi2
 708 000e 5B00     		lsls	r3, r3, #1
 709 0010 FA79     		ldrb	r2, [r7, #7]	@ zero_extendqisi2
 710 0012 0F49     		ldr	r1, .L52
 711 0014 895C     		ldrb	r1, [r1, r2]	@ zero_extendqisi2
 712 0016 0F4A     		ldr	r2, .L52+4
 713 0018 D154     		strb	r1, [r2, r3]
 388:ControllerTest.c ****         CTestStatus_display[(i*2) + 1] = ' ';
 714              		.loc 1 388 0 discriminator 3
 715 001a FB79     		ldrb	r3, [r7, #7]	@ zero_extendqisi2
 716 001c 5B00     		lsls	r3, r3, #1
 717 001e 0133     		adds	r3, r3, #1
 718 0020 0C4A     		ldr	r2, .L52+4
 719 0022 2021     		movs	r1, #32
 720 0024 D154     		strb	r1, [r2, r3]
 385:ControllerTest.c ****     {
 721              		.loc 1 385 0 discriminator 3
 722 0026 FB79     		ldrb	r3, [r7, #7]	@ zero_extendqisi2
 723 0028 0133     		adds	r3, r3, #1
 724 002a FB71     		strb	r3, [r7, #7]
 725              	.L49:
 385:ControllerTest.c ****     {
 726              		.loc 1 385 0 is_stmt 0 discriminator 1
 727 002c FB79     		ldrb	r3, [r7, #7]	@ zero_extendqisi2
 728 002e 092B     		cmp	r3, #9
 729 0030 ECD9     		bls	.L50
 730              	.LBE3:
 389:ControllerTest.c ****     }
 390:ControllerTest.c ****     
ARM GAS  C:\Users\MARTHN~1\AppData\Local\Temp\cczzcuiY.s 			page 21


 391:ControllerTest.c ****     //DEMUX_CTRL_115200_Write();
 392:ControllerTest.c ****     
 393:ControllerTest.c ****     UART_115200_PutArray(CTestStatus_display, (NUMBER_TEST_STEPS*2) );
 731              		.loc 1 393 0 is_stmt 1
 732 0032 1421     		movs	r1, #20
 733 0034 0748     		ldr	r0, .L52+4
 734 0036 FFF7FEFF 		bl	UART_115200_PutArray
 394:ControllerTest.c ****     
 395:ControllerTest.c ****     UART_115200_PutChar('\r');
 735              		.loc 1 395 0
 736 003a 0D20     		movs	r0, #13
 737 003c FFF7FEFF 		bl	UART_115200_PutChar
 396:ControllerTest.c ****     UART_115200_PutChar('\n');
 738              		.loc 1 396 0
 739 0040 0A20     		movs	r0, #10
 740 0042 FFF7FEFF 		bl	UART_115200_PutChar
 397:ControllerTest.c **** 
 398:ControllerTest.c ****     //LED_EN_Write(1);
 399:ControllerTest.c ****     
 400:ControllerTest.c ****     return;
 741              		.loc 1 400 0
 742 0046 00BF     		nop
 401:ControllerTest.c **** }
 743              		.loc 1 401 0
 744 0048 0837     		adds	r7, r7, #8
 745              		.cfi_def_cfa_offset 8
 746 004a BD46     		mov	sp, r7
 747              		.cfi_def_cfa_register 13
 748              		@ sp needed
 749 004c 80BD     		pop	{r7, pc}
 750              	.L53:
 751 004e 00BF     		.align	2
 752              	.L52:
 753 0050 C4000000 		.word	CTestStatus
 754 0054 D0000000 		.word	CTestStatus_display.7481
 755              		.cfi_endproc
 756              	.LFE68:
 757              		.size	CTest_sendDiagPacket, .-CTest_sendDiagPacket
 758              		.section	.text.CTest_isr_PB,"ax",%progbits
 759              		.align	2
 760              		.global	CTest_isr_PB
 761              		.thumb
 762              		.thumb_func
 763              		.type	CTest_isr_PB, %function
 764              	CTest_isr_PB:
 765              	.LFB69:
 402:ControllerTest.c **** //----------------------------------------Timer Interrupts------------------------------
 403:ControllerTest.c **** void CTest_isr_PB(void)
 404:ControllerTest.c **** {
 766              		.loc 1 404 0
 767              		.cfi_startproc
 768              		@ args = 0, pretend = 0, frame = 0
 769              		@ frame_needed = 1, uses_anonymous_args = 0
 770 0000 80B5     		push	{r7, lr}
 771              		.cfi_def_cfa_offset 8
 772              		.cfi_offset 7, -8
 773              		.cfi_offset 14, -4
ARM GAS  C:\Users\MARTHN~1\AppData\Local\Temp\cczzcuiY.s 			page 22


 774 0002 00AF     		add	r7, sp, #0
 775              		.cfi_def_cfa_register 7
 405:ControllerTest.c ****     static uint8 PB_NextAction_debouncecount = 0;
 406:ControllerTest.c ****     static uint8 PB_NextAction_failcount = 0;
 407:ControllerTest.c ****     static uint8 PB_NextAction_prevstate = 0;
 408:ControllerTest.c ****     
 409:ControllerTest.c ****     static uint8 debouncetrue = 0;
 410:ControllerTest.c ****     
 411:ControllerTest.c ****     static uint8 PB_reading = 0;
 412:ControllerTest.c ****     static uint8 PB_reading_previous = 0;
 413:ControllerTest.c ****     PB_reading = PB_NextAction_Read();
 776              		.loc 1 413 0
 777 0004 FFF7FEFF 		bl	PB_NextAction_Read
 778 0008 0346     		mov	r3, r0
 779 000a 1A46     		mov	r2, r3
 780 000c 2B4B     		ldr	r3, .L64
 781 000e 1A70     		strb	r2, [r3]
 414:ControllerTest.c ****     
 415:ControllerTest.c ****     
 416:ControllerTest.c ****     if(PB_reading == PB_reading_previous)               // If reading is the same as the last, incr
 782              		.loc 1 416 0
 783 0010 2A4B     		ldr	r3, .L64
 784 0012 1A78     		ldrb	r2, [r3]	@ zero_extendqisi2
 785 0014 2A4B     		ldr	r3, .L64+4
 786 0016 1B78     		ldrb	r3, [r3]	@ zero_extendqisi2
 787 0018 9A42     		cmp	r2, r3
 788 001a 06D1     		bne	.L55
 417:ControllerTest.c ****         PB_NextAction_debouncecount++;
 789              		.loc 1 417 0
 790 001c 294B     		ldr	r3, .L64+8
 791 001e 1B78     		ldrb	r3, [r3]	@ zero_extendqisi2
 792 0020 0133     		adds	r3, r3, #1
 793 0022 DAB2     		uxtb	r2, r3
 794 0024 274B     		ldr	r3, .L64+8
 795 0026 1A70     		strb	r2, [r3]
 796 0028 02E0     		b	.L56
 797              	.L55:
 418:ControllerTest.c ****     else
 419:ControllerTest.c ****         PB_NextAction_debouncecount = 0;
 798              		.loc 1 419 0
 799 002a 264B     		ldr	r3, .L64+8
 800 002c 0022     		movs	r2, #0
 801 002e 1A70     		strb	r2, [r3]
 802              	.L56:
 420:ControllerTest.c ****     
 421:ControllerTest.c ****     if(PB_NextAction_debouncecount > DEBOUNCE_COUNT)    // Set debouncetrue
 803              		.loc 1 421 0
 804 0030 244B     		ldr	r3, .L64+8
 805 0032 1B78     		ldrb	r3, [r3]	@ zero_extendqisi2
 806 0034 022B     		cmp	r3, #2
 807 0036 06D9     		bls	.L57
 422:ControllerTest.c ****     {
 423:ControllerTest.c ****         debouncetrue = PB_reading;
 808              		.loc 1 423 0
 809 0038 204B     		ldr	r3, .L64
 810 003a 1A78     		ldrb	r2, [r3]	@ zero_extendqisi2
 811 003c 224B     		ldr	r3, .L64+12
ARM GAS  C:\Users\MARTHN~1\AppData\Local\Temp\cczzcuiY.s 			page 23


 812 003e 1A70     		strb	r2, [r3]
 424:ControllerTest.c ****         PB_NextAction_debouncecount = 0;
 813              		.loc 1 424 0
 814 0040 204B     		ldr	r3, .L64+8
 815 0042 0022     		movs	r2, #0
 816 0044 1A70     		strb	r2, [r3]
 817              	.L57:
 425:ControllerTest.c ****     }
 426:ControllerTest.c **** 
 427:ControllerTest.c ****     PB_reading_previous = PB_reading;                   // Save current reading for next interrupt
 818              		.loc 1 427 0
 819 0046 1D4B     		ldr	r3, .L64
 820 0048 1A78     		ldrb	r2, [r3]	@ zero_extendqisi2
 821 004a 1D4B     		ldr	r3, .L64+4
 822 004c 1A70     		strb	r2, [r3]
 428:ControllerTest.c ****     
 429:ControllerTest.c ****     if(debouncetrue == 1)                               // If debounced and asserted
 823              		.loc 1 429 0
 824 004e 1E4B     		ldr	r3, .L64+12
 825 0050 1B78     		ldrb	r3, [r3]	@ zero_extendqisi2
 826 0052 012B     		cmp	r3, #1
 827 0054 09D1     		bne	.L58
 430:ControllerTest.c ****     {
 431:ControllerTest.c ****         PB_NextAction_Pressed = 1;
 828              		.loc 1 431 0
 829 0056 1D4B     		ldr	r3, .L64+16
 830 0058 0122     		movs	r2, #1
 831 005a 1A70     		strb	r2, [r3]
 432:ControllerTest.c ****         PB_NextAction_failcount++;
 832              		.loc 1 432 0
 833 005c 1C4B     		ldr	r3, .L64+20
 834 005e 1B78     		ldrb	r3, [r3]	@ zero_extendqisi2
 835 0060 0133     		adds	r3, r3, #1
 836 0062 DAB2     		uxtb	r2, r3
 837 0064 1A4B     		ldr	r3, .L64+20
 838 0066 1A70     		strb	r2, [r3]
 839 0068 05E0     		b	.L59
 840              	.L58:
 433:ControllerTest.c ****     }
 434:ControllerTest.c ****     else
 435:ControllerTest.c ****     {
 436:ControllerTest.c ****         PB_NextAction_Pressed = 0;
 841              		.loc 1 436 0
 842 006a 184B     		ldr	r3, .L64+16
 843 006c 0022     		movs	r2, #0
 844 006e 1A70     		strb	r2, [r3]
 437:ControllerTest.c ****         PB_NextAction_failcount = 0;
 845              		.loc 1 437 0
 846 0070 174B     		ldr	r3, .L64+20
 847 0072 0022     		movs	r2, #0
 848 0074 1A70     		strb	r2, [r3]
 849              	.L59:
 438:ControllerTest.c ****     }
 439:ControllerTest.c ****     
 440:ControllerTest.c **** 
 441:ControllerTest.c ****     if(PB_NextAction_failcount > 75)                       // If PB is held for (150 * 20msec = 3se
 850              		.loc 1 441 0
ARM GAS  C:\Users\MARTHN~1\AppData\Local\Temp\cczzcuiY.s 			page 24


 851 0076 164B     		ldr	r3, .L64+20
 852 0078 1B78     		ldrb	r3, [r3]	@ zero_extendqisi2
 853 007a 4B2B     		cmp	r3, #75
 854 007c 08D9     		bls	.L60
 442:ControllerTest.c ****     {  
 443:ControllerTest.c ****         CTestStatus[CurrentTest.TestStep] = 'F';
 855              		.loc 1 443 0
 856 007e 154B     		ldr	r3, .L64+24
 857 0080 5B78     		ldrb	r3, [r3, #1]	@ zero_extendqisi2
 858 0082 1A46     		mov	r2, r3
 859 0084 144B     		ldr	r3, .L64+28
 860 0086 4621     		movs	r1, #70
 861 0088 9954     		strb	r1, [r3, r2]
 444:ControllerTest.c ****         PB_NextAction_failcount = 0;
 862              		.loc 1 444 0
 863 008a 114B     		ldr	r3, .L64+20
 864 008c 0022     		movs	r2, #0
 865 008e 1A70     		strb	r2, [r3]
 866              	.L60:
 445:ControllerTest.c ****     }
 446:ControllerTest.c ****     
 447:ControllerTest.c **** 
 448:ControllerTest.c ****     if( (PB_NextAction_prevstate == 1) && (PB_NextAction_Pressed == 0) )        // Determine if PB 
 867              		.loc 1 448 0
 868 0090 124B     		ldr	r3, .L64+32
 869 0092 1B78     		ldrb	r3, [r3]	@ zero_extendqisi2
 870 0094 012B     		cmp	r3, #1
 871 0096 07D1     		bne	.L61
 872              		.loc 1 448 0 is_stmt 0 discriminator 1
 873 0098 0C4B     		ldr	r3, .L64+16
 874 009a 1B78     		ldrb	r3, [r3]	@ zero_extendqisi2
 875 009c 002B     		cmp	r3, #0
 876 009e 03D1     		bne	.L61
 449:ControllerTest.c ****     {
 450:ControllerTest.c ****         PB_NextAction_Released = 1;
 877              		.loc 1 450 0 is_stmt 1
 878 00a0 0F4B     		ldr	r3, .L64+36
 879 00a2 0122     		movs	r2, #1
 880 00a4 1A70     		strb	r2, [r3]
 881 00a6 02E0     		b	.L62
 882              	.L61:
 451:ControllerTest.c ****     }
 452:ControllerTest.c ****     else
 453:ControllerTest.c ****         PB_NextAction_Released = 0;
 883              		.loc 1 453 0
 884 00a8 0D4B     		ldr	r3, .L64+36
 885 00aa 0022     		movs	r2, #0
 886 00ac 1A70     		strb	r2, [r3]
 887              	.L62:
 454:ControllerTest.c ****     
 455:ControllerTest.c ****     PB_NextAction_prevstate = PB_NextAction_Pressed;
 888              		.loc 1 455 0
 889 00ae 074B     		ldr	r3, .L64+16
 890 00b0 1A78     		ldrb	r2, [r3]	@ zero_extendqisi2
 891 00b2 0A4B     		ldr	r3, .L64+32
 892 00b4 1A70     		strb	r2, [r3]
 456:ControllerTest.c ****     
ARM GAS  C:\Users\MARTHN~1\AppData\Local\Temp\cczzcuiY.s 			page 25


 457:ControllerTest.c ****     return;
 893              		.loc 1 457 0
 894 00b6 00BF     		nop
 458:ControllerTest.c **** }
 895              		.loc 1 458 0
 896 00b8 80BD     		pop	{r7, pc}
 897              	.L65:
 898 00ba 00BF     		.align	2
 899              	.L64:
 900 00bc E4000000 		.word	PB_reading.7493
 901 00c0 E5000000 		.word	PB_reading_previous.7494
 902 00c4 E6000000 		.word	PB_NextAction_debouncecount.7489
 903 00c8 E7000000 		.word	debouncetrue.7492
 904 00cc C0000000 		.word	PB_NextAction_Pressed
 905 00d0 E8000000 		.word	PB_NextAction_failcount.7490
 906 00d4 00000000 		.word	CurrentTest
 907 00d8 C4000000 		.word	CTestStatus
 908 00dc E9000000 		.word	PB_NextAction_prevstate.7491
 909 00e0 C1000000 		.word	PB_NextAction_Released
 910              		.cfi_endproc
 911              	.LFE69:
 912              		.size	CTest_isr_PB, .-CTest_isr_PB
 913              		.section	.text.CTest_20ms_isr,"ax",%progbits
 914              		.align	2
 915              		.global	CTest_20ms_isr
 916              		.thumb
 917              		.thumb_func
 918              		.type	CTest_20ms_isr, %function
 919              	CTest_20ms_isr:
 920              	.LFB70:
 459:ControllerTest.c **** void CTest_20ms_isr(void)
 460:ControllerTest.c **** {
 921              		.loc 1 460 0
 922              		.cfi_startproc
 923              		@ args = 0, pretend = 0, frame = 0
 924              		@ frame_needed = 1, uses_anonymous_args = 0
 925              		@ link register save eliminated.
 926 0000 80B4     		push	{r7}
 927              		.cfi_def_cfa_offset 4
 928              		.cfi_offset 7, -4
 929 0002 00AF     		add	r7, sp, #0
 930              		.cfi_def_cfa_register 7
 461:ControllerTest.c ****     
 462:ControllerTest.c **** //    if(CurrentTest.TestStep == QUAD_PORTS)       // *** send quad packet if needed 
 463:ControllerTest.c **** //    {
 464:ControllerTest.c **** //        sendPacketToRelay_Quad();
 465:ControllerTest.c **** //    }
 466:ControllerTest.c ****     
 467:ControllerTest.c ****     CTest_20ms_isr_count++;                                         // 
 931              		.loc 1 467 0
 932 0004 184B     		ldr	r3, .L73
 933 0006 1B88     		ldrh	r3, [r3]
 934 0008 0133     		adds	r3, r3, #1
 935 000a 9AB2     		uxth	r2, r3
 936 000c 164B     		ldr	r3, .L73
 937 000e 1A80     		strh	r2, [r3]	@ movhi
 468:ControllerTest.c **** 
ARM GAS  C:\Users\MARTHN~1\AppData\Local\Temp\cczzcuiY.s 			page 26


 469:ControllerTest.c ****     if(CTest_20ms_isr_count > CTest_TimeoutCount[CurrentTest.TestStep])
 938              		.loc 1 469 0
 939 0010 164B     		ldr	r3, .L73+4
 940 0012 5B78     		ldrb	r3, [r3, #1]	@ zero_extendqisi2
 941 0014 1A46     		mov	r2, r3
 942 0016 164B     		ldr	r3, .L73+8
 943 0018 33F81220 		ldrh	r2, [r3, r2, lsl #1]
 944 001c 124B     		ldr	r3, .L73
 945 001e 1B88     		ldrh	r3, [r3]
 946 0020 9A42     		cmp	r2, r3
 947 0022 10D2     		bcs	.L67
 470:ControllerTest.c ****     {
 471:ControllerTest.c ****         CTest_20ms_isr_count = 0;
 948              		.loc 1 471 0
 949 0024 104B     		ldr	r3, .L73
 950 0026 0022     		movs	r2, #0
 951 0028 1A80     		strh	r2, [r3]	@ movhi
 472:ControllerTest.c ****         
 473:ControllerTest.c ****         if(CTest_20ms_isr_EN == 1)
 952              		.loc 1 473 0
 953 002a 124B     		ldr	r3, .L73+12
 954 002c 1B88     		ldrh	r3, [r3]
 955 002e 012B     		cmp	r3, #1
 956 0030 14D1     		bne	.L71
 474:ControllerTest.c ****         {
 475:ControllerTest.c ****             CTestStatus[CurrentTest.TestStep] = 'F';
 957              		.loc 1 475 0
 958 0032 0E4B     		ldr	r3, .L73+4
 959 0034 5B78     		ldrb	r3, [r3, #1]	@ zero_extendqisi2
 960 0036 1A46     		mov	r2, r3
 961 0038 0F4B     		ldr	r3, .L73+16
 962 003a 4621     		movs	r1, #70
 963 003c 9954     		strb	r1, [r3, r2]
 476:ControllerTest.c ****             CurrentTest.Status = 'F';
 964              		.loc 1 476 0
 965 003e 0B4B     		ldr	r3, .L73+4
 966 0040 4622     		movs	r2, #70
 967 0042 9A70     		strb	r2, [r3, #2]
 477:ControllerTest.c ****         }
 478:ControllerTest.c ****             
 479:ControllerTest.c ****         return;
 968              		.loc 1 479 0
 969 0044 0AE0     		b	.L71
 970              	.L67:
 480:ControllerTest.c ****     }
 481:ControllerTest.c ****     
 482:ControllerTest.c ****     if(CTest_20ms_isr_count > 65000)
 971              		.loc 1 482 0
 972 0046 084B     		ldr	r3, .L73
 973 0048 1B88     		ldrh	r3, [r3]
 974 004a 4FF6E852 		movw	r2, #65000
 975 004e 9342     		cmp	r3, r2
 976 0050 06D9     		bls	.L72
 483:ControllerTest.c ****         CTest_20ms_isr_count = 0;
 977              		.loc 1 483 0
 978 0052 054B     		ldr	r3, .L73
 979 0054 0022     		movs	r2, #0
ARM GAS  C:\Users\MARTHN~1\AppData\Local\Temp\cczzcuiY.s 			page 27


 980 0056 1A80     		strh	r2, [r3]	@ movhi
 484:ControllerTest.c ****     
 485:ControllerTest.c ****     return;
 981              		.loc 1 485 0
 982 0058 00BF     		nop
 983 005a 01E0     		b	.L72
 984              	.L71:
 479:ControllerTest.c ****     }
 985              		.loc 1 479 0
 986 005c 00BF     		nop
 987 005e 00E0     		b	.L66
 988              	.L72:
 989              		.loc 1 485 0
 990 0060 00BF     		nop
 991              	.L66:
 486:ControllerTest.c ****        
 487:ControllerTest.c **** }
 992              		.loc 1 487 0
 993 0062 BD46     		mov	sp, r7
 994              		.cfi_def_cfa_register 13
 995              		@ sp needed
 996 0064 80BC     		pop	{r7}
 997              		.cfi_restore 7
 998              		.cfi_def_cfa_offset 0
 999 0066 7047     		bx	lr
 1000              	.L74:
 1001              		.align	2
 1002              	.L73:
 1003 0068 BC000000 		.word	CTest_20ms_isr_count
 1004 006c 00000000 		.word	CurrentTest
 1005 0070 00000000 		.word	CTest_TimeoutCount
 1006 0074 BE000000 		.word	CTest_20ms_isr_EN
 1007 0078 C4000000 		.word	CTestStatus
 1008              		.cfi_endproc
 1009              	.LFE70:
 1010              		.size	CTest_20ms_isr, .-CTest_20ms_isr
 1011              		.section	.text.CTest_50ms_isr,"ax",%progbits
 1012              		.align	2
 1013              		.global	CTest_50ms_isr
 1014              		.thumb
 1015              		.thumb_func
 1016              		.type	CTest_50ms_isr, %function
 1017              	CTest_50ms_isr:
 1018              	.LFB71:
 488:ControllerTest.c **** 
 489:ControllerTest.c **** void CTest_50ms_isr(void)
 490:ControllerTest.c **** {
 1019              		.loc 1 490 0
 1020              		.cfi_startproc
 1021              		@ args = 0, pretend = 0, frame = 0
 1022              		@ frame_needed = 1, uses_anonymous_args = 0
 1023 0000 80B5     		push	{r7, lr}
 1024              		.cfi_def_cfa_offset 8
 1025              		.cfi_offset 7, -8
 1026              		.cfi_offset 14, -4
 1027 0002 00AF     		add	r7, sp, #0
 1028              		.cfi_def_cfa_register 7
ARM GAS  C:\Users\MARTHN~1\AppData\Local\Temp\cczzcuiY.s 			page 28


 491:ControllerTest.c ****     
 492:ControllerTest.c ****     CTest_sendDiagPacket();                                 // Send diagnostic packet to terminal
 1029              		.loc 1 492 0
 1030 0004 FFF7FEFF 		bl	CTest_sendDiagPacket
 493:ControllerTest.c **** 
 494:ControllerTest.c ****     if( (CurrentTest.TestStep == INITIALIZE_TEST) ||      // Send packet to controller if it applie
 1031              		.loc 1 494 0
 1032 0008 084B     		ldr	r3, .L80
 1033 000a 5B78     		ldrb	r3, [r3, #1]	@ zero_extendqisi2
 1034 000c 002B     		cmp	r3, #0
 1035 000e 07D0     		beq	.L76
 495:ControllerTest.c ****             (CurrentTest.TestStep == CONFIRM_BOOTUP) || //)//||
 1036              		.loc 1 495 0 discriminator 1
 1037 0010 064B     		ldr	r3, .L80
 1038 0012 5B78     		ldrb	r3, [r3, #1]	@ zero_extendqisi2
 494:ControllerTest.c ****             (CurrentTest.TestStep == CONFIRM_BOOTUP) || //)//||
 1039              		.loc 1 494 0 discriminator 1
 1040 0014 012B     		cmp	r3, #1
 1041 0016 03D0     		beq	.L76
 496:ControllerTest.c ****             (CurrentTest.TestStep == TEST_POWERMODES) )//||
 1042              		.loc 1 496 0
 1043 0018 044B     		ldr	r3, .L80
 1044 001a 5B78     		ldrb	r3, [r3, #1]	@ zero_extendqisi2
 495:ControllerTest.c ****             (CurrentTest.TestStep == CONFIRM_BOOTUP) || //)//||
 1045              		.loc 1 495 0
 1046 001c 032B     		cmp	r3, #3
 1047 001e 02D1     		bne	.L79
 1048              	.L76:
 497:ControllerTest.c **** //            (TestState == INPUTS) ||
 498:ControllerTest.c **** //            (CurrentTest.TestStep == BLOCK_CURRENTS) )
 499:ControllerTest.c ****     {      
 500:ControllerTest.c ****         sendPacket_RelayToController();
 1049              		.loc 1 500 0
 1050 0020 FFF7FEFF 		bl	sendPacket_RelayToController
 501:ControllerTest.c ****     }
 502:ControllerTest.c ****     
 503:ControllerTest.c ****     return;    
 1051              		.loc 1 503 0
 1052 0024 00BF     		nop
 1053              	.L79:
 1054 0026 00BF     		nop
 504:ControllerTest.c ****     
 505:ControllerTest.c **** }
 1055              		.loc 1 505 0
 1056 0028 80BD     		pop	{r7, pc}
 1057              	.L81:
 1058 002a 00BF     		.align	2
 1059              	.L80:
 1060 002c 00000000 		.word	CurrentTest
 1061              		.cfi_endproc
 1062              	.LFE71:
 1063              		.size	CTest_50ms_isr, .-CTest_50ms_isr
 1064              		.section	.text.CTest_StartAutomatedStep,"ax",%progbits
 1065              		.align	2
 1066              		.global	CTest_StartAutomatedStep
 1067              		.thumb
 1068              		.thumb_func
ARM GAS  C:\Users\MARTHN~1\AppData\Local\Temp\cczzcuiY.s 			page 29


 1069              		.type	CTest_StartAutomatedStep, %function
 1070              	CTest_StartAutomatedStep:
 1071              	.LFB72:
 506:ControllerTest.c **** 
 507:ControllerTest.c **** void CTest_StartAutomatedStep(void)
 508:ControllerTest.c **** {
 1072              		.loc 1 508 0
 1073              		.cfi_startproc
 1074              		@ args = 0, pretend = 0, frame = 0
 1075              		@ frame_needed = 1, uses_anonymous_args = 0
 1076              		@ link register save eliminated.
 1077 0000 80B4     		push	{r7}
 1078              		.cfi_def_cfa_offset 4
 1079              		.cfi_offset 7, -4
 1080 0002 00AF     		add	r7, sp, #0
 1081              		.cfi_def_cfa_register 7
 509:ControllerTest.c ****     
 510:ControllerTest.c ****     CTestStatus[CurrentTest.TestStep] = 'B';
 1082              		.loc 1 510 0
 1083 0004 094B     		ldr	r3, .L84
 1084 0006 5B78     		ldrb	r3, [r3, #1]	@ zero_extendqisi2
 1085 0008 1A46     		mov	r2, r3
 1086 000a 094B     		ldr	r3, .L84+4
 1087 000c 4221     		movs	r1, #66
 1088 000e 9954     		strb	r1, [r3, r2]
 511:ControllerTest.c ****     CurrentTest.Status = 'B';
 1089              		.loc 1 511 0
 1090 0010 064B     		ldr	r3, .L84
 1091 0012 4222     		movs	r2, #66
 1092 0014 9A70     		strb	r2, [r3, #2]
 512:ControllerTest.c ****     
 513:ControllerTest.c ****     CTest_20ms_isr_count = 0;
 1093              		.loc 1 513 0
 1094 0016 074B     		ldr	r3, .L84+8
 1095 0018 0022     		movs	r2, #0
 1096 001a 1A80     		strh	r2, [r3]	@ movhi
 514:ControllerTest.c ****     CTest_20ms_isr_EN = 1;
 1097              		.loc 1 514 0
 1098 001c 064B     		ldr	r3, .L84+12
 1099 001e 0122     		movs	r2, #1
 1100 0020 1A80     		strh	r2, [r3]	@ movhi
 515:ControllerTest.c ****     
 516:ControllerTest.c ****     return;
 1101              		.loc 1 516 0
 1102 0022 00BF     		nop
 517:ControllerTest.c ****     
 518:ControllerTest.c **** }
 1103              		.loc 1 518 0
 1104 0024 BD46     		mov	sp, r7
 1105              		.cfi_def_cfa_register 13
 1106              		@ sp needed
 1107 0026 80BC     		pop	{r7}
 1108              		.cfi_restore 7
 1109              		.cfi_def_cfa_offset 0
 1110 0028 7047     		bx	lr
 1111              	.L85:
 1112 002a 00BF     		.align	2
ARM GAS  C:\Users\MARTHN~1\AppData\Local\Temp\cczzcuiY.s 			page 30


 1113              	.L84:
 1114 002c 00000000 		.word	CurrentTest
 1115 0030 C4000000 		.word	CTestStatus
 1116 0034 BC000000 		.word	CTest_20ms_isr_count
 1117 0038 BE000000 		.word	CTest_20ms_isr_EN
 1118              		.cfi_endproc
 1119              	.LFE72:
 1120              		.size	CTest_StartAutomatedStep, .-CTest_StartAutomatedStep
 1121              		.section	.text.CTest_StopAutomatedStep,"ax",%progbits
 1122              		.align	2
 1123              		.global	CTest_StopAutomatedStep
 1124              		.thumb
 1125              		.thumb_func
 1126              		.type	CTest_StopAutomatedStep, %function
 1127              	CTest_StopAutomatedStep:
 1128              	.LFB73:
 519:ControllerTest.c **** 
 520:ControllerTest.c **** void CTest_StopAutomatedStep(void)
 521:ControllerTest.c **** {
 1129              		.loc 1 521 0
 1130              		.cfi_startproc
 1131              		@ args = 0, pretend = 0, frame = 0
 1132              		@ frame_needed = 1, uses_anonymous_args = 0
 1133              		@ link register save eliminated.
 1134 0000 80B4     		push	{r7}
 1135              		.cfi_def_cfa_offset 4
 1136              		.cfi_offset 7, -4
 1137 0002 00AF     		add	r7, sp, #0
 1138              		.cfi_def_cfa_register 7
 522:ControllerTest.c ****     
 523:ControllerTest.c ****     CTest_20ms_isr_EN = 0;
 1139              		.loc 1 523 0
 1140 0004 0B4B     		ldr	r3, .L90
 1141 0006 0022     		movs	r2, #0
 1142 0008 1A80     		strh	r2, [r3]	@ movhi
 524:ControllerTest.c ****     if(CTestStatus[CurrentTest.TestStep] != 'F')       // If not failed, then pass
 1143              		.loc 1 524 0
 1144 000a 0B4B     		ldr	r3, .L90+4
 1145 000c 5B78     		ldrb	r3, [r3, #1]	@ zero_extendqisi2
 1146 000e 1A46     		mov	r2, r3
 1147 0010 0A4B     		ldr	r3, .L90+8
 1148 0012 9B5C     		ldrb	r3, [r3, r2]	@ zero_extendqisi2
 1149 0014 462B     		cmp	r3, #70
 1150 0016 09D0     		beq	.L89
 525:ControllerTest.c ****     {
 526:ControllerTest.c ****         CTestStatus[CurrentTest.TestStep] = 'P';
 1151              		.loc 1 526 0
 1152 0018 074B     		ldr	r3, .L90+4
 1153 001a 5B78     		ldrb	r3, [r3, #1]	@ zero_extendqisi2
 1154 001c 1A46     		mov	r2, r3
 1155 001e 074B     		ldr	r3, .L90+8
 1156 0020 5021     		movs	r1, #80
 1157 0022 9954     		strb	r1, [r3, r2]
 527:ControllerTest.c ****         CurrentTest.Status = 'P';
 1158              		.loc 1 527 0
 1159 0024 044B     		ldr	r3, .L90+4
 1160 0026 5022     		movs	r2, #80
ARM GAS  C:\Users\MARTHN~1\AppData\Local\Temp\cczzcuiY.s 			page 31


 1161 0028 9A70     		strb	r2, [r3, #2]
 528:ControllerTest.c ****     }
 529:ControllerTest.c ****     
 530:ControllerTest.c ****     return;
 1162              		.loc 1 530 0
 1163 002a 00BF     		nop
 1164              	.L89:
 1165 002c 00BF     		nop
 531:ControllerTest.c ****     
 532:ControllerTest.c **** }
 1166              		.loc 1 532 0
 1167 002e BD46     		mov	sp, r7
 1168              		.cfi_def_cfa_register 13
 1169              		@ sp needed
 1170 0030 80BC     		pop	{r7}
 1171              		.cfi_restore 7
 1172              		.cfi_def_cfa_offset 0
 1173 0032 7047     		bx	lr
 1174              	.L91:
 1175              		.align	2
 1176              	.L90:
 1177 0034 BE000000 		.word	CTest_20ms_isr_EN
 1178 0038 00000000 		.word	CurrentTest
 1179 003c C4000000 		.word	CTestStatus
 1180              		.cfi_endproc
 1181              	.LFE73:
 1182              		.size	CTest_StopAutomatedStep, .-CTest_StopAutomatedStep
 1183              		.section	.text.CTest_PB_WaitForAction,"ax",%progbits
 1184              		.align	2
 1185              		.global	CTest_PB_WaitForAction
 1186              		.thumb
 1187              		.thumb_func
 1188              		.type	CTest_PB_WaitForAction, %function
 1189              	CTest_PB_WaitForAction:
 1190              	.LFB74:
 533:ControllerTest.c **** 
 534:ControllerTest.c **** void CTest_PB_WaitForAction(void)
 535:ControllerTest.c **** {
 1191              		.loc 1 535 0
 1192              		.cfi_startproc
 1193              		@ args = 0, pretend = 0, frame = 0
 1194              		@ frame_needed = 1, uses_anonymous_args = 0
 1195 0000 80B5     		push	{r7, lr}
 1196              		.cfi_def_cfa_offset 8
 1197              		.cfi_offset 7, -8
 1198              		.cfi_offset 14, -4
 1199 0002 00AF     		add	r7, sp, #0
 1200              		.cfi_def_cfa_register 7
 536:ControllerTest.c ****     
 537:ControllerTest.c ****     CTestStatus[CurrentTest.TestStep] = 'W';                                        // Set status t
 1201              		.loc 1 537 0
 1202 0004 134B     		ldr	r3, .L97
 1203 0006 5B78     		ldrb	r3, [r3, #1]	@ zero_extendqisi2
 1204 0008 1A46     		mov	r2, r3
 1205 000a 134B     		ldr	r3, .L97+4
 1206 000c 5721     		movs	r1, #87
 1207 000e 9954     		strb	r1, [r3, r2]
ARM GAS  C:\Users\MARTHN~1\AppData\Local\Temp\cczzcuiY.s 			page 32


 538:ControllerTest.c ****     
 539:ControllerTest.c ****     while( (CTestStatus[CurrentTest.TestStep] != 'P') && (CTestStatus[CurrentTest.TestStep] != 'F')
 1208              		.loc 1 539 0
 1209 0010 0CE0     		b	.L93
 1210              	.L95:
 540:ControllerTest.c ****     {
 541:ControllerTest.c ****         if(PB_NextAction_Released) 
 1211              		.loc 1 541 0
 1212 0012 124B     		ldr	r3, .L97+8
 1213 0014 1B78     		ldrb	r3, [r3]	@ zero_extendqisi2
 1214 0016 002B     		cmp	r3, #0
 1215 0018 08D0     		beq	.L93
 542:ControllerTest.c ****         {
 543:ControllerTest.c ****             //LED_EN_Write(1);
 544:ControllerTest.c ****             CTestStatus[CurrentTest.TestStep] = 'P'; 
 1216              		.loc 1 544 0
 1217 001a 0E4B     		ldr	r3, .L97
 1218 001c 5B78     		ldrb	r3, [r3, #1]	@ zero_extendqisi2
 1219 001e 1A46     		mov	r2, r3
 1220 0020 0D4B     		ldr	r3, .L97+4
 1221 0022 5021     		movs	r1, #80
 1222 0024 9954     		strb	r1, [r3, r2]
 545:ControllerTest.c ****             PB_NextAction_Released = 0;
 1223              		.loc 1 545 0
 1224 0026 0D4B     		ldr	r3, .L97+8
 1225 0028 0022     		movs	r2, #0
 1226 002a 1A70     		strb	r2, [r3]
 1227              	.L93:
 539:ControllerTest.c ****     {
 1228              		.loc 1 539 0
 1229 002c 094B     		ldr	r3, .L97
 1230 002e 5B78     		ldrb	r3, [r3, #1]	@ zero_extendqisi2
 1231 0030 1A46     		mov	r2, r3
 1232 0032 094B     		ldr	r3, .L97+4
 1233 0034 9B5C     		ldrb	r3, [r3, r2]	@ zero_extendqisi2
 1234 0036 502B     		cmp	r3, #80
 1235 0038 06D0     		beq	.L94
 539:ControllerTest.c ****     {
 1236              		.loc 1 539 0 is_stmt 0 discriminator 1
 1237 003a 064B     		ldr	r3, .L97
 1238 003c 5B78     		ldrb	r3, [r3, #1]	@ zero_extendqisi2
 1239 003e 1A46     		mov	r2, r3
 1240 0040 054B     		ldr	r3, .L97+4
 1241 0042 9B5C     		ldrb	r3, [r3, r2]	@ zero_extendqisi2
 1242 0044 462B     		cmp	r3, #70
 1243 0046 E4D1     		bne	.L95
 1244              	.L94:
 546:ControllerTest.c ****         }
 547:ControllerTest.c ****     } 
 548:ControllerTest.c **** 
 549:ControllerTest.c ****     LED_EN_Write(0);    // ***not sure why this seems to be needed to make it work
 1245              		.loc 1 549 0 is_stmt 1
 1246 0048 0020     		movs	r0, #0
 1247 004a FFF7FEFF 		bl	LED_EN_Write
 550:ControllerTest.c ****     
 551:ControllerTest.c ****     return;
 1248              		.loc 1 551 0
ARM GAS  C:\Users\MARTHN~1\AppData\Local\Temp\cczzcuiY.s 			page 33


 1249 004e 00BF     		nop
 552:ControllerTest.c **** }
 1250              		.loc 1 552 0
 1251 0050 80BD     		pop	{r7, pc}
 1252              	.L98:
 1253 0052 00BF     		.align	2
 1254              	.L97:
 1255 0054 00000000 		.word	CurrentTest
 1256 0058 C4000000 		.word	CTestStatus
 1257 005c C1000000 		.word	PB_NextAction_Released
 1258              		.cfi_endproc
 1259              	.LFE74:
 1260              		.size	CTest_PB_WaitForAction, .-CTest_PB_WaitForAction
 1261              		.bss
 1262 00ce 0000     		.align	2
 1263              	CTestStatus_display.7481:
 1264 00d0 00000000 		.space	20
 1264      00000000 
 1264      00000000 
 1264      00000000 
 1264      00000000 
 1265              	PB_reading.7493:
 1266 00e4 00       		.space	1
 1267              	PB_reading_previous.7494:
 1268 00e5 00       		.space	1
 1269              	PB_NextAction_debouncecount.7489:
 1270 00e6 00       		.space	1
 1271              	debouncetrue.7492:
 1272 00e7 00       		.space	1
 1273              	PB_NextAction_failcount.7490:
 1274 00e8 00       		.space	1
 1275              	PB_NextAction_prevstate.7491:
 1276 00e9 00       		.space	1
 1277              		.text
 1278              	.Letext0:
 1279              		.file 2 "c:\\program files (x86)\\cypress\\psoc creator\\4.3\\psoc creator\\import\\gnu\\arm\\5.4.
 1280              		.file 3 "c:\\program files (x86)\\cypress\\psoc creator\\4.3\\psoc creator\\import\\gnu\\arm\\5.4.
 1281              		.file 4 "Generated_Source\\PSoC5/cytypes.h"
 1282              		.file 5 "CommonVariables.h"
 1283              		.file 6 "UART_230400_Functions.h"
 1284              		.file 7 "Generated_Source\\PSoC5/core_cm3.h"