ARM GAS  C:\Users\MARTHN~1\AppData\Local\Temp\ccxS6aMg.s 			page 1


   1              		.syntax unified
   2              		.cpu cortex-m3
   3              		.fpu softvfp
   4              		.eabi_attribute 20, 1
   5              		.eabi_attribute 21, 1
   6              		.eabi_attribute 23, 3
   7              		.eabi_attribute 24, 1
   8              		.eabi_attribute 25, 1
   9              		.eabi_attribute 26, 1
  10              		.eabi_attribute 30, 6
  11              		.eabi_attribute 34, 1
  12              		.eabi_attribute 18, 4
  13              		.thumb
  14              		.syntax unified
  15              		.file	"ControllerCableTest_Complete.c"
  16              		.text
  17              	.Ltext0:
  18              		.cfi_sections	.debug_frame
  19              		.comm	Test,3,4
  20              		.bss
  21              		.align	2
  22              	rxPacket_Controller:
  23 0000 00000000 		.space	79
  23      00000000 
  23      00000000 
  23      00000000 
  23      00000000 
  24 004f 00       		.align	2
  25              	pRxPacket_Controller:
  26 0050 00000000 		.space	4
  27              		.align	2
  28              	txPacket_Controller:
  29 0054 00000000 		.space	15
  29      00000000 
  29      00000000 
  29      000000
  30 0063 00       		.align	2
  31              	pTxPacket_Controller:
  32 0064 00000000 		.space	4
  33              		.align	2
  34              	txPacket_Relay:
  35 0068 00000000 		.space	80
  35      00000000 
  35      00000000 
  35      00000000 
  35      00000000 
  36              		.align	2
  37              	pTxPacket_Relay:
  38 00b8 00000000 		.space	4
  39              		.align	2
  40              	txPacket_Intermotive:
  41 00bc 00000000 		.space	9
  41      00000000 
  41      00
  42 00c5 000000   		.align	2
  43              	pTxPacket_Intermotive:
  44 00c8 00000000 		.space	4
ARM GAS  C:\Users\MARTHN~1\AppData\Local\Temp\ccxS6aMg.s 			page 2


  45              		.align	1
  46              	CableTest_20ms_isr_count:
  47 00cc 0000     		.space	2
  48              		.align	1
  49              	CableTest_20ms_isr_EN:
  50 00ce 0000     		.space	2
  51              	PB_NextAction_Pressed:
  52 00d0 00       		.space	1
  53              	PB_NextAction_Released:
  54 00d1 00       		.space	1
  55              		.data
  56              		.align	2
  57              		.type	CableTest_Complete_TimeoutCount, %object
  58              		.size	CableTest_Complete_TimeoutCount, 10
  59              	CableTest_Complete_TimeoutCount:
  60 0000 3200     		.short	50
  61 0002 D007     		.short	2000
  62 0004 6400     		.short	100
  63 0006 3200     		.short	50
  64 0008 3200     		.short	50
  65              		.bss
  66 00d2 0000     		.align	2
  67              	CableTest_CompleteStatus:
  68 00d4 00000000 		.space	5
  68      00
  69              		.section	.text.ControllerCableTest_Complete,"ax",%progbits
  70              		.align	2
  71              		.global	ControllerCableTest_Complete
  72              		.thumb
  73              		.thumb_func
  74              		.type	ControllerCableTest_Complete, %function
  75              	ControllerCableTest_Complete:
  76              	.LFB63:
  77              		.file 1 "ControllerCableTest_Complete.c"
   1:ControllerCableTest_Complete.c **** /* ========================================
   2:ControllerCableTest_Complete.c ****  *
   3:ControllerCableTest_Complete.c ****  * Copyright YOUR COMPANY, THE YEAR
   4:ControllerCableTest_Complete.c ****  * All Rights Reserved
   5:ControllerCableTest_Complete.c ****  * UNPUBLISHED, LICENSED SOFTWARE.
   6:ControllerCableTest_Complete.c ****  *
   7:ControllerCableTest_Complete.c ****  * CONFIDENTIAL AND PROPRIETARY INFORMATION
   8:ControllerCableTest_Complete.c ****  * WHICH IS THE PROPERTY OF your company.
   9:ControllerCableTest_Complete.c ****  *
  10:ControllerCableTest_Complete.c ****  * ========================================
  11:ControllerCableTest_Complete.c **** */
  12:ControllerCableTest_Complete.c **** 
  13:ControllerCableTest_Complete.c **** /* F1-Controller Test ***********************************************************
  14:ControllerCableTest_Complete.c **** *  - Designed to test a F1-Controller PCBA with a SOM installed (w OS and image)   
  15:ControllerCableTest_Complete.c **** *  - Requires a configfile (for Desktop Software) that consists of:
  16:ControllerCableTest_Complete.c **** *       - PB 1-16 turn on Outputs 1-16 (toggle)
  17:ControllerCableTest_Complete.c **** *       - PB 1 sends Quad packet (any packet)
  18:ControllerCableTest_Complete.c **** *       - OBDII turns on Output 32
  19:ControllerCableTest_Complete.c **** *********************************************************************************/
  20:ControllerCableTest_Complete.c **** 
  21:ControllerCableTest_Complete.c **** #include <project.h>
  22:ControllerCableTest_Complete.c **** #include "CommonVariables.h"
  23:ControllerCableTest_Complete.c **** #include "ControllerTest.h"
ARM GAS  C:\Users\MARTHN~1\AppData\Local\Temp\ccxS6aMg.s 			page 3


  24:ControllerCableTest_Complete.c **** #include "UART_460800_Functions.h"
  25:ControllerCableTest_Complete.c **** #include "UART_230400_Functions.h"
  26:ControllerCableTest_Complete.c **** 
  27:ControllerCableTest_Complete.c **** #define DEBOUNCE_COUNT      2           // (5 * 20msec)
  28:ControllerCableTest_Complete.c **** #define CONFIRM_TIME        100
  29:ControllerCableTest_Complete.c **** 
  30:ControllerCableTest_Complete.c **** 
  31:ControllerCableTest_Complete.c **** static RxPacket_Controller rxPacket_Controller;         // 'I' (includes 'P') packet (controller to
  32:ControllerCableTest_Complete.c **** static RxPacket_Controller * pRxPacket_Controller;
  33:ControllerCableTest_Complete.c **** 
  34:ControllerCableTest_Complete.c **** static TxPacket_Controller txPacket_Controller;         // 'D' packet (relay to controller) - Initi
  35:ControllerCableTest_Complete.c **** static TxPacket_Controller * pTxPacket_Controller;
  36:ControllerCableTest_Complete.c **** 
  37:ControllerCableTest_Complete.c **** static TxPacket_RelaySiren txPacket_Relay;              // 'I' packet (relay to controller) - LEDS_
  38:ControllerCableTest_Complete.c **** static TxPacket_RelaySiren * pTxPacket_Relay;
  39:ControllerCableTest_Complete.c **** 
  40:ControllerCableTest_Complete.c **** static TxPacket_Intermotive txPacket_Intermotive;       // Intermotive Packet - for ignition and OB
  41:ControllerCableTest_Complete.c **** static TxPacket_Intermotive * pTxPacket_Intermotive;    // 
  42:ControllerCableTest_Complete.c **** 
  43:ControllerCableTest_Complete.c **** 
  44:ControllerCableTest_Complete.c **** static uint16 CableTest_20ms_isr_count = 0;         // Test step timeout variables
  45:ControllerCableTest_Complete.c **** static uint16 CableTest_20ms_isr_EN = 0;
  46:ControllerCableTest_Complete.c **** 
  47:ControllerCableTest_Complete.c **** static uint8 PB_NextAction_Pressed = 0;         // Pushbutton 
  48:ControllerCableTest_Complete.c **** static uint8 PB_NextAction_Released = 0;
  49:ControllerCableTest_Complete.c **** 
  50:ControllerCableTest_Complete.c **** enum LEDColor
  51:ControllerCableTest_Complete.c **** { 
  52:ControllerCableTest_Complete.c ****     RED,       
  53:ControllerCableTest_Complete.c ****     BLUE,  
  54:ControllerCableTest_Complete.c ****     GREEN,
  55:ControllerCableTest_Complete.c ****     OFF
  56:ControllerCableTest_Complete.c **** };
  57:ControllerCableTest_Complete.c **** 
  58:ControllerCableTest_Complete.c **** 
  59:ControllerCableTest_Complete.c **** enum DATA_TYPE_460800
  60:ControllerCableTest_Complete.c **** { 
  61:ControllerCableTest_Complete.c ****     CTEST_AUDIO,        // This is for both cont and relay tests
  62:ControllerCableTest_Complete.c ****     CTEST_RTEST_QUAD   // CTest/RTest - quad normal - (controller to relay, relay to quad)
  63:ControllerCableTest_Complete.c **** //    CTEST_A,            //*** needs to  (*** not used - only need to look for 'L' packet)
  64:ControllerCableTest_Complete.c **** //    QTEST_QUAD          // (*** not used - Quad-Controller packets - type 'C')
  65:ControllerCableTest_Complete.c **** };
  66:ControllerCableTest_Complete.c **** 
  67:ControllerCableTest_Complete.c **** enum MUX_460800_CHANNEL
  68:ControllerCableTest_Complete.c **** { 
  69:ControllerCableTest_Complete.c ****     CTEST_QUAD,  
  70:ControllerCableTest_Complete.c ****     CTEST_AUDIOSTREAM,
  71:ControllerCableTest_Complete.c ****     //QTEST_QUAD             
  72:ControllerCableTest_Complete.c **** };
  73:ControllerCableTest_Complete.c **** enum DEMUX_460800_CHANNEL
  74:ControllerCableTest_Complete.c **** { 
  75:ControllerCableTest_Complete.c ****     CTEST_OBDII_TX,       
  76:ControllerCableTest_Complete.c ****     RTEST_QUAD_TX,       
  77:ControllerCableTest_Complete.c ****     STEST_AUDIO_TX,
  78:ControllerCableTest_Complete.c **** };
  79:ControllerCableTest_Complete.c **** 
  80:ControllerCableTest_Complete.c **** enum MUX_DEMUX_230400_CHANNEL              
ARM GAS  C:\Users\MARTHN~1\AppData\Local\Temp\ccxS6aMg.s 			page 4


  81:ControllerCableTest_Complete.c **** { 
  82:ControllerCableTest_Complete.c ****     CTEST_RELAY, 
  83:ControllerCableTest_Complete.c ****     RTEST_CONT,
  84:ControllerCableTest_Complete.c ****     RTEST_SIREN,
  85:ControllerCableTest_Complete.c ****     STEST_RELAY            
  86:ControllerCableTest_Complete.c **** };
  87:ControllerCableTest_Complete.c **** 
  88:ControllerCableTest_Complete.c **** // --------------Test steps---------------
  89:ControllerCableTest_Complete.c **** #define NUMBER_TEST_STEPS       5
  90:ControllerCableTest_Complete.c **** static uint16 CableTest_Complete_TimeoutCount[NUMBER_TEST_STEPS] = {50,2000,100,50,50};    // Numbe
  91:ControllerCableTest_Complete.c **** 
  92:ControllerCableTest_Complete.c **** static uint8 CableTest_CompleteStatus[NUMBER_TEST_STEPS];
  93:ControllerCableTest_Complete.c **** 
  94:ControllerCableTest_Complete.c **** enum TestStep           
  95:ControllerCableTest_Complete.c **** { 
  96:ControllerCableTest_Complete.c ****     INITIALIZE_TEST,        // COMPLETE
  97:ControllerCableTest_Complete.c ****     CONFIRM_BOOTUP,         // COMPLETE (reads 'I' packet from controller to relay)
  98:ControllerCableTest_Complete.c ****     //CONFIG_FILE,            // (unused - the config file does not need to be manually programmed)
  99:ControllerCableTest_Complete.c ****     //TEST_POWERMODES,        // COMPLETE (***not testing usb power only)(resets pushbuttons) 
 100:ControllerCableTest_Complete.c ****     OBDII,                  // COMPLETE (configfile) (***this is already tested by using it for ign
 101:ControllerCableTest_Complete.c ****     //PUSHBUTTONS,            // COMPLETE (configfile)
 102:ControllerCableTest_Complete.c ****     QUAD_STREAM,            // COMPLETE (configfile)
 103:ControllerCableTest_Complete.c ****     //LEDS_RGB,               // COMPLETE (***leds take up to 5 seconds to turn on)
 104:ControllerCableTest_Complete.c ****     //AUDIO_STREAM,           // (unused - not included)
 105:ControllerCableTest_Complete.c ****     //PACKET_TO_CONTROLLER,   //
 106:ControllerCableTest_Complete.c ****     PASS                    // COMPLETE
 107:ControllerCableTest_Complete.c ****        
 108:ControllerCableTest_Complete.c **** };
 109:ControllerCableTest_Complete.c **** 
 110:ControllerCableTest_Complete.c **** 
 111:ControllerCableTest_Complete.c **** //static uint8 CTest_CompleteStatus[NUMBER_TEST_STEPS];
 112:ControllerCableTest_Complete.c **** 
 113:ControllerCableTest_Complete.c **** uint8 ControllerCableTest_Complete(void)
 114:ControllerCableTest_Complete.c **** {
  78              		.loc 1 114 0
  79              		.cfi_startproc
  80              		@ args = 0, pretend = 0, frame = 8
  81              		@ frame_needed = 1, uses_anonymous_args = 0
  82 0000 80B5     		push	{r7, lr}
  83              		.cfi_def_cfa_offset 8
  84              		.cfi_offset 7, -8
  85              		.cfi_offset 14, -4
  86 0002 82B0     		sub	sp, sp, #8
  87              		.cfi_def_cfa_offset 16
  88 0004 00AF     		add	r7, sp, #0
  89              		.cfi_def_cfa_register 7
 115:ControllerCableTest_Complete.c ****     
 116:ControllerCableTest_Complete.c ****     switch(CurrentTest.TestStep)
  90              		.loc 1 116 0
  91 0006 854B     		ldr	r3, .L30
  92 0008 5B78     		ldrb	r3, [r3, #1]	@ zero_extendqisi2
  93 000a 042B     		cmp	r3, #4
  94 000c 00F20181 		bhi	.L2
  95 0010 01A2     		adr	r2, .L4
  96 0012 52F823F0 		ldr	pc, [r2, r3, lsl #2]
  97 0016 00BF     		.p2align 2
  98              	.L4:
ARM GAS  C:\Users\MARTHN~1\AppData\Local\Temp\ccxS6aMg.s 			page 5


  99 0018 2D000000 		.word	.L3+1
 100 001c 73000000 		.word	.L5+1
 101 0020 D9000000 		.word	.L6+1
 102 0024 37010000 		.word	.L7+1
 103 0028 AF010000 		.word	.L8+1
 104              		.p2align 1
 105              	.L3:
 117:ControllerCableTest_Complete.c ****     {   
 118:ControllerCableTest_Complete.c ****        
 119:ControllerCableTest_Complete.c ****         case INITIALIZE_TEST:
 120:ControllerCableTest_Complete.c ****         
 121:ControllerCableTest_Complete.c ****             CTest_CONT_VBATT_EN_Write(1);                           // Enable Vbatt power to contro
 106              		.loc 1 121 0
 107 002c 0120     		movs	r0, #1
 108 002e FFF7FEFF 		bl	CTest_CONT_VBATT_EN_Write
 122:ControllerCableTest_Complete.c ****             CTest_USB_5V_EN_Write(0);
 109              		.loc 1 122 0
 110 0032 0020     		movs	r0, #0
 111 0034 FFF7FEFF 		bl	CTest_USB_5V_EN_Write
 112              	.LBB2:
 123:ControllerCableTest_Complete.c **** 
 124:ControllerCableTest_Complete.c ****             for (uint8 i=0;i<NUMBER_TEST_STEPS;i++)                 // Reset Status of aall test st
 113              		.loc 1 124 0
 114 0038 0023     		movs	r3, #0
 115 003a FB71     		strb	r3, [r7, #7]
 116 003c 06E0     		b	.L9
 117              	.L10:
 125:ControllerCableTest_Complete.c ****                 CableTest_CompleteStatus[i] = '_';
 118              		.loc 1 125 0 discriminator 3
 119 003e FB79     		ldrb	r3, [r7, #7]	@ zero_extendqisi2
 120 0040 774A     		ldr	r2, .L30+4
 121 0042 5F21     		movs	r1, #95
 122 0044 D154     		strb	r1, [r2, r3]
 124:ControllerCableTest_Complete.c ****                 CableTest_CompleteStatus[i] = '_';
 123              		.loc 1 124 0 discriminator 3
 124 0046 FB79     		ldrb	r3, [r7, #7]	@ zero_extendqisi2
 125 0048 0133     		adds	r3, r3, #1
 126 004a FB71     		strb	r3, [r7, #7]
 127              	.L9:
 124:ControllerCableTest_Complete.c ****                 CableTest_CompleteStatus[i] = '_';
 128              		.loc 1 124 0 is_stmt 0 discriminator 1
 129 004c FB79     		ldrb	r3, [r7, #7]	@ zero_extendqisi2
 130 004e 042B     		cmp	r3, #4
 131 0050 F5D9     		bls	.L10
 132              	.LBE2:
 126:ControllerCableTest_Complete.c ****             
 127:ControllerCableTest_Complete.c ****             CableTest_CompleteStatus[CurrentTest.TestStep] = 'I';
 133              		.loc 1 127 0 is_stmt 1
 134 0052 724B     		ldr	r3, .L30
 135 0054 5B78     		ldrb	r3, [r3, #1]	@ zero_extendqisi2
 136 0056 1A46     		mov	r2, r3
 137 0058 714B     		ldr	r3, .L30+4
 138 005a 4921     		movs	r1, #73
 139 005c 9954     		strb	r1, [r3, r2]
 128:ControllerCableTest_Complete.c ****             CurrentTest.Status = 'I';
 140              		.loc 1 128 0
 141 005e 6F4B     		ldr	r3, .L30
ARM GAS  C:\Users\MARTHN~1\AppData\Local\Temp\ccxS6aMg.s 			page 6


 142 0060 4922     		movs	r2, #73
 143 0062 9A70     		strb	r2, [r3, #2]
 129:ControllerCableTest_Complete.c **** 
 130:ControllerCableTest_Complete.c ****             CyDelay(CONFIRM_TIME);
 144              		.loc 1 130 0
 145 0064 6420     		movs	r0, #100
 146 0066 FFF7FEFF 		bl	CyDelay
 131:ControllerCableTest_Complete.c ****             
 132:ControllerCableTest_Complete.c **** //            CTestStatus[CurrentTest.TestStep] = 'P';
 133:ControllerCableTest_Complete.c **** //            CurrentTest.Status = 'P';
 134:ControllerCableTest_Complete.c ****       
 135:ControllerCableTest_Complete.c ****             //CurrentTest.TestStep = INITIALIZE_TEST;
 136:ControllerCableTest_Complete.c ****             CurrentTest.TestStep = CONFIRM_BOOTUP;
 147              		.loc 1 136 0
 148 006a 6C4B     		ldr	r3, .L30
 149 006c 0122     		movs	r2, #1
 150 006e 5A70     		strb	r2, [r3, #1]
 137:ControllerCableTest_Complete.c ****             //CurrentTest.TestStep = TEST_POWERMODES;
 138:ControllerCableTest_Complete.c ****             //CurrentTest.TestStep = DEBUG_PORT;
 139:ControllerCableTest_Complete.c ****             //CurrentTest.TestStep = QUAD_STREAM;
 140:ControllerCableTest_Complete.c ****             //CurrentTest.TestStep = AUDIO_STREAM;
 141:ControllerCableTest_Complete.c ****             //CurrentTest.TestStep = OBDII;     
 142:ControllerCableTest_Complete.c ****             //CurrentTest.TestStep = LEDS_RGB;
 143:ControllerCableTest_Complete.c ****             //CurrentTest.TestStep = PUSHBUTTONS;
 144:ControllerCableTest_Complete.c ****         
 145:ControllerCableTest_Complete.c ****         break;
 151              		.loc 1 145 0
 152 0070 CFE0     		b	.L2
 153              	.L5:
 146:ControllerCableTest_Complete.c ****         
 147:ControllerCableTest_Complete.c ****         case CONFIRM_BOOTUP:
 148:ControllerCableTest_Complete.c ****         
 149:ControllerCableTest_Complete.c ****             CableTest_Complete_StartAutomatedStep();
 154              		.loc 1 149 0
 155 0072 FFF7FEFF 		bl	CableTest_Complete_StartAutomatedStep
 150:ControllerCableTest_Complete.c **** 
 151:ControllerCableTest_Complete.c ****             MUX_CTRL_230400_Write(CTEST_RELAY);
 156              		.loc 1 151 0
 157 0076 0020     		movs	r0, #0
 158 0078 FFF7FEFF 		bl	MUX_CTRL_230400_Write
 152:ControllerCableTest_Complete.c **** 
 153:ControllerCableTest_Complete.c ****             while( (!VerifyPacket_230400(CTEST_RELAY)) && (CableTest_CompleteStatus[CurrentTest.Tes
 159              		.loc 1 153 0
 160 007c 00BF     		nop
 161              	.L12:
 162              		.loc 1 153 0 is_stmt 0 discriminator 2
 163 007e 0020     		movs	r0, #0
 164 0080 FFF7FEFF 		bl	VerifyPacket_230400
 165 0084 0346     		mov	r3, r0
 166 0086 002B     		cmp	r3, #0
 167 0088 06D1     		bne	.L11
 168              		.loc 1 153 0 discriminator 1
 169 008a 644B     		ldr	r3, .L30
 170 008c 5B78     		ldrb	r3, [r3, #1]	@ zero_extendqisi2
 171 008e 1A46     		mov	r2, r3
 172 0090 634B     		ldr	r3, .L30+4
 173 0092 9B5C     		ldrb	r3, [r3, r2]	@ zero_extendqisi2
ARM GAS  C:\Users\MARTHN~1\AppData\Local\Temp\ccxS6aMg.s 			page 7


 174 0094 462B     		cmp	r3, #70
 175 0096 F2D1     		bne	.L12
 176              	.L11:
 154:ControllerCableTest_Complete.c ****             {} 
 155:ControllerCableTest_Complete.c ****             
 156:ControllerCableTest_Complete.c ****             CableTest_Complete_StopAutomatedStep();
 177              		.loc 1 156 0 is_stmt 1
 178 0098 FFF7FEFF 		bl	CableTest_Complete_StopAutomatedStep
 157:ControllerCableTest_Complete.c ****             
 158:ControllerCableTest_Complete.c **** //            pTxPacket_Intermotive = getTxPacket_Intermotive();        // Send ignition on signal 
 159:ControllerCableTest_Complete.c **** //            pTxPacket_Intermotive->Payload.Data5 = 0x02; 
 160:ControllerCableTest_Complete.c ****             
 161:ControllerCableTest_Complete.c ****             DEMUX_CTRL_230400_Write(CTEST_RELAY);                       // Send ignition on signal 
 179              		.loc 1 161 0
 180 009c 0020     		movs	r0, #0
 181 009e FFF7FEFF 		bl	DEMUX_CTRL_230400_Write
 162:ControllerCableTest_Complete.c ****             //Need a 'D' packet to send siren and relay versions 9.9.9
 163:ControllerCableTest_Complete.c ****             pTxPacket_Controller = getTxPacket_Controller();            // 'I' packet - check power
 182              		.loc 1 163 0
 183 00a2 FFF7FEFF 		bl	getTxPacket_Controller
 184 00a6 0246     		mov	r2, r0
 185 00a8 5E4B     		ldr	r3, .L30+8
 186 00aa 1A60     		str	r2, [r3]
 164:ControllerCableTest_Complete.c ****             pTxPacket_Controller->Payload.RelayInputs = 0x01;
 187              		.loc 1 164 0
 188 00ac 5D4B     		ldr	r3, .L30+8
 189 00ae 1B68     		ldr	r3, [r3]
 190 00b0 0122     		movs	r2, #1
 191 00b2 DA71     		strb	r2, [r3, #7]
 165:ControllerCableTest_Complete.c ****             
 166:ControllerCableTest_Complete.c ****             CyDelay(CONFIRM_TIME);
 192              		.loc 1 166 0
 193 00b4 6420     		movs	r0, #100
 194 00b6 FFF7FEFF 		bl	CyDelay
 167:ControllerCableTest_Complete.c ****             
 168:ControllerCableTest_Complete.c ****             if(CableTest_CompleteStatus[CurrentTest.TestStep] == 'F')
 195              		.loc 1 168 0
 196 00ba 584B     		ldr	r3, .L30
 197 00bc 5B78     		ldrb	r3, [r3, #1]	@ zero_extendqisi2
 198 00be 1A46     		mov	r2, r3
 199 00c0 574B     		ldr	r3, .L30+4
 200 00c2 9B5C     		ldrb	r3, [r3, r2]	@ zero_extendqisi2
 201 00c4 462B     		cmp	r3, #70
 202 00c6 03D1     		bne	.L13
 169:ControllerCableTest_Complete.c ****             {
 170:ControllerCableTest_Complete.c ****                 CurrentTest.TestStep = PASS;
 203              		.loc 1 170 0
 204 00c8 544B     		ldr	r3, .L30
 205 00ca 0422     		movs	r2, #4
 206 00cc 5A70     		strb	r2, [r3, #1]
 171:ControllerCableTest_Complete.c ****             }
 172:ControllerCableTest_Complete.c ****             else
 173:ControllerCableTest_Complete.c ****             {
 174:ControllerCableTest_Complete.c ****                 //CurrentTest.TestStep = INITIALIZE_TEST;
 175:ControllerCableTest_Complete.c ****                 //CurrentTest.TestStep = CONFIG_FILE;
 176:ControllerCableTest_Complete.c ****                 //CurrentTest.TestStep = TEST_POWERMODES;
 177:ControllerCableTest_Complete.c ****                 CurrentTest.TestStep = OBDII;
ARM GAS  C:\Users\MARTHN~1\AppData\Local\Temp\ccxS6aMg.s 			page 8


 178:ControllerCableTest_Complete.c ****                 //CurrentTest.TestStep = QUAD_STREAM;
 179:ControllerCableTest_Complete.c ****                 //CurrentTest.TestStep = LEDS_RGB;
 180:ControllerCableTest_Complete.c ****             }
 181:ControllerCableTest_Complete.c ****         
 182:ControllerCableTest_Complete.c ****         break;
 207              		.loc 1 182 0
 208 00ce A0E0     		b	.L2
 209              	.L13:
 177:ControllerCableTest_Complete.c ****                 //CurrentTest.TestStep = QUAD_STREAM;
 210              		.loc 1 177 0
 211 00d0 524B     		ldr	r3, .L30
 212 00d2 0222     		movs	r2, #2
 213 00d4 5A70     		strb	r2, [r3, #1]
 214              		.loc 1 182 0
 215 00d6 9CE0     		b	.L2
 216              	.L6:
 183:ControllerCableTest_Complete.c ****             
 184:ControllerCableTest_Complete.c **** //        case CONFIG_FILE:   // configfile is already programmed to the SOM by default
 185:ControllerCableTest_Complete.c **** //            
 186:ControllerCableTest_Complete.c **** //            CTest_CompleteStatus[CurrentTest.TestStep] = 'U';           
 187:ControllerCableTest_Complete.c **** //            CurrentTest.Status = 'U'; 
 188:ControllerCableTest_Complete.c **** ////            pTxPacket_Intermotive = getTxPacket_Intermotive();   // Send ignition on signal (OB
 189:ControllerCableTest_Complete.c **** ////            pTxPacket_Intermotive->Payload.Data5 = 0x02; 
 190:ControllerCableTest_Complete.c **** ////            CTest_PB_WaitForAction();
 191:ControllerCableTest_Complete.c **** // 
 192:ControllerCableTest_Complete.c **** //            CyDelay(CONFIRM_TIME);
 193:ControllerCableTest_Complete.c **** //            
 194:ControllerCableTest_Complete.c **** //            //CurrentTest.TestStep = INITIALIZE_TEST;                   
 195:ControllerCableTest_Complete.c **** //            CurrentTest.TestStep = TEST_POWERMODES;
 196:ControllerCableTest_Complete.c **** //            //CurrentTest.TestStep = QUAD_STREAM;
 197:ControllerCableTest_Complete.c **** //            //CurrentTest.TestStep = LEDS_RGB;
 198:ControllerCableTest_Complete.c **** //        
 199:ControllerCableTest_Complete.c **** //        break;
 200:ControllerCableTest_Complete.c **** //        
 201:ControllerCableTest_Complete.c **** //        case TEST_POWERMODES:  // Test Vbatt detect and USB detect
 202:ControllerCableTest_Complete.c **** //
 203:ControllerCableTest_Complete.c **** //            MUX_CTRL_230400_Write(CTEST_RELAY);
 204:ControllerCableTest_Complete.c **** //            
 205:ControllerCableTest_Complete.c **** //            pRxPacket_Controller = getRxPacket_Controller();        // 'I' packet - check powermo
 206:ControllerCableTest_Complete.c **** //            pTxPacket_Intermotive = getTxPacket_Intermotive();      // '1' packet - set ignition 
 207:ControllerCableTest_Complete.c **** //            //pTxPacket_Controller = getTxPacket_Controller();      // 'D' packet - set ignition 
 208:ControllerCableTest_Complete.c **** //            
 209:ControllerCableTest_Complete.c **** ////            //CTest_StartAutomatedStep();
 210:ControllerCableTest_Complete.c **** ////            //CTest_PB_WaitForAction();
 211:ControllerCableTest_Complete.c **** ////         
 212:ControllerCableTest_Complete.c **** ////            /**** Live Power Mode (Normal Mode) - Vbatt-on, USB_5V-on, Ignition-on ***/
 213:ControllerCableTest_Complete.c **** ////            CTest_CONT_VBATT_EN_Write(1);                   
 214:ControllerCableTest_Complete.c **** ////            CTest_USB_5V_EN_Write(1);
 215:ControllerCableTest_Complete.c **** ////            pTxPacket_Intermotive->Payload.Data5 = 0x02;
 216:ControllerCableTest_Complete.c **** //////            while( (pRxPacket_Controller->Payload.PowerState != 0x01) && (CTestStatus[Current
 217:ControllerCableTest_Complete.c **** //////            {}
 218:ControllerCableTest_Complete.c **** ////            CyDelay(1000);
 219:ControllerCableTest_Complete.c **** ////            CTest_PB_WaitForAction();
 220:ControllerCableTest_Complete.c **** ////            
 221:ControllerCableTest_Complete.c **** //////            CTest_CONT_VBATT_EN_Write(1);                   
 222:ControllerCableTest_Complete.c **** //////            CTest_USB_5V_EN_Write(1);
 223:ControllerCableTest_Complete.c **** //////            pTxPacket_Intermotive->Payload.Data5 = 0x00;
ARM GAS  C:\Users\MARTHN~1\AppData\Local\Temp\ccxS6aMg.s 			page 9


 224:ControllerCableTest_Complete.c **** //////            CyDelay(1000);
 225:ControllerCableTest_Complete.c **** ////
 226:ControllerCableTest_Complete.c **** ////            /**** Low Power Mode (USB Power Only) - Vbatt-off, USB_5V-on, Ignition-off ***/
 227:ControllerCableTest_Complete.c **** ////            CTest_CONT_VBATT_EN_Write(0);               
 228:ControllerCableTest_Complete.c **** ////            CTest_USB_5V_EN_Write(1);
 229:ControllerCableTest_Complete.c **** ////            pTxPacket_Intermotive->Payload.Data5 = 0x00;    
 230:ControllerCableTest_Complete.c **** //////            while( (pRxPacket_Controller->Payload.PowerState != 0x00) && (CTestStatus[Current
 231:ControllerCableTest_Complete.c **** //////            {}
 232:ControllerCableTest_Complete.c **** ////            CyDelay(1000);             
 233:ControllerCableTest_Complete.c **** ////            CTest_PB_WaitForAction();
 234:ControllerCableTest_Complete.c **** ////            
 235:ControllerCableTest_Complete.c **** ////            /**** Normal Power Mode - Vbatt-on, USB_5V-on, Ignition-on ***/
 236:ControllerCableTest_Complete.c **** ////            CTest_CONT_VBATT_EN_Write(1);                                       
 237:ControllerCableTest_Complete.c **** ////            CTest_USB_5V_EN_Write(1);
 238:ControllerCableTest_Complete.c **** ////            pTxPacket_Intermotive->Payload.Data5 = 0x02;
 239:ControllerCableTest_Complete.c **** ////            
 240:ControllerCableTest_Complete.c **** ////            CyDelay(1000);   
 241:ControllerCableTest_Complete.c **** ////            CTest_PB_WaitForAction();
 242:ControllerCableTest_Complete.c **** ////            
 243:ControllerCableTest_Complete.c **** ////            CTest_CONT_VBATT_EN_Write(1);                                    
 244:ControllerCableTest_Complete.c **** ////            CTest_USB_5V_EN_Write(0);
 245:ControllerCableTest_Complete.c **** ////            pTxPacket_Intermotive->Payload.Data5 = 0x02;
 246:ControllerCableTest_Complete.c **** //////            while( (pRxPacket_Controller->Payload.PowerState != 0x01) && (CTestStatus[Current
 247:ControllerCableTest_Complete.c **** //////            {}
 248:ControllerCableTest_Complete.c **** ////            CyDelay(1000);
 249:ControllerCableTest_Complete.c **** ////            CTest_PB_WaitForAction();
 250:ControllerCableTest_Complete.c **** ////            
 251:ControllerCableTest_Complete.c **** ////            //CTest_StopAutomatedStep();
 252:ControllerCableTest_Complete.c **** //            
 253:ControllerCableTest_Complete.c **** //            CTest_Complete_StartAutomatedStep();
 254:ControllerCableTest_Complete.c **** //            //CTest_PB_WaitForAction();
 255:ControllerCableTest_Complete.c **** //         
 256:ControllerCableTest_Complete.c **** //            /**** Low Power Mode - Vbatt-on, USB_5V-off, Ignition-off ***/
 257:ControllerCableTest_Complete.c **** //            CTest_CONT_VBATT_EN_Write(1);                   
 258:ControllerCableTest_Complete.c **** //            CTest_USB_5V_EN_Write(0);
 259:ControllerCableTest_Complete.c **** //            pTxPacket_Intermotive->Payload.Data5 = 0x00;
 260:ControllerCableTest_Complete.c **** //            while( (pRxPacket_Controller->Payload.PowerState != 0x00) && (CTest_CompleteStatus[Cu
 261:ControllerCableTest_Complete.c **** //            {}
 262:ControllerCableTest_Complete.c **** ////            CyDelay(1000);
 263:ControllerCableTest_Complete.c **** //            //CTest_PB_WaitForAction();
 264:ControllerCableTest_Complete.c **** //            
 265:ControllerCableTest_Complete.c **** //            /**** Low Power Mode (USB Power Only) - Vbatt-on, USB_5V-on, Ignition-on ***/
 266:ControllerCableTest_Complete.c **** //            CTest_CONT_VBATT_EN_Write(1);               
 267:ControllerCableTest_Complete.c **** //            CTest_USB_5V_EN_Write(1);
 268:ControllerCableTest_Complete.c **** //            pTxPacket_Intermotive->Payload.Data5 = 0x02;    
 269:ControllerCableTest_Complete.c **** //            while( (pRxPacket_Controller->Payload.PowerState != 0x01) && (CTest_CompleteStatus[Cu
 270:ControllerCableTest_Complete.c **** //            {}
 271:ControllerCableTest_Complete.c **** ////            CyDelay(1000);             
 272:ControllerCableTest_Complete.c **** //            //CTest_PB_WaitForAction();
 273:ControllerCableTest_Complete.c **** //            
 274:ControllerCableTest_Complete.c **** //            /**** Normal Power Mode - Vbatt-on, USB_5V-on, Ignition-on ***/
 275:ControllerCableTest_Complete.c **** //            CTest_CONT_VBATT_EN_Write(1);                                       
 276:ControllerCableTest_Complete.c **** //            CTest_USB_5V_EN_Write(0);
 277:ControllerCableTest_Complete.c **** //            pTxPacket_Intermotive->Payload.Data5 = 0x02;
 278:ControllerCableTest_Complete.c **** //            while( (pRxPacket_Controller->Payload.PowerState != 0x01) && (CTest_CompleteStatus[Cu
 279:ControllerCableTest_Complete.c **** //            {}
 280:ControllerCableTest_Complete.c **** ////            CyDelay(1000);
ARM GAS  C:\Users\MARTHN~1\AppData\Local\Temp\ccxS6aMg.s 			page 10


 281:ControllerCableTest_Complete.c **** //            //CTest_PB_WaitForAction();
 282:ControllerCableTest_Complete.c **** //            
 283:ControllerCableTest_Complete.c **** //            CTest_Complete_StopAutomatedStep();
 284:ControllerCableTest_Complete.c **** //            
 285:ControllerCableTest_Complete.c **** //            CyDelay(CONFIRM_TIME);
 286:ControllerCableTest_Complete.c **** //            
 287:ControllerCableTest_Complete.c **** //            if(CTest_CompleteStatus[CurrentTest.TestStep] == 'F')
 288:ControllerCableTest_Complete.c **** //            {
 289:ControllerCableTest_Complete.c **** //                CurrentTest.TestStep = PASS;
 290:ControllerCableTest_Complete.c **** //            }
 291:ControllerCableTest_Complete.c **** //            else
 292:ControllerCableTest_Complete.c **** //            {
 293:ControllerCableTest_Complete.c **** //                //CurrentTest.TestStep = INITIALIZE_TEST;
 294:ControllerCableTest_Complete.c **** //                //CurrentTest.TestStep = TEST_POWERMODES;
 295:ControllerCableTest_Complete.c **** //                CurrentTest.TestStep = OBDII;
 296:ControllerCableTest_Complete.c **** //                //CurrentTest.TestStep = PASS;
 297:ControllerCableTest_Complete.c **** //            }
 298:ControllerCableTest_Complete.c **** //            
 299:ControllerCableTest_Complete.c **** //        break;
 300:ControllerCableTest_Complete.c ****             
 301:ControllerCableTest_Complete.c ****         case OBDII: //configfile
 302:ControllerCableTest_Complete.c ****             
 303:ControllerCableTest_Complete.c **** //            pTxPacket_Intermotive = getTxPacket_Intermotive(); 
 304:ControllerCableTest_Complete.c **** //            pTxPacket_Intermotive->Payload.Data5 = 0x00; 
 305:ControllerCableTest_Complete.c **** 
 306:ControllerCableTest_Complete.c ****             CableTest_Complete_StartAutomatedStep();
 217              		.loc 1 306 0
 218 00d8 FFF7FEFF 		bl	CableTest_Complete_StartAutomatedStep
 307:ControllerCableTest_Complete.c **** 
 308:ControllerCableTest_Complete.c ****             MUX_CTRL_230400_Write(CTEST_RELAY);                             // Read a 'I' (includes
 219              		.loc 1 308 0
 220 00dc 0020     		movs	r0, #0
 221 00de FFF7FEFF 		bl	MUX_CTRL_230400_Write
 309:ControllerCableTest_Complete.c ****             pRxPacket_Controller = getRxPacket_Controller();    
 222              		.loc 1 309 0
 223 00e2 FFF7FEFF 		bl	getRxPacket_Controller
 224 00e6 0246     		mov	r2, r0
 225 00e8 4F4B     		ldr	r3, .L30+12
 226 00ea 1A60     		str	r2, [r3]
 310:ControllerCableTest_Complete.c ****             
 311:ControllerCableTest_Complete.c ****             while( ( !(pRxPacket_Controller->Payload.Outputs_25to32 >> 7) ) && (CableTest_CompleteS
 227              		.loc 1 311 0
 228 00ec 01E0     		b	.L15
 229              	.L17:
 312:ControllerCableTest_Complete.c ****             {
 313:ControllerCableTest_Complete.c ****                 sendPacketToController_OBDII();                             // Send 'drivers side d
 230              		.loc 1 313 0
 231 00ee FFF7FEFF 		bl	sendPacketToController_OBDII
 232              	.L15:
 311:ControllerCableTest_Complete.c ****             {
 233              		.loc 1 311 0
 234 00f2 4D4B     		ldr	r3, .L30+12
 235 00f4 1B68     		ldr	r3, [r3]
 236 00f6 93F84830 		ldrb	r3, [r3, #72]	@ zero_extendqisi2
 237 00fa 5BB2     		sxtb	r3, r3
 238 00fc 002B     		cmp	r3, #0
 239 00fe 06DB     		blt	.L16
ARM GAS  C:\Users\MARTHN~1\AppData\Local\Temp\ccxS6aMg.s 			page 11


 311:ControllerCableTest_Complete.c ****             {
 240              		.loc 1 311 0 is_stmt 0 discriminator 1
 241 0100 464B     		ldr	r3, .L30
 242 0102 5B78     		ldrb	r3, [r3, #1]	@ zero_extendqisi2
 243 0104 1A46     		mov	r2, r3
 244 0106 464B     		ldr	r3, .L30+4
 245 0108 9B5C     		ldrb	r3, [r3, r2]	@ zero_extendqisi2
 246 010a 462B     		cmp	r3, #70
 247 010c EFD1     		bne	.L17
 248              	.L16:
 314:ControllerCableTest_Complete.c ****             }
 315:ControllerCableTest_Complete.c ****             
 316:ControllerCableTest_Complete.c ****             CableTest_Complete_StopAutomatedStep();
 249              		.loc 1 316 0 is_stmt 1
 250 010e FFF7FEFF 		bl	CableTest_Complete_StopAutomatedStep
 317:ControllerCableTest_Complete.c ****             
 318:ControllerCableTest_Complete.c ****             CyDelay(CONFIRM_TIME);    
 251              		.loc 1 318 0
 252 0112 6420     		movs	r0, #100
 253 0114 FFF7FEFF 		bl	CyDelay
 319:ControllerCableTest_Complete.c ****             
 320:ControllerCableTest_Complete.c ****             if(CableTest_CompleteStatus[CurrentTest.TestStep] == 'F')
 254              		.loc 1 320 0
 255 0118 404B     		ldr	r3, .L30
 256 011a 5B78     		ldrb	r3, [r3, #1]	@ zero_extendqisi2
 257 011c 1A46     		mov	r2, r3
 258 011e 404B     		ldr	r3, .L30+4
 259 0120 9B5C     		ldrb	r3, [r3, r2]	@ zero_extendqisi2
 260 0122 462B     		cmp	r3, #70
 261 0124 03D1     		bne	.L18
 321:ControllerCableTest_Complete.c ****             {
 322:ControllerCableTest_Complete.c ****                 CurrentTest.TestStep = PASS;
 262              		.loc 1 322 0
 263 0126 3D4B     		ldr	r3, .L30
 264 0128 0422     		movs	r2, #4
 265 012a 5A70     		strb	r2, [r3, #1]
 323:ControllerCableTest_Complete.c ****             }
 324:ControllerCableTest_Complete.c ****             else
 325:ControllerCableTest_Complete.c ****             {
 326:ControllerCableTest_Complete.c ****                 //CurrentTest.TestStep = INITIALIZE_TEST;
 327:ControllerCableTest_Complete.c ****                 //CurrentTest.TestStep = LEDS_RGB;
 328:ControllerCableTest_Complete.c ****                 //CurrentTest.TestStep = PUSHBUTTONS;
 329:ControllerCableTest_Complete.c ****                 CurrentTest.TestStep = QUAD_STREAM;
 330:ControllerCableTest_Complete.c ****             }
 331:ControllerCableTest_Complete.c ****       
 332:ControllerCableTest_Complete.c ****         break;  
 266              		.loc 1 332 0
 267 012c 71E0     		b	.L2
 268              	.L18:
 329:ControllerCableTest_Complete.c ****             }
 269              		.loc 1 329 0
 270 012e 3B4B     		ldr	r3, .L30
 271 0130 0322     		movs	r2, #3
 272 0132 5A70     		strb	r2, [r3, #1]
 273              		.loc 1 332 0
 274 0134 6DE0     		b	.L2
 275              	.L7:
ARM GAS  C:\Users\MARTHN~1\AppData\Local\Temp\ccxS6aMg.s 			page 12


 333:ControllerCableTest_Complete.c ****             
 334:ControllerCableTest_Complete.c **** //        case PUSHBUTTONS:  // configfile - Controller should have the config file setup to turn o
 335:ControllerCableTest_Complete.c **** //
 336:ControllerCableTest_Complete.c **** //            CableTest_CompleteStatus[CurrentTest.TestStep] = 'W';
 337:ControllerCableTest_Complete.c **** //            CurrentTest.Status = 'W';
 338:ControllerCableTest_Complete.c **** //            
 339:ControllerCableTest_Complete.c **** //            while( (!CTest_ReadPushbuttons()) && (CableTest_CompleteStatus[CurrentTest.TestStep] 
 340:ControllerCableTest_Complete.c **** //            {}
 341:ControllerCableTest_Complete.c **** //            
 342:ControllerCableTest_Complete.c **** //            if(CTest_CompleteStatus[CurrentTest.TestStep] != 'F')       // If not failed, then pa
 343:ControllerCableTest_Complete.c **** //            {
 344:ControllerCableTest_Complete.c **** //                CTest_CompleteStatus[CurrentTest.TestStep] = 'P';
 345:ControllerCableTest_Complete.c **** //                CurrentTest.Status = 'P';
 346:ControllerCableTest_Complete.c **** //            }
 347:ControllerCableTest_Complete.c **** //            
 348:ControllerCableTest_Complete.c **** //            CyDelay(CONFIRM_TIME);
 349:ControllerCableTest_Complete.c **** //            
 350:ControllerCableTest_Complete.c **** //            if(CTest_CompleteStatus[CurrentTest.TestStep] == 'F')
 351:ControllerCableTest_Complete.c **** //            {
 352:ControllerCableTest_Complete.c **** //                CurrentTest.TestStep = PASS;
 353:ControllerCableTest_Complete.c **** //            }
 354:ControllerCableTest_Complete.c **** //            else
 355:ControllerCableTest_Complete.c **** //            {    
 356:ControllerCableTest_Complete.c **** //                CurrentTest.TestStep = QUAD_STREAM;
 357:ControllerCableTest_Complete.c **** //                //CurrentTest.TestStep = PASS;
 358:ControllerCableTest_Complete.c **** //            }
 359:ControllerCableTest_Complete.c **** //      
 360:ControllerCableTest_Complete.c **** //        break;  
 361:ControllerCableTest_Complete.c ****                 
 362:ControllerCableTest_Complete.c ****         case QUAD_STREAM:   // configfile     
 363:ControllerCableTest_Complete.c ****             
 364:ControllerCableTest_Complete.c ****             CableTest_CompleteStatus[CurrentTest.TestStep] = 'W';
 276              		.loc 1 364 0
 277 0136 394B     		ldr	r3, .L30
 278 0138 5B78     		ldrb	r3, [r3, #1]	@ zero_extendqisi2
 279 013a 1A46     		mov	r2, r3
 280 013c 384B     		ldr	r3, .L30+4
 281 013e 5721     		movs	r1, #87
 282 0140 9954     		strb	r1, [r3, r2]
 365:ControllerCableTest_Complete.c ****             CurrentTest.Status = 'W';
 283              		.loc 1 365 0
 284 0142 364B     		ldr	r3, .L30
 285 0144 5722     		movs	r2, #87
 286 0146 9A70     		strb	r2, [r3, #2]
 366:ControllerCableTest_Complete.c ****         
 367:ControllerCableTest_Complete.c ****             //CableTest_Complete_StartAutomatedStep();
 368:ControllerCableTest_Complete.c **** 
 369:ControllerCableTest_Complete.c ****             MUX_CTRL_460800_Write(CTEST_QUAD);
 287              		.loc 1 369 0
 288 0148 0020     		movs	r0, #0
 289 014a FFF7FEFF 		bl	MUX_CTRL_460800_Write
 370:ControllerCableTest_Complete.c **** 
 371:ControllerCableTest_Complete.c ****             while( (!VerifyPacket_460800(CTEST_RTEST_QUAD)) && (CableTest_CompleteStatus[CurrentTes
 290              		.loc 1 371 0
 291 014e 00BF     		nop
 292              	.L21:
 293              		.loc 1 371 0 is_stmt 0 discriminator 2
ARM GAS  C:\Users\MARTHN~1\AppData\Local\Temp\ccxS6aMg.s 			page 13


 294 0150 0120     		movs	r0, #1
 295 0152 FFF7FEFF 		bl	VerifyPacket_460800
 296 0156 0346     		mov	r3, r0
 297 0158 002B     		cmp	r3, #0
 298 015a 06D1     		bne	.L20
 299              		.loc 1 371 0 discriminator 1
 300 015c 2F4B     		ldr	r3, .L30
 301 015e 5B78     		ldrb	r3, [r3, #1]	@ zero_extendqisi2
 302 0160 1A46     		mov	r2, r3
 303 0162 2F4B     		ldr	r3, .L30+4
 304 0164 9B5C     		ldrb	r3, [r3, r2]	@ zero_extendqisi2
 305 0166 462B     		cmp	r3, #70
 306 0168 F2D1     		bne	.L21
 307              	.L20:
 372:ControllerCableTest_Complete.c ****             {}
 373:ControllerCableTest_Complete.c ****             
 374:ControllerCableTest_Complete.c ****             if(CableTest_CompleteStatus[CurrentTest.TestStep] != 'F')       // If not failed, then 
 308              		.loc 1 374 0 is_stmt 1
 309 016a 2C4B     		ldr	r3, .L30
 310 016c 5B78     		ldrb	r3, [r3, #1]	@ zero_extendqisi2
 311 016e 1A46     		mov	r2, r3
 312 0170 2B4B     		ldr	r3, .L30+4
 313 0172 9B5C     		ldrb	r3, [r3, r2]	@ zero_extendqisi2
 314 0174 462B     		cmp	r3, #70
 315 0176 08D0     		beq	.L22
 375:ControllerCableTest_Complete.c ****             {
 376:ControllerCableTest_Complete.c ****                 CableTest_CompleteStatus[CurrentTest.TestStep] = 'P';
 316              		.loc 1 376 0
 317 0178 284B     		ldr	r3, .L30
 318 017a 5B78     		ldrb	r3, [r3, #1]	@ zero_extendqisi2
 319 017c 1A46     		mov	r2, r3
 320 017e 284B     		ldr	r3, .L30+4
 321 0180 5021     		movs	r1, #80
 322 0182 9954     		strb	r1, [r3, r2]
 377:ControllerCableTest_Complete.c ****                 CurrentTest.Status = 'P';
 323              		.loc 1 377 0
 324 0184 254B     		ldr	r3, .L30
 325 0186 5022     		movs	r2, #80
 326 0188 9A70     		strb	r2, [r3, #2]
 327              	.L22:
 378:ControllerCableTest_Complete.c ****             }
 379:ControllerCableTest_Complete.c ****             
 380:ControllerCableTest_Complete.c ****             //CableTest_Complete_StopAutomatedStep();
 381:ControllerCableTest_Complete.c ****             
 382:ControllerCableTest_Complete.c ****             CyDelay(CONFIRM_TIME);
 328              		.loc 1 382 0
 329 018a 6420     		movs	r0, #100
 330 018c FFF7FEFF 		bl	CyDelay
 383:ControllerCableTest_Complete.c ****             
 384:ControllerCableTest_Complete.c ****             if(CableTest_CompleteStatus[CurrentTest.TestStep] == 'F')
 331              		.loc 1 384 0
 332 0190 224B     		ldr	r3, .L30
 333 0192 5B78     		ldrb	r3, [r3, #1]	@ zero_extendqisi2
 334 0194 1A46     		mov	r2, r3
 335 0196 224B     		ldr	r3, .L30+4
 336 0198 9B5C     		ldrb	r3, [r3, r2]	@ zero_extendqisi2
 337 019a 462B     		cmp	r3, #70
ARM GAS  C:\Users\MARTHN~1\AppData\Local\Temp\ccxS6aMg.s 			page 14


 338 019c 03D1     		bne	.L23
 385:ControllerCableTest_Complete.c ****             {
 386:ControllerCableTest_Complete.c ****                 CurrentTest.TestStep = PASS;
 339              		.loc 1 386 0
 340 019e 1F4B     		ldr	r3, .L30
 341 01a0 0422     		movs	r2, #4
 342 01a2 5A70     		strb	r2, [r3, #1]
 387:ControllerCableTest_Complete.c ****             }
 388:ControllerCableTest_Complete.c ****             else
 389:ControllerCableTest_Complete.c ****             {
 390:ControllerCableTest_Complete.c ****                 //CurrentTest.TestStep = INITIALIZE_TEST;
 391:ControllerCableTest_Complete.c ****                 //CurrentTest.TestStep = AUDIO_STREAM;
 392:ControllerCableTest_Complete.c ****                 //CurrentTest.TestStep = QUAD_STREAM;
 393:ControllerCableTest_Complete.c ****                 //CurrentTest.TestStep = LEDS_RGB;
 394:ControllerCableTest_Complete.c ****                 //CurrentTest.TestStep = PACKET_TO_CONTROLLER;
 395:ControllerCableTest_Complete.c ****                 CurrentTest.TestStep = PASS;
 396:ControllerCableTest_Complete.c ****             }
 397:ControllerCableTest_Complete.c **** 
 398:ControllerCableTest_Complete.c ****         break;
 343              		.loc 1 398 0
 344 01a4 35E0     		b	.L2
 345              	.L23:
 395:ControllerCableTest_Complete.c ****             }
 346              		.loc 1 395 0
 347 01a6 1D4B     		ldr	r3, .L30
 348 01a8 0422     		movs	r2, #4
 349 01aa 5A70     		strb	r2, [r3, #1]
 350              		.loc 1 398 0
 351 01ac 31E0     		b	.L2
 352              	.L8:
 353              	.LBB3:
 399:ControllerCableTest_Complete.c ****             
 400:ControllerCableTest_Complete.c **** //        case LEDS_RGB:   
 401:ControllerCableTest_Complete.c **** //            
 402:ControllerCableTest_Complete.c **** //            //CTest_PB_WaitForAction();
 403:ControllerCableTest_Complete.c **** //            setLEDs(RED);
 404:ControllerCableTest_Complete.c **** //            CTest_CompleteStatus[CurrentTest.TestStep] = 'B';
 405:ControllerCableTest_Complete.c **** //            CurrentTest.Status = 'B';            
 406:ControllerCableTest_Complete.c **** //            CyDelay(5000);
 407:ControllerCableTest_Complete.c **** //            CTest_PB_WaitForAction();  
 408:ControllerCableTest_Complete.c **** //            
 409:ControllerCableTest_Complete.c **** //            setLEDs(BLUE);
 410:ControllerCableTest_Complete.c **** //            CTest_CompleteStatus[CurrentTest.TestStep] = 'B';
 411:ControllerCableTest_Complete.c **** //            CurrentTest.Status = 'B';            
 412:ControllerCableTest_Complete.c **** //            CyDelay(5000);
 413:ControllerCableTest_Complete.c **** //            CTest_PB_WaitForAction();
 414:ControllerCableTest_Complete.c **** //            
 415:ControllerCableTest_Complete.c **** //            setLEDs(GREEN);
 416:ControllerCableTest_Complete.c **** //            CTest_CompleteStatus[CurrentTest.TestStep] = 'B';
 417:ControllerCableTest_Complete.c **** //            CurrentTest.Status = 'B';
 418:ControllerCableTest_Complete.c **** //            CyDelay(5000);
 419:ControllerCableTest_Complete.c **** //            CTest_PB_WaitForAction();
 420:ControllerCableTest_Complete.c **** //            
 421:ControllerCableTest_Complete.c **** ////            setLEDs(OFF);
 422:ControllerCableTest_Complete.c **** ////            CTest_CompleteStatus[CurrentTest.TestStep] = 'B';
 423:ControllerCableTest_Complete.c **** ////            CurrentTest.Status = 'B';
 424:ControllerCableTest_Complete.c **** ////            //CyDelay(5000);
ARM GAS  C:\Users\MARTHN~1\AppData\Local\Temp\ccxS6aMg.s 			page 15


 425:ControllerCableTest_Complete.c **** //////            CTest_PB_WaitForAction();
 426:ControllerCableTest_Complete.c **** //
 427:ControllerCableTest_Complete.c **** //            CTest_CompleteStatus[CurrentTest.TestStep] = 'P';
 428:ControllerCableTest_Complete.c **** //            CurrentTest.Status = 'P';
 429:ControllerCableTest_Complete.c **** //            
 430:ControllerCableTest_Complete.c **** //            CyDelay(CONFIRM_TIME);
 431:ControllerCableTest_Complete.c **** //            
 432:ControllerCableTest_Complete.c **** //            if(CTest_CompleteStatus[CurrentTest.TestStep] == 'F')
 433:ControllerCableTest_Complete.c **** //            {
 434:ControllerCableTest_Complete.c **** //                CurrentTest.TestStep = PASS;
 435:ControllerCableTest_Complete.c **** //            }
 436:ControllerCableTest_Complete.c **** //            else
 437:ControllerCableTest_Complete.c **** //            {
 438:ControllerCableTest_Complete.c **** //                //CurrentTest.TestStep = LEDS_RGB;
 439:ControllerCableTest_Complete.c **** //                CurrentTest.TestStep = AUDIO_STREAM;
 440:ControllerCableTest_Complete.c **** //                //CurrentTest.TestStep = PUSHBUTTONS;
 441:ControllerCableTest_Complete.c **** //            }
 442:ControllerCableTest_Complete.c **** //      
 443:ControllerCableTest_Complete.c **** //        break; 
 444:ControllerCableTest_Complete.c **** //                       
 445:ControllerCableTest_Complete.c **** //        case AUDIO_STREAM:  // (not a priority)
 446:ControllerCableTest_Complete.c **** //            
 447:ControllerCableTest_Complete.c **** //            CTest_CompleteStatus[CurrentTest.TestStep] = 'U';           
 448:ControllerCableTest_Complete.c **** //            CurrentTest.Status = 'U'; 
 449:ControllerCableTest_Complete.c **** //            CyDelay(CONFIRM_TIME);
 450:ControllerCableTest_Complete.c **** ////            CTestStatus[CurrentTest.TestStep] = 'P';
 451:ControllerCableTest_Complete.c **** ////            CurrentTest.Status = 'P';
 452:ControllerCableTest_Complete.c **** ////            CyDelay(CONFIRM_TIME);
 453:ControllerCableTest_Complete.c **** //            
 454:ControllerCableTest_Complete.c **** //            CurrentTest.TestStep = DEBUG_PORT;
 455:ControllerCableTest_Complete.c **** //                
 456:ControllerCableTest_Complete.c **** //        break;
 457:ControllerCableTest_Complete.c ****                          
 458:ControllerCableTest_Complete.c **** //        case PACKET_TO_CONTROLLER:    // (not a priority)    
 459:ControllerCableTest_Complete.c **** //            
 460:ControllerCableTest_Complete.c **** //            CableTest_CompleteStatus[CurrentTest.TestStep] = 'U';           
 461:ControllerCableTest_Complete.c **** //            CurrentTest.Status = 'U'; 
 462:ControllerCableTest_Complete.c **** //            CyDelay(CONFIRM_TIME);
 463:ControllerCableTest_Complete.c **** ////            CTestStatus[CurrentTest.TestStep] = 'P';
 464:ControllerCableTest_Complete.c **** ////            CurrentTest.Status = 'P';
 465:ControllerCableTest_Complete.c **** ////            CyDelay(CONFIRM_TIME);
 466:ControllerCableTest_Complete.c **** //            
 467:ControllerCableTest_Complete.c **** //            DEMUX_CTRL_230400_Write(CTEST_RELAY);
 468:ControllerCableTest_Complete.c **** //            //Need a 'D' packet to send siren and relay versions 9.9.9
 469:ControllerCableTest_Complete.c **** //            pTxPacket_Controller = getTxPacket_Controller();        // 'I' packet - check powermo
 470:ControllerCableTest_Complete.c **** //            
 471:ControllerCableTest_Complete.c **** //            pTxPacket_Controller->Payload.RelayFirm_0 = 9;
 472:ControllerCableTest_Complete.c **** //            pTxPacket_Controller->Payload.RelayFirm_1 = 9;
 473:ControllerCableTest_Complete.c **** //            pTxPacket_Controller->Payload.RelayFirm_2 = 9;
 474:ControllerCableTest_Complete.c **** //            
 475:ControllerCableTest_Complete.c **** //            pTxPacket_Controller->Payload.SirenFirm_0 = 9;
 476:ControllerCableTest_Complete.c **** //            pTxPacket_Controller->Payload.SirenFirm_1 = 9;
 477:ControllerCableTest_Complete.c **** //            pTxPacket_Controller->Payload.SirenFirm_2 = 9;
 478:ControllerCableTest_Complete.c **** //            
 479:ControllerCableTest_Complete.c **** //            while(1);
 480:ControllerCableTest_Complete.c **** //            
 481:ControllerCableTest_Complete.c **** //            //CurrentTest.TestStep = INITIALIZE_TEST;
ARM GAS  C:\Users\MARTHN~1\AppData\Local\Temp\ccxS6aMg.s 			page 16


 482:ControllerCableTest_Complete.c **** //            //CurrentTest.TestStep = OBDII;
 483:ControllerCableTest_Complete.c **** //            CurrentTest.TestStep = PASS;
 484:ControllerCableTest_Complete.c **** //      
 485:ControllerCableTest_Complete.c **** //        break;  
 486:ControllerCableTest_Complete.c ****             
 487:ControllerCableTest_Complete.c ****         case PASS:   
 488:ControllerCableTest_Complete.c **** 
 489:ControllerCableTest_Complete.c ****             for(uint8 i=0;i<(NUMBER_TEST_STEPS-1);i++)
 354              		.loc 1 489 0
 355 01ae 0023     		movs	r3, #0
 356 01b0 BB71     		strb	r3, [r7, #6]
 357 01b2 1AE0     		b	.L25
 358              	.L27:
 490:ControllerCableTest_Complete.c ****             {
 491:ControllerCableTest_Complete.c ****                 if( (CableTest_CompleteStatus[i] != 'P') && (CableTest_CompleteStatus[i] != 'U') &&
 359              		.loc 1 491 0
 360 01b4 BB79     		ldrb	r3, [r7, #6]	@ zero_extendqisi2
 361 01b6 1A4A     		ldr	r2, .L30+4
 362 01b8 D35C     		ldrb	r3, [r2, r3]	@ zero_extendqisi2
 363 01ba 502B     		cmp	r3, #80
 364 01bc 12D0     		beq	.L26
 365              		.loc 1 491 0 is_stmt 0 discriminator 1
 366 01be BB79     		ldrb	r3, [r7, #6]	@ zero_extendqisi2
 367 01c0 174A     		ldr	r2, .L30+4
 368 01c2 D35C     		ldrb	r3, [r2, r3]	@ zero_extendqisi2
 369 01c4 552B     		cmp	r3, #85
 370 01c6 0DD0     		beq	.L26
 371              		.loc 1 491 0 discriminator 2
 372 01c8 BB79     		ldrb	r3, [r7, #6]	@ zero_extendqisi2
 373 01ca 154A     		ldr	r2, .L30+4
 374 01cc D35C     		ldrb	r3, [r2, r3]	@ zero_extendqisi2
 375 01ce 492B     		cmp	r3, #73
 376 01d0 08D0     		beq	.L26
 492:ControllerCableTest_Complete.c ****                 {
 493:ControllerCableTest_Complete.c ****                     CableTest_CompleteStatus[CurrentTest.TestStep] = 'f';
 377              		.loc 1 493 0 is_stmt 1
 378 01d2 124B     		ldr	r3, .L30
 379 01d4 5B78     		ldrb	r3, [r3, #1]	@ zero_extendqisi2
 380 01d6 1A46     		mov	r2, r3
 381 01d8 114B     		ldr	r3, .L30+4
 382 01da 6621     		movs	r1, #102
 383 01dc 9954     		strb	r1, [r3, r2]
 494:ControllerCableTest_Complete.c ****                     CurrentTest.Status = 'f';                      
 384              		.loc 1 494 0
 385 01de 0F4B     		ldr	r3, .L30
 386 01e0 6622     		movs	r2, #102
 387 01e2 9A70     		strb	r2, [r3, #2]
 388              	.L26:
 489:ControllerCableTest_Complete.c ****             {
 389              		.loc 1 489 0 discriminator 2
 390 01e4 BB79     		ldrb	r3, [r7, #6]	@ zero_extendqisi2
 391 01e6 0133     		adds	r3, r3, #1
 392 01e8 BB71     		strb	r3, [r7, #6]
 393              	.L25:
 489:ControllerCableTest_Complete.c ****             {
 394              		.loc 1 489 0 is_stmt 0 discriminator 1
 395 01ea BB79     		ldrb	r3, [r7, #6]	@ zero_extendqisi2
ARM GAS  C:\Users\MARTHN~1\AppData\Local\Temp\ccxS6aMg.s 			page 17


 396 01ec 032B     		cmp	r3, #3
 397 01ee E1D9     		bls	.L27
 398              	.LBE3:
 495:ControllerCableTest_Complete.c ****                 }    
 496:ControllerCableTest_Complete.c ****             }
 497:ControllerCableTest_Complete.c ****  
 498:ControllerCableTest_Complete.c ****             if(CableTest_CompleteStatus[CurrentTest.TestStep] != 'f')
 399              		.loc 1 498 0 is_stmt 1
 400 01f0 0A4B     		ldr	r3, .L30
 401 01f2 5B78     		ldrb	r3, [r3, #1]	@ zero_extendqisi2
 402 01f4 1A46     		mov	r2, r3
 403 01f6 0A4B     		ldr	r3, .L30+4
 404 01f8 9B5C     		ldrb	r3, [r3, r2]	@ zero_extendqisi2
 405 01fa 662B     		cmp	r3, #102
 406 01fc 08D0     		beq	.L28
 499:ControllerCableTest_Complete.c ****             {
 500:ControllerCableTest_Complete.c ****                 CableTest_CompleteStatus[CurrentTest.TestStep] = 'p';
 407              		.loc 1 500 0
 408 01fe 074B     		ldr	r3, .L30
 409 0200 5B78     		ldrb	r3, [r3, #1]	@ zero_extendqisi2
 410 0202 1A46     		mov	r2, r3
 411 0204 064B     		ldr	r3, .L30+4
 412 0206 7021     		movs	r1, #112
 413 0208 9954     		strb	r1, [r3, r2]
 501:ControllerCableTest_Complete.c ****                 CurrentTest.Status = 'p'; 
 414              		.loc 1 501 0
 415 020a 044B     		ldr	r3, .L30
 416 020c 7022     		movs	r2, #112
 417 020e 9A70     		strb	r2, [r3, #2]
 418              	.L28:
 502:ControllerCableTest_Complete.c ****             }
 503:ControllerCableTest_Complete.c ****             
 504:ControllerCableTest_Complete.c ****             while(1);
 419              		.loc 1 504 0 discriminator 1
 420 0210 FEE7     		b	.L28
 421              	.L2:
 505:ControllerCableTest_Complete.c **** //            while(PB_NextAction_Read() != 1){};
 506:ControllerCableTest_Complete.c **** //            CTestStatus[CurrentTest.TestStep] = 'r';
 507:ControllerCableTest_Complete.c **** //            CurrentTest.Status = 'r'; 
 508:ControllerCableTest_Complete.c **** //            CyDelay(1000);
 509:ControllerCableTest_Complete.c **** //            CurrentTest.TestStep = INITIALIZE_TEST;
 510:ControllerCableTest_Complete.c ****       
 511:ControllerCableTest_Complete.c ****         break; 
 512:ControllerCableTest_Complete.c ****        
 513:ControllerCableTest_Complete.c ****     }
 514:ControllerCableTest_Complete.c ****     
 515:ControllerCableTest_Complete.c ****     return(0);
 422              		.loc 1 515 0
 423 0212 0023     		movs	r3, #0
 516:ControllerCableTest_Complete.c **** }
 424              		.loc 1 516 0
 425 0214 1846     		mov	r0, r3
 426 0216 0837     		adds	r7, r7, #8
 427              		.cfi_def_cfa_offset 8
 428 0218 BD46     		mov	sp, r7
 429              		.cfi_def_cfa_register 13
 430              		@ sp needed
ARM GAS  C:\Users\MARTHN~1\AppData\Local\Temp\ccxS6aMg.s 			page 18


 431 021a 80BD     		pop	{r7, pc}
 432              	.L31:
 433              		.align	2
 434              	.L30:
 435 021c 00000000 		.word	CurrentTest
 436 0220 D4000000 		.word	CableTest_CompleteStatus
 437 0224 64000000 		.word	pTxPacket_Controller
 438 0228 50000000 		.word	pRxPacket_Controller
 439              		.cfi_endproc
 440              	.LFE63:
 441              		.size	ControllerCableTest_Complete, .-ControllerCableTest_Complete
 442              		.section	.text.CableTest_Complete_sendDiagPacket,"ax",%progbits
 443              		.align	2
 444              		.global	CableTest_Complete_sendDiagPacket
 445              		.thumb
 446              		.thumb_func
 447              		.type	CableTest_Complete_sendDiagPacket, %function
 448              	CableTest_Complete_sendDiagPacket:
 449              	.LFB64:
 517:ControllerCableTest_Complete.c **** 
 518:ControllerCableTest_Complete.c **** 
 519:ControllerCableTest_Complete.c **** 
 520:ControllerCableTest_Complete.c **** //uint8 CTest_ReadPushbuttons()
 521:ControllerCableTest_Complete.c **** //{
 522:ControllerCableTest_Complete.c **** //
 523:ControllerCableTest_Complete.c **** //    MUX_CTRL_230400_Write(CTEST_RELAY);                             // Read a 'I' (includes 'P') 
 524:ControllerCableTest_Complete.c **** //    pRxPacket_Controller = getRxPacket_Controller();    
 525:ControllerCableTest_Complete.c **** //    
 526:ControllerCableTest_Complete.c **** //    if( (pRxPacket_Controller->Payload.Outputs_1to8 == 0xFF) &&
 527:ControllerCableTest_Complete.c **** //        (pRxPacket_Controller->Payload.Outputs_9to16 == 0xFF) ) //&&
 528:ControllerCableTest_Complete.c **** ////        (pRxPacket_Controller->Payload.Outputs_17to24 == 0xFF) &&
 529:ControllerCableTest_Complete.c **** ////        (pRxPacket_Controller->Payload.Outputs_25to32 == 0xFF) )
 530:ControllerCableTest_Complete.c **** //    {
 531:ControllerCableTest_Complete.c **** //        return(1);
 532:ControllerCableTest_Complete.c **** //    } 
 533:ControllerCableTest_Complete.c **** //    else
 534:ControllerCableTest_Complete.c **** //        return(0);
 535:ControllerCableTest_Complete.c **** //       
 536:ControllerCableTest_Complete.c **** //}
 537:ControllerCableTest_Complete.c **** 
 538:ControllerCableTest_Complete.c **** //uint8 CTest_ReadPowerMode()
 539:ControllerCableTest_Complete.c **** //{  
 540:ControllerCableTest_Complete.c **** //    
 541:ControllerCableTest_Complete.c **** //    //*** We need to inlude Relay ignition signal, and OBD as triggers
 542:ControllerCableTest_Complete.c **** //    //*** (Controller config file should have all input logic set to Hi???)
 543:ControllerCableTest_Complete.c **** //    
 544:ControllerCableTest_Complete.c **** //    // Switch MUX_230400 to read CTest_RS485_Relay_Rx
 545:ControllerCableTest_Complete.c **** ////        MUX_CTRL_230400_Write(0x00);
 546:ControllerCableTest_Complete.c **** //     
 547:ControllerCableTest_Complete.c **** //    // Read the PowerState byte, Return the Powerstate byte
 548:ControllerCableTest_Complete.c **** //        pRxPacket_Controller = getRxPacket_Controller();
 549:ControllerCableTest_Complete.c **** //        return(pRxPacket_Controller->Payload.PowerState);
 550:ControllerCableTest_Complete.c **** //   
 551:ControllerCableTest_Complete.c **** //}
 552:ControllerCableTest_Complete.c **** 
 553:ControllerCableTest_Complete.c **** //void CTest_SendIgnitionState(uint8 ignition_state)           //*** This function needs work
 554:ControllerCableTest_Complete.c **** //{
ARM GAS  C:\Users\MARTHN~1\AppData\Local\Temp\ccxS6aMg.s 			page 19


 555:ControllerCableTest_Complete.c **** //    
 556:ControllerCableTest_Complete.c **** //    pTxPacket_Controller = getTxPacket_Controller();
 557:ControllerCableTest_Complete.c **** //    pTxPacket_Controller->Payload.RelayInputs = (pTxPacket_Controller->Payload.RelayInputs | 0x01
 558:ControllerCableTest_Complete.c **** //    
 559:ControllerCableTest_Complete.c **** //    MUX_CTRL_230400_Write(0x00);                        // Set the Mux channel
 560:ControllerCableTest_Complete.c **** //    
 561:ControllerCableTest_Complete.c **** //    
 562:ControllerCableTest_Complete.c **** //    return;
 563:ControllerCableTest_Complete.c **** //}
 564:ControllerCableTest_Complete.c **** 
 565:ControllerCableTest_Complete.c **** 
 566:ControllerCableTest_Complete.c **** //TxPacket_RelaySiren * getTxPacket_Relay(void)
 567:ControllerCableTest_Complete.c **** //{
 568:ControllerCableTest_Complete.c **** //    pTxPacket_Relay = &txPacket_Relay;
 569:ControllerCableTest_Complete.c **** //    
 570:ControllerCableTest_Complete.c **** //    return pTxPacket_Relay;
 571:ControllerCableTest_Complete.c **** //}
 572:ControllerCableTest_Complete.c **** 
 573:ControllerCableTest_Complete.c **** //RxPacket_Controller * getRxPacket_Controller(void)
 574:ControllerCableTest_Complete.c **** //{
 575:ControllerCableTest_Complete.c **** //    pRxPacket_Controller = &rxPacket_Controller;
 576:ControllerCableTest_Complete.c **** //    
 577:ControllerCableTest_Complete.c **** //    return pRxPacket_Controller;
 578:ControllerCableTest_Complete.c **** //}
 579:ControllerCableTest_Complete.c **** 
 580:ControllerCableTest_Complete.c **** //TxPacket_Controller * getTxPacket_Controller(void)
 581:ControllerCableTest_Complete.c **** //{
 582:ControllerCableTest_Complete.c **** //    pTxPacket_Controller = &txPacket_Controller;
 583:ControllerCableTest_Complete.c **** //    
 584:ControllerCableTest_Complete.c **** //    return pTxPacket_Controller;
 585:ControllerCableTest_Complete.c **** //}
 586:ControllerCableTest_Complete.c **** 
 587:ControllerCableTest_Complete.c **** void CableTest_Complete_sendDiagPacket(void)
 588:ControllerCableTest_Complete.c **** {
 450              		.loc 1 588 0
 451              		.cfi_startproc
 452              		@ args = 0, pretend = 0, frame = 8
 453              		@ frame_needed = 1, uses_anonymous_args = 0
 454 0000 80B5     		push	{r7, lr}
 455              		.cfi_def_cfa_offset 8
 456              		.cfi_offset 7, -8
 457              		.cfi_offset 14, -4
 458 0002 82B0     		sub	sp, sp, #8
 459              		.cfi_def_cfa_offset 16
 460 0004 00AF     		add	r7, sp, #0
 461              		.cfi_def_cfa_register 7
 462              	.LBB4:
 589:ControllerCableTest_Complete.c **** 
 590:ControllerCableTest_Complete.c ****     static uint8 CTestStatus_display[ (NUMBER_TEST_STEPS*2) ];
 591:ControllerCableTest_Complete.c ****     
 592:ControllerCableTest_Complete.c ****     for(uint8 i=0;i<NUMBER_TEST_STEPS;i++)
 463              		.loc 1 592 0
 464 0006 0023     		movs	r3, #0
 465 0008 FB71     		strb	r3, [r7, #7]
 466 000a 0FE0     		b	.L33
 467              	.L34:
 593:ControllerCableTest_Complete.c ****     {
ARM GAS  C:\Users\MARTHN~1\AppData\Local\Temp\ccxS6aMg.s 			page 20


 594:ControllerCableTest_Complete.c ****         CTestStatus_display[i*2] = CableTest_CompleteStatus[i];
 468              		.loc 1 594 0 discriminator 3
 469 000c FB79     		ldrb	r3, [r7, #7]	@ zero_extendqisi2
 470 000e 5B00     		lsls	r3, r3, #1
 471 0010 FA79     		ldrb	r2, [r7, #7]	@ zero_extendqisi2
 472 0012 0F49     		ldr	r1, .L36
 473 0014 895C     		ldrb	r1, [r1, r2]	@ zero_extendqisi2
 474 0016 0F4A     		ldr	r2, .L36+4
 475 0018 D154     		strb	r1, [r2, r3]
 595:ControllerCableTest_Complete.c ****         CTestStatus_display[(i*2) + 1] = ' ';
 476              		.loc 1 595 0 discriminator 3
 477 001a FB79     		ldrb	r3, [r7, #7]	@ zero_extendqisi2
 478 001c 5B00     		lsls	r3, r3, #1
 479 001e 0133     		adds	r3, r3, #1
 480 0020 0C4A     		ldr	r2, .L36+4
 481 0022 2021     		movs	r1, #32
 482 0024 D154     		strb	r1, [r2, r3]
 592:ControllerCableTest_Complete.c ****     {
 483              		.loc 1 592 0 discriminator 3
 484 0026 FB79     		ldrb	r3, [r7, #7]	@ zero_extendqisi2
 485 0028 0133     		adds	r3, r3, #1
 486 002a FB71     		strb	r3, [r7, #7]
 487              	.L33:
 592:ControllerCableTest_Complete.c ****     {
 488              		.loc 1 592 0 is_stmt 0 discriminator 1
 489 002c FB79     		ldrb	r3, [r7, #7]	@ zero_extendqisi2
 490 002e 042B     		cmp	r3, #4
 491 0030 ECD9     		bls	.L34
 492              	.LBE4:
 596:ControllerCableTest_Complete.c ****     }
 597:ControllerCableTest_Complete.c ****     
 598:ControllerCableTest_Complete.c ****     //DEMUX_CTRL_115200_Write();
 599:ControllerCableTest_Complete.c ****     
 600:ControllerCableTest_Complete.c ****     UART_115200_PutArray(CTestStatus_display, (NUMBER_TEST_STEPS*2) );
 493              		.loc 1 600 0 is_stmt 1
 494 0032 0A21     		movs	r1, #10
 495 0034 0748     		ldr	r0, .L36+4
 496 0036 FFF7FEFF 		bl	UART_115200_PutArray
 601:ControllerCableTest_Complete.c ****     
 602:ControllerCableTest_Complete.c ****     UART_115200_PutChar('\r');
 497              		.loc 1 602 0
 498 003a 0D20     		movs	r0, #13
 499 003c FFF7FEFF 		bl	UART_115200_PutChar
 603:ControllerCableTest_Complete.c ****     UART_115200_PutChar('\n');
 500              		.loc 1 603 0
 501 0040 0A20     		movs	r0, #10
 502 0042 FFF7FEFF 		bl	UART_115200_PutChar
 604:ControllerCableTest_Complete.c **** 
 605:ControllerCableTest_Complete.c ****     //LED_EN_Write(1);
 606:ControllerCableTest_Complete.c ****     
 607:ControllerCableTest_Complete.c ****     return;
 503              		.loc 1 607 0
 504 0046 00BF     		nop
 608:ControllerCableTest_Complete.c **** }
 505              		.loc 1 608 0
 506 0048 0837     		adds	r7, r7, #8
 507              		.cfi_def_cfa_offset 8
ARM GAS  C:\Users\MARTHN~1\AppData\Local\Temp\ccxS6aMg.s 			page 21


 508 004a BD46     		mov	sp, r7
 509              		.cfi_def_cfa_register 13
 510              		@ sp needed
 511 004c 80BD     		pop	{r7, pc}
 512              	.L37:
 513 004e 00BF     		.align	2
 514              	.L36:
 515 0050 D4000000 		.word	CableTest_CompleteStatus
 516 0054 DC000000 		.word	CTestStatus_display.7435
 517              		.cfi_endproc
 518              	.LFE64:
 519              		.size	CableTest_Complete_sendDiagPacket, .-CableTest_Complete_sendDiagPacket
 520              		.section	.text.CableTest_Complete_20ms_isr,"ax",%progbits
 521              		.align	2
 522              		.global	CableTest_Complete_20ms_isr
 523              		.thumb
 524              		.thumb_func
 525              		.type	CableTest_Complete_20ms_isr, %function
 526              	CableTest_Complete_20ms_isr:
 527              	.LFB65:
 609:ControllerCableTest_Complete.c **** //----------------------------------------Timer Interrupts------------------------------
 610:ControllerCableTest_Complete.c **** //void CTest_isr_PB(void)
 611:ControllerCableTest_Complete.c **** //{
 612:ControllerCableTest_Complete.c **** //    static uint8 PB_NextAction_debouncecount = 0;
 613:ControllerCableTest_Complete.c **** //    static uint8 PB_NextAction_failcount = 0;
 614:ControllerCableTest_Complete.c **** //    static uint8 PB_NextAction_prevstate = 0;
 615:ControllerCableTest_Complete.c **** //    
 616:ControllerCableTest_Complete.c **** //    static uint8 debouncetrue = 0;
 617:ControllerCableTest_Complete.c **** //    
 618:ControllerCableTest_Complete.c **** //    static uint8 PB_reading = 0;
 619:ControllerCableTest_Complete.c **** //    static uint8 PB_reading_previous = 0;
 620:ControllerCableTest_Complete.c **** //    PB_reading = PB_NextAction_Read();
 621:ControllerCableTest_Complete.c **** //    
 622:ControllerCableTest_Complete.c **** //    
 623:ControllerCableTest_Complete.c **** //    if(PB_reading == PB_reading_previous)               // If reading is the same as the last, in
 624:ControllerCableTest_Complete.c **** //        PB_NextAction_debouncecount++;
 625:ControllerCableTest_Complete.c **** //    else
 626:ControllerCableTest_Complete.c **** //        PB_NextAction_debouncecount = 0;
 627:ControllerCableTest_Complete.c **** //    
 628:ControllerCableTest_Complete.c **** //    if(PB_NextAction_debouncecount > DEBOUNCE_COUNT)    // Set debouncetrue
 629:ControllerCableTest_Complete.c **** //    {
 630:ControllerCableTest_Complete.c **** //        debouncetrue = PB_reading;
 631:ControllerCableTest_Complete.c **** //        PB_NextAction_debouncecount = 0;
 632:ControllerCableTest_Complete.c **** //    }
 633:ControllerCableTest_Complete.c **** //
 634:ControllerCableTest_Complete.c **** //    PB_reading_previous = PB_reading;                   // Save current reading for next interrup
 635:ControllerCableTest_Complete.c **** //    
 636:ControllerCableTest_Complete.c **** //    if(debouncetrue == 1)                               // If debounced and asserted
 637:ControllerCableTest_Complete.c **** //    {
 638:ControllerCableTest_Complete.c **** //        PB_NextAction_Pressed = 1;
 639:ControllerCableTest_Complete.c **** //        PB_NextAction_failcount++;
 640:ControllerCableTest_Complete.c **** //    }
 641:ControllerCableTest_Complete.c **** //    else
 642:ControllerCableTest_Complete.c **** //    {
 643:ControllerCableTest_Complete.c **** //        PB_NextAction_Pressed = 0;
 644:ControllerCableTest_Complete.c **** //        PB_NextAction_failcount = 0;
 645:ControllerCableTest_Complete.c **** //    }
ARM GAS  C:\Users\MARTHN~1\AppData\Local\Temp\ccxS6aMg.s 			page 22


 646:ControllerCableTest_Complete.c **** //    
 647:ControllerCableTest_Complete.c **** //
 648:ControllerCableTest_Complete.c **** //    if(PB_NextAction_failcount > 75)                       // If PB is held for (150 * 20msec = 3
 649:ControllerCableTest_Complete.c **** //    {  
 650:ControllerCableTest_Complete.c **** //        CTestStatus[CurrentTest.TestStep] = 'F';
 651:ControllerCableTest_Complete.c **** //        CurrentTest.Status = 'F';
 652:ControllerCableTest_Complete.c **** //        PB_NextAction_failcount = 0;
 653:ControllerCableTest_Complete.c **** //        
 654:ControllerCableTest_Complete.c **** //    }
 655:ControllerCableTest_Complete.c **** //    
 656:ControllerCableTest_Complete.c **** //
 657:ControllerCableTest_Complete.c **** //    if( (PB_NextAction_prevstate == 1) && (PB_NextAction_Pressed == 0) )        // Determine if P
 658:ControllerCableTest_Complete.c **** //    {
 659:ControllerCableTest_Complete.c **** //        PB_NextAction_Released = 1;
 660:ControllerCableTest_Complete.c **** //    }
 661:ControllerCableTest_Complete.c **** //    else
 662:ControllerCableTest_Complete.c **** //        PB_NextAction_Released = 0;
 663:ControllerCableTest_Complete.c **** //    
 664:ControllerCableTest_Complete.c **** //    PB_NextAction_prevstate = PB_NextAction_Pressed;
 665:ControllerCableTest_Complete.c **** //    
 666:ControllerCableTest_Complete.c **** //    return;
 667:ControllerCableTest_Complete.c **** //}
 668:ControllerCableTest_Complete.c **** 
 669:ControllerCableTest_Complete.c **** void CableTest_Complete_20ms_isr(void)
 670:ControllerCableTest_Complete.c **** {
 528              		.loc 1 670 0
 529              		.cfi_startproc
 530              		@ args = 0, pretend = 0, frame = 0
 531              		@ frame_needed = 1, uses_anonymous_args = 0
 532              		@ link register save eliminated.
 533 0000 80B4     		push	{r7}
 534              		.cfi_def_cfa_offset 4
 535              		.cfi_offset 7, -4
 536 0002 00AF     		add	r7, sp, #0
 537              		.cfi_def_cfa_register 7
 671:ControllerCableTest_Complete.c ****     
 672:ControllerCableTest_Complete.c **** //    if(CurrentTest.TestStep == QUAD_PORTS)       // *** send quad packet if needed 
 673:ControllerCableTest_Complete.c **** //    {
 674:ControllerCableTest_Complete.c **** //        sendPacketToRelay_Quad();
 675:ControllerCableTest_Complete.c **** //    }
 676:ControllerCableTest_Complete.c ****     
 677:ControllerCableTest_Complete.c ****     CableTest_20ms_isr_count++;                                         // 
 538              		.loc 1 677 0
 539 0004 184B     		ldr	r3, .L45
 540 0006 1B88     		ldrh	r3, [r3]
 541 0008 0133     		adds	r3, r3, #1
 542 000a 9AB2     		uxth	r2, r3
 543 000c 164B     		ldr	r3, .L45
 544 000e 1A80     		strh	r2, [r3]	@ movhi
 678:ControllerCableTest_Complete.c **** 
 679:ControllerCableTest_Complete.c ****     if(CableTest_20ms_isr_count > CableTest_Complete_TimeoutCount[CurrentTest.TestStep])
 545              		.loc 1 679 0
 546 0010 164B     		ldr	r3, .L45+4
 547 0012 5B78     		ldrb	r3, [r3, #1]	@ zero_extendqisi2
 548 0014 1A46     		mov	r2, r3
 549 0016 164B     		ldr	r3, .L45+8
 550 0018 33F81220 		ldrh	r2, [r3, r2, lsl #1]
ARM GAS  C:\Users\MARTHN~1\AppData\Local\Temp\ccxS6aMg.s 			page 23


 551 001c 124B     		ldr	r3, .L45
 552 001e 1B88     		ldrh	r3, [r3]
 553 0020 9A42     		cmp	r2, r3
 554 0022 10D2     		bcs	.L39
 680:ControllerCableTest_Complete.c ****     {
 681:ControllerCableTest_Complete.c ****         CableTest_20ms_isr_count = 0;
 555              		.loc 1 681 0
 556 0024 104B     		ldr	r3, .L45
 557 0026 0022     		movs	r2, #0
 558 0028 1A80     		strh	r2, [r3]	@ movhi
 682:ControllerCableTest_Complete.c ****         
 683:ControllerCableTest_Complete.c ****         if(CableTest_20ms_isr_EN == 1)
 559              		.loc 1 683 0
 560 002a 124B     		ldr	r3, .L45+12
 561 002c 1B88     		ldrh	r3, [r3]
 562 002e 012B     		cmp	r3, #1
 563 0030 14D1     		bne	.L43
 684:ControllerCableTest_Complete.c ****         {
 685:ControllerCableTest_Complete.c ****             CableTest_CompleteStatus[CurrentTest.TestStep] = 'F';
 564              		.loc 1 685 0
 565 0032 0E4B     		ldr	r3, .L45+4
 566 0034 5B78     		ldrb	r3, [r3, #1]	@ zero_extendqisi2
 567 0036 1A46     		mov	r2, r3
 568 0038 0F4B     		ldr	r3, .L45+16
 569 003a 4621     		movs	r1, #70
 570 003c 9954     		strb	r1, [r3, r2]
 686:ControllerCableTest_Complete.c ****             CurrentTest.Status = 'F';
 571              		.loc 1 686 0
 572 003e 0B4B     		ldr	r3, .L45+4
 573 0040 4622     		movs	r2, #70
 574 0042 9A70     		strb	r2, [r3, #2]
 687:ControllerCableTest_Complete.c ****         }
 688:ControllerCableTest_Complete.c ****             
 689:ControllerCableTest_Complete.c ****         return;
 575              		.loc 1 689 0
 576 0044 0AE0     		b	.L43
 577              	.L39:
 690:ControllerCableTest_Complete.c ****     }
 691:ControllerCableTest_Complete.c ****     
 692:ControllerCableTest_Complete.c ****     if(CableTest_20ms_isr_count > 65000)
 578              		.loc 1 692 0
 579 0046 084B     		ldr	r3, .L45
 580 0048 1B88     		ldrh	r3, [r3]
 581 004a 4FF6E852 		movw	r2, #65000
 582 004e 9342     		cmp	r3, r2
 583 0050 06D9     		bls	.L44
 693:ControllerCableTest_Complete.c ****         CableTest_20ms_isr_count = 0;
 584              		.loc 1 693 0
 585 0052 054B     		ldr	r3, .L45
 586 0054 0022     		movs	r2, #0
 587 0056 1A80     		strh	r2, [r3]	@ movhi
 694:ControllerCableTest_Complete.c ****     
 695:ControllerCableTest_Complete.c ****     return;
 588              		.loc 1 695 0
 589 0058 00BF     		nop
 590 005a 01E0     		b	.L44
 591              	.L43:
ARM GAS  C:\Users\MARTHN~1\AppData\Local\Temp\ccxS6aMg.s 			page 24


 689:ControllerCableTest_Complete.c ****     }
 592              		.loc 1 689 0
 593 005c 00BF     		nop
 594 005e 00E0     		b	.L38
 595              	.L44:
 596              		.loc 1 695 0
 597 0060 00BF     		nop
 598              	.L38:
 696:ControllerCableTest_Complete.c ****        
 697:ControllerCableTest_Complete.c **** }
 599              		.loc 1 697 0
 600 0062 BD46     		mov	sp, r7
 601              		.cfi_def_cfa_register 13
 602              		@ sp needed
 603 0064 80BC     		pop	{r7}
 604              		.cfi_restore 7
 605              		.cfi_def_cfa_offset 0
 606 0066 7047     		bx	lr
 607              	.L46:
 608              		.align	2
 609              	.L45:
 610 0068 CC000000 		.word	CableTest_20ms_isr_count
 611 006c 00000000 		.word	CurrentTest
 612 0070 00000000 		.word	CableTest_Complete_TimeoutCount
 613 0074 CE000000 		.word	CableTest_20ms_isr_EN
 614 0078 D4000000 		.word	CableTest_CompleteStatus
 615              		.cfi_endproc
 616              	.LFE65:
 617              		.size	CableTest_Complete_20ms_isr, .-CableTest_Complete_20ms_isr
 618              		.section	.text.CableTest_Complete_50ms_isr,"ax",%progbits
 619              		.align	2
 620              		.global	CableTest_Complete_50ms_isr
 621              		.thumb
 622              		.thumb_func
 623              		.type	CableTest_Complete_50ms_isr, %function
 624              	CableTest_Complete_50ms_isr:
 625              	.LFB66:
 698:ControllerCableTest_Complete.c **** 
 699:ControllerCableTest_Complete.c **** void CableTest_Complete_50ms_isr(void)
 700:ControllerCableTest_Complete.c **** {
 626              		.loc 1 700 0
 627              		.cfi_startproc
 628              		@ args = 0, pretend = 0, frame = 0
 629              		@ frame_needed = 1, uses_anonymous_args = 0
 630 0000 80B5     		push	{r7, lr}
 631              		.cfi_def_cfa_offset 8
 632              		.cfi_offset 7, -8
 633              		.cfi_offset 14, -4
 634 0002 00AF     		add	r7, sp, #0
 635              		.cfi_def_cfa_register 7
 701:ControllerCableTest_Complete.c ****     
 702:ControllerCableTest_Complete.c ****     CableTest_Complete_sendDiagPacket();                             // Send diagnostic packet to t
 636              		.loc 1 702 0
 637 0004 FFF7FEFF 		bl	CableTest_Complete_sendDiagPacket
 703:ControllerCableTest_Complete.c **** //    pRxPacket_Controller = getRxPacket_Controller();  
 704:ControllerCableTest_Complete.c **** //    UART_115200_WriteTxData(pRxPacket_Controller->Payload.PowerState + 48);
 705:ControllerCableTest_Complete.c **** //    UART_115200_WriteTxData('\r');
ARM GAS  C:\Users\MARTHN~1\AppData\Local\Temp\ccxS6aMg.s 			page 25


 706:ControllerCableTest_Complete.c **** //    UART_115200_WriteTxData('\n');
 707:ControllerCableTest_Complete.c ****     
 708:ControllerCableTest_Complete.c ****     
 709:ControllerCableTest_Complete.c ****     sendPacket_OBDII();
 638              		.loc 1 709 0
 639 0008 FFF7FEFF 		bl	sendPacket_OBDII
 710:ControllerCableTest_Complete.c **** 
 711:ControllerCableTest_Complete.c ****     if( (CurrentTest.TestStep == INITIALIZE_TEST) ||    // Send packet to controller if it applies 
 640              		.loc 1 711 0
 641 000c 064B     		ldr	r3, .L52
 642 000e 5B78     		ldrb	r3, [r3, #1]	@ zero_extendqisi2
 643 0010 002B     		cmp	r3, #0
 644 0012 03D0     		beq	.L48
 712:ControllerCableTest_Complete.c ****         (CurrentTest.TestStep == CONFIRM_BOOTUP) )      // This is just to test relay ignition sign
 645              		.loc 1 712 0 discriminator 1
 646 0014 044B     		ldr	r3, .L52
 647 0016 5B78     		ldrb	r3, [r3, #1]	@ zero_extendqisi2
 711:ControllerCableTest_Complete.c ****         (CurrentTest.TestStep == CONFIRM_BOOTUP) )      // This is just to test relay ignition sign
 648              		.loc 1 711 0 discriminator 1
 649 0018 012B     		cmp	r3, #1
 650 001a 02D1     		bne	.L51
 651              	.L48:
 713:ControllerCableTest_Complete.c ****         //(CurrentTest.TestStep == CONFIG_FILE) ||
 714:ControllerCableTest_Complete.c ****         //(CurrentTest.TestStep == PACKET_TO_CONTROLLER)
 715:ControllerCableTest_Complete.c ****                                                         
 716:ControllerCableTest_Complete.c ****     {      
 717:ControllerCableTest_Complete.c ****         //sendPacket_OBDII();
 718:ControllerCableTest_Complete.c ****         sendPacket_RelayToController();
 652              		.loc 1 718 0
 653 001c FFF7FEFF 		bl	sendPacket_RelayToController
 719:ControllerCableTest_Complete.c ****     }
 720:ControllerCableTest_Complete.c **** //    if( (CurrentTest.TestStep == LEDS_RGB) || (CurrentTest.TestStep == PASS) )
 721:ControllerCableTest_Complete.c **** //    {      
 722:ControllerCableTest_Complete.c **** //        //sendIgnition_OBDII();
 723:ControllerCableTest_Complete.c **** //        sendPacket_RelayToController_Test();
 724:ControllerCableTest_Complete.c **** //    }
 725:ControllerCableTest_Complete.c ****     
 726:ControllerCableTest_Complete.c ****     return;    
 654              		.loc 1 726 0
 655 0020 00BF     		nop
 656              	.L51:
 657 0022 00BF     		nop
 727:ControllerCableTest_Complete.c ****     
 728:ControllerCableTest_Complete.c **** }
 658              		.loc 1 728 0
 659 0024 80BD     		pop	{r7, pc}
 660              	.L53:
 661 0026 00BF     		.align	2
 662              	.L52:
 663 0028 00000000 		.word	CurrentTest
 664              		.cfi_endproc
 665              	.LFE66:
 666              		.size	CableTest_Complete_50ms_isr, .-CableTest_Complete_50ms_isr
 667              		.section	.text.CableTest_Complete_StartAutomatedStep,"ax",%progbits
 668              		.align	2
 669              		.global	CableTest_Complete_StartAutomatedStep
 670              		.thumb
ARM GAS  C:\Users\MARTHN~1\AppData\Local\Temp\ccxS6aMg.s 			page 26


 671              		.thumb_func
 672              		.type	CableTest_Complete_StartAutomatedStep, %function
 673              	CableTest_Complete_StartAutomatedStep:
 674              	.LFB67:
 729:ControllerCableTest_Complete.c **** 
 730:ControllerCableTest_Complete.c **** void CableTest_Complete_StartAutomatedStep(void)
 731:ControllerCableTest_Complete.c **** {
 675              		.loc 1 731 0
 676              		.cfi_startproc
 677              		@ args = 0, pretend = 0, frame = 0
 678              		@ frame_needed = 1, uses_anonymous_args = 0
 679              		@ link register save eliminated.
 680 0000 80B4     		push	{r7}
 681              		.cfi_def_cfa_offset 4
 682              		.cfi_offset 7, -4
 683 0002 00AF     		add	r7, sp, #0
 684              		.cfi_def_cfa_register 7
 732:ControllerCableTest_Complete.c ****     
 733:ControllerCableTest_Complete.c ****     CableTest_CompleteStatus[CurrentTest.TestStep] = 'B';
 685              		.loc 1 733 0
 686 0004 094B     		ldr	r3, .L56
 687 0006 5B78     		ldrb	r3, [r3, #1]	@ zero_extendqisi2
 688 0008 1A46     		mov	r2, r3
 689 000a 094B     		ldr	r3, .L56+4
 690 000c 4221     		movs	r1, #66
 691 000e 9954     		strb	r1, [r3, r2]
 734:ControllerCableTest_Complete.c ****     CurrentTest.Status = 'B';
 692              		.loc 1 734 0
 693 0010 064B     		ldr	r3, .L56
 694 0012 4222     		movs	r2, #66
 695 0014 9A70     		strb	r2, [r3, #2]
 735:ControllerCableTest_Complete.c ****     
 736:ControllerCableTest_Complete.c ****     CableTest_20ms_isr_count = 0;
 696              		.loc 1 736 0
 697 0016 074B     		ldr	r3, .L56+8
 698 0018 0022     		movs	r2, #0
 699 001a 1A80     		strh	r2, [r3]	@ movhi
 737:ControllerCableTest_Complete.c ****     CableTest_20ms_isr_EN = 1;
 700              		.loc 1 737 0
 701 001c 064B     		ldr	r3, .L56+12
 702 001e 0122     		movs	r2, #1
 703 0020 1A80     		strh	r2, [r3]	@ movhi
 738:ControllerCableTest_Complete.c ****     
 739:ControllerCableTest_Complete.c ****     return;
 704              		.loc 1 739 0
 705 0022 00BF     		nop
 740:ControllerCableTest_Complete.c ****     
 741:ControllerCableTest_Complete.c **** }
 706              		.loc 1 741 0
 707 0024 BD46     		mov	sp, r7
 708              		.cfi_def_cfa_register 13
 709              		@ sp needed
 710 0026 80BC     		pop	{r7}
 711              		.cfi_restore 7
 712              		.cfi_def_cfa_offset 0
 713 0028 7047     		bx	lr
 714              	.L57:
ARM GAS  C:\Users\MARTHN~1\AppData\Local\Temp\ccxS6aMg.s 			page 27


 715 002a 00BF     		.align	2
 716              	.L56:
 717 002c 00000000 		.word	CurrentTest
 718 0030 D4000000 		.word	CableTest_CompleteStatus
 719 0034 CC000000 		.word	CableTest_20ms_isr_count
 720 0038 CE000000 		.word	CableTest_20ms_isr_EN
 721              		.cfi_endproc
 722              	.LFE67:
 723              		.size	CableTest_Complete_StartAutomatedStep, .-CableTest_Complete_StartAutomatedStep
 724              		.section	.text.CableTest_Complete_StopAutomatedStep,"ax",%progbits
 725              		.align	2
 726              		.global	CableTest_Complete_StopAutomatedStep
 727              		.thumb
 728              		.thumb_func
 729              		.type	CableTest_Complete_StopAutomatedStep, %function
 730              	CableTest_Complete_StopAutomatedStep:
 731              	.LFB68:
 742:ControllerCableTest_Complete.c **** 
 743:ControllerCableTest_Complete.c **** void CableTest_Complete_StopAutomatedStep(void)
 744:ControllerCableTest_Complete.c **** {
 732              		.loc 1 744 0
 733              		.cfi_startproc
 734              		@ args = 0, pretend = 0, frame = 0
 735              		@ frame_needed = 1, uses_anonymous_args = 0
 736              		@ link register save eliminated.
 737 0000 80B4     		push	{r7}
 738              		.cfi_def_cfa_offset 4
 739              		.cfi_offset 7, -4
 740 0002 00AF     		add	r7, sp, #0
 741              		.cfi_def_cfa_register 7
 745:ControllerCableTest_Complete.c ****     
 746:ControllerCableTest_Complete.c ****     CableTest_20ms_isr_EN = 0;
 742              		.loc 1 746 0
 743 0004 0B4B     		ldr	r3, .L62
 744 0006 0022     		movs	r2, #0
 745 0008 1A80     		strh	r2, [r3]	@ movhi
 747:ControllerCableTest_Complete.c ****     if(CableTest_CompleteStatus[CurrentTest.TestStep] != 'F')       // If not failed, then pass
 746              		.loc 1 747 0
 747 000a 0B4B     		ldr	r3, .L62+4
 748 000c 5B78     		ldrb	r3, [r3, #1]	@ zero_extendqisi2
 749 000e 1A46     		mov	r2, r3
 750 0010 0A4B     		ldr	r3, .L62+8
 751 0012 9B5C     		ldrb	r3, [r3, r2]	@ zero_extendqisi2
 752 0014 462B     		cmp	r3, #70
 753 0016 09D0     		beq	.L61
 748:ControllerCableTest_Complete.c ****     {
 749:ControllerCableTest_Complete.c ****         CableTest_CompleteStatus[CurrentTest.TestStep] = 'P';
 754              		.loc 1 749 0
 755 0018 074B     		ldr	r3, .L62+4
 756 001a 5B78     		ldrb	r3, [r3, #1]	@ zero_extendqisi2
 757 001c 1A46     		mov	r2, r3
 758 001e 074B     		ldr	r3, .L62+8
 759 0020 5021     		movs	r1, #80
 760 0022 9954     		strb	r1, [r3, r2]
 750:ControllerCableTest_Complete.c ****         CurrentTest.Status = 'P';
 761              		.loc 1 750 0
 762 0024 044B     		ldr	r3, .L62+4
ARM GAS  C:\Users\MARTHN~1\AppData\Local\Temp\ccxS6aMg.s 			page 28


 763 0026 5022     		movs	r2, #80
 764 0028 9A70     		strb	r2, [r3, #2]
 751:ControllerCableTest_Complete.c ****     }
 752:ControllerCableTest_Complete.c ****     
 753:ControllerCableTest_Complete.c ****     return;
 765              		.loc 1 753 0
 766 002a 00BF     		nop
 767              	.L61:
 768 002c 00BF     		nop
 754:ControllerCableTest_Complete.c ****     
 755:ControllerCableTest_Complete.c **** }
 769              		.loc 1 755 0
 770 002e BD46     		mov	sp, r7
 771              		.cfi_def_cfa_register 13
 772              		@ sp needed
 773 0030 80BC     		pop	{r7}
 774              		.cfi_restore 7
 775              		.cfi_def_cfa_offset 0
 776 0032 7047     		bx	lr
 777              	.L63:
 778              		.align	2
 779              	.L62:
 780 0034 CE000000 		.word	CableTest_20ms_isr_EN
 781 0038 00000000 		.word	CurrentTest
 782 003c D4000000 		.word	CableTest_CompleteStatus
 783              		.cfi_endproc
 784              	.LFE68:
 785              		.size	CableTest_Complete_StopAutomatedStep, .-CableTest_Complete_StopAutomatedStep
 786              		.bss
 787 00d9 000000   		.align	2
 788              	CTestStatus_display.7435:
 789 00dc 00000000 		.space	10
 789      00000000 
 789      0000
 790              		.text
 791              	.Letext0:
 792              		.file 2 "c:\\program files (x86)\\cypress\\psoc creator\\4.3\\psoc creator\\import\\gnu\\arm\\5.4.
 793              		.file 3 "c:\\program files (x86)\\cypress\\psoc creator\\4.3\\psoc creator\\import\\gnu\\arm\\5.4.
 794              		.file 4 "Generated_Source\\PSoC5/cytypes.h"
 795              		.file 5 "CommonVariables.h"
 796              		.file 6 "UART_460800_Functions.h"
 797              		.file 7 "UART_230400_Functions.h"
 798              		.file 8 "Generated_Source\\PSoC5/core_cm3.h"