ARM GAS  C:\Users\MARTHN~1\AppData\Local\Temp\cc34Bihf.s 			page 1


   1              		.syntax unified
   2              		.cpu cortex-m3
   3              		.fpu softvfp
   4              		.eabi_attribute 20, 1
   5              		.eabi_attribute 21, 1
   6              		.eabi_attribute 23, 3
   7              		.eabi_attribute 24, 1
   8              		.eabi_attribute 25, 1
   9              		.eabi_attribute 26, 1
  10              		.eabi_attribute 30, 6
  11              		.eabi_attribute 34, 1
  12              		.eabi_attribute 18, 4
  13              		.thumb
  14              		.syntax unified
  15              		.file	"ControllerTest_Complete.c"
  16              		.text
  17              	.Ltext0:
  18              		.cfi_sections	.debug_frame
  19              		.comm	Test,3,4
  20              		.bss
  21              		.align	2
  22              	rxPacket_Controller:
  23 0000 00000000 		.space	79
  23      00000000 
  23      00000000 
  23      00000000 
  23      00000000 
  24 004f 00       		.align	2
  25              	pRxPacket_Controller:
  26 0050 00000000 		.space	4
  27              		.align	2
  28              	txPacket_Controller:
  29 0054 00000000 		.space	15
  29      00000000 
  29      00000000 
  29      000000
  30 0063 00       		.align	2
  31              	pTxPacket_Controller:
  32 0064 00000000 		.space	4
  33              		.align	2
  34              	txPacket_Relay:
  35 0068 00000000 		.space	80
  35      00000000 
  35      00000000 
  35      00000000 
  35      00000000 
  36              		.align	2
  37              	pTxPacket_Relay:
  38 00b8 00000000 		.space	4
  39              		.align	2
  40              	txPacket_Intermotive:
  41 00bc 00000000 		.space	9
  41      00000000 
  41      00
  42 00c5 000000   		.align	2
  43              	pTxPacket_Intermotive:
  44 00c8 00000000 		.space	4
ARM GAS  C:\Users\MARTHN~1\AppData\Local\Temp\cc34Bihf.s 			page 2


  45              		.align	1
  46              	CTest_20ms_isr_count:
  47 00cc 0000     		.space	2
  48              		.align	1
  49              	CTest_20ms_isr_EN:
  50 00ce 0000     		.space	2
  51              	PB_NextAction_Pressed:
  52 00d0 00       		.space	1
  53              	PB_NextAction_Released:
  54 00d1 00       		.space	1
  55              		.data
  56              		.align	2
  57              		.type	CTest_Complete_TimeoutCount, %object
  58              		.size	CTest_Complete_TimeoutCount, 16
  59              	CTest_Complete_TimeoutCount:
  60 0000 3200     		.short	50
  61 0002 D007     		.short	2000
  62 0004 6400     		.short	100
  63 0006 3200     		.short	50
  64 0008 6400     		.short	100
  65 000a 3200     		.short	50
  66 000c 3200     		.short	50
  67 000e 3200     		.short	50
  68              		.bss
  69 00d2 0000     		.align	2
  70              	CTest_CompleteStatus:
  71 00d4 00000000 		.space	8
  71      00000000 
  72              		.section	.text.ControllerTest_Complete,"ax",%progbits
  73              		.align	2
  74              		.global	ControllerTest_Complete
  75              		.thumb
  76              		.thumb_func
  77              		.type	ControllerTest_Complete, %function
  78              	ControllerTest_Complete:
  79              	.LFB63:
  80              		.file 1 "ControllerTest_Complete.c"
   1:ControllerTest_Complete.c **** /* ========================================
   2:ControllerTest_Complete.c ****  *
   3:ControllerTest_Complete.c ****  * Copyright YOUR COMPANY, THE YEAR
   4:ControllerTest_Complete.c ****  * All Rights Reserved
   5:ControllerTest_Complete.c ****  * UNPUBLISHED, LICENSED SOFTWARE.
   6:ControllerTest_Complete.c ****  *
   7:ControllerTest_Complete.c ****  * CONFIDENTIAL AND PROPRIETARY INFORMATION
   8:ControllerTest_Complete.c ****  * WHICH IS THE PROPERTY OF your company.
   9:ControllerTest_Complete.c ****  *
  10:ControllerTest_Complete.c ****  * ========================================
  11:ControllerTest_Complete.c **** */
  12:ControllerTest_Complete.c **** 
  13:ControllerTest_Complete.c **** /* F1-Controller Test ***********************************************************
  14:ControllerTest_Complete.c **** *  - Designed to test a F1-Controller PCBA with a SOM installed (w OS and image)   
  15:ControllerTest_Complete.c **** *  - Requires a configfile (for Desktop Software) that consists of:
  16:ControllerTest_Complete.c **** *       - PB 1-16 turn on Outputs 1-16 (toggle)
  17:ControllerTest_Complete.c **** *       - PB 1 sends Quad packet (any packet)
  18:ControllerTest_Complete.c **** *       - OBDII turns on Output 32
  19:ControllerTest_Complete.c **** *********************************************************************************/
  20:ControllerTest_Complete.c **** 
ARM GAS  C:\Users\MARTHN~1\AppData\Local\Temp\cc34Bihf.s 			page 3


  21:ControllerTest_Complete.c **** #include <project.h>
  22:ControllerTest_Complete.c **** #include "CommonVariables.h"
  23:ControllerTest_Complete.c **** #include "ControllerTest.h"
  24:ControllerTest_Complete.c **** #include "UART_460800_Functions.h"
  25:ControllerTest_Complete.c **** #include "UART_230400_Functions.h"
  26:ControllerTest_Complete.c **** 
  27:ControllerTest_Complete.c **** #define DEBOUNCE_COUNT      2           // (5 * 20msec)
  28:ControllerTest_Complete.c **** #define CONFIRM_TIME        100
  29:ControllerTest_Complete.c **** 
  30:ControllerTest_Complete.c **** 
  31:ControllerTest_Complete.c **** static RxPacket_Controller rxPacket_Controller;         // 'I' (includes 'P') packet (controller to
  32:ControllerTest_Complete.c **** static RxPacket_Controller * pRxPacket_Controller;
  33:ControllerTest_Complete.c **** 
  34:ControllerTest_Complete.c **** static TxPacket_Controller txPacket_Controller;         // 'D' packet (relay to controller) - Initi
  35:ControllerTest_Complete.c **** static TxPacket_Controller * pTxPacket_Controller;
  36:ControllerTest_Complete.c **** 
  37:ControllerTest_Complete.c **** static TxPacket_RelaySiren txPacket_Relay;              // 'I' packet (relay to controller) - LEDS_
  38:ControllerTest_Complete.c **** static TxPacket_RelaySiren * pTxPacket_Relay;
  39:ControllerTest_Complete.c **** 
  40:ControllerTest_Complete.c **** static TxPacket_Intermotive txPacket_Intermotive;       // Intermotive Packet - for ignition and OB
  41:ControllerTest_Complete.c **** static TxPacket_Intermotive * pTxPacket_Intermotive;    // 
  42:ControllerTest_Complete.c **** 
  43:ControllerTest_Complete.c **** 
  44:ControllerTest_Complete.c **** static uint16 CTest_20ms_isr_count = 0;         // Test step timeout variables
  45:ControllerTest_Complete.c **** static uint16 CTest_20ms_isr_EN = 0;
  46:ControllerTest_Complete.c **** 
  47:ControllerTest_Complete.c **** static uint8 PB_NextAction_Pressed = 0;         // Pushbutton 
  48:ControllerTest_Complete.c **** static uint8 PB_NextAction_Released = 0;
  49:ControllerTest_Complete.c **** 
  50:ControllerTest_Complete.c **** enum LEDColor
  51:ControllerTest_Complete.c **** { 
  52:ControllerTest_Complete.c ****     RED,       
  53:ControllerTest_Complete.c ****     BLUE,  
  54:ControllerTest_Complete.c ****     GREEN,
  55:ControllerTest_Complete.c ****     OFF
  56:ControllerTest_Complete.c **** };
  57:ControllerTest_Complete.c **** 
  58:ControllerTest_Complete.c **** 
  59:ControllerTest_Complete.c **** enum DATA_TYPE_460800
  60:ControllerTest_Complete.c **** { 
  61:ControllerTest_Complete.c ****     CTEST_AUDIO,        // This is for both cont and relay tests
  62:ControllerTest_Complete.c ****     CTEST_RTEST_QUAD   // CTest/RTest - quad normal - (controller to relay, relay to quad)
  63:ControllerTest_Complete.c **** //    CTEST_A,            //*** needs to  (*** not used - only need to look for 'L' packet)
  64:ControllerTest_Complete.c **** //    QTEST_QUAD          // (*** not used - Quad-Controller packets - type 'C')
  65:ControllerTest_Complete.c **** };
  66:ControllerTest_Complete.c **** 
  67:ControllerTest_Complete.c **** enum MUX_460800_CHANNEL
  68:ControllerTest_Complete.c **** { 
  69:ControllerTest_Complete.c ****     CTEST_QUAD,  
  70:ControllerTest_Complete.c ****     CTEST_AUDIOSTREAM,
  71:ControllerTest_Complete.c ****     //QTEST_QUAD             
  72:ControllerTest_Complete.c **** };
  73:ControllerTest_Complete.c **** enum DEMUX_460800_CHANNEL
  74:ControllerTest_Complete.c **** { 
  75:ControllerTest_Complete.c ****     CTEST_OBDII_TX,       
  76:ControllerTest_Complete.c ****     RTEST_QUAD_TX,       
  77:ControllerTest_Complete.c ****     STEST_AUDIO_TX,
ARM GAS  C:\Users\MARTHN~1\AppData\Local\Temp\cc34Bihf.s 			page 4


  78:ControllerTest_Complete.c **** };
  79:ControllerTest_Complete.c **** 
  80:ControllerTest_Complete.c **** enum MUX_DEMUX_230400_CHANNEL              
  81:ControllerTest_Complete.c **** { 
  82:ControllerTest_Complete.c ****     CTEST_RELAY, 
  83:ControllerTest_Complete.c ****     RTEST_CONT,
  84:ControllerTest_Complete.c ****     RTEST_SIREN,
  85:ControllerTest_Complete.c ****     STEST_RELAY            
  86:ControllerTest_Complete.c **** };
  87:ControllerTest_Complete.c **** 
  88:ControllerTest_Complete.c **** // --------------Test steps---------------
  89:ControllerTest_Complete.c **** #define NUMBER_TEST_STEPS       8
  90:ControllerTest_Complete.c **** static uint16 CTest_Complete_TimeoutCount[NUMBER_TEST_STEPS] = {50,2000,100,50,100,50,50,50};    //
  91:ControllerTest_Complete.c **** 
  92:ControllerTest_Complete.c **** static uint8 CTest_CompleteStatus[NUMBER_TEST_STEPS];
  93:ControllerTest_Complete.c **** 
  94:ControllerTest_Complete.c **** enum TestStep           
  95:ControllerTest_Complete.c **** { 
  96:ControllerTest_Complete.c ****     INITIALIZE_TEST,        // COMPLETE
  97:ControllerTest_Complete.c ****     CONFIRM_BOOTUP,         // COMPLETE
  98:ControllerTest_Complete.c ****     CONFIG_FILE,            // (unused - the config file does not need to be manually programmed)
  99:ControllerTest_Complete.c ****     TEST_POWERMODES,        // COMPLETE (***not testing usb power only)(resets pushbuttons) 
 100:ControllerTest_Complete.c ****     OBDII,                  // COMPLETE (configfile) (***this is already tested by using it for ign
 101:ControllerTest_Complete.c ****                         // Add the touchscreen and slideswitch stuff here
 102:ControllerTest_Complete.c ****     PUSHBUTTONS,            // COMPLETE (configfile)
 103:ControllerTest_Complete.c ****                         // Verify button beep with this step
 104:ControllerTest_Complete.c ****     QUAD_STREAM,            // COMPLETE (configfile)
 105:ControllerTest_Complete.c ****     //LEDS_RGB,               // *** remove this COMPLETE (***leds take up to 5 seconds to turn on)
 106:ControllerTest_Complete.c ****     //AUDIO_STREAM,           // (unused - not included)
 107:ControllerTest_Complete.c ****     //DEBUG_PORT,             // (unused - not included)
 108:ControllerTest_Complete.c ****     PASS                    // COMPLETE
 109:ControllerTest_Complete.c **** };
 110:ControllerTest_Complete.c **** 
 111:ControllerTest_Complete.c **** 
 112:ControllerTest_Complete.c **** //static uint8 CTest_CompleteStatus[NUMBER_TEST_STEPS];
 113:ControllerTest_Complete.c **** 
 114:ControllerTest_Complete.c **** uint8 ControllerTest_Complete(void)
 115:ControllerTest_Complete.c **** {
  81              		.loc 1 115 0
  82              		.cfi_startproc
  83              		@ args = 0, pretend = 0, frame = 8
  84              		@ frame_needed = 1, uses_anonymous_args = 0
  85 0000 80B5     		push	{r7, lr}
  86              		.cfi_def_cfa_offset 8
  87              		.cfi_offset 7, -8
  88              		.cfi_offset 14, -4
  89 0002 82B0     		sub	sp, sp, #8
  90              		.cfi_def_cfa_offset 16
  91 0004 00AF     		add	r7, sp, #0
  92              		.cfi_def_cfa_register 7
 116:ControllerTest_Complete.c ****     
 117:ControllerTest_Complete.c ****     switch(CurrentTest.TestStep)
  93              		.loc 1 117 0
  94 0006 A74B     		ldr	r3, .L45
  95 0008 5B78     		ldrb	r3, [r3, #1]	@ zero_extendqisi2
  96 000a 072B     		cmp	r3, #7
  97 000c 00F2AB81 		bhi	.L2
ARM GAS  C:\Users\MARTHN~1\AppData\Local\Temp\cc34Bihf.s 			page 5


  98 0010 01A2     		adr	r2, .L4
  99 0012 52F823F0 		ldr	pc, [r2, r3, lsl #2]
 100 0016 00BF     		.p2align 2
 101              	.L4:
 102 0018 39000000 		.word	.L3+1
 103 001c 7F000000 		.word	.L5+1
 104 0020 DF000000 		.word	.L6+1
 105 0024 FF000000 		.word	.L7+1
 106 0028 D5010000 		.word	.L8+1
 107 002c 33020000 		.word	.L9+1
 108 0030 B5020000 		.word	.L10+1
 109 0034 03030000 		.word	.L11+1
 110              		.p2align 1
 111              	.L3:
 118:ControllerTest_Complete.c ****     {   
 119:ControllerTest_Complete.c ****        
 120:ControllerTest_Complete.c ****         case INITIALIZE_TEST:
 121:ControllerTest_Complete.c ****         
 122:ControllerTest_Complete.c ****             CTest_CONT_VBATT_EN_Write(1);                           // Enable Vbatt power to contro
 112              		.loc 1 122 0
 113 0038 0120     		movs	r0, #1
 114 003a FFF7FEFF 		bl	CTest_CONT_VBATT_EN_Write
 123:ControllerTest_Complete.c ****             CTest_USB_5V_EN_Write(0);
 115              		.loc 1 123 0
 116 003e 0020     		movs	r0, #0
 117 0040 FFF7FEFF 		bl	CTest_USB_5V_EN_Write
 118              	.LBB2:
 124:ControllerTest_Complete.c **** 
 125:ControllerTest_Complete.c ****             for (uint8 i=0;i<NUMBER_TEST_STEPS;i++)                 // Reset Status of aall test st
 119              		.loc 1 125 0
 120 0044 0023     		movs	r3, #0
 121 0046 FB71     		strb	r3, [r7, #7]
 122 0048 06E0     		b	.L12
 123              	.L13:
 126:ControllerTest_Complete.c ****                 CTest_CompleteStatus[i] = '_';
 124              		.loc 1 126 0 discriminator 3
 125 004a FB79     		ldrb	r3, [r7, #7]	@ zero_extendqisi2
 126 004c 964A     		ldr	r2, .L45+4
 127 004e 5F21     		movs	r1, #95
 128 0050 D154     		strb	r1, [r2, r3]
 125:ControllerTest_Complete.c ****                 CTest_CompleteStatus[i] = '_';
 129              		.loc 1 125 0 discriminator 3
 130 0052 FB79     		ldrb	r3, [r7, #7]	@ zero_extendqisi2
 131 0054 0133     		adds	r3, r3, #1
 132 0056 FB71     		strb	r3, [r7, #7]
 133              	.L12:
 125:ControllerTest_Complete.c ****                 CTest_CompleteStatus[i] = '_';
 134              		.loc 1 125 0 is_stmt 0 discriminator 1
 135 0058 FB79     		ldrb	r3, [r7, #7]	@ zero_extendqisi2
 136 005a 072B     		cmp	r3, #7
 137 005c F5D9     		bls	.L13
 138              	.LBE2:
 127:ControllerTest_Complete.c ****             
 128:ControllerTest_Complete.c ****             CTest_CompleteStatus[CurrentTest.TestStep] = 'I';
 139              		.loc 1 128 0 is_stmt 1
 140 005e 914B     		ldr	r3, .L45
 141 0060 5B78     		ldrb	r3, [r3, #1]	@ zero_extendqisi2
ARM GAS  C:\Users\MARTHN~1\AppData\Local\Temp\cc34Bihf.s 			page 6


 142 0062 1A46     		mov	r2, r3
 143 0064 904B     		ldr	r3, .L45+4
 144 0066 4921     		movs	r1, #73
 145 0068 9954     		strb	r1, [r3, r2]
 129:ControllerTest_Complete.c ****             CurrentTest.Status = 'I';
 146              		.loc 1 129 0
 147 006a 8E4B     		ldr	r3, .L45
 148 006c 4922     		movs	r2, #73
 149 006e 9A70     		strb	r2, [r3, #2]
 130:ControllerTest_Complete.c **** 
 131:ControllerTest_Complete.c ****             CyDelay(CONFIRM_TIME);
 150              		.loc 1 131 0
 151 0070 6420     		movs	r0, #100
 152 0072 FFF7FEFF 		bl	CyDelay
 132:ControllerTest_Complete.c ****             
 133:ControllerTest_Complete.c **** //            CTestStatus[CurrentTest.TestStep] = 'P';
 134:ControllerTest_Complete.c **** //            CurrentTest.Status = 'P';
 135:ControllerTest_Complete.c ****       
 136:ControllerTest_Complete.c ****             //CurrentTest.TestStep = INITIALIZE_TEST;
 137:ControllerTest_Complete.c ****             CurrentTest.TestStep = CONFIRM_BOOTUP;
 153              		.loc 1 137 0
 154 0076 8B4B     		ldr	r3, .L45
 155 0078 0122     		movs	r2, #1
 156 007a 5A70     		strb	r2, [r3, #1]
 138:ControllerTest_Complete.c ****             //CurrentTest.TestStep = TEST_POWERMODES;
 139:ControllerTest_Complete.c ****             //CurrentTest.TestStep = DEBUG_PORT;
 140:ControllerTest_Complete.c ****             //CurrentTest.TestStep = QUAD_STREAM;
 141:ControllerTest_Complete.c ****             //CurrentTest.TestStep = AUDIO_STREAM;
 142:ControllerTest_Complete.c ****             //CurrentTest.TestStep = OBDII;     
 143:ControllerTest_Complete.c ****             //CurrentTest.TestStep = LEDS_RGB;
 144:ControllerTest_Complete.c ****             //CurrentTest.TestStep = PUSHBUTTONS;
 145:ControllerTest_Complete.c ****         
 146:ControllerTest_Complete.c ****         break;
 157              		.loc 1 146 0
 158 007c 73E1     		b	.L2
 159              	.L5:
 147:ControllerTest_Complete.c ****         
 148:ControllerTest_Complete.c ****         case CONFIRM_BOOTUP:
 149:ControllerTest_Complete.c ****         
 150:ControllerTest_Complete.c ****             CTest_Complete_StartAutomatedStep();
 160              		.loc 1 150 0
 161 007e FFF7FEFF 		bl	CTest_Complete_StartAutomatedStep
 151:ControllerTest_Complete.c **** 
 152:ControllerTest_Complete.c ****             MUX_CTRL_230400_Write(CTEST_RELAY);
 162              		.loc 1 152 0
 163 0082 0020     		movs	r0, #0
 164 0084 FFF7FEFF 		bl	MUX_CTRL_230400_Write
 153:ControllerTest_Complete.c **** 
 154:ControllerTest_Complete.c ****             while( (!VerifyPacket_230400(CTEST_RELAY)) && (CTest_CompleteStatus[CurrentTest.TestSte
 165              		.loc 1 154 0
 166 0088 00BF     		nop
 167              	.L15:
 168              		.loc 1 154 0 is_stmt 0 discriminator 2
 169 008a 0020     		movs	r0, #0
 170 008c FFF7FEFF 		bl	VerifyPacket_230400
 171 0090 0346     		mov	r3, r0
 172 0092 002B     		cmp	r3, #0
ARM GAS  C:\Users\MARTHN~1\AppData\Local\Temp\cc34Bihf.s 			page 7


 173 0094 06D1     		bne	.L14
 174              		.loc 1 154 0 discriminator 1
 175 0096 834B     		ldr	r3, .L45
 176 0098 5B78     		ldrb	r3, [r3, #1]	@ zero_extendqisi2
 177 009a 1A46     		mov	r2, r3
 178 009c 824B     		ldr	r3, .L45+4
 179 009e 9B5C     		ldrb	r3, [r3, r2]	@ zero_extendqisi2
 180 00a0 462B     		cmp	r3, #70
 181 00a2 F2D1     		bne	.L15
 182              	.L14:
 155:ControllerTest_Complete.c ****             {} 
 156:ControllerTest_Complete.c ****             
 157:ControllerTest_Complete.c ****             CTest_Complete_StopAutomatedStep();
 183              		.loc 1 157 0 is_stmt 1
 184 00a4 FFF7FEFF 		bl	CTest_Complete_StopAutomatedStep
 158:ControllerTest_Complete.c ****             
 159:ControllerTest_Complete.c ****             pTxPacket_Intermotive = getTxPacket_Intermotive();   // Send ignition on signal (OBDII)
 185              		.loc 1 159 0
 186 00a8 FFF7FEFF 		bl	getTxPacket_Intermotive
 187 00ac 0246     		mov	r2, r0
 188 00ae 7F4B     		ldr	r3, .L45+8
 189 00b0 1A60     		str	r2, [r3]
 160:ControllerTest_Complete.c ****             pTxPacket_Intermotive->Payload.Data5 = 0x02; 
 190              		.loc 1 160 0
 191 00b2 7E4B     		ldr	r3, .L45+8
 192 00b4 1B68     		ldr	r3, [r3]
 193 00b6 0222     		movs	r2, #2
 194 00b8 5A71     		strb	r2, [r3, #5]
 161:ControllerTest_Complete.c ****             
 162:ControllerTest_Complete.c ****             CyDelay(CONFIRM_TIME);
 195              		.loc 1 162 0
 196 00ba 6420     		movs	r0, #100
 197 00bc FFF7FEFF 		bl	CyDelay
 163:ControllerTest_Complete.c ****             
 164:ControllerTest_Complete.c ****             if(CTest_CompleteStatus[CurrentTest.TestStep] == 'F')
 198              		.loc 1 164 0
 199 00c0 784B     		ldr	r3, .L45
 200 00c2 5B78     		ldrb	r3, [r3, #1]	@ zero_extendqisi2
 201 00c4 1A46     		mov	r2, r3
 202 00c6 784B     		ldr	r3, .L45+4
 203 00c8 9B5C     		ldrb	r3, [r3, r2]	@ zero_extendqisi2
 204 00ca 462B     		cmp	r3, #70
 205 00cc 03D1     		bne	.L16
 165:ControllerTest_Complete.c ****             {
 166:ControllerTest_Complete.c ****                 CurrentTest.TestStep = PASS;
 206              		.loc 1 166 0
 207 00ce 754B     		ldr	r3, .L45
 208 00d0 0722     		movs	r2, #7
 209 00d2 5A70     		strb	r2, [r3, #1]
 167:ControllerTest_Complete.c ****             }
 168:ControllerTest_Complete.c ****             else
 169:ControllerTest_Complete.c ****             {
 170:ControllerTest_Complete.c ****                 //CurrentTest.TestStep = INITIALIZE_TEST;
 171:ControllerTest_Complete.c ****                 CurrentTest.TestStep = CONFIG_FILE;
 172:ControllerTest_Complete.c ****                 //CurrentTest.TestStep = TEST_POWERMODES;
 173:ControllerTest_Complete.c ****                 //CurrentTest.TestStep = QUAD_STREAM;
 174:ControllerTest_Complete.c ****                 //CurrentTest.TestStep = LEDS_RGB;
ARM GAS  C:\Users\MARTHN~1\AppData\Local\Temp\cc34Bihf.s 			page 8


 175:ControllerTest_Complete.c ****             }
 176:ControllerTest_Complete.c ****         
 177:ControllerTest_Complete.c ****         break;
 210              		.loc 1 177 0
 211 00d4 47E1     		b	.L2
 212              	.L16:
 171:ControllerTest_Complete.c ****                 //CurrentTest.TestStep = TEST_POWERMODES;
 213              		.loc 1 171 0
 214 00d6 734B     		ldr	r3, .L45
 215 00d8 0222     		movs	r2, #2
 216 00da 5A70     		strb	r2, [r3, #1]
 217              		.loc 1 177 0
 218 00dc 43E1     		b	.L2
 219              	.L6:
 178:ControllerTest_Complete.c ****             
 179:ControllerTest_Complete.c ****         case CONFIG_FILE:   // configfile is already programmed to the SOM by default
 180:ControllerTest_Complete.c ****             
 181:ControllerTest_Complete.c ****             CTest_CompleteStatus[CurrentTest.TestStep] = 'U';           
 220              		.loc 1 181 0
 221 00de 714B     		ldr	r3, .L45
 222 00e0 5B78     		ldrb	r3, [r3, #1]	@ zero_extendqisi2
 223 00e2 1A46     		mov	r2, r3
 224 00e4 704B     		ldr	r3, .L45+4
 225 00e6 5521     		movs	r1, #85
 226 00e8 9954     		strb	r1, [r3, r2]
 182:ControllerTest_Complete.c ****             CurrentTest.Status = 'U'; 
 227              		.loc 1 182 0
 228 00ea 6E4B     		ldr	r3, .L45
 229 00ec 5522     		movs	r2, #85
 230 00ee 9A70     		strb	r2, [r3, #2]
 183:ControllerTest_Complete.c **** //            pTxPacket_Intermotive = getTxPacket_Intermotive();   // Send ignition on signal (OBDI
 184:ControllerTest_Complete.c **** //            pTxPacket_Intermotive->Payload.Data5 = 0x02; 
 185:ControllerTest_Complete.c **** //            CTest_PB_WaitForAction();
 186:ControllerTest_Complete.c ****  
 187:ControllerTest_Complete.c ****             CyDelay(CONFIRM_TIME);
 231              		.loc 1 187 0
 232 00f0 6420     		movs	r0, #100
 233 00f2 FFF7FEFF 		bl	CyDelay
 188:ControllerTest_Complete.c ****             
 189:ControllerTest_Complete.c ****             //CurrentTest.TestStep = INITIALIZE_TEST;                   
 190:ControllerTest_Complete.c ****             CurrentTest.TestStep = TEST_POWERMODES;
 234              		.loc 1 190 0
 235 00f6 6B4B     		ldr	r3, .L45
 236 00f8 0322     		movs	r2, #3
 237 00fa 5A70     		strb	r2, [r3, #1]
 191:ControllerTest_Complete.c ****             //CurrentTest.TestStep = QUAD_STREAM;
 192:ControllerTest_Complete.c ****             //CurrentTest.TestStep = LEDS_RGB;
 193:ControllerTest_Complete.c ****         
 194:ControllerTest_Complete.c ****         break;
 238              		.loc 1 194 0
 239 00fc 33E1     		b	.L2
 240              	.L7:
 195:ControllerTest_Complete.c ****         
 196:ControllerTest_Complete.c ****         case TEST_POWERMODES:  // Test Vbatt detect and USB detect
 197:ControllerTest_Complete.c **** 
 198:ControllerTest_Complete.c ****             MUX_CTRL_230400_Write(CTEST_RELAY);
 241              		.loc 1 198 0
ARM GAS  C:\Users\MARTHN~1\AppData\Local\Temp\cc34Bihf.s 			page 9


 242 00fe 0020     		movs	r0, #0
 243 0100 FFF7FEFF 		bl	MUX_CTRL_230400_Write
 199:ControllerTest_Complete.c ****             
 200:ControllerTest_Complete.c ****             pRxPacket_Controller = getRxPacket_Controller();        // 'I' packet - check powermode
 244              		.loc 1 200 0
 245 0104 FFF7FEFF 		bl	getRxPacket_Controller
 246 0108 0246     		mov	r2, r0
 247 010a 694B     		ldr	r3, .L45+12
 248 010c 1A60     		str	r2, [r3]
 201:ControllerTest_Complete.c ****             pTxPacket_Intermotive = getTxPacket_Intermotive();      // '1' packet - set ignition 
 249              		.loc 1 201 0
 250 010e FFF7FEFF 		bl	getTxPacket_Intermotive
 251 0112 0246     		mov	r2, r0
 252 0114 654B     		ldr	r3, .L45+8
 253 0116 1A60     		str	r2, [r3]
 202:ControllerTest_Complete.c ****             //pTxPacket_Controller = getTxPacket_Controller();      // 'D' packet - set ignition (n
 203:ControllerTest_Complete.c ****             
 204:ControllerTest_Complete.c **** //            //CTest_StartAutomatedStep();
 205:ControllerTest_Complete.c **** //            //CTest_PB_WaitForAction();
 206:ControllerTest_Complete.c **** //         
 207:ControllerTest_Complete.c **** //            /**** Live Power Mode (Normal Mode) - Vbatt-on, USB_5V-on, Ignition-on ***/
 208:ControllerTest_Complete.c **** //            CTest_CONT_VBATT_EN_Write(1);                   
 209:ControllerTest_Complete.c **** //            CTest_USB_5V_EN_Write(1);
 210:ControllerTest_Complete.c **** //            pTxPacket_Intermotive->Payload.Data5 = 0x02;
 211:ControllerTest_Complete.c **** ////            while( (pRxPacket_Controller->Payload.PowerState != 0x01) && (CTestStatus[CurrentTe
 212:ControllerTest_Complete.c **** ////            {}
 213:ControllerTest_Complete.c **** //            CyDelay(1000);
 214:ControllerTest_Complete.c **** //            CTest_PB_WaitForAction();
 215:ControllerTest_Complete.c **** //            
 216:ControllerTest_Complete.c **** ////            CTest_CONT_VBATT_EN_Write(1);                   
 217:ControllerTest_Complete.c **** ////            CTest_USB_5V_EN_Write(1);
 218:ControllerTest_Complete.c **** ////            pTxPacket_Intermotive->Payload.Data5 = 0x00;
 219:ControllerTest_Complete.c **** ////            CyDelay(1000);
 220:ControllerTest_Complete.c **** //
 221:ControllerTest_Complete.c **** //            /**** Low Power Mode (USB Power Only) - Vbatt-off, USB_5V-on, Ignition-off ***/
 222:ControllerTest_Complete.c **** //            CTest_CONT_VBATT_EN_Write(0);               
 223:ControllerTest_Complete.c **** //            CTest_USB_5V_EN_Write(1);
 224:ControllerTest_Complete.c **** //            pTxPacket_Intermotive->Payload.Data5 = 0x00;    
 225:ControllerTest_Complete.c **** ////            while( (pRxPacket_Controller->Payload.PowerState != 0x00) && (CTestStatus[CurrentTe
 226:ControllerTest_Complete.c **** ////            {}
 227:ControllerTest_Complete.c **** //            CyDelay(1000);             
 228:ControllerTest_Complete.c **** //            CTest_PB_WaitForAction();
 229:ControllerTest_Complete.c **** //            
 230:ControllerTest_Complete.c **** //            /**** Normal Power Mode - Vbatt-on, USB_5V-on, Ignition-on ***/
 231:ControllerTest_Complete.c **** //            CTest_CONT_VBATT_EN_Write(1);                                       
 232:ControllerTest_Complete.c **** //            CTest_USB_5V_EN_Write(1);
 233:ControllerTest_Complete.c **** //            pTxPacket_Intermotive->Payload.Data5 = 0x02;
 234:ControllerTest_Complete.c **** //            
 235:ControllerTest_Complete.c **** //            CyDelay(1000);   
 236:ControllerTest_Complete.c **** //            CTest_PB_WaitForAction();
 237:ControllerTest_Complete.c **** //            
 238:ControllerTest_Complete.c **** //            CTest_CONT_VBATT_EN_Write(1);                                    
 239:ControllerTest_Complete.c **** //            CTest_USB_5V_EN_Write(0);
 240:ControllerTest_Complete.c **** //            pTxPacket_Intermotive->Payload.Data5 = 0x02;
 241:ControllerTest_Complete.c **** ////            while( (pRxPacket_Controller->Payload.PowerState != 0x01) && (CTestStatus[CurrentTe
 242:ControllerTest_Complete.c **** ////            {}
 243:ControllerTest_Complete.c **** //            CyDelay(1000);
ARM GAS  C:\Users\MARTHN~1\AppData\Local\Temp\cc34Bihf.s 			page 10


 244:ControllerTest_Complete.c **** //            CTest_PB_WaitForAction();
 245:ControllerTest_Complete.c **** //            
 246:ControllerTest_Complete.c **** //            //CTest_StopAutomatedStep();
 247:ControllerTest_Complete.c ****             
 248:ControllerTest_Complete.c ****             CTest_Complete_StartAutomatedStep();
 254              		.loc 1 248 0
 255 0118 FFF7FEFF 		bl	CTest_Complete_StartAutomatedStep
 249:ControllerTest_Complete.c ****             //CTest_PB_WaitForAction();
 250:ControllerTest_Complete.c ****          
 251:ControllerTest_Complete.c ****             /**** Low Power Mode - Vbatt-on, USB_5V-off, Ignition-off ***/
 252:ControllerTest_Complete.c ****             CTest_CONT_VBATT_EN_Write(1);                   
 256              		.loc 1 252 0
 257 011c 0120     		movs	r0, #1
 258 011e FFF7FEFF 		bl	CTest_CONT_VBATT_EN_Write
 253:ControllerTest_Complete.c ****             CTest_USB_5V_EN_Write(0);
 259              		.loc 1 253 0
 260 0122 0020     		movs	r0, #0
 261 0124 FFF7FEFF 		bl	CTest_USB_5V_EN_Write
 254:ControllerTest_Complete.c ****             pTxPacket_Intermotive->Payload.Data5 = 0x00;
 262              		.loc 1 254 0
 263 0128 604B     		ldr	r3, .L45+8
 264 012a 1B68     		ldr	r3, [r3]
 265 012c 0022     		movs	r2, #0
 266 012e 5A71     		strb	r2, [r3, #5]
 255:ControllerTest_Complete.c ****             while( (pRxPacket_Controller->Payload.PowerState != 0x00) && (CTest_CompleteStatus[Curr
 267              		.loc 1 255 0
 268 0130 00BF     		nop
 269              	.L19:
 270              		.loc 1 255 0 is_stmt 0 discriminator 2
 271 0132 5F4B     		ldr	r3, .L45+12
 272 0134 1B68     		ldr	r3, [r3]
 273 0136 93F84A30 		ldrb	r3, [r3, #74]	@ zero_extendqisi2
 274 013a 002B     		cmp	r3, #0
 275 013c 06D0     		beq	.L18
 276              		.loc 1 255 0 discriminator 1
 277 013e 594B     		ldr	r3, .L45
 278 0140 5B78     		ldrb	r3, [r3, #1]	@ zero_extendqisi2
 279 0142 1A46     		mov	r2, r3
 280 0144 584B     		ldr	r3, .L45+4
 281 0146 9B5C     		ldrb	r3, [r3, r2]	@ zero_extendqisi2
 282 0148 462B     		cmp	r3, #70
 283 014a F2D1     		bne	.L19
 284              	.L18:
 256:ControllerTest_Complete.c ****             {}
 257:ControllerTest_Complete.c **** //            CyDelay(1000);
 258:ControllerTest_Complete.c ****             //CTest_PB_WaitForAction();
 259:ControllerTest_Complete.c ****             
 260:ControllerTest_Complete.c ****             /**** Low Power Mode (USB Power Only) - Vbatt-on, USB_5V-on, Ignition-on ***/
 261:ControllerTest_Complete.c ****             CTest_CONT_VBATT_EN_Write(1);               
 285              		.loc 1 261 0 is_stmt 1
 286 014c 0120     		movs	r0, #1
 287 014e FFF7FEFF 		bl	CTest_CONT_VBATT_EN_Write
 262:ControllerTest_Complete.c ****             CTest_USB_5V_EN_Write(1);
 288              		.loc 1 262 0
 289 0152 0120     		movs	r0, #1
 290 0154 FFF7FEFF 		bl	CTest_USB_5V_EN_Write
 263:ControllerTest_Complete.c ****             pTxPacket_Intermotive->Payload.Data5 = 0x02;    
ARM GAS  C:\Users\MARTHN~1\AppData\Local\Temp\cc34Bihf.s 			page 11


 291              		.loc 1 263 0
 292 0158 544B     		ldr	r3, .L45+8
 293 015a 1B68     		ldr	r3, [r3]
 294 015c 0222     		movs	r2, #2
 295 015e 5A71     		strb	r2, [r3, #5]
 264:ControllerTest_Complete.c ****             while( (pRxPacket_Controller->Payload.PowerState != 0x01) && (CTest_CompleteStatus[Curr
 296              		.loc 1 264 0
 297 0160 00BF     		nop
 298              	.L21:
 299              		.loc 1 264 0 is_stmt 0 discriminator 2
 300 0162 534B     		ldr	r3, .L45+12
 301 0164 1B68     		ldr	r3, [r3]
 302 0166 93F84A30 		ldrb	r3, [r3, #74]	@ zero_extendqisi2
 303 016a 012B     		cmp	r3, #1
 304 016c 06D0     		beq	.L20
 305              		.loc 1 264 0 discriminator 1
 306 016e 4D4B     		ldr	r3, .L45
 307 0170 5B78     		ldrb	r3, [r3, #1]	@ zero_extendqisi2
 308 0172 1A46     		mov	r2, r3
 309 0174 4C4B     		ldr	r3, .L45+4
 310 0176 9B5C     		ldrb	r3, [r3, r2]	@ zero_extendqisi2
 311 0178 462B     		cmp	r3, #70
 312 017a F2D1     		bne	.L21
 313              	.L20:
 265:ControllerTest_Complete.c ****             {}
 266:ControllerTest_Complete.c **** //            CyDelay(1000);             
 267:ControllerTest_Complete.c ****             //CTest_PB_WaitForAction();
 268:ControllerTest_Complete.c ****             
 269:ControllerTest_Complete.c ****             /**** Normal Power Mode - Vbatt-on, USB_5V-on, Ignition-on ***/
 270:ControllerTest_Complete.c ****             CTest_CONT_VBATT_EN_Write(1);                                       
 314              		.loc 1 270 0 is_stmt 1
 315 017c 0120     		movs	r0, #1
 316 017e FFF7FEFF 		bl	CTest_CONT_VBATT_EN_Write
 271:ControllerTest_Complete.c ****             CTest_USB_5V_EN_Write(0);
 317              		.loc 1 271 0
 318 0182 0020     		movs	r0, #0
 319 0184 FFF7FEFF 		bl	CTest_USB_5V_EN_Write
 272:ControllerTest_Complete.c ****             pTxPacket_Intermotive->Payload.Data5 = 0x02;
 320              		.loc 1 272 0
 321 0188 484B     		ldr	r3, .L45+8
 322 018a 1B68     		ldr	r3, [r3]
 323 018c 0222     		movs	r2, #2
 324 018e 5A71     		strb	r2, [r3, #5]
 273:ControllerTest_Complete.c ****             while( (pRxPacket_Controller->Payload.PowerState != 0x01) && (CTest_CompleteStatus[Curr
 325              		.loc 1 273 0
 326 0190 00BF     		nop
 327              	.L23:
 328              		.loc 1 273 0 is_stmt 0 discriminator 2
 329 0192 474B     		ldr	r3, .L45+12
 330 0194 1B68     		ldr	r3, [r3]
 331 0196 93F84A30 		ldrb	r3, [r3, #74]	@ zero_extendqisi2
 332 019a 012B     		cmp	r3, #1
 333 019c 06D0     		beq	.L22
 334              		.loc 1 273 0 discriminator 1
 335 019e 414B     		ldr	r3, .L45
 336 01a0 5B78     		ldrb	r3, [r3, #1]	@ zero_extendqisi2
 337 01a2 1A46     		mov	r2, r3
ARM GAS  C:\Users\MARTHN~1\AppData\Local\Temp\cc34Bihf.s 			page 12


 338 01a4 404B     		ldr	r3, .L45+4
 339 01a6 9B5C     		ldrb	r3, [r3, r2]	@ zero_extendqisi2
 340 01a8 462B     		cmp	r3, #70
 341 01aa F2D1     		bne	.L23
 342              	.L22:
 274:ControllerTest_Complete.c ****             {}
 275:ControllerTest_Complete.c **** //            CyDelay(1000);
 276:ControllerTest_Complete.c ****             //CTest_PB_WaitForAction();
 277:ControllerTest_Complete.c ****             
 278:ControllerTest_Complete.c ****             CTest_Complete_StopAutomatedStep();
 343              		.loc 1 278 0 is_stmt 1
 344 01ac FFF7FEFF 		bl	CTest_Complete_StopAutomatedStep
 279:ControllerTest_Complete.c ****             
 280:ControllerTest_Complete.c ****             CyDelay(CONFIRM_TIME);
 345              		.loc 1 280 0
 346 01b0 6420     		movs	r0, #100
 347 01b2 FFF7FEFF 		bl	CyDelay
 281:ControllerTest_Complete.c ****             
 282:ControllerTest_Complete.c ****             if(CTest_CompleteStatus[CurrentTest.TestStep] == 'F')
 348              		.loc 1 282 0
 349 01b6 3B4B     		ldr	r3, .L45
 350 01b8 5B78     		ldrb	r3, [r3, #1]	@ zero_extendqisi2
 351 01ba 1A46     		mov	r2, r3
 352 01bc 3A4B     		ldr	r3, .L45+4
 353 01be 9B5C     		ldrb	r3, [r3, r2]	@ zero_extendqisi2
 354 01c0 462B     		cmp	r3, #70
 355 01c2 03D1     		bne	.L24
 283:ControllerTest_Complete.c ****             {
 284:ControllerTest_Complete.c ****                 CurrentTest.TestStep = PASS;
 356              		.loc 1 284 0
 357 01c4 374B     		ldr	r3, .L45
 358 01c6 0722     		movs	r2, #7
 359 01c8 5A70     		strb	r2, [r3, #1]
 285:ControllerTest_Complete.c ****             }
 286:ControllerTest_Complete.c ****             else
 287:ControllerTest_Complete.c ****             {
 288:ControllerTest_Complete.c ****                 //CurrentTest.TestStep = INITIALIZE_TEST;
 289:ControllerTest_Complete.c ****                 //CurrentTest.TestStep = TEST_POWERMODES;
 290:ControllerTest_Complete.c ****                 CurrentTest.TestStep = OBDII;
 291:ControllerTest_Complete.c ****                 //CurrentTest.TestStep = PASS;
 292:ControllerTest_Complete.c ****             }
 293:ControllerTest_Complete.c ****             
 294:ControllerTest_Complete.c ****         break;
 360              		.loc 1 294 0
 361 01ca CCE0     		b	.L2
 362              	.L24:
 290:ControllerTest_Complete.c ****                 //CurrentTest.TestStep = PASS;
 363              		.loc 1 290 0
 364 01cc 354B     		ldr	r3, .L45
 365 01ce 0422     		movs	r2, #4
 366 01d0 5A70     		strb	r2, [r3, #1]
 367              		.loc 1 294 0
 368 01d2 C8E0     		b	.L2
 369              	.L8:
 295:ControllerTest_Complete.c ****             
 296:ControllerTest_Complete.c ****         case OBDII: //configfile
 297:ControllerTest_Complete.c ****             
ARM GAS  C:\Users\MARTHN~1\AppData\Local\Temp\cc34Bihf.s 			page 13


 298:ControllerTest_Complete.c **** //            pTxPacket_Intermotive = getTxPacket_Intermotive(); 
 299:ControllerTest_Complete.c **** //            pTxPacket_Intermotive->Payload.Data5 = 0x00; 
 300:ControllerTest_Complete.c **** 
 301:ControllerTest_Complete.c ****             CTest_Complete_StartAutomatedStep();
 370              		.loc 1 301 0
 371 01d4 FFF7FEFF 		bl	CTest_Complete_StartAutomatedStep
 302:ControllerTest_Complete.c **** 
 303:ControllerTest_Complete.c ****             MUX_CTRL_230400_Write(CTEST_RELAY);                             // Read a 'I' (includes
 372              		.loc 1 303 0
 373 01d8 0020     		movs	r0, #0
 374 01da FFF7FEFF 		bl	MUX_CTRL_230400_Write
 304:ControllerTest_Complete.c ****             pRxPacket_Controller = getRxPacket_Controller();    
 375              		.loc 1 304 0
 376 01de FFF7FEFF 		bl	getRxPacket_Controller
 377 01e2 0246     		mov	r2, r0
 378 01e4 324B     		ldr	r3, .L45+12
 379 01e6 1A60     		str	r2, [r3]
 305:ControllerTest_Complete.c ****             
 306:ControllerTest_Complete.c ****             while( ( !(pRxPacket_Controller->Payload.Outputs_25to32 >> 7) ) && (CTest_CompleteStatu
 380              		.loc 1 306 0
 381 01e8 01E0     		b	.L26
 382              	.L28:
 307:ControllerTest_Complete.c ****             {
 308:ControllerTest_Complete.c ****                 sendPacketToController_OBDII();                             // Send 'drivers side d
 383              		.loc 1 308 0
 384 01ea FFF7FEFF 		bl	sendPacketToController_OBDII
 385              	.L26:
 306:ControllerTest_Complete.c ****             {
 386              		.loc 1 306 0
 387 01ee 304B     		ldr	r3, .L45+12
 388 01f0 1B68     		ldr	r3, [r3]
 389 01f2 93F84830 		ldrb	r3, [r3, #72]	@ zero_extendqisi2
 390 01f6 5BB2     		sxtb	r3, r3
 391 01f8 002B     		cmp	r3, #0
 392 01fa 06DB     		blt	.L27
 306:ControllerTest_Complete.c ****             {
 393              		.loc 1 306 0 is_stmt 0 discriminator 1
 394 01fc 294B     		ldr	r3, .L45
 395 01fe 5B78     		ldrb	r3, [r3, #1]	@ zero_extendqisi2
 396 0200 1A46     		mov	r2, r3
 397 0202 294B     		ldr	r3, .L45+4
 398 0204 9B5C     		ldrb	r3, [r3, r2]	@ zero_extendqisi2
 399 0206 462B     		cmp	r3, #70
 400 0208 EFD1     		bne	.L28
 401              	.L27:
 309:ControllerTest_Complete.c ****             }
 310:ControllerTest_Complete.c ****             
 311:ControllerTest_Complete.c ****             CTest_Complete_StopAutomatedStep();
 402              		.loc 1 311 0 is_stmt 1
 403 020a FFF7FEFF 		bl	CTest_Complete_StopAutomatedStep
 312:ControllerTest_Complete.c ****             
 313:ControllerTest_Complete.c ****             CyDelay(CONFIRM_TIME);    
 404              		.loc 1 313 0
 405 020e 6420     		movs	r0, #100
 406 0210 FFF7FEFF 		bl	CyDelay
 314:ControllerTest_Complete.c ****             
 315:ControllerTest_Complete.c ****             if(CTest_CompleteStatus[CurrentTest.TestStep] == 'F')
ARM GAS  C:\Users\MARTHN~1\AppData\Local\Temp\cc34Bihf.s 			page 14


 407              		.loc 1 315 0
 408 0214 234B     		ldr	r3, .L45
 409 0216 5B78     		ldrb	r3, [r3, #1]	@ zero_extendqisi2
 410 0218 1A46     		mov	r2, r3
 411 021a 234B     		ldr	r3, .L45+4
 412 021c 9B5C     		ldrb	r3, [r3, r2]	@ zero_extendqisi2
 413 021e 462B     		cmp	r3, #70
 414 0220 03D1     		bne	.L29
 316:ControllerTest_Complete.c ****             {
 317:ControllerTest_Complete.c ****                 CurrentTest.TestStep = PASS;
 415              		.loc 1 317 0
 416 0222 204B     		ldr	r3, .L45
 417 0224 0722     		movs	r2, #7
 418 0226 5A70     		strb	r2, [r3, #1]
 318:ControllerTest_Complete.c ****             }
 319:ControllerTest_Complete.c ****             else
 320:ControllerTest_Complete.c ****             {
 321:ControllerTest_Complete.c ****                 //CurrentTest.TestStep = INITIALIZE_TEST;
 322:ControllerTest_Complete.c ****                 //CurrentTest.TestStep = LEDS_RGB;
 323:ControllerTest_Complete.c ****                 CurrentTest.TestStep = PUSHBUTTONS;
 324:ControllerTest_Complete.c ****             }
 325:ControllerTest_Complete.c ****       
 326:ControllerTest_Complete.c ****         break;  
 419              		.loc 1 326 0
 420 0228 9DE0     		b	.L2
 421              	.L29:
 323:ControllerTest_Complete.c ****             }
 422              		.loc 1 323 0
 423 022a 1E4B     		ldr	r3, .L45
 424 022c 0522     		movs	r2, #5
 425 022e 5A70     		strb	r2, [r3, #1]
 426              		.loc 1 326 0
 427 0230 99E0     		b	.L2
 428              	.L9:
 327:ControllerTest_Complete.c ****             
 328:ControllerTest_Complete.c ****         case PUSHBUTTONS:  // configfile - Controller should have the config file setup to turn on 
 329:ControllerTest_Complete.c **** 
 330:ControllerTest_Complete.c ****             CTest_CompleteStatus[CurrentTest.TestStep] = 'W';
 429              		.loc 1 330 0
 430 0232 1C4B     		ldr	r3, .L45
 431 0234 5B78     		ldrb	r3, [r3, #1]	@ zero_extendqisi2
 432 0236 1A46     		mov	r2, r3
 433 0238 1B4B     		ldr	r3, .L45+4
 434 023a 5721     		movs	r1, #87
 435 023c 9954     		strb	r1, [r3, r2]
 331:ControllerTest_Complete.c ****             CurrentTest.Status = 'W';
 436              		.loc 1 331 0
 437 023e 194B     		ldr	r3, .L45
 438 0240 5722     		movs	r2, #87
 439 0242 9A70     		strb	r2, [r3, #2]
 332:ControllerTest_Complete.c ****             
 333:ControllerTest_Complete.c ****             while( (!CTest_ReadPushbuttons()) && (CTest_CompleteStatus[CurrentTest.TestStep] != 'F'
 440              		.loc 1 333 0
 441 0244 00BF     		nop
 442              	.L32:
 443              		.loc 1 333 0 is_stmt 0 discriminator 2
 444 0246 FFF7FEFF 		bl	CTest_ReadPushbuttons
ARM GAS  C:\Users\MARTHN~1\AppData\Local\Temp\cc34Bihf.s 			page 15


 445 024a 0346     		mov	r3, r0
 446 024c 002B     		cmp	r3, #0
 447 024e 06D1     		bne	.L31
 448              		.loc 1 333 0 discriminator 1
 449 0250 144B     		ldr	r3, .L45
 450 0252 5B78     		ldrb	r3, [r3, #1]	@ zero_extendqisi2
 451 0254 1A46     		mov	r2, r3
 452 0256 144B     		ldr	r3, .L45+4
 453 0258 9B5C     		ldrb	r3, [r3, r2]	@ zero_extendqisi2
 454 025a 462B     		cmp	r3, #70
 455 025c F3D1     		bne	.L32
 456              	.L31:
 334:ControllerTest_Complete.c ****             {}
 335:ControllerTest_Complete.c ****             
 336:ControllerTest_Complete.c ****             if(CTest_CompleteStatus[CurrentTest.TestStep] != 'F')       // If not failed, then pass
 457              		.loc 1 336 0 is_stmt 1
 458 025e 114B     		ldr	r3, .L45
 459 0260 5B78     		ldrb	r3, [r3, #1]	@ zero_extendqisi2
 460 0262 1A46     		mov	r2, r3
 461 0264 104B     		ldr	r3, .L45+4
 462 0266 9B5C     		ldrb	r3, [r3, r2]	@ zero_extendqisi2
 463 0268 462B     		cmp	r3, #70
 464 026a 08D0     		beq	.L33
 337:ControllerTest_Complete.c ****             {
 338:ControllerTest_Complete.c ****                 CTest_CompleteStatus[CurrentTest.TestStep] = 'P';
 465              		.loc 1 338 0
 466 026c 0D4B     		ldr	r3, .L45
 467 026e 5B78     		ldrb	r3, [r3, #1]	@ zero_extendqisi2
 468 0270 1A46     		mov	r2, r3
 469 0272 0D4B     		ldr	r3, .L45+4
 470 0274 5021     		movs	r1, #80
 471 0276 9954     		strb	r1, [r3, r2]
 339:ControllerTest_Complete.c ****                 CurrentTest.Status = 'P';
 472              		.loc 1 339 0
 473 0278 0A4B     		ldr	r3, .L45
 474 027a 5022     		movs	r2, #80
 475 027c 9A70     		strb	r2, [r3, #2]
 476              	.L33:
 340:ControllerTest_Complete.c ****             }
 341:ControllerTest_Complete.c ****             
 342:ControllerTest_Complete.c ****             CyDelay(CONFIRM_TIME);
 477              		.loc 1 342 0
 478 027e 6420     		movs	r0, #100
 479 0280 FFF7FEFF 		bl	CyDelay
 343:ControllerTest_Complete.c ****             
 344:ControllerTest_Complete.c ****             if(CTest_CompleteStatus[CurrentTest.TestStep] == 'F')
 480              		.loc 1 344 0
 481 0284 074B     		ldr	r3, .L45
 482 0286 5B78     		ldrb	r3, [r3, #1]	@ zero_extendqisi2
 483 0288 1A46     		mov	r2, r3
 484 028a 074B     		ldr	r3, .L45+4
 485 028c 9B5C     		ldrb	r3, [r3, r2]	@ zero_extendqisi2
 486 028e 462B     		cmp	r3, #70
 487 0290 03D1     		bne	.L34
 345:ControllerTest_Complete.c ****             {
 346:ControllerTest_Complete.c ****                 CurrentTest.TestStep = PASS;
 488              		.loc 1 346 0
ARM GAS  C:\Users\MARTHN~1\AppData\Local\Temp\cc34Bihf.s 			page 16


 489 0292 044B     		ldr	r3, .L45
 490 0294 0722     		movs	r2, #7
 491 0296 5A70     		strb	r2, [r3, #1]
 347:ControllerTest_Complete.c ****             }
 348:ControllerTest_Complete.c ****             else
 349:ControllerTest_Complete.c ****             {    
 350:ControllerTest_Complete.c ****                 CurrentTest.TestStep = QUAD_STREAM;
 351:ControllerTest_Complete.c ****                 //CurrentTest.TestStep = PASS;
 352:ControllerTest_Complete.c ****             }
 353:ControllerTest_Complete.c ****       
 354:ControllerTest_Complete.c ****         break;  
 492              		.loc 1 354 0
 493 0298 65E0     		b	.L2
 494              	.L34:
 350:ControllerTest_Complete.c ****                 //CurrentTest.TestStep = PASS;
 495              		.loc 1 350 0
 496 029a 024B     		ldr	r3, .L45
 497 029c 0622     		movs	r2, #6
 498 029e 5A70     		strb	r2, [r3, #1]
 499              		.loc 1 354 0
 500 02a0 61E0     		b	.L2
 501              	.L46:
 502 02a2 00BF     		.align	2
 503              	.L45:
 504 02a4 00000000 		.word	CurrentTest
 505 02a8 D4000000 		.word	CTest_CompleteStatus
 506 02ac C8000000 		.word	pTxPacket_Intermotive
 507 02b0 50000000 		.word	pRxPacket_Controller
 508              	.L10:
 355:ControllerTest_Complete.c ****                 
 356:ControllerTest_Complete.c ****         case QUAD_STREAM:   // configfile     
 357:ControllerTest_Complete.c ****         
 358:ControllerTest_Complete.c ****             CTest_Complete_StartAutomatedStep();
 509              		.loc 1 358 0
 510 02b4 FFF7FEFF 		bl	CTest_Complete_StartAutomatedStep
 359:ControllerTest_Complete.c **** 
 360:ControllerTest_Complete.c ****             MUX_CTRL_460800_Write(CTEST_QUAD);
 511              		.loc 1 360 0
 512 02b8 0020     		movs	r0, #0
 513 02ba FFF7FEFF 		bl	MUX_CTRL_460800_Write
 361:ControllerTest_Complete.c **** 
 362:ControllerTest_Complete.c ****             while( (!VerifyPacket_460800(CTEST_RTEST_QUAD)) && (CTest_CompleteStatus[CurrentTest.Te
 514              		.loc 1 362 0
 515 02be 00BF     		nop
 516              	.L37:
 517              		.loc 1 362 0 is_stmt 0 discriminator 2
 518 02c0 0120     		movs	r0, #1
 519 02c2 FFF7FEFF 		bl	VerifyPacket_460800
 520 02c6 0346     		mov	r3, r0
 521 02c8 002B     		cmp	r3, #0
 522 02ca 06D1     		bne	.L36
 523              		.loc 1 362 0 discriminator 1
 524 02cc 284B     		ldr	r3, .L47
 525 02ce 5B78     		ldrb	r3, [r3, #1]	@ zero_extendqisi2
 526 02d0 1A46     		mov	r2, r3
 527 02d2 284B     		ldr	r3, .L47+4
 528 02d4 9B5C     		ldrb	r3, [r3, r2]	@ zero_extendqisi2
ARM GAS  C:\Users\MARTHN~1\AppData\Local\Temp\cc34Bihf.s 			page 17


 529 02d6 462B     		cmp	r3, #70
 530 02d8 F2D1     		bne	.L37
 531              	.L36:
 363:ControllerTest_Complete.c ****             {}
 364:ControllerTest_Complete.c ****             
 365:ControllerTest_Complete.c ****             CTest_Complete_StopAutomatedStep();
 532              		.loc 1 365 0 is_stmt 1
 533 02da FFF7FEFF 		bl	CTest_Complete_StopAutomatedStep
 366:ControllerTest_Complete.c ****             
 367:ControllerTest_Complete.c ****             CyDelay(CONFIRM_TIME);
 534              		.loc 1 367 0
 535 02de 6420     		movs	r0, #100
 536 02e0 FFF7FEFF 		bl	CyDelay
 368:ControllerTest_Complete.c ****             
 369:ControllerTest_Complete.c ****             if(CTest_CompleteStatus[CurrentTest.TestStep] == 'F')
 537              		.loc 1 369 0
 538 02e4 224B     		ldr	r3, .L47
 539 02e6 5B78     		ldrb	r3, [r3, #1]	@ zero_extendqisi2
 540 02e8 1A46     		mov	r2, r3
 541 02ea 224B     		ldr	r3, .L47+4
 542 02ec 9B5C     		ldrb	r3, [r3, r2]	@ zero_extendqisi2
 543 02ee 462B     		cmp	r3, #70
 544 02f0 03D1     		bne	.L38
 370:ControllerTest_Complete.c ****             {
 371:ControllerTest_Complete.c ****                 CurrentTest.TestStep = PASS;
 545              		.loc 1 371 0
 546 02f2 1F4B     		ldr	r3, .L47
 547 02f4 0722     		movs	r2, #7
 548 02f6 5A70     		strb	r2, [r3, #1]
 372:ControllerTest_Complete.c ****             }
 373:ControllerTest_Complete.c ****             else
 374:ControllerTest_Complete.c ****             {
 375:ControllerTest_Complete.c ****                 //CurrentTest.TestStep = INITIALIZE_TEST;
 376:ControllerTest_Complete.c ****                 //CurrentTest.TestStep = AUDIO_STREAM;
 377:ControllerTest_Complete.c ****                 //CurrentTest.TestStep = QUAD_STREAM;
 378:ControllerTest_Complete.c ****                 //CurrentTest.TestStep = LEDS_RGB;
 379:ControllerTest_Complete.c ****                 CurrentTest.TestStep = PASS;
 380:ControllerTest_Complete.c ****             }
 381:ControllerTest_Complete.c **** 
 382:ControllerTest_Complete.c ****         break;
 549              		.loc 1 382 0
 550 02f8 35E0     		b	.L2
 551              	.L38:
 379:ControllerTest_Complete.c ****             }
 552              		.loc 1 379 0
 553 02fa 1D4B     		ldr	r3, .L47
 554 02fc 0722     		movs	r2, #7
 555 02fe 5A70     		strb	r2, [r3, #1]
 556              		.loc 1 382 0
 557 0300 31E0     		b	.L2
 558              	.L11:
 559              	.LBB3:
 383:ControllerTest_Complete.c ****             
 384:ControllerTest_Complete.c **** //        case LEDS_RGB:   
 385:ControllerTest_Complete.c **** //            
 386:ControllerTest_Complete.c **** //            //CTest_PB_WaitForAction();
 387:ControllerTest_Complete.c **** //            setLEDs(RED);
ARM GAS  C:\Users\MARTHN~1\AppData\Local\Temp\cc34Bihf.s 			page 18


 388:ControllerTest_Complete.c **** //            CTest_CompleteStatus[CurrentTest.TestStep] = 'B';
 389:ControllerTest_Complete.c **** //            CurrentTest.Status = 'B';            
 390:ControllerTest_Complete.c **** //            CyDelay(5000);
 391:ControllerTest_Complete.c **** //            CTest_PB_WaitForAction();  
 392:ControllerTest_Complete.c **** //            
 393:ControllerTest_Complete.c **** //            setLEDs(BLUE);
 394:ControllerTest_Complete.c **** //            CTest_CompleteStatus[CurrentTest.TestStep] = 'B';
 395:ControllerTest_Complete.c **** //            CurrentTest.Status = 'B';            
 396:ControllerTest_Complete.c **** //            CyDelay(5000);
 397:ControllerTest_Complete.c **** //            CTest_PB_WaitForAction();
 398:ControllerTest_Complete.c **** //            
 399:ControllerTest_Complete.c **** //            setLEDs(GREEN);
 400:ControllerTest_Complete.c **** //            CTest_CompleteStatus[CurrentTest.TestStep] = 'B';
 401:ControllerTest_Complete.c **** //            CurrentTest.Status = 'B';
 402:ControllerTest_Complete.c **** //            CyDelay(5000);
 403:ControllerTest_Complete.c **** //            CTest_PB_WaitForAction();
 404:ControllerTest_Complete.c **** //            
 405:ControllerTest_Complete.c **** ////            setLEDs(OFF);
 406:ControllerTest_Complete.c **** ////            CTest_CompleteStatus[CurrentTest.TestStep] = 'B';
 407:ControllerTest_Complete.c **** ////            CurrentTest.Status = 'B';
 408:ControllerTest_Complete.c **** ////            //CyDelay(5000);
 409:ControllerTest_Complete.c **** //////            CTest_PB_WaitForAction();
 410:ControllerTest_Complete.c **** //
 411:ControllerTest_Complete.c **** //            CTest_CompleteStatus[CurrentTest.TestStep] = 'P';
 412:ControllerTest_Complete.c **** //            CurrentTest.Status = 'P';
 413:ControllerTest_Complete.c **** //            
 414:ControllerTest_Complete.c **** //            CyDelay(CONFIRM_TIME);
 415:ControllerTest_Complete.c **** //            
 416:ControllerTest_Complete.c **** //            if(CTest_CompleteStatus[CurrentTest.TestStep] == 'F')
 417:ControllerTest_Complete.c **** //            {
 418:ControllerTest_Complete.c **** //                CurrentTest.TestStep = PASS;
 419:ControllerTest_Complete.c **** //            }
 420:ControllerTest_Complete.c **** //            else
 421:ControllerTest_Complete.c **** //            {
 422:ControllerTest_Complete.c **** //                //CurrentTest.TestStep = LEDS_RGB;
 423:ControllerTest_Complete.c **** //                CurrentTest.TestStep = AUDIO_STREAM;
 424:ControllerTest_Complete.c **** //                //CurrentTest.TestStep = PUSHBUTTONS;
 425:ControllerTest_Complete.c **** //            }
 426:ControllerTest_Complete.c **** //      
 427:ControllerTest_Complete.c **** //        break; 
 428:ControllerTest_Complete.c **** //                       
 429:ControllerTest_Complete.c **** //        case AUDIO_STREAM:  // (not a priority)
 430:ControllerTest_Complete.c **** //            
 431:ControllerTest_Complete.c **** //            CTest_CompleteStatus[CurrentTest.TestStep] = 'U';           
 432:ControllerTest_Complete.c **** //            CurrentTest.Status = 'U'; 
 433:ControllerTest_Complete.c **** //            CyDelay(CONFIRM_TIME);
 434:ControllerTest_Complete.c **** ////            CTestStatus[CurrentTest.TestStep] = 'P';
 435:ControllerTest_Complete.c **** ////            CurrentTest.Status = 'P';
 436:ControllerTest_Complete.c **** ////            CyDelay(CONFIRM_TIME);
 437:ControllerTest_Complete.c **** //            
 438:ControllerTest_Complete.c **** //            CurrentTest.TestStep = DEBUG_PORT;
 439:ControllerTest_Complete.c **** //                
 440:ControllerTest_Complete.c **** //        break;
 441:ControllerTest_Complete.c **** //                         
 442:ControllerTest_Complete.c **** //        case DEBUG_PORT:    // (not a priority)    
 443:ControllerTest_Complete.c **** //            
 444:ControllerTest_Complete.c **** //            CTest_CompleteStatus[CurrentTest.TestStep] = 'U';           
ARM GAS  C:\Users\MARTHN~1\AppData\Local\Temp\cc34Bihf.s 			page 19


 445:ControllerTest_Complete.c **** //            CurrentTest.Status = 'U'; 
 446:ControllerTest_Complete.c **** //            CyDelay(CONFIRM_TIME);
 447:ControllerTest_Complete.c **** ////            CTestStatus[CurrentTest.TestStep] = 'P';
 448:ControllerTest_Complete.c **** ////            CurrentTest.Status = 'P';
 449:ControllerTest_Complete.c **** ////            CyDelay(CONFIRM_TIME);
 450:ControllerTest_Complete.c **** //            
 451:ControllerTest_Complete.c **** //            //CurrentTest.TestStep = INITIALIZE_TEST;
 452:ControllerTest_Complete.c **** //            //CurrentTest.TestStep = OBDII;
 453:ControllerTest_Complete.c **** //            CurrentTest.TestStep = PASS;
 454:ControllerTest_Complete.c **** //      
 455:ControllerTest_Complete.c **** //        break;  
 456:ControllerTest_Complete.c ****             
 457:ControllerTest_Complete.c ****         case PASS:   
 458:ControllerTest_Complete.c **** 
 459:ControllerTest_Complete.c ****             for(uint8 i=0;i<(NUMBER_TEST_STEPS-1);i++)
 560              		.loc 1 459 0
 561 0302 0023     		movs	r3, #0
 562 0304 BB71     		strb	r3, [r7, #6]
 563 0306 1AE0     		b	.L40
 564              	.L42:
 460:ControllerTest_Complete.c ****             {
 461:ControllerTest_Complete.c ****                 if( (CTest_CompleteStatus[i] != 'P') && (CTest_CompleteStatus[i] != 'U') && (CTest_
 565              		.loc 1 461 0
 566 0308 BB79     		ldrb	r3, [r7, #6]	@ zero_extendqisi2
 567 030a 1A4A     		ldr	r2, .L47+4
 568 030c D35C     		ldrb	r3, [r2, r3]	@ zero_extendqisi2
 569 030e 502B     		cmp	r3, #80
 570 0310 12D0     		beq	.L41
 571              		.loc 1 461 0 is_stmt 0 discriminator 1
 572 0312 BB79     		ldrb	r3, [r7, #6]	@ zero_extendqisi2
 573 0314 174A     		ldr	r2, .L47+4
 574 0316 D35C     		ldrb	r3, [r2, r3]	@ zero_extendqisi2
 575 0318 552B     		cmp	r3, #85
 576 031a 0DD0     		beq	.L41
 577              		.loc 1 461 0 discriminator 2
 578 031c BB79     		ldrb	r3, [r7, #6]	@ zero_extendqisi2
 579 031e 154A     		ldr	r2, .L47+4
 580 0320 D35C     		ldrb	r3, [r2, r3]	@ zero_extendqisi2
 581 0322 492B     		cmp	r3, #73
 582 0324 08D0     		beq	.L41
 462:ControllerTest_Complete.c ****                 {
 463:ControllerTest_Complete.c ****                     CTest_CompleteStatus[CurrentTest.TestStep] = 'f';
 583              		.loc 1 463 0 is_stmt 1
 584 0326 124B     		ldr	r3, .L47
 585 0328 5B78     		ldrb	r3, [r3, #1]	@ zero_extendqisi2
 586 032a 1A46     		mov	r2, r3
 587 032c 114B     		ldr	r3, .L47+4
 588 032e 6621     		movs	r1, #102
 589 0330 9954     		strb	r1, [r3, r2]
 464:ControllerTest_Complete.c ****                     CurrentTest.Status = 'f';                      
 590              		.loc 1 464 0
 591 0332 0F4B     		ldr	r3, .L47
 592 0334 6622     		movs	r2, #102
 593 0336 9A70     		strb	r2, [r3, #2]
 594              	.L41:
 459:ControllerTest_Complete.c ****             {
 595              		.loc 1 459 0 discriminator 2
ARM GAS  C:\Users\MARTHN~1\AppData\Local\Temp\cc34Bihf.s 			page 20


 596 0338 BB79     		ldrb	r3, [r7, #6]	@ zero_extendqisi2
 597 033a 0133     		adds	r3, r3, #1
 598 033c BB71     		strb	r3, [r7, #6]
 599              	.L40:
 459:ControllerTest_Complete.c ****             {
 600              		.loc 1 459 0 is_stmt 0 discriminator 1
 601 033e BB79     		ldrb	r3, [r7, #6]	@ zero_extendqisi2
 602 0340 062B     		cmp	r3, #6
 603 0342 E1D9     		bls	.L42
 604              	.LBE3:
 465:ControllerTest_Complete.c ****                 }    
 466:ControllerTest_Complete.c ****             }
 467:ControllerTest_Complete.c ****  
 468:ControllerTest_Complete.c ****             if(CTest_CompleteStatus[CurrentTest.TestStep] != 'f')
 605              		.loc 1 468 0 is_stmt 1
 606 0344 0A4B     		ldr	r3, .L47
 607 0346 5B78     		ldrb	r3, [r3, #1]	@ zero_extendqisi2
 608 0348 1A46     		mov	r2, r3
 609 034a 0A4B     		ldr	r3, .L47+4
 610 034c 9B5C     		ldrb	r3, [r3, r2]	@ zero_extendqisi2
 611 034e 662B     		cmp	r3, #102
 612 0350 08D0     		beq	.L43
 469:ControllerTest_Complete.c ****             {
 470:ControllerTest_Complete.c ****                 CTest_CompleteStatus[CurrentTest.TestStep] = 'p';
 613              		.loc 1 470 0
 614 0352 074B     		ldr	r3, .L47
 615 0354 5B78     		ldrb	r3, [r3, #1]	@ zero_extendqisi2
 616 0356 1A46     		mov	r2, r3
 617 0358 064B     		ldr	r3, .L47+4
 618 035a 7021     		movs	r1, #112
 619 035c 9954     		strb	r1, [r3, r2]
 471:ControllerTest_Complete.c ****                 CurrentTest.Status = 'p'; 
 620              		.loc 1 471 0
 621 035e 044B     		ldr	r3, .L47
 622 0360 7022     		movs	r2, #112
 623 0362 9A70     		strb	r2, [r3, #2]
 624              	.L43:
 472:ControllerTest_Complete.c ****             }
 473:ControllerTest_Complete.c ****             
 474:ControllerTest_Complete.c ****             while(1);
 625              		.loc 1 474 0 discriminator 1
 626 0364 FEE7     		b	.L43
 627              	.L2:
 475:ControllerTest_Complete.c **** //            while(PB_NextAction_Read() != 1){};
 476:ControllerTest_Complete.c **** //            CTestStatus[CurrentTest.TestStep] = 'r';
 477:ControllerTest_Complete.c **** //            CurrentTest.Status = 'r'; 
 478:ControllerTest_Complete.c **** //            CyDelay(1000);
 479:ControllerTest_Complete.c **** //            CurrentTest.TestStep = INITIALIZE_TEST;
 480:ControllerTest_Complete.c ****       
 481:ControllerTest_Complete.c ****         break; 
 482:ControllerTest_Complete.c ****        
 483:ControllerTest_Complete.c ****     }
 484:ControllerTest_Complete.c ****     
 485:ControllerTest_Complete.c ****     return(0);
 628              		.loc 1 485 0
 629 0366 0023     		movs	r3, #0
 486:ControllerTest_Complete.c **** }
ARM GAS  C:\Users\MARTHN~1\AppData\Local\Temp\cc34Bihf.s 			page 21


 630              		.loc 1 486 0
 631 0368 1846     		mov	r0, r3
 632 036a 0837     		adds	r7, r7, #8
 633              		.cfi_def_cfa_offset 8
 634 036c BD46     		mov	sp, r7
 635              		.cfi_def_cfa_register 13
 636              		@ sp needed
 637 036e 80BD     		pop	{r7, pc}
 638              	.L48:
 639              		.align	2
 640              	.L47:
 641 0370 00000000 		.word	CurrentTest
 642 0374 D4000000 		.word	CTest_CompleteStatus
 643              		.cfi_endproc
 644              	.LFE63:
 645              		.size	ControllerTest_Complete, .-ControllerTest_Complete
 646              		.section	.text.CTest_Complete_sendDiagPacket,"ax",%progbits
 647              		.align	2
 648              		.global	CTest_Complete_sendDiagPacket
 649              		.thumb
 650              		.thumb_func
 651              		.type	CTest_Complete_sendDiagPacket, %function
 652              	CTest_Complete_sendDiagPacket:
 653              	.LFB64:
 487:ControllerTest_Complete.c **** 
 488:ControllerTest_Complete.c **** 
 489:ControllerTest_Complete.c **** 
 490:ControllerTest_Complete.c **** //uint8 CTest_ReadPushbuttons()
 491:ControllerTest_Complete.c **** //{
 492:ControllerTest_Complete.c **** //
 493:ControllerTest_Complete.c **** //    MUX_CTRL_230400_Write(CTEST_RELAY);                             // Read a 'I' (includes 'P') 
 494:ControllerTest_Complete.c **** //    pRxPacket_Controller = getRxPacket_Controller();    
 495:ControllerTest_Complete.c **** //    
 496:ControllerTest_Complete.c **** //    if( (pRxPacket_Controller->Payload.Outputs_1to8 == 0xFF) &&
 497:ControllerTest_Complete.c **** //        (pRxPacket_Controller->Payload.Outputs_9to16 == 0xFF) ) //&&
 498:ControllerTest_Complete.c **** ////        (pRxPacket_Controller->Payload.Outputs_17to24 == 0xFF) &&
 499:ControllerTest_Complete.c **** ////        (pRxPacket_Controller->Payload.Outputs_25to32 == 0xFF) )
 500:ControllerTest_Complete.c **** //    {
 501:ControllerTest_Complete.c **** //        return(1);
 502:ControllerTest_Complete.c **** //    } 
 503:ControllerTest_Complete.c **** //    else
 504:ControllerTest_Complete.c **** //        return(0);
 505:ControllerTest_Complete.c **** //       
 506:ControllerTest_Complete.c **** //}
 507:ControllerTest_Complete.c **** 
 508:ControllerTest_Complete.c **** //uint8 CTest_ReadPowerMode()
 509:ControllerTest_Complete.c **** //{  
 510:ControllerTest_Complete.c **** //    
 511:ControllerTest_Complete.c **** //    //*** We need to inlude Relay ignition signal, and OBD as triggers
 512:ControllerTest_Complete.c **** //    //*** (Controller config file should have all input logic set to Hi???)
 513:ControllerTest_Complete.c **** //    
 514:ControllerTest_Complete.c **** //    // Switch MUX_230400 to read CTest_RS485_Relay_Rx
 515:ControllerTest_Complete.c **** ////        MUX_CTRL_230400_Write(0x00);
 516:ControllerTest_Complete.c **** //     
 517:ControllerTest_Complete.c **** //    // Read the PowerState byte, Return the Powerstate byte
 518:ControllerTest_Complete.c **** //        pRxPacket_Controller = getRxPacket_Controller();
 519:ControllerTest_Complete.c **** //        return(pRxPacket_Controller->Payload.PowerState);
ARM GAS  C:\Users\MARTHN~1\AppData\Local\Temp\cc34Bihf.s 			page 22


 520:ControllerTest_Complete.c **** //   
 521:ControllerTest_Complete.c **** //}
 522:ControllerTest_Complete.c **** 
 523:ControllerTest_Complete.c **** //void CTest_SendIgnitionState(uint8 ignition_state)           //*** This function needs work
 524:ControllerTest_Complete.c **** //{
 525:ControllerTest_Complete.c **** //    
 526:ControllerTest_Complete.c **** //    pTxPacket_Controller = getTxPacket_Controller();
 527:ControllerTest_Complete.c **** //    pTxPacket_Controller->Payload.RelayInputs = (pTxPacket_Controller->Payload.RelayInputs | 0x01
 528:ControllerTest_Complete.c **** //    
 529:ControllerTest_Complete.c **** //    MUX_CTRL_230400_Write(0x00);                        // Set the Mux channel
 530:ControllerTest_Complete.c **** //    
 531:ControllerTest_Complete.c **** //    
 532:ControllerTest_Complete.c **** //    return;
 533:ControllerTest_Complete.c **** //}
 534:ControllerTest_Complete.c **** 
 535:ControllerTest_Complete.c **** 
 536:ControllerTest_Complete.c **** //TxPacket_RelaySiren * getTxPacket_Relay(void)
 537:ControllerTest_Complete.c **** //{
 538:ControllerTest_Complete.c **** //    pTxPacket_Relay = &txPacket_Relay;
 539:ControllerTest_Complete.c **** //    
 540:ControllerTest_Complete.c **** //    return pTxPacket_Relay;
 541:ControllerTest_Complete.c **** //}
 542:ControllerTest_Complete.c **** 
 543:ControllerTest_Complete.c **** //RxPacket_Controller * getRxPacket_Controller(void)
 544:ControllerTest_Complete.c **** //{
 545:ControllerTest_Complete.c **** //    pRxPacket_Controller = &rxPacket_Controller;
 546:ControllerTest_Complete.c **** //    
 547:ControllerTest_Complete.c **** //    return pRxPacket_Controller;
 548:ControllerTest_Complete.c **** //}
 549:ControllerTest_Complete.c **** 
 550:ControllerTest_Complete.c **** //TxPacket_Controller * getTxPacket_Controller(void)
 551:ControllerTest_Complete.c **** //{
 552:ControllerTest_Complete.c **** //    pTxPacket_Controller = &txPacket_Controller;
 553:ControllerTest_Complete.c **** //    
 554:ControllerTest_Complete.c **** //    return pTxPacket_Controller;
 555:ControllerTest_Complete.c **** //}
 556:ControllerTest_Complete.c **** 
 557:ControllerTest_Complete.c **** void CTest_Complete_sendDiagPacket(void)
 558:ControllerTest_Complete.c **** {
 654              		.loc 1 558 0
 655              		.cfi_startproc
 656              		@ args = 0, pretend = 0, frame = 8
 657              		@ frame_needed = 1, uses_anonymous_args = 0
 658 0000 80B5     		push	{r7, lr}
 659              		.cfi_def_cfa_offset 8
 660              		.cfi_offset 7, -8
 661              		.cfi_offset 14, -4
 662 0002 82B0     		sub	sp, sp, #8
 663              		.cfi_def_cfa_offset 16
 664 0004 00AF     		add	r7, sp, #0
 665              		.cfi_def_cfa_register 7
 666              	.LBB4:
 559:ControllerTest_Complete.c **** 
 560:ControllerTest_Complete.c ****     static uint8 CTestStatus_display[ (NUMBER_TEST_STEPS*2) ];
 561:ControllerTest_Complete.c ****     
 562:ControllerTest_Complete.c ****     for(uint8 i=0;i<NUMBER_TEST_STEPS;i++)
 667              		.loc 1 562 0
ARM GAS  C:\Users\MARTHN~1\AppData\Local\Temp\cc34Bihf.s 			page 23


 668 0006 0023     		movs	r3, #0
 669 0008 FB71     		strb	r3, [r7, #7]
 670 000a 0FE0     		b	.L50
 671              	.L51:
 563:ControllerTest_Complete.c ****     {
 564:ControllerTest_Complete.c ****         CTestStatus_display[i*2] = CTest_CompleteStatus[i];
 672              		.loc 1 564 0 discriminator 3
 673 000c FB79     		ldrb	r3, [r7, #7]	@ zero_extendqisi2
 674 000e 5B00     		lsls	r3, r3, #1
 675 0010 FA79     		ldrb	r2, [r7, #7]	@ zero_extendqisi2
 676 0012 0F49     		ldr	r1, .L53
 677 0014 895C     		ldrb	r1, [r1, r2]	@ zero_extendqisi2
 678 0016 0F4A     		ldr	r2, .L53+4
 679 0018 D154     		strb	r1, [r2, r3]
 565:ControllerTest_Complete.c ****         CTestStatus_display[(i*2) + 1] = ' ';
 680              		.loc 1 565 0 discriminator 3
 681 001a FB79     		ldrb	r3, [r7, #7]	@ zero_extendqisi2
 682 001c 5B00     		lsls	r3, r3, #1
 683 001e 0133     		adds	r3, r3, #1
 684 0020 0C4A     		ldr	r2, .L53+4
 685 0022 2021     		movs	r1, #32
 686 0024 D154     		strb	r1, [r2, r3]
 562:ControllerTest_Complete.c ****     {
 687              		.loc 1 562 0 discriminator 3
 688 0026 FB79     		ldrb	r3, [r7, #7]	@ zero_extendqisi2
 689 0028 0133     		adds	r3, r3, #1
 690 002a FB71     		strb	r3, [r7, #7]
 691              	.L50:
 562:ControllerTest_Complete.c ****     {
 692              		.loc 1 562 0 is_stmt 0 discriminator 1
 693 002c FB79     		ldrb	r3, [r7, #7]	@ zero_extendqisi2
 694 002e 072B     		cmp	r3, #7
 695 0030 ECD9     		bls	.L51
 696              	.LBE4:
 566:ControllerTest_Complete.c ****     }
 567:ControllerTest_Complete.c ****     
 568:ControllerTest_Complete.c ****     //DEMUX_CTRL_115200_Write();
 569:ControllerTest_Complete.c ****     
 570:ControllerTest_Complete.c ****     UART_115200_PutArray(CTestStatus_display, (NUMBER_TEST_STEPS*2) );
 697              		.loc 1 570 0 is_stmt 1
 698 0032 1021     		movs	r1, #16
 699 0034 0748     		ldr	r0, .L53+4
 700 0036 FFF7FEFF 		bl	UART_115200_PutArray
 571:ControllerTest_Complete.c ****     
 572:ControllerTest_Complete.c ****     UART_115200_PutChar('\r');
 701              		.loc 1 572 0
 702 003a 0D20     		movs	r0, #13
 703 003c FFF7FEFF 		bl	UART_115200_PutChar
 573:ControllerTest_Complete.c ****     UART_115200_PutChar('\n');
 704              		.loc 1 573 0
 705 0040 0A20     		movs	r0, #10
 706 0042 FFF7FEFF 		bl	UART_115200_PutChar
 574:ControllerTest_Complete.c **** 
 575:ControllerTest_Complete.c ****     //LED_EN_Write(1);
 576:ControllerTest_Complete.c ****     
 577:ControllerTest_Complete.c ****     return;
 707              		.loc 1 577 0
ARM GAS  C:\Users\MARTHN~1\AppData\Local\Temp\cc34Bihf.s 			page 24


 708 0046 00BF     		nop
 578:ControllerTest_Complete.c **** }
 709              		.loc 1 578 0
 710 0048 0837     		adds	r7, r7, #8
 711              		.cfi_def_cfa_offset 8
 712 004a BD46     		mov	sp, r7
 713              		.cfi_def_cfa_register 13
 714              		@ sp needed
 715 004c 80BD     		pop	{r7, pc}
 716              	.L54:
 717 004e 00BF     		.align	2
 718              	.L53:
 719 0050 D4000000 		.word	CTest_CompleteStatus
 720 0054 DC000000 		.word	CTestStatus_display.7453
 721              		.cfi_endproc
 722              	.LFE64:
 723              		.size	CTest_Complete_sendDiagPacket, .-CTest_Complete_sendDiagPacket
 724              		.section	.text.CTest_Complete_20ms_isr,"ax",%progbits
 725              		.align	2
 726              		.global	CTest_Complete_20ms_isr
 727              		.thumb
 728              		.thumb_func
 729              		.type	CTest_Complete_20ms_isr, %function
 730              	CTest_Complete_20ms_isr:
 731              	.LFB65:
 579:ControllerTest_Complete.c **** //----------------------------------------Timer Interrupts------------------------------
 580:ControllerTest_Complete.c **** //void CTest_isr_PB(void)
 581:ControllerTest_Complete.c **** //{
 582:ControllerTest_Complete.c **** //    static uint8 PB_NextAction_debouncecount = 0;
 583:ControllerTest_Complete.c **** //    static uint8 PB_NextAction_failcount = 0;
 584:ControllerTest_Complete.c **** //    static uint8 PB_NextAction_prevstate = 0;
 585:ControllerTest_Complete.c **** //    
 586:ControllerTest_Complete.c **** //    static uint8 debouncetrue = 0;
 587:ControllerTest_Complete.c **** //    
 588:ControllerTest_Complete.c **** //    static uint8 PB_reading = 0;
 589:ControllerTest_Complete.c **** //    static uint8 PB_reading_previous = 0;
 590:ControllerTest_Complete.c **** //    PB_reading = PB_NextAction_Read();
 591:ControllerTest_Complete.c **** //    
 592:ControllerTest_Complete.c **** //    
 593:ControllerTest_Complete.c **** //    if(PB_reading == PB_reading_previous)               // If reading is the same as the last, in
 594:ControllerTest_Complete.c **** //        PB_NextAction_debouncecount++;
 595:ControllerTest_Complete.c **** //    else
 596:ControllerTest_Complete.c **** //        PB_NextAction_debouncecount = 0;
 597:ControllerTest_Complete.c **** //    
 598:ControllerTest_Complete.c **** //    if(PB_NextAction_debouncecount > DEBOUNCE_COUNT)    // Set debouncetrue
 599:ControllerTest_Complete.c **** //    {
 600:ControllerTest_Complete.c **** //        debouncetrue = PB_reading;
 601:ControllerTest_Complete.c **** //        PB_NextAction_debouncecount = 0;
 602:ControllerTest_Complete.c **** //    }
 603:ControllerTest_Complete.c **** //
 604:ControllerTest_Complete.c **** //    PB_reading_previous = PB_reading;                   // Save current reading for next interrup
 605:ControllerTest_Complete.c **** //    
 606:ControllerTest_Complete.c **** //    if(debouncetrue == 1)                               // If debounced and asserted
 607:ControllerTest_Complete.c **** //    {
 608:ControllerTest_Complete.c **** //        PB_NextAction_Pressed = 1;
 609:ControllerTest_Complete.c **** //        PB_NextAction_failcount++;
 610:ControllerTest_Complete.c **** //    }
ARM GAS  C:\Users\MARTHN~1\AppData\Local\Temp\cc34Bihf.s 			page 25


 611:ControllerTest_Complete.c **** //    else
 612:ControllerTest_Complete.c **** //    {
 613:ControllerTest_Complete.c **** //        PB_NextAction_Pressed = 0;
 614:ControllerTest_Complete.c **** //        PB_NextAction_failcount = 0;
 615:ControllerTest_Complete.c **** //    }
 616:ControllerTest_Complete.c **** //    
 617:ControllerTest_Complete.c **** //
 618:ControllerTest_Complete.c **** //    if(PB_NextAction_failcount > 75)                       // If PB is held for (150 * 20msec = 3
 619:ControllerTest_Complete.c **** //    {  
 620:ControllerTest_Complete.c **** //        CTestStatus[CurrentTest.TestStep] = 'F';
 621:ControllerTest_Complete.c **** //        CurrentTest.Status = 'F';
 622:ControllerTest_Complete.c **** //        PB_NextAction_failcount = 0;
 623:ControllerTest_Complete.c **** //        
 624:ControllerTest_Complete.c **** //    }
 625:ControllerTest_Complete.c **** //    
 626:ControllerTest_Complete.c **** //
 627:ControllerTest_Complete.c **** //    if( (PB_NextAction_prevstate == 1) && (PB_NextAction_Pressed == 0) )        // Determine if P
 628:ControllerTest_Complete.c **** //    {
 629:ControllerTest_Complete.c **** //        PB_NextAction_Released = 1;
 630:ControllerTest_Complete.c **** //    }
 631:ControllerTest_Complete.c **** //    else
 632:ControllerTest_Complete.c **** //        PB_NextAction_Released = 0;
 633:ControllerTest_Complete.c **** //    
 634:ControllerTest_Complete.c **** //    PB_NextAction_prevstate = PB_NextAction_Pressed;
 635:ControllerTest_Complete.c **** //    
 636:ControllerTest_Complete.c **** //    return;
 637:ControllerTest_Complete.c **** //}
 638:ControllerTest_Complete.c **** 
 639:ControllerTest_Complete.c **** void CTest_Complete_20ms_isr(void)
 640:ControllerTest_Complete.c **** {
 732              		.loc 1 640 0
 733              		.cfi_startproc
 734              		@ args = 0, pretend = 0, frame = 0
 735              		@ frame_needed = 1, uses_anonymous_args = 0
 736              		@ link register save eliminated.
 737 0000 80B4     		push	{r7}
 738              		.cfi_def_cfa_offset 4
 739              		.cfi_offset 7, -4
 740 0002 00AF     		add	r7, sp, #0
 741              		.cfi_def_cfa_register 7
 641:ControllerTest_Complete.c ****     
 642:ControllerTest_Complete.c **** //    if(CurrentTest.TestStep == QUAD_PORTS)       // *** send quad packet if needed 
 643:ControllerTest_Complete.c **** //    {
 644:ControllerTest_Complete.c **** //        sendPacketToRelay_Quad();
 645:ControllerTest_Complete.c **** //    }
 646:ControllerTest_Complete.c ****     
 647:ControllerTest_Complete.c ****     CTest_20ms_isr_count++;                                         // 
 742              		.loc 1 647 0
 743 0004 184B     		ldr	r3, .L62
 744 0006 1B88     		ldrh	r3, [r3]
 745 0008 0133     		adds	r3, r3, #1
 746 000a 9AB2     		uxth	r2, r3
 747 000c 164B     		ldr	r3, .L62
 748 000e 1A80     		strh	r2, [r3]	@ movhi
 648:ControllerTest_Complete.c **** 
 649:ControllerTest_Complete.c ****     if(CTest_20ms_isr_count > CTest_Complete_TimeoutCount[CurrentTest.TestStep])
 749              		.loc 1 649 0
ARM GAS  C:\Users\MARTHN~1\AppData\Local\Temp\cc34Bihf.s 			page 26


 750 0010 164B     		ldr	r3, .L62+4
 751 0012 5B78     		ldrb	r3, [r3, #1]	@ zero_extendqisi2
 752 0014 1A46     		mov	r2, r3
 753 0016 164B     		ldr	r3, .L62+8
 754 0018 33F81220 		ldrh	r2, [r3, r2, lsl #1]
 755 001c 124B     		ldr	r3, .L62
 756 001e 1B88     		ldrh	r3, [r3]
 757 0020 9A42     		cmp	r2, r3
 758 0022 10D2     		bcs	.L56
 650:ControllerTest_Complete.c ****     {
 651:ControllerTest_Complete.c ****         CTest_20ms_isr_count = 0;
 759              		.loc 1 651 0
 760 0024 104B     		ldr	r3, .L62
 761 0026 0022     		movs	r2, #0
 762 0028 1A80     		strh	r2, [r3]	@ movhi
 652:ControllerTest_Complete.c ****         
 653:ControllerTest_Complete.c ****         if(CTest_20ms_isr_EN == 1)
 763              		.loc 1 653 0
 764 002a 124B     		ldr	r3, .L62+12
 765 002c 1B88     		ldrh	r3, [r3]
 766 002e 012B     		cmp	r3, #1
 767 0030 14D1     		bne	.L60
 654:ControllerTest_Complete.c ****         {
 655:ControllerTest_Complete.c ****             CTest_CompleteStatus[CurrentTest.TestStep] = 'F';
 768              		.loc 1 655 0
 769 0032 0E4B     		ldr	r3, .L62+4
 770 0034 5B78     		ldrb	r3, [r3, #1]	@ zero_extendqisi2
 771 0036 1A46     		mov	r2, r3
 772 0038 0F4B     		ldr	r3, .L62+16
 773 003a 4621     		movs	r1, #70
 774 003c 9954     		strb	r1, [r3, r2]
 656:ControllerTest_Complete.c ****             CurrentTest.Status = 'F';
 775              		.loc 1 656 0
 776 003e 0B4B     		ldr	r3, .L62+4
 777 0040 4622     		movs	r2, #70
 778 0042 9A70     		strb	r2, [r3, #2]
 657:ControllerTest_Complete.c ****         }
 658:ControllerTest_Complete.c ****             
 659:ControllerTest_Complete.c ****         return;
 779              		.loc 1 659 0
 780 0044 0AE0     		b	.L60
 781              	.L56:
 660:ControllerTest_Complete.c ****     }
 661:ControllerTest_Complete.c ****     
 662:ControllerTest_Complete.c ****     if(CTest_20ms_isr_count > 65000)
 782              		.loc 1 662 0
 783 0046 084B     		ldr	r3, .L62
 784 0048 1B88     		ldrh	r3, [r3]
 785 004a 4FF6E852 		movw	r2, #65000
 786 004e 9342     		cmp	r3, r2
 787 0050 06D9     		bls	.L61
 663:ControllerTest_Complete.c ****         CTest_20ms_isr_count = 0;
 788              		.loc 1 663 0
 789 0052 054B     		ldr	r3, .L62
 790 0054 0022     		movs	r2, #0
 791 0056 1A80     		strh	r2, [r3]	@ movhi
 664:ControllerTest_Complete.c ****     
ARM GAS  C:\Users\MARTHN~1\AppData\Local\Temp\cc34Bihf.s 			page 27


 665:ControllerTest_Complete.c ****     return;
 792              		.loc 1 665 0
 793 0058 00BF     		nop
 794 005a 01E0     		b	.L61
 795              	.L60:
 659:ControllerTest_Complete.c ****     }
 796              		.loc 1 659 0
 797 005c 00BF     		nop
 798 005e 00E0     		b	.L55
 799              	.L61:
 800              		.loc 1 665 0
 801 0060 00BF     		nop
 802              	.L55:
 666:ControllerTest_Complete.c ****        
 667:ControllerTest_Complete.c **** }
 803              		.loc 1 667 0
 804 0062 BD46     		mov	sp, r7
 805              		.cfi_def_cfa_register 13
 806              		@ sp needed
 807 0064 80BC     		pop	{r7}
 808              		.cfi_restore 7
 809              		.cfi_def_cfa_offset 0
 810 0066 7047     		bx	lr
 811              	.L63:
 812              		.align	2
 813              	.L62:
 814 0068 CC000000 		.word	CTest_20ms_isr_count
 815 006c 00000000 		.word	CurrentTest
 816 0070 00000000 		.word	CTest_Complete_TimeoutCount
 817 0074 CE000000 		.word	CTest_20ms_isr_EN
 818 0078 D4000000 		.word	CTest_CompleteStatus
 819              		.cfi_endproc
 820              	.LFE65:
 821              		.size	CTest_Complete_20ms_isr, .-CTest_Complete_20ms_isr
 822              		.section	.text.CTest_Complete_50ms_isr,"ax",%progbits
 823              		.align	2
 824              		.global	CTest_Complete_50ms_isr
 825              		.thumb
 826              		.thumb_func
 827              		.type	CTest_Complete_50ms_isr, %function
 828              	CTest_Complete_50ms_isr:
 829              	.LFB66:
 668:ControllerTest_Complete.c **** 
 669:ControllerTest_Complete.c **** void CTest_Complete_50ms_isr(void)
 670:ControllerTest_Complete.c **** {
 830              		.loc 1 670 0
 831              		.cfi_startproc
 832              		@ args = 0, pretend = 0, frame = 0
 833              		@ frame_needed = 1, uses_anonymous_args = 0
 834 0000 80B5     		push	{r7, lr}
 835              		.cfi_def_cfa_offset 8
 836              		.cfi_offset 7, -8
 837              		.cfi_offset 14, -4
 838 0002 00AF     		add	r7, sp, #0
 839              		.cfi_def_cfa_register 7
 671:ControllerTest_Complete.c ****     
 672:ControllerTest_Complete.c ****     CTest_Complete_sendDiagPacket();                             // Send diagnostic packet to termi
ARM GAS  C:\Users\MARTHN~1\AppData\Local\Temp\cc34Bihf.s 			page 28


 840              		.loc 1 672 0
 841 0004 FFF7FEFF 		bl	CTest_Complete_sendDiagPacket
 673:ControllerTest_Complete.c **** //    pRxPacket_Controller = getRxPacket_Controller();  
 674:ControllerTest_Complete.c **** //    UART_115200_WriteTxData(pRxPacket_Controller->Payload.PowerState + 48);
 675:ControllerTest_Complete.c **** //    UART_115200_WriteTxData('\r');
 676:ControllerTest_Complete.c **** //    UART_115200_WriteTxData('\n');
 677:ControllerTest_Complete.c ****     
 678:ControllerTest_Complete.c ****     
 679:ControllerTest_Complete.c ****     sendPacket_OBDII();
 842              		.loc 1 679 0
 843 0008 FFF7FEFF 		bl	sendPacket_OBDII
 680:ControllerTest_Complete.c **** 
 681:ControllerTest_Complete.c ****     if( (CurrentTest.TestStep == INITIALIZE_TEST) ||    // Send packet to controller if it applies 
 844              		.loc 1 681 0
 845 000c 0A4B     		ldr	r3, .L69
 846 000e 5B78     		ldrb	r3, [r3, #1]	@ zero_extendqisi2
 847 0010 002B     		cmp	r3, #0
 848 0012 0BD0     		beq	.L65
 682:ControllerTest_Complete.c ****         (CurrentTest.TestStep == CONFIRM_BOOTUP) || 
 849              		.loc 1 682 0 discriminator 1
 850 0014 084B     		ldr	r3, .L69
 851 0016 5B78     		ldrb	r3, [r3, #1]	@ zero_extendqisi2
 681:ControllerTest_Complete.c ****         (CurrentTest.TestStep == CONFIRM_BOOTUP) || 
 852              		.loc 1 681 0 discriminator 1
 853 0018 012B     		cmp	r3, #1
 854 001a 07D0     		beq	.L65
 683:ControllerTest_Complete.c ****         (CurrentTest.TestStep == CONFIG_FILE) ||
 855              		.loc 1 683 0
 856 001c 064B     		ldr	r3, .L69
 857 001e 5B78     		ldrb	r3, [r3, #1]	@ zero_extendqisi2
 682:ControllerTest_Complete.c ****         (CurrentTest.TestStep == CONFIRM_BOOTUP) || 
 858              		.loc 1 682 0
 859 0020 022B     		cmp	r3, #2
 860 0022 03D0     		beq	.L65
 684:ControllerTest_Complete.c ****         (CurrentTest.TestStep == TEST_POWERMODES) )     // This is just to test relay ignition sign
 861              		.loc 1 684 0
 862 0024 044B     		ldr	r3, .L69
 863 0026 5B78     		ldrb	r3, [r3, #1]	@ zero_extendqisi2
 683:ControllerTest_Complete.c ****         (CurrentTest.TestStep == CONFIG_FILE) ||
 864              		.loc 1 683 0
 865 0028 032B     		cmp	r3, #3
 866 002a 02D1     		bne	.L68
 867              	.L65:
 685:ControllerTest_Complete.c ****     {      
 686:ControllerTest_Complete.c ****         //sendPacket_OBDII();
 687:ControllerTest_Complete.c ****         sendPacket_RelayToController();
 868              		.loc 1 687 0
 869 002c FFF7FEFF 		bl	sendPacket_RelayToController
 688:ControllerTest_Complete.c ****     }
 689:ControllerTest_Complete.c **** //    if( (CurrentTest.TestStep == LEDS_RGB) || (CurrentTest.TestStep == PASS) )
 690:ControllerTest_Complete.c **** //    {      
 691:ControllerTest_Complete.c **** //        //sendIgnition_OBDII();
 692:ControllerTest_Complete.c **** //        sendPacket_RelayToController_Test();
 693:ControllerTest_Complete.c **** //    }
 694:ControllerTest_Complete.c ****     
 695:ControllerTest_Complete.c ****     return;    
 870              		.loc 1 695 0
ARM GAS  C:\Users\MARTHN~1\AppData\Local\Temp\cc34Bihf.s 			page 29


 871 0030 00BF     		nop
 872              	.L68:
 873 0032 00BF     		nop
 696:ControllerTest_Complete.c ****     
 697:ControllerTest_Complete.c **** }
 874              		.loc 1 697 0
 875 0034 80BD     		pop	{r7, pc}
 876              	.L70:
 877 0036 00BF     		.align	2
 878              	.L69:
 879 0038 00000000 		.word	CurrentTest
 880              		.cfi_endproc
 881              	.LFE66:
 882              		.size	CTest_Complete_50ms_isr, .-CTest_Complete_50ms_isr
 883              		.section	.text.CTest_Complete_StartAutomatedStep,"ax",%progbits
 884              		.align	2
 885              		.global	CTest_Complete_StartAutomatedStep
 886              		.thumb
 887              		.thumb_func
 888              		.type	CTest_Complete_StartAutomatedStep, %function
 889              	CTest_Complete_StartAutomatedStep:
 890              	.LFB67:
 698:ControllerTest_Complete.c **** 
 699:ControllerTest_Complete.c **** void CTest_Complete_StartAutomatedStep(void)
 700:ControllerTest_Complete.c **** {
 891              		.loc 1 700 0
 892              		.cfi_startproc
 893              		@ args = 0, pretend = 0, frame = 0
 894              		@ frame_needed = 1, uses_anonymous_args = 0
 895              		@ link register save eliminated.
 896 0000 80B4     		push	{r7}
 897              		.cfi_def_cfa_offset 4
 898              		.cfi_offset 7, -4
 899 0002 00AF     		add	r7, sp, #0
 900              		.cfi_def_cfa_register 7
 701:ControllerTest_Complete.c ****     
 702:ControllerTest_Complete.c ****     CTest_CompleteStatus[CurrentTest.TestStep] = 'B';
 901              		.loc 1 702 0
 902 0004 094B     		ldr	r3, .L73
 903 0006 5B78     		ldrb	r3, [r3, #1]	@ zero_extendqisi2
 904 0008 1A46     		mov	r2, r3
 905 000a 094B     		ldr	r3, .L73+4
 906 000c 4221     		movs	r1, #66
 907 000e 9954     		strb	r1, [r3, r2]
 703:ControllerTest_Complete.c ****     CurrentTest.Status = 'B';
 908              		.loc 1 703 0
 909 0010 064B     		ldr	r3, .L73
 910 0012 4222     		movs	r2, #66
 911 0014 9A70     		strb	r2, [r3, #2]
 704:ControllerTest_Complete.c ****     
 705:ControllerTest_Complete.c ****     CTest_20ms_isr_count = 0;
 912              		.loc 1 705 0
 913 0016 074B     		ldr	r3, .L73+8
 914 0018 0022     		movs	r2, #0
 915 001a 1A80     		strh	r2, [r3]	@ movhi
 706:ControllerTest_Complete.c ****     CTest_20ms_isr_EN = 1;
 916              		.loc 1 706 0
ARM GAS  C:\Users\MARTHN~1\AppData\Local\Temp\cc34Bihf.s 			page 30


 917 001c 064B     		ldr	r3, .L73+12
 918 001e 0122     		movs	r2, #1
 919 0020 1A80     		strh	r2, [r3]	@ movhi
 707:ControllerTest_Complete.c ****     
 708:ControllerTest_Complete.c ****     return;
 920              		.loc 1 708 0
 921 0022 00BF     		nop
 709:ControllerTest_Complete.c ****     
 710:ControllerTest_Complete.c **** }
 922              		.loc 1 710 0
 923 0024 BD46     		mov	sp, r7
 924              		.cfi_def_cfa_register 13
 925              		@ sp needed
 926 0026 80BC     		pop	{r7}
 927              		.cfi_restore 7
 928              		.cfi_def_cfa_offset 0
 929 0028 7047     		bx	lr
 930              	.L74:
 931 002a 00BF     		.align	2
 932              	.L73:
 933 002c 00000000 		.word	CurrentTest
 934 0030 D4000000 		.word	CTest_CompleteStatus
 935 0034 CC000000 		.word	CTest_20ms_isr_count
 936 0038 CE000000 		.word	CTest_20ms_isr_EN
 937              		.cfi_endproc
 938              	.LFE67:
 939              		.size	CTest_Complete_StartAutomatedStep, .-CTest_Complete_StartAutomatedStep
 940              		.section	.text.CTest_Complete_StopAutomatedStep,"ax",%progbits
 941              		.align	2
 942              		.global	CTest_Complete_StopAutomatedStep
 943              		.thumb
 944              		.thumb_func
 945              		.type	CTest_Complete_StopAutomatedStep, %function
 946              	CTest_Complete_StopAutomatedStep:
 947              	.LFB68:
 711:ControllerTest_Complete.c **** 
 712:ControllerTest_Complete.c **** void CTest_Complete_StopAutomatedStep(void)
 713:ControllerTest_Complete.c **** {
 948              		.loc 1 713 0
 949              		.cfi_startproc
 950              		@ args = 0, pretend = 0, frame = 0
 951              		@ frame_needed = 1, uses_anonymous_args = 0
 952              		@ link register save eliminated.
 953 0000 80B4     		push	{r7}
 954              		.cfi_def_cfa_offset 4
 955              		.cfi_offset 7, -4
 956 0002 00AF     		add	r7, sp, #0
 957              		.cfi_def_cfa_register 7
 714:ControllerTest_Complete.c ****     
 715:ControllerTest_Complete.c ****     CTest_20ms_isr_EN = 0;
 958              		.loc 1 715 0
 959 0004 0B4B     		ldr	r3, .L79
 960 0006 0022     		movs	r2, #0
 961 0008 1A80     		strh	r2, [r3]	@ movhi
 716:ControllerTest_Complete.c ****     if(CTest_CompleteStatus[CurrentTest.TestStep] != 'F')       // If not failed, then pass
 962              		.loc 1 716 0
 963 000a 0B4B     		ldr	r3, .L79+4
ARM GAS  C:\Users\MARTHN~1\AppData\Local\Temp\cc34Bihf.s 			page 31


 964 000c 5B78     		ldrb	r3, [r3, #1]	@ zero_extendqisi2
 965 000e 1A46     		mov	r2, r3
 966 0010 0A4B     		ldr	r3, .L79+8
 967 0012 9B5C     		ldrb	r3, [r3, r2]	@ zero_extendqisi2
 968 0014 462B     		cmp	r3, #70
 969 0016 09D0     		beq	.L78
 717:ControllerTest_Complete.c ****     {
 718:ControllerTest_Complete.c ****         CTest_CompleteStatus[CurrentTest.TestStep] = 'P';
 970              		.loc 1 718 0
 971 0018 074B     		ldr	r3, .L79+4
 972 001a 5B78     		ldrb	r3, [r3, #1]	@ zero_extendqisi2
 973 001c 1A46     		mov	r2, r3
 974 001e 074B     		ldr	r3, .L79+8
 975 0020 5021     		movs	r1, #80
 976 0022 9954     		strb	r1, [r3, r2]
 719:ControllerTest_Complete.c ****         CurrentTest.Status = 'P';
 977              		.loc 1 719 0
 978 0024 044B     		ldr	r3, .L79+4
 979 0026 5022     		movs	r2, #80
 980 0028 9A70     		strb	r2, [r3, #2]
 720:ControllerTest_Complete.c ****     }
 721:ControllerTest_Complete.c ****     
 722:ControllerTest_Complete.c ****     return;
 981              		.loc 1 722 0
 982 002a 00BF     		nop
 983              	.L78:
 984 002c 00BF     		nop
 723:ControllerTest_Complete.c ****     
 724:ControllerTest_Complete.c **** }
 985              		.loc 1 724 0
 986 002e BD46     		mov	sp, r7
 987              		.cfi_def_cfa_register 13
 988              		@ sp needed
 989 0030 80BC     		pop	{r7}
 990              		.cfi_restore 7
 991              		.cfi_def_cfa_offset 0
 992 0032 7047     		bx	lr
 993              	.L80:
 994              		.align	2
 995              	.L79:
 996 0034 CE000000 		.word	CTest_20ms_isr_EN
 997 0038 00000000 		.word	CurrentTest
 998 003c D4000000 		.word	CTest_CompleteStatus
 999              		.cfi_endproc
 1000              	.LFE68:
 1001              		.size	CTest_Complete_StopAutomatedStep, .-CTest_Complete_StopAutomatedStep
 1002              		.bss
 1003              		.align	2
 1004              	CTestStatus_display.7453:
 1005 00dc 00000000 		.space	16
 1005      00000000 
 1005      00000000 
 1005      00000000 
 1006              		.text
 1007              	.Letext0:
 1008              		.file 2 "c:\\program files (x86)\\cypress\\psoc creator\\4.3\\psoc creator\\import\\gnu\\arm\\5.4.
 1009              		.file 3 "c:\\program files (x86)\\cypress\\psoc creator\\4.3\\psoc creator\\import\\gnu\\arm\\5.4.
ARM GAS  C:\Users\MARTHN~1\AppData\Local\Temp\cc34Bihf.s 			page 32


 1010              		.file 4 "Generated_Source\\PSoC5/cytypes.h"
 1011              		.file 5 "CommonVariables.h"
 1012              		.file 6 "UART_460800_Functions.h"
 1013              		.file 7 "UART_230400_Functions.h"
 1014              		.file 8 "Generated_Source\\PSoC5/core_cm3.h"