ARM GAS  C:\Users\MARTHN~1\AppData\Local\Temp\ccOhA3bp.s 			page 1


   1              		.syntax unified
   2              		.cpu cortex-m3
   3              		.fpu softvfp
   4              		.eabi_attribute 20, 1
   5              		.eabi_attribute 21, 1
   6              		.eabi_attribute 23, 3
   7              		.eabi_attribute 24, 1
   8              		.eabi_attribute 25, 1
   9              		.eabi_attribute 26, 1
  10              		.eabi_attribute 30, 6
  11              		.eabi_attribute 34, 1
  12              		.eabi_attribute 18, 4
  13              		.thumb
  14              		.syntax unified
  15              		.file	"Fault.c"
  16              		.text
  17              	.Ltext0:
  18              		.cfi_sections	.debug_frame
  19              		.section	.rodata
  20              		.type	WAIT_TIME_IN_HALF_SECONDS, %object
  21              		.size	WAIT_TIME_IN_HALF_SECONDS, 1
  22              	WAIT_TIME_IN_HALF_SECONDS:
  23 0000 0A       		.byte	10
  24              		.bss
  25              	bOverloadFlag:
  26 0000 00       		.space	1
  27              		.section	.text.isThereOverload,"ax",%progbits
  28              		.align	2
  29              		.global	isThereOverload
  30              		.thumb
  31              		.thumb_func
  32              		.type	isThereOverload, %function
  33              	isThereOverload:
  34              	.LFB63:
  35              		.file 1 "Fault.c"
   1:Fault.c       **** /* ========================================
   2:Fault.c       ****  *
   3:Fault.c       ****  * Copyright YOUR COMPANY, THE YEAR
   4:Fault.c       ****  * All Rights Reserved
   5:Fault.c       ****  * UNPUBLISHED, LICENSED SOFTWARE.
   6:Fault.c       ****  *
   7:Fault.c       ****  * CONFIDENTIAL AND PROPRIETARY INFORMATION
   8:Fault.c       ****  * WHICH IS THE PROPERTY OF your company.
   9:Fault.c       ****  *
  10:Fault.c       ****  * ========================================
  11:Fault.c       **** */
  12:Fault.c       **** 
  13:Fault.c       **** /**********PREPROCESSOR DIRECTIVES**********/
  14:Fault.c       **** #include "CommonVariables.h"
  15:Fault.c       **** #include "Fault.h"
  16:Fault.c       **** #include "Tones.h"
  17:Fault.c       **** #include "DACaudio.h"
  18:Fault.c       **** 
  19:Fault.c       **** /**********DEFINED CONSTANTS**********/
  20:Fault.c       **** static const uint8 WAIT_TIME_IN_HALF_SECONDS = 10;
  21:Fault.c       **** 
  22:Fault.c       **** /**********DATA STRUCTURES**********/
ARM GAS  C:\Users\MARTHN~1\AppData\Local\Temp\ccOhA3bp.s 			page 2


  23:Fault.c       **** 
  24:Fault.c       **** /**********GLOBAL VARIABLES**********/
  25:Fault.c       **** static uint8 bOverloadFlag = false;
  26:Fault.c       **** 
  27:Fault.c       **** /**********FUNCTION PROTOTYPES**********/
  28:Fault.c       **** 
  29:Fault.c       **** /**********DEFINED FUNCTIONS**********/
  30:Fault.c       **** 
  31:Fault.c       **** /*******************************************************************************
  32:Fault.c       **** * Function Name: isThereOverload
  33:Fault.c       **** ********************************************************************************
  34:Fault.c       **** *
  35:Fault.c       **** * Summary:
  36:Fault.c       **** *  Returns the boolean for overload detection
  37:Fault.c       **** *
  38:Fault.c       **** * Parameters:  
  39:Fault.c       **** *   None
  40:Fault.c       **** *
  41:Fault.c       **** * Return:
  42:Fault.c       **** *   The boolean for overload detection
  43:Fault.c       **** *
  44:Fault.c       **** *******************************************************************************/
  45:Fault.c       **** uint8 isThereOverload(void)
  46:Fault.c       **** {   
  36              		.loc 1 46 0
  37              		.cfi_startproc
  38              		@ args = 0, pretend = 0, frame = 0
  39              		@ frame_needed = 1, uses_anonymous_args = 0
  40              		@ link register save eliminated.
  41 0000 80B4     		push	{r7}
  42              		.cfi_def_cfa_offset 4
  43              		.cfi_offset 7, -4
  44 0002 00AF     		add	r7, sp, #0
  45              		.cfi_def_cfa_register 7
  47:Fault.c       ****     return bOverloadFlag;
  46              		.loc 1 47 0
  47 0004 024B     		ldr	r3, .L3
  48 0006 1B78     		ldrb	r3, [r3]	@ zero_extendqisi2
  48:Fault.c       **** }
  49              		.loc 1 48 0
  50 0008 1846     		mov	r0, r3
  51 000a BD46     		mov	sp, r7
  52              		.cfi_def_cfa_register 13
  53              		@ sp needed
  54 000c 80BC     		pop	{r7}
  55              		.cfi_restore 7
  56              		.cfi_def_cfa_offset 0
  57 000e 7047     		bx	lr
  58              	.L4:
  59              		.align	2
  60              	.L3:
  61 0010 00000000 		.word	bOverloadFlag
  62              		.cfi_endproc
  63              	.LFE63:
  64              		.size	isThereOverload, .-isThereOverload
  65              		.section	.text.processOverloadRoutine,"ax",%progbits
  66              		.align	2
ARM GAS  C:\Users\MARTHN~1\AppData\Local\Temp\ccOhA3bp.s 			page 3


  67              		.global	processOverloadRoutine
  68              		.thumb
  69              		.thumb_func
  70              		.type	processOverloadRoutine, %function
  71              	processOverloadRoutine:
  72              	.LFB64:
  49:Fault.c       **** 
  50:Fault.c       **** /*******************************************************************************
  51:Fault.c       **** * Function Name: processOverloadRoutine
  52:Fault.c       **** ********************************************************************************
  53:Fault.c       **** *
  54:Fault.c       **** * Summary:
  55:Fault.c       **** *  Waits for overload signal to clear before restarting the siren system,
  56:Fault.c       **** *  called in main
  57:Fault.c       **** *
  58:Fault.c       **** * Parameters:  
  59:Fault.c       **** *   None
  60:Fault.c       **** *
  61:Fault.c       **** * Return:
  62:Fault.c       **** *   None
  63:Fault.c       **** *
  64:Fault.c       **** *******************************************************************************/
  65:Fault.c       **** void processOverloadRoutine(void)
  66:Fault.c       **** {
  73              		.loc 1 66 0
  74              		.cfi_startproc
  75              		@ args = 0, pretend = 0, frame = 8
  76              		@ frame_needed = 1, uses_anonymous_args = 0
  77 0000 80B5     		push	{r7, lr}
  78              		.cfi_def_cfa_offset 8
  79              		.cfi_offset 7, -8
  80              		.cfi_offset 14, -4
  81 0002 82B0     		sub	sp, sp, #8
  82              		.cfi_def_cfa_offset 16
  83 0004 00AF     		add	r7, sp, #0
  84              		.cfi_def_cfa_register 7
  67:Fault.c       ****     uint8 index = 0;
  85              		.loc 1 67 0
  86 0006 0023     		movs	r3, #0
  87 0008 FB71     		strb	r3, [r7, #7]
  68:Fault.c       ****     CyGlobalIntDisable;
  88              		.loc 1 68 0
  89              		.syntax unified
  90              	@ 68 "Fault.c" 1
  91 000a 72B6     		CPSID   i
  92              	@ 0 "" 2
  69:Fault.c       ****     
  70:Fault.c       ****     while(!OverloadInput1_Read() || !OverloadInput2_Read())
  93              		.loc 1 70 0
  94              		.thumb
  95              		.syntax unified
  96 000c 1AE0     		b	.L6
  97              	.L9:
  98              	.LBB2:
  71:Fault.c       ****     {   //Cannot use do-while loop to prevent cool-down at startup
  72:Fault.c       ****         PowerAmpOutput1_Write(false);
  99              		.loc 1 72 0
ARM GAS  C:\Users\MARTHN~1\AppData\Local\Temp\ccOhA3bp.s 			page 4


 100 000e 0020     		movs	r0, #0
 101 0010 FFF7FEFF 		bl	PowerAmpOutput1_Write
  73:Fault.c       ****         //PowerAmpOutput1_Write(false);
  74:Fault.c       ****         for(index = 0; index < WAIT_TIME_IN_HALF_SECONDS; index++)
 102              		.loc 1 74 0
 103 0014 0023     		movs	r3, #0
 104 0016 FB71     		strb	r3, [r7, #7]
 105 0018 10E0     		b	.L7
 106              	.L8:
  75:Fault.c       ****         {
  76:Fault.c       ****             CyWdtClear();
 107              		.loc 1 76 0 discriminator 3
 108 001a FFF7FEFF 		bl	CyWdtClear
  77:Fault.c       ****             LEDoutput_Write(true);
 109              		.loc 1 77 0 discriminator 3
 110 001e 0120     		movs	r0, #1
 111 0020 FFF7FEFF 		bl	LEDoutput_Write
  78:Fault.c       ****             CyDelay(250);
 112              		.loc 1 78 0 discriminator 3
 113 0024 FA20     		movs	r0, #250
 114 0026 FFF7FEFF 		bl	CyDelay
  79:Fault.c       ****             LEDoutput_Write(false);
 115              		.loc 1 79 0 discriminator 3
 116 002a 0020     		movs	r0, #0
 117 002c FFF7FEFF 		bl	LEDoutput_Write
  80:Fault.c       ****             CyDelay(250);
 118              		.loc 1 80 0 discriminator 3
 119 0030 FA20     		movs	r0, #250
 120 0032 FFF7FEFF 		bl	CyDelay
  74:Fault.c       ****         {
 121              		.loc 1 74 0 discriminator 3
 122 0036 FB79     		ldrb	r3, [r7, #7]	@ zero_extendqisi2
 123 0038 0133     		adds	r3, r3, #1
 124 003a FB71     		strb	r3, [r7, #7]
 125              	.L7:
  74:Fault.c       ****         {
 126              		.loc 1 74 0 is_stmt 0 discriminator 1
 127 003c 0A22     		movs	r2, #10
 128 003e FB79     		ldrb	r3, [r7, #7]	@ zero_extendqisi2
 129 0040 9342     		cmp	r3, r2
 130 0042 EAD3     		bcc	.L8
 131              	.L6:
 132              	.LBE2:
  70:Fault.c       ****     {   //Cannot use do-while loop to prevent cool-down at startup
 133              		.loc 1 70 0 is_stmt 1
 134 0044 FFF7FEFF 		bl	OverloadInput1_Read
 135 0048 0346     		mov	r3, r0
 136 004a 002B     		cmp	r3, #0
 137 004c DFD0     		beq	.L9
  70:Fault.c       ****     {   //Cannot use do-while loop to prevent cool-down at startup
 138              		.loc 1 70 0 is_stmt 0 discriminator 1
 139 004e FFF7FEFF 		bl	OverloadInput2_Read
 140 0052 0346     		mov	r3, r0
 141 0054 002B     		cmp	r3, #0
 142 0056 DAD0     		beq	.L9
  81:Fault.c       ****         }
  82:Fault.c       ****     }
ARM GAS  C:\Users\MARTHN~1\AppData\Local\Temp\ccOhA3bp.s 			page 5


  83:Fault.c       ****     
  84:Fault.c       ****     bOverloadFlag = false;   
 143              		.loc 1 84 0 is_stmt 1
 144 0058 044B     		ldr	r3, .L10
 145 005a 0022     		movs	r2, #0
 146 005c 1A70     		strb	r2, [r3]
  85:Fault.c       ****     RadioMicKeyISR_ClearPending();   
 147              		.loc 1 85 0
 148 005e FFF7FEFF 		bl	RadioMicKeyISR_ClearPending
  86:Fault.c       ****     //ParkKillISR_ClearPending(); 
  87:Fault.c       ****     //TackSwitchISR_ClearPending();
  88:Fault.c       ****     //DualDelayISR_ClearPending();
  89:Fault.c       ****     //HornRingISR_ClearPending();
  90:Fault.c       ****     //ModeStatusISR_ClearPending();
  91:Fault.c       ****     CyGlobalIntEnable;
 149              		.loc 1 91 0
 150              		.syntax unified
 151              	@ 91 "Fault.c" 1
 152 0062 62B6     		CPSIE   i
 153              	@ 0 "" 2
  92:Fault.c       **** }
 154              		.loc 1 92 0
 155              		.thumb
 156              		.syntax unified
 157 0064 00BF     		nop
 158 0066 0837     		adds	r7, r7, #8
 159              		.cfi_def_cfa_offset 8
 160 0068 BD46     		mov	sp, r7
 161              		.cfi_def_cfa_register 13
 162              		@ sp needed
 163 006a 80BD     		pop	{r7, pc}
 164              	.L11:
 165              		.align	2
 166              	.L10:
 167 006c 00000000 		.word	bOverloadFlag
 168              		.cfi_endproc
 169              	.LFE64:
 170              		.size	processOverloadRoutine, .-processOverloadRoutine
 171              		.section	.text.deactivatePoweredFunctions,"ax",%progbits
 172              		.align	2
 173              		.global	deactivatePoweredFunctions
 174              		.thumb
 175              		.thumb_func
 176              		.type	deactivatePoweredFunctions, %function
 177              	deactivatePoweredFunctions:
 178              	.LFB65:
  93:Fault.c       **** 
  94:Fault.c       **** /*******************************************************************************
  95:Fault.c       **** * Function Name: deactivatePoweredFunctions
  96:Fault.c       **** ********************************************************************************
  97:Fault.c       **** *
  98:Fault.c       **** * Summary:
  99:Fault.c       **** *  Turns off PWM, power amps, and tone due to overload detection, called in
 100:Fault.c       **** *  OverloadISR
 101:Fault.c       **** *
 102:Fault.c       **** * Parameters:  
 103:Fault.c       **** *   None
ARM GAS  C:\Users\MARTHN~1\AppData\Local\Temp\ccOhA3bp.s 			page 6


 104:Fault.c       **** *
 105:Fault.c       **** * Return:
 106:Fault.c       **** *   None
 107:Fault.c       **** *
 108:Fault.c       **** *******************************************************************************/
 109:Fault.c       **** void deactivatePoweredFunctions(void)
 110:Fault.c       **** {
 179              		.loc 1 110 0
 180              		.cfi_startproc
 181              		@ args = 0, pretend = 0, frame = 0
 182              		@ frame_needed = 1, uses_anonymous_args = 0
 183 0000 80B5     		push	{r7, lr}
 184              		.cfi_def_cfa_offset 8
 185              		.cfi_offset 7, -8
 186              		.cfi_offset 14, -4
 187 0002 00AF     		add	r7, sp, #0
 188              		.cfi_def_cfa_register 7
 111:Fault.c       ****     CyGlobalIntDisable;    
 189              		.loc 1 111 0
 190              		.syntax unified
 191              	@ 111 "Fault.c" 1
 192 0004 72B6     		CPSID   i
 193              	@ 0 "" 2
 112:Fault.c       ****     PowerAmpOutput1_Write(false);
 194              		.loc 1 112 0
 195              		.thumb
 196              		.syntax unified
 197 0006 0020     		movs	r0, #0
 198 0008 FFF7FEFF 		bl	PowerAmpOutput1_Write
 113:Fault.c       ****     //PowerAmpOutput1_Write(false);
 114:Fault.c       ****     stopPWMTone(SPEAKER_1);
 199              		.loc 1 114 0
 200 000c 0020     		movs	r0, #0
 201 000e FFF7FEFF 		bl	stopPWMTone
 115:Fault.c       ****     stopPWMTone(SPEAKER_2);
 202              		.loc 1 115 0
 203 0012 0120     		movs	r0, #1
 204 0014 FFF7FEFF 		bl	stopPWMTone
 116:Fault.c       ****     stopAudioTone(SPEAKER_1);
 205              		.loc 1 116 0
 206 0018 0020     		movs	r0, #0
 207 001a FFF7FEFF 		bl	stopAudioTone
 117:Fault.c       ****     stopAudioTone(SPEAKER_2);
 208              		.loc 1 117 0
 209 001e 0120     		movs	r0, #1
 210 0020 FFF7FEFF 		bl	stopAudioTone
 118:Fault.c       ****     bOverloadFlag = true;
 211              		.loc 1 118 0
 212 0024 024B     		ldr	r3, .L13
 213 0026 0122     		movs	r2, #1
 214 0028 1A70     		strb	r2, [r3]
 119:Fault.c       **** }
 215              		.loc 1 119 0
 216 002a 00BF     		nop
 217 002c 80BD     		pop	{r7, pc}
 218              	.L14:
 219 002e 00BF     		.align	2
ARM GAS  C:\Users\MARTHN~1\AppData\Local\Temp\ccOhA3bp.s 			page 7


 220              	.L13:
 221 0030 00000000 		.word	bOverloadFlag
 222              		.cfi_endproc
 223              	.LFE65:
 224              		.size	deactivatePoweredFunctions, .-deactivatePoweredFunctions
 225              		.text
 226              	.Letext0:
 227              		.file 2 "c:\\program files (x86)\\cypress\\psoc creator\\4.3\\psoc creator\\import\\gnu\\arm\\5.4.
 228              		.file 3 "c:\\program files (x86)\\cypress\\psoc creator\\4.3\\psoc creator\\import\\gnu\\arm\\5.4.
 229              		.file 4 "Generated_Source\\PSoC5/cytypes.h"
 230              		.file 5 "Generated_Source\\PSoC5/core_cm3.h"