ARM GAS  C:\Users\MARTHN~1\AppData\Local\Temp\ccn9ZVdl.s 			page 1


   1              		.syntax unified
   2              		.cpu cortex-m3
   3              		.fpu softvfp
   4              		.eabi_attribute 20, 1
   5              		.eabi_attribute 21, 1
   6              		.eabi_attribute 23, 3
   7              		.eabi_attribute 24, 1
   8              		.eabi_attribute 25, 1
   9              		.eabi_attribute 26, 1
  10              		.eabi_attribute 30, 6
  11              		.eabi_attribute 34, 1
  12              		.eabi_attribute 18, 4
  13              		.thumb
  14              		.syntax unified
  15              		.file	"I2C_1_SLAVE.c"
  16              		.text
  17              	.Ltext0:
  18              		.cfi_sections	.debug_frame
  19              		.comm	I2C_1_slStatus,1,1
  20              		.comm	I2C_1_slRdBufPtr,4,4
  21              		.comm	I2C_1_slRdBufSize,1,1
  22              		.comm	I2C_1_slRdBufIndex,1,1
  23              		.comm	I2C_1_slWrBufPtr,4,4
  24              		.comm	I2C_1_slWrBufSize,1,1
  25              		.comm	I2C_1_slWrBufIndex,1,1
  26              		.section	.text.I2C_1_SlaveStatus,"ax",%progbits
  27              		.align	2
  28              		.global	I2C_1_SlaveStatus
  29              		.thumb
  30              		.thumb_func
  31              		.type	I2C_1_SlaveStatus, %function
  32              	I2C_1_SlaveStatus:
  33              	.LFB0:
  34              		.file 1 "Generated_Source\\PSoC5\\I2C_1_SLAVE.c"
   1:Generated_Source\PSoC5/I2C_1_SLAVE.c **** /*******************************************************************************
   2:Generated_Source\PSoC5/I2C_1_SLAVE.c **** * File Name: I2C_1_SLAVE.c
   3:Generated_Source\PSoC5/I2C_1_SLAVE.c **** * Version 3.50
   4:Generated_Source\PSoC5/I2C_1_SLAVE.c **** *
   5:Generated_Source\PSoC5/I2C_1_SLAVE.c **** * Description:
   6:Generated_Source\PSoC5/I2C_1_SLAVE.c **** *  This file provides the source code of APIs for the I2C component Slave mode.
   7:Generated_Source\PSoC5/I2C_1_SLAVE.c **** *
   8:Generated_Source\PSoC5/I2C_1_SLAVE.c **** * Note:
   9:Generated_Source\PSoC5/I2C_1_SLAVE.c **** *
  10:Generated_Source\PSoC5/I2C_1_SLAVE.c **** *******************************************************************************
  11:Generated_Source\PSoC5/I2C_1_SLAVE.c **** * Copyright 2012-2015, Cypress Semiconductor Corporation. All rights reserved.
  12:Generated_Source\PSoC5/I2C_1_SLAVE.c **** * You may use this file only in accordance with the license, terms, conditions,
  13:Generated_Source\PSoC5/I2C_1_SLAVE.c **** * disclaimers, and limitations in the end user license agreement accompanying
  14:Generated_Source\PSoC5/I2C_1_SLAVE.c **** * the software package with which this file was provided.
  15:Generated_Source\PSoC5/I2C_1_SLAVE.c **** *******************************************************************************/
  16:Generated_Source\PSoC5/I2C_1_SLAVE.c **** 
  17:Generated_Source\PSoC5/I2C_1_SLAVE.c **** #include "I2C_1_PVT.h"
  18:Generated_Source\PSoC5/I2C_1_SLAVE.c **** 
  19:Generated_Source\PSoC5/I2C_1_SLAVE.c **** #if (I2C_1_MODE_SLAVE_ENABLED)
  20:Generated_Source\PSoC5/I2C_1_SLAVE.c **** 
  21:Generated_Source\PSoC5/I2C_1_SLAVE.c **** /**********************************
  22:Generated_Source\PSoC5/I2C_1_SLAVE.c **** *      System variables
  23:Generated_Source\PSoC5/I2C_1_SLAVE.c **** **********************************/
ARM GAS  C:\Users\MARTHN~1\AppData\Local\Temp\ccn9ZVdl.s 			page 2


  24:Generated_Source\PSoC5/I2C_1_SLAVE.c **** 
  25:Generated_Source\PSoC5/I2C_1_SLAVE.c **** volatile uint8 I2C_1_slStatus;   /* Slave Status  */
  26:Generated_Source\PSoC5/I2C_1_SLAVE.c **** 
  27:Generated_Source\PSoC5/I2C_1_SLAVE.c **** /* Transmit buffer variables */
  28:Generated_Source\PSoC5/I2C_1_SLAVE.c **** volatile uint8 * I2C_1_slRdBufPtr;   /* Pointer to Transmit buffer  */
  29:Generated_Source\PSoC5/I2C_1_SLAVE.c **** volatile uint8   I2C_1_slRdBufSize;  /* Slave Transmit buffer size  */
  30:Generated_Source\PSoC5/I2C_1_SLAVE.c **** volatile uint8   I2C_1_slRdBufIndex; /* Slave Transmit buffer Index */
  31:Generated_Source\PSoC5/I2C_1_SLAVE.c **** 
  32:Generated_Source\PSoC5/I2C_1_SLAVE.c **** /* Receive buffer variables */
  33:Generated_Source\PSoC5/I2C_1_SLAVE.c **** volatile uint8 * I2C_1_slWrBufPtr;   /* Pointer to Receive buffer  */
  34:Generated_Source\PSoC5/I2C_1_SLAVE.c **** volatile uint8   I2C_1_slWrBufSize;  /* Slave Receive buffer size  */
  35:Generated_Source\PSoC5/I2C_1_SLAVE.c **** volatile uint8   I2C_1_slWrBufIndex; /* Slave Receive buffer Index */
  36:Generated_Source\PSoC5/I2C_1_SLAVE.c **** 
  37:Generated_Source\PSoC5/I2C_1_SLAVE.c **** #if (I2C_1_SW_ADRR_DECODE)
  38:Generated_Source\PSoC5/I2C_1_SLAVE.c ****     volatile uint8 I2C_1_slAddress;  /* Software address variable */
  39:Generated_Source\PSoC5/I2C_1_SLAVE.c **** #endif /* (I2C_1_SW_ADRR_DECODE) */
  40:Generated_Source\PSoC5/I2C_1_SLAVE.c **** 
  41:Generated_Source\PSoC5/I2C_1_SLAVE.c **** 
  42:Generated_Source\PSoC5/I2C_1_SLAVE.c **** /*******************************************************************************
  43:Generated_Source\PSoC5/I2C_1_SLAVE.c **** * Function Name: I2C_1_SlaveStatus
  44:Generated_Source\PSoC5/I2C_1_SLAVE.c **** ********************************************************************************
  45:Generated_Source\PSoC5/I2C_1_SLAVE.c **** *
  46:Generated_Source\PSoC5/I2C_1_SLAVE.c **** * Summary:
  47:Generated_Source\PSoC5/I2C_1_SLAVE.c **** *  Returns I2C slave's communication status.
  48:Generated_Source\PSoC5/I2C_1_SLAVE.c **** *
  49:Generated_Source\PSoC5/I2C_1_SLAVE.c **** * Parameters:
  50:Generated_Source\PSoC5/I2C_1_SLAVE.c **** *  None.
  51:Generated_Source\PSoC5/I2C_1_SLAVE.c **** *
  52:Generated_Source\PSoC5/I2C_1_SLAVE.c **** * Return:
  53:Generated_Source\PSoC5/I2C_1_SLAVE.c **** *  Current status of I2C slave.
  54:Generated_Source\PSoC5/I2C_1_SLAVE.c **** *
  55:Generated_Source\PSoC5/I2C_1_SLAVE.c **** * Global variables:
  56:Generated_Source\PSoC5/I2C_1_SLAVE.c **** *  I2C_1_slStatus - The global variable used to store a current
  57:Generated_Source\PSoC5/I2C_1_SLAVE.c **** *                              status of the I2C slave.
  58:Generated_Source\PSoC5/I2C_1_SLAVE.c **** *
  59:Generated_Source\PSoC5/I2C_1_SLAVE.c **** *******************************************************************************/
  60:Generated_Source\PSoC5/I2C_1_SLAVE.c **** uint8 I2C_1_SlaveStatus(void) 
  61:Generated_Source\PSoC5/I2C_1_SLAVE.c **** {
  35              		.loc 1 61 0
  36              		.cfi_startproc
  37              		@ args = 0, pretend = 0, frame = 0
  38              		@ frame_needed = 1, uses_anonymous_args = 0
  39              		@ link register save eliminated.
  40 0000 80B4     		push	{r7}
  41              		.cfi_def_cfa_offset 4
  42              		.cfi_offset 7, -4
  43 0002 00AF     		add	r7, sp, #0
  44              		.cfi_def_cfa_register 7
  62:Generated_Source\PSoC5/I2C_1_SLAVE.c ****     return (I2C_1_slStatus);
  45              		.loc 1 62 0
  46 0004 034B     		ldr	r3, .L3
  47 0006 1B78     		ldrb	r3, [r3]
  48 0008 DBB2     		uxtb	r3, r3
  63:Generated_Source\PSoC5/I2C_1_SLAVE.c **** }
  49              		.loc 1 63 0
  50 000a 1846     		mov	r0, r3
  51 000c BD46     		mov	sp, r7
ARM GAS  C:\Users\MARTHN~1\AppData\Local\Temp\ccn9ZVdl.s 			page 3


  52              		.cfi_def_cfa_register 13
  53              		@ sp needed
  54 000e 80BC     		pop	{r7}
  55              		.cfi_restore 7
  56              		.cfi_def_cfa_offset 0
  57 0010 7047     		bx	lr
  58              	.L4:
  59 0012 00BF     		.align	2
  60              	.L3:
  61 0014 00000000 		.word	I2C_1_slStatus
  62              		.cfi_endproc
  63              	.LFE0:
  64              		.size	I2C_1_SlaveStatus, .-I2C_1_SlaveStatus
  65              		.section	.text.I2C_1_SlaveClearReadStatus,"ax",%progbits
  66              		.align	2
  67              		.global	I2C_1_SlaveClearReadStatus
  68              		.thumb
  69              		.thumb_func
  70              		.type	I2C_1_SlaveClearReadStatus, %function
  71              	I2C_1_SlaveClearReadStatus:
  72              	.LFB1:
  64:Generated_Source\PSoC5/I2C_1_SLAVE.c **** 
  65:Generated_Source\PSoC5/I2C_1_SLAVE.c **** 
  66:Generated_Source\PSoC5/I2C_1_SLAVE.c **** /*******************************************************************************
  67:Generated_Source\PSoC5/I2C_1_SLAVE.c **** * Function Name: I2C_1_SlaveClearReadStatus
  68:Generated_Source\PSoC5/I2C_1_SLAVE.c **** ********************************************************************************
  69:Generated_Source\PSoC5/I2C_1_SLAVE.c **** *
  70:Generated_Source\PSoC5/I2C_1_SLAVE.c **** * Summary:
  71:Generated_Source\PSoC5/I2C_1_SLAVE.c **** *  Clears the read status flags and returns they values.
  72:Generated_Source\PSoC5/I2C_1_SLAVE.c **** *  The I2C_1_SSTAT_RD_BUSY flag is not effected by clear.
  73:Generated_Source\PSoC5/I2C_1_SLAVE.c **** *
  74:Generated_Source\PSoC5/I2C_1_SLAVE.c **** * Parameters:
  75:Generated_Source\PSoC5/I2C_1_SLAVE.c **** *  None.
  76:Generated_Source\PSoC5/I2C_1_SLAVE.c **** *
  77:Generated_Source\PSoC5/I2C_1_SLAVE.c **** * Return:
  78:Generated_Source\PSoC5/I2C_1_SLAVE.c **** *  Current read status of I2C slave.
  79:Generated_Source\PSoC5/I2C_1_SLAVE.c **** *
  80:Generated_Source\PSoC5/I2C_1_SLAVE.c **** * Global variables:
  81:Generated_Source\PSoC5/I2C_1_SLAVE.c **** *  I2C_1_slStatus - The global variable used to store a current
  82:Generated_Source\PSoC5/I2C_1_SLAVE.c **** *                              status of the I2C slave.
  83:Generated_Source\PSoC5/I2C_1_SLAVE.c **** *
  84:Generated_Source\PSoC5/I2C_1_SLAVE.c **** * Reentrant:
  85:Generated_Source\PSoC5/I2C_1_SLAVE.c **** *  No.
  86:Generated_Source\PSoC5/I2C_1_SLAVE.c **** *
  87:Generated_Source\PSoC5/I2C_1_SLAVE.c **** *******************************************************************************/
  88:Generated_Source\PSoC5/I2C_1_SLAVE.c **** uint8 I2C_1_SlaveClearReadStatus(void) 
  89:Generated_Source\PSoC5/I2C_1_SLAVE.c **** {
  73              		.loc 1 89 0
  74              		.cfi_startproc
  75              		@ args = 0, pretend = 0, frame = 8
  76              		@ frame_needed = 1, uses_anonymous_args = 0
  77              		@ link register save eliminated.
  78 0000 80B4     		push	{r7}
  79              		.cfi_def_cfa_offset 4
  80              		.cfi_offset 7, -4
  81 0002 83B0     		sub	sp, sp, #12
  82              		.cfi_def_cfa_offset 16
ARM GAS  C:\Users\MARTHN~1\AppData\Local\Temp\ccn9ZVdl.s 			page 4


  83 0004 00AF     		add	r7, sp, #0
  84              		.cfi_def_cfa_register 7
  90:Generated_Source\PSoC5/I2C_1_SLAVE.c ****     uint8 status;
  91:Generated_Source\PSoC5/I2C_1_SLAVE.c **** 
  92:Generated_Source\PSoC5/I2C_1_SLAVE.c ****     I2C_1_DisableInt(); /* Lock from interrupt */
  85              		.loc 1 92 0
  86 0006 0E4B     		ldr	r3, .L7
  87 0008 4FF40042 		mov	r2, #32768
  88 000c 1A60     		str	r2, [r3]
  93:Generated_Source\PSoC5/I2C_1_SLAVE.c **** 
  94:Generated_Source\PSoC5/I2C_1_SLAVE.c ****     /* Mask of transfer complete flag and Error status */
  95:Generated_Source\PSoC5/I2C_1_SLAVE.c ****     status = (I2C_1_slStatus & I2C_1_SSTAT_RD_MASK);
  89              		.loc 1 95 0
  90 000e 0D4B     		ldr	r3, .L7+4
  91 0010 1B78     		ldrb	r3, [r3]
  92 0012 DBB2     		uxtb	r3, r3
  93 0014 03F00F03 		and	r3, r3, #15
  94 0018 FB71     		strb	r3, [r7, #7]
  96:Generated_Source\PSoC5/I2C_1_SLAVE.c ****     I2C_1_slStatus &= (uint8) ~I2C_1_SSTAT_RD_CLEAR;
  95              		.loc 1 96 0
  96 001a 0A4B     		ldr	r3, .L7+4
  97 001c 1B78     		ldrb	r3, [r3]
  98 001e DBB2     		uxtb	r3, r3
  99 0020 23F00D03 		bic	r3, r3, #13
 100 0024 DAB2     		uxtb	r2, r3
 101 0026 074B     		ldr	r3, .L7+4
 102 0028 1A70     		strb	r2, [r3]
  97:Generated_Source\PSoC5/I2C_1_SLAVE.c **** 
  98:Generated_Source\PSoC5/I2C_1_SLAVE.c ****     I2C_1_EnableInt(); /* Release lock */
 103              		.loc 1 98 0
 104 002a 074B     		ldr	r3, .L7+8
 105 002c 4FF40042 		mov	r2, #32768
 106 0030 1A60     		str	r2, [r3]
  99:Generated_Source\PSoC5/I2C_1_SLAVE.c **** 
 100:Generated_Source\PSoC5/I2C_1_SLAVE.c ****     return (status);
 107              		.loc 1 100 0
 108 0032 FB79     		ldrb	r3, [r7, #7]	@ zero_extendqisi2
 101:Generated_Source\PSoC5/I2C_1_SLAVE.c **** }
 109              		.loc 1 101 0
 110 0034 1846     		mov	r0, r3
 111 0036 0C37     		adds	r7, r7, #12
 112              		.cfi_def_cfa_offset 4
 113 0038 BD46     		mov	sp, r7
 114              		.cfi_def_cfa_register 13
 115              		@ sp needed
 116 003a 80BC     		pop	{r7}
 117              		.cfi_restore 7
 118              		.cfi_def_cfa_offset 0
 119 003c 7047     		bx	lr
 120              	.L8:
 121 003e 00BF     		.align	2
 122              	.L7:
 123 0040 80E100E0 		.word	-536813184
 124 0044 00000000 		.word	I2C_1_slStatus
 125 0048 00E100E0 		.word	-536813312
 126              		.cfi_endproc
 127              	.LFE1:
ARM GAS  C:\Users\MARTHN~1\AppData\Local\Temp\ccn9ZVdl.s 			page 5


 128              		.size	I2C_1_SlaveClearReadStatus, .-I2C_1_SlaveClearReadStatus
 129              		.section	.text.I2C_1_SlaveClearWriteStatus,"ax",%progbits
 130              		.align	2
 131              		.global	I2C_1_SlaveClearWriteStatus
 132              		.thumb
 133              		.thumb_func
 134              		.type	I2C_1_SlaveClearWriteStatus, %function
 135              	I2C_1_SlaveClearWriteStatus:
 136              	.LFB2:
 102:Generated_Source\PSoC5/I2C_1_SLAVE.c **** 
 103:Generated_Source\PSoC5/I2C_1_SLAVE.c **** 
 104:Generated_Source\PSoC5/I2C_1_SLAVE.c **** /*******************************************************************************
 105:Generated_Source\PSoC5/I2C_1_SLAVE.c **** * Function Name: I2C_1_SlaveClearWriteStatus
 106:Generated_Source\PSoC5/I2C_1_SLAVE.c **** ********************************************************************************
 107:Generated_Source\PSoC5/I2C_1_SLAVE.c **** *
 108:Generated_Source\PSoC5/I2C_1_SLAVE.c **** * Summary:
 109:Generated_Source\PSoC5/I2C_1_SLAVE.c **** *  Clears the write status flags and returns they values.
 110:Generated_Source\PSoC5/I2C_1_SLAVE.c **** *  The I2C_1_SSTAT_WR_BUSY flag is not effected by clear.
 111:Generated_Source\PSoC5/I2C_1_SLAVE.c **** *
 112:Generated_Source\PSoC5/I2C_1_SLAVE.c **** * Parameters:
 113:Generated_Source\PSoC5/I2C_1_SLAVE.c **** *  None.
 114:Generated_Source\PSoC5/I2C_1_SLAVE.c **** *
 115:Generated_Source\PSoC5/I2C_1_SLAVE.c **** * Return:
 116:Generated_Source\PSoC5/I2C_1_SLAVE.c **** *  Current write status of I2C slave.
 117:Generated_Source\PSoC5/I2C_1_SLAVE.c **** *
 118:Generated_Source\PSoC5/I2C_1_SLAVE.c **** * Global variables:
 119:Generated_Source\PSoC5/I2C_1_SLAVE.c **** *  I2C_1_slStatus - The global variable used to store a current
 120:Generated_Source\PSoC5/I2C_1_SLAVE.c **** *                              status of the I2C slave.
 121:Generated_Source\PSoC5/I2C_1_SLAVE.c **** *
 122:Generated_Source\PSoC5/I2C_1_SLAVE.c **** * Reentrant:
 123:Generated_Source\PSoC5/I2C_1_SLAVE.c **** *  No.
 124:Generated_Source\PSoC5/I2C_1_SLAVE.c **** *
 125:Generated_Source\PSoC5/I2C_1_SLAVE.c **** *******************************************************************************/
 126:Generated_Source\PSoC5/I2C_1_SLAVE.c **** uint8 I2C_1_SlaveClearWriteStatus(void) 
 127:Generated_Source\PSoC5/I2C_1_SLAVE.c **** {
 137              		.loc 1 127 0
 138              		.cfi_startproc
 139              		@ args = 0, pretend = 0, frame = 8
 140              		@ frame_needed = 1, uses_anonymous_args = 0
 141              		@ link register save eliminated.
 142 0000 80B4     		push	{r7}
 143              		.cfi_def_cfa_offset 4
 144              		.cfi_offset 7, -4
 145 0002 83B0     		sub	sp, sp, #12
 146              		.cfi_def_cfa_offset 16
 147 0004 00AF     		add	r7, sp, #0
 148              		.cfi_def_cfa_register 7
 128:Generated_Source\PSoC5/I2C_1_SLAVE.c ****     uint8 status;
 129:Generated_Source\PSoC5/I2C_1_SLAVE.c **** 
 130:Generated_Source\PSoC5/I2C_1_SLAVE.c ****     I2C_1_DisableInt(); /* Lock from interrupt */
 149              		.loc 1 130 0
 150 0006 0E4B     		ldr	r3, .L11
 151 0008 4FF40042 		mov	r2, #32768
 152 000c 1A60     		str	r2, [r3]
 131:Generated_Source\PSoC5/I2C_1_SLAVE.c **** 
 132:Generated_Source\PSoC5/I2C_1_SLAVE.c ****     /* Mask of transfer complete flag and Error status */
 133:Generated_Source\PSoC5/I2C_1_SLAVE.c ****     status = (I2C_1_slStatus & I2C_1_SSTAT_WR_MASK);
ARM GAS  C:\Users\MARTHN~1\AppData\Local\Temp\ccn9ZVdl.s 			page 6


 153              		.loc 1 133 0
 154 000e 0D4B     		ldr	r3, .L11+4
 155 0010 1B78     		ldrb	r3, [r3]
 156 0012 DBB2     		uxtb	r3, r3
 157 0014 23F00F03 		bic	r3, r3, #15
 158 0018 FB71     		strb	r3, [r7, #7]
 134:Generated_Source\PSoC5/I2C_1_SLAVE.c ****     I2C_1_slStatus &= (uint8) ~I2C_1_SSTAT_WR_CLEAR;
 159              		.loc 1 134 0
 160 001a 0A4B     		ldr	r3, .L11+4
 161 001c 1B78     		ldrb	r3, [r3]
 162 001e DBB2     		uxtb	r3, r3
 163 0020 03F02F03 		and	r3, r3, #47
 164 0024 DAB2     		uxtb	r2, r3
 165 0026 074B     		ldr	r3, .L11+4
 166 0028 1A70     		strb	r2, [r3]
 135:Generated_Source\PSoC5/I2C_1_SLAVE.c **** 
 136:Generated_Source\PSoC5/I2C_1_SLAVE.c ****     I2C_1_EnableInt(); /* Release lock */
 167              		.loc 1 136 0
 168 002a 074B     		ldr	r3, .L11+8
 169 002c 4FF40042 		mov	r2, #32768
 170 0030 1A60     		str	r2, [r3]
 137:Generated_Source\PSoC5/I2C_1_SLAVE.c **** 
 138:Generated_Source\PSoC5/I2C_1_SLAVE.c ****     return (status);
 171              		.loc 1 138 0
 172 0032 FB79     		ldrb	r3, [r7, #7]	@ zero_extendqisi2
 139:Generated_Source\PSoC5/I2C_1_SLAVE.c **** }
 173              		.loc 1 139 0
 174 0034 1846     		mov	r0, r3
 175 0036 0C37     		adds	r7, r7, #12
 176              		.cfi_def_cfa_offset 4
 177 0038 BD46     		mov	sp, r7
 178              		.cfi_def_cfa_register 13
 179              		@ sp needed
 180 003a 80BC     		pop	{r7}
 181              		.cfi_restore 7
 182              		.cfi_def_cfa_offset 0
 183 003c 7047     		bx	lr
 184              	.L12:
 185 003e 00BF     		.align	2
 186              	.L11:
 187 0040 80E100E0 		.word	-536813184
 188 0044 00000000 		.word	I2C_1_slStatus
 189 0048 00E100E0 		.word	-536813312
 190              		.cfi_endproc
 191              	.LFE2:
 192              		.size	I2C_1_SlaveClearWriteStatus, .-I2C_1_SlaveClearWriteStatus
 193              		.section	.text.I2C_1_SlaveSetAddress,"ax",%progbits
 194              		.align	2
 195              		.global	I2C_1_SlaveSetAddress
 196              		.thumb
 197              		.thumb_func
 198              		.type	I2C_1_SlaveSetAddress, %function
 199              	I2C_1_SlaveSetAddress:
 200              	.LFB3:
 140:Generated_Source\PSoC5/I2C_1_SLAVE.c **** 
 141:Generated_Source\PSoC5/I2C_1_SLAVE.c **** 
 142:Generated_Source\PSoC5/I2C_1_SLAVE.c **** /*******************************************************************************
ARM GAS  C:\Users\MARTHN~1\AppData\Local\Temp\ccn9ZVdl.s 			page 7


 143:Generated_Source\PSoC5/I2C_1_SLAVE.c **** * Function Name: I2C_1_SlaveSetAddress
 144:Generated_Source\PSoC5/I2C_1_SLAVE.c **** ********************************************************************************
 145:Generated_Source\PSoC5/I2C_1_SLAVE.c **** *
 146:Generated_Source\PSoC5/I2C_1_SLAVE.c **** * Summary:
 147:Generated_Source\PSoC5/I2C_1_SLAVE.c **** *  Sets the I2C slave address.
 148:Generated_Source\PSoC5/I2C_1_SLAVE.c **** *
 149:Generated_Source\PSoC5/I2C_1_SLAVE.c **** * Parameters:
 150:Generated_Source\PSoC5/I2C_1_SLAVE.c **** *  address: I2C slave address for the primary device. This value may be any
 151:Generated_Source\PSoC5/I2C_1_SLAVE.c **** *  address between 0 and 127.
 152:Generated_Source\PSoC5/I2C_1_SLAVE.c **** *
 153:Generated_Source\PSoC5/I2C_1_SLAVE.c **** * Return:
 154:Generated_Source\PSoC5/I2C_1_SLAVE.c **** *  None.
 155:Generated_Source\PSoC5/I2C_1_SLAVE.c **** *
 156:Generated_Source\PSoC5/I2C_1_SLAVE.c **** * Global variables:
 157:Generated_Source\PSoC5/I2C_1_SLAVE.c **** *  I2C_1_Address  - The global variable used to store an I2C slave
 158:Generated_Source\PSoC5/I2C_1_SLAVE.c **** *                              address for the primary device when the software
 159:Generated_Source\PSoC5/I2C_1_SLAVE.c **** *                              address detect feature is used.
 160:Generated_Source\PSoC5/I2C_1_SLAVE.c **** *
 161:Generated_Source\PSoC5/I2C_1_SLAVE.c **** * Reentrant:
 162:Generated_Source\PSoC5/I2C_1_SLAVE.c **** *  No.
 163:Generated_Source\PSoC5/I2C_1_SLAVE.c **** *
 164:Generated_Source\PSoC5/I2C_1_SLAVE.c **** *******************************************************************************/
 165:Generated_Source\PSoC5/I2C_1_SLAVE.c **** void I2C_1_SlaveSetAddress(uint8 address) 
 166:Generated_Source\PSoC5/I2C_1_SLAVE.c **** {
 201              		.loc 1 166 0
 202              		.cfi_startproc
 203              		@ args = 0, pretend = 0, frame = 8
 204              		@ frame_needed = 1, uses_anonymous_args = 0
 205              		@ link register save eliminated.
 206 0000 80B4     		push	{r7}
 207              		.cfi_def_cfa_offset 4
 208              		.cfi_offset 7, -4
 209 0002 83B0     		sub	sp, sp, #12
 210              		.cfi_def_cfa_offset 16
 211 0004 00AF     		add	r7, sp, #0
 212              		.cfi_def_cfa_register 7
 213 0006 0346     		mov	r3, r0
 214 0008 FB71     		strb	r3, [r7, #7]
 167:Generated_Source\PSoC5/I2C_1_SLAVE.c **** #if (I2C_1_SW_ADRR_DECODE)
 168:Generated_Source\PSoC5/I2C_1_SLAVE.c ****     I2C_1_slAddress = (address & I2C_1_SLAVE_ADDR_MASK);
 169:Generated_Source\PSoC5/I2C_1_SLAVE.c **** #else
 170:Generated_Source\PSoC5/I2C_1_SLAVE.c ****     I2C_1_ADDR_REG  = (address & I2C_1_SLAVE_ADDR_MASK);
 215              		.loc 1 170 0
 216 000a 054A     		ldr	r2, .L14
 217 000c FB79     		ldrb	r3, [r7, #7]
 218 000e 03F07F03 		and	r3, r3, #127
 219 0012 DBB2     		uxtb	r3, r3
 220 0014 1370     		strb	r3, [r2]
 171:Generated_Source\PSoC5/I2C_1_SLAVE.c **** #endif /* (I2C_1_SW_ADRR_DECODE) */
 172:Generated_Source\PSoC5/I2C_1_SLAVE.c **** }
 221              		.loc 1 172 0
 222 0016 00BF     		nop
 223 0018 0C37     		adds	r7, r7, #12
 224              		.cfi_def_cfa_offset 4
 225 001a BD46     		mov	sp, r7
 226              		.cfi_def_cfa_register 13
 227              		@ sp needed
ARM GAS  C:\Users\MARTHN~1\AppData\Local\Temp\ccn9ZVdl.s 			page 8


 228 001c 80BC     		pop	{r7}
 229              		.cfi_restore 7
 230              		.cfi_def_cfa_offset 0
 231 001e 7047     		bx	lr
 232              	.L15:
 233              		.align	2
 234              	.L14:
 235 0020 CA490040 		.word	1073760714
 236              		.cfi_endproc
 237              	.LFE3:
 238              		.size	I2C_1_SlaveSetAddress, .-I2C_1_SlaveSetAddress
 239              		.section	.text.I2C_1_SlaveInitReadBuf,"ax",%progbits
 240              		.align	2
 241              		.global	I2C_1_SlaveInitReadBuf
 242              		.thumb
 243              		.thumb_func
 244              		.type	I2C_1_SlaveInitReadBuf, %function
 245              	I2C_1_SlaveInitReadBuf:
 246              	.LFB4:
 173:Generated_Source\PSoC5/I2C_1_SLAVE.c **** 
 174:Generated_Source\PSoC5/I2C_1_SLAVE.c **** 
 175:Generated_Source\PSoC5/I2C_1_SLAVE.c **** /*******************************************************************************
 176:Generated_Source\PSoC5/I2C_1_SLAVE.c **** * Function Name: I2C_1_SlaveInitReadBuf
 177:Generated_Source\PSoC5/I2C_1_SLAVE.c **** ********************************************************************************
 178:Generated_Source\PSoC5/I2C_1_SLAVE.c **** *
 179:Generated_Source\PSoC5/I2C_1_SLAVE.c **** * Summary:
 180:Generated_Source\PSoC5/I2C_1_SLAVE.c **** *  Sets the buffer pointer and size of the read buffer. This function also
 181:Generated_Source\PSoC5/I2C_1_SLAVE.c **** *  resets the transfer count returned with the I2C_SlaveGetReadBufSize function.
 182:Generated_Source\PSoC5/I2C_1_SLAVE.c **** *
 183:Generated_Source\PSoC5/I2C_1_SLAVE.c **** * Parameters:
 184:Generated_Source\PSoC5/I2C_1_SLAVE.c **** *  readBuf:  Pointer to the data buffer to be read by the master.
 185:Generated_Source\PSoC5/I2C_1_SLAVE.c **** *  bufSize:  Size of the read buffer exposed to the I2C master.
 186:Generated_Source\PSoC5/I2C_1_SLAVE.c **** *
 187:Generated_Source\PSoC5/I2C_1_SLAVE.c **** * Return:
 188:Generated_Source\PSoC5/I2C_1_SLAVE.c **** *  None.
 189:Generated_Source\PSoC5/I2C_1_SLAVE.c **** *
 190:Generated_Source\PSoC5/I2C_1_SLAVE.c **** * Global variables:
 191:Generated_Source\PSoC5/I2C_1_SLAVE.c **** *  I2C_1_slRdBufPtr   - The global variable used to store a pointer
 192:Generated_Source\PSoC5/I2C_1_SLAVE.c **** *                                  to the slave read buffer.
 193:Generated_Source\PSoC5/I2C_1_SLAVE.c **** *  I2C_1_slRdBufSize  - The global variable used to store a slave
 194:Generated_Source\PSoC5/I2C_1_SLAVE.c **** *                                  read buffer size.
 195:Generated_Source\PSoC5/I2C_1_SLAVE.c **** *  I2C_1_slRdBufIndex - The global variable used to store a current
 196:Generated_Source\PSoC5/I2C_1_SLAVE.c **** *                                  index within the slave read buffer.
 197:Generated_Source\PSoC5/I2C_1_SLAVE.c **** *
 198:Generated_Source\PSoC5/I2C_1_SLAVE.c **** * Side Effects:
 199:Generated_Source\PSoC5/I2C_1_SLAVE.c **** *  If this function is called during a bus transaction, data from the previous
 200:Generated_Source\PSoC5/I2C_1_SLAVE.c **** *  buffer location and the beginning of the current buffer may be transmitted.
 201:Generated_Source\PSoC5/I2C_1_SLAVE.c **** *
 202:Generated_Source\PSoC5/I2C_1_SLAVE.c **** * Reentrant:
 203:Generated_Source\PSoC5/I2C_1_SLAVE.c **** *  No.
 204:Generated_Source\PSoC5/I2C_1_SLAVE.c **** *
 205:Generated_Source\PSoC5/I2C_1_SLAVE.c **** *******************************************************************************/
 206:Generated_Source\PSoC5/I2C_1_SLAVE.c **** void I2C_1_SlaveInitReadBuf(uint8 * rdBuf, uint8 bufSize)
 207:Generated_Source\PSoC5/I2C_1_SLAVE.c ****      
 208:Generated_Source\PSoC5/I2C_1_SLAVE.c **** {
 247              		.loc 1 208 0
 248              		.cfi_startproc
ARM GAS  C:\Users\MARTHN~1\AppData\Local\Temp\ccn9ZVdl.s 			page 9


 249              		@ args = 0, pretend = 0, frame = 8
 250              		@ frame_needed = 1, uses_anonymous_args = 0
 251              		@ link register save eliminated.
 252 0000 80B4     		push	{r7}
 253              		.cfi_def_cfa_offset 4
 254              		.cfi_offset 7, -4
 255 0002 83B0     		sub	sp, sp, #12
 256              		.cfi_def_cfa_offset 16
 257 0004 00AF     		add	r7, sp, #0
 258              		.cfi_def_cfa_register 7
 259 0006 7860     		str	r0, [r7, #4]
 260 0008 0B46     		mov	r3, r1
 261 000a FB70     		strb	r3, [r7, #3]
 209:Generated_Source\PSoC5/I2C_1_SLAVE.c ****     if (NULL != rdBuf)
 262              		.loc 1 209 0
 263 000c 7B68     		ldr	r3, [r7, #4]
 264 000e 002B     		cmp	r3, #0
 265 0010 10D0     		beq	.L18
 210:Generated_Source\PSoC5/I2C_1_SLAVE.c ****     {
 211:Generated_Source\PSoC5/I2C_1_SLAVE.c ****         I2C_1_DisableInt(); /* Lock from interrupt */
 266              		.loc 1 211 0
 267 0012 0B4B     		ldr	r3, .L19
 268 0014 4FF40042 		mov	r2, #32768
 269 0018 1A60     		str	r2, [r3]
 212:Generated_Source\PSoC5/I2C_1_SLAVE.c **** 
 213:Generated_Source\PSoC5/I2C_1_SLAVE.c ****         /* Set buffer pointer */
 214:Generated_Source\PSoC5/I2C_1_SLAVE.c ****         I2C_1_slRdBufPtr   = (volatile uint8 *) rdBuf;
 270              		.loc 1 214 0
 271 001a 0A4A     		ldr	r2, .L19+4
 272 001c 7B68     		ldr	r3, [r7, #4]
 273 001e 1360     		str	r3, [r2]
 215:Generated_Source\PSoC5/I2C_1_SLAVE.c ****         I2C_1_slRdBufSize  = bufSize;    /* Set buffer size     */
 274              		.loc 1 215 0
 275 0020 094A     		ldr	r2, .L19+8
 276 0022 FB78     		ldrb	r3, [r7, #3]
 277 0024 1370     		strb	r3, [r2]
 216:Generated_Source\PSoC5/I2C_1_SLAVE.c ****         I2C_1_slRdBufIndex = 0u;         /* Clears buffer index */
 278              		.loc 1 216 0
 279 0026 094B     		ldr	r3, .L19+12
 280 0028 0022     		movs	r2, #0
 281 002a 1A70     		strb	r2, [r3]
 217:Generated_Source\PSoC5/I2C_1_SLAVE.c **** 
 218:Generated_Source\PSoC5/I2C_1_SLAVE.c ****         I2C_1_EnableInt(); /* Release lock */
 282              		.loc 1 218 0
 283 002c 084B     		ldr	r3, .L19+16
 284 002e 4FF40042 		mov	r2, #32768
 285 0032 1A60     		str	r2, [r3]
 286              	.L18:
 219:Generated_Source\PSoC5/I2C_1_SLAVE.c ****     }
 220:Generated_Source\PSoC5/I2C_1_SLAVE.c **** }
 287              		.loc 1 220 0
 288 0034 00BF     		nop
 289 0036 0C37     		adds	r7, r7, #12
 290              		.cfi_def_cfa_offset 4
 291 0038 BD46     		mov	sp, r7
 292              		.cfi_def_cfa_register 13
 293              		@ sp needed
ARM GAS  C:\Users\MARTHN~1\AppData\Local\Temp\ccn9ZVdl.s 			page 10


 294 003a 80BC     		pop	{r7}
 295              		.cfi_restore 7
 296              		.cfi_def_cfa_offset 0
 297 003c 7047     		bx	lr
 298              	.L20:
 299 003e 00BF     		.align	2
 300              	.L19:
 301 0040 80E100E0 		.word	-536813184
 302 0044 00000000 		.word	I2C_1_slRdBufPtr
 303 0048 00000000 		.word	I2C_1_slRdBufSize
 304 004c 00000000 		.word	I2C_1_slRdBufIndex
 305 0050 00E100E0 		.word	-536813312
 306              		.cfi_endproc
 307              	.LFE4:
 308              		.size	I2C_1_SlaveInitReadBuf, .-I2C_1_SlaveInitReadBuf
 309              		.section	.text.I2C_1_SlaveInitWriteBuf,"ax",%progbits
 310              		.align	2
 311              		.global	I2C_1_SlaveInitWriteBuf
 312              		.thumb
 313              		.thumb_func
 314              		.type	I2C_1_SlaveInitWriteBuf, %function
 315              	I2C_1_SlaveInitWriteBuf:
 316              	.LFB5:
 221:Generated_Source\PSoC5/I2C_1_SLAVE.c **** 
 222:Generated_Source\PSoC5/I2C_1_SLAVE.c **** 
 223:Generated_Source\PSoC5/I2C_1_SLAVE.c **** /*******************************************************************************
 224:Generated_Source\PSoC5/I2C_1_SLAVE.c **** * Function Name: I2C_1_SlaveInitWriteBuf
 225:Generated_Source\PSoC5/I2C_1_SLAVE.c **** ********************************************************************************
 226:Generated_Source\PSoC5/I2C_1_SLAVE.c **** *
 227:Generated_Source\PSoC5/I2C_1_SLAVE.c **** * Summary:
 228:Generated_Source\PSoC5/I2C_1_SLAVE.c **** *  Sets the buffer pointer and size of the read buffer. This function also
 229:Generated_Source\PSoC5/I2C_1_SLAVE.c **** *  resets the transfer count returned with the I2C_SlaveGetReadBufSize function.
 230:Generated_Source\PSoC5/I2C_1_SLAVE.c **** *
 231:Generated_Source\PSoC5/I2C_1_SLAVE.c **** * Parameters:
 232:Generated_Source\PSoC5/I2C_1_SLAVE.c **** *  writeBuf:  Pointer to the data buffer to be read by the master.
 233:Generated_Source\PSoC5/I2C_1_SLAVE.c **** *  bufSize:  Size of the buffer exposed to the I2C master.
 234:Generated_Source\PSoC5/I2C_1_SLAVE.c **** *
 235:Generated_Source\PSoC5/I2C_1_SLAVE.c **** * Return:
 236:Generated_Source\PSoC5/I2C_1_SLAVE.c **** *  None.
 237:Generated_Source\PSoC5/I2C_1_SLAVE.c **** *
 238:Generated_Source\PSoC5/I2C_1_SLAVE.c **** * Global variables:
 239:Generated_Source\PSoC5/I2C_1_SLAVE.c **** *  I2C_1_slWrBufPtr   - The global variable used to store a pointer
 240:Generated_Source\PSoC5/I2C_1_SLAVE.c **** *                                  to the slave write buffer.
 241:Generated_Source\PSoC5/I2C_1_SLAVE.c **** *  I2C_1_slWrBufSize  - The global variable used to store a slave
 242:Generated_Source\PSoC5/I2C_1_SLAVE.c **** *                                  write buffer size.
 243:Generated_Source\PSoC5/I2C_1_SLAVE.c **** *  I2C_1_slWrBufIndex - The global variable used to store a current
 244:Generated_Source\PSoC5/I2C_1_SLAVE.c **** *                                  index within the slave write buffer.
 245:Generated_Source\PSoC5/I2C_1_SLAVE.c **** *
 246:Generated_Source\PSoC5/I2C_1_SLAVE.c **** * Side Effects:
 247:Generated_Source\PSoC5/I2C_1_SLAVE.c **** *  If this function is called during a bus transaction, data from the previous
 248:Generated_Source\PSoC5/I2C_1_SLAVE.c **** *  buffer location and the beginning of the current buffer may be transmitted.
 249:Generated_Source\PSoC5/I2C_1_SLAVE.c **** *
 250:Generated_Source\PSoC5/I2C_1_SLAVE.c **** * Reentrant:
 251:Generated_Source\PSoC5/I2C_1_SLAVE.c **** *  No.
 252:Generated_Source\PSoC5/I2C_1_SLAVE.c **** *
 253:Generated_Source\PSoC5/I2C_1_SLAVE.c **** *******************************************************************************/
 254:Generated_Source\PSoC5/I2C_1_SLAVE.c **** void I2C_1_SlaveInitWriteBuf(uint8 * wrBuf, uint8 bufSize)
ARM GAS  C:\Users\MARTHN~1\AppData\Local\Temp\ccn9ZVdl.s 			page 11


 255:Generated_Source\PSoC5/I2C_1_SLAVE.c ****      
 256:Generated_Source\PSoC5/I2C_1_SLAVE.c **** {
 317              		.loc 1 256 0
 318              		.cfi_startproc
 319              		@ args = 0, pretend = 0, frame = 8
 320              		@ frame_needed = 1, uses_anonymous_args = 0
 321              		@ link register save eliminated.
 322 0000 80B4     		push	{r7}
 323              		.cfi_def_cfa_offset 4
 324              		.cfi_offset 7, -4
 325 0002 83B0     		sub	sp, sp, #12
 326              		.cfi_def_cfa_offset 16
 327 0004 00AF     		add	r7, sp, #0
 328              		.cfi_def_cfa_register 7
 329 0006 7860     		str	r0, [r7, #4]
 330 0008 0B46     		mov	r3, r1
 331 000a FB70     		strb	r3, [r7, #3]
 257:Generated_Source\PSoC5/I2C_1_SLAVE.c ****     if (NULL != wrBuf)
 332              		.loc 1 257 0
 333 000c 7B68     		ldr	r3, [r7, #4]
 334 000e 002B     		cmp	r3, #0
 335 0010 10D0     		beq	.L23
 258:Generated_Source\PSoC5/I2C_1_SLAVE.c ****     {
 259:Generated_Source\PSoC5/I2C_1_SLAVE.c ****         I2C_1_DisableInt(); /* Lock from interrupt */
 336              		.loc 1 259 0
 337 0012 0B4B     		ldr	r3, .L24
 338 0014 4FF40042 		mov	r2, #32768
 339 0018 1A60     		str	r2, [r3]
 260:Generated_Source\PSoC5/I2C_1_SLAVE.c **** 
 261:Generated_Source\PSoC5/I2C_1_SLAVE.c ****          /* Set buffer pointer */
 262:Generated_Source\PSoC5/I2C_1_SLAVE.c ****         I2C_1_slWrBufPtr   = (volatile uint8 *) wrBuf;
 340              		.loc 1 262 0
 341 001a 0A4A     		ldr	r2, .L24+4
 342 001c 7B68     		ldr	r3, [r7, #4]
 343 001e 1360     		str	r3, [r2]
 263:Generated_Source\PSoC5/I2C_1_SLAVE.c ****         I2C_1_slWrBufSize  = bufSize;    /* Set buffer size     */
 344              		.loc 1 263 0
 345 0020 094A     		ldr	r2, .L24+8
 346 0022 FB78     		ldrb	r3, [r7, #3]
 347 0024 1370     		strb	r3, [r2]
 264:Generated_Source\PSoC5/I2C_1_SLAVE.c ****         I2C_1_slWrBufIndex = 0u;         /* Clears buffer index */
 348              		.loc 1 264 0
 349 0026 094B     		ldr	r3, .L24+12
 350 0028 0022     		movs	r2, #0
 351 002a 1A70     		strb	r2, [r3]
 265:Generated_Source\PSoC5/I2C_1_SLAVE.c **** 
 266:Generated_Source\PSoC5/I2C_1_SLAVE.c ****         I2C_1_EnableInt(); /* Release lock */
 352              		.loc 1 266 0
 353 002c 084B     		ldr	r3, .L24+16
 354 002e 4FF40042 		mov	r2, #32768
 355 0032 1A60     		str	r2, [r3]
 356              	.L23:
 267:Generated_Source\PSoC5/I2C_1_SLAVE.c ****     }
 268:Generated_Source\PSoC5/I2C_1_SLAVE.c **** }
 357              		.loc 1 268 0
 358 0034 00BF     		nop
 359 0036 0C37     		adds	r7, r7, #12
ARM GAS  C:\Users\MARTHN~1\AppData\Local\Temp\ccn9ZVdl.s 			page 12


 360              		.cfi_def_cfa_offset 4
 361 0038 BD46     		mov	sp, r7
 362              		.cfi_def_cfa_register 13
 363              		@ sp needed
 364 003a 80BC     		pop	{r7}
 365              		.cfi_restore 7
 366              		.cfi_def_cfa_offset 0
 367 003c 7047     		bx	lr
 368              	.L25:
 369 003e 00BF     		.align	2
 370              	.L24:
 371 0040 80E100E0 		.word	-536813184
 372 0044 00000000 		.word	I2C_1_slWrBufPtr
 373 0048 00000000 		.word	I2C_1_slWrBufSize
 374 004c 00000000 		.word	I2C_1_slWrBufIndex
 375 0050 00E100E0 		.word	-536813312
 376              		.cfi_endproc
 377              	.LFE5:
 378              		.size	I2C_1_SlaveInitWriteBuf, .-I2C_1_SlaveInitWriteBuf
 379              		.section	.text.I2C_1_SlaveGetReadBufSize,"ax",%progbits
 380              		.align	2
 381              		.global	I2C_1_SlaveGetReadBufSize
 382              		.thumb
 383              		.thumb_func
 384              		.type	I2C_1_SlaveGetReadBufSize, %function
 385              	I2C_1_SlaveGetReadBufSize:
 386              	.LFB6:
 269:Generated_Source\PSoC5/I2C_1_SLAVE.c **** 
 270:Generated_Source\PSoC5/I2C_1_SLAVE.c **** 
 271:Generated_Source\PSoC5/I2C_1_SLAVE.c **** /*******************************************************************************
 272:Generated_Source\PSoC5/I2C_1_SLAVE.c **** * Function Name: I2C_1_SlaveGetReadBufSize
 273:Generated_Source\PSoC5/I2C_1_SLAVE.c **** ********************************************************************************
 274:Generated_Source\PSoC5/I2C_1_SLAVE.c **** *
 275:Generated_Source\PSoC5/I2C_1_SLAVE.c **** * Summary:
 276:Generated_Source\PSoC5/I2C_1_SLAVE.c **** *  Returns the number of bytes read by the I2C master since an
 277:Generated_Source\PSoC5/I2C_1_SLAVE.c **** *  I2C_SlaveInitReadBuf or I2C_SlaveClearReadBuf function was executed.
 278:Generated_Source\PSoC5/I2C_1_SLAVE.c **** *  The maximum return value will be the size of the read buffer.
 279:Generated_Source\PSoC5/I2C_1_SLAVE.c **** *
 280:Generated_Source\PSoC5/I2C_1_SLAVE.c **** * Parameters:
 281:Generated_Source\PSoC5/I2C_1_SLAVE.c **** *  None.
 282:Generated_Source\PSoC5/I2C_1_SLAVE.c **** *
 283:Generated_Source\PSoC5/I2C_1_SLAVE.c **** * Return:
 284:Generated_Source\PSoC5/I2C_1_SLAVE.c **** *  Bytes read by master.
 285:Generated_Source\PSoC5/I2C_1_SLAVE.c **** *
 286:Generated_Source\PSoC5/I2C_1_SLAVE.c **** * Global variables:
 287:Generated_Source\PSoC5/I2C_1_SLAVE.c **** *  I2C_1_slRdBufIndex - The global variable used to store a current
 288:Generated_Source\PSoC5/I2C_1_SLAVE.c **** *                                  index within the slave read buffer.
 289:Generated_Source\PSoC5/I2C_1_SLAVE.c **** *
 290:Generated_Source\PSoC5/I2C_1_SLAVE.c **** *******************************************************************************/
 291:Generated_Source\PSoC5/I2C_1_SLAVE.c **** uint8 I2C_1_SlaveGetReadBufSize(void) 
 292:Generated_Source\PSoC5/I2C_1_SLAVE.c **** {
 387              		.loc 1 292 0
 388              		.cfi_startproc
 389              		@ args = 0, pretend = 0, frame = 0
 390              		@ frame_needed = 1, uses_anonymous_args = 0
 391              		@ link register save eliminated.
 392 0000 80B4     		push	{r7}
ARM GAS  C:\Users\MARTHN~1\AppData\Local\Temp\ccn9ZVdl.s 			page 13


 393              		.cfi_def_cfa_offset 4
 394              		.cfi_offset 7, -4
 395 0002 00AF     		add	r7, sp, #0
 396              		.cfi_def_cfa_register 7
 293:Generated_Source\PSoC5/I2C_1_SLAVE.c ****     return (I2C_1_slRdBufIndex);
 397              		.loc 1 293 0
 398 0004 034B     		ldr	r3, .L28
 399 0006 1B78     		ldrb	r3, [r3]
 400 0008 DBB2     		uxtb	r3, r3
 294:Generated_Source\PSoC5/I2C_1_SLAVE.c **** }
 401              		.loc 1 294 0
 402 000a 1846     		mov	r0, r3
 403 000c BD46     		mov	sp, r7
 404              		.cfi_def_cfa_register 13
 405              		@ sp needed
 406 000e 80BC     		pop	{r7}
 407              		.cfi_restore 7
 408              		.cfi_def_cfa_offset 0
 409 0010 7047     		bx	lr
 410              	.L29:
 411 0012 00BF     		.align	2
 412              	.L28:
 413 0014 00000000 		.word	I2C_1_slRdBufIndex
 414              		.cfi_endproc
 415              	.LFE6:
 416              		.size	I2C_1_SlaveGetReadBufSize, .-I2C_1_SlaveGetReadBufSize
 417              		.section	.text.I2C_1_SlaveGetWriteBufSize,"ax",%progbits
 418              		.align	2
 419              		.global	I2C_1_SlaveGetWriteBufSize
 420              		.thumb
 421              		.thumb_func
 422              		.type	I2C_1_SlaveGetWriteBufSize, %function
 423              	I2C_1_SlaveGetWriteBufSize:
 424              	.LFB7:
 295:Generated_Source\PSoC5/I2C_1_SLAVE.c **** 
 296:Generated_Source\PSoC5/I2C_1_SLAVE.c **** 
 297:Generated_Source\PSoC5/I2C_1_SLAVE.c **** /*******************************************************************************
 298:Generated_Source\PSoC5/I2C_1_SLAVE.c **** * Function Name: I2C_1_SlaveGetWriteBufSize
 299:Generated_Source\PSoC5/I2C_1_SLAVE.c **** ********************************************************************************
 300:Generated_Source\PSoC5/I2C_1_SLAVE.c **** *
 301:Generated_Source\PSoC5/I2C_1_SLAVE.c **** * Summary:
 302:Generated_Source\PSoC5/I2C_1_SLAVE.c **** *  Returns the number of bytes written by the I2C master since an
 303:Generated_Source\PSoC5/I2C_1_SLAVE.c **** *  I2C_SlaveInitWriteBuf or I2C_SlaveClearWriteBuf function was executed.
 304:Generated_Source\PSoC5/I2C_1_SLAVE.c **** *  The maximum return value will be the size of the write buffer.
 305:Generated_Source\PSoC5/I2C_1_SLAVE.c **** *
 306:Generated_Source\PSoC5/I2C_1_SLAVE.c **** * Parameters:
 307:Generated_Source\PSoC5/I2C_1_SLAVE.c **** *  None.
 308:Generated_Source\PSoC5/I2C_1_SLAVE.c **** *
 309:Generated_Source\PSoC5/I2C_1_SLAVE.c **** * Return:
 310:Generated_Source\PSoC5/I2C_1_SLAVE.c **** *  Bytes written by master.
 311:Generated_Source\PSoC5/I2C_1_SLAVE.c **** *
 312:Generated_Source\PSoC5/I2C_1_SLAVE.c **** * Global variables:
 313:Generated_Source\PSoC5/I2C_1_SLAVE.c **** *  I2C_1_slWrBufIndex - The global variable used to store a current
 314:Generated_Source\PSoC5/I2C_1_SLAVE.c **** *                                  index within the slave write buffer.
 315:Generated_Source\PSoC5/I2C_1_SLAVE.c **** *
 316:Generated_Source\PSoC5/I2C_1_SLAVE.c **** *******************************************************************************/
 317:Generated_Source\PSoC5/I2C_1_SLAVE.c **** uint8 I2C_1_SlaveGetWriteBufSize(void) 
ARM GAS  C:\Users\MARTHN~1\AppData\Local\Temp\ccn9ZVdl.s 			page 14


 318:Generated_Source\PSoC5/I2C_1_SLAVE.c **** {
 425              		.loc 1 318 0
 426              		.cfi_startproc
 427              		@ args = 0, pretend = 0, frame = 0
 428              		@ frame_needed = 1, uses_anonymous_args = 0
 429              		@ link register save eliminated.
 430 0000 80B4     		push	{r7}
 431              		.cfi_def_cfa_offset 4
 432              		.cfi_offset 7, -4
 433 0002 00AF     		add	r7, sp, #0
 434              		.cfi_def_cfa_register 7
 319:Generated_Source\PSoC5/I2C_1_SLAVE.c ****     return (I2C_1_slWrBufIndex);
 435              		.loc 1 319 0
 436 0004 034B     		ldr	r3, .L32
 437 0006 1B78     		ldrb	r3, [r3]
 438 0008 DBB2     		uxtb	r3, r3
 320:Generated_Source\PSoC5/I2C_1_SLAVE.c **** }
 439              		.loc 1 320 0
 440 000a 1846     		mov	r0, r3
 441 000c BD46     		mov	sp, r7
 442              		.cfi_def_cfa_register 13
 443              		@ sp needed
 444 000e 80BC     		pop	{r7}
 445              		.cfi_restore 7
 446              		.cfi_def_cfa_offset 0
 447 0010 7047     		bx	lr
 448              	.L33:
 449 0012 00BF     		.align	2
 450              	.L32:
 451 0014 00000000 		.word	I2C_1_slWrBufIndex
 452              		.cfi_endproc
 453              	.LFE7:
 454              		.size	I2C_1_SlaveGetWriteBufSize, .-I2C_1_SlaveGetWriteBufSize
 455              		.section	.text.I2C_1_SlaveClearReadBuf,"ax",%progbits
 456              		.align	2
 457              		.global	I2C_1_SlaveClearReadBuf
 458              		.thumb
 459              		.thumb_func
 460              		.type	I2C_1_SlaveClearReadBuf, %function
 461              	I2C_1_SlaveClearReadBuf:
 462              	.LFB8:
 321:Generated_Source\PSoC5/I2C_1_SLAVE.c **** 
 322:Generated_Source\PSoC5/I2C_1_SLAVE.c **** 
 323:Generated_Source\PSoC5/I2C_1_SLAVE.c **** /*******************************************************************************
 324:Generated_Source\PSoC5/I2C_1_SLAVE.c **** * Function Name: I2C_1_SlaveClearReadBuf
 325:Generated_Source\PSoC5/I2C_1_SLAVE.c **** ********************************************************************************
 326:Generated_Source\PSoC5/I2C_1_SLAVE.c **** *
 327:Generated_Source\PSoC5/I2C_1_SLAVE.c **** * Summary:
 328:Generated_Source\PSoC5/I2C_1_SLAVE.c **** *  Resets the read pointer to the first byte in the read buffer. The next byte
 329:Generated_Source\PSoC5/I2C_1_SLAVE.c **** *  read by the master will be the first byte in the read buffer.
 330:Generated_Source\PSoC5/I2C_1_SLAVE.c **** *
 331:Generated_Source\PSoC5/I2C_1_SLAVE.c **** * Parameters:
 332:Generated_Source\PSoC5/I2C_1_SLAVE.c **** *  None.
 333:Generated_Source\PSoC5/I2C_1_SLAVE.c **** *
 334:Generated_Source\PSoC5/I2C_1_SLAVE.c **** * Return:
 335:Generated_Source\PSoC5/I2C_1_SLAVE.c **** *  None.
 336:Generated_Source\PSoC5/I2C_1_SLAVE.c **** *
ARM GAS  C:\Users\MARTHN~1\AppData\Local\Temp\ccn9ZVdl.s 			page 15


 337:Generated_Source\PSoC5/I2C_1_SLAVE.c **** * Global variables:
 338:Generated_Source\PSoC5/I2C_1_SLAVE.c **** *  I2C_1_slRdBufIndex - The global variable used to store a current
 339:Generated_Source\PSoC5/I2C_1_SLAVE.c **** *                                  index the within slave read buffer.
 340:Generated_Source\PSoC5/I2C_1_SLAVE.c **** *
 341:Generated_Source\PSoC5/I2C_1_SLAVE.c **** * Reentrant:
 342:Generated_Source\PSoC5/I2C_1_SLAVE.c **** *  No.
 343:Generated_Source\PSoC5/I2C_1_SLAVE.c **** *
 344:Generated_Source\PSoC5/I2C_1_SLAVE.c **** *******************************************************************************/
 345:Generated_Source\PSoC5/I2C_1_SLAVE.c **** void I2C_1_SlaveClearReadBuf(void) 
 346:Generated_Source\PSoC5/I2C_1_SLAVE.c **** {
 463              		.loc 1 346 0
 464              		.cfi_startproc
 465              		@ args = 0, pretend = 0, frame = 0
 466              		@ frame_needed = 1, uses_anonymous_args = 0
 467              		@ link register save eliminated.
 468 0000 80B4     		push	{r7}
 469              		.cfi_def_cfa_offset 4
 470              		.cfi_offset 7, -4
 471 0002 00AF     		add	r7, sp, #0
 472              		.cfi_def_cfa_register 7
 347:Generated_Source\PSoC5/I2C_1_SLAVE.c ****     I2C_1_slRdBufIndex = 0u;
 473              		.loc 1 347 0
 474 0004 034B     		ldr	r3, .L35
 475 0006 0022     		movs	r2, #0
 476 0008 1A70     		strb	r2, [r3]
 348:Generated_Source\PSoC5/I2C_1_SLAVE.c **** }
 477              		.loc 1 348 0
 478 000a 00BF     		nop
 479 000c BD46     		mov	sp, r7
 480              		.cfi_def_cfa_register 13
 481              		@ sp needed
 482 000e 80BC     		pop	{r7}
 483              		.cfi_restore 7
 484              		.cfi_def_cfa_offset 0
 485 0010 7047     		bx	lr
 486              	.L36:
 487 0012 00BF     		.align	2
 488              	.L35:
 489 0014 00000000 		.word	I2C_1_slRdBufIndex
 490              		.cfi_endproc
 491              	.LFE8:
 492              		.size	I2C_1_SlaveClearReadBuf, .-I2C_1_SlaveClearReadBuf
 493              		.section	.text.I2C_1_SlaveClearWriteBuf,"ax",%progbits
 494              		.align	2
 495              		.global	I2C_1_SlaveClearWriteBuf
 496              		.thumb
 497              		.thumb_func
 498              		.type	I2C_1_SlaveClearWriteBuf, %function
 499              	I2C_1_SlaveClearWriteBuf:
 500              	.LFB9:
 349:Generated_Source\PSoC5/I2C_1_SLAVE.c **** 
 350:Generated_Source\PSoC5/I2C_1_SLAVE.c **** 
 351:Generated_Source\PSoC5/I2C_1_SLAVE.c **** /*******************************************************************************
 352:Generated_Source\PSoC5/I2C_1_SLAVE.c **** * Function Name: I2C_1_SlaveClearRxBuf
 353:Generated_Source\PSoC5/I2C_1_SLAVE.c **** ********************************************************************************
 354:Generated_Source\PSoC5/I2C_1_SLAVE.c **** *
 355:Generated_Source\PSoC5/I2C_1_SLAVE.c **** * Summary:
ARM GAS  C:\Users\MARTHN~1\AppData\Local\Temp\ccn9ZVdl.s 			page 16


 356:Generated_Source\PSoC5/I2C_1_SLAVE.c **** *  Resets the write pointer to the first byte in the write buffer. The next byte
 357:Generated_Source\PSoC5/I2C_1_SLAVE.c **** *  written by the master will be the first byte in the write buffer.
 358:Generated_Source\PSoC5/I2C_1_SLAVE.c **** *
 359:Generated_Source\PSoC5/I2C_1_SLAVE.c **** * Parameters:
 360:Generated_Source\PSoC5/I2C_1_SLAVE.c **** *  None.
 361:Generated_Source\PSoC5/I2C_1_SLAVE.c **** *
 362:Generated_Source\PSoC5/I2C_1_SLAVE.c **** * Return:
 363:Generated_Source\PSoC5/I2C_1_SLAVE.c **** *  None.
 364:Generated_Source\PSoC5/I2C_1_SLAVE.c **** *
 365:Generated_Source\PSoC5/I2C_1_SLAVE.c **** * Global variables:
 366:Generated_Source\PSoC5/I2C_1_SLAVE.c **** *  I2C_1_slWrBufIndex - The global variable used to store a current
 367:Generated_Source\PSoC5/I2C_1_SLAVE.c **** *                                  index within the slave write buffer.
 368:Generated_Source\PSoC5/I2C_1_SLAVE.c **** *
 369:Generated_Source\PSoC5/I2C_1_SLAVE.c **** * Reentrant:
 370:Generated_Source\PSoC5/I2C_1_SLAVE.c **** *  No.
 371:Generated_Source\PSoC5/I2C_1_SLAVE.c **** *
 372:Generated_Source\PSoC5/I2C_1_SLAVE.c **** *******************************************************************************/
 373:Generated_Source\PSoC5/I2C_1_SLAVE.c **** void I2C_1_SlaveClearWriteBuf(void) 
 374:Generated_Source\PSoC5/I2C_1_SLAVE.c **** {
 501              		.loc 1 374 0
 502              		.cfi_startproc
 503              		@ args = 0, pretend = 0, frame = 0
 504              		@ frame_needed = 1, uses_anonymous_args = 0
 505              		@ link register save eliminated.
 506 0000 80B4     		push	{r7}
 507              		.cfi_def_cfa_offset 4
 508              		.cfi_offset 7, -4
 509 0002 00AF     		add	r7, sp, #0
 510              		.cfi_def_cfa_register 7
 375:Generated_Source\PSoC5/I2C_1_SLAVE.c ****     I2C_1_slWrBufIndex = 0u;
 511              		.loc 1 375 0
 512 0004 034B     		ldr	r3, .L38
 513 0006 0022     		movs	r2, #0
 514 0008 1A70     		strb	r2, [r3]
 376:Generated_Source\PSoC5/I2C_1_SLAVE.c **** }
 515              		.loc 1 376 0
 516 000a 00BF     		nop
 517 000c BD46     		mov	sp, r7
 518              		.cfi_def_cfa_register 13
 519              		@ sp needed
 520 000e 80BC     		pop	{r7}
 521              		.cfi_restore 7
 522              		.cfi_def_cfa_offset 0
 523 0010 7047     		bx	lr
 524              	.L39:
 525 0012 00BF     		.align	2
 526              	.L38:
 527 0014 00000000 		.word	I2C_1_slWrBufIndex
 528              		.cfi_endproc
 529              	.LFE9:
 530              		.size	I2C_1_SlaveClearWriteBuf, .-I2C_1_SlaveClearWriteBuf
 531              		.text
 532              	.Letext0:
 533              		.file 2 "Generated_Source\\PSoC5\\cytypes.h"