ARM GAS  C:\Users\MARTHN~1\AppData\Local\Temp\ccyGpLYB.s 			page 1


   1              		.syntax unified
   2              		.cpu cortex-m3
   3              		.fpu softvfp
   4              		.eabi_attribute 20, 1
   5              		.eabi_attribute 21, 1
   6              		.eabi_attribute 23, 3
   7              		.eabi_attribute 24, 1
   8              		.eabi_attribute 25, 1
   9              		.eabi_attribute 26, 1
  10              		.eabi_attribute 30, 6
  11              		.eabi_attribute 34, 1
  12              		.eabi_attribute 18, 4
  13              		.thumb
  14              		.syntax unified
  15              		.file	"isr_Timer_Quick.c"
  16              		.text
  17              	.Ltext0:
  18              		.cfi_sections	.debug_frame
  19              		.section	.text.isr_Timer_Quick_Start,"ax",%progbits
  20              		.align	2
  21              		.global	isr_Timer_Quick_Start
  22              		.thumb
  23              		.thumb_func
  24              		.type	isr_Timer_Quick_Start, %function
  25              	isr_Timer_Quick_Start:
  26              	.LFB63:
  27              		.file 1 "Generated_Source\\PSoC5\\isr_Timer_Quick.c"
   1:Generated_Source\PSoC5/isr_Timer_Quick.c **** /*******************************************************************************
   2:Generated_Source\PSoC5/isr_Timer_Quick.c **** * File Name: isr_Timer_Quick.c  
   3:Generated_Source\PSoC5/isr_Timer_Quick.c **** * Version 1.70
   4:Generated_Source\PSoC5/isr_Timer_Quick.c **** *
   5:Generated_Source\PSoC5/isr_Timer_Quick.c **** *  Description:
   6:Generated_Source\PSoC5/isr_Timer_Quick.c **** *   API for controlling the state of an interrupt.
   7:Generated_Source\PSoC5/isr_Timer_Quick.c **** *
   8:Generated_Source\PSoC5/isr_Timer_Quick.c **** *
   9:Generated_Source\PSoC5/isr_Timer_Quick.c **** *  Note:
  10:Generated_Source\PSoC5/isr_Timer_Quick.c **** *
  11:Generated_Source\PSoC5/isr_Timer_Quick.c **** ********************************************************************************
  12:Generated_Source\PSoC5/isr_Timer_Quick.c **** * Copyright 2008-2015, Cypress Semiconductor Corporation.  All rights reserved.
  13:Generated_Source\PSoC5/isr_Timer_Quick.c **** * You may use this file only in accordance with the license, terms, conditions, 
  14:Generated_Source\PSoC5/isr_Timer_Quick.c **** * disclaimers, and limitations in the end user license agreement accompanying 
  15:Generated_Source\PSoC5/isr_Timer_Quick.c **** * the software package with which this file was provided.
  16:Generated_Source\PSoC5/isr_Timer_Quick.c **** *******************************************************************************/
  17:Generated_Source\PSoC5/isr_Timer_Quick.c **** 
  18:Generated_Source\PSoC5/isr_Timer_Quick.c **** 
  19:Generated_Source\PSoC5/isr_Timer_Quick.c **** #include <cydevice_trm.h>
  20:Generated_Source\PSoC5/isr_Timer_Quick.c **** #include <CyLib.h>
  21:Generated_Source\PSoC5/isr_Timer_Quick.c **** #include <isr_Timer_Quick.h>
  22:Generated_Source\PSoC5/isr_Timer_Quick.c **** #include "cyapicallbacks.h"
  23:Generated_Source\PSoC5/isr_Timer_Quick.c **** 
  24:Generated_Source\PSoC5/isr_Timer_Quick.c **** #if !defined(isr_Timer_Quick__REMOVED) /* Check for removal by optimization */
  25:Generated_Source\PSoC5/isr_Timer_Quick.c **** 
  26:Generated_Source\PSoC5/isr_Timer_Quick.c **** /*******************************************************************************
  27:Generated_Source\PSoC5/isr_Timer_Quick.c **** *  Place your includes, defines and code here 
  28:Generated_Source\PSoC5/isr_Timer_Quick.c **** ********************************************************************************/
  29:Generated_Source\PSoC5/isr_Timer_Quick.c **** /* `#START isr_Timer_Quick_intc` */
  30:Generated_Source\PSoC5/isr_Timer_Quick.c ****     
ARM GAS  C:\Users\MARTHN~1\AppData\Local\Temp\ccyGpLYB.s 			page 2


  31:Generated_Source\PSoC5/isr_Timer_Quick.c ****     #include "RelayTest.h"
  32:Generated_Source\PSoC5/isr_Timer_Quick.c ****     #include "UART_230400_Functions.h"
  33:Generated_Source\PSoC5/isr_Timer_Quick.c ****     #include "UART_460800_Functions.h"
  34:Generated_Source\PSoC5/isr_Timer_Quick.c ****     #define TIMEOUT     100
  35:Generated_Source\PSoC5/isr_Timer_Quick.c ****     
  36:Generated_Source\PSoC5/isr_Timer_Quick.c **** //     #include "Custom.h"
  37:Generated_Source\PSoC5/isr_Timer_Quick.c **** //    static uint8 Timer_Quick_INT_Flag;
  38:Generated_Source\PSoC5/isr_Timer_Quick.c **** //    
  39:Generated_Source\PSoC5/isr_Timer_Quick.c **** //    
  40:Generated_Source\PSoC5/isr_Timer_Quick.c **** //    uint8 Timer_Quick_INT_GetFlag(void)
  41:Generated_Source\PSoC5/isr_Timer_Quick.c **** //    {
  42:Generated_Source\PSoC5/isr_Timer_Quick.c **** //    
  43:Generated_Source\PSoC5/isr_Timer_Quick.c **** //    return(Timer_Quick_INT_Flag);    
  44:Generated_Source\PSoC5/isr_Timer_Quick.c **** //    }
  45:Generated_Source\PSoC5/isr_Timer_Quick.c **** //    
  46:Generated_Source\PSoC5/isr_Timer_Quick.c **** //    
  47:Generated_Source\PSoC5/isr_Timer_Quick.c **** //    void Timer_Quick_INT_ClearFlag(void)
  48:Generated_Source\PSoC5/isr_Timer_Quick.c **** //    {
  49:Generated_Source\PSoC5/isr_Timer_Quick.c **** //    
  50:Generated_Source\PSoC5/isr_Timer_Quick.c **** //        Timer_Quick_INT_Flag = 0;
  51:Generated_Source\PSoC5/isr_Timer_Quick.c **** //    
  52:Generated_Source\PSoC5/isr_Timer_Quick.c **** //    return;    
  53:Generated_Source\PSoC5/isr_Timer_Quick.c **** //    }
  54:Generated_Source\PSoC5/isr_Timer_Quick.c ****     
  55:Generated_Source\PSoC5/isr_Timer_Quick.c ****     //static uint8 timercount = 0;
  56:Generated_Source\PSoC5/isr_Timer_Quick.c ****     
  57:Generated_Source\PSoC5/isr_Timer_Quick.c **** //    void StartTimeout(void)
  58:Generated_Source\PSoC5/isr_Timer_Quick.c **** //    {
  59:Generated_Source\PSoC5/isr_Timer_Quick.c **** //        timercount = 0;     
  60:Generated_Source\PSoC5/isr_Timer_Quick.c **** //        return;         
  61:Generated_Source\PSoC5/isr_Timer_Quick.c **** //    }
  62:Generated_Source\PSoC5/isr_Timer_Quick.c **** //    
  63:Generated_Source\PSoC5/isr_Timer_Quick.c **** //    
  64:Generated_Source\PSoC5/isr_Timer_Quick.c **** //    void StopTimeout(void)
  65:Generated_Source\PSoC5/isr_Timer_Quick.c **** //    {
  66:Generated_Source\PSoC5/isr_Timer_Quick.c **** ////        timercount = 0;     
  67:Generated_Source\PSoC5/isr_Timer_Quick.c **** //        return;         
  68:Generated_Source\PSoC5/isr_Timer_Quick.c **** //    }
  69:Generated_Source\PSoC5/isr_Timer_Quick.c **** 
  70:Generated_Source\PSoC5/isr_Timer_Quick.c **** /* `#END` */
  71:Generated_Source\PSoC5/isr_Timer_Quick.c **** 
  72:Generated_Source\PSoC5/isr_Timer_Quick.c **** #ifndef CYINT_IRQ_BASE
  73:Generated_Source\PSoC5/isr_Timer_Quick.c **** #define CYINT_IRQ_BASE      16
  74:Generated_Source\PSoC5/isr_Timer_Quick.c **** #endif /* CYINT_IRQ_BASE */
  75:Generated_Source\PSoC5/isr_Timer_Quick.c **** #ifndef CYINT_VECT_TABLE
  76:Generated_Source\PSoC5/isr_Timer_Quick.c **** #define CYINT_VECT_TABLE    ((cyisraddress **) CYREG_NVIC_VECT_OFFSET)
  77:Generated_Source\PSoC5/isr_Timer_Quick.c **** #endif /* CYINT_VECT_TABLE */
  78:Generated_Source\PSoC5/isr_Timer_Quick.c **** 
  79:Generated_Source\PSoC5/isr_Timer_Quick.c **** /* Declared in startup, used to set unused interrupts to. */
  80:Generated_Source\PSoC5/isr_Timer_Quick.c **** CY_ISR_PROTO(IntDefaultHandler);
  81:Generated_Source\PSoC5/isr_Timer_Quick.c **** 
  82:Generated_Source\PSoC5/isr_Timer_Quick.c **** 
  83:Generated_Source\PSoC5/isr_Timer_Quick.c **** /*******************************************************************************
  84:Generated_Source\PSoC5/isr_Timer_Quick.c **** * Function Name: isr_Timer_Quick_Start
  85:Generated_Source\PSoC5/isr_Timer_Quick.c **** ********************************************************************************
  86:Generated_Source\PSoC5/isr_Timer_Quick.c **** *
  87:Generated_Source\PSoC5/isr_Timer_Quick.c **** * Summary:
ARM GAS  C:\Users\MARTHN~1\AppData\Local\Temp\ccyGpLYB.s 			page 3


  88:Generated_Source\PSoC5/isr_Timer_Quick.c **** *  Set up the interrupt and enable it. This function disables the interrupt, 
  89:Generated_Source\PSoC5/isr_Timer_Quick.c **** *  sets the default interrupt vector, sets the priority from the value in the
  90:Generated_Source\PSoC5/isr_Timer_Quick.c **** *  Design Wide Resources Interrupt Editor, then enables the interrupt to the 
  91:Generated_Source\PSoC5/isr_Timer_Quick.c **** *  interrupt controller.
  92:Generated_Source\PSoC5/isr_Timer_Quick.c **** *
  93:Generated_Source\PSoC5/isr_Timer_Quick.c **** * Parameters:  
  94:Generated_Source\PSoC5/isr_Timer_Quick.c **** *   None
  95:Generated_Source\PSoC5/isr_Timer_Quick.c **** *
  96:Generated_Source\PSoC5/isr_Timer_Quick.c **** * Return:
  97:Generated_Source\PSoC5/isr_Timer_Quick.c **** *   None
  98:Generated_Source\PSoC5/isr_Timer_Quick.c **** *
  99:Generated_Source\PSoC5/isr_Timer_Quick.c **** *******************************************************************************/
 100:Generated_Source\PSoC5/isr_Timer_Quick.c **** void isr_Timer_Quick_Start(void)
 101:Generated_Source\PSoC5/isr_Timer_Quick.c **** {
  28              		.loc 1 101 0
  29              		.cfi_startproc
  30              		@ args = 0, pretend = 0, frame = 0
  31              		@ frame_needed = 1, uses_anonymous_args = 0
  32 0000 80B5     		push	{r7, lr}
  33              		.cfi_def_cfa_offset 8
  34              		.cfi_offset 7, -8
  35              		.cfi_offset 14, -4
  36 0002 00AF     		add	r7, sp, #0
  37              		.cfi_def_cfa_register 7
 102:Generated_Source\PSoC5/isr_Timer_Quick.c ****     /* For all we know the interrupt is active. */
 103:Generated_Source\PSoC5/isr_Timer_Quick.c ****     isr_Timer_Quick_Disable();
  38              		.loc 1 103 0
  39 0004 FFF7FEFF 		bl	isr_Timer_Quick_Disable
 104:Generated_Source\PSoC5/isr_Timer_Quick.c **** 
 105:Generated_Source\PSoC5/isr_Timer_Quick.c ****     /* Set the ISR to point to the isr_Timer_Quick Interrupt. */
 106:Generated_Source\PSoC5/isr_Timer_Quick.c ****     isr_Timer_Quick_SetVector(&isr_Timer_Quick_Interrupt);
  40              		.loc 1 106 0
  41 0008 0448     		ldr	r0, .L2
  42 000a FFF7FEFF 		bl	isr_Timer_Quick_SetVector
 107:Generated_Source\PSoC5/isr_Timer_Quick.c **** 
 108:Generated_Source\PSoC5/isr_Timer_Quick.c ****     /* Set the priority. */
 109:Generated_Source\PSoC5/isr_Timer_Quick.c ****     isr_Timer_Quick_SetPriority((uint8)isr_Timer_Quick_INTC_PRIOR_NUMBER);
  43              		.loc 1 109 0
  44 000e 0420     		movs	r0, #4
  45 0010 FFF7FEFF 		bl	isr_Timer_Quick_SetPriority
 110:Generated_Source\PSoC5/isr_Timer_Quick.c **** 
 111:Generated_Source\PSoC5/isr_Timer_Quick.c ****     /* Enable it. */
 112:Generated_Source\PSoC5/isr_Timer_Quick.c ****     isr_Timer_Quick_Enable();
  46              		.loc 1 112 0
  47 0014 FFF7FEFF 		bl	isr_Timer_Quick_Enable
 113:Generated_Source\PSoC5/isr_Timer_Quick.c **** }
  48              		.loc 1 113 0
  49 0018 00BF     		nop
  50 001a 80BD     		pop	{r7, pc}
  51              	.L3:
  52              		.align	2
  53              	.L2:
  54 001c 00000000 		.word	isr_Timer_Quick_Interrupt
  55              		.cfi_endproc
  56              	.LFE63:
  57              		.size	isr_Timer_Quick_Start, .-isr_Timer_Quick_Start
  58              		.section	.text.isr_Timer_Quick_StartEx,"ax",%progbits
ARM GAS  C:\Users\MARTHN~1\AppData\Local\Temp\ccyGpLYB.s 			page 4


  59              		.align	2
  60              		.global	isr_Timer_Quick_StartEx
  61              		.thumb
  62              		.thumb_func
  63              		.type	isr_Timer_Quick_StartEx, %function
  64              	isr_Timer_Quick_StartEx:
  65              	.LFB64:
 114:Generated_Source\PSoC5/isr_Timer_Quick.c **** 
 115:Generated_Source\PSoC5/isr_Timer_Quick.c **** 
 116:Generated_Source\PSoC5/isr_Timer_Quick.c **** /*******************************************************************************
 117:Generated_Source\PSoC5/isr_Timer_Quick.c **** * Function Name: isr_Timer_Quick_StartEx
 118:Generated_Source\PSoC5/isr_Timer_Quick.c **** ********************************************************************************
 119:Generated_Source\PSoC5/isr_Timer_Quick.c **** *
 120:Generated_Source\PSoC5/isr_Timer_Quick.c **** * Summary:
 121:Generated_Source\PSoC5/isr_Timer_Quick.c **** *  Sets up the interrupt and enables it. This function disables the interrupt,
 122:Generated_Source\PSoC5/isr_Timer_Quick.c **** *  sets the interrupt vector based on the address passed in, sets the priority 
 123:Generated_Source\PSoC5/isr_Timer_Quick.c **** *  from the value in the Design Wide Resources Interrupt Editor, then enables 
 124:Generated_Source\PSoC5/isr_Timer_Quick.c **** *  the interrupt to the interrupt controller.
 125:Generated_Source\PSoC5/isr_Timer_Quick.c **** *  
 126:Generated_Source\PSoC5/isr_Timer_Quick.c **** *  When defining ISR functions, the CY_ISR and CY_ISR_PROTO macros should be 
 127:Generated_Source\PSoC5/isr_Timer_Quick.c **** *  used to provide consistent definition across compilers:
 128:Generated_Source\PSoC5/isr_Timer_Quick.c **** *  
 129:Generated_Source\PSoC5/isr_Timer_Quick.c **** *  Function definition example:
 130:Generated_Source\PSoC5/isr_Timer_Quick.c **** *   CY_ISR(MyISR)
 131:Generated_Source\PSoC5/isr_Timer_Quick.c **** *   {
 132:Generated_Source\PSoC5/isr_Timer_Quick.c **** *   }
 133:Generated_Source\PSoC5/isr_Timer_Quick.c **** *   Function prototype example:
 134:Generated_Source\PSoC5/isr_Timer_Quick.c **** *   CY_ISR_PROTO(MyISR);
 135:Generated_Source\PSoC5/isr_Timer_Quick.c **** *
 136:Generated_Source\PSoC5/isr_Timer_Quick.c **** * Parameters:  
 137:Generated_Source\PSoC5/isr_Timer_Quick.c **** *   address: Address of the ISR to set in the interrupt vector table.
 138:Generated_Source\PSoC5/isr_Timer_Quick.c **** *
 139:Generated_Source\PSoC5/isr_Timer_Quick.c **** * Return:
 140:Generated_Source\PSoC5/isr_Timer_Quick.c **** *   None
 141:Generated_Source\PSoC5/isr_Timer_Quick.c **** *
 142:Generated_Source\PSoC5/isr_Timer_Quick.c **** *******************************************************************************/
 143:Generated_Source\PSoC5/isr_Timer_Quick.c **** void isr_Timer_Quick_StartEx(cyisraddress address)
 144:Generated_Source\PSoC5/isr_Timer_Quick.c **** {
  66              		.loc 1 144 0
  67              		.cfi_startproc
  68              		@ args = 0, pretend = 0, frame = 8
  69              		@ frame_needed = 1, uses_anonymous_args = 0
  70 0000 80B5     		push	{r7, lr}
  71              		.cfi_def_cfa_offset 8
  72              		.cfi_offset 7, -8
  73              		.cfi_offset 14, -4
  74 0002 82B0     		sub	sp, sp, #8
  75              		.cfi_def_cfa_offset 16
  76 0004 00AF     		add	r7, sp, #0
  77              		.cfi_def_cfa_register 7
  78 0006 7860     		str	r0, [r7, #4]
 145:Generated_Source\PSoC5/isr_Timer_Quick.c ****     /* For all we know the interrupt is active. */
 146:Generated_Source\PSoC5/isr_Timer_Quick.c ****     isr_Timer_Quick_Disable();
  79              		.loc 1 146 0
  80 0008 FFF7FEFF 		bl	isr_Timer_Quick_Disable
 147:Generated_Source\PSoC5/isr_Timer_Quick.c **** 
 148:Generated_Source\PSoC5/isr_Timer_Quick.c ****     /* Set the ISR to point to the isr_Timer_Quick Interrupt. */
ARM GAS  C:\Users\MARTHN~1\AppData\Local\Temp\ccyGpLYB.s 			page 5


 149:Generated_Source\PSoC5/isr_Timer_Quick.c ****     isr_Timer_Quick_SetVector(address);
  81              		.loc 1 149 0
  82 000c 7868     		ldr	r0, [r7, #4]
  83 000e FFF7FEFF 		bl	isr_Timer_Quick_SetVector
 150:Generated_Source\PSoC5/isr_Timer_Quick.c **** 
 151:Generated_Source\PSoC5/isr_Timer_Quick.c ****     /* Set the priority. */
 152:Generated_Source\PSoC5/isr_Timer_Quick.c ****     isr_Timer_Quick_SetPriority((uint8)isr_Timer_Quick_INTC_PRIOR_NUMBER);
  84              		.loc 1 152 0
  85 0012 0420     		movs	r0, #4
  86 0014 FFF7FEFF 		bl	isr_Timer_Quick_SetPriority
 153:Generated_Source\PSoC5/isr_Timer_Quick.c **** 
 154:Generated_Source\PSoC5/isr_Timer_Quick.c ****     /* Enable it. */
 155:Generated_Source\PSoC5/isr_Timer_Quick.c ****     isr_Timer_Quick_Enable();
  87              		.loc 1 155 0
  88 0018 FFF7FEFF 		bl	isr_Timer_Quick_Enable
 156:Generated_Source\PSoC5/isr_Timer_Quick.c **** }
  89              		.loc 1 156 0
  90 001c 00BF     		nop
  91 001e 0837     		adds	r7, r7, #8
  92              		.cfi_def_cfa_offset 8
  93 0020 BD46     		mov	sp, r7
  94              		.cfi_def_cfa_register 13
  95              		@ sp needed
  96 0022 80BD     		pop	{r7, pc}
  97              		.cfi_endproc
  98              	.LFE64:
  99              		.size	isr_Timer_Quick_StartEx, .-isr_Timer_Quick_StartEx
 100              		.section	.text.isr_Timer_Quick_Stop,"ax",%progbits
 101              		.align	2
 102              		.global	isr_Timer_Quick_Stop
 103              		.thumb
 104              		.thumb_func
 105              		.type	isr_Timer_Quick_Stop, %function
 106              	isr_Timer_Quick_Stop:
 107              	.LFB65:
 157:Generated_Source\PSoC5/isr_Timer_Quick.c **** 
 158:Generated_Source\PSoC5/isr_Timer_Quick.c **** 
 159:Generated_Source\PSoC5/isr_Timer_Quick.c **** /*******************************************************************************
 160:Generated_Source\PSoC5/isr_Timer_Quick.c **** * Function Name: isr_Timer_Quick_Stop
 161:Generated_Source\PSoC5/isr_Timer_Quick.c **** ********************************************************************************
 162:Generated_Source\PSoC5/isr_Timer_Quick.c **** *
 163:Generated_Source\PSoC5/isr_Timer_Quick.c **** * Summary:
 164:Generated_Source\PSoC5/isr_Timer_Quick.c **** *   Disables and removes the interrupt.
 165:Generated_Source\PSoC5/isr_Timer_Quick.c **** *
 166:Generated_Source\PSoC5/isr_Timer_Quick.c **** * Parameters:  
 167:Generated_Source\PSoC5/isr_Timer_Quick.c **** *   None
 168:Generated_Source\PSoC5/isr_Timer_Quick.c **** *
 169:Generated_Source\PSoC5/isr_Timer_Quick.c **** * Return:
 170:Generated_Source\PSoC5/isr_Timer_Quick.c **** *   None
 171:Generated_Source\PSoC5/isr_Timer_Quick.c **** *
 172:Generated_Source\PSoC5/isr_Timer_Quick.c **** *******************************************************************************/
 173:Generated_Source\PSoC5/isr_Timer_Quick.c **** void isr_Timer_Quick_Stop(void)
 174:Generated_Source\PSoC5/isr_Timer_Quick.c **** {
 108              		.loc 1 174 0
 109              		.cfi_startproc
 110              		@ args = 0, pretend = 0, frame = 0
 111              		@ frame_needed = 1, uses_anonymous_args = 0
ARM GAS  C:\Users\MARTHN~1\AppData\Local\Temp\ccyGpLYB.s 			page 6


 112 0000 80B5     		push	{r7, lr}
 113              		.cfi_def_cfa_offset 8
 114              		.cfi_offset 7, -8
 115              		.cfi_offset 14, -4
 116 0002 00AF     		add	r7, sp, #0
 117              		.cfi_def_cfa_register 7
 175:Generated_Source\PSoC5/isr_Timer_Quick.c ****     /* Disable this interrupt. */
 176:Generated_Source\PSoC5/isr_Timer_Quick.c ****     isr_Timer_Quick_Disable();
 118              		.loc 1 176 0
 119 0004 FFF7FEFF 		bl	isr_Timer_Quick_Disable
 177:Generated_Source\PSoC5/isr_Timer_Quick.c **** 
 178:Generated_Source\PSoC5/isr_Timer_Quick.c ****     /* Set the ISR to point to the passive one. */
 179:Generated_Source\PSoC5/isr_Timer_Quick.c ****     isr_Timer_Quick_SetVector(&IntDefaultHandler);
 120              		.loc 1 179 0
 121 0008 0248     		ldr	r0, .L6
 122 000a FFF7FEFF 		bl	isr_Timer_Quick_SetVector
 180:Generated_Source\PSoC5/isr_Timer_Quick.c **** }
 123              		.loc 1 180 0
 124 000e 00BF     		nop
 125 0010 80BD     		pop	{r7, pc}
 126              	.L7:
 127 0012 00BF     		.align	2
 128              	.L6:
 129 0014 00000000 		.word	IntDefaultHandler
 130              		.cfi_endproc
 131              	.LFE65:
 132              		.size	isr_Timer_Quick_Stop, .-isr_Timer_Quick_Stop
 133              		.section	.text.isr_Timer_Quick_Interrupt,"ax",%progbits
 134              		.align	2
 135              		.global	isr_Timer_Quick_Interrupt
 136              		.thumb
 137              		.thumb_func
 138              		.type	isr_Timer_Quick_Interrupt, %function
 139              	isr_Timer_Quick_Interrupt:
 140              	.LFB66:
 181:Generated_Source\PSoC5/isr_Timer_Quick.c **** 
 182:Generated_Source\PSoC5/isr_Timer_Quick.c **** 
 183:Generated_Source\PSoC5/isr_Timer_Quick.c **** /*******************************************************************************
 184:Generated_Source\PSoC5/isr_Timer_Quick.c **** * Function Name: isr_Timer_Quick_Interrupt
 185:Generated_Source\PSoC5/isr_Timer_Quick.c **** ********************************************************************************
 186:Generated_Source\PSoC5/isr_Timer_Quick.c **** *
 187:Generated_Source\PSoC5/isr_Timer_Quick.c **** * Summary:
 188:Generated_Source\PSoC5/isr_Timer_Quick.c **** *   The default Interrupt Service Routine for isr_Timer_Quick.
 189:Generated_Source\PSoC5/isr_Timer_Quick.c **** *
 190:Generated_Source\PSoC5/isr_Timer_Quick.c **** *   Add custom code between the coments to keep the next version of this file
 191:Generated_Source\PSoC5/isr_Timer_Quick.c **** *   from over writting your code.
 192:Generated_Source\PSoC5/isr_Timer_Quick.c **** *
 193:Generated_Source\PSoC5/isr_Timer_Quick.c **** * Parameters:  
 194:Generated_Source\PSoC5/isr_Timer_Quick.c **** *
 195:Generated_Source\PSoC5/isr_Timer_Quick.c **** * Return:
 196:Generated_Source\PSoC5/isr_Timer_Quick.c **** *   None
 197:Generated_Source\PSoC5/isr_Timer_Quick.c **** *
 198:Generated_Source\PSoC5/isr_Timer_Quick.c **** *******************************************************************************/
 199:Generated_Source\PSoC5/isr_Timer_Quick.c **** CY_ISR(isr_Timer_Quick_Interrupt)
 200:Generated_Source\PSoC5/isr_Timer_Quick.c **** {
 141              		.loc 1 200 0
 142              		.cfi_startproc
ARM GAS  C:\Users\MARTHN~1\AppData\Local\Temp\ccyGpLYB.s 			page 7


 143              		@ args = 0, pretend = 0, frame = 0
 144              		@ frame_needed = 1, uses_anonymous_args = 0
 145              		@ link register save eliminated.
 146 0000 80B4     		push	{r7}
 147              		.cfi_def_cfa_offset 4
 148              		.cfi_offset 7, -4
 149 0002 00AF     		add	r7, sp, #0
 150              		.cfi_def_cfa_register 7
 201:Generated_Source\PSoC5/isr_Timer_Quick.c ****     #ifdef isr_Timer_Quick_INTERRUPT_INTERRUPT_CALLBACK
 202:Generated_Source\PSoC5/isr_Timer_Quick.c ****         isr_Timer_Quick_Interrupt_InterruptCallback();
 203:Generated_Source\PSoC5/isr_Timer_Quick.c ****     #endif /* isr_Timer_Quick_INTERRUPT_INTERRUPT_CALLBACK */ 
 204:Generated_Source\PSoC5/isr_Timer_Quick.c **** 
 205:Generated_Source\PSoC5/isr_Timer_Quick.c ****     /*  Place your Interrupt code here. */
 206:Generated_Source\PSoC5/isr_Timer_Quick.c ****     /* `#START isr_Timer_Quick_Interrupt` */
 207:Generated_Source\PSoC5/isr_Timer_Quick.c ****     
 208:Generated_Source\PSoC5/isr_Timer_Quick.c ****    
 209:Generated_Source\PSoC5/isr_Timer_Quick.c ****     
 210:Generated_Source\PSoC5/isr_Timer_Quick.c ****     //sendPacketToRelay_Quad();   // 460800 - TX
 211:Generated_Source\PSoC5/isr_Timer_Quick.c ****     
 212:Generated_Source\PSoC5/isr_Timer_Quick.c ****     //sendPacketToRelaySiren();   // 230400 - TX
 213:Generated_Source\PSoC5/isr_Timer_Quick.c **** 
 214:Generated_Source\PSoC5/isr_Timer_Quick.c **** 
 215:Generated_Source\PSoC5/isr_Timer_Quick.c ****     /* `#END` */
 216:Generated_Source\PSoC5/isr_Timer_Quick.c **** }
 151              		.loc 1 216 0
 152 0004 00BF     		nop
 153 0006 BD46     		mov	sp, r7
 154              		.cfi_def_cfa_register 13
 155              		@ sp needed
 156 0008 80BC     		pop	{r7}
 157              		.cfi_restore 7
 158              		.cfi_def_cfa_offset 0
 159 000a 7047     		bx	lr
 160              		.cfi_endproc
 161              	.LFE66:
 162              		.size	isr_Timer_Quick_Interrupt, .-isr_Timer_Quick_Interrupt
 163              		.section	.text.isr_Timer_Quick_SetVector,"ax",%progbits
 164              		.align	2
 165              		.global	isr_Timer_Quick_SetVector
 166              		.thumb
 167              		.thumb_func
 168              		.type	isr_Timer_Quick_SetVector, %function
 169              	isr_Timer_Quick_SetVector:
 170              	.LFB67:
 217:Generated_Source\PSoC5/isr_Timer_Quick.c **** 
 218:Generated_Source\PSoC5/isr_Timer_Quick.c **** 
 219:Generated_Source\PSoC5/isr_Timer_Quick.c **** /*******************************************************************************
 220:Generated_Source\PSoC5/isr_Timer_Quick.c **** * Function Name: isr_Timer_Quick_SetVector
 221:Generated_Source\PSoC5/isr_Timer_Quick.c **** ********************************************************************************
 222:Generated_Source\PSoC5/isr_Timer_Quick.c **** *
 223:Generated_Source\PSoC5/isr_Timer_Quick.c **** * Summary:
 224:Generated_Source\PSoC5/isr_Timer_Quick.c **** *   Change the ISR vector for the Interrupt. Note calling isr_Timer_Quick_Start
 225:Generated_Source\PSoC5/isr_Timer_Quick.c **** *   will override any effect this method would have had. To set the vector 
 226:Generated_Source\PSoC5/isr_Timer_Quick.c **** *   before the component has been started use isr_Timer_Quick_StartEx instead.
 227:Generated_Source\PSoC5/isr_Timer_Quick.c **** * 
 228:Generated_Source\PSoC5/isr_Timer_Quick.c **** *   When defining ISR functions, the CY_ISR and CY_ISR_PROTO macros should be 
 229:Generated_Source\PSoC5/isr_Timer_Quick.c **** *   used to provide consistent definition across compilers:
ARM GAS  C:\Users\MARTHN~1\AppData\Local\Temp\ccyGpLYB.s 			page 8


 230:Generated_Source\PSoC5/isr_Timer_Quick.c **** *
 231:Generated_Source\PSoC5/isr_Timer_Quick.c **** *   Function definition example:
 232:Generated_Source\PSoC5/isr_Timer_Quick.c **** *   CY_ISR(MyISR)
 233:Generated_Source\PSoC5/isr_Timer_Quick.c **** *   {
 234:Generated_Source\PSoC5/isr_Timer_Quick.c **** *   }
 235:Generated_Source\PSoC5/isr_Timer_Quick.c **** *
 236:Generated_Source\PSoC5/isr_Timer_Quick.c **** *   Function prototype example:
 237:Generated_Source\PSoC5/isr_Timer_Quick.c **** *     CY_ISR_PROTO(MyISR);
 238:Generated_Source\PSoC5/isr_Timer_Quick.c **** *
 239:Generated_Source\PSoC5/isr_Timer_Quick.c **** * Parameters:
 240:Generated_Source\PSoC5/isr_Timer_Quick.c **** *   address: Address of the ISR to set in the interrupt vector table.
 241:Generated_Source\PSoC5/isr_Timer_Quick.c **** *
 242:Generated_Source\PSoC5/isr_Timer_Quick.c **** * Return:
 243:Generated_Source\PSoC5/isr_Timer_Quick.c **** *   None
 244:Generated_Source\PSoC5/isr_Timer_Quick.c **** *
 245:Generated_Source\PSoC5/isr_Timer_Quick.c **** *******************************************************************************/
 246:Generated_Source\PSoC5/isr_Timer_Quick.c **** void isr_Timer_Quick_SetVector(cyisraddress address)
 247:Generated_Source\PSoC5/isr_Timer_Quick.c **** {
 171              		.loc 1 247 0
 172              		.cfi_startproc
 173              		@ args = 0, pretend = 0, frame = 16
 174              		@ frame_needed = 1, uses_anonymous_args = 0
 175              		@ link register save eliminated.
 176 0000 80B4     		push	{r7}
 177              		.cfi_def_cfa_offset 4
 178              		.cfi_offset 7, -4
 179 0002 85B0     		sub	sp, sp, #20
 180              		.cfi_def_cfa_offset 24
 181 0004 00AF     		add	r7, sp, #0
 182              		.cfi_def_cfa_register 7
 183 0006 7860     		str	r0, [r7, #4]
 248:Generated_Source\PSoC5/isr_Timer_Quick.c ****     cyisraddress * ramVectorTable;
 249:Generated_Source\PSoC5/isr_Timer_Quick.c **** 
 250:Generated_Source\PSoC5/isr_Timer_Quick.c ****     ramVectorTable = (cyisraddress *) *CYINT_VECT_TABLE;
 184              		.loc 1 250 0
 185 0008 054B     		ldr	r3, .L10
 186 000a 1B68     		ldr	r3, [r3]
 187 000c FB60     		str	r3, [r7, #12]
 251:Generated_Source\PSoC5/isr_Timer_Quick.c **** 
 252:Generated_Source\PSoC5/isr_Timer_Quick.c ****     ramVectorTable[CYINT_IRQ_BASE + (uint32)isr_Timer_Quick__INTC_NUMBER] = address;
 188              		.loc 1 252 0
 189 000e FB68     		ldr	r3, [r7, #12]
 190 0010 4833     		adds	r3, r3, #72
 191 0012 7A68     		ldr	r2, [r7, #4]
 192 0014 1A60     		str	r2, [r3]
 253:Generated_Source\PSoC5/isr_Timer_Quick.c **** }
 193              		.loc 1 253 0
 194 0016 00BF     		nop
 195 0018 1437     		adds	r7, r7, #20
 196              		.cfi_def_cfa_offset 4
 197 001a BD46     		mov	sp, r7
 198              		.cfi_def_cfa_register 13
 199              		@ sp needed
 200 001c 80BC     		pop	{r7}
 201              		.cfi_restore 7
 202              		.cfi_def_cfa_offset 0
 203 001e 7047     		bx	lr
ARM GAS  C:\Users\MARTHN~1\AppData\Local\Temp\ccyGpLYB.s 			page 9


 204              	.L11:
 205              		.align	2
 206              	.L10:
 207 0020 08ED00E0 		.word	-536810232
 208              		.cfi_endproc
 209              	.LFE67:
 210              		.size	isr_Timer_Quick_SetVector, .-isr_Timer_Quick_SetVector
 211              		.section	.text.isr_Timer_Quick_GetVector,"ax",%progbits
 212              		.align	2
 213              		.global	isr_Timer_Quick_GetVector
 214              		.thumb
 215              		.thumb_func
 216              		.type	isr_Timer_Quick_GetVector, %function
 217              	isr_Timer_Quick_GetVector:
 218              	.LFB68:
 254:Generated_Source\PSoC5/isr_Timer_Quick.c **** 
 255:Generated_Source\PSoC5/isr_Timer_Quick.c **** 
 256:Generated_Source\PSoC5/isr_Timer_Quick.c **** /*******************************************************************************
 257:Generated_Source\PSoC5/isr_Timer_Quick.c **** * Function Name: isr_Timer_Quick_GetVector
 258:Generated_Source\PSoC5/isr_Timer_Quick.c **** ********************************************************************************
 259:Generated_Source\PSoC5/isr_Timer_Quick.c **** *
 260:Generated_Source\PSoC5/isr_Timer_Quick.c **** * Summary:
 261:Generated_Source\PSoC5/isr_Timer_Quick.c **** *   Gets the "address" of the current ISR vector for the Interrupt.
 262:Generated_Source\PSoC5/isr_Timer_Quick.c **** *
 263:Generated_Source\PSoC5/isr_Timer_Quick.c **** * Parameters:
 264:Generated_Source\PSoC5/isr_Timer_Quick.c **** *   None
 265:Generated_Source\PSoC5/isr_Timer_Quick.c **** *
 266:Generated_Source\PSoC5/isr_Timer_Quick.c **** * Return:
 267:Generated_Source\PSoC5/isr_Timer_Quick.c **** *   Address of the ISR in the interrupt vector table.
 268:Generated_Source\PSoC5/isr_Timer_Quick.c **** *
 269:Generated_Source\PSoC5/isr_Timer_Quick.c **** *******************************************************************************/
 270:Generated_Source\PSoC5/isr_Timer_Quick.c **** cyisraddress isr_Timer_Quick_GetVector(void)
 271:Generated_Source\PSoC5/isr_Timer_Quick.c **** {
 219              		.loc 1 271 0
 220              		.cfi_startproc
 221              		@ args = 0, pretend = 0, frame = 8
 222              		@ frame_needed = 1, uses_anonymous_args = 0
 223              		@ link register save eliminated.
 224 0000 80B4     		push	{r7}
 225              		.cfi_def_cfa_offset 4
 226              		.cfi_offset 7, -4
 227 0002 83B0     		sub	sp, sp, #12
 228              		.cfi_def_cfa_offset 16
 229 0004 00AF     		add	r7, sp, #0
 230              		.cfi_def_cfa_register 7
 272:Generated_Source\PSoC5/isr_Timer_Quick.c ****     cyisraddress * ramVectorTable;
 273:Generated_Source\PSoC5/isr_Timer_Quick.c **** 
 274:Generated_Source\PSoC5/isr_Timer_Quick.c ****     ramVectorTable = (cyisraddress *) *CYINT_VECT_TABLE;
 231              		.loc 1 274 0
 232 0006 054B     		ldr	r3, .L14
 233 0008 1B68     		ldr	r3, [r3]
 234 000a 7B60     		str	r3, [r7, #4]
 275:Generated_Source\PSoC5/isr_Timer_Quick.c **** 
 276:Generated_Source\PSoC5/isr_Timer_Quick.c ****     return ramVectorTable[CYINT_IRQ_BASE + (uint32)isr_Timer_Quick__INTC_NUMBER];
 235              		.loc 1 276 0
 236 000c 7B68     		ldr	r3, [r7, #4]
 237 000e 9B6C     		ldr	r3, [r3, #72]
ARM GAS  C:\Users\MARTHN~1\AppData\Local\Temp\ccyGpLYB.s 			page 10


 277:Generated_Source\PSoC5/isr_Timer_Quick.c **** }
 238              		.loc 1 277 0
 239 0010 1846     		mov	r0, r3
 240 0012 0C37     		adds	r7, r7, #12
 241              		.cfi_def_cfa_offset 4
 242 0014 BD46     		mov	sp, r7
 243              		.cfi_def_cfa_register 13
 244              		@ sp needed
 245 0016 80BC     		pop	{r7}
 246              		.cfi_restore 7
 247              		.cfi_def_cfa_offset 0
 248 0018 7047     		bx	lr
 249              	.L15:
 250 001a 00BF     		.align	2
 251              	.L14:
 252 001c 08ED00E0 		.word	-536810232
 253              		.cfi_endproc
 254              	.LFE68:
 255              		.size	isr_Timer_Quick_GetVector, .-isr_Timer_Quick_GetVector
 256              		.section	.text.isr_Timer_Quick_SetPriority,"ax",%progbits
 257              		.align	2
 258              		.global	isr_Timer_Quick_SetPriority
 259              		.thumb
 260              		.thumb_func
 261              		.type	isr_Timer_Quick_SetPriority, %function
 262              	isr_Timer_Quick_SetPriority:
 263              	.LFB69:
 278:Generated_Source\PSoC5/isr_Timer_Quick.c **** 
 279:Generated_Source\PSoC5/isr_Timer_Quick.c **** 
 280:Generated_Source\PSoC5/isr_Timer_Quick.c **** /*******************************************************************************
 281:Generated_Source\PSoC5/isr_Timer_Quick.c **** * Function Name: isr_Timer_Quick_SetPriority
 282:Generated_Source\PSoC5/isr_Timer_Quick.c **** ********************************************************************************
 283:Generated_Source\PSoC5/isr_Timer_Quick.c **** *
 284:Generated_Source\PSoC5/isr_Timer_Quick.c **** * Summary:
 285:Generated_Source\PSoC5/isr_Timer_Quick.c **** *   Sets the Priority of the Interrupt. 
 286:Generated_Source\PSoC5/isr_Timer_Quick.c **** *
 287:Generated_Source\PSoC5/isr_Timer_Quick.c **** *   Note calling isr_Timer_Quick_Start or isr_Timer_Quick_StartEx will 
 288:Generated_Source\PSoC5/isr_Timer_Quick.c **** *   override any effect this API would have had. This API should only be called
 289:Generated_Source\PSoC5/isr_Timer_Quick.c **** *   after isr_Timer_Quick_Start or isr_Timer_Quick_StartEx has been called. 
 290:Generated_Source\PSoC5/isr_Timer_Quick.c **** *   To set the initial priority for the component, use the Design-Wide Resources
 291:Generated_Source\PSoC5/isr_Timer_Quick.c **** *   Interrupt Editor.
 292:Generated_Source\PSoC5/isr_Timer_Quick.c **** *
 293:Generated_Source\PSoC5/isr_Timer_Quick.c **** *   Note This API has no effect on Non-maskable interrupt NMI).
 294:Generated_Source\PSoC5/isr_Timer_Quick.c **** *
 295:Generated_Source\PSoC5/isr_Timer_Quick.c **** * Parameters:
 296:Generated_Source\PSoC5/isr_Timer_Quick.c **** *   priority: Priority of the interrupt, 0 being the highest priority
 297:Generated_Source\PSoC5/isr_Timer_Quick.c **** *             PSoC 3 and PSoC 5LP: Priority is from 0 to 7.
 298:Generated_Source\PSoC5/isr_Timer_Quick.c **** *             PSoC 4: Priority is from 0 to 3.
 299:Generated_Source\PSoC5/isr_Timer_Quick.c **** *
 300:Generated_Source\PSoC5/isr_Timer_Quick.c **** * Return:
 301:Generated_Source\PSoC5/isr_Timer_Quick.c **** *   None
 302:Generated_Source\PSoC5/isr_Timer_Quick.c **** *
 303:Generated_Source\PSoC5/isr_Timer_Quick.c **** *******************************************************************************/
 304:Generated_Source\PSoC5/isr_Timer_Quick.c **** void isr_Timer_Quick_SetPriority(uint8 priority)
 305:Generated_Source\PSoC5/isr_Timer_Quick.c **** {
 264              		.loc 1 305 0
 265              		.cfi_startproc
ARM GAS  C:\Users\MARTHN~1\AppData\Local\Temp\ccyGpLYB.s 			page 11


 266              		@ args = 0, pretend = 0, frame = 8
 267              		@ frame_needed = 1, uses_anonymous_args = 0
 268              		@ link register save eliminated.
 269 0000 80B4     		push	{r7}
 270              		.cfi_def_cfa_offset 4
 271              		.cfi_offset 7, -4
 272 0002 83B0     		sub	sp, sp, #12
 273              		.cfi_def_cfa_offset 16
 274 0004 00AF     		add	r7, sp, #0
 275              		.cfi_def_cfa_register 7
 276 0006 0346     		mov	r3, r0
 277 0008 FB71     		strb	r3, [r7, #7]
 306:Generated_Source\PSoC5/isr_Timer_Quick.c ****     *isr_Timer_Quick_INTC_PRIOR = priority << 5;
 278              		.loc 1 306 0
 279 000a 054A     		ldr	r2, .L17
 280 000c FB79     		ldrb	r3, [r7, #7]
 281 000e 5B01     		lsls	r3, r3, #5
 282 0010 DBB2     		uxtb	r3, r3
 283 0012 1370     		strb	r3, [r2]
 307:Generated_Source\PSoC5/isr_Timer_Quick.c **** }
 284              		.loc 1 307 0
 285 0014 00BF     		nop
 286 0016 0C37     		adds	r7, r7, #12
 287              		.cfi_def_cfa_offset 4
 288 0018 BD46     		mov	sp, r7
 289              		.cfi_def_cfa_register 13
 290              		@ sp needed
 291 001a 80BC     		pop	{r7}
 292              		.cfi_restore 7
 293              		.cfi_def_cfa_offset 0
 294 001c 7047     		bx	lr
 295              	.L18:
 296 001e 00BF     		.align	2
 297              	.L17:
 298 0020 02E400E0 		.word	-536812542
 299              		.cfi_endproc
 300              	.LFE69:
 301              		.size	isr_Timer_Quick_SetPriority, .-isr_Timer_Quick_SetPriority
 302              		.section	.text.isr_Timer_Quick_GetPriority,"ax",%progbits
 303              		.align	2
 304              		.global	isr_Timer_Quick_GetPriority
 305              		.thumb
 306              		.thumb_func
 307              		.type	isr_Timer_Quick_GetPriority, %function
 308              	isr_Timer_Quick_GetPriority:
 309              	.LFB70:
 308:Generated_Source\PSoC5/isr_Timer_Quick.c **** 
 309:Generated_Source\PSoC5/isr_Timer_Quick.c **** 
 310:Generated_Source\PSoC5/isr_Timer_Quick.c **** /*******************************************************************************
 311:Generated_Source\PSoC5/isr_Timer_Quick.c **** * Function Name: isr_Timer_Quick_GetPriority
 312:Generated_Source\PSoC5/isr_Timer_Quick.c **** ********************************************************************************
 313:Generated_Source\PSoC5/isr_Timer_Quick.c **** *
 314:Generated_Source\PSoC5/isr_Timer_Quick.c **** * Summary:
 315:Generated_Source\PSoC5/isr_Timer_Quick.c **** *   Gets the Priority of the Interrupt.
 316:Generated_Source\PSoC5/isr_Timer_Quick.c **** *
 317:Generated_Source\PSoC5/isr_Timer_Quick.c **** * Parameters:
 318:Generated_Source\PSoC5/isr_Timer_Quick.c **** *   None
ARM GAS  C:\Users\MARTHN~1\AppData\Local\Temp\ccyGpLYB.s 			page 12


 319:Generated_Source\PSoC5/isr_Timer_Quick.c **** *
 320:Generated_Source\PSoC5/isr_Timer_Quick.c **** * Return:
 321:Generated_Source\PSoC5/isr_Timer_Quick.c **** *   Priority of the interrupt, 0 being the highest priority
 322:Generated_Source\PSoC5/isr_Timer_Quick.c **** *    PSoC 3 and PSoC 5LP: Priority is from 0 to 7.
 323:Generated_Source\PSoC5/isr_Timer_Quick.c **** *    PSoC 4: Priority is from 0 to 3.
 324:Generated_Source\PSoC5/isr_Timer_Quick.c **** *
 325:Generated_Source\PSoC5/isr_Timer_Quick.c **** *******************************************************************************/
 326:Generated_Source\PSoC5/isr_Timer_Quick.c **** uint8 isr_Timer_Quick_GetPriority(void)
 327:Generated_Source\PSoC5/isr_Timer_Quick.c **** {
 310              		.loc 1 327 0
 311              		.cfi_startproc
 312              		@ args = 0, pretend = 0, frame = 8
 313              		@ frame_needed = 1, uses_anonymous_args = 0
 314              		@ link register save eliminated.
 315 0000 80B4     		push	{r7}
 316              		.cfi_def_cfa_offset 4
 317              		.cfi_offset 7, -4
 318 0002 83B0     		sub	sp, sp, #12
 319              		.cfi_def_cfa_offset 16
 320 0004 00AF     		add	r7, sp, #0
 321              		.cfi_def_cfa_register 7
 328:Generated_Source\PSoC5/isr_Timer_Quick.c ****     uint8 priority;
 329:Generated_Source\PSoC5/isr_Timer_Quick.c **** 
 330:Generated_Source\PSoC5/isr_Timer_Quick.c **** 
 331:Generated_Source\PSoC5/isr_Timer_Quick.c ****     priority = *isr_Timer_Quick_INTC_PRIOR >> 5;
 322              		.loc 1 331 0
 323 0006 054B     		ldr	r3, .L21
 324 0008 1B78     		ldrb	r3, [r3]
 325 000a DBB2     		uxtb	r3, r3
 326 000c 5B09     		lsrs	r3, r3, #5
 327 000e FB71     		strb	r3, [r7, #7]
 332:Generated_Source\PSoC5/isr_Timer_Quick.c **** 
 333:Generated_Source\PSoC5/isr_Timer_Quick.c ****     return priority;
 328              		.loc 1 333 0
 329 0010 FB79     		ldrb	r3, [r7, #7]	@ zero_extendqisi2
 334:Generated_Source\PSoC5/isr_Timer_Quick.c **** }
 330              		.loc 1 334 0
 331 0012 1846     		mov	r0, r3
 332 0014 0C37     		adds	r7, r7, #12
 333              		.cfi_def_cfa_offset 4
 334 0016 BD46     		mov	sp, r7
 335              		.cfi_def_cfa_register 13
 336              		@ sp needed
 337 0018 80BC     		pop	{r7}
 338              		.cfi_restore 7
 339              		.cfi_def_cfa_offset 0
 340 001a 7047     		bx	lr
 341              	.L22:
 342              		.align	2
 343              	.L21:
 344 001c 02E400E0 		.word	-536812542
 345              		.cfi_endproc
 346              	.LFE70:
 347              		.size	isr_Timer_Quick_GetPriority, .-isr_Timer_Quick_GetPriority
 348              		.section	.text.isr_Timer_Quick_Enable,"ax",%progbits
 349              		.align	2
 350              		.global	isr_Timer_Quick_Enable
ARM GAS  C:\Users\MARTHN~1\AppData\Local\Temp\ccyGpLYB.s 			page 13


 351              		.thumb
 352              		.thumb_func
 353              		.type	isr_Timer_Quick_Enable, %function
 354              	isr_Timer_Quick_Enable:
 355              	.LFB71:
 335:Generated_Source\PSoC5/isr_Timer_Quick.c **** 
 336:Generated_Source\PSoC5/isr_Timer_Quick.c **** 
 337:Generated_Source\PSoC5/isr_Timer_Quick.c **** /*******************************************************************************
 338:Generated_Source\PSoC5/isr_Timer_Quick.c **** * Function Name: isr_Timer_Quick_Enable
 339:Generated_Source\PSoC5/isr_Timer_Quick.c **** ********************************************************************************
 340:Generated_Source\PSoC5/isr_Timer_Quick.c **** *
 341:Generated_Source\PSoC5/isr_Timer_Quick.c **** * Summary:
 342:Generated_Source\PSoC5/isr_Timer_Quick.c **** *   Enables the interrupt to the interrupt controller. Do not call this function
 343:Generated_Source\PSoC5/isr_Timer_Quick.c **** *   unless ISR_Start() has been called or the functionality of the ISR_Start() 
 344:Generated_Source\PSoC5/isr_Timer_Quick.c **** *   function, which sets the vector and the priority, has been called.
 345:Generated_Source\PSoC5/isr_Timer_Quick.c **** *
 346:Generated_Source\PSoC5/isr_Timer_Quick.c **** * Parameters:
 347:Generated_Source\PSoC5/isr_Timer_Quick.c **** *   None
 348:Generated_Source\PSoC5/isr_Timer_Quick.c **** *
 349:Generated_Source\PSoC5/isr_Timer_Quick.c **** * Return:
 350:Generated_Source\PSoC5/isr_Timer_Quick.c **** *   None
 351:Generated_Source\PSoC5/isr_Timer_Quick.c **** *
 352:Generated_Source\PSoC5/isr_Timer_Quick.c **** *******************************************************************************/
 353:Generated_Source\PSoC5/isr_Timer_Quick.c **** void isr_Timer_Quick_Enable(void)
 354:Generated_Source\PSoC5/isr_Timer_Quick.c **** {
 356              		.loc 1 354 0
 357              		.cfi_startproc
 358              		@ args = 0, pretend = 0, frame = 0
 359              		@ frame_needed = 1, uses_anonymous_args = 0
 360              		@ link register save eliminated.
 361 0000 80B4     		push	{r7}
 362              		.cfi_def_cfa_offset 4
 363              		.cfi_offset 7, -4
 364 0002 00AF     		add	r7, sp, #0
 365              		.cfi_def_cfa_register 7
 355:Generated_Source\PSoC5/isr_Timer_Quick.c ****     /* Enable the general interrupt. */
 356:Generated_Source\PSoC5/isr_Timer_Quick.c ****     *isr_Timer_Quick_INTC_SET_EN = isr_Timer_Quick__INTC_MASK;
 366              		.loc 1 356 0
 367 0004 034B     		ldr	r3, .L24
 368 0006 0422     		movs	r2, #4
 369 0008 1A60     		str	r2, [r3]
 357:Generated_Source\PSoC5/isr_Timer_Quick.c **** }
 370              		.loc 1 357 0
 371 000a 00BF     		nop
 372 000c BD46     		mov	sp, r7
 373              		.cfi_def_cfa_register 13
 374              		@ sp needed
 375 000e 80BC     		pop	{r7}
 376              		.cfi_restore 7
 377              		.cfi_def_cfa_offset 0
 378 0010 7047     		bx	lr
 379              	.L25:
 380 0012 00BF     		.align	2
 381              	.L24:
 382 0014 00E100E0 		.word	-536813312
 383              		.cfi_endproc
 384              	.LFE71:
ARM GAS  C:\Users\MARTHN~1\AppData\Local\Temp\ccyGpLYB.s 			page 14


 385              		.size	isr_Timer_Quick_Enable, .-isr_Timer_Quick_Enable
 386              		.section	.text.isr_Timer_Quick_GetState,"ax",%progbits
 387              		.align	2
 388              		.global	isr_Timer_Quick_GetState
 389              		.thumb
 390              		.thumb_func
 391              		.type	isr_Timer_Quick_GetState, %function
 392              	isr_Timer_Quick_GetState:
 393              	.LFB72:
 358:Generated_Source\PSoC5/isr_Timer_Quick.c **** 
 359:Generated_Source\PSoC5/isr_Timer_Quick.c **** 
 360:Generated_Source\PSoC5/isr_Timer_Quick.c **** /*******************************************************************************
 361:Generated_Source\PSoC5/isr_Timer_Quick.c **** * Function Name: isr_Timer_Quick_GetState
 362:Generated_Source\PSoC5/isr_Timer_Quick.c **** ********************************************************************************
 363:Generated_Source\PSoC5/isr_Timer_Quick.c **** *
 364:Generated_Source\PSoC5/isr_Timer_Quick.c **** * Summary:
 365:Generated_Source\PSoC5/isr_Timer_Quick.c **** *   Gets the state (enabled, disabled) of the Interrupt.
 366:Generated_Source\PSoC5/isr_Timer_Quick.c **** *
 367:Generated_Source\PSoC5/isr_Timer_Quick.c **** * Parameters:
 368:Generated_Source\PSoC5/isr_Timer_Quick.c **** *   None
 369:Generated_Source\PSoC5/isr_Timer_Quick.c **** *
 370:Generated_Source\PSoC5/isr_Timer_Quick.c **** * Return:
 371:Generated_Source\PSoC5/isr_Timer_Quick.c **** *   1 if enabled, 0 if disabled.
 372:Generated_Source\PSoC5/isr_Timer_Quick.c **** *
 373:Generated_Source\PSoC5/isr_Timer_Quick.c **** *******************************************************************************/
 374:Generated_Source\PSoC5/isr_Timer_Quick.c **** uint8 isr_Timer_Quick_GetState(void)
 375:Generated_Source\PSoC5/isr_Timer_Quick.c **** {
 394              		.loc 1 375 0
 395              		.cfi_startproc
 396              		@ args = 0, pretend = 0, frame = 0
 397              		@ frame_needed = 1, uses_anonymous_args = 0
 398              		@ link register save eliminated.
 399 0000 80B4     		push	{r7}
 400              		.cfi_def_cfa_offset 4
 401              		.cfi_offset 7, -4
 402 0002 00AF     		add	r7, sp, #0
 403              		.cfi_def_cfa_register 7
 376:Generated_Source\PSoC5/isr_Timer_Quick.c ****     /* Get the state of the general interrupt. */
 377:Generated_Source\PSoC5/isr_Timer_Quick.c ****     return ((*isr_Timer_Quick_INTC_SET_EN & (uint32)isr_Timer_Quick__INTC_MASK) != 0u) ? 1u:0u;
 404              		.loc 1 377 0
 405 0004 064B     		ldr	r3, .L30
 406 0006 1B68     		ldr	r3, [r3]
 407 0008 03F00403 		and	r3, r3, #4
 408 000c 002B     		cmp	r3, #0
 409 000e 01D0     		beq	.L27
 410              		.loc 1 377 0 is_stmt 0 discriminator 1
 411 0010 0123     		movs	r3, #1
 412 0012 00E0     		b	.L28
 413              	.L27:
 414              		.loc 1 377 0 discriminator 2
 415 0014 0023     		movs	r3, #0
 416              	.L28:
 378:Generated_Source\PSoC5/isr_Timer_Quick.c **** }
 417              		.loc 1 378 0 is_stmt 1 discriminator 4
 418 0016 1846     		mov	r0, r3
 419 0018 BD46     		mov	sp, r7
 420              		.cfi_def_cfa_register 13
ARM GAS  C:\Users\MARTHN~1\AppData\Local\Temp\ccyGpLYB.s 			page 15


 421              		@ sp needed
 422 001a 80BC     		pop	{r7}
 423              		.cfi_restore 7
 424              		.cfi_def_cfa_offset 0
 425 001c 7047     		bx	lr
 426              	.L31:
 427 001e 00BF     		.align	2
 428              	.L30:
 429 0020 00E100E0 		.word	-536813312
 430              		.cfi_endproc
 431              	.LFE72:
 432              		.size	isr_Timer_Quick_GetState, .-isr_Timer_Quick_GetState
 433              		.section	.text.isr_Timer_Quick_Disable,"ax",%progbits
 434              		.align	2
 435              		.global	isr_Timer_Quick_Disable
 436              		.thumb
 437              		.thumb_func
 438              		.type	isr_Timer_Quick_Disable, %function
 439              	isr_Timer_Quick_Disable:
 440              	.LFB73:
 379:Generated_Source\PSoC5/isr_Timer_Quick.c **** 
 380:Generated_Source\PSoC5/isr_Timer_Quick.c **** 
 381:Generated_Source\PSoC5/isr_Timer_Quick.c **** /*******************************************************************************
 382:Generated_Source\PSoC5/isr_Timer_Quick.c **** * Function Name: isr_Timer_Quick_Disable
 383:Generated_Source\PSoC5/isr_Timer_Quick.c **** ********************************************************************************
 384:Generated_Source\PSoC5/isr_Timer_Quick.c **** *
 385:Generated_Source\PSoC5/isr_Timer_Quick.c **** * Summary:
 386:Generated_Source\PSoC5/isr_Timer_Quick.c **** *   Disables the Interrupt in the interrupt controller.
 387:Generated_Source\PSoC5/isr_Timer_Quick.c **** *
 388:Generated_Source\PSoC5/isr_Timer_Quick.c **** * Parameters:
 389:Generated_Source\PSoC5/isr_Timer_Quick.c **** *   None
 390:Generated_Source\PSoC5/isr_Timer_Quick.c **** *
 391:Generated_Source\PSoC5/isr_Timer_Quick.c **** * Return:
 392:Generated_Source\PSoC5/isr_Timer_Quick.c **** *   None
 393:Generated_Source\PSoC5/isr_Timer_Quick.c **** *
 394:Generated_Source\PSoC5/isr_Timer_Quick.c **** *******************************************************************************/
 395:Generated_Source\PSoC5/isr_Timer_Quick.c **** void isr_Timer_Quick_Disable(void)
 396:Generated_Source\PSoC5/isr_Timer_Quick.c **** {
 441              		.loc 1 396 0
 442              		.cfi_startproc
 443              		@ args = 0, pretend = 0, frame = 0
 444              		@ frame_needed = 1, uses_anonymous_args = 0
 445              		@ link register save eliminated.
 446 0000 80B4     		push	{r7}
 447              		.cfi_def_cfa_offset 4
 448              		.cfi_offset 7, -4
 449 0002 00AF     		add	r7, sp, #0
 450              		.cfi_def_cfa_register 7
 397:Generated_Source\PSoC5/isr_Timer_Quick.c ****     /* Disable the general interrupt. */
 398:Generated_Source\PSoC5/isr_Timer_Quick.c ****     *isr_Timer_Quick_INTC_CLR_EN = isr_Timer_Quick__INTC_MASK;
 451              		.loc 1 398 0
 452 0004 034B     		ldr	r3, .L33
 453 0006 0422     		movs	r2, #4
 454 0008 1A60     		str	r2, [r3]
 399:Generated_Source\PSoC5/isr_Timer_Quick.c **** }
 455              		.loc 1 399 0
 456 000a 00BF     		nop
ARM GAS  C:\Users\MARTHN~1\AppData\Local\Temp\ccyGpLYB.s 			page 16


 457 000c BD46     		mov	sp, r7
 458              		.cfi_def_cfa_register 13
 459              		@ sp needed
 460 000e 80BC     		pop	{r7}
 461              		.cfi_restore 7
 462              		.cfi_def_cfa_offset 0
 463 0010 7047     		bx	lr
 464              	.L34:
 465 0012 00BF     		.align	2
 466              	.L33:
 467 0014 80E100E0 		.word	-536813184
 468              		.cfi_endproc
 469              	.LFE73:
 470              		.size	isr_Timer_Quick_Disable, .-isr_Timer_Quick_Disable
 471              		.section	.text.isr_Timer_Quick_SetPending,"ax",%progbits
 472              		.align	2
 473              		.global	isr_Timer_Quick_SetPending
 474              		.thumb
 475              		.thumb_func
 476              		.type	isr_Timer_Quick_SetPending, %function
 477              	isr_Timer_Quick_SetPending:
 478              	.LFB74:
 400:Generated_Source\PSoC5/isr_Timer_Quick.c **** 
 401:Generated_Source\PSoC5/isr_Timer_Quick.c **** 
 402:Generated_Source\PSoC5/isr_Timer_Quick.c **** /*******************************************************************************
 403:Generated_Source\PSoC5/isr_Timer_Quick.c **** * Function Name: isr_Timer_Quick_SetPending
 404:Generated_Source\PSoC5/isr_Timer_Quick.c **** ********************************************************************************
 405:Generated_Source\PSoC5/isr_Timer_Quick.c **** *
 406:Generated_Source\PSoC5/isr_Timer_Quick.c **** * Summary:
 407:Generated_Source\PSoC5/isr_Timer_Quick.c **** *   Causes the Interrupt to enter the pending state, a software method of
 408:Generated_Source\PSoC5/isr_Timer_Quick.c **** *   generating the interrupt.
 409:Generated_Source\PSoC5/isr_Timer_Quick.c **** *
 410:Generated_Source\PSoC5/isr_Timer_Quick.c **** * Parameters:
 411:Generated_Source\PSoC5/isr_Timer_Quick.c **** *   None
 412:Generated_Source\PSoC5/isr_Timer_Quick.c **** *
 413:Generated_Source\PSoC5/isr_Timer_Quick.c **** * Return:
 414:Generated_Source\PSoC5/isr_Timer_Quick.c **** *   None
 415:Generated_Source\PSoC5/isr_Timer_Quick.c **** *
 416:Generated_Source\PSoC5/isr_Timer_Quick.c **** * Side Effects:
 417:Generated_Source\PSoC5/isr_Timer_Quick.c **** *   If interrupts are enabled and the interrupt is set up properly, the ISR is
 418:Generated_Source\PSoC5/isr_Timer_Quick.c **** *   entered (depending on the priority of this interrupt and other pending 
 419:Generated_Source\PSoC5/isr_Timer_Quick.c **** *   interrupts).
 420:Generated_Source\PSoC5/isr_Timer_Quick.c **** *
 421:Generated_Source\PSoC5/isr_Timer_Quick.c **** *******************************************************************************/
 422:Generated_Source\PSoC5/isr_Timer_Quick.c **** void isr_Timer_Quick_SetPending(void)
 423:Generated_Source\PSoC5/isr_Timer_Quick.c **** {
 479              		.loc 1 423 0
 480              		.cfi_startproc
 481              		@ args = 0, pretend = 0, frame = 0
 482              		@ frame_needed = 1, uses_anonymous_args = 0
 483              		@ link register save eliminated.
 484 0000 80B4     		push	{r7}
 485              		.cfi_def_cfa_offset 4
 486              		.cfi_offset 7, -4
 487 0002 00AF     		add	r7, sp, #0
 488              		.cfi_def_cfa_register 7
 424:Generated_Source\PSoC5/isr_Timer_Quick.c ****     *isr_Timer_Quick_INTC_SET_PD = isr_Timer_Quick__INTC_MASK;
ARM GAS  C:\Users\MARTHN~1\AppData\Local\Temp\ccyGpLYB.s 			page 17


 489              		.loc 1 424 0
 490 0004 034B     		ldr	r3, .L36
 491 0006 0422     		movs	r2, #4
 492 0008 1A60     		str	r2, [r3]
 425:Generated_Source\PSoC5/isr_Timer_Quick.c **** }
 493              		.loc 1 425 0
 494 000a 00BF     		nop
 495 000c BD46     		mov	sp, r7
 496              		.cfi_def_cfa_register 13
 497              		@ sp needed
 498 000e 80BC     		pop	{r7}
 499              		.cfi_restore 7
 500              		.cfi_def_cfa_offset 0
 501 0010 7047     		bx	lr
 502              	.L37:
 503 0012 00BF     		.align	2
 504              	.L36:
 505 0014 00E200E0 		.word	-536813056
 506              		.cfi_endproc
 507              	.LFE74:
 508              		.size	isr_Timer_Quick_SetPending, .-isr_Timer_Quick_SetPending
 509              		.section	.text.isr_Timer_Quick_ClearPending,"ax",%progbits
 510              		.align	2
 511              		.global	isr_Timer_Quick_ClearPending
 512              		.thumb
 513              		.thumb_func
 514              		.type	isr_Timer_Quick_ClearPending, %function
 515              	isr_Timer_Quick_ClearPending:
 516              	.LFB75:
 426:Generated_Source\PSoC5/isr_Timer_Quick.c **** 
 427:Generated_Source\PSoC5/isr_Timer_Quick.c **** 
 428:Generated_Source\PSoC5/isr_Timer_Quick.c **** /*******************************************************************************
 429:Generated_Source\PSoC5/isr_Timer_Quick.c **** * Function Name: isr_Timer_Quick_ClearPending
 430:Generated_Source\PSoC5/isr_Timer_Quick.c **** ********************************************************************************
 431:Generated_Source\PSoC5/isr_Timer_Quick.c **** *
 432:Generated_Source\PSoC5/isr_Timer_Quick.c **** * Summary:
 433:Generated_Source\PSoC5/isr_Timer_Quick.c **** *   Clears a pending interrupt in the interrupt controller.
 434:Generated_Source\PSoC5/isr_Timer_Quick.c **** *
 435:Generated_Source\PSoC5/isr_Timer_Quick.c **** *   Note Some interrupt sources are clear-on-read and require the block 
 436:Generated_Source\PSoC5/isr_Timer_Quick.c **** *   interrupt/status register to be read/cleared with the appropriate block API 
 437:Generated_Source\PSoC5/isr_Timer_Quick.c **** *   (GPIO, UART, and so on). Otherwise the ISR will continue to remain in 
 438:Generated_Source\PSoC5/isr_Timer_Quick.c **** *   pending state even though the interrupt itself is cleared using this API.
 439:Generated_Source\PSoC5/isr_Timer_Quick.c **** *
 440:Generated_Source\PSoC5/isr_Timer_Quick.c **** * Parameters:
 441:Generated_Source\PSoC5/isr_Timer_Quick.c **** *   None
 442:Generated_Source\PSoC5/isr_Timer_Quick.c **** *
 443:Generated_Source\PSoC5/isr_Timer_Quick.c **** * Return:
 444:Generated_Source\PSoC5/isr_Timer_Quick.c **** *   None
 445:Generated_Source\PSoC5/isr_Timer_Quick.c **** *
 446:Generated_Source\PSoC5/isr_Timer_Quick.c **** *******************************************************************************/
 447:Generated_Source\PSoC5/isr_Timer_Quick.c **** void isr_Timer_Quick_ClearPending(void)
 448:Generated_Source\PSoC5/isr_Timer_Quick.c **** {
 517              		.loc 1 448 0
 518              		.cfi_startproc
 519              		@ args = 0, pretend = 0, frame = 0
 520              		@ frame_needed = 1, uses_anonymous_args = 0
 521              		@ link register save eliminated.
ARM GAS  C:\Users\MARTHN~1\AppData\Local\Temp\ccyGpLYB.s 			page 18


 522 0000 80B4     		push	{r7}
 523              		.cfi_def_cfa_offset 4
 524              		.cfi_offset 7, -4
 525 0002 00AF     		add	r7, sp, #0
 526              		.cfi_def_cfa_register 7
 449:Generated_Source\PSoC5/isr_Timer_Quick.c ****     *isr_Timer_Quick_INTC_CLR_PD = isr_Timer_Quick__INTC_MASK;
 527              		.loc 1 449 0
 528 0004 034B     		ldr	r3, .L39
 529 0006 0422     		movs	r2, #4
 530 0008 1A60     		str	r2, [r3]
 450:Generated_Source\PSoC5/isr_Timer_Quick.c **** }
 531              		.loc 1 450 0
 532 000a 00BF     		nop
 533 000c BD46     		mov	sp, r7
 534              		.cfi_def_cfa_register 13
 535              		@ sp needed
 536 000e 80BC     		pop	{r7}
 537              		.cfi_restore 7
 538              		.cfi_def_cfa_offset 0
 539 0010 7047     		bx	lr
 540              	.L40:
 541 0012 00BF     		.align	2
 542              	.L39:
 543 0014 80E200E0 		.word	-536812928
 544              		.cfi_endproc
 545              	.LFE75:
 546              		.size	isr_Timer_Quick_ClearPending, .-isr_Timer_Quick_ClearPending
 547              		.text
 548              	.Letext0:
 549              		.file 2 "c:\\program files (x86)\\cypress\\psoc creator\\4.3\\psoc creator\\import\\gnu\\arm\\5.4.
 550              		.file 3 "c:\\program files (x86)\\cypress\\psoc creator\\4.3\\psoc creator\\import\\gnu\\arm\\5.4.
 551              		.file 4 "Generated_Source\\PSoC5/cytypes.h"
 552              		.file 5 "Generated_Source\\PSoC5/core_cm3.h"