ARM GAS  C:\Users\MARTHN~1\AppData\Local\Temp\ccJMYgk5.s 			page 1


   1              		.syntax unified
   2              		.cpu cortex-m3
   3              		.fpu softvfp
   4              		.eabi_attribute 20, 1
   5              		.eabi_attribute 21, 1
   6              		.eabi_attribute 23, 3
   7              		.eabi_attribute 24, 1
   8              		.eabi_attribute 25, 1
   9              		.eabi_attribute 26, 1
  10              		.eabi_attribute 30, 6
  11              		.eabi_attribute 34, 1
  12              		.eabi_attribute 18, 4
  13              		.thumb
  14              		.syntax unified
  15              		.file	"isr_ADC_AudioStream.c"
  16              		.text
  17              	.Ltext0:
  18              		.cfi_sections	.debug_frame
  19              		.bss
  20              		.align	1
  21              	iterator:
  22 0000 0000     		.space	2
  23 0002 0000     		.align	2
  24              	ADCReading:
  25 0004 00000000 		.space	200
  25      00000000 
  25      00000000 
  25      00000000 
  25      00000000 
  26              		.section	.text.isr_ADC_AudioStream_Start,"ax",%progbits
  27              		.align	2
  28              		.global	isr_ADC_AudioStream_Start
  29              		.thumb
  30              		.thumb_func
  31              		.type	isr_ADC_AudioStream_Start, %function
  32              	isr_ADC_AudioStream_Start:
  33              	.LFB63:
  34              		.file 1 "Generated_Source\\PSoC5\\isr_ADC_AudioStream.c"
   1:Generated_Source\PSoC5/isr_ADC_AudioStream.c **** /*******************************************************************************
   2:Generated_Source\PSoC5/isr_ADC_AudioStream.c **** * File Name: isr_ADC_AudioStream.c  
   3:Generated_Source\PSoC5/isr_ADC_AudioStream.c **** * Version 1.70
   4:Generated_Source\PSoC5/isr_ADC_AudioStream.c **** *
   5:Generated_Source\PSoC5/isr_ADC_AudioStream.c **** *  Description:
   6:Generated_Source\PSoC5/isr_ADC_AudioStream.c **** *   API for controlling the state of an interrupt.
   7:Generated_Source\PSoC5/isr_ADC_AudioStream.c **** *
   8:Generated_Source\PSoC5/isr_ADC_AudioStream.c **** *
   9:Generated_Source\PSoC5/isr_ADC_AudioStream.c **** *  Note:
  10:Generated_Source\PSoC5/isr_ADC_AudioStream.c **** *
  11:Generated_Source\PSoC5/isr_ADC_AudioStream.c **** ********************************************************************************
  12:Generated_Source\PSoC5/isr_ADC_AudioStream.c **** * Copyright 2008-2015, Cypress Semiconductor Corporation.  All rights reserved.
  13:Generated_Source\PSoC5/isr_ADC_AudioStream.c **** * You may use this file only in accordance with the license, terms, conditions, 
  14:Generated_Source\PSoC5/isr_ADC_AudioStream.c **** * disclaimers, and limitations in the end user license agreement accompanying 
  15:Generated_Source\PSoC5/isr_ADC_AudioStream.c **** * the software package with which this file was provided.
  16:Generated_Source\PSoC5/isr_ADC_AudioStream.c **** *******************************************************************************/
  17:Generated_Source\PSoC5/isr_ADC_AudioStream.c **** 
  18:Generated_Source\PSoC5/isr_ADC_AudioStream.c **** 
  19:Generated_Source\PSoC5/isr_ADC_AudioStream.c **** #include <cydevice_trm.h>
ARM GAS  C:\Users\MARTHN~1\AppData\Local\Temp\ccJMYgk5.s 			page 2


  20:Generated_Source\PSoC5/isr_ADC_AudioStream.c **** #include <CyLib.h>
  21:Generated_Source\PSoC5/isr_ADC_AudioStream.c **** #include <isr_ADC_AudioStream.h>
  22:Generated_Source\PSoC5/isr_ADC_AudioStream.c **** #include "cyapicallbacks.h"
  23:Generated_Source\PSoC5/isr_ADC_AudioStream.c **** 
  24:Generated_Source\PSoC5/isr_ADC_AudioStream.c **** #if !defined(isr_ADC_AudioStream__REMOVED) /* Check for removal by optimization */
  25:Generated_Source\PSoC5/isr_ADC_AudioStream.c **** 
  26:Generated_Source\PSoC5/isr_ADC_AudioStream.c **** /*******************************************************************************
  27:Generated_Source\PSoC5/isr_ADC_AudioStream.c **** *  Place your includes, defines and code here 
  28:Generated_Source\PSoC5/isr_ADC_AudioStream.c **** ********************************************************************************/
  29:Generated_Source\PSoC5/isr_ADC_AudioStream.c **** /* `#START isr_ADC_AudioStream_intc` */
  30:Generated_Source\PSoC5/isr_ADC_AudioStream.c ****     
  31:Generated_Source\PSoC5/isr_ADC_AudioStream.c ****     #include <project.h>
  32:Generated_Source\PSoC5/isr_ADC_AudioStream.c ****     static uint16 iterator = 0;
  33:Generated_Source\PSoC5/isr_ADC_AudioStream.c ****     static uint16 ADCReading[100];
  34:Generated_Source\PSoC5/isr_ADC_AudioStream.c ****         
  35:Generated_Source\PSoC5/isr_ADC_AudioStream.c **** 
  36:Generated_Source\PSoC5/isr_ADC_AudioStream.c **** /* `#END` */
  37:Generated_Source\PSoC5/isr_ADC_AudioStream.c **** 
  38:Generated_Source\PSoC5/isr_ADC_AudioStream.c **** #ifndef CYINT_IRQ_BASE
  39:Generated_Source\PSoC5/isr_ADC_AudioStream.c **** #define CYINT_IRQ_BASE      16
  40:Generated_Source\PSoC5/isr_ADC_AudioStream.c **** #endif /* CYINT_IRQ_BASE */
  41:Generated_Source\PSoC5/isr_ADC_AudioStream.c **** #ifndef CYINT_VECT_TABLE
  42:Generated_Source\PSoC5/isr_ADC_AudioStream.c **** #define CYINT_VECT_TABLE    ((cyisraddress **) CYREG_NVIC_VECT_OFFSET)
  43:Generated_Source\PSoC5/isr_ADC_AudioStream.c **** #endif /* CYINT_VECT_TABLE */
  44:Generated_Source\PSoC5/isr_ADC_AudioStream.c **** 
  45:Generated_Source\PSoC5/isr_ADC_AudioStream.c **** /* Declared in startup, used to set unused interrupts to. */
  46:Generated_Source\PSoC5/isr_ADC_AudioStream.c **** CY_ISR_PROTO(IntDefaultHandler);
  47:Generated_Source\PSoC5/isr_ADC_AudioStream.c **** 
  48:Generated_Source\PSoC5/isr_ADC_AudioStream.c **** 
  49:Generated_Source\PSoC5/isr_ADC_AudioStream.c **** /*******************************************************************************
  50:Generated_Source\PSoC5/isr_ADC_AudioStream.c **** * Function Name: isr_ADC_AudioStream_Start
  51:Generated_Source\PSoC5/isr_ADC_AudioStream.c **** ********************************************************************************
  52:Generated_Source\PSoC5/isr_ADC_AudioStream.c **** *
  53:Generated_Source\PSoC5/isr_ADC_AudioStream.c **** * Summary:
  54:Generated_Source\PSoC5/isr_ADC_AudioStream.c **** *  Set up the interrupt and enable it. This function disables the interrupt, 
  55:Generated_Source\PSoC5/isr_ADC_AudioStream.c **** *  sets the default interrupt vector, sets the priority from the value in the
  56:Generated_Source\PSoC5/isr_ADC_AudioStream.c **** *  Design Wide Resources Interrupt Editor, then enables the interrupt to the 
  57:Generated_Source\PSoC5/isr_ADC_AudioStream.c **** *  interrupt controller.
  58:Generated_Source\PSoC5/isr_ADC_AudioStream.c **** *
  59:Generated_Source\PSoC5/isr_ADC_AudioStream.c **** * Parameters:  
  60:Generated_Source\PSoC5/isr_ADC_AudioStream.c **** *   None
  61:Generated_Source\PSoC5/isr_ADC_AudioStream.c **** *
  62:Generated_Source\PSoC5/isr_ADC_AudioStream.c **** * Return:
  63:Generated_Source\PSoC5/isr_ADC_AudioStream.c **** *   None
  64:Generated_Source\PSoC5/isr_ADC_AudioStream.c **** *
  65:Generated_Source\PSoC5/isr_ADC_AudioStream.c **** *******************************************************************************/
  66:Generated_Source\PSoC5/isr_ADC_AudioStream.c **** void isr_ADC_AudioStream_Start(void)
  67:Generated_Source\PSoC5/isr_ADC_AudioStream.c **** {
  35              		.loc 1 67 0
  36              		.cfi_startproc
  37              		@ args = 0, pretend = 0, frame = 0
  38              		@ frame_needed = 1, uses_anonymous_args = 0
  39 0000 80B5     		push	{r7, lr}
  40              		.cfi_def_cfa_offset 8
  41              		.cfi_offset 7, -8
  42              		.cfi_offset 14, -4
  43 0002 00AF     		add	r7, sp, #0
ARM GAS  C:\Users\MARTHN~1\AppData\Local\Temp\ccJMYgk5.s 			page 3


  44              		.cfi_def_cfa_register 7
  68:Generated_Source\PSoC5/isr_ADC_AudioStream.c ****     /* For all we know the interrupt is active. */
  69:Generated_Source\PSoC5/isr_ADC_AudioStream.c ****     isr_ADC_AudioStream_Disable();
  45              		.loc 1 69 0
  46 0004 FFF7FEFF 		bl	isr_ADC_AudioStream_Disable
  70:Generated_Source\PSoC5/isr_ADC_AudioStream.c **** 
  71:Generated_Source\PSoC5/isr_ADC_AudioStream.c ****     /* Set the ISR to point to the isr_ADC_AudioStream Interrupt. */
  72:Generated_Source\PSoC5/isr_ADC_AudioStream.c ****     isr_ADC_AudioStream_SetVector(&isr_ADC_AudioStream_Interrupt);
  47              		.loc 1 72 0
  48 0008 0448     		ldr	r0, .L2
  49 000a FFF7FEFF 		bl	isr_ADC_AudioStream_SetVector
  73:Generated_Source\PSoC5/isr_ADC_AudioStream.c **** 
  74:Generated_Source\PSoC5/isr_ADC_AudioStream.c ****     /* Set the priority. */
  75:Generated_Source\PSoC5/isr_ADC_AudioStream.c ****     isr_ADC_AudioStream_SetPriority((uint8)isr_ADC_AudioStream_INTC_PRIOR_NUMBER);
  50              		.loc 1 75 0
  51 000e 0720     		movs	r0, #7
  52 0010 FFF7FEFF 		bl	isr_ADC_AudioStream_SetPriority
  76:Generated_Source\PSoC5/isr_ADC_AudioStream.c **** 
  77:Generated_Source\PSoC5/isr_ADC_AudioStream.c ****     /* Enable it. */
  78:Generated_Source\PSoC5/isr_ADC_AudioStream.c ****     isr_ADC_AudioStream_Enable();
  53              		.loc 1 78 0
  54 0014 FFF7FEFF 		bl	isr_ADC_AudioStream_Enable
  79:Generated_Source\PSoC5/isr_ADC_AudioStream.c **** }
  55              		.loc 1 79 0
  56 0018 00BF     		nop
  57 001a 80BD     		pop	{r7, pc}
  58              	.L3:
  59              		.align	2
  60              	.L2:
  61 001c 00000000 		.word	isr_ADC_AudioStream_Interrupt
  62              		.cfi_endproc
  63              	.LFE63:
  64              		.size	isr_ADC_AudioStream_Start, .-isr_ADC_AudioStream_Start
  65              		.section	.text.isr_ADC_AudioStream_StartEx,"ax",%progbits
  66              		.align	2
  67              		.global	isr_ADC_AudioStream_StartEx
  68              		.thumb
  69              		.thumb_func
  70              		.type	isr_ADC_AudioStream_StartEx, %function
  71              	isr_ADC_AudioStream_StartEx:
  72              	.LFB64:
  80:Generated_Source\PSoC5/isr_ADC_AudioStream.c **** 
  81:Generated_Source\PSoC5/isr_ADC_AudioStream.c **** 
  82:Generated_Source\PSoC5/isr_ADC_AudioStream.c **** /*******************************************************************************
  83:Generated_Source\PSoC5/isr_ADC_AudioStream.c **** * Function Name: isr_ADC_AudioStream_StartEx
  84:Generated_Source\PSoC5/isr_ADC_AudioStream.c **** ********************************************************************************
  85:Generated_Source\PSoC5/isr_ADC_AudioStream.c **** *
  86:Generated_Source\PSoC5/isr_ADC_AudioStream.c **** * Summary:
  87:Generated_Source\PSoC5/isr_ADC_AudioStream.c **** *  Sets up the interrupt and enables it. This function disables the interrupt,
  88:Generated_Source\PSoC5/isr_ADC_AudioStream.c **** *  sets the interrupt vector based on the address passed in, sets the priority 
  89:Generated_Source\PSoC5/isr_ADC_AudioStream.c **** *  from the value in the Design Wide Resources Interrupt Editor, then enables 
  90:Generated_Source\PSoC5/isr_ADC_AudioStream.c **** *  the interrupt to the interrupt controller.
  91:Generated_Source\PSoC5/isr_ADC_AudioStream.c **** *  
  92:Generated_Source\PSoC5/isr_ADC_AudioStream.c **** *  When defining ISR functions, the CY_ISR and CY_ISR_PROTO macros should be 
  93:Generated_Source\PSoC5/isr_ADC_AudioStream.c **** *  used to provide consistent definition across compilers:
  94:Generated_Source\PSoC5/isr_ADC_AudioStream.c **** *  
  95:Generated_Source\PSoC5/isr_ADC_AudioStream.c **** *  Function definition example:
ARM GAS  C:\Users\MARTHN~1\AppData\Local\Temp\ccJMYgk5.s 			page 4


  96:Generated_Source\PSoC5/isr_ADC_AudioStream.c **** *   CY_ISR(MyISR)
  97:Generated_Source\PSoC5/isr_ADC_AudioStream.c **** *   {
  98:Generated_Source\PSoC5/isr_ADC_AudioStream.c **** *   }
  99:Generated_Source\PSoC5/isr_ADC_AudioStream.c **** *   Function prototype example:
 100:Generated_Source\PSoC5/isr_ADC_AudioStream.c **** *   CY_ISR_PROTO(MyISR);
 101:Generated_Source\PSoC5/isr_ADC_AudioStream.c **** *
 102:Generated_Source\PSoC5/isr_ADC_AudioStream.c **** * Parameters:  
 103:Generated_Source\PSoC5/isr_ADC_AudioStream.c **** *   address: Address of the ISR to set in the interrupt vector table.
 104:Generated_Source\PSoC5/isr_ADC_AudioStream.c **** *
 105:Generated_Source\PSoC5/isr_ADC_AudioStream.c **** * Return:
 106:Generated_Source\PSoC5/isr_ADC_AudioStream.c **** *   None
 107:Generated_Source\PSoC5/isr_ADC_AudioStream.c **** *
 108:Generated_Source\PSoC5/isr_ADC_AudioStream.c **** *******************************************************************************/
 109:Generated_Source\PSoC5/isr_ADC_AudioStream.c **** void isr_ADC_AudioStream_StartEx(cyisraddress address)
 110:Generated_Source\PSoC5/isr_ADC_AudioStream.c **** {
  73              		.loc 1 110 0
  74              		.cfi_startproc
  75              		@ args = 0, pretend = 0, frame = 8
  76              		@ frame_needed = 1, uses_anonymous_args = 0
  77 0000 80B5     		push	{r7, lr}
  78              		.cfi_def_cfa_offset 8
  79              		.cfi_offset 7, -8
  80              		.cfi_offset 14, -4
  81 0002 82B0     		sub	sp, sp, #8
  82              		.cfi_def_cfa_offset 16
  83 0004 00AF     		add	r7, sp, #0
  84              		.cfi_def_cfa_register 7
  85 0006 7860     		str	r0, [r7, #4]
 111:Generated_Source\PSoC5/isr_ADC_AudioStream.c ****     /* For all we know the interrupt is active. */
 112:Generated_Source\PSoC5/isr_ADC_AudioStream.c ****     isr_ADC_AudioStream_Disable();
  86              		.loc 1 112 0
  87 0008 FFF7FEFF 		bl	isr_ADC_AudioStream_Disable
 113:Generated_Source\PSoC5/isr_ADC_AudioStream.c **** 
 114:Generated_Source\PSoC5/isr_ADC_AudioStream.c ****     /* Set the ISR to point to the isr_ADC_AudioStream Interrupt. */
 115:Generated_Source\PSoC5/isr_ADC_AudioStream.c ****     isr_ADC_AudioStream_SetVector(address);
  88              		.loc 1 115 0
  89 000c 7868     		ldr	r0, [r7, #4]
  90 000e FFF7FEFF 		bl	isr_ADC_AudioStream_SetVector
 116:Generated_Source\PSoC5/isr_ADC_AudioStream.c **** 
 117:Generated_Source\PSoC5/isr_ADC_AudioStream.c ****     /* Set the priority. */
 118:Generated_Source\PSoC5/isr_ADC_AudioStream.c ****     isr_ADC_AudioStream_SetPriority((uint8)isr_ADC_AudioStream_INTC_PRIOR_NUMBER);
  91              		.loc 1 118 0
  92 0012 0720     		movs	r0, #7
  93 0014 FFF7FEFF 		bl	isr_ADC_AudioStream_SetPriority
 119:Generated_Source\PSoC5/isr_ADC_AudioStream.c **** 
 120:Generated_Source\PSoC5/isr_ADC_AudioStream.c ****     /* Enable it. */
 121:Generated_Source\PSoC5/isr_ADC_AudioStream.c ****     isr_ADC_AudioStream_Enable();
  94              		.loc 1 121 0
  95 0018 FFF7FEFF 		bl	isr_ADC_AudioStream_Enable
 122:Generated_Source\PSoC5/isr_ADC_AudioStream.c **** }
  96              		.loc 1 122 0
  97 001c 00BF     		nop
  98 001e 0837     		adds	r7, r7, #8
  99              		.cfi_def_cfa_offset 8
 100 0020 BD46     		mov	sp, r7
 101              		.cfi_def_cfa_register 13
 102              		@ sp needed
ARM GAS  C:\Users\MARTHN~1\AppData\Local\Temp\ccJMYgk5.s 			page 5


 103 0022 80BD     		pop	{r7, pc}
 104              		.cfi_endproc
 105              	.LFE64:
 106              		.size	isr_ADC_AudioStream_StartEx, .-isr_ADC_AudioStream_StartEx
 107              		.section	.text.isr_ADC_AudioStream_Stop,"ax",%progbits
 108              		.align	2
 109              		.global	isr_ADC_AudioStream_Stop
 110              		.thumb
 111              		.thumb_func
 112              		.type	isr_ADC_AudioStream_Stop, %function
 113              	isr_ADC_AudioStream_Stop:
 114              	.LFB65:
 123:Generated_Source\PSoC5/isr_ADC_AudioStream.c **** 
 124:Generated_Source\PSoC5/isr_ADC_AudioStream.c **** 
 125:Generated_Source\PSoC5/isr_ADC_AudioStream.c **** /*******************************************************************************
 126:Generated_Source\PSoC5/isr_ADC_AudioStream.c **** * Function Name: isr_ADC_AudioStream_Stop
 127:Generated_Source\PSoC5/isr_ADC_AudioStream.c **** ********************************************************************************
 128:Generated_Source\PSoC5/isr_ADC_AudioStream.c **** *
 129:Generated_Source\PSoC5/isr_ADC_AudioStream.c **** * Summary:
 130:Generated_Source\PSoC5/isr_ADC_AudioStream.c **** *   Disables and removes the interrupt.
 131:Generated_Source\PSoC5/isr_ADC_AudioStream.c **** *
 132:Generated_Source\PSoC5/isr_ADC_AudioStream.c **** * Parameters:  
 133:Generated_Source\PSoC5/isr_ADC_AudioStream.c **** *   None
 134:Generated_Source\PSoC5/isr_ADC_AudioStream.c **** *
 135:Generated_Source\PSoC5/isr_ADC_AudioStream.c **** * Return:
 136:Generated_Source\PSoC5/isr_ADC_AudioStream.c **** *   None
 137:Generated_Source\PSoC5/isr_ADC_AudioStream.c **** *
 138:Generated_Source\PSoC5/isr_ADC_AudioStream.c **** *******************************************************************************/
 139:Generated_Source\PSoC5/isr_ADC_AudioStream.c **** void isr_ADC_AudioStream_Stop(void)
 140:Generated_Source\PSoC5/isr_ADC_AudioStream.c **** {
 115              		.loc 1 140 0
 116              		.cfi_startproc
 117              		@ args = 0, pretend = 0, frame = 0
 118              		@ frame_needed = 1, uses_anonymous_args = 0
 119 0000 80B5     		push	{r7, lr}
 120              		.cfi_def_cfa_offset 8
 121              		.cfi_offset 7, -8
 122              		.cfi_offset 14, -4
 123 0002 00AF     		add	r7, sp, #0
 124              		.cfi_def_cfa_register 7
 141:Generated_Source\PSoC5/isr_ADC_AudioStream.c ****     /* Disable this interrupt. */
 142:Generated_Source\PSoC5/isr_ADC_AudioStream.c ****     isr_ADC_AudioStream_Disable();
 125              		.loc 1 142 0
 126 0004 FFF7FEFF 		bl	isr_ADC_AudioStream_Disable
 143:Generated_Source\PSoC5/isr_ADC_AudioStream.c **** 
 144:Generated_Source\PSoC5/isr_ADC_AudioStream.c ****     /* Set the ISR to point to the passive one. */
 145:Generated_Source\PSoC5/isr_ADC_AudioStream.c ****     isr_ADC_AudioStream_SetVector(&IntDefaultHandler);
 127              		.loc 1 145 0
 128 0008 0248     		ldr	r0, .L6
 129 000a FFF7FEFF 		bl	isr_ADC_AudioStream_SetVector
 146:Generated_Source\PSoC5/isr_ADC_AudioStream.c **** }
 130              		.loc 1 146 0
 131 000e 00BF     		nop
 132 0010 80BD     		pop	{r7, pc}
 133              	.L7:
 134 0012 00BF     		.align	2
 135              	.L6:
ARM GAS  C:\Users\MARTHN~1\AppData\Local\Temp\ccJMYgk5.s 			page 6


 136 0014 00000000 		.word	IntDefaultHandler
 137              		.cfi_endproc
 138              	.LFE65:
 139              		.size	isr_ADC_AudioStream_Stop, .-isr_ADC_AudioStream_Stop
 140              		.section	.text.isr_ADC_AudioStream_Interrupt,"ax",%progbits
 141              		.align	2
 142              		.global	isr_ADC_AudioStream_Interrupt
 143              		.thumb
 144              		.thumb_func
 145              		.type	isr_ADC_AudioStream_Interrupt, %function
 146              	isr_ADC_AudioStream_Interrupt:
 147              	.LFB66:
 147:Generated_Source\PSoC5/isr_ADC_AudioStream.c **** 
 148:Generated_Source\PSoC5/isr_ADC_AudioStream.c **** 
 149:Generated_Source\PSoC5/isr_ADC_AudioStream.c **** /*******************************************************************************
 150:Generated_Source\PSoC5/isr_ADC_AudioStream.c **** * Function Name: isr_ADC_AudioStream_Interrupt
 151:Generated_Source\PSoC5/isr_ADC_AudioStream.c **** ********************************************************************************
 152:Generated_Source\PSoC5/isr_ADC_AudioStream.c **** *
 153:Generated_Source\PSoC5/isr_ADC_AudioStream.c **** * Summary:
 154:Generated_Source\PSoC5/isr_ADC_AudioStream.c **** *   The default Interrupt Service Routine for isr_ADC_AudioStream.
 155:Generated_Source\PSoC5/isr_ADC_AudioStream.c **** *
 156:Generated_Source\PSoC5/isr_ADC_AudioStream.c **** *   Add custom code between the coments to keep the next version of this file
 157:Generated_Source\PSoC5/isr_ADC_AudioStream.c **** *   from over writting your code.
 158:Generated_Source\PSoC5/isr_ADC_AudioStream.c **** *
 159:Generated_Source\PSoC5/isr_ADC_AudioStream.c **** * Parameters:  
 160:Generated_Source\PSoC5/isr_ADC_AudioStream.c **** *
 161:Generated_Source\PSoC5/isr_ADC_AudioStream.c **** * Return:
 162:Generated_Source\PSoC5/isr_ADC_AudioStream.c **** *   None
 163:Generated_Source\PSoC5/isr_ADC_AudioStream.c **** *
 164:Generated_Source\PSoC5/isr_ADC_AudioStream.c **** *******************************************************************************/
 165:Generated_Source\PSoC5/isr_ADC_AudioStream.c **** CY_ISR(isr_ADC_AudioStream_Interrupt)
 166:Generated_Source\PSoC5/isr_ADC_AudioStream.c **** {
 148              		.loc 1 166 0
 149              		.cfi_startproc
 150              		@ args = 0, pretend = 0, frame = 0
 151              		@ frame_needed = 1, uses_anonymous_args = 0
 152 0000 98B5     		push	{r3, r4, r7, lr}
 153              		.cfi_def_cfa_offset 16
 154              		.cfi_offset 3, -16
 155              		.cfi_offset 4, -12
 156              		.cfi_offset 7, -8
 157              		.cfi_offset 14, -4
 158 0002 00AF     		add	r7, sp, #0
 159              		.cfi_def_cfa_register 7
 167:Generated_Source\PSoC5/isr_ADC_AudioStream.c ****     #ifdef isr_ADC_AudioStream_INTERRUPT_INTERRUPT_CALLBACK
 168:Generated_Source\PSoC5/isr_ADC_AudioStream.c ****         isr_ADC_AudioStream_Interrupt_InterruptCallback();
 169:Generated_Source\PSoC5/isr_ADC_AudioStream.c ****     #endif /* isr_ADC_AudioStream_INTERRUPT_INTERRUPT_CALLBACK */ 
 170:Generated_Source\PSoC5/isr_ADC_AudioStream.c **** 
 171:Generated_Source\PSoC5/isr_ADC_AudioStream.c ****     /*  Place your Interrupt code here. */
 172:Generated_Source\PSoC5/isr_ADC_AudioStream.c ****     /* `#START isr_ADC_AudioStream_Interrupt` */
 173:Generated_Source\PSoC5/isr_ADC_AudioStream.c **** 
 174:Generated_Source\PSoC5/isr_ADC_AudioStream.c ****     
 175:Generated_Source\PSoC5/isr_ADC_AudioStream.c ****     ADCReading[iterator] = ADC_AudioStream_GetResult16();
 160              		.loc 1 175 0
 161 0004 0C4B     		ldr	r3, .L11
 162 0006 1B88     		ldrh	r3, [r3]
 163 0008 1C46     		mov	r4, r3
ARM GAS  C:\Users\MARTHN~1\AppData\Local\Temp\ccJMYgk5.s 			page 7


 164 000a FFF7FEFF 		bl	ADC_AudioStream_GetResult16
 165 000e 0346     		mov	r3, r0
 166 0010 9AB2     		uxth	r2, r3
 167 0012 0A4B     		ldr	r3, .L11+4
 168 0014 23F81420 		strh	r2, [r3, r4, lsl #1]	@ movhi
 176:Generated_Source\PSoC5/isr_ADC_AudioStream.c ****     //UART_460800_WriteTxData( ADCReading[iterator] );
 177:Generated_Source\PSoC5/isr_ADC_AudioStream.c ****     
 178:Generated_Source\PSoC5/isr_ADC_AudioStream.c ****     iterator++;
 169              		.loc 1 178 0
 170 0018 074B     		ldr	r3, .L11
 171 001a 1B88     		ldrh	r3, [r3]
 172 001c 0133     		adds	r3, r3, #1
 173 001e 9AB2     		uxth	r2, r3
 174 0020 054B     		ldr	r3, .L11
 175 0022 1A80     		strh	r2, [r3]	@ movhi
 179:Generated_Source\PSoC5/isr_ADC_AudioStream.c ****     if(iterator > 100)
 176              		.loc 1 179 0
 177 0024 044B     		ldr	r3, .L11
 178 0026 1B88     		ldrh	r3, [r3]
 179 0028 642B     		cmp	r3, #100
 180 002a 02D9     		bls	.L10
 180:Generated_Source\PSoC5/isr_ADC_AudioStream.c ****         iterator = 0;
 181              		.loc 1 180 0
 182 002c 024B     		ldr	r3, .L11
 183 002e 0022     		movs	r2, #0
 184 0030 1A80     		strh	r2, [r3]	@ movhi
 185              	.L10:
 181:Generated_Source\PSoC5/isr_ADC_AudioStream.c ****     
 182:Generated_Source\PSoC5/isr_ADC_AudioStream.c ****     /* `#END` */
 183:Generated_Source\PSoC5/isr_ADC_AudioStream.c **** }
 186              		.loc 1 183 0
 187 0032 00BF     		nop
 188 0034 98BD     		pop	{r3, r4, r7, pc}
 189              	.L12:
 190 0036 00BF     		.align	2
 191              	.L11:
 192 0038 00000000 		.word	iterator
 193 003c 04000000 		.word	ADCReading
 194              		.cfi_endproc
 195              	.LFE66:
 196              		.size	isr_ADC_AudioStream_Interrupt, .-isr_ADC_AudioStream_Interrupt
 197              		.section	.text.isr_ADC_AudioStream_SetVector,"ax",%progbits
 198              		.align	2
 199              		.global	isr_ADC_AudioStream_SetVector
 200              		.thumb
 201              		.thumb_func
 202              		.type	isr_ADC_AudioStream_SetVector, %function
 203              	isr_ADC_AudioStream_SetVector:
 204              	.LFB67:
 184:Generated_Source\PSoC5/isr_ADC_AudioStream.c **** 
 185:Generated_Source\PSoC5/isr_ADC_AudioStream.c **** 
 186:Generated_Source\PSoC5/isr_ADC_AudioStream.c **** /*******************************************************************************
 187:Generated_Source\PSoC5/isr_ADC_AudioStream.c **** * Function Name: isr_ADC_AudioStream_SetVector
 188:Generated_Source\PSoC5/isr_ADC_AudioStream.c **** ********************************************************************************
 189:Generated_Source\PSoC5/isr_ADC_AudioStream.c **** *
 190:Generated_Source\PSoC5/isr_ADC_AudioStream.c **** * Summary:
 191:Generated_Source\PSoC5/isr_ADC_AudioStream.c **** *   Change the ISR vector for the Interrupt. Note calling isr_ADC_AudioStream_Start
ARM GAS  C:\Users\MARTHN~1\AppData\Local\Temp\ccJMYgk5.s 			page 8


 192:Generated_Source\PSoC5/isr_ADC_AudioStream.c **** *   will override any effect this method would have had. To set the vector 
 193:Generated_Source\PSoC5/isr_ADC_AudioStream.c **** *   before the component has been started use isr_ADC_AudioStream_StartEx instead.
 194:Generated_Source\PSoC5/isr_ADC_AudioStream.c **** * 
 195:Generated_Source\PSoC5/isr_ADC_AudioStream.c **** *   When defining ISR functions, the CY_ISR and CY_ISR_PROTO macros should be 
 196:Generated_Source\PSoC5/isr_ADC_AudioStream.c **** *   used to provide consistent definition across compilers:
 197:Generated_Source\PSoC5/isr_ADC_AudioStream.c **** *
 198:Generated_Source\PSoC5/isr_ADC_AudioStream.c **** *   Function definition example:
 199:Generated_Source\PSoC5/isr_ADC_AudioStream.c **** *   CY_ISR(MyISR)
 200:Generated_Source\PSoC5/isr_ADC_AudioStream.c **** *   {
 201:Generated_Source\PSoC5/isr_ADC_AudioStream.c **** *   }
 202:Generated_Source\PSoC5/isr_ADC_AudioStream.c **** *
 203:Generated_Source\PSoC5/isr_ADC_AudioStream.c **** *   Function prototype example:
 204:Generated_Source\PSoC5/isr_ADC_AudioStream.c **** *     CY_ISR_PROTO(MyISR);
 205:Generated_Source\PSoC5/isr_ADC_AudioStream.c **** *
 206:Generated_Source\PSoC5/isr_ADC_AudioStream.c **** * Parameters:
 207:Generated_Source\PSoC5/isr_ADC_AudioStream.c **** *   address: Address of the ISR to set in the interrupt vector table.
 208:Generated_Source\PSoC5/isr_ADC_AudioStream.c **** *
 209:Generated_Source\PSoC5/isr_ADC_AudioStream.c **** * Return:
 210:Generated_Source\PSoC5/isr_ADC_AudioStream.c **** *   None
 211:Generated_Source\PSoC5/isr_ADC_AudioStream.c **** *
 212:Generated_Source\PSoC5/isr_ADC_AudioStream.c **** *******************************************************************************/
 213:Generated_Source\PSoC5/isr_ADC_AudioStream.c **** void isr_ADC_AudioStream_SetVector(cyisraddress address)
 214:Generated_Source\PSoC5/isr_ADC_AudioStream.c **** {
 205              		.loc 1 214 0
 206              		.cfi_startproc
 207              		@ args = 0, pretend = 0, frame = 16
 208              		@ frame_needed = 1, uses_anonymous_args = 0
 209              		@ link register save eliminated.
 210 0000 80B4     		push	{r7}
 211              		.cfi_def_cfa_offset 4
 212              		.cfi_offset 7, -4
 213 0002 85B0     		sub	sp, sp, #20
 214              		.cfi_def_cfa_offset 24
 215 0004 00AF     		add	r7, sp, #0
 216              		.cfi_def_cfa_register 7
 217 0006 7860     		str	r0, [r7, #4]
 215:Generated_Source\PSoC5/isr_ADC_AudioStream.c ****     cyisraddress * ramVectorTable;
 216:Generated_Source\PSoC5/isr_ADC_AudioStream.c **** 
 217:Generated_Source\PSoC5/isr_ADC_AudioStream.c ****     ramVectorTable = (cyisraddress *) *CYINT_VECT_TABLE;
 218              		.loc 1 217 0
 219 0008 054B     		ldr	r3, .L14
 220 000a 1B68     		ldr	r3, [r3]
 221 000c FB60     		str	r3, [r7, #12]
 218:Generated_Source\PSoC5/isr_ADC_AudioStream.c **** 
 219:Generated_Source\PSoC5/isr_ADC_AudioStream.c ****     ramVectorTable[CYINT_IRQ_BASE + (uint32)isr_ADC_AudioStream__INTC_NUMBER] = address;
 222              		.loc 1 219 0
 223 000e FB68     		ldr	r3, [r7, #12]
 224 0010 5033     		adds	r3, r3, #80
 225 0012 7A68     		ldr	r2, [r7, #4]
 226 0014 1A60     		str	r2, [r3]
 220:Generated_Source\PSoC5/isr_ADC_AudioStream.c **** }
 227              		.loc 1 220 0
 228 0016 00BF     		nop
 229 0018 1437     		adds	r7, r7, #20
 230              		.cfi_def_cfa_offset 4
 231 001a BD46     		mov	sp, r7
 232              		.cfi_def_cfa_register 13
ARM GAS  C:\Users\MARTHN~1\AppData\Local\Temp\ccJMYgk5.s 			page 9


 233              		@ sp needed
 234 001c 80BC     		pop	{r7}
 235              		.cfi_restore 7
 236              		.cfi_def_cfa_offset 0
 237 001e 7047     		bx	lr
 238              	.L15:
 239              		.align	2
 240              	.L14:
 241 0020 08ED00E0 		.word	-536810232
 242              		.cfi_endproc
 243              	.LFE67:
 244              		.size	isr_ADC_AudioStream_SetVector, .-isr_ADC_AudioStream_SetVector
 245              		.section	.text.isr_ADC_AudioStream_GetVector,"ax",%progbits
 246              		.align	2
 247              		.global	isr_ADC_AudioStream_GetVector
 248              		.thumb
 249              		.thumb_func
 250              		.type	isr_ADC_AudioStream_GetVector, %function
 251              	isr_ADC_AudioStream_GetVector:
 252              	.LFB68:
 221:Generated_Source\PSoC5/isr_ADC_AudioStream.c **** 
 222:Generated_Source\PSoC5/isr_ADC_AudioStream.c **** 
 223:Generated_Source\PSoC5/isr_ADC_AudioStream.c **** /*******************************************************************************
 224:Generated_Source\PSoC5/isr_ADC_AudioStream.c **** * Function Name: isr_ADC_AudioStream_GetVector
 225:Generated_Source\PSoC5/isr_ADC_AudioStream.c **** ********************************************************************************
 226:Generated_Source\PSoC5/isr_ADC_AudioStream.c **** *
 227:Generated_Source\PSoC5/isr_ADC_AudioStream.c **** * Summary:
 228:Generated_Source\PSoC5/isr_ADC_AudioStream.c **** *   Gets the "address" of the current ISR vector for the Interrupt.
 229:Generated_Source\PSoC5/isr_ADC_AudioStream.c **** *
 230:Generated_Source\PSoC5/isr_ADC_AudioStream.c **** * Parameters:
 231:Generated_Source\PSoC5/isr_ADC_AudioStream.c **** *   None
 232:Generated_Source\PSoC5/isr_ADC_AudioStream.c **** *
 233:Generated_Source\PSoC5/isr_ADC_AudioStream.c **** * Return:
 234:Generated_Source\PSoC5/isr_ADC_AudioStream.c **** *   Address of the ISR in the interrupt vector table.
 235:Generated_Source\PSoC5/isr_ADC_AudioStream.c **** *
 236:Generated_Source\PSoC5/isr_ADC_AudioStream.c **** *******************************************************************************/
 237:Generated_Source\PSoC5/isr_ADC_AudioStream.c **** cyisraddress isr_ADC_AudioStream_GetVector(void)
 238:Generated_Source\PSoC5/isr_ADC_AudioStream.c **** {
 253              		.loc 1 238 0
 254              		.cfi_startproc
 255              		@ args = 0, pretend = 0, frame = 8
 256              		@ frame_needed = 1, uses_anonymous_args = 0
 257              		@ link register save eliminated.
 258 0000 80B4     		push	{r7}
 259              		.cfi_def_cfa_offset 4
 260              		.cfi_offset 7, -4
 261 0002 83B0     		sub	sp, sp, #12
 262              		.cfi_def_cfa_offset 16
 263 0004 00AF     		add	r7, sp, #0
 264              		.cfi_def_cfa_register 7
 239:Generated_Source\PSoC5/isr_ADC_AudioStream.c ****     cyisraddress * ramVectorTable;
 240:Generated_Source\PSoC5/isr_ADC_AudioStream.c **** 
 241:Generated_Source\PSoC5/isr_ADC_AudioStream.c ****     ramVectorTable = (cyisraddress *) *CYINT_VECT_TABLE;
 265              		.loc 1 241 0
 266 0006 054B     		ldr	r3, .L18
 267 0008 1B68     		ldr	r3, [r3]
 268 000a 7B60     		str	r3, [r7, #4]
ARM GAS  C:\Users\MARTHN~1\AppData\Local\Temp\ccJMYgk5.s 			page 10


 242:Generated_Source\PSoC5/isr_ADC_AudioStream.c **** 
 243:Generated_Source\PSoC5/isr_ADC_AudioStream.c ****     return ramVectorTable[CYINT_IRQ_BASE + (uint32)isr_ADC_AudioStream__INTC_NUMBER];
 269              		.loc 1 243 0
 270 000c 7B68     		ldr	r3, [r7, #4]
 271 000e 1B6D     		ldr	r3, [r3, #80]
 244:Generated_Source\PSoC5/isr_ADC_AudioStream.c **** }
 272              		.loc 1 244 0
 273 0010 1846     		mov	r0, r3
 274 0012 0C37     		adds	r7, r7, #12
 275              		.cfi_def_cfa_offset 4
 276 0014 BD46     		mov	sp, r7
 277              		.cfi_def_cfa_register 13
 278              		@ sp needed
 279 0016 80BC     		pop	{r7}
 280              		.cfi_restore 7
 281              		.cfi_def_cfa_offset 0
 282 0018 7047     		bx	lr
 283              	.L19:
 284 001a 00BF     		.align	2
 285              	.L18:
 286 001c 08ED00E0 		.word	-536810232
 287              		.cfi_endproc
 288              	.LFE68:
 289              		.size	isr_ADC_AudioStream_GetVector, .-isr_ADC_AudioStream_GetVector
 290              		.section	.text.isr_ADC_AudioStream_SetPriority,"ax",%progbits
 291              		.align	2
 292              		.global	isr_ADC_AudioStream_SetPriority
 293              		.thumb
 294              		.thumb_func
 295              		.type	isr_ADC_AudioStream_SetPriority, %function
 296              	isr_ADC_AudioStream_SetPriority:
 297              	.LFB69:
 245:Generated_Source\PSoC5/isr_ADC_AudioStream.c **** 
 246:Generated_Source\PSoC5/isr_ADC_AudioStream.c **** 
 247:Generated_Source\PSoC5/isr_ADC_AudioStream.c **** /*******************************************************************************
 248:Generated_Source\PSoC5/isr_ADC_AudioStream.c **** * Function Name: isr_ADC_AudioStream_SetPriority
 249:Generated_Source\PSoC5/isr_ADC_AudioStream.c **** ********************************************************************************
 250:Generated_Source\PSoC5/isr_ADC_AudioStream.c **** *
 251:Generated_Source\PSoC5/isr_ADC_AudioStream.c **** * Summary:
 252:Generated_Source\PSoC5/isr_ADC_AudioStream.c **** *   Sets the Priority of the Interrupt. 
 253:Generated_Source\PSoC5/isr_ADC_AudioStream.c **** *
 254:Generated_Source\PSoC5/isr_ADC_AudioStream.c **** *   Note calling isr_ADC_AudioStream_Start or isr_ADC_AudioStream_StartEx will 
 255:Generated_Source\PSoC5/isr_ADC_AudioStream.c **** *   override any effect this API would have had. This API should only be called
 256:Generated_Source\PSoC5/isr_ADC_AudioStream.c **** *   after isr_ADC_AudioStream_Start or isr_ADC_AudioStream_StartEx has been called. 
 257:Generated_Source\PSoC5/isr_ADC_AudioStream.c **** *   To set the initial priority for the component, use the Design-Wide Resources
 258:Generated_Source\PSoC5/isr_ADC_AudioStream.c **** *   Interrupt Editor.
 259:Generated_Source\PSoC5/isr_ADC_AudioStream.c **** *
 260:Generated_Source\PSoC5/isr_ADC_AudioStream.c **** *   Note This API has no effect on Non-maskable interrupt NMI).
 261:Generated_Source\PSoC5/isr_ADC_AudioStream.c **** *
 262:Generated_Source\PSoC5/isr_ADC_AudioStream.c **** * Parameters:
 263:Generated_Source\PSoC5/isr_ADC_AudioStream.c **** *   priority: Priority of the interrupt, 0 being the highest priority
 264:Generated_Source\PSoC5/isr_ADC_AudioStream.c **** *             PSoC 3 and PSoC 5LP: Priority is from 0 to 7.
 265:Generated_Source\PSoC5/isr_ADC_AudioStream.c **** *             PSoC 4: Priority is from 0 to 3.
 266:Generated_Source\PSoC5/isr_ADC_AudioStream.c **** *
 267:Generated_Source\PSoC5/isr_ADC_AudioStream.c **** * Return:
 268:Generated_Source\PSoC5/isr_ADC_AudioStream.c **** *   None
 269:Generated_Source\PSoC5/isr_ADC_AudioStream.c **** *
ARM GAS  C:\Users\MARTHN~1\AppData\Local\Temp\ccJMYgk5.s 			page 11


 270:Generated_Source\PSoC5/isr_ADC_AudioStream.c **** *******************************************************************************/
 271:Generated_Source\PSoC5/isr_ADC_AudioStream.c **** void isr_ADC_AudioStream_SetPriority(uint8 priority)
 272:Generated_Source\PSoC5/isr_ADC_AudioStream.c **** {
 298              		.loc 1 272 0
 299              		.cfi_startproc
 300              		@ args = 0, pretend = 0, frame = 8
 301              		@ frame_needed = 1, uses_anonymous_args = 0
 302              		@ link register save eliminated.
 303 0000 80B4     		push	{r7}
 304              		.cfi_def_cfa_offset 4
 305              		.cfi_offset 7, -4
 306 0002 83B0     		sub	sp, sp, #12
 307              		.cfi_def_cfa_offset 16
 308 0004 00AF     		add	r7, sp, #0
 309              		.cfi_def_cfa_register 7
 310 0006 0346     		mov	r3, r0
 311 0008 FB71     		strb	r3, [r7, #7]
 273:Generated_Source\PSoC5/isr_ADC_AudioStream.c ****     *isr_ADC_AudioStream_INTC_PRIOR = priority << 5;
 312              		.loc 1 273 0
 313 000a 054A     		ldr	r2, .L21
 314 000c FB79     		ldrb	r3, [r7, #7]
 315 000e 5B01     		lsls	r3, r3, #5
 316 0010 DBB2     		uxtb	r3, r3
 317 0012 1370     		strb	r3, [r2]
 274:Generated_Source\PSoC5/isr_ADC_AudioStream.c **** }
 318              		.loc 1 274 0
 319 0014 00BF     		nop
 320 0016 0C37     		adds	r7, r7, #12
 321              		.cfi_def_cfa_offset 4
 322 0018 BD46     		mov	sp, r7
 323              		.cfi_def_cfa_register 13
 324              		@ sp needed
 325 001a 80BC     		pop	{r7}
 326              		.cfi_restore 7
 327              		.cfi_def_cfa_offset 0
 328 001c 7047     		bx	lr
 329              	.L22:
 330 001e 00BF     		.align	2
 331              	.L21:
 332 0020 04E400E0 		.word	-536812540
 333              		.cfi_endproc
 334              	.LFE69:
 335              		.size	isr_ADC_AudioStream_SetPriority, .-isr_ADC_AudioStream_SetPriority
 336              		.section	.text.isr_ADC_AudioStream_GetPriority,"ax",%progbits
 337              		.align	2
 338              		.global	isr_ADC_AudioStream_GetPriority
 339              		.thumb
 340              		.thumb_func
 341              		.type	isr_ADC_AudioStream_GetPriority, %function
 342              	isr_ADC_AudioStream_GetPriority:
 343              	.LFB70:
 275:Generated_Source\PSoC5/isr_ADC_AudioStream.c **** 
 276:Generated_Source\PSoC5/isr_ADC_AudioStream.c **** 
 277:Generated_Source\PSoC5/isr_ADC_AudioStream.c **** /*******************************************************************************
 278:Generated_Source\PSoC5/isr_ADC_AudioStream.c **** * Function Name: isr_ADC_AudioStream_GetPriority
 279:Generated_Source\PSoC5/isr_ADC_AudioStream.c **** ********************************************************************************
 280:Generated_Source\PSoC5/isr_ADC_AudioStream.c **** *
ARM GAS  C:\Users\MARTHN~1\AppData\Local\Temp\ccJMYgk5.s 			page 12


 281:Generated_Source\PSoC5/isr_ADC_AudioStream.c **** * Summary:
 282:Generated_Source\PSoC5/isr_ADC_AudioStream.c **** *   Gets the Priority of the Interrupt.
 283:Generated_Source\PSoC5/isr_ADC_AudioStream.c **** *
 284:Generated_Source\PSoC5/isr_ADC_AudioStream.c **** * Parameters:
 285:Generated_Source\PSoC5/isr_ADC_AudioStream.c **** *   None
 286:Generated_Source\PSoC5/isr_ADC_AudioStream.c **** *
 287:Generated_Source\PSoC5/isr_ADC_AudioStream.c **** * Return:
 288:Generated_Source\PSoC5/isr_ADC_AudioStream.c **** *   Priority of the interrupt, 0 being the highest priority
 289:Generated_Source\PSoC5/isr_ADC_AudioStream.c **** *    PSoC 3 and PSoC 5LP: Priority is from 0 to 7.
 290:Generated_Source\PSoC5/isr_ADC_AudioStream.c **** *    PSoC 4: Priority is from 0 to 3.
 291:Generated_Source\PSoC5/isr_ADC_AudioStream.c **** *
 292:Generated_Source\PSoC5/isr_ADC_AudioStream.c **** *******************************************************************************/
 293:Generated_Source\PSoC5/isr_ADC_AudioStream.c **** uint8 isr_ADC_AudioStream_GetPriority(void)
 294:Generated_Source\PSoC5/isr_ADC_AudioStream.c **** {
 344              		.loc 1 294 0
 345              		.cfi_startproc
 346              		@ args = 0, pretend = 0, frame = 8
 347              		@ frame_needed = 1, uses_anonymous_args = 0
 348              		@ link register save eliminated.
 349 0000 80B4     		push	{r7}
 350              		.cfi_def_cfa_offset 4
 351              		.cfi_offset 7, -4
 352 0002 83B0     		sub	sp, sp, #12
 353              		.cfi_def_cfa_offset 16
 354 0004 00AF     		add	r7, sp, #0
 355              		.cfi_def_cfa_register 7
 295:Generated_Source\PSoC5/isr_ADC_AudioStream.c ****     uint8 priority;
 296:Generated_Source\PSoC5/isr_ADC_AudioStream.c **** 
 297:Generated_Source\PSoC5/isr_ADC_AudioStream.c **** 
 298:Generated_Source\PSoC5/isr_ADC_AudioStream.c ****     priority = *isr_ADC_AudioStream_INTC_PRIOR >> 5;
 356              		.loc 1 298 0
 357 0006 054B     		ldr	r3, .L25
 358 0008 1B78     		ldrb	r3, [r3]
 359 000a DBB2     		uxtb	r3, r3
 360 000c 5B09     		lsrs	r3, r3, #5
 361 000e FB71     		strb	r3, [r7, #7]
 299:Generated_Source\PSoC5/isr_ADC_AudioStream.c **** 
 300:Generated_Source\PSoC5/isr_ADC_AudioStream.c ****     return priority;
 362              		.loc 1 300 0
 363 0010 FB79     		ldrb	r3, [r7, #7]	@ zero_extendqisi2
 301:Generated_Source\PSoC5/isr_ADC_AudioStream.c **** }
 364              		.loc 1 301 0
 365 0012 1846     		mov	r0, r3
 366 0014 0C37     		adds	r7, r7, #12
 367              		.cfi_def_cfa_offset 4
 368 0016 BD46     		mov	sp, r7
 369              		.cfi_def_cfa_register 13
 370              		@ sp needed
 371 0018 80BC     		pop	{r7}
 372              		.cfi_restore 7
 373              		.cfi_def_cfa_offset 0
 374 001a 7047     		bx	lr
 375              	.L26:
 376              		.align	2
 377              	.L25:
 378 001c 04E400E0 		.word	-536812540
 379              		.cfi_endproc
ARM GAS  C:\Users\MARTHN~1\AppData\Local\Temp\ccJMYgk5.s 			page 13


 380              	.LFE70:
 381              		.size	isr_ADC_AudioStream_GetPriority, .-isr_ADC_AudioStream_GetPriority
 382              		.section	.text.isr_ADC_AudioStream_Enable,"ax",%progbits
 383              		.align	2
 384              		.global	isr_ADC_AudioStream_Enable
 385              		.thumb
 386              		.thumb_func
 387              		.type	isr_ADC_AudioStream_Enable, %function
 388              	isr_ADC_AudioStream_Enable:
 389              	.LFB71:
 302:Generated_Source\PSoC5/isr_ADC_AudioStream.c **** 
 303:Generated_Source\PSoC5/isr_ADC_AudioStream.c **** 
 304:Generated_Source\PSoC5/isr_ADC_AudioStream.c **** /*******************************************************************************
 305:Generated_Source\PSoC5/isr_ADC_AudioStream.c **** * Function Name: isr_ADC_AudioStream_Enable
 306:Generated_Source\PSoC5/isr_ADC_AudioStream.c **** ********************************************************************************
 307:Generated_Source\PSoC5/isr_ADC_AudioStream.c **** *
 308:Generated_Source\PSoC5/isr_ADC_AudioStream.c **** * Summary:
 309:Generated_Source\PSoC5/isr_ADC_AudioStream.c **** *   Enables the interrupt to the interrupt controller. Do not call this function
 310:Generated_Source\PSoC5/isr_ADC_AudioStream.c **** *   unless ISR_Start() has been called or the functionality of the ISR_Start() 
 311:Generated_Source\PSoC5/isr_ADC_AudioStream.c **** *   function, which sets the vector and the priority, has been called.
 312:Generated_Source\PSoC5/isr_ADC_AudioStream.c **** *
 313:Generated_Source\PSoC5/isr_ADC_AudioStream.c **** * Parameters:
 314:Generated_Source\PSoC5/isr_ADC_AudioStream.c **** *   None
 315:Generated_Source\PSoC5/isr_ADC_AudioStream.c **** *
 316:Generated_Source\PSoC5/isr_ADC_AudioStream.c **** * Return:
 317:Generated_Source\PSoC5/isr_ADC_AudioStream.c **** *   None
 318:Generated_Source\PSoC5/isr_ADC_AudioStream.c **** *
 319:Generated_Source\PSoC5/isr_ADC_AudioStream.c **** *******************************************************************************/
 320:Generated_Source\PSoC5/isr_ADC_AudioStream.c **** void isr_ADC_AudioStream_Enable(void)
 321:Generated_Source\PSoC5/isr_ADC_AudioStream.c **** {
 390              		.loc 1 321 0
 391              		.cfi_startproc
 392              		@ args = 0, pretend = 0, frame = 0
 393              		@ frame_needed = 1, uses_anonymous_args = 0
 394              		@ link register save eliminated.
 395 0000 80B4     		push	{r7}
 396              		.cfi_def_cfa_offset 4
 397              		.cfi_offset 7, -4
 398 0002 00AF     		add	r7, sp, #0
 399              		.cfi_def_cfa_register 7
 322:Generated_Source\PSoC5/isr_ADC_AudioStream.c ****     /* Enable the general interrupt. */
 323:Generated_Source\PSoC5/isr_ADC_AudioStream.c ****     *isr_ADC_AudioStream_INTC_SET_EN = isr_ADC_AudioStream__INTC_MASK;
 400              		.loc 1 323 0
 401 0004 034B     		ldr	r3, .L28
 402 0006 1022     		movs	r2, #16
 403 0008 1A60     		str	r2, [r3]
 324:Generated_Source\PSoC5/isr_ADC_AudioStream.c **** }
 404              		.loc 1 324 0
 405 000a 00BF     		nop
 406 000c BD46     		mov	sp, r7
 407              		.cfi_def_cfa_register 13
 408              		@ sp needed
 409 000e 80BC     		pop	{r7}
 410              		.cfi_restore 7
 411              		.cfi_def_cfa_offset 0
 412 0010 7047     		bx	lr
 413              	.L29:
ARM GAS  C:\Users\MARTHN~1\AppData\Local\Temp\ccJMYgk5.s 			page 14


 414 0012 00BF     		.align	2
 415              	.L28:
 416 0014 00E100E0 		.word	-536813312
 417              		.cfi_endproc
 418              	.LFE71:
 419              		.size	isr_ADC_AudioStream_Enable, .-isr_ADC_AudioStream_Enable
 420              		.section	.text.isr_ADC_AudioStream_GetState,"ax",%progbits
 421              		.align	2
 422              		.global	isr_ADC_AudioStream_GetState
 423              		.thumb
 424              		.thumb_func
 425              		.type	isr_ADC_AudioStream_GetState, %function
 426              	isr_ADC_AudioStream_GetState:
 427              	.LFB72:
 325:Generated_Source\PSoC5/isr_ADC_AudioStream.c **** 
 326:Generated_Source\PSoC5/isr_ADC_AudioStream.c **** 
 327:Generated_Source\PSoC5/isr_ADC_AudioStream.c **** /*******************************************************************************
 328:Generated_Source\PSoC5/isr_ADC_AudioStream.c **** * Function Name: isr_ADC_AudioStream_GetState
 329:Generated_Source\PSoC5/isr_ADC_AudioStream.c **** ********************************************************************************
 330:Generated_Source\PSoC5/isr_ADC_AudioStream.c **** *
 331:Generated_Source\PSoC5/isr_ADC_AudioStream.c **** * Summary:
 332:Generated_Source\PSoC5/isr_ADC_AudioStream.c **** *   Gets the state (enabled, disabled) of the Interrupt.
 333:Generated_Source\PSoC5/isr_ADC_AudioStream.c **** *
 334:Generated_Source\PSoC5/isr_ADC_AudioStream.c **** * Parameters:
 335:Generated_Source\PSoC5/isr_ADC_AudioStream.c **** *   None
 336:Generated_Source\PSoC5/isr_ADC_AudioStream.c **** *
 337:Generated_Source\PSoC5/isr_ADC_AudioStream.c **** * Return:
 338:Generated_Source\PSoC5/isr_ADC_AudioStream.c **** *   1 if enabled, 0 if disabled.
 339:Generated_Source\PSoC5/isr_ADC_AudioStream.c **** *
 340:Generated_Source\PSoC5/isr_ADC_AudioStream.c **** *******************************************************************************/
 341:Generated_Source\PSoC5/isr_ADC_AudioStream.c **** uint8 isr_ADC_AudioStream_GetState(void)
 342:Generated_Source\PSoC5/isr_ADC_AudioStream.c **** {
 428              		.loc 1 342 0
 429              		.cfi_startproc
 430              		@ args = 0, pretend = 0, frame = 0
 431              		@ frame_needed = 1, uses_anonymous_args = 0
 432              		@ link register save eliminated.
 433 0000 80B4     		push	{r7}
 434              		.cfi_def_cfa_offset 4
 435              		.cfi_offset 7, -4
 436 0002 00AF     		add	r7, sp, #0
 437              		.cfi_def_cfa_register 7
 343:Generated_Source\PSoC5/isr_ADC_AudioStream.c ****     /* Get the state of the general interrupt. */
 344:Generated_Source\PSoC5/isr_ADC_AudioStream.c ****     return ((*isr_ADC_AudioStream_INTC_SET_EN & (uint32)isr_ADC_AudioStream__INTC_MASK) != 0u) ? 1u
 438              		.loc 1 344 0
 439 0004 064B     		ldr	r3, .L34
 440 0006 1B68     		ldr	r3, [r3]
 441 0008 03F01003 		and	r3, r3, #16
 442 000c 002B     		cmp	r3, #0
 443 000e 01D0     		beq	.L31
 444              		.loc 1 344 0 is_stmt 0 discriminator 1
 445 0010 0123     		movs	r3, #1
 446 0012 00E0     		b	.L32
 447              	.L31:
 448              		.loc 1 344 0 discriminator 2
 449 0014 0023     		movs	r3, #0
 450              	.L32:
ARM GAS  C:\Users\MARTHN~1\AppData\Local\Temp\ccJMYgk5.s 			page 15


 345:Generated_Source\PSoC5/isr_ADC_AudioStream.c **** }
 451              		.loc 1 345 0 is_stmt 1 discriminator 4
 452 0016 1846     		mov	r0, r3
 453 0018 BD46     		mov	sp, r7
 454              		.cfi_def_cfa_register 13
 455              		@ sp needed
 456 001a 80BC     		pop	{r7}
 457              		.cfi_restore 7
 458              		.cfi_def_cfa_offset 0
 459 001c 7047     		bx	lr
 460              	.L35:
 461 001e 00BF     		.align	2
 462              	.L34:
 463 0020 00E100E0 		.word	-536813312
 464              		.cfi_endproc
 465              	.LFE72:
 466              		.size	isr_ADC_AudioStream_GetState, .-isr_ADC_AudioStream_GetState
 467              		.section	.text.isr_ADC_AudioStream_Disable,"ax",%progbits
 468              		.align	2
 469              		.global	isr_ADC_AudioStream_Disable
 470              		.thumb
 471              		.thumb_func
 472              		.type	isr_ADC_AudioStream_Disable, %function
 473              	isr_ADC_AudioStream_Disable:
 474              	.LFB73:
 346:Generated_Source\PSoC5/isr_ADC_AudioStream.c **** 
 347:Generated_Source\PSoC5/isr_ADC_AudioStream.c **** 
 348:Generated_Source\PSoC5/isr_ADC_AudioStream.c **** /*******************************************************************************
 349:Generated_Source\PSoC5/isr_ADC_AudioStream.c **** * Function Name: isr_ADC_AudioStream_Disable
 350:Generated_Source\PSoC5/isr_ADC_AudioStream.c **** ********************************************************************************
 351:Generated_Source\PSoC5/isr_ADC_AudioStream.c **** *
 352:Generated_Source\PSoC5/isr_ADC_AudioStream.c **** * Summary:
 353:Generated_Source\PSoC5/isr_ADC_AudioStream.c **** *   Disables the Interrupt in the interrupt controller.
 354:Generated_Source\PSoC5/isr_ADC_AudioStream.c **** *
 355:Generated_Source\PSoC5/isr_ADC_AudioStream.c **** * Parameters:
 356:Generated_Source\PSoC5/isr_ADC_AudioStream.c **** *   None
 357:Generated_Source\PSoC5/isr_ADC_AudioStream.c **** *
 358:Generated_Source\PSoC5/isr_ADC_AudioStream.c **** * Return:
 359:Generated_Source\PSoC5/isr_ADC_AudioStream.c **** *   None
 360:Generated_Source\PSoC5/isr_ADC_AudioStream.c **** *
 361:Generated_Source\PSoC5/isr_ADC_AudioStream.c **** *******************************************************************************/
 362:Generated_Source\PSoC5/isr_ADC_AudioStream.c **** void isr_ADC_AudioStream_Disable(void)
 363:Generated_Source\PSoC5/isr_ADC_AudioStream.c **** {
 475              		.loc 1 363 0
 476              		.cfi_startproc
 477              		@ args = 0, pretend = 0, frame = 0
 478              		@ frame_needed = 1, uses_anonymous_args = 0
 479              		@ link register save eliminated.
 480 0000 80B4     		push	{r7}
 481              		.cfi_def_cfa_offset 4
 482              		.cfi_offset 7, -4
 483 0002 00AF     		add	r7, sp, #0
 484              		.cfi_def_cfa_register 7
 364:Generated_Source\PSoC5/isr_ADC_AudioStream.c ****     /* Disable the general interrupt. */
 365:Generated_Source\PSoC5/isr_ADC_AudioStream.c ****     *isr_ADC_AudioStream_INTC_CLR_EN = isr_ADC_AudioStream__INTC_MASK;
 485              		.loc 1 365 0
 486 0004 034B     		ldr	r3, .L37
ARM GAS  C:\Users\MARTHN~1\AppData\Local\Temp\ccJMYgk5.s 			page 16


 487 0006 1022     		movs	r2, #16
 488 0008 1A60     		str	r2, [r3]
 366:Generated_Source\PSoC5/isr_ADC_AudioStream.c **** }
 489              		.loc 1 366 0
 490 000a 00BF     		nop
 491 000c BD46     		mov	sp, r7
 492              		.cfi_def_cfa_register 13
 493              		@ sp needed
 494 000e 80BC     		pop	{r7}
 495              		.cfi_restore 7
 496              		.cfi_def_cfa_offset 0
 497 0010 7047     		bx	lr
 498              	.L38:
 499 0012 00BF     		.align	2
 500              	.L37:
 501 0014 80E100E0 		.word	-536813184
 502              		.cfi_endproc
 503              	.LFE73:
 504              		.size	isr_ADC_AudioStream_Disable, .-isr_ADC_AudioStream_Disable
 505              		.section	.text.isr_ADC_AudioStream_SetPending,"ax",%progbits
 506              		.align	2
 507              		.global	isr_ADC_AudioStream_SetPending
 508              		.thumb
 509              		.thumb_func
 510              		.type	isr_ADC_AudioStream_SetPending, %function
 511              	isr_ADC_AudioStream_SetPending:
 512              	.LFB74:
 367:Generated_Source\PSoC5/isr_ADC_AudioStream.c **** 
 368:Generated_Source\PSoC5/isr_ADC_AudioStream.c **** 
 369:Generated_Source\PSoC5/isr_ADC_AudioStream.c **** /*******************************************************************************
 370:Generated_Source\PSoC5/isr_ADC_AudioStream.c **** * Function Name: isr_ADC_AudioStream_SetPending
 371:Generated_Source\PSoC5/isr_ADC_AudioStream.c **** ********************************************************************************
 372:Generated_Source\PSoC5/isr_ADC_AudioStream.c **** *
 373:Generated_Source\PSoC5/isr_ADC_AudioStream.c **** * Summary:
 374:Generated_Source\PSoC5/isr_ADC_AudioStream.c **** *   Causes the Interrupt to enter the pending state, a software method of
 375:Generated_Source\PSoC5/isr_ADC_AudioStream.c **** *   generating the interrupt.
 376:Generated_Source\PSoC5/isr_ADC_AudioStream.c **** *
 377:Generated_Source\PSoC5/isr_ADC_AudioStream.c **** * Parameters:
 378:Generated_Source\PSoC5/isr_ADC_AudioStream.c **** *   None
 379:Generated_Source\PSoC5/isr_ADC_AudioStream.c **** *
 380:Generated_Source\PSoC5/isr_ADC_AudioStream.c **** * Return:
 381:Generated_Source\PSoC5/isr_ADC_AudioStream.c **** *   None
 382:Generated_Source\PSoC5/isr_ADC_AudioStream.c **** *
 383:Generated_Source\PSoC5/isr_ADC_AudioStream.c **** * Side Effects:
 384:Generated_Source\PSoC5/isr_ADC_AudioStream.c **** *   If interrupts are enabled and the interrupt is set up properly, the ISR is
 385:Generated_Source\PSoC5/isr_ADC_AudioStream.c **** *   entered (depending on the priority of this interrupt and other pending 
 386:Generated_Source\PSoC5/isr_ADC_AudioStream.c **** *   interrupts).
 387:Generated_Source\PSoC5/isr_ADC_AudioStream.c **** *
 388:Generated_Source\PSoC5/isr_ADC_AudioStream.c **** *******************************************************************************/
 389:Generated_Source\PSoC5/isr_ADC_AudioStream.c **** void isr_ADC_AudioStream_SetPending(void)
 390:Generated_Source\PSoC5/isr_ADC_AudioStream.c **** {
 513              		.loc 1 390 0
 514              		.cfi_startproc
 515              		@ args = 0, pretend = 0, frame = 0
 516              		@ frame_needed = 1, uses_anonymous_args = 0
 517              		@ link register save eliminated.
 518 0000 80B4     		push	{r7}
ARM GAS  C:\Users\MARTHN~1\AppData\Local\Temp\ccJMYgk5.s 			page 17


 519              		.cfi_def_cfa_offset 4
 520              		.cfi_offset 7, -4
 521 0002 00AF     		add	r7, sp, #0
 522              		.cfi_def_cfa_register 7
 391:Generated_Source\PSoC5/isr_ADC_AudioStream.c ****     *isr_ADC_AudioStream_INTC_SET_PD = isr_ADC_AudioStream__INTC_MASK;
 523              		.loc 1 391 0
 524 0004 034B     		ldr	r3, .L40
 525 0006 1022     		movs	r2, #16
 526 0008 1A60     		str	r2, [r3]
 392:Generated_Source\PSoC5/isr_ADC_AudioStream.c **** }
 527              		.loc 1 392 0
 528 000a 00BF     		nop
 529 000c BD46     		mov	sp, r7
 530              		.cfi_def_cfa_register 13
 531              		@ sp needed
 532 000e 80BC     		pop	{r7}
 533              		.cfi_restore 7
 534              		.cfi_def_cfa_offset 0
 535 0010 7047     		bx	lr
 536              	.L41:
 537 0012 00BF     		.align	2
 538              	.L40:
 539 0014 00E200E0 		.word	-536813056
 540              		.cfi_endproc
 541              	.LFE74:
 542              		.size	isr_ADC_AudioStream_SetPending, .-isr_ADC_AudioStream_SetPending
 543              		.section	.text.isr_ADC_AudioStream_ClearPending,"ax",%progbits
 544              		.align	2
 545              		.global	isr_ADC_AudioStream_ClearPending
 546              		.thumb
 547              		.thumb_func
 548              		.type	isr_ADC_AudioStream_ClearPending, %function
 549              	isr_ADC_AudioStream_ClearPending:
 550              	.LFB75:
 393:Generated_Source\PSoC5/isr_ADC_AudioStream.c **** 
 394:Generated_Source\PSoC5/isr_ADC_AudioStream.c **** 
 395:Generated_Source\PSoC5/isr_ADC_AudioStream.c **** /*******************************************************************************
 396:Generated_Source\PSoC5/isr_ADC_AudioStream.c **** * Function Name: isr_ADC_AudioStream_ClearPending
 397:Generated_Source\PSoC5/isr_ADC_AudioStream.c **** ********************************************************************************
 398:Generated_Source\PSoC5/isr_ADC_AudioStream.c **** *
 399:Generated_Source\PSoC5/isr_ADC_AudioStream.c **** * Summary:
 400:Generated_Source\PSoC5/isr_ADC_AudioStream.c **** *   Clears a pending interrupt in the interrupt controller.
 401:Generated_Source\PSoC5/isr_ADC_AudioStream.c **** *
 402:Generated_Source\PSoC5/isr_ADC_AudioStream.c **** *   Note Some interrupt sources are clear-on-read and require the block 
 403:Generated_Source\PSoC5/isr_ADC_AudioStream.c **** *   interrupt/status register to be read/cleared with the appropriate block API 
 404:Generated_Source\PSoC5/isr_ADC_AudioStream.c **** *   (GPIO, UART, and so on). Otherwise the ISR will continue to remain in 
 405:Generated_Source\PSoC5/isr_ADC_AudioStream.c **** *   pending state even though the interrupt itself is cleared using this API.
 406:Generated_Source\PSoC5/isr_ADC_AudioStream.c **** *
 407:Generated_Source\PSoC5/isr_ADC_AudioStream.c **** * Parameters:
 408:Generated_Source\PSoC5/isr_ADC_AudioStream.c **** *   None
 409:Generated_Source\PSoC5/isr_ADC_AudioStream.c **** *
 410:Generated_Source\PSoC5/isr_ADC_AudioStream.c **** * Return:
 411:Generated_Source\PSoC5/isr_ADC_AudioStream.c **** *   None
 412:Generated_Source\PSoC5/isr_ADC_AudioStream.c **** *
 413:Generated_Source\PSoC5/isr_ADC_AudioStream.c **** *******************************************************************************/
 414:Generated_Source\PSoC5/isr_ADC_AudioStream.c **** void isr_ADC_AudioStream_ClearPending(void)
 415:Generated_Source\PSoC5/isr_ADC_AudioStream.c **** {
ARM GAS  C:\Users\MARTHN~1\AppData\Local\Temp\ccJMYgk5.s 			page 18


 551              		.loc 1 415 0
 552              		.cfi_startproc
 553              		@ args = 0, pretend = 0, frame = 0
 554              		@ frame_needed = 1, uses_anonymous_args = 0
 555              		@ link register save eliminated.
 556 0000 80B4     		push	{r7}
 557              		.cfi_def_cfa_offset 4
 558              		.cfi_offset 7, -4
 559 0002 00AF     		add	r7, sp, #0
 560              		.cfi_def_cfa_register 7
 416:Generated_Source\PSoC5/isr_ADC_AudioStream.c ****     *isr_ADC_AudioStream_INTC_CLR_PD = isr_ADC_AudioStream__INTC_MASK;
 561              		.loc 1 416 0
 562 0004 034B     		ldr	r3, .L43
 563 0006 1022     		movs	r2, #16
 564 0008 1A60     		str	r2, [r3]
 417:Generated_Source\PSoC5/isr_ADC_AudioStream.c **** }
 565              		.loc 1 417 0
 566 000a 00BF     		nop
 567 000c BD46     		mov	sp, r7
 568              		.cfi_def_cfa_register 13
 569              		@ sp needed
 570 000e 80BC     		pop	{r7}
 571              		.cfi_restore 7
 572              		.cfi_def_cfa_offset 0
 573 0010 7047     		bx	lr
 574              	.L44:
 575 0012 00BF     		.align	2
 576              	.L43:
 577 0014 80E200E0 		.word	-536812928
 578              		.cfi_endproc
 579              	.LFE75:
 580              		.size	isr_ADC_AudioStream_ClearPending, .-isr_ADC_AudioStream_ClearPending
 581              		.text
 582              	.Letext0:
 583              		.file 2 "c:\\program files (x86)\\cypress\\psoc creator\\4.3\\psoc creator\\import\\gnu\\arm\\5.4.
 584              		.file 3 "c:\\program files (x86)\\cypress\\psoc creator\\4.3\\psoc creator\\import\\gnu\\arm\\5.4.
 585              		.file 4 "Generated_Source\\PSoC5/cytypes.h"
 586              		.file 5 "Generated_Source\\PSoC5/core_cm3.h"