ARM GAS  C:\Users\MARTHN~1\AppData\Local\Temp\ccgnvOi5.s 			page 1


   1              		.syntax unified
   2              		.cpu cortex-m3
   3              		.fpu softvfp
   4              		.eabi_attribute 20, 1
   5              		.eabi_attribute 21, 1
   6              		.eabi_attribute 23, 3
   7              		.eabi_attribute 24, 1
   8              		.eabi_attribute 25, 1
   9              		.eabi_attribute 26, 1
  10              		.eabi_attribute 30, 6
  11              		.eabi_attribute 34, 1
  12              		.eabi_attribute 18, 4
  13              		.thumb
  14              		.syntax unified
  15              		.file	"isr_UART_460800.c"
  16              		.text
  17              	.Ltext0:
  18              		.cfi_sections	.debug_frame
  19              		.section	.text.isr_UART_460800_Start,"ax",%progbits
  20              		.align	2
  21              		.global	isr_UART_460800_Start
  22              		.thumb
  23              		.thumb_func
  24              		.type	isr_UART_460800_Start, %function
  25              	isr_UART_460800_Start:
  26              	.LFB63:
  27              		.file 1 "Generated_Source\\PSoC5\\isr_UART_460800.c"
   1:Generated_Source\PSoC5/isr_UART_460800.c **** /*******************************************************************************
   2:Generated_Source\PSoC5/isr_UART_460800.c **** * File Name: isr_UART_460800.c  
   3:Generated_Source\PSoC5/isr_UART_460800.c **** * Version 1.70
   4:Generated_Source\PSoC5/isr_UART_460800.c **** *
   5:Generated_Source\PSoC5/isr_UART_460800.c **** *  Description:
   6:Generated_Source\PSoC5/isr_UART_460800.c **** *   API for controlling the state of an interrupt.
   7:Generated_Source\PSoC5/isr_UART_460800.c **** *
   8:Generated_Source\PSoC5/isr_UART_460800.c **** *
   9:Generated_Source\PSoC5/isr_UART_460800.c **** *  Note:
  10:Generated_Source\PSoC5/isr_UART_460800.c **** *
  11:Generated_Source\PSoC5/isr_UART_460800.c **** ********************************************************************************
  12:Generated_Source\PSoC5/isr_UART_460800.c **** * Copyright 2008-2015, Cypress Semiconductor Corporation.  All rights reserved.
  13:Generated_Source\PSoC5/isr_UART_460800.c **** * You may use this file only in accordance with the license, terms, conditions, 
  14:Generated_Source\PSoC5/isr_UART_460800.c **** * disclaimers, and limitations in the end user license agreement accompanying 
  15:Generated_Source\PSoC5/isr_UART_460800.c **** * the software package with which this file was provided.
  16:Generated_Source\PSoC5/isr_UART_460800.c **** *******************************************************************************/
  17:Generated_Source\PSoC5/isr_UART_460800.c **** 
  18:Generated_Source\PSoC5/isr_UART_460800.c **** 
  19:Generated_Source\PSoC5/isr_UART_460800.c **** #include <cydevice_trm.h>
  20:Generated_Source\PSoC5/isr_UART_460800.c **** #include <CyLib.h>
  21:Generated_Source\PSoC5/isr_UART_460800.c **** #include <isr_UART_460800.h>
  22:Generated_Source\PSoC5/isr_UART_460800.c **** #include "cyapicallbacks.h"
  23:Generated_Source\PSoC5/isr_UART_460800.c **** 
  24:Generated_Source\PSoC5/isr_UART_460800.c **** #if !defined(isr_UART_460800__REMOVED) /* Check for removal by optimization */
  25:Generated_Source\PSoC5/isr_UART_460800.c **** 
  26:Generated_Source\PSoC5/isr_UART_460800.c **** /*******************************************************************************
  27:Generated_Source\PSoC5/isr_UART_460800.c **** *  Place your includes, defines and code here 
  28:Generated_Source\PSoC5/isr_UART_460800.c **** ********************************************************************************/
  29:Generated_Source\PSoC5/isr_UART_460800.c **** /* `#START isr_UART_460800_intc` */
  30:Generated_Source\PSoC5/isr_UART_460800.c ****     
ARM GAS  C:\Users\MARTHN~1\AppData\Local\Temp\ccgnvOi5.s 			page 2


  31:Generated_Source\PSoC5/isr_UART_460800.c ****     #include "UART_460800_Functions.h"
  32:Generated_Source\PSoC5/isr_UART_460800.c **** 
  33:Generated_Source\PSoC5/isr_UART_460800.c **** /* `#END` */
  34:Generated_Source\PSoC5/isr_UART_460800.c **** 
  35:Generated_Source\PSoC5/isr_UART_460800.c **** #ifndef CYINT_IRQ_BASE
  36:Generated_Source\PSoC5/isr_UART_460800.c **** #define CYINT_IRQ_BASE      16
  37:Generated_Source\PSoC5/isr_UART_460800.c **** #endif /* CYINT_IRQ_BASE */
  38:Generated_Source\PSoC5/isr_UART_460800.c **** #ifndef CYINT_VECT_TABLE
  39:Generated_Source\PSoC5/isr_UART_460800.c **** #define CYINT_VECT_TABLE    ((cyisraddress **) CYREG_NVIC_VECT_OFFSET)
  40:Generated_Source\PSoC5/isr_UART_460800.c **** #endif /* CYINT_VECT_TABLE */
  41:Generated_Source\PSoC5/isr_UART_460800.c **** 
  42:Generated_Source\PSoC5/isr_UART_460800.c **** /* Declared in startup, used to set unused interrupts to. */
  43:Generated_Source\PSoC5/isr_UART_460800.c **** CY_ISR_PROTO(IntDefaultHandler);
  44:Generated_Source\PSoC5/isr_UART_460800.c **** 
  45:Generated_Source\PSoC5/isr_UART_460800.c **** 
  46:Generated_Source\PSoC5/isr_UART_460800.c **** /*******************************************************************************
  47:Generated_Source\PSoC5/isr_UART_460800.c **** * Function Name: isr_UART_460800_Start
  48:Generated_Source\PSoC5/isr_UART_460800.c **** ********************************************************************************
  49:Generated_Source\PSoC5/isr_UART_460800.c **** *
  50:Generated_Source\PSoC5/isr_UART_460800.c **** * Summary:
  51:Generated_Source\PSoC5/isr_UART_460800.c **** *  Set up the interrupt and enable it. This function disables the interrupt, 
  52:Generated_Source\PSoC5/isr_UART_460800.c **** *  sets the default interrupt vector, sets the priority from the value in the
  53:Generated_Source\PSoC5/isr_UART_460800.c **** *  Design Wide Resources Interrupt Editor, then enables the interrupt to the 
  54:Generated_Source\PSoC5/isr_UART_460800.c **** *  interrupt controller.
  55:Generated_Source\PSoC5/isr_UART_460800.c **** *
  56:Generated_Source\PSoC5/isr_UART_460800.c **** * Parameters:  
  57:Generated_Source\PSoC5/isr_UART_460800.c **** *   None
  58:Generated_Source\PSoC5/isr_UART_460800.c **** *
  59:Generated_Source\PSoC5/isr_UART_460800.c **** * Return:
  60:Generated_Source\PSoC5/isr_UART_460800.c **** *   None
  61:Generated_Source\PSoC5/isr_UART_460800.c **** *
  62:Generated_Source\PSoC5/isr_UART_460800.c **** *******************************************************************************/
  63:Generated_Source\PSoC5/isr_UART_460800.c **** void isr_UART_460800_Start(void)
  64:Generated_Source\PSoC5/isr_UART_460800.c **** {
  28              		.loc 1 64 0
  29              		.cfi_startproc
  30              		@ args = 0, pretend = 0, frame = 0
  31              		@ frame_needed = 1, uses_anonymous_args = 0
  32 0000 80B5     		push	{r7, lr}
  33              		.cfi_def_cfa_offset 8
  34              		.cfi_offset 7, -8
  35              		.cfi_offset 14, -4
  36 0002 00AF     		add	r7, sp, #0
  37              		.cfi_def_cfa_register 7
  65:Generated_Source\PSoC5/isr_UART_460800.c ****     /* For all we know the interrupt is active. */
  66:Generated_Source\PSoC5/isr_UART_460800.c ****     isr_UART_460800_Disable();
  38              		.loc 1 66 0
  39 0004 FFF7FEFF 		bl	isr_UART_460800_Disable
  67:Generated_Source\PSoC5/isr_UART_460800.c **** 
  68:Generated_Source\PSoC5/isr_UART_460800.c ****     /* Set the ISR to point to the isr_UART_460800 Interrupt. */
  69:Generated_Source\PSoC5/isr_UART_460800.c ****     isr_UART_460800_SetVector(&isr_UART_460800_Interrupt);
  40              		.loc 1 69 0
  41 0008 0448     		ldr	r0, .L2
  42 000a FFF7FEFF 		bl	isr_UART_460800_SetVector
  70:Generated_Source\PSoC5/isr_UART_460800.c **** 
  71:Generated_Source\PSoC5/isr_UART_460800.c ****     /* Set the priority. */
  72:Generated_Source\PSoC5/isr_UART_460800.c ****     isr_UART_460800_SetPriority((uint8)isr_UART_460800_INTC_PRIOR_NUMBER);
ARM GAS  C:\Users\MARTHN~1\AppData\Local\Temp\ccgnvOi5.s 			page 3


  43              		.loc 1 72 0
  44 000e 0220     		movs	r0, #2
  45 0010 FFF7FEFF 		bl	isr_UART_460800_SetPriority
  73:Generated_Source\PSoC5/isr_UART_460800.c **** 
  74:Generated_Source\PSoC5/isr_UART_460800.c ****     /* Enable it. */
  75:Generated_Source\PSoC5/isr_UART_460800.c ****     isr_UART_460800_Enable();
  46              		.loc 1 75 0
  47 0014 FFF7FEFF 		bl	isr_UART_460800_Enable
  76:Generated_Source\PSoC5/isr_UART_460800.c **** }
  48              		.loc 1 76 0
  49 0018 00BF     		nop
  50 001a 80BD     		pop	{r7, pc}
  51              	.L3:
  52              		.align	2
  53              	.L2:
  54 001c 00000000 		.word	isr_UART_460800_Interrupt
  55              		.cfi_endproc
  56              	.LFE63:
  57              		.size	isr_UART_460800_Start, .-isr_UART_460800_Start
  58              		.section	.text.isr_UART_460800_StartEx,"ax",%progbits
  59              		.align	2
  60              		.global	isr_UART_460800_StartEx
  61              		.thumb
  62              		.thumb_func
  63              		.type	isr_UART_460800_StartEx, %function
  64              	isr_UART_460800_StartEx:
  65              	.LFB64:
  77:Generated_Source\PSoC5/isr_UART_460800.c **** 
  78:Generated_Source\PSoC5/isr_UART_460800.c **** 
  79:Generated_Source\PSoC5/isr_UART_460800.c **** /*******************************************************************************
  80:Generated_Source\PSoC5/isr_UART_460800.c **** * Function Name: isr_UART_460800_StartEx
  81:Generated_Source\PSoC5/isr_UART_460800.c **** ********************************************************************************
  82:Generated_Source\PSoC5/isr_UART_460800.c **** *
  83:Generated_Source\PSoC5/isr_UART_460800.c **** * Summary:
  84:Generated_Source\PSoC5/isr_UART_460800.c **** *  Sets up the interrupt and enables it. This function disables the interrupt,
  85:Generated_Source\PSoC5/isr_UART_460800.c **** *  sets the interrupt vector based on the address passed in, sets the priority 
  86:Generated_Source\PSoC5/isr_UART_460800.c **** *  from the value in the Design Wide Resources Interrupt Editor, then enables 
  87:Generated_Source\PSoC5/isr_UART_460800.c **** *  the interrupt to the interrupt controller.
  88:Generated_Source\PSoC5/isr_UART_460800.c **** *  
  89:Generated_Source\PSoC5/isr_UART_460800.c **** *  When defining ISR functions, the CY_ISR and CY_ISR_PROTO macros should be 
  90:Generated_Source\PSoC5/isr_UART_460800.c **** *  used to provide consistent definition across compilers:
  91:Generated_Source\PSoC5/isr_UART_460800.c **** *  
  92:Generated_Source\PSoC5/isr_UART_460800.c **** *  Function definition example:
  93:Generated_Source\PSoC5/isr_UART_460800.c **** *   CY_ISR(MyISR)
  94:Generated_Source\PSoC5/isr_UART_460800.c **** *   {
  95:Generated_Source\PSoC5/isr_UART_460800.c **** *   }
  96:Generated_Source\PSoC5/isr_UART_460800.c **** *   Function prototype example:
  97:Generated_Source\PSoC5/isr_UART_460800.c **** *   CY_ISR_PROTO(MyISR);
  98:Generated_Source\PSoC5/isr_UART_460800.c **** *
  99:Generated_Source\PSoC5/isr_UART_460800.c **** * Parameters:  
 100:Generated_Source\PSoC5/isr_UART_460800.c **** *   address: Address of the ISR to set in the interrupt vector table.
 101:Generated_Source\PSoC5/isr_UART_460800.c **** *
 102:Generated_Source\PSoC5/isr_UART_460800.c **** * Return:
 103:Generated_Source\PSoC5/isr_UART_460800.c **** *   None
 104:Generated_Source\PSoC5/isr_UART_460800.c **** *
 105:Generated_Source\PSoC5/isr_UART_460800.c **** *******************************************************************************/
 106:Generated_Source\PSoC5/isr_UART_460800.c **** void isr_UART_460800_StartEx(cyisraddress address)
ARM GAS  C:\Users\MARTHN~1\AppData\Local\Temp\ccgnvOi5.s 			page 4


 107:Generated_Source\PSoC5/isr_UART_460800.c **** {
  66              		.loc 1 107 0
  67              		.cfi_startproc
  68              		@ args = 0, pretend = 0, frame = 8
  69              		@ frame_needed = 1, uses_anonymous_args = 0
  70 0000 80B5     		push	{r7, lr}
  71              		.cfi_def_cfa_offset 8
  72              		.cfi_offset 7, -8
  73              		.cfi_offset 14, -4
  74 0002 82B0     		sub	sp, sp, #8
  75              		.cfi_def_cfa_offset 16
  76 0004 00AF     		add	r7, sp, #0
  77              		.cfi_def_cfa_register 7
  78 0006 7860     		str	r0, [r7, #4]
 108:Generated_Source\PSoC5/isr_UART_460800.c ****     /* For all we know the interrupt is active. */
 109:Generated_Source\PSoC5/isr_UART_460800.c ****     isr_UART_460800_Disable();
  79              		.loc 1 109 0
  80 0008 FFF7FEFF 		bl	isr_UART_460800_Disable
 110:Generated_Source\PSoC5/isr_UART_460800.c **** 
 111:Generated_Source\PSoC5/isr_UART_460800.c ****     /* Set the ISR to point to the isr_UART_460800 Interrupt. */
 112:Generated_Source\PSoC5/isr_UART_460800.c ****     isr_UART_460800_SetVector(address);
  81              		.loc 1 112 0
  82 000c 7868     		ldr	r0, [r7, #4]
  83 000e FFF7FEFF 		bl	isr_UART_460800_SetVector
 113:Generated_Source\PSoC5/isr_UART_460800.c **** 
 114:Generated_Source\PSoC5/isr_UART_460800.c ****     /* Set the priority. */
 115:Generated_Source\PSoC5/isr_UART_460800.c ****     isr_UART_460800_SetPriority((uint8)isr_UART_460800_INTC_PRIOR_NUMBER);
  84              		.loc 1 115 0
  85 0012 0220     		movs	r0, #2
  86 0014 FFF7FEFF 		bl	isr_UART_460800_SetPriority
 116:Generated_Source\PSoC5/isr_UART_460800.c **** 
 117:Generated_Source\PSoC5/isr_UART_460800.c ****     /* Enable it. */
 118:Generated_Source\PSoC5/isr_UART_460800.c ****     isr_UART_460800_Enable();
  87              		.loc 1 118 0
  88 0018 FFF7FEFF 		bl	isr_UART_460800_Enable
 119:Generated_Source\PSoC5/isr_UART_460800.c **** }
  89              		.loc 1 119 0
  90 001c 00BF     		nop
  91 001e 0837     		adds	r7, r7, #8
  92              		.cfi_def_cfa_offset 8
  93 0020 BD46     		mov	sp, r7
  94              		.cfi_def_cfa_register 13
  95              		@ sp needed
  96 0022 80BD     		pop	{r7, pc}
  97              		.cfi_endproc
  98              	.LFE64:
  99              		.size	isr_UART_460800_StartEx, .-isr_UART_460800_StartEx
 100              		.section	.text.isr_UART_460800_Stop,"ax",%progbits
 101              		.align	2
 102              		.global	isr_UART_460800_Stop
 103              		.thumb
 104              		.thumb_func
 105              		.type	isr_UART_460800_Stop, %function
 106              	isr_UART_460800_Stop:
 107              	.LFB65:
 120:Generated_Source\PSoC5/isr_UART_460800.c **** 
 121:Generated_Source\PSoC5/isr_UART_460800.c **** 
ARM GAS  C:\Users\MARTHN~1\AppData\Local\Temp\ccgnvOi5.s 			page 5


 122:Generated_Source\PSoC5/isr_UART_460800.c **** /*******************************************************************************
 123:Generated_Source\PSoC5/isr_UART_460800.c **** * Function Name: isr_UART_460800_Stop
 124:Generated_Source\PSoC5/isr_UART_460800.c **** ********************************************************************************
 125:Generated_Source\PSoC5/isr_UART_460800.c **** *
 126:Generated_Source\PSoC5/isr_UART_460800.c **** * Summary:
 127:Generated_Source\PSoC5/isr_UART_460800.c **** *   Disables and removes the interrupt.
 128:Generated_Source\PSoC5/isr_UART_460800.c **** *
 129:Generated_Source\PSoC5/isr_UART_460800.c **** * Parameters:  
 130:Generated_Source\PSoC5/isr_UART_460800.c **** *   None
 131:Generated_Source\PSoC5/isr_UART_460800.c **** *
 132:Generated_Source\PSoC5/isr_UART_460800.c **** * Return:
 133:Generated_Source\PSoC5/isr_UART_460800.c **** *   None
 134:Generated_Source\PSoC5/isr_UART_460800.c **** *
 135:Generated_Source\PSoC5/isr_UART_460800.c **** *******************************************************************************/
 136:Generated_Source\PSoC5/isr_UART_460800.c **** void isr_UART_460800_Stop(void)
 137:Generated_Source\PSoC5/isr_UART_460800.c **** {
 108              		.loc 1 137 0
 109              		.cfi_startproc
 110              		@ args = 0, pretend = 0, frame = 0
 111              		@ frame_needed = 1, uses_anonymous_args = 0
 112 0000 80B5     		push	{r7, lr}
 113              		.cfi_def_cfa_offset 8
 114              		.cfi_offset 7, -8
 115              		.cfi_offset 14, -4
 116 0002 00AF     		add	r7, sp, #0
 117              		.cfi_def_cfa_register 7
 138:Generated_Source\PSoC5/isr_UART_460800.c ****     /* Disable this interrupt. */
 139:Generated_Source\PSoC5/isr_UART_460800.c ****     isr_UART_460800_Disable();
 118              		.loc 1 139 0
 119 0004 FFF7FEFF 		bl	isr_UART_460800_Disable
 140:Generated_Source\PSoC5/isr_UART_460800.c **** 
 141:Generated_Source\PSoC5/isr_UART_460800.c ****     /* Set the ISR to point to the passive one. */
 142:Generated_Source\PSoC5/isr_UART_460800.c ****     isr_UART_460800_SetVector(&IntDefaultHandler);
 120              		.loc 1 142 0
 121 0008 0248     		ldr	r0, .L6
 122 000a FFF7FEFF 		bl	isr_UART_460800_SetVector
 143:Generated_Source\PSoC5/isr_UART_460800.c **** }
 123              		.loc 1 143 0
 124 000e 00BF     		nop
 125 0010 80BD     		pop	{r7, pc}
 126              	.L7:
 127 0012 00BF     		.align	2
 128              	.L6:
 129 0014 00000000 		.word	IntDefaultHandler
 130              		.cfi_endproc
 131              	.LFE65:
 132              		.size	isr_UART_460800_Stop, .-isr_UART_460800_Stop
 133              		.section	.text.isr_UART_460800_Interrupt,"ax",%progbits
 134              		.align	2
 135              		.global	isr_UART_460800_Interrupt
 136              		.thumb
 137              		.thumb_func
 138              		.type	isr_UART_460800_Interrupt, %function
 139              	isr_UART_460800_Interrupt:
 140              	.LFB66:
 144:Generated_Source\PSoC5/isr_UART_460800.c **** 
 145:Generated_Source\PSoC5/isr_UART_460800.c **** 
ARM GAS  C:\Users\MARTHN~1\AppData\Local\Temp\ccgnvOi5.s 			page 6


 146:Generated_Source\PSoC5/isr_UART_460800.c **** /*******************************************************************************
 147:Generated_Source\PSoC5/isr_UART_460800.c **** * Function Name: isr_UART_460800_Interrupt
 148:Generated_Source\PSoC5/isr_UART_460800.c **** ********************************************************************************
 149:Generated_Source\PSoC5/isr_UART_460800.c **** *
 150:Generated_Source\PSoC5/isr_UART_460800.c **** * Summary:
 151:Generated_Source\PSoC5/isr_UART_460800.c **** *   The default Interrupt Service Routine for isr_UART_460800.
 152:Generated_Source\PSoC5/isr_UART_460800.c **** *
 153:Generated_Source\PSoC5/isr_UART_460800.c **** *   Add custom code between the coments to keep the next version of this file
 154:Generated_Source\PSoC5/isr_UART_460800.c **** *   from over writting your code.
 155:Generated_Source\PSoC5/isr_UART_460800.c **** *
 156:Generated_Source\PSoC5/isr_UART_460800.c **** * Parameters:  
 157:Generated_Source\PSoC5/isr_UART_460800.c **** *
 158:Generated_Source\PSoC5/isr_UART_460800.c **** * Return:
 159:Generated_Source\PSoC5/isr_UART_460800.c **** *   None
 160:Generated_Source\PSoC5/isr_UART_460800.c **** *
 161:Generated_Source\PSoC5/isr_UART_460800.c **** *******************************************************************************/
 162:Generated_Source\PSoC5/isr_UART_460800.c **** CY_ISR(isr_UART_460800_Interrupt)
 163:Generated_Source\PSoC5/isr_UART_460800.c **** {
 141              		.loc 1 163 0
 142              		.cfi_startproc
 143              		@ args = 0, pretend = 0, frame = 0
 144              		@ frame_needed = 1, uses_anonymous_args = 0
 145 0000 80B5     		push	{r7, lr}
 146              		.cfi_def_cfa_offset 8
 147              		.cfi_offset 7, -8
 148              		.cfi_offset 14, -4
 149 0002 00AF     		add	r7, sp, #0
 150              		.cfi_def_cfa_register 7
 164:Generated_Source\PSoC5/isr_UART_460800.c ****     #ifdef isr_UART_460800_INTERRUPT_INTERRUPT_CALLBACK
 165:Generated_Source\PSoC5/isr_UART_460800.c ****         isr_UART_460800_Interrupt_InterruptCallback();
 166:Generated_Source\PSoC5/isr_UART_460800.c ****     #endif /* isr_UART_460800_INTERRUPT_INTERRUPT_CALLBACK */ 
 167:Generated_Source\PSoC5/isr_UART_460800.c **** 
 168:Generated_Source\PSoC5/isr_UART_460800.c ****     /*  Place your Interrupt code here. */
 169:Generated_Source\PSoC5/isr_UART_460800.c ****     /* `#START isr_UART_460800_Interrupt` */
 170:Generated_Source\PSoC5/isr_UART_460800.c ****     
 171:Generated_Source\PSoC5/isr_UART_460800.c ****     processByteReceivedHandler_460800();
 151              		.loc 1 171 0
 152 0004 FFF7FEFF 		bl	processByteReceivedHandler_460800
 172:Generated_Source\PSoC5/isr_UART_460800.c **** 
 173:Generated_Source\PSoC5/isr_UART_460800.c ****     /* `#END` */
 174:Generated_Source\PSoC5/isr_UART_460800.c **** }
 153              		.loc 1 174 0
 154 0008 00BF     		nop
 155 000a 80BD     		pop	{r7, pc}
 156              		.cfi_endproc
 157              	.LFE66:
 158              		.size	isr_UART_460800_Interrupt, .-isr_UART_460800_Interrupt
 159              		.section	.text.isr_UART_460800_SetVector,"ax",%progbits
 160              		.align	2
 161              		.global	isr_UART_460800_SetVector
 162              		.thumb
 163              		.thumb_func
 164              		.type	isr_UART_460800_SetVector, %function
 165              	isr_UART_460800_SetVector:
 166              	.LFB67:
 175:Generated_Source\PSoC5/isr_UART_460800.c **** 
 176:Generated_Source\PSoC5/isr_UART_460800.c **** 
ARM GAS  C:\Users\MARTHN~1\AppData\Local\Temp\ccgnvOi5.s 			page 7


 177:Generated_Source\PSoC5/isr_UART_460800.c **** /*******************************************************************************
 178:Generated_Source\PSoC5/isr_UART_460800.c **** * Function Name: isr_UART_460800_SetVector
 179:Generated_Source\PSoC5/isr_UART_460800.c **** ********************************************************************************
 180:Generated_Source\PSoC5/isr_UART_460800.c **** *
 181:Generated_Source\PSoC5/isr_UART_460800.c **** * Summary:
 182:Generated_Source\PSoC5/isr_UART_460800.c **** *   Change the ISR vector for the Interrupt. Note calling isr_UART_460800_Start
 183:Generated_Source\PSoC5/isr_UART_460800.c **** *   will override any effect this method would have had. To set the vector 
 184:Generated_Source\PSoC5/isr_UART_460800.c **** *   before the component has been started use isr_UART_460800_StartEx instead.
 185:Generated_Source\PSoC5/isr_UART_460800.c **** * 
 186:Generated_Source\PSoC5/isr_UART_460800.c **** *   When defining ISR functions, the CY_ISR and CY_ISR_PROTO macros should be 
 187:Generated_Source\PSoC5/isr_UART_460800.c **** *   used to provide consistent definition across compilers:
 188:Generated_Source\PSoC5/isr_UART_460800.c **** *
 189:Generated_Source\PSoC5/isr_UART_460800.c **** *   Function definition example:
 190:Generated_Source\PSoC5/isr_UART_460800.c **** *   CY_ISR(MyISR)
 191:Generated_Source\PSoC5/isr_UART_460800.c **** *   {
 192:Generated_Source\PSoC5/isr_UART_460800.c **** *   }
 193:Generated_Source\PSoC5/isr_UART_460800.c **** *
 194:Generated_Source\PSoC5/isr_UART_460800.c **** *   Function prototype example:
 195:Generated_Source\PSoC5/isr_UART_460800.c **** *     CY_ISR_PROTO(MyISR);
 196:Generated_Source\PSoC5/isr_UART_460800.c **** *
 197:Generated_Source\PSoC5/isr_UART_460800.c **** * Parameters:
 198:Generated_Source\PSoC5/isr_UART_460800.c **** *   address: Address of the ISR to set in the interrupt vector table.
 199:Generated_Source\PSoC5/isr_UART_460800.c **** *
 200:Generated_Source\PSoC5/isr_UART_460800.c **** * Return:
 201:Generated_Source\PSoC5/isr_UART_460800.c **** *   None
 202:Generated_Source\PSoC5/isr_UART_460800.c **** *
 203:Generated_Source\PSoC5/isr_UART_460800.c **** *******************************************************************************/
 204:Generated_Source\PSoC5/isr_UART_460800.c **** void isr_UART_460800_SetVector(cyisraddress address)
 205:Generated_Source\PSoC5/isr_UART_460800.c **** {
 167              		.loc 1 205 0
 168              		.cfi_startproc
 169              		@ args = 0, pretend = 0, frame = 16
 170              		@ frame_needed = 1, uses_anonymous_args = 0
 171              		@ link register save eliminated.
 172 0000 80B4     		push	{r7}
 173              		.cfi_def_cfa_offset 4
 174              		.cfi_offset 7, -4
 175 0002 85B0     		sub	sp, sp, #20
 176              		.cfi_def_cfa_offset 24
 177 0004 00AF     		add	r7, sp, #0
 178              		.cfi_def_cfa_register 7
 179 0006 7860     		str	r0, [r7, #4]
 206:Generated_Source\PSoC5/isr_UART_460800.c ****     cyisraddress * ramVectorTable;
 207:Generated_Source\PSoC5/isr_UART_460800.c **** 
 208:Generated_Source\PSoC5/isr_UART_460800.c ****     ramVectorTable = (cyisraddress *) *CYINT_VECT_TABLE;
 180              		.loc 1 208 0
 181 0008 054B     		ldr	r3, .L10
 182 000a 1B68     		ldr	r3, [r3]
 183 000c FB60     		str	r3, [r7, #12]
 209:Generated_Source\PSoC5/isr_UART_460800.c **** 
 210:Generated_Source\PSoC5/isr_UART_460800.c ****     ramVectorTable[CYINT_IRQ_BASE + (uint32)isr_UART_460800__INTC_NUMBER] = address;
 184              		.loc 1 210 0
 185 000e FB68     		ldr	r3, [r7, #12]
 186 0010 6033     		adds	r3, r3, #96
 187 0012 7A68     		ldr	r2, [r7, #4]
 188 0014 1A60     		str	r2, [r3]
 211:Generated_Source\PSoC5/isr_UART_460800.c **** }
ARM GAS  C:\Users\MARTHN~1\AppData\Local\Temp\ccgnvOi5.s 			page 8


 189              		.loc 1 211 0
 190 0016 00BF     		nop
 191 0018 1437     		adds	r7, r7, #20
 192              		.cfi_def_cfa_offset 4
 193 001a BD46     		mov	sp, r7
 194              		.cfi_def_cfa_register 13
 195              		@ sp needed
 196 001c 80BC     		pop	{r7}
 197              		.cfi_restore 7
 198              		.cfi_def_cfa_offset 0
 199 001e 7047     		bx	lr
 200              	.L11:
 201              		.align	2
 202              	.L10:
 203 0020 08ED00E0 		.word	-536810232
 204              		.cfi_endproc
 205              	.LFE67:
 206              		.size	isr_UART_460800_SetVector, .-isr_UART_460800_SetVector
 207              		.section	.text.isr_UART_460800_GetVector,"ax",%progbits
 208              		.align	2
 209              		.global	isr_UART_460800_GetVector
 210              		.thumb
 211              		.thumb_func
 212              		.type	isr_UART_460800_GetVector, %function
 213              	isr_UART_460800_GetVector:
 214              	.LFB68:
 212:Generated_Source\PSoC5/isr_UART_460800.c **** 
 213:Generated_Source\PSoC5/isr_UART_460800.c **** 
 214:Generated_Source\PSoC5/isr_UART_460800.c **** /*******************************************************************************
 215:Generated_Source\PSoC5/isr_UART_460800.c **** * Function Name: isr_UART_460800_GetVector
 216:Generated_Source\PSoC5/isr_UART_460800.c **** ********************************************************************************
 217:Generated_Source\PSoC5/isr_UART_460800.c **** *
 218:Generated_Source\PSoC5/isr_UART_460800.c **** * Summary:
 219:Generated_Source\PSoC5/isr_UART_460800.c **** *   Gets the "address" of the current ISR vector for the Interrupt.
 220:Generated_Source\PSoC5/isr_UART_460800.c **** *
 221:Generated_Source\PSoC5/isr_UART_460800.c **** * Parameters:
 222:Generated_Source\PSoC5/isr_UART_460800.c **** *   None
 223:Generated_Source\PSoC5/isr_UART_460800.c **** *
 224:Generated_Source\PSoC5/isr_UART_460800.c **** * Return:
 225:Generated_Source\PSoC5/isr_UART_460800.c **** *   Address of the ISR in the interrupt vector table.
 226:Generated_Source\PSoC5/isr_UART_460800.c **** *
 227:Generated_Source\PSoC5/isr_UART_460800.c **** *******************************************************************************/
 228:Generated_Source\PSoC5/isr_UART_460800.c **** cyisraddress isr_UART_460800_GetVector(void)
 229:Generated_Source\PSoC5/isr_UART_460800.c **** {
 215              		.loc 1 229 0
 216              		.cfi_startproc
 217              		@ args = 0, pretend = 0, frame = 8
 218              		@ frame_needed = 1, uses_anonymous_args = 0
 219              		@ link register save eliminated.
 220 0000 80B4     		push	{r7}
 221              		.cfi_def_cfa_offset 4
 222              		.cfi_offset 7, -4
 223 0002 83B0     		sub	sp, sp, #12
 224              		.cfi_def_cfa_offset 16
 225 0004 00AF     		add	r7, sp, #0
 226              		.cfi_def_cfa_register 7
 230:Generated_Source\PSoC5/isr_UART_460800.c ****     cyisraddress * ramVectorTable;
ARM GAS  C:\Users\MARTHN~1\AppData\Local\Temp\ccgnvOi5.s 			page 9


 231:Generated_Source\PSoC5/isr_UART_460800.c **** 
 232:Generated_Source\PSoC5/isr_UART_460800.c ****     ramVectorTable = (cyisraddress *) *CYINT_VECT_TABLE;
 227              		.loc 1 232 0
 228 0006 054B     		ldr	r3, .L14
 229 0008 1B68     		ldr	r3, [r3]
 230 000a 7B60     		str	r3, [r7, #4]
 233:Generated_Source\PSoC5/isr_UART_460800.c **** 
 234:Generated_Source\PSoC5/isr_UART_460800.c ****     return ramVectorTable[CYINT_IRQ_BASE + (uint32)isr_UART_460800__INTC_NUMBER];
 231              		.loc 1 234 0
 232 000c 7B68     		ldr	r3, [r7, #4]
 233 000e 1B6E     		ldr	r3, [r3, #96]
 235:Generated_Source\PSoC5/isr_UART_460800.c **** }
 234              		.loc 1 235 0
 235 0010 1846     		mov	r0, r3
 236 0012 0C37     		adds	r7, r7, #12
 237              		.cfi_def_cfa_offset 4
 238 0014 BD46     		mov	sp, r7
 239              		.cfi_def_cfa_register 13
 240              		@ sp needed
 241 0016 80BC     		pop	{r7}
 242              		.cfi_restore 7
 243              		.cfi_def_cfa_offset 0
 244 0018 7047     		bx	lr
 245              	.L15:
 246 001a 00BF     		.align	2
 247              	.L14:
 248 001c 08ED00E0 		.word	-536810232
 249              		.cfi_endproc
 250              	.LFE68:
 251              		.size	isr_UART_460800_GetVector, .-isr_UART_460800_GetVector
 252              		.section	.text.isr_UART_460800_SetPriority,"ax",%progbits
 253              		.align	2
 254              		.global	isr_UART_460800_SetPriority
 255              		.thumb
 256              		.thumb_func
 257              		.type	isr_UART_460800_SetPriority, %function
 258              	isr_UART_460800_SetPriority:
 259              	.LFB69:
 236:Generated_Source\PSoC5/isr_UART_460800.c **** 
 237:Generated_Source\PSoC5/isr_UART_460800.c **** 
 238:Generated_Source\PSoC5/isr_UART_460800.c **** /*******************************************************************************
 239:Generated_Source\PSoC5/isr_UART_460800.c **** * Function Name: isr_UART_460800_SetPriority
 240:Generated_Source\PSoC5/isr_UART_460800.c **** ********************************************************************************
 241:Generated_Source\PSoC5/isr_UART_460800.c **** *
 242:Generated_Source\PSoC5/isr_UART_460800.c **** * Summary:
 243:Generated_Source\PSoC5/isr_UART_460800.c **** *   Sets the Priority of the Interrupt. 
 244:Generated_Source\PSoC5/isr_UART_460800.c **** *
 245:Generated_Source\PSoC5/isr_UART_460800.c **** *   Note calling isr_UART_460800_Start or isr_UART_460800_StartEx will 
 246:Generated_Source\PSoC5/isr_UART_460800.c **** *   override any effect this API would have had. This API should only be called
 247:Generated_Source\PSoC5/isr_UART_460800.c **** *   after isr_UART_460800_Start or isr_UART_460800_StartEx has been called. 
 248:Generated_Source\PSoC5/isr_UART_460800.c **** *   To set the initial priority for the component, use the Design-Wide Resources
 249:Generated_Source\PSoC5/isr_UART_460800.c **** *   Interrupt Editor.
 250:Generated_Source\PSoC5/isr_UART_460800.c **** *
 251:Generated_Source\PSoC5/isr_UART_460800.c **** *   Note This API has no effect on Non-maskable interrupt NMI).
 252:Generated_Source\PSoC5/isr_UART_460800.c **** *
 253:Generated_Source\PSoC5/isr_UART_460800.c **** * Parameters:
 254:Generated_Source\PSoC5/isr_UART_460800.c **** *   priority: Priority of the interrupt, 0 being the highest priority
ARM GAS  C:\Users\MARTHN~1\AppData\Local\Temp\ccgnvOi5.s 			page 10


 255:Generated_Source\PSoC5/isr_UART_460800.c **** *             PSoC 3 and PSoC 5LP: Priority is from 0 to 7.
 256:Generated_Source\PSoC5/isr_UART_460800.c **** *             PSoC 4: Priority is from 0 to 3.
 257:Generated_Source\PSoC5/isr_UART_460800.c **** *
 258:Generated_Source\PSoC5/isr_UART_460800.c **** * Return:
 259:Generated_Source\PSoC5/isr_UART_460800.c **** *   None
 260:Generated_Source\PSoC5/isr_UART_460800.c **** *
 261:Generated_Source\PSoC5/isr_UART_460800.c **** *******************************************************************************/
 262:Generated_Source\PSoC5/isr_UART_460800.c **** void isr_UART_460800_SetPriority(uint8 priority)
 263:Generated_Source\PSoC5/isr_UART_460800.c **** {
 260              		.loc 1 263 0
 261              		.cfi_startproc
 262              		@ args = 0, pretend = 0, frame = 8
 263              		@ frame_needed = 1, uses_anonymous_args = 0
 264              		@ link register save eliminated.
 265 0000 80B4     		push	{r7}
 266              		.cfi_def_cfa_offset 4
 267              		.cfi_offset 7, -4
 268 0002 83B0     		sub	sp, sp, #12
 269              		.cfi_def_cfa_offset 16
 270 0004 00AF     		add	r7, sp, #0
 271              		.cfi_def_cfa_register 7
 272 0006 0346     		mov	r3, r0
 273 0008 FB71     		strb	r3, [r7, #7]
 264:Generated_Source\PSoC5/isr_UART_460800.c ****     *isr_UART_460800_INTC_PRIOR = priority << 5;
 274              		.loc 1 264 0
 275 000a 054A     		ldr	r2, .L17
 276 000c FB79     		ldrb	r3, [r7, #7]
 277 000e 5B01     		lsls	r3, r3, #5
 278 0010 DBB2     		uxtb	r3, r3
 279 0012 1370     		strb	r3, [r2]
 265:Generated_Source\PSoC5/isr_UART_460800.c **** }
 280              		.loc 1 265 0
 281 0014 00BF     		nop
 282 0016 0C37     		adds	r7, r7, #12
 283              		.cfi_def_cfa_offset 4
 284 0018 BD46     		mov	sp, r7
 285              		.cfi_def_cfa_register 13
 286              		@ sp needed
 287 001a 80BC     		pop	{r7}
 288              		.cfi_restore 7
 289              		.cfi_def_cfa_offset 0
 290 001c 7047     		bx	lr
 291              	.L18:
 292 001e 00BF     		.align	2
 293              	.L17:
 294 0020 08E400E0 		.word	-536812536
 295              		.cfi_endproc
 296              	.LFE69:
 297              		.size	isr_UART_460800_SetPriority, .-isr_UART_460800_SetPriority
 298              		.section	.text.isr_UART_460800_GetPriority,"ax",%progbits
 299              		.align	2
 300              		.global	isr_UART_460800_GetPriority
 301              		.thumb
 302              		.thumb_func
 303              		.type	isr_UART_460800_GetPriority, %function
 304              	isr_UART_460800_GetPriority:
 305              	.LFB70:
ARM GAS  C:\Users\MARTHN~1\AppData\Local\Temp\ccgnvOi5.s 			page 11


 266:Generated_Source\PSoC5/isr_UART_460800.c **** 
 267:Generated_Source\PSoC5/isr_UART_460800.c **** 
 268:Generated_Source\PSoC5/isr_UART_460800.c **** /*******************************************************************************
 269:Generated_Source\PSoC5/isr_UART_460800.c **** * Function Name: isr_UART_460800_GetPriority
 270:Generated_Source\PSoC5/isr_UART_460800.c **** ********************************************************************************
 271:Generated_Source\PSoC5/isr_UART_460800.c **** *
 272:Generated_Source\PSoC5/isr_UART_460800.c **** * Summary:
 273:Generated_Source\PSoC5/isr_UART_460800.c **** *   Gets the Priority of the Interrupt.
 274:Generated_Source\PSoC5/isr_UART_460800.c **** *
 275:Generated_Source\PSoC5/isr_UART_460800.c **** * Parameters:
 276:Generated_Source\PSoC5/isr_UART_460800.c **** *   None
 277:Generated_Source\PSoC5/isr_UART_460800.c **** *
 278:Generated_Source\PSoC5/isr_UART_460800.c **** * Return:
 279:Generated_Source\PSoC5/isr_UART_460800.c **** *   Priority of the interrupt, 0 being the highest priority
 280:Generated_Source\PSoC5/isr_UART_460800.c **** *    PSoC 3 and PSoC 5LP: Priority is from 0 to 7.
 281:Generated_Source\PSoC5/isr_UART_460800.c **** *    PSoC 4: Priority is from 0 to 3.
 282:Generated_Source\PSoC5/isr_UART_460800.c **** *
 283:Generated_Source\PSoC5/isr_UART_460800.c **** *******************************************************************************/
 284:Generated_Source\PSoC5/isr_UART_460800.c **** uint8 isr_UART_460800_GetPriority(void)
 285:Generated_Source\PSoC5/isr_UART_460800.c **** {
 306              		.loc 1 285 0
 307              		.cfi_startproc
 308              		@ args = 0, pretend = 0, frame = 8
 309              		@ frame_needed = 1, uses_anonymous_args = 0
 310              		@ link register save eliminated.
 311 0000 80B4     		push	{r7}
 312              		.cfi_def_cfa_offset 4
 313              		.cfi_offset 7, -4
 314 0002 83B0     		sub	sp, sp, #12
 315              		.cfi_def_cfa_offset 16
 316 0004 00AF     		add	r7, sp, #0
 317              		.cfi_def_cfa_register 7
 286:Generated_Source\PSoC5/isr_UART_460800.c ****     uint8 priority;
 287:Generated_Source\PSoC5/isr_UART_460800.c **** 
 288:Generated_Source\PSoC5/isr_UART_460800.c **** 
 289:Generated_Source\PSoC5/isr_UART_460800.c ****     priority = *isr_UART_460800_INTC_PRIOR >> 5;
 318              		.loc 1 289 0
 319 0006 054B     		ldr	r3, .L21
 320 0008 1B78     		ldrb	r3, [r3]
 321 000a DBB2     		uxtb	r3, r3
 322 000c 5B09     		lsrs	r3, r3, #5
 323 000e FB71     		strb	r3, [r7, #7]
 290:Generated_Source\PSoC5/isr_UART_460800.c **** 
 291:Generated_Source\PSoC5/isr_UART_460800.c ****     return priority;
 324              		.loc 1 291 0
 325 0010 FB79     		ldrb	r3, [r7, #7]	@ zero_extendqisi2
 292:Generated_Source\PSoC5/isr_UART_460800.c **** }
 326              		.loc 1 292 0
 327 0012 1846     		mov	r0, r3
 328 0014 0C37     		adds	r7, r7, #12
 329              		.cfi_def_cfa_offset 4
 330 0016 BD46     		mov	sp, r7
 331              		.cfi_def_cfa_register 13
 332              		@ sp needed
 333 0018 80BC     		pop	{r7}
 334              		.cfi_restore 7
 335              		.cfi_def_cfa_offset 0
ARM GAS  C:\Users\MARTHN~1\AppData\Local\Temp\ccgnvOi5.s 			page 12


 336 001a 7047     		bx	lr
 337              	.L22:
 338              		.align	2
 339              	.L21:
 340 001c 08E400E0 		.word	-536812536
 341              		.cfi_endproc
 342              	.LFE70:
 343              		.size	isr_UART_460800_GetPriority, .-isr_UART_460800_GetPriority
 344              		.section	.text.isr_UART_460800_Enable,"ax",%progbits
 345              		.align	2
 346              		.global	isr_UART_460800_Enable
 347              		.thumb
 348              		.thumb_func
 349              		.type	isr_UART_460800_Enable, %function
 350              	isr_UART_460800_Enable:
 351              	.LFB71:
 293:Generated_Source\PSoC5/isr_UART_460800.c **** 
 294:Generated_Source\PSoC5/isr_UART_460800.c **** 
 295:Generated_Source\PSoC5/isr_UART_460800.c **** /*******************************************************************************
 296:Generated_Source\PSoC5/isr_UART_460800.c **** * Function Name: isr_UART_460800_Enable
 297:Generated_Source\PSoC5/isr_UART_460800.c **** ********************************************************************************
 298:Generated_Source\PSoC5/isr_UART_460800.c **** *
 299:Generated_Source\PSoC5/isr_UART_460800.c **** * Summary:
 300:Generated_Source\PSoC5/isr_UART_460800.c **** *   Enables the interrupt to the interrupt controller. Do not call this function
 301:Generated_Source\PSoC5/isr_UART_460800.c **** *   unless ISR_Start() has been called or the functionality of the ISR_Start() 
 302:Generated_Source\PSoC5/isr_UART_460800.c **** *   function, which sets the vector and the priority, has been called.
 303:Generated_Source\PSoC5/isr_UART_460800.c **** *
 304:Generated_Source\PSoC5/isr_UART_460800.c **** * Parameters:
 305:Generated_Source\PSoC5/isr_UART_460800.c **** *   None
 306:Generated_Source\PSoC5/isr_UART_460800.c **** *
 307:Generated_Source\PSoC5/isr_UART_460800.c **** * Return:
 308:Generated_Source\PSoC5/isr_UART_460800.c **** *   None
 309:Generated_Source\PSoC5/isr_UART_460800.c **** *
 310:Generated_Source\PSoC5/isr_UART_460800.c **** *******************************************************************************/
 311:Generated_Source\PSoC5/isr_UART_460800.c **** void isr_UART_460800_Enable(void)
 312:Generated_Source\PSoC5/isr_UART_460800.c **** {
 352              		.loc 1 312 0
 353              		.cfi_startproc
 354              		@ args = 0, pretend = 0, frame = 0
 355              		@ frame_needed = 1, uses_anonymous_args = 0
 356              		@ link register save eliminated.
 357 0000 80B4     		push	{r7}
 358              		.cfi_def_cfa_offset 4
 359              		.cfi_offset 7, -4
 360 0002 00AF     		add	r7, sp, #0
 361              		.cfi_def_cfa_register 7
 313:Generated_Source\PSoC5/isr_UART_460800.c ****     /* Enable the general interrupt. */
 314:Generated_Source\PSoC5/isr_UART_460800.c ****     *isr_UART_460800_INTC_SET_EN = isr_UART_460800__INTC_MASK;
 362              		.loc 1 314 0
 363 0004 034B     		ldr	r3, .L24
 364 0006 4FF48072 		mov	r2, #256
 365 000a 1A60     		str	r2, [r3]
 315:Generated_Source\PSoC5/isr_UART_460800.c **** }
 366              		.loc 1 315 0
 367 000c 00BF     		nop
 368 000e BD46     		mov	sp, r7
 369              		.cfi_def_cfa_register 13
ARM GAS  C:\Users\MARTHN~1\AppData\Local\Temp\ccgnvOi5.s 			page 13


 370              		@ sp needed
 371 0010 80BC     		pop	{r7}
 372              		.cfi_restore 7
 373              		.cfi_def_cfa_offset 0
 374 0012 7047     		bx	lr
 375              	.L25:
 376              		.align	2
 377              	.L24:
 378 0014 00E100E0 		.word	-536813312
 379              		.cfi_endproc
 380              	.LFE71:
 381              		.size	isr_UART_460800_Enable, .-isr_UART_460800_Enable
 382              		.section	.text.isr_UART_460800_GetState,"ax",%progbits
 383              		.align	2
 384              		.global	isr_UART_460800_GetState
 385              		.thumb
 386              		.thumb_func
 387              		.type	isr_UART_460800_GetState, %function
 388              	isr_UART_460800_GetState:
 389              	.LFB72:
 316:Generated_Source\PSoC5/isr_UART_460800.c **** 
 317:Generated_Source\PSoC5/isr_UART_460800.c **** 
 318:Generated_Source\PSoC5/isr_UART_460800.c **** /*******************************************************************************
 319:Generated_Source\PSoC5/isr_UART_460800.c **** * Function Name: isr_UART_460800_GetState
 320:Generated_Source\PSoC5/isr_UART_460800.c **** ********************************************************************************
 321:Generated_Source\PSoC5/isr_UART_460800.c **** *
 322:Generated_Source\PSoC5/isr_UART_460800.c **** * Summary:
 323:Generated_Source\PSoC5/isr_UART_460800.c **** *   Gets the state (enabled, disabled) of the Interrupt.
 324:Generated_Source\PSoC5/isr_UART_460800.c **** *
 325:Generated_Source\PSoC5/isr_UART_460800.c **** * Parameters:
 326:Generated_Source\PSoC5/isr_UART_460800.c **** *   None
 327:Generated_Source\PSoC5/isr_UART_460800.c **** *
 328:Generated_Source\PSoC5/isr_UART_460800.c **** * Return:
 329:Generated_Source\PSoC5/isr_UART_460800.c **** *   1 if enabled, 0 if disabled.
 330:Generated_Source\PSoC5/isr_UART_460800.c **** *
 331:Generated_Source\PSoC5/isr_UART_460800.c **** *******************************************************************************/
 332:Generated_Source\PSoC5/isr_UART_460800.c **** uint8 isr_UART_460800_GetState(void)
 333:Generated_Source\PSoC5/isr_UART_460800.c **** {
 390              		.loc 1 333 0
 391              		.cfi_startproc
 392              		@ args = 0, pretend = 0, frame = 0
 393              		@ frame_needed = 1, uses_anonymous_args = 0
 394              		@ link register save eliminated.
 395 0000 80B4     		push	{r7}
 396              		.cfi_def_cfa_offset 4
 397              		.cfi_offset 7, -4
 398 0002 00AF     		add	r7, sp, #0
 399              		.cfi_def_cfa_register 7
 334:Generated_Source\PSoC5/isr_UART_460800.c ****     /* Get the state of the general interrupt. */
 335:Generated_Source\PSoC5/isr_UART_460800.c ****     return ((*isr_UART_460800_INTC_SET_EN & (uint32)isr_UART_460800__INTC_MASK) != 0u) ? 1u:0u;
 400              		.loc 1 335 0
 401 0004 064B     		ldr	r3, .L30
 402 0006 1B68     		ldr	r3, [r3]
 403 0008 03F48073 		and	r3, r3, #256
 404 000c 002B     		cmp	r3, #0
 405 000e 01D0     		beq	.L27
 406              		.loc 1 335 0 is_stmt 0 discriminator 1
ARM GAS  C:\Users\MARTHN~1\AppData\Local\Temp\ccgnvOi5.s 			page 14


 407 0010 0123     		movs	r3, #1
 408 0012 00E0     		b	.L28
 409              	.L27:
 410              		.loc 1 335 0 discriminator 2
 411 0014 0023     		movs	r3, #0
 412              	.L28:
 336:Generated_Source\PSoC5/isr_UART_460800.c **** }
 413              		.loc 1 336 0 is_stmt 1 discriminator 4
 414 0016 1846     		mov	r0, r3
 415 0018 BD46     		mov	sp, r7
 416              		.cfi_def_cfa_register 13
 417              		@ sp needed
 418 001a 80BC     		pop	{r7}
 419              		.cfi_restore 7
 420              		.cfi_def_cfa_offset 0
 421 001c 7047     		bx	lr
 422              	.L31:
 423 001e 00BF     		.align	2
 424              	.L30:
 425 0020 00E100E0 		.word	-536813312
 426              		.cfi_endproc
 427              	.LFE72:
 428              		.size	isr_UART_460800_GetState, .-isr_UART_460800_GetState
 429              		.section	.text.isr_UART_460800_Disable,"ax",%progbits
 430              		.align	2
 431              		.global	isr_UART_460800_Disable
 432              		.thumb
 433              		.thumb_func
 434              		.type	isr_UART_460800_Disable, %function
 435              	isr_UART_460800_Disable:
 436              	.LFB73:
 337:Generated_Source\PSoC5/isr_UART_460800.c **** 
 338:Generated_Source\PSoC5/isr_UART_460800.c **** 
 339:Generated_Source\PSoC5/isr_UART_460800.c **** /*******************************************************************************
 340:Generated_Source\PSoC5/isr_UART_460800.c **** * Function Name: isr_UART_460800_Disable
 341:Generated_Source\PSoC5/isr_UART_460800.c **** ********************************************************************************
 342:Generated_Source\PSoC5/isr_UART_460800.c **** *
 343:Generated_Source\PSoC5/isr_UART_460800.c **** * Summary:
 344:Generated_Source\PSoC5/isr_UART_460800.c **** *   Disables the Interrupt in the interrupt controller.
 345:Generated_Source\PSoC5/isr_UART_460800.c **** *
 346:Generated_Source\PSoC5/isr_UART_460800.c **** * Parameters:
 347:Generated_Source\PSoC5/isr_UART_460800.c **** *   None
 348:Generated_Source\PSoC5/isr_UART_460800.c **** *
 349:Generated_Source\PSoC5/isr_UART_460800.c **** * Return:
 350:Generated_Source\PSoC5/isr_UART_460800.c **** *   None
 351:Generated_Source\PSoC5/isr_UART_460800.c **** *
 352:Generated_Source\PSoC5/isr_UART_460800.c **** *******************************************************************************/
 353:Generated_Source\PSoC5/isr_UART_460800.c **** void isr_UART_460800_Disable(void)
 354:Generated_Source\PSoC5/isr_UART_460800.c **** {
 437              		.loc 1 354 0
 438              		.cfi_startproc
 439              		@ args = 0, pretend = 0, frame = 0
 440              		@ frame_needed = 1, uses_anonymous_args = 0
 441              		@ link register save eliminated.
 442 0000 80B4     		push	{r7}
 443              		.cfi_def_cfa_offset 4
 444              		.cfi_offset 7, -4
ARM GAS  C:\Users\MARTHN~1\AppData\Local\Temp\ccgnvOi5.s 			page 15


 445 0002 00AF     		add	r7, sp, #0
 446              		.cfi_def_cfa_register 7
 355:Generated_Source\PSoC5/isr_UART_460800.c ****     /* Disable the general interrupt. */
 356:Generated_Source\PSoC5/isr_UART_460800.c ****     *isr_UART_460800_INTC_CLR_EN = isr_UART_460800__INTC_MASK;
 447              		.loc 1 356 0
 448 0004 034B     		ldr	r3, .L33
 449 0006 4FF48072 		mov	r2, #256
 450 000a 1A60     		str	r2, [r3]
 357:Generated_Source\PSoC5/isr_UART_460800.c **** }
 451              		.loc 1 357 0
 452 000c 00BF     		nop
 453 000e BD46     		mov	sp, r7
 454              		.cfi_def_cfa_register 13
 455              		@ sp needed
 456 0010 80BC     		pop	{r7}
 457              		.cfi_restore 7
 458              		.cfi_def_cfa_offset 0
 459 0012 7047     		bx	lr
 460              	.L34:
 461              		.align	2
 462              	.L33:
 463 0014 80E100E0 		.word	-536813184
 464              		.cfi_endproc
 465              	.LFE73:
 466              		.size	isr_UART_460800_Disable, .-isr_UART_460800_Disable
 467              		.section	.text.isr_UART_460800_SetPending,"ax",%progbits
 468              		.align	2
 469              		.global	isr_UART_460800_SetPending
 470              		.thumb
 471              		.thumb_func
 472              		.type	isr_UART_460800_SetPending, %function
 473              	isr_UART_460800_SetPending:
 474              	.LFB74:
 358:Generated_Source\PSoC5/isr_UART_460800.c **** 
 359:Generated_Source\PSoC5/isr_UART_460800.c **** 
 360:Generated_Source\PSoC5/isr_UART_460800.c **** /*******************************************************************************
 361:Generated_Source\PSoC5/isr_UART_460800.c **** * Function Name: isr_UART_460800_SetPending
 362:Generated_Source\PSoC5/isr_UART_460800.c **** ********************************************************************************
 363:Generated_Source\PSoC5/isr_UART_460800.c **** *
 364:Generated_Source\PSoC5/isr_UART_460800.c **** * Summary:
 365:Generated_Source\PSoC5/isr_UART_460800.c **** *   Causes the Interrupt to enter the pending state, a software method of
 366:Generated_Source\PSoC5/isr_UART_460800.c **** *   generating the interrupt.
 367:Generated_Source\PSoC5/isr_UART_460800.c **** *
 368:Generated_Source\PSoC5/isr_UART_460800.c **** * Parameters:
 369:Generated_Source\PSoC5/isr_UART_460800.c **** *   None
 370:Generated_Source\PSoC5/isr_UART_460800.c **** *
 371:Generated_Source\PSoC5/isr_UART_460800.c **** * Return:
 372:Generated_Source\PSoC5/isr_UART_460800.c **** *   None
 373:Generated_Source\PSoC5/isr_UART_460800.c **** *
 374:Generated_Source\PSoC5/isr_UART_460800.c **** * Side Effects:
 375:Generated_Source\PSoC5/isr_UART_460800.c **** *   If interrupts are enabled and the interrupt is set up properly, the ISR is
 376:Generated_Source\PSoC5/isr_UART_460800.c **** *   entered (depending on the priority of this interrupt and other pending 
 377:Generated_Source\PSoC5/isr_UART_460800.c **** *   interrupts).
 378:Generated_Source\PSoC5/isr_UART_460800.c **** *
 379:Generated_Source\PSoC5/isr_UART_460800.c **** *******************************************************************************/
 380:Generated_Source\PSoC5/isr_UART_460800.c **** void isr_UART_460800_SetPending(void)
 381:Generated_Source\PSoC5/isr_UART_460800.c **** {
ARM GAS  C:\Users\MARTHN~1\AppData\Local\Temp\ccgnvOi5.s 			page 16


 475              		.loc 1 381 0
 476              		.cfi_startproc
 477              		@ args = 0, pretend = 0, frame = 0
 478              		@ frame_needed = 1, uses_anonymous_args = 0
 479              		@ link register save eliminated.
 480 0000 80B4     		push	{r7}
 481              		.cfi_def_cfa_offset 4
 482              		.cfi_offset 7, -4
 483 0002 00AF     		add	r7, sp, #0
 484              		.cfi_def_cfa_register 7
 382:Generated_Source\PSoC5/isr_UART_460800.c ****     *isr_UART_460800_INTC_SET_PD = isr_UART_460800__INTC_MASK;
 485              		.loc 1 382 0
 486 0004 034B     		ldr	r3, .L36
 487 0006 4FF48072 		mov	r2, #256
 488 000a 1A60     		str	r2, [r3]
 383:Generated_Source\PSoC5/isr_UART_460800.c **** }
 489              		.loc 1 383 0
 490 000c 00BF     		nop
 491 000e BD46     		mov	sp, r7
 492              		.cfi_def_cfa_register 13
 493              		@ sp needed
 494 0010 80BC     		pop	{r7}
 495              		.cfi_restore 7
 496              		.cfi_def_cfa_offset 0
 497 0012 7047     		bx	lr
 498              	.L37:
 499              		.align	2
 500              	.L36:
 501 0014 00E200E0 		.word	-536813056
 502              		.cfi_endproc
 503              	.LFE74:
 504              		.size	isr_UART_460800_SetPending, .-isr_UART_460800_SetPending
 505              		.section	.text.isr_UART_460800_ClearPending,"ax",%progbits
 506              		.align	2
 507              		.global	isr_UART_460800_ClearPending
 508              		.thumb
 509              		.thumb_func
 510              		.type	isr_UART_460800_ClearPending, %function
 511              	isr_UART_460800_ClearPending:
 512              	.LFB75:
 384:Generated_Source\PSoC5/isr_UART_460800.c **** 
 385:Generated_Source\PSoC5/isr_UART_460800.c **** 
 386:Generated_Source\PSoC5/isr_UART_460800.c **** /*******************************************************************************
 387:Generated_Source\PSoC5/isr_UART_460800.c **** * Function Name: isr_UART_460800_ClearPending
 388:Generated_Source\PSoC5/isr_UART_460800.c **** ********************************************************************************
 389:Generated_Source\PSoC5/isr_UART_460800.c **** *
 390:Generated_Source\PSoC5/isr_UART_460800.c **** * Summary:
 391:Generated_Source\PSoC5/isr_UART_460800.c **** *   Clears a pending interrupt in the interrupt controller.
 392:Generated_Source\PSoC5/isr_UART_460800.c **** *
 393:Generated_Source\PSoC5/isr_UART_460800.c **** *   Note Some interrupt sources are clear-on-read and require the block 
 394:Generated_Source\PSoC5/isr_UART_460800.c **** *   interrupt/status register to be read/cleared with the appropriate block API 
 395:Generated_Source\PSoC5/isr_UART_460800.c **** *   (GPIO, UART, and so on). Otherwise the ISR will continue to remain in 
 396:Generated_Source\PSoC5/isr_UART_460800.c **** *   pending state even though the interrupt itself is cleared using this API.
 397:Generated_Source\PSoC5/isr_UART_460800.c **** *
 398:Generated_Source\PSoC5/isr_UART_460800.c **** * Parameters:
 399:Generated_Source\PSoC5/isr_UART_460800.c **** *   None
 400:Generated_Source\PSoC5/isr_UART_460800.c **** *
ARM GAS  C:\Users\MARTHN~1\AppData\Local\Temp\ccgnvOi5.s 			page 17


 401:Generated_Source\PSoC5/isr_UART_460800.c **** * Return:
 402:Generated_Source\PSoC5/isr_UART_460800.c **** *   None
 403:Generated_Source\PSoC5/isr_UART_460800.c **** *
 404:Generated_Source\PSoC5/isr_UART_460800.c **** *******************************************************************************/
 405:Generated_Source\PSoC5/isr_UART_460800.c **** void isr_UART_460800_ClearPending(void)
 406:Generated_Source\PSoC5/isr_UART_460800.c **** {
 513              		.loc 1 406 0
 514              		.cfi_startproc
 515              		@ args = 0, pretend = 0, frame = 0
 516              		@ frame_needed = 1, uses_anonymous_args = 0
 517              		@ link register save eliminated.
 518 0000 80B4     		push	{r7}
 519              		.cfi_def_cfa_offset 4
 520              		.cfi_offset 7, -4
 521 0002 00AF     		add	r7, sp, #0
 522              		.cfi_def_cfa_register 7
 407:Generated_Source\PSoC5/isr_UART_460800.c ****     *isr_UART_460800_INTC_CLR_PD = isr_UART_460800__INTC_MASK;
 523              		.loc 1 407 0
 524 0004 034B     		ldr	r3, .L39
 525 0006 4FF48072 		mov	r2, #256
 526 000a 1A60     		str	r2, [r3]
 408:Generated_Source\PSoC5/isr_UART_460800.c **** }
 527              		.loc 1 408 0
 528 000c 00BF     		nop
 529 000e BD46     		mov	sp, r7
 530              		.cfi_def_cfa_register 13
 531              		@ sp needed
 532 0010 80BC     		pop	{r7}
 533              		.cfi_restore 7
 534              		.cfi_def_cfa_offset 0
 535 0012 7047     		bx	lr
 536              	.L40:
 537              		.align	2
 538              	.L39:
 539 0014 80E200E0 		.word	-536812928
 540              		.cfi_endproc
 541              	.LFE75:
 542              		.size	isr_UART_460800_ClearPending, .-isr_UART_460800_ClearPending
 543              		.text
 544              	.Letext0:
 545              		.file 2 "c:\\program files (x86)\\cypress\\psoc creator\\4.3\\psoc creator\\import\\gnu\\arm\\5.4.
 546              		.file 3 "c:\\program files (x86)\\cypress\\psoc creator\\4.3\\psoc creator\\import\\gnu\\arm\\5.4.
 547              		.file 4 "Generated_Source\\PSoC5/cytypes.h"
 548              		.file 5 "Generated_Source\\PSoC5/core_cm3.h"