ARM GAS  C:\Users\MARTHN~1\AppData\Local\Temp\ccfrtomi.s 			page 1


   1              		.syntax unified
   2              		.cpu cortex-m3
   3              		.fpu softvfp
   4              		.eabi_attribute 20, 1
   5              		.eabi_attribute 21, 1
   6              		.eabi_attribute 23, 3
   7              		.eabi_attribute 24, 1
   8              		.eabi_attribute 25, 1
   9              		.eabi_attribute 26, 1
  10              		.eabi_attribute 30, 6
  11              		.eabi_attribute 34, 1
  12              		.eabi_attribute 18, 4
  13              		.thumb
  14              		.syntax unified
  15              		.file	"isr_Timer_50ms.c"
  16              		.text
  17              	.Ltext0:
  18              		.cfi_sections	.debug_frame
  19              		.comm	Test,3,4
  20              		.comm	CurrentTest,3,4
  21              		.bss
  22              	blinkcounter:
  23 0000 00       		.space	1
  24              		.section	.text.isr_Timer_50ms_Start,"ax",%progbits
  25              		.align	2
  26              		.global	isr_Timer_50ms_Start
  27              		.thumb
  28              		.thumb_func
  29              		.type	isr_Timer_50ms_Start, %function
  30              	isr_Timer_50ms_Start:
  31              	.LFB63:
  32              		.file 1 "Generated_Source\\PSoC5\\isr_Timer_50ms.c"
   1:Generated_Source\PSoC5/isr_Timer_50ms.c **** /*******************************************************************************
   2:Generated_Source\PSoC5/isr_Timer_50ms.c **** * File Name: isr_Timer_50ms.c  
   3:Generated_Source\PSoC5/isr_Timer_50ms.c **** * Version 1.70
   4:Generated_Source\PSoC5/isr_Timer_50ms.c **** *
   5:Generated_Source\PSoC5/isr_Timer_50ms.c **** *  Description:
   6:Generated_Source\PSoC5/isr_Timer_50ms.c **** *   API for controlling the state of an interrupt.
   7:Generated_Source\PSoC5/isr_Timer_50ms.c **** *
   8:Generated_Source\PSoC5/isr_Timer_50ms.c **** *
   9:Generated_Source\PSoC5/isr_Timer_50ms.c **** *  Note:
  10:Generated_Source\PSoC5/isr_Timer_50ms.c **** *
  11:Generated_Source\PSoC5/isr_Timer_50ms.c **** ********************************************************************************
  12:Generated_Source\PSoC5/isr_Timer_50ms.c **** * Copyright 2008-2015, Cypress Semiconductor Corporation.  All rights reserved.
  13:Generated_Source\PSoC5/isr_Timer_50ms.c **** * You may use this file only in accordance with the license, terms, conditions, 
  14:Generated_Source\PSoC5/isr_Timer_50ms.c **** * disclaimers, and limitations in the end user license agreement accompanying 
  15:Generated_Source\PSoC5/isr_Timer_50ms.c **** * the software package with which this file was provided.
  16:Generated_Source\PSoC5/isr_Timer_50ms.c **** *******************************************************************************/
  17:Generated_Source\PSoC5/isr_Timer_50ms.c **** 
  18:Generated_Source\PSoC5/isr_Timer_50ms.c **** 
  19:Generated_Source\PSoC5/isr_Timer_50ms.c **** #include <cydevice_trm.h>
  20:Generated_Source\PSoC5/isr_Timer_50ms.c **** #include <CyLib.h>
  21:Generated_Source\PSoC5/isr_Timer_50ms.c **** #include <isr_Timer_50ms.h>
  22:Generated_Source\PSoC5/isr_Timer_50ms.c **** #include "cyapicallbacks.h"
  23:Generated_Source\PSoC5/isr_Timer_50ms.c **** 
  24:Generated_Source\PSoC5/isr_Timer_50ms.c **** #if !defined(isr_Timer_50ms__REMOVED) /* Check for removal by optimization */
  25:Generated_Source\PSoC5/isr_Timer_50ms.c **** 
ARM GAS  C:\Users\MARTHN~1\AppData\Local\Temp\ccfrtomi.s 			page 2


  26:Generated_Source\PSoC5/isr_Timer_50ms.c **** /*******************************************************************************
  27:Generated_Source\PSoC5/isr_Timer_50ms.c **** *  Place your includes, defines and code here 
  28:Generated_Source\PSoC5/isr_Timer_50ms.c **** ********************************************************************************/
  29:Generated_Source\PSoC5/isr_Timer_50ms.c **** /* `#START isr_Timer_50ms_intc` */
  30:Generated_Source\PSoC5/isr_Timer_50ms.c ****     
  31:Generated_Source\PSoC5/isr_Timer_50ms.c ****     #include "CommonVariables.h"
  32:Generated_Source\PSoC5/isr_Timer_50ms.c ****     //#include "UART_230400_Functions.h"
  33:Generated_Source\PSoC5/isr_Timer_50ms.c ****     #include "ControllerTest.h"
  34:Generated_Source\PSoC5/isr_Timer_50ms.c ****     #include "RelayTest.h"
  35:Generated_Source\PSoC5/isr_Timer_50ms.c ****     #include "SirenTest.h"
  36:Generated_Source\PSoC5/isr_Timer_50ms.c ****     
  37:Generated_Source\PSoC5/isr_Timer_50ms.c ****     #define BLINKTIME   2       // How many 50msec periods of on time
  38:Generated_Source\PSoC5/isr_Timer_50ms.c ****      
  39:Generated_Source\PSoC5/isr_Timer_50ms.c ****     //uint8 SelectedTest;
  40:Generated_Source\PSoC5/isr_Timer_50ms.c ****     //struct structTestInfo CurrentTest;
  41:Generated_Source\PSoC5/isr_Timer_50ms.c ****     
  42:Generated_Source\PSoC5/isr_Timer_50ms.c ****     StructTestInfo CurrentTest;
  43:Generated_Source\PSoC5/isr_Timer_50ms.c ****     
  44:Generated_Source\PSoC5/isr_Timer_50ms.c ****     static uint8 blinkcounter = 0;
  45:Generated_Source\PSoC5/isr_Timer_50ms.c ****     
  46:Generated_Source\PSoC5/isr_Timer_50ms.c ****     enum DataType
  47:Generated_Source\PSoC5/isr_Timer_50ms.c ****     { 
  48:Generated_Source\PSoC5/isr_Timer_50ms.c ****         CTEST, 
  49:Generated_Source\PSoC5/isr_Timer_50ms.c ****         RTEST,
  50:Generated_Source\PSoC5/isr_Timer_50ms.c ****         STEST
  51:Generated_Source\PSoC5/isr_Timer_50ms.c ****     };
  52:Generated_Source\PSoC5/isr_Timer_50ms.c **** 
  53:Generated_Source\PSoC5/isr_Timer_50ms.c **** /* `#END` */
  54:Generated_Source\PSoC5/isr_Timer_50ms.c **** 
  55:Generated_Source\PSoC5/isr_Timer_50ms.c **** #ifndef CYINT_IRQ_BASE
  56:Generated_Source\PSoC5/isr_Timer_50ms.c **** #define CYINT_IRQ_BASE      16
  57:Generated_Source\PSoC5/isr_Timer_50ms.c **** #endif /* CYINT_IRQ_BASE */
  58:Generated_Source\PSoC5/isr_Timer_50ms.c **** #ifndef CYINT_VECT_TABLE
  59:Generated_Source\PSoC5/isr_Timer_50ms.c **** #define CYINT_VECT_TABLE    ((cyisraddress **) CYREG_NVIC_VECT_OFFSET)
  60:Generated_Source\PSoC5/isr_Timer_50ms.c **** #endif /* CYINT_VECT_TABLE */
  61:Generated_Source\PSoC5/isr_Timer_50ms.c **** 
  62:Generated_Source\PSoC5/isr_Timer_50ms.c **** /* Declared in startup, used to set unused interrupts to. */
  63:Generated_Source\PSoC5/isr_Timer_50ms.c **** CY_ISR_PROTO(IntDefaultHandler);
  64:Generated_Source\PSoC5/isr_Timer_50ms.c **** 
  65:Generated_Source\PSoC5/isr_Timer_50ms.c **** 
  66:Generated_Source\PSoC5/isr_Timer_50ms.c **** /*******************************************************************************
  67:Generated_Source\PSoC5/isr_Timer_50ms.c **** * Function Name: isr_Timer_50ms_Start
  68:Generated_Source\PSoC5/isr_Timer_50ms.c **** ********************************************************************************
  69:Generated_Source\PSoC5/isr_Timer_50ms.c **** *
  70:Generated_Source\PSoC5/isr_Timer_50ms.c **** * Summary:
  71:Generated_Source\PSoC5/isr_Timer_50ms.c **** *  Set up the interrupt and enable it. This function disables the interrupt, 
  72:Generated_Source\PSoC5/isr_Timer_50ms.c **** *  sets the default interrupt vector, sets the priority from the value in the
  73:Generated_Source\PSoC5/isr_Timer_50ms.c **** *  Design Wide Resources Interrupt Editor, then enables the interrupt to the 
  74:Generated_Source\PSoC5/isr_Timer_50ms.c **** *  interrupt controller.
  75:Generated_Source\PSoC5/isr_Timer_50ms.c **** *
  76:Generated_Source\PSoC5/isr_Timer_50ms.c **** * Parameters:  
  77:Generated_Source\PSoC5/isr_Timer_50ms.c **** *   None
  78:Generated_Source\PSoC5/isr_Timer_50ms.c **** *
  79:Generated_Source\PSoC5/isr_Timer_50ms.c **** * Return:
  80:Generated_Source\PSoC5/isr_Timer_50ms.c **** *   None
  81:Generated_Source\PSoC5/isr_Timer_50ms.c **** *
  82:Generated_Source\PSoC5/isr_Timer_50ms.c **** *******************************************************************************/
ARM GAS  C:\Users\MARTHN~1\AppData\Local\Temp\ccfrtomi.s 			page 3


  83:Generated_Source\PSoC5/isr_Timer_50ms.c **** void isr_Timer_50ms_Start(void)
  84:Generated_Source\PSoC5/isr_Timer_50ms.c **** {
  33              		.loc 1 84 0
  34              		.cfi_startproc
  35              		@ args = 0, pretend = 0, frame = 0
  36              		@ frame_needed = 1, uses_anonymous_args = 0
  37 0000 80B5     		push	{r7, lr}
  38              		.cfi_def_cfa_offset 8
  39              		.cfi_offset 7, -8
  40              		.cfi_offset 14, -4
  41 0002 00AF     		add	r7, sp, #0
  42              		.cfi_def_cfa_register 7
  85:Generated_Source\PSoC5/isr_Timer_50ms.c ****     /* For all we know the interrupt is active. */
  86:Generated_Source\PSoC5/isr_Timer_50ms.c ****     isr_Timer_50ms_Disable();
  43              		.loc 1 86 0
  44 0004 FFF7FEFF 		bl	isr_Timer_50ms_Disable
  87:Generated_Source\PSoC5/isr_Timer_50ms.c **** 
  88:Generated_Source\PSoC5/isr_Timer_50ms.c ****     /* Set the ISR to point to the isr_Timer_50ms Interrupt. */
  89:Generated_Source\PSoC5/isr_Timer_50ms.c ****     isr_Timer_50ms_SetVector(&isr_Timer_50ms_Interrupt);
  45              		.loc 1 89 0
  46 0008 0448     		ldr	r0, .L2
  47 000a FFF7FEFF 		bl	isr_Timer_50ms_SetVector
  90:Generated_Source\PSoC5/isr_Timer_50ms.c **** 
  91:Generated_Source\PSoC5/isr_Timer_50ms.c ****     /* Set the priority. */
  92:Generated_Source\PSoC5/isr_Timer_50ms.c ****     isr_Timer_50ms_SetPriority((uint8)isr_Timer_50ms_INTC_PRIOR_NUMBER);
  48              		.loc 1 92 0
  49 000e 0720     		movs	r0, #7
  50 0010 FFF7FEFF 		bl	isr_Timer_50ms_SetPriority
  93:Generated_Source\PSoC5/isr_Timer_50ms.c **** 
  94:Generated_Source\PSoC5/isr_Timer_50ms.c ****     /* Enable it. */
  95:Generated_Source\PSoC5/isr_Timer_50ms.c ****     isr_Timer_50ms_Enable();
  51              		.loc 1 95 0
  52 0014 FFF7FEFF 		bl	isr_Timer_50ms_Enable
  96:Generated_Source\PSoC5/isr_Timer_50ms.c **** }
  53              		.loc 1 96 0
  54 0018 00BF     		nop
  55 001a 80BD     		pop	{r7, pc}
  56              	.L3:
  57              		.align	2
  58              	.L2:
  59 001c 00000000 		.word	isr_Timer_50ms_Interrupt
  60              		.cfi_endproc
  61              	.LFE63:
  62              		.size	isr_Timer_50ms_Start, .-isr_Timer_50ms_Start
  63              		.section	.text.isr_Timer_50ms_StartEx,"ax",%progbits
  64              		.align	2
  65              		.global	isr_Timer_50ms_StartEx
  66              		.thumb
  67              		.thumb_func
  68              		.type	isr_Timer_50ms_StartEx, %function
  69              	isr_Timer_50ms_StartEx:
  70              	.LFB64:
  97:Generated_Source\PSoC5/isr_Timer_50ms.c **** 
  98:Generated_Source\PSoC5/isr_Timer_50ms.c **** 
  99:Generated_Source\PSoC5/isr_Timer_50ms.c **** /*******************************************************************************
 100:Generated_Source\PSoC5/isr_Timer_50ms.c **** * Function Name: isr_Timer_50ms_StartEx
 101:Generated_Source\PSoC5/isr_Timer_50ms.c **** ********************************************************************************
ARM GAS  C:\Users\MARTHN~1\AppData\Local\Temp\ccfrtomi.s 			page 4


 102:Generated_Source\PSoC5/isr_Timer_50ms.c **** *
 103:Generated_Source\PSoC5/isr_Timer_50ms.c **** * Summary:
 104:Generated_Source\PSoC5/isr_Timer_50ms.c **** *  Sets up the interrupt and enables it. This function disables the interrupt,
 105:Generated_Source\PSoC5/isr_Timer_50ms.c **** *  sets the interrupt vector based on the address passed in, sets the priority 
 106:Generated_Source\PSoC5/isr_Timer_50ms.c **** *  from the value in the Design Wide Resources Interrupt Editor, then enables 
 107:Generated_Source\PSoC5/isr_Timer_50ms.c **** *  the interrupt to the interrupt controller.
 108:Generated_Source\PSoC5/isr_Timer_50ms.c **** *  
 109:Generated_Source\PSoC5/isr_Timer_50ms.c **** *  When defining ISR functions, the CY_ISR and CY_ISR_PROTO macros should be 
 110:Generated_Source\PSoC5/isr_Timer_50ms.c **** *  used to provide consistent definition across compilers:
 111:Generated_Source\PSoC5/isr_Timer_50ms.c **** *  
 112:Generated_Source\PSoC5/isr_Timer_50ms.c **** *  Function definition example:
 113:Generated_Source\PSoC5/isr_Timer_50ms.c **** *   CY_ISR(MyISR)
 114:Generated_Source\PSoC5/isr_Timer_50ms.c **** *   {
 115:Generated_Source\PSoC5/isr_Timer_50ms.c **** *   }
 116:Generated_Source\PSoC5/isr_Timer_50ms.c **** *   Function prototype example:
 117:Generated_Source\PSoC5/isr_Timer_50ms.c **** *   CY_ISR_PROTO(MyISR);
 118:Generated_Source\PSoC5/isr_Timer_50ms.c **** *
 119:Generated_Source\PSoC5/isr_Timer_50ms.c **** * Parameters:  
 120:Generated_Source\PSoC5/isr_Timer_50ms.c **** *   address: Address of the ISR to set in the interrupt vector table.
 121:Generated_Source\PSoC5/isr_Timer_50ms.c **** *
 122:Generated_Source\PSoC5/isr_Timer_50ms.c **** * Return:
 123:Generated_Source\PSoC5/isr_Timer_50ms.c **** *   None
 124:Generated_Source\PSoC5/isr_Timer_50ms.c **** *
 125:Generated_Source\PSoC5/isr_Timer_50ms.c **** *******************************************************************************/
 126:Generated_Source\PSoC5/isr_Timer_50ms.c **** void isr_Timer_50ms_StartEx(cyisraddress address)
 127:Generated_Source\PSoC5/isr_Timer_50ms.c **** {
  71              		.loc 1 127 0
  72              		.cfi_startproc
  73              		@ args = 0, pretend = 0, frame = 8
  74              		@ frame_needed = 1, uses_anonymous_args = 0
  75 0000 80B5     		push	{r7, lr}
  76              		.cfi_def_cfa_offset 8
  77              		.cfi_offset 7, -8
  78              		.cfi_offset 14, -4
  79 0002 82B0     		sub	sp, sp, #8
  80              		.cfi_def_cfa_offset 16
  81 0004 00AF     		add	r7, sp, #0
  82              		.cfi_def_cfa_register 7
  83 0006 7860     		str	r0, [r7, #4]
 128:Generated_Source\PSoC5/isr_Timer_50ms.c ****     /* For all we know the interrupt is active. */
 129:Generated_Source\PSoC5/isr_Timer_50ms.c ****     isr_Timer_50ms_Disable();
  84              		.loc 1 129 0
  85 0008 FFF7FEFF 		bl	isr_Timer_50ms_Disable
 130:Generated_Source\PSoC5/isr_Timer_50ms.c **** 
 131:Generated_Source\PSoC5/isr_Timer_50ms.c ****     /* Set the ISR to point to the isr_Timer_50ms Interrupt. */
 132:Generated_Source\PSoC5/isr_Timer_50ms.c ****     isr_Timer_50ms_SetVector(address);
  86              		.loc 1 132 0
  87 000c 7868     		ldr	r0, [r7, #4]
  88 000e FFF7FEFF 		bl	isr_Timer_50ms_SetVector
 133:Generated_Source\PSoC5/isr_Timer_50ms.c **** 
 134:Generated_Source\PSoC5/isr_Timer_50ms.c ****     /* Set the priority. */
 135:Generated_Source\PSoC5/isr_Timer_50ms.c ****     isr_Timer_50ms_SetPriority((uint8)isr_Timer_50ms_INTC_PRIOR_NUMBER);
  89              		.loc 1 135 0
  90 0012 0720     		movs	r0, #7
  91 0014 FFF7FEFF 		bl	isr_Timer_50ms_SetPriority
 136:Generated_Source\PSoC5/isr_Timer_50ms.c **** 
 137:Generated_Source\PSoC5/isr_Timer_50ms.c ****     /* Enable it. */
ARM GAS  C:\Users\MARTHN~1\AppData\Local\Temp\ccfrtomi.s 			page 5


 138:Generated_Source\PSoC5/isr_Timer_50ms.c ****     isr_Timer_50ms_Enable();
  92              		.loc 1 138 0
  93 0018 FFF7FEFF 		bl	isr_Timer_50ms_Enable
 139:Generated_Source\PSoC5/isr_Timer_50ms.c **** }
  94              		.loc 1 139 0
  95 001c 00BF     		nop
  96 001e 0837     		adds	r7, r7, #8
  97              		.cfi_def_cfa_offset 8
  98 0020 BD46     		mov	sp, r7
  99              		.cfi_def_cfa_register 13
 100              		@ sp needed
 101 0022 80BD     		pop	{r7, pc}
 102              		.cfi_endproc
 103              	.LFE64:
 104              		.size	isr_Timer_50ms_StartEx, .-isr_Timer_50ms_StartEx
 105              		.section	.text.isr_Timer_50ms_Stop,"ax",%progbits
 106              		.align	2
 107              		.global	isr_Timer_50ms_Stop
 108              		.thumb
 109              		.thumb_func
 110              		.type	isr_Timer_50ms_Stop, %function
 111              	isr_Timer_50ms_Stop:
 112              	.LFB65:
 140:Generated_Source\PSoC5/isr_Timer_50ms.c **** 
 141:Generated_Source\PSoC5/isr_Timer_50ms.c **** 
 142:Generated_Source\PSoC5/isr_Timer_50ms.c **** /*******************************************************************************
 143:Generated_Source\PSoC5/isr_Timer_50ms.c **** * Function Name: isr_Timer_50ms_Stop
 144:Generated_Source\PSoC5/isr_Timer_50ms.c **** ********************************************************************************
 145:Generated_Source\PSoC5/isr_Timer_50ms.c **** *
 146:Generated_Source\PSoC5/isr_Timer_50ms.c **** * Summary:
 147:Generated_Source\PSoC5/isr_Timer_50ms.c **** *   Disables and removes the interrupt.
 148:Generated_Source\PSoC5/isr_Timer_50ms.c **** *
 149:Generated_Source\PSoC5/isr_Timer_50ms.c **** * Parameters:  
 150:Generated_Source\PSoC5/isr_Timer_50ms.c **** *   None
 151:Generated_Source\PSoC5/isr_Timer_50ms.c **** *
 152:Generated_Source\PSoC5/isr_Timer_50ms.c **** * Return:
 153:Generated_Source\PSoC5/isr_Timer_50ms.c **** *   None
 154:Generated_Source\PSoC5/isr_Timer_50ms.c **** *
 155:Generated_Source\PSoC5/isr_Timer_50ms.c **** *******************************************************************************/
 156:Generated_Source\PSoC5/isr_Timer_50ms.c **** void isr_Timer_50ms_Stop(void)
 157:Generated_Source\PSoC5/isr_Timer_50ms.c **** {
 113              		.loc 1 157 0
 114              		.cfi_startproc
 115              		@ args = 0, pretend = 0, frame = 0
 116              		@ frame_needed = 1, uses_anonymous_args = 0
 117 0000 80B5     		push	{r7, lr}
 118              		.cfi_def_cfa_offset 8
 119              		.cfi_offset 7, -8
 120              		.cfi_offset 14, -4
 121 0002 00AF     		add	r7, sp, #0
 122              		.cfi_def_cfa_register 7
 158:Generated_Source\PSoC5/isr_Timer_50ms.c ****     /* Disable this interrupt. */
 159:Generated_Source\PSoC5/isr_Timer_50ms.c ****     isr_Timer_50ms_Disable();
 123              		.loc 1 159 0
 124 0004 FFF7FEFF 		bl	isr_Timer_50ms_Disable
 160:Generated_Source\PSoC5/isr_Timer_50ms.c **** 
 161:Generated_Source\PSoC5/isr_Timer_50ms.c ****     /* Set the ISR to point to the passive one. */
ARM GAS  C:\Users\MARTHN~1\AppData\Local\Temp\ccfrtomi.s 			page 6


 162:Generated_Source\PSoC5/isr_Timer_50ms.c ****     isr_Timer_50ms_SetVector(&IntDefaultHandler);
 125              		.loc 1 162 0
 126 0008 0248     		ldr	r0, .L6
 127 000a FFF7FEFF 		bl	isr_Timer_50ms_SetVector
 163:Generated_Source\PSoC5/isr_Timer_50ms.c **** }
 128              		.loc 1 163 0
 129 000e 00BF     		nop
 130 0010 80BD     		pop	{r7, pc}
 131              	.L7:
 132 0012 00BF     		.align	2
 133              	.L6:
 134 0014 00000000 		.word	IntDefaultHandler
 135              		.cfi_endproc
 136              	.LFE65:
 137              		.size	isr_Timer_50ms_Stop, .-isr_Timer_50ms_Stop
 138              		.section	.text.isr_Timer_50ms_Interrupt,"ax",%progbits
 139              		.align	2
 140              		.global	isr_Timer_50ms_Interrupt
 141              		.thumb
 142              		.thumb_func
 143              		.type	isr_Timer_50ms_Interrupt, %function
 144              	isr_Timer_50ms_Interrupt:
 145              	.LFB66:
 164:Generated_Source\PSoC5/isr_Timer_50ms.c **** 
 165:Generated_Source\PSoC5/isr_Timer_50ms.c **** 
 166:Generated_Source\PSoC5/isr_Timer_50ms.c **** /*******************************************************************************
 167:Generated_Source\PSoC5/isr_Timer_50ms.c **** * Function Name: isr_Timer_50ms_Interrupt
 168:Generated_Source\PSoC5/isr_Timer_50ms.c **** ********************************************************************************
 169:Generated_Source\PSoC5/isr_Timer_50ms.c **** *
 170:Generated_Source\PSoC5/isr_Timer_50ms.c **** * Summary:
 171:Generated_Source\PSoC5/isr_Timer_50ms.c **** *   The default Interrupt Service Routine for isr_Timer_50ms.
 172:Generated_Source\PSoC5/isr_Timer_50ms.c **** *
 173:Generated_Source\PSoC5/isr_Timer_50ms.c **** *   Add custom code between the coments to keep the next version of this file
 174:Generated_Source\PSoC5/isr_Timer_50ms.c **** *   from over writting your code.
 175:Generated_Source\PSoC5/isr_Timer_50ms.c **** *
 176:Generated_Source\PSoC5/isr_Timer_50ms.c **** * Parameters:  
 177:Generated_Source\PSoC5/isr_Timer_50ms.c **** *
 178:Generated_Source\PSoC5/isr_Timer_50ms.c **** * Return:
 179:Generated_Source\PSoC5/isr_Timer_50ms.c **** *   None
 180:Generated_Source\PSoC5/isr_Timer_50ms.c **** *
 181:Generated_Source\PSoC5/isr_Timer_50ms.c **** *******************************************************************************/
 182:Generated_Source\PSoC5/isr_Timer_50ms.c **** CY_ISR(isr_Timer_50ms_Interrupt)
 183:Generated_Source\PSoC5/isr_Timer_50ms.c **** {
 146              		.loc 1 183 0
 147              		.cfi_startproc
 148              		@ args = 0, pretend = 0, frame = 0
 149              		@ frame_needed = 1, uses_anonymous_args = 0
 150 0000 80B5     		push	{r7, lr}
 151              		.cfi_def_cfa_offset 8
 152              		.cfi_offset 7, -8
 153              		.cfi_offset 14, -4
 154 0002 00AF     		add	r7, sp, #0
 155              		.cfi_def_cfa_register 7
 184:Generated_Source\PSoC5/isr_Timer_50ms.c ****     #ifdef isr_Timer_50ms_INTERRUPT_INTERRUPT_CALLBACK
 185:Generated_Source\PSoC5/isr_Timer_50ms.c ****         isr_Timer_50ms_Interrupt_InterruptCallback();
 186:Generated_Source\PSoC5/isr_Timer_50ms.c ****     #endif /* isr_Timer_50ms_INTERRUPT_INTERRUPT_CALLBACK */ 
 187:Generated_Source\PSoC5/isr_Timer_50ms.c **** 
ARM GAS  C:\Users\MARTHN~1\AppData\Local\Temp\ccfrtomi.s 			page 7


 188:Generated_Source\PSoC5/isr_Timer_50ms.c ****     /*  Place your Interrupt code here. */
 189:Generated_Source\PSoC5/isr_Timer_50ms.c ****     /* `#START isr_Timer_50ms_Interrupt` */
 190:Generated_Source\PSoC5/isr_Timer_50ms.c ****     
 191:Generated_Source\PSoC5/isr_Timer_50ms.c ****     blinkcounter++;
 156              		.loc 1 191 0
 157 0004 A04B     		ldr	r3, .L41
 158 0006 1B78     		ldrb	r3, [r3]	@ zero_extendqisi2
 159 0008 0133     		adds	r3, r3, #1
 160 000a DAB2     		uxtb	r2, r3
 161 000c 9E4B     		ldr	r3, .L41
 162 000e 1A70     		strb	r2, [r3]
 192:Generated_Source\PSoC5/isr_Timer_50ms.c ****         
 193:Generated_Source\PSoC5/isr_Timer_50ms.c ****     if(CurrentTest.SelectedTest == 0)
 163              		.loc 1 193 0
 164 0010 9E4B     		ldr	r3, .L41+4
 165 0012 1B78     		ldrb	r3, [r3]	@ zero_extendqisi2
 166 0014 002B     		cmp	r3, #0
 167 0016 02D1     		bne	.L9
 194:Generated_Source\PSoC5/isr_Timer_50ms.c ****         CTest_50ms_isr();
 168              		.loc 1 194 0
 169 0018 FFF7FEFF 		bl	CTest_50ms_isr
 170 001c 0CE0     		b	.L10
 171              	.L9:
 195:Generated_Source\PSoC5/isr_Timer_50ms.c ****     else if(CurrentTest.SelectedTest == 1)
 172              		.loc 1 195 0
 173 001e 9B4B     		ldr	r3, .L41+4
 174 0020 1B78     		ldrb	r3, [r3]	@ zero_extendqisi2
 175 0022 012B     		cmp	r3, #1
 176 0024 02D1     		bne	.L11
 196:Generated_Source\PSoC5/isr_Timer_50ms.c ****         RTest_50ms_isr();
 177              		.loc 1 196 0
 178 0026 FFF7FEFF 		bl	RTest_50ms_isr
 179 002a 05E0     		b	.L10
 180              	.L11:
 197:Generated_Source\PSoC5/isr_Timer_50ms.c ****     else if(CurrentTest.SelectedTest == 2)
 181              		.loc 1 197 0
 182 002c 974B     		ldr	r3, .L41+4
 183 002e 1B78     		ldrb	r3, [r3]	@ zero_extendqisi2
 184 0030 022B     		cmp	r3, #2
 185 0032 01D1     		bne	.L10
 198:Generated_Source\PSoC5/isr_Timer_50ms.c ****         STest_50ms_isr();
 186              		.loc 1 198 0
 187 0034 FFF7FEFF 		bl	STest_50ms_isr
 188              	.L10:
 199:Generated_Source\PSoC5/isr_Timer_50ms.c ****         
 200:Generated_Source\PSoC5/isr_Timer_50ms.c ****         
 201:Generated_Source\PSoC5/isr_Timer_50ms.c **** //    LED1_Write(0);  // Red
 202:Generated_Source\PSoC5/isr_Timer_50ms.c **** //    LED2_Write(0);  // Amber
 203:Generated_Source\PSoC5/isr_Timer_50ms.c **** //    LED3_Write(1);  // Green
 204:Generated_Source\PSoC5/isr_Timer_50ms.c ****     
 205:Generated_Source\PSoC5/isr_Timer_50ms.c ****     // *** Add LED stuff here
 206:Generated_Source\PSoC5/isr_Timer_50ms.c ****     if( (CurrentTest.Status == 'I') || (CurrentTest.Status == 'B') || (CurrentTest.Status == 'U') )
 189              		.loc 1 206 0
 190 0038 944B     		ldr	r3, .L41+4
 191 003a 9B78     		ldrb	r3, [r3, #2]	@ zero_extendqisi2
 192 003c 492B     		cmp	r3, #73
 193 003e 07D0     		beq	.L12
ARM GAS  C:\Users\MARTHN~1\AppData\Local\Temp\ccfrtomi.s 			page 8


 194              		.loc 1 206 0 is_stmt 0 discriminator 1
 195 0040 924B     		ldr	r3, .L41+4
 196 0042 9B78     		ldrb	r3, [r3, #2]	@ zero_extendqisi2
 197 0044 422B     		cmp	r3, #66
 198 0046 03D0     		beq	.L12
 199              		.loc 1 206 0 discriminator 2
 200 0048 904B     		ldr	r3, .L41+4
 201 004a 9B78     		ldrb	r3, [r3, #2]	@ zero_extendqisi2
 202 004c 552B     		cmp	r3, #85
 203 004e 09D1     		bne	.L13
 204              	.L12:
 207:Generated_Source\PSoC5/isr_Timer_50ms.c ****     {
 208:Generated_Source\PSoC5/isr_Timer_50ms.c ****         LED1_Write(0);
 205              		.loc 1 208 0 is_stmt 1
 206 0050 0020     		movs	r0, #0
 207 0052 FFF7FEFF 		bl	LED1_Write
 209:Generated_Source\PSoC5/isr_Timer_50ms.c ****         LED2_Write(1);
 208              		.loc 1 209 0
 209 0056 0120     		movs	r0, #1
 210 0058 FFF7FEFF 		bl	LED2_Write
 210:Generated_Source\PSoC5/isr_Timer_50ms.c ****         LED3_Write(0); 
 211              		.loc 1 210 0
 212 005c 0020     		movs	r0, #0
 213 005e FFF7FEFF 		bl	LED3_Write
 214 0062 08E1     		b	.L14
 215              	.L13:
 211:Generated_Source\PSoC5/isr_Timer_50ms.c ****     }
 212:Generated_Source\PSoC5/isr_Timer_50ms.c ****     else if(CurrentTest.Status == 'W')
 216              		.loc 1 212 0
 217 0064 894B     		ldr	r3, .L41+4
 218 0066 9B78     		ldrb	r3, [r3, #2]	@ zero_extendqisi2
 219 0068 572B     		cmp	r3, #87
 220 006a 28D1     		bne	.L15
 213:Generated_Source\PSoC5/isr_Timer_50ms.c ****     {
 214:Generated_Source\PSoC5/isr_Timer_50ms.c ****         if(blinkcounter < BLINKTIME)
 221              		.loc 1 214 0
 222 006c 864B     		ldr	r3, .L41
 223 006e 1B78     		ldrb	r3, [r3]	@ zero_extendqisi2
 224 0070 012B     		cmp	r3, #1
 225 0072 09D8     		bhi	.L16
 215:Generated_Source\PSoC5/isr_Timer_50ms.c ****         {
 216:Generated_Source\PSoC5/isr_Timer_50ms.c ****             LED1_Write(0);
 226              		.loc 1 216 0
 227 0074 0020     		movs	r0, #0
 228 0076 FFF7FEFF 		bl	LED1_Write
 217:Generated_Source\PSoC5/isr_Timer_50ms.c ****             LED2_Write(1); 
 229              		.loc 1 217 0
 230 007a 0120     		movs	r0, #1
 231 007c FFF7FEFF 		bl	LED2_Write
 218:Generated_Source\PSoC5/isr_Timer_50ms.c ****             LED3_Write(0); 
 232              		.loc 1 218 0
 233 0080 0020     		movs	r0, #0
 234 0082 FFF7FEFF 		bl	LED3_Write
 235 0086 F6E0     		b	.L14
 236              	.L16:
 219:Generated_Source\PSoC5/isr_Timer_50ms.c ****         }
 220:Generated_Source\PSoC5/isr_Timer_50ms.c ****         else if( ( blinkcounter > BLINKTIME) && (blinkcounter < (2*BLINKTIME) ) )
ARM GAS  C:\Users\MARTHN~1\AppData\Local\Temp\ccfrtomi.s 			page 9


 237              		.loc 1 220 0
 238 0088 7F4B     		ldr	r3, .L41
 239 008a 1B78     		ldrb	r3, [r3]	@ zero_extendqisi2
 240 008c 022B     		cmp	r3, #2
 241 008e 0DD9     		bls	.L18
 242              		.loc 1 220 0 is_stmt 0 discriminator 1
 243 0090 7D4B     		ldr	r3, .L41
 244 0092 1B78     		ldrb	r3, [r3]	@ zero_extendqisi2
 245 0094 032B     		cmp	r3, #3
 246 0096 09D8     		bhi	.L18
 221:Generated_Source\PSoC5/isr_Timer_50ms.c ****         {
 222:Generated_Source\PSoC5/isr_Timer_50ms.c ****             LED1_Write(0);
 247              		.loc 1 222 0 is_stmt 1
 248 0098 0020     		movs	r0, #0
 249 009a FFF7FEFF 		bl	LED1_Write
 223:Generated_Source\PSoC5/isr_Timer_50ms.c ****             LED2_Write(0); 
 250              		.loc 1 223 0
 251 009e 0020     		movs	r0, #0
 252 00a0 FFF7FEFF 		bl	LED2_Write
 224:Generated_Source\PSoC5/isr_Timer_50ms.c ****             LED3_Write(0); 
 253              		.loc 1 224 0
 254 00a4 0020     		movs	r0, #0
 255 00a6 FFF7FEFF 		bl	LED3_Write
 256 00aa E4E0     		b	.L14
 257              	.L18:
 225:Generated_Source\PSoC5/isr_Timer_50ms.c ****         }
 226:Generated_Source\PSoC5/isr_Timer_50ms.c ****         else if( blinkcounter > (2*BLINKTIME) )
 258              		.loc 1 226 0
 259 00ac 764B     		ldr	r3, .L41
 260 00ae 1B78     		ldrb	r3, [r3]	@ zero_extendqisi2
 261 00b0 042B     		cmp	r3, #4
 262 00b2 40F2E080 		bls	.L14
 227:Generated_Source\PSoC5/isr_Timer_50ms.c ****         {
 228:Generated_Source\PSoC5/isr_Timer_50ms.c ****             blinkcounter = 0;
 263              		.loc 1 228 0
 264 00b6 744B     		ldr	r3, .L41
 265 00b8 0022     		movs	r2, #0
 266 00ba 1A70     		strb	r2, [r3]
 267 00bc DBE0     		b	.L14
 268              	.L15:
 229:Generated_Source\PSoC5/isr_Timer_50ms.c ****         }
 230:Generated_Source\PSoC5/isr_Timer_50ms.c ****     }
 231:Generated_Source\PSoC5/isr_Timer_50ms.c ****     else if(CurrentTest.Status == 'P')
 269              		.loc 1 231 0
 270 00be 734B     		ldr	r3, .L41+4
 271 00c0 9B78     		ldrb	r3, [r3, #2]	@ zero_extendqisi2
 272 00c2 502B     		cmp	r3, #80
 273 00c4 3AD1     		bne	.L19
 232:Generated_Source\PSoC5/isr_Timer_50ms.c ****     {
 233:Generated_Source\PSoC5/isr_Timer_50ms.c ****         if( (CurrentTest.SelectedTest == RTEST) && (CurrentTest.TestStep == 10) )           // If l
 274              		.loc 1 233 0
 275 00c6 714B     		ldr	r3, .L41+4
 276 00c8 1B78     		ldrb	r3, [r3]	@ zero_extendqisi2
 277 00ca 012B     		cmp	r3, #1
 278 00cc 2CD1     		bne	.L20
 279              		.loc 1 233 0 is_stmt 0 discriminator 1
 280 00ce 6F4B     		ldr	r3, .L41+4
ARM GAS  C:\Users\MARTHN~1\AppData\Local\Temp\ccfrtomi.s 			page 10


 281 00d0 5B78     		ldrb	r3, [r3, #1]	@ zero_extendqisi2
 282 00d2 0A2B     		cmp	r3, #10
 283 00d4 28D1     		bne	.L20
 234:Generated_Source\PSoC5/isr_Timer_50ms.c ****         {
 235:Generated_Source\PSoC5/isr_Timer_50ms.c ****             if(blinkcounter < BLINKTIME)
 284              		.loc 1 235 0 is_stmt 1
 285 00d6 6C4B     		ldr	r3, .L41
 286 00d8 1B78     		ldrb	r3, [r3]	@ zero_extendqisi2
 287 00da 012B     		cmp	r3, #1
 288 00dc 09D8     		bhi	.L21
 236:Generated_Source\PSoC5/isr_Timer_50ms.c ****             {
 237:Generated_Source\PSoC5/isr_Timer_50ms.c ****                 LED1_Write(0); 
 289              		.loc 1 237 0
 290 00de 0020     		movs	r0, #0
 291 00e0 FFF7FEFF 		bl	LED1_Write
 238:Generated_Source\PSoC5/isr_Timer_50ms.c ****                 LED2_Write(0); 
 292              		.loc 1 238 0
 293 00e4 0020     		movs	r0, #0
 294 00e6 FFF7FEFF 		bl	LED2_Write
 239:Generated_Source\PSoC5/isr_Timer_50ms.c ****                 LED3_Write(1); 
 295              		.loc 1 239 0
 296 00ea 0120     		movs	r0, #1
 297 00ec FFF7FEFF 		bl	LED3_Write
 235:Generated_Source\PSoC5/isr_Timer_50ms.c ****             {
 298              		.loc 1 235 0
 299 00f0 C0E0     		b	.L39
 300              	.L21:
 240:Generated_Source\PSoC5/isr_Timer_50ms.c ****             }
 241:Generated_Source\PSoC5/isr_Timer_50ms.c ****             else if( ( blinkcounter > BLINKTIME) && (blinkcounter < (2*BLINKTIME) ) )
 301              		.loc 1 241 0
 302 00f2 654B     		ldr	r3, .L41
 303 00f4 1B78     		ldrb	r3, [r3]	@ zero_extendqisi2
 304 00f6 022B     		cmp	r3, #2
 305 00f8 0DD9     		bls	.L23
 306              		.loc 1 241 0 is_stmt 0 discriminator 1
 307 00fa 634B     		ldr	r3, .L41
 308 00fc 1B78     		ldrb	r3, [r3]	@ zero_extendqisi2
 309 00fe 032B     		cmp	r3, #3
 310 0100 09D8     		bhi	.L23
 242:Generated_Source\PSoC5/isr_Timer_50ms.c ****             {
 243:Generated_Source\PSoC5/isr_Timer_50ms.c ****                 LED1_Write(0); 
 311              		.loc 1 243 0 is_stmt 1
 312 0102 0020     		movs	r0, #0
 313 0104 FFF7FEFF 		bl	LED1_Write
 244:Generated_Source\PSoC5/isr_Timer_50ms.c ****                 LED2_Write(0); 
 314              		.loc 1 244 0
 315 0108 0020     		movs	r0, #0
 316 010a FFF7FEFF 		bl	LED2_Write
 245:Generated_Source\PSoC5/isr_Timer_50ms.c ****                 LED3_Write(0); 
 317              		.loc 1 245 0
 318 010e 0020     		movs	r0, #0
 319 0110 FFF7FEFF 		bl	LED3_Write
 235:Generated_Source\PSoC5/isr_Timer_50ms.c ****             {
 320              		.loc 1 235 0
 321 0114 AEE0     		b	.L39
 322              	.L23:
 246:Generated_Source\PSoC5/isr_Timer_50ms.c ****             }
ARM GAS  C:\Users\MARTHN~1\AppData\Local\Temp\ccfrtomi.s 			page 11


 247:Generated_Source\PSoC5/isr_Timer_50ms.c ****             else if( blinkcounter > (2*BLINKTIME) )
 323              		.loc 1 247 0
 324 0116 5C4B     		ldr	r3, .L41
 325 0118 1B78     		ldrb	r3, [r3]	@ zero_extendqisi2
 326 011a 042B     		cmp	r3, #4
 327 011c 40F2AA80 		bls	.L39
 248:Generated_Source\PSoC5/isr_Timer_50ms.c ****             {
 249:Generated_Source\PSoC5/isr_Timer_50ms.c ****                 blinkcounter = 0;
 328              		.loc 1 249 0
 329 0120 594B     		ldr	r3, .L41
 330 0122 0022     		movs	r2, #0
 331 0124 1A70     		strb	r2, [r3]
 235:Generated_Source\PSoC5/isr_Timer_50ms.c ****             {
 332              		.loc 1 235 0
 333 0126 A5E0     		b	.L39
 334              	.L20:
 250:Generated_Source\PSoC5/isr_Timer_50ms.c ****             }    
 251:Generated_Source\PSoC5/isr_Timer_50ms.c ****         }
 252:Generated_Source\PSoC5/isr_Timer_50ms.c ****         else
 253:Generated_Source\PSoC5/isr_Timer_50ms.c ****         {
 254:Generated_Source\PSoC5/isr_Timer_50ms.c ****             LED1_Write(0);
 335              		.loc 1 254 0
 336 0128 0020     		movs	r0, #0
 337 012a FFF7FEFF 		bl	LED1_Write
 255:Generated_Source\PSoC5/isr_Timer_50ms.c ****             LED2_Write(0);
 338              		.loc 1 255 0
 339 012e 0020     		movs	r0, #0
 340 0130 FFF7FEFF 		bl	LED2_Write
 256:Generated_Source\PSoC5/isr_Timer_50ms.c ****             LED3_Write(1); 
 341              		.loc 1 256 0
 342 0134 0120     		movs	r0, #1
 343 0136 FFF7FEFF 		bl	LED3_Write
 344 013a 9CE0     		b	.L14
 345              	.L19:
 257:Generated_Source\PSoC5/isr_Timer_50ms.c ****         }   
 258:Generated_Source\PSoC5/isr_Timer_50ms.c ****     }
 259:Generated_Source\PSoC5/isr_Timer_50ms.c ****     else if(CurrentTest.Status == 'F')
 346              		.loc 1 259 0
 347 013c 534B     		ldr	r3, .L41+4
 348 013e 9B78     		ldrb	r3, [r3, #2]	@ zero_extendqisi2
 349 0140 462B     		cmp	r3, #70
 350 0142 09D1     		bne	.L25
 260:Generated_Source\PSoC5/isr_Timer_50ms.c ****     {
 261:Generated_Source\PSoC5/isr_Timer_50ms.c ****         LED1_Write(1);
 351              		.loc 1 261 0
 352 0144 0120     		movs	r0, #1
 353 0146 FFF7FEFF 		bl	LED1_Write
 262:Generated_Source\PSoC5/isr_Timer_50ms.c ****         LED2_Write(0); 
 354              		.loc 1 262 0
 355 014a 0020     		movs	r0, #0
 356 014c FFF7FEFF 		bl	LED2_Write
 263:Generated_Source\PSoC5/isr_Timer_50ms.c ****         LED3_Write(0); 
 357              		.loc 1 263 0
 358 0150 0020     		movs	r0, #0
 359 0152 FFF7FEFF 		bl	LED3_Write
 360 0156 8EE0     		b	.L14
 361              	.L25:
ARM GAS  C:\Users\MARTHN~1\AppData\Local\Temp\ccfrtomi.s 			page 12


 264:Generated_Source\PSoC5/isr_Timer_50ms.c ****     }
 265:Generated_Source\PSoC5/isr_Timer_50ms.c ****     else if(CurrentTest.Status == 'p')
 362              		.loc 1 265 0
 363 0158 4C4B     		ldr	r3, .L41+4
 364 015a 9B78     		ldrb	r3, [r3, #2]	@ zero_extendqisi2
 365 015c 702B     		cmp	r3, #112
 366 015e 27D1     		bne	.L26
 266:Generated_Source\PSoC5/isr_Timer_50ms.c ****     {
 267:Generated_Source\PSoC5/isr_Timer_50ms.c ****         if(blinkcounter < BLINKTIME)
 367              		.loc 1 267 0
 368 0160 494B     		ldr	r3, .L41
 369 0162 1B78     		ldrb	r3, [r3]	@ zero_extendqisi2
 370 0164 012B     		cmp	r3, #1
 371 0166 09D8     		bhi	.L27
 268:Generated_Source\PSoC5/isr_Timer_50ms.c ****         {
 269:Generated_Source\PSoC5/isr_Timer_50ms.c ****             LED1_Write(0);
 372              		.loc 1 269 0
 373 0168 0020     		movs	r0, #0
 374 016a FFF7FEFF 		bl	LED1_Write
 270:Generated_Source\PSoC5/isr_Timer_50ms.c ****             LED2_Write(0);
 375              		.loc 1 270 0
 376 016e 0020     		movs	r0, #0
 377 0170 FFF7FEFF 		bl	LED2_Write
 271:Generated_Source\PSoC5/isr_Timer_50ms.c ****             LED3_Write(1); 
 378              		.loc 1 271 0
 379 0174 0120     		movs	r0, #1
 380 0176 FFF7FEFF 		bl	LED3_Write
 381 017a 7CE0     		b	.L14
 382              	.L27:
 272:Generated_Source\PSoC5/isr_Timer_50ms.c ****         }
 273:Generated_Source\PSoC5/isr_Timer_50ms.c ****         else if( ( blinkcounter > BLINKTIME) && (blinkcounter < (2*BLINKTIME) ) )
 383              		.loc 1 273 0
 384 017c 424B     		ldr	r3, .L41
 385 017e 1B78     		ldrb	r3, [r3]	@ zero_extendqisi2
 386 0180 022B     		cmp	r3, #2
 387 0182 0DD9     		bls	.L29
 388              		.loc 1 273 0 is_stmt 0 discriminator 1
 389 0184 404B     		ldr	r3, .L41
 390 0186 1B78     		ldrb	r3, [r3]	@ zero_extendqisi2
 391 0188 032B     		cmp	r3, #3
 392 018a 09D8     		bhi	.L29
 274:Generated_Source\PSoC5/isr_Timer_50ms.c ****         {
 275:Generated_Source\PSoC5/isr_Timer_50ms.c ****             LED1_Write(0);
 393              		.loc 1 275 0 is_stmt 1
 394 018c 0020     		movs	r0, #0
 395 018e FFF7FEFF 		bl	LED1_Write
 276:Generated_Source\PSoC5/isr_Timer_50ms.c ****             LED2_Write(0); 
 396              		.loc 1 276 0
 397 0192 0020     		movs	r0, #0
 398 0194 FFF7FEFF 		bl	LED2_Write
 277:Generated_Source\PSoC5/isr_Timer_50ms.c ****             LED3_Write(0); 
 399              		.loc 1 277 0
 400 0198 0020     		movs	r0, #0
 401 019a FFF7FEFF 		bl	LED3_Write
 402 019e 6AE0     		b	.L14
 403              	.L29:
 278:Generated_Source\PSoC5/isr_Timer_50ms.c ****         }
ARM GAS  C:\Users\MARTHN~1\AppData\Local\Temp\ccfrtomi.s 			page 13


 279:Generated_Source\PSoC5/isr_Timer_50ms.c ****         else if( blinkcounter > (2*BLINKTIME) )
 404              		.loc 1 279 0
 405 01a0 394B     		ldr	r3, .L41
 406 01a2 1B78     		ldrb	r3, [r3]	@ zero_extendqisi2
 407 01a4 042B     		cmp	r3, #4
 408 01a6 66D9     		bls	.L14
 280:Generated_Source\PSoC5/isr_Timer_50ms.c ****         {
 281:Generated_Source\PSoC5/isr_Timer_50ms.c ****             blinkcounter = 0;
 409              		.loc 1 281 0
 410 01a8 374B     		ldr	r3, .L41
 411 01aa 0022     		movs	r2, #0
 412 01ac 1A70     		strb	r2, [r3]
 413 01ae 62E0     		b	.L14
 414              	.L26:
 282:Generated_Source\PSoC5/isr_Timer_50ms.c ****         }    
 283:Generated_Source\PSoC5/isr_Timer_50ms.c ****     }
 284:Generated_Source\PSoC5/isr_Timer_50ms.c ****     else if(CurrentTest.Status == 'f')
 415              		.loc 1 284 0
 416 01b0 364B     		ldr	r3, .L41+4
 417 01b2 9B78     		ldrb	r3, [r3, #2]	@ zero_extendqisi2
 418 01b4 662B     		cmp	r3, #102
 419 01b6 27D1     		bne	.L30
 285:Generated_Source\PSoC5/isr_Timer_50ms.c ****     {
 286:Generated_Source\PSoC5/isr_Timer_50ms.c ****         if(blinkcounter < BLINKTIME)
 420              		.loc 1 286 0
 421 01b8 334B     		ldr	r3, .L41
 422 01ba 1B78     		ldrb	r3, [r3]	@ zero_extendqisi2
 423 01bc 012B     		cmp	r3, #1
 424 01be 09D8     		bhi	.L31
 287:Generated_Source\PSoC5/isr_Timer_50ms.c ****         {
 288:Generated_Source\PSoC5/isr_Timer_50ms.c ****             LED1_Write(1);
 425              		.loc 1 288 0
 426 01c0 0120     		movs	r0, #1
 427 01c2 FFF7FEFF 		bl	LED1_Write
 289:Generated_Source\PSoC5/isr_Timer_50ms.c ****             LED2_Write(0);
 428              		.loc 1 289 0
 429 01c6 0020     		movs	r0, #0
 430 01c8 FFF7FEFF 		bl	LED2_Write
 290:Generated_Source\PSoC5/isr_Timer_50ms.c ****             LED3_Write(0); 
 431              		.loc 1 290 0
 432 01cc 0020     		movs	r0, #0
 433 01ce FFF7FEFF 		bl	LED3_Write
 434 01d2 50E0     		b	.L14
 435              	.L31:
 291:Generated_Source\PSoC5/isr_Timer_50ms.c ****         }
 292:Generated_Source\PSoC5/isr_Timer_50ms.c ****         else if( ( blinkcounter > BLINKTIME) && (blinkcounter < (2*BLINKTIME) ) )
 436              		.loc 1 292 0
 437 01d4 2C4B     		ldr	r3, .L41
 438 01d6 1B78     		ldrb	r3, [r3]	@ zero_extendqisi2
 439 01d8 022B     		cmp	r3, #2
 440 01da 0DD9     		bls	.L33
 441              		.loc 1 292 0 is_stmt 0 discriminator 1
 442 01dc 2A4B     		ldr	r3, .L41
 443 01de 1B78     		ldrb	r3, [r3]	@ zero_extendqisi2
 444 01e0 032B     		cmp	r3, #3
 445 01e2 09D8     		bhi	.L33
 293:Generated_Source\PSoC5/isr_Timer_50ms.c ****         {
ARM GAS  C:\Users\MARTHN~1\AppData\Local\Temp\ccfrtomi.s 			page 14


 294:Generated_Source\PSoC5/isr_Timer_50ms.c ****             LED1_Write(0);
 446              		.loc 1 294 0 is_stmt 1
 447 01e4 0020     		movs	r0, #0
 448 01e6 FFF7FEFF 		bl	LED1_Write
 295:Generated_Source\PSoC5/isr_Timer_50ms.c ****             LED2_Write(0); 
 449              		.loc 1 295 0
 450 01ea 0020     		movs	r0, #0
 451 01ec FFF7FEFF 		bl	LED2_Write
 296:Generated_Source\PSoC5/isr_Timer_50ms.c ****             LED3_Write(0); 
 452              		.loc 1 296 0
 453 01f0 0020     		movs	r0, #0
 454 01f2 FFF7FEFF 		bl	LED3_Write
 455 01f6 3EE0     		b	.L14
 456              	.L33:
 297:Generated_Source\PSoC5/isr_Timer_50ms.c ****         }
 298:Generated_Source\PSoC5/isr_Timer_50ms.c ****         else if( blinkcounter > (2*BLINKTIME) )
 457              		.loc 1 298 0
 458 01f8 234B     		ldr	r3, .L41
 459 01fa 1B78     		ldrb	r3, [r3]	@ zero_extendqisi2
 460 01fc 042B     		cmp	r3, #4
 461 01fe 3AD9     		bls	.L14
 299:Generated_Source\PSoC5/isr_Timer_50ms.c ****         {
 300:Generated_Source\PSoC5/isr_Timer_50ms.c ****             blinkcounter = 0;
 462              		.loc 1 300 0
 463 0200 214B     		ldr	r3, .L41
 464 0202 0022     		movs	r2, #0
 465 0204 1A70     		strb	r2, [r3]
 466 0206 36E0     		b	.L14
 467              	.L30:
 301:Generated_Source\PSoC5/isr_Timer_50ms.c ****         }    
 302:Generated_Source\PSoC5/isr_Timer_50ms.c ****     }
 303:Generated_Source\PSoC5/isr_Timer_50ms.c ****     else if(CurrentTest.Status == 'r')          // reset
 468              		.loc 1 303 0
 469 0208 204B     		ldr	r3, .L41+4
 470 020a 9B78     		ldrb	r3, [r3, #2]	@ zero_extendqisi2
 471 020c 722B     		cmp	r3, #114
 472 020e 27D1     		bne	.L34
 304:Generated_Source\PSoC5/isr_Timer_50ms.c ****     {
 305:Generated_Source\PSoC5/isr_Timer_50ms.c ****         if(blinkcounter < BLINKTIME)
 473              		.loc 1 305 0
 474 0210 1D4B     		ldr	r3, .L41
 475 0212 1B78     		ldrb	r3, [r3]	@ zero_extendqisi2
 476 0214 012B     		cmp	r3, #1
 477 0216 09D8     		bhi	.L35
 306:Generated_Source\PSoC5/isr_Timer_50ms.c ****         {
 307:Generated_Source\PSoC5/isr_Timer_50ms.c ****             LED1_Write(1);
 478              		.loc 1 307 0
 479 0218 0120     		movs	r0, #1
 480 021a FFF7FEFF 		bl	LED1_Write
 308:Generated_Source\PSoC5/isr_Timer_50ms.c ****             LED2_Write(1);
 481              		.loc 1 308 0
 482 021e 0120     		movs	r0, #1
 483 0220 FFF7FEFF 		bl	LED2_Write
 309:Generated_Source\PSoC5/isr_Timer_50ms.c ****             LED3_Write(1); 
 484              		.loc 1 309 0
 485 0224 0120     		movs	r0, #1
 486 0226 FFF7FEFF 		bl	LED3_Write
ARM GAS  C:\Users\MARTHN~1\AppData\Local\Temp\ccfrtomi.s 			page 15


 487 022a 24E0     		b	.L14
 488              	.L35:
 310:Generated_Source\PSoC5/isr_Timer_50ms.c ****         }
 311:Generated_Source\PSoC5/isr_Timer_50ms.c ****         else if( ( blinkcounter > BLINKTIME) && (blinkcounter < (2*BLINKTIME) ) )
 489              		.loc 1 311 0
 490 022c 164B     		ldr	r3, .L41
 491 022e 1B78     		ldrb	r3, [r3]	@ zero_extendqisi2
 492 0230 022B     		cmp	r3, #2
 493 0232 0DD9     		bls	.L37
 494              		.loc 1 311 0 is_stmt 0 discriminator 1
 495 0234 144B     		ldr	r3, .L41
 496 0236 1B78     		ldrb	r3, [r3]	@ zero_extendqisi2
 497 0238 032B     		cmp	r3, #3
 498 023a 09D8     		bhi	.L37
 312:Generated_Source\PSoC5/isr_Timer_50ms.c ****         {
 313:Generated_Source\PSoC5/isr_Timer_50ms.c ****             LED1_Write(0);
 499              		.loc 1 313 0 is_stmt 1
 500 023c 0020     		movs	r0, #0
 501 023e FFF7FEFF 		bl	LED1_Write
 314:Generated_Source\PSoC5/isr_Timer_50ms.c ****             LED2_Write(0); 
 502              		.loc 1 314 0
 503 0242 0020     		movs	r0, #0
 504 0244 FFF7FEFF 		bl	LED2_Write
 315:Generated_Source\PSoC5/isr_Timer_50ms.c ****             LED3_Write(0); 
 505              		.loc 1 315 0
 506 0248 0020     		movs	r0, #0
 507 024a FFF7FEFF 		bl	LED3_Write
 508 024e 12E0     		b	.L14
 509              	.L37:
 316:Generated_Source\PSoC5/isr_Timer_50ms.c ****         }
 317:Generated_Source\PSoC5/isr_Timer_50ms.c ****         else if( blinkcounter > (2*BLINKTIME) )
 510              		.loc 1 317 0
 511 0250 0D4B     		ldr	r3, .L41
 512 0252 1B78     		ldrb	r3, [r3]	@ zero_extendqisi2
 513 0254 042B     		cmp	r3, #4
 514 0256 0ED9     		bls	.L14
 318:Generated_Source\PSoC5/isr_Timer_50ms.c ****         {
 319:Generated_Source\PSoC5/isr_Timer_50ms.c ****             blinkcounter = 0;
 515              		.loc 1 319 0
 516 0258 0B4B     		ldr	r3, .L41
 517 025a 0022     		movs	r2, #0
 518 025c 1A70     		strb	r2, [r3]
 519 025e 0AE0     		b	.L14
 520              	.L34:
 320:Generated_Source\PSoC5/isr_Timer_50ms.c ****         }    
 321:Generated_Source\PSoC5/isr_Timer_50ms.c ****     }
 322:Generated_Source\PSoC5/isr_Timer_50ms.c ****     else
 323:Generated_Source\PSoC5/isr_Timer_50ms.c ****     {
 324:Generated_Source\PSoC5/isr_Timer_50ms.c ****         LED1_Write(0);
 521              		.loc 1 324 0
 522 0260 0020     		movs	r0, #0
 523 0262 FFF7FEFF 		bl	LED1_Write
 325:Generated_Source\PSoC5/isr_Timer_50ms.c ****         LED2_Write(0);
 524              		.loc 1 325 0
 525 0266 0020     		movs	r0, #0
 526 0268 FFF7FEFF 		bl	LED2_Write
 326:Generated_Source\PSoC5/isr_Timer_50ms.c ****         LED3_Write(0); 
ARM GAS  C:\Users\MARTHN~1\AppData\Local\Temp\ccfrtomi.s 			page 16


 527              		.loc 1 326 0
 528 026c 0020     		movs	r0, #0
 529 026e FFF7FEFF 		bl	LED3_Write
 530 0272 00E0     		b	.L14
 531              	.L39:
 235:Generated_Source\PSoC5/isr_Timer_50ms.c ****             {
 532              		.loc 1 235 0
 533 0274 00BF     		nop
 534              	.L14:
 327:Generated_Source\PSoC5/isr_Timer_50ms.c ****     }
 328:Generated_Source\PSoC5/isr_Timer_50ms.c ****     
 329:Generated_Source\PSoC5/isr_Timer_50ms.c ****     
 330:Generated_Source\PSoC5/isr_Timer_50ms.c ****     if(blinkcounter > 100)
 535              		.loc 1 330 0
 536 0276 044B     		ldr	r3, .L41
 537 0278 1B78     		ldrb	r3, [r3]	@ zero_extendqisi2
 538 027a 642B     		cmp	r3, #100
 539 027c 02D9     		bls	.L40
 331:Generated_Source\PSoC5/isr_Timer_50ms.c ****         blinkcounter = 0;
 540              		.loc 1 331 0
 541 027e 024B     		ldr	r3, .L41
 542 0280 0022     		movs	r2, #0
 543 0282 1A70     		strb	r2, [r3]
 544              	.L40:
 332:Generated_Source\PSoC5/isr_Timer_50ms.c ****         
 333:Generated_Source\PSoC5/isr_Timer_50ms.c ****         
 334:Generated_Source\PSoC5/isr_Timer_50ms.c **** 
 335:Generated_Source\PSoC5/isr_Timer_50ms.c ****     /* `#END` */
 336:Generated_Source\PSoC5/isr_Timer_50ms.c **** }
 545              		.loc 1 336 0
 546 0284 00BF     		nop
 547 0286 80BD     		pop	{r7, pc}
 548              	.L42:
 549              		.align	2
 550              	.L41:
 551 0288 00000000 		.word	blinkcounter
 552 028c 00000000 		.word	CurrentTest
 553              		.cfi_endproc
 554              	.LFE66:
 555              		.size	isr_Timer_50ms_Interrupt, .-isr_Timer_50ms_Interrupt
 556              		.section	.text.isr_Timer_50ms_SetVector,"ax",%progbits
 557              		.align	2
 558              		.global	isr_Timer_50ms_SetVector
 559              		.thumb
 560              		.thumb_func
 561              		.type	isr_Timer_50ms_SetVector, %function
 562              	isr_Timer_50ms_SetVector:
 563              	.LFB67:
 337:Generated_Source\PSoC5/isr_Timer_50ms.c **** 
 338:Generated_Source\PSoC5/isr_Timer_50ms.c **** 
 339:Generated_Source\PSoC5/isr_Timer_50ms.c **** /*******************************************************************************
 340:Generated_Source\PSoC5/isr_Timer_50ms.c **** * Function Name: isr_Timer_50ms_SetVector
 341:Generated_Source\PSoC5/isr_Timer_50ms.c **** ********************************************************************************
 342:Generated_Source\PSoC5/isr_Timer_50ms.c **** *
 343:Generated_Source\PSoC5/isr_Timer_50ms.c **** * Summary:
 344:Generated_Source\PSoC5/isr_Timer_50ms.c **** *   Change the ISR vector for the Interrupt. Note calling isr_Timer_50ms_Start
 345:Generated_Source\PSoC5/isr_Timer_50ms.c **** *   will override any effect this method would have had. To set the vector 
ARM GAS  C:\Users\MARTHN~1\AppData\Local\Temp\ccfrtomi.s 			page 17


 346:Generated_Source\PSoC5/isr_Timer_50ms.c **** *   before the component has been started use isr_Timer_50ms_StartEx instead.
 347:Generated_Source\PSoC5/isr_Timer_50ms.c **** * 
 348:Generated_Source\PSoC5/isr_Timer_50ms.c **** *   When defining ISR functions, the CY_ISR and CY_ISR_PROTO macros should be 
 349:Generated_Source\PSoC5/isr_Timer_50ms.c **** *   used to provide consistent definition across compilers:
 350:Generated_Source\PSoC5/isr_Timer_50ms.c **** *
 351:Generated_Source\PSoC5/isr_Timer_50ms.c **** *   Function definition example:
 352:Generated_Source\PSoC5/isr_Timer_50ms.c **** *   CY_ISR(MyISR)
 353:Generated_Source\PSoC5/isr_Timer_50ms.c **** *   {
 354:Generated_Source\PSoC5/isr_Timer_50ms.c **** *   }
 355:Generated_Source\PSoC5/isr_Timer_50ms.c **** *
 356:Generated_Source\PSoC5/isr_Timer_50ms.c **** *   Function prototype example:
 357:Generated_Source\PSoC5/isr_Timer_50ms.c **** *     CY_ISR_PROTO(MyISR);
 358:Generated_Source\PSoC5/isr_Timer_50ms.c **** *
 359:Generated_Source\PSoC5/isr_Timer_50ms.c **** * Parameters:
 360:Generated_Source\PSoC5/isr_Timer_50ms.c **** *   address: Address of the ISR to set in the interrupt vector table.
 361:Generated_Source\PSoC5/isr_Timer_50ms.c **** *
 362:Generated_Source\PSoC5/isr_Timer_50ms.c **** * Return:
 363:Generated_Source\PSoC5/isr_Timer_50ms.c **** *   None
 364:Generated_Source\PSoC5/isr_Timer_50ms.c **** *
 365:Generated_Source\PSoC5/isr_Timer_50ms.c **** *******************************************************************************/
 366:Generated_Source\PSoC5/isr_Timer_50ms.c **** void isr_Timer_50ms_SetVector(cyisraddress address)
 367:Generated_Source\PSoC5/isr_Timer_50ms.c **** {
 564              		.loc 1 367 0
 565              		.cfi_startproc
 566              		@ args = 0, pretend = 0, frame = 16
 567              		@ frame_needed = 1, uses_anonymous_args = 0
 568              		@ link register save eliminated.
 569 0000 80B4     		push	{r7}
 570              		.cfi_def_cfa_offset 4
 571              		.cfi_offset 7, -4
 572 0002 85B0     		sub	sp, sp, #20
 573              		.cfi_def_cfa_offset 24
 574 0004 00AF     		add	r7, sp, #0
 575              		.cfi_def_cfa_register 7
 576 0006 7860     		str	r0, [r7, #4]
 368:Generated_Source\PSoC5/isr_Timer_50ms.c ****     cyisraddress * ramVectorTable;
 369:Generated_Source\PSoC5/isr_Timer_50ms.c **** 
 370:Generated_Source\PSoC5/isr_Timer_50ms.c ****     ramVectorTable = (cyisraddress *) *CYINT_VECT_TABLE;
 577              		.loc 1 370 0
 578 0008 054B     		ldr	r3, .L44
 579 000a 1B68     		ldr	r3, [r3]
 580 000c FB60     		str	r3, [r7, #12]
 371:Generated_Source\PSoC5/isr_Timer_50ms.c **** 
 372:Generated_Source\PSoC5/isr_Timer_50ms.c ****     ramVectorTable[CYINT_IRQ_BASE + (uint32)isr_Timer_50ms__INTC_NUMBER] = address;
 581              		.loc 1 372 0
 582 000e FB68     		ldr	r3, [r7, #12]
 583 0010 5433     		adds	r3, r3, #84
 584 0012 7A68     		ldr	r2, [r7, #4]
 585 0014 1A60     		str	r2, [r3]
 373:Generated_Source\PSoC5/isr_Timer_50ms.c **** }
 586              		.loc 1 373 0
 587 0016 00BF     		nop
 588 0018 1437     		adds	r7, r7, #20
 589              		.cfi_def_cfa_offset 4
 590 001a BD46     		mov	sp, r7
 591              		.cfi_def_cfa_register 13
 592              		@ sp needed
ARM GAS  C:\Users\MARTHN~1\AppData\Local\Temp\ccfrtomi.s 			page 18


 593 001c 80BC     		pop	{r7}
 594              		.cfi_restore 7
 595              		.cfi_def_cfa_offset 0
 596 001e 7047     		bx	lr
 597              	.L45:
 598              		.align	2
 599              	.L44:
 600 0020 08ED00E0 		.word	-536810232
 601              		.cfi_endproc
 602              	.LFE67:
 603              		.size	isr_Timer_50ms_SetVector, .-isr_Timer_50ms_SetVector
 604              		.section	.text.isr_Timer_50ms_GetVector,"ax",%progbits
 605              		.align	2
 606              		.global	isr_Timer_50ms_GetVector
 607              		.thumb
 608              		.thumb_func
 609              		.type	isr_Timer_50ms_GetVector, %function
 610              	isr_Timer_50ms_GetVector:
 611              	.LFB68:
 374:Generated_Source\PSoC5/isr_Timer_50ms.c **** 
 375:Generated_Source\PSoC5/isr_Timer_50ms.c **** 
 376:Generated_Source\PSoC5/isr_Timer_50ms.c **** /*******************************************************************************
 377:Generated_Source\PSoC5/isr_Timer_50ms.c **** * Function Name: isr_Timer_50ms_GetVector
 378:Generated_Source\PSoC5/isr_Timer_50ms.c **** ********************************************************************************
 379:Generated_Source\PSoC5/isr_Timer_50ms.c **** *
 380:Generated_Source\PSoC5/isr_Timer_50ms.c **** * Summary:
 381:Generated_Source\PSoC5/isr_Timer_50ms.c **** *   Gets the "address" of the current ISR vector for the Interrupt.
 382:Generated_Source\PSoC5/isr_Timer_50ms.c **** *
 383:Generated_Source\PSoC5/isr_Timer_50ms.c **** * Parameters:
 384:Generated_Source\PSoC5/isr_Timer_50ms.c **** *   None
 385:Generated_Source\PSoC5/isr_Timer_50ms.c **** *
 386:Generated_Source\PSoC5/isr_Timer_50ms.c **** * Return:
 387:Generated_Source\PSoC5/isr_Timer_50ms.c **** *   Address of the ISR in the interrupt vector table.
 388:Generated_Source\PSoC5/isr_Timer_50ms.c **** *
 389:Generated_Source\PSoC5/isr_Timer_50ms.c **** *******************************************************************************/
 390:Generated_Source\PSoC5/isr_Timer_50ms.c **** cyisraddress isr_Timer_50ms_GetVector(void)
 391:Generated_Source\PSoC5/isr_Timer_50ms.c **** {
 612              		.loc 1 391 0
 613              		.cfi_startproc
 614              		@ args = 0, pretend = 0, frame = 8
 615              		@ frame_needed = 1, uses_anonymous_args = 0
 616              		@ link register save eliminated.
 617 0000 80B4     		push	{r7}
 618              		.cfi_def_cfa_offset 4
 619              		.cfi_offset 7, -4
 620 0002 83B0     		sub	sp, sp, #12
 621              		.cfi_def_cfa_offset 16
 622 0004 00AF     		add	r7, sp, #0
 623              		.cfi_def_cfa_register 7
 392:Generated_Source\PSoC5/isr_Timer_50ms.c ****     cyisraddress * ramVectorTable;
 393:Generated_Source\PSoC5/isr_Timer_50ms.c **** 
 394:Generated_Source\PSoC5/isr_Timer_50ms.c ****     ramVectorTable = (cyisraddress *) *CYINT_VECT_TABLE;
 624              		.loc 1 394 0
 625 0006 054B     		ldr	r3, .L48
 626 0008 1B68     		ldr	r3, [r3]
 627 000a 7B60     		str	r3, [r7, #4]
 395:Generated_Source\PSoC5/isr_Timer_50ms.c **** 
ARM GAS  C:\Users\MARTHN~1\AppData\Local\Temp\ccfrtomi.s 			page 19


 396:Generated_Source\PSoC5/isr_Timer_50ms.c ****     return ramVectorTable[CYINT_IRQ_BASE + (uint32)isr_Timer_50ms__INTC_NUMBER];
 628              		.loc 1 396 0
 629 000c 7B68     		ldr	r3, [r7, #4]
 630 000e 5B6D     		ldr	r3, [r3, #84]
 397:Generated_Source\PSoC5/isr_Timer_50ms.c **** }
 631              		.loc 1 397 0
 632 0010 1846     		mov	r0, r3
 633 0012 0C37     		adds	r7, r7, #12
 634              		.cfi_def_cfa_offset 4
 635 0014 BD46     		mov	sp, r7
 636              		.cfi_def_cfa_register 13
 637              		@ sp needed
 638 0016 80BC     		pop	{r7}
 639              		.cfi_restore 7
 640              		.cfi_def_cfa_offset 0
 641 0018 7047     		bx	lr
 642              	.L49:
 643 001a 00BF     		.align	2
 644              	.L48:
 645 001c 08ED00E0 		.word	-536810232
 646              		.cfi_endproc
 647              	.LFE68:
 648              		.size	isr_Timer_50ms_GetVector, .-isr_Timer_50ms_GetVector
 649              		.section	.text.isr_Timer_50ms_SetPriority,"ax",%progbits
 650              		.align	2
 651              		.global	isr_Timer_50ms_SetPriority
 652              		.thumb
 653              		.thumb_func
 654              		.type	isr_Timer_50ms_SetPriority, %function
 655              	isr_Timer_50ms_SetPriority:
 656              	.LFB69:
 398:Generated_Source\PSoC5/isr_Timer_50ms.c **** 
 399:Generated_Source\PSoC5/isr_Timer_50ms.c **** 
 400:Generated_Source\PSoC5/isr_Timer_50ms.c **** /*******************************************************************************
 401:Generated_Source\PSoC5/isr_Timer_50ms.c **** * Function Name: isr_Timer_50ms_SetPriority
 402:Generated_Source\PSoC5/isr_Timer_50ms.c **** ********************************************************************************
 403:Generated_Source\PSoC5/isr_Timer_50ms.c **** *
 404:Generated_Source\PSoC5/isr_Timer_50ms.c **** * Summary:
 405:Generated_Source\PSoC5/isr_Timer_50ms.c **** *   Sets the Priority of the Interrupt. 
 406:Generated_Source\PSoC5/isr_Timer_50ms.c **** *
 407:Generated_Source\PSoC5/isr_Timer_50ms.c **** *   Note calling isr_Timer_50ms_Start or isr_Timer_50ms_StartEx will 
 408:Generated_Source\PSoC5/isr_Timer_50ms.c **** *   override any effect this API would have had. This API should only be called
 409:Generated_Source\PSoC5/isr_Timer_50ms.c **** *   after isr_Timer_50ms_Start or isr_Timer_50ms_StartEx has been called. 
 410:Generated_Source\PSoC5/isr_Timer_50ms.c **** *   To set the initial priority for the component, use the Design-Wide Resources
 411:Generated_Source\PSoC5/isr_Timer_50ms.c **** *   Interrupt Editor.
 412:Generated_Source\PSoC5/isr_Timer_50ms.c **** *
 413:Generated_Source\PSoC5/isr_Timer_50ms.c **** *   Note This API has no effect on Non-maskable interrupt NMI).
 414:Generated_Source\PSoC5/isr_Timer_50ms.c **** *
 415:Generated_Source\PSoC5/isr_Timer_50ms.c **** * Parameters:
 416:Generated_Source\PSoC5/isr_Timer_50ms.c **** *   priority: Priority of the interrupt, 0 being the highest priority
 417:Generated_Source\PSoC5/isr_Timer_50ms.c **** *             PSoC 3 and PSoC 5LP: Priority is from 0 to 7.
 418:Generated_Source\PSoC5/isr_Timer_50ms.c **** *             PSoC 4: Priority is from 0 to 3.
 419:Generated_Source\PSoC5/isr_Timer_50ms.c **** *
 420:Generated_Source\PSoC5/isr_Timer_50ms.c **** * Return:
 421:Generated_Source\PSoC5/isr_Timer_50ms.c **** *   None
 422:Generated_Source\PSoC5/isr_Timer_50ms.c **** *
 423:Generated_Source\PSoC5/isr_Timer_50ms.c **** *******************************************************************************/
ARM GAS  C:\Users\MARTHN~1\AppData\Local\Temp\ccfrtomi.s 			page 20


 424:Generated_Source\PSoC5/isr_Timer_50ms.c **** void isr_Timer_50ms_SetPriority(uint8 priority)
 425:Generated_Source\PSoC5/isr_Timer_50ms.c **** {
 657              		.loc 1 425 0
 658              		.cfi_startproc
 659              		@ args = 0, pretend = 0, frame = 8
 660              		@ frame_needed = 1, uses_anonymous_args = 0
 661              		@ link register save eliminated.
 662 0000 80B4     		push	{r7}
 663              		.cfi_def_cfa_offset 4
 664              		.cfi_offset 7, -4
 665 0002 83B0     		sub	sp, sp, #12
 666              		.cfi_def_cfa_offset 16
 667 0004 00AF     		add	r7, sp, #0
 668              		.cfi_def_cfa_register 7
 669 0006 0346     		mov	r3, r0
 670 0008 FB71     		strb	r3, [r7, #7]
 426:Generated_Source\PSoC5/isr_Timer_50ms.c ****     *isr_Timer_50ms_INTC_PRIOR = priority << 5;
 671              		.loc 1 426 0
 672 000a 054A     		ldr	r2, .L51
 673 000c FB79     		ldrb	r3, [r7, #7]
 674 000e 5B01     		lsls	r3, r3, #5
 675 0010 DBB2     		uxtb	r3, r3
 676 0012 1370     		strb	r3, [r2]
 427:Generated_Source\PSoC5/isr_Timer_50ms.c **** }
 677              		.loc 1 427 0
 678 0014 00BF     		nop
 679 0016 0C37     		adds	r7, r7, #12
 680              		.cfi_def_cfa_offset 4
 681 0018 BD46     		mov	sp, r7
 682              		.cfi_def_cfa_register 13
 683              		@ sp needed
 684 001a 80BC     		pop	{r7}
 685              		.cfi_restore 7
 686              		.cfi_def_cfa_offset 0
 687 001c 7047     		bx	lr
 688              	.L52:
 689 001e 00BF     		.align	2
 690              	.L51:
 691 0020 05E400E0 		.word	-536812539
 692              		.cfi_endproc
 693              	.LFE69:
 694              		.size	isr_Timer_50ms_SetPriority, .-isr_Timer_50ms_SetPriority
 695              		.section	.text.isr_Timer_50ms_GetPriority,"ax",%progbits
 696              		.align	2
 697              		.global	isr_Timer_50ms_GetPriority
 698              		.thumb
 699              		.thumb_func
 700              		.type	isr_Timer_50ms_GetPriority, %function
 701              	isr_Timer_50ms_GetPriority:
 702              	.LFB70:
 428:Generated_Source\PSoC5/isr_Timer_50ms.c **** 
 429:Generated_Source\PSoC5/isr_Timer_50ms.c **** 
 430:Generated_Source\PSoC5/isr_Timer_50ms.c **** /*******************************************************************************
 431:Generated_Source\PSoC5/isr_Timer_50ms.c **** * Function Name: isr_Timer_50ms_GetPriority
 432:Generated_Source\PSoC5/isr_Timer_50ms.c **** ********************************************************************************
 433:Generated_Source\PSoC5/isr_Timer_50ms.c **** *
 434:Generated_Source\PSoC5/isr_Timer_50ms.c **** * Summary:
ARM GAS  C:\Users\MARTHN~1\AppData\Local\Temp\ccfrtomi.s 			page 21


 435:Generated_Source\PSoC5/isr_Timer_50ms.c **** *   Gets the Priority of the Interrupt.
 436:Generated_Source\PSoC5/isr_Timer_50ms.c **** *
 437:Generated_Source\PSoC5/isr_Timer_50ms.c **** * Parameters:
 438:Generated_Source\PSoC5/isr_Timer_50ms.c **** *   None
 439:Generated_Source\PSoC5/isr_Timer_50ms.c **** *
 440:Generated_Source\PSoC5/isr_Timer_50ms.c **** * Return:
 441:Generated_Source\PSoC5/isr_Timer_50ms.c **** *   Priority of the interrupt, 0 being the highest priority
 442:Generated_Source\PSoC5/isr_Timer_50ms.c **** *    PSoC 3 and PSoC 5LP: Priority is from 0 to 7.
 443:Generated_Source\PSoC5/isr_Timer_50ms.c **** *    PSoC 4: Priority is from 0 to 3.
 444:Generated_Source\PSoC5/isr_Timer_50ms.c **** *
 445:Generated_Source\PSoC5/isr_Timer_50ms.c **** *******************************************************************************/
 446:Generated_Source\PSoC5/isr_Timer_50ms.c **** uint8 isr_Timer_50ms_GetPriority(void)
 447:Generated_Source\PSoC5/isr_Timer_50ms.c **** {
 703              		.loc 1 447 0
 704              		.cfi_startproc
 705              		@ args = 0, pretend = 0, frame = 8
 706              		@ frame_needed = 1, uses_anonymous_args = 0
 707              		@ link register save eliminated.
 708 0000 80B4     		push	{r7}
 709              		.cfi_def_cfa_offset 4
 710              		.cfi_offset 7, -4
 711 0002 83B0     		sub	sp, sp, #12
 712              		.cfi_def_cfa_offset 16
 713 0004 00AF     		add	r7, sp, #0
 714              		.cfi_def_cfa_register 7
 448:Generated_Source\PSoC5/isr_Timer_50ms.c ****     uint8 priority;
 449:Generated_Source\PSoC5/isr_Timer_50ms.c **** 
 450:Generated_Source\PSoC5/isr_Timer_50ms.c **** 
 451:Generated_Source\PSoC5/isr_Timer_50ms.c ****     priority = *isr_Timer_50ms_INTC_PRIOR >> 5;
 715              		.loc 1 451 0
 716 0006 054B     		ldr	r3, .L55
 717 0008 1B78     		ldrb	r3, [r3]
 718 000a DBB2     		uxtb	r3, r3
 719 000c 5B09     		lsrs	r3, r3, #5
 720 000e FB71     		strb	r3, [r7, #7]
 452:Generated_Source\PSoC5/isr_Timer_50ms.c **** 
 453:Generated_Source\PSoC5/isr_Timer_50ms.c ****     return priority;
 721              		.loc 1 453 0
 722 0010 FB79     		ldrb	r3, [r7, #7]	@ zero_extendqisi2
 454:Generated_Source\PSoC5/isr_Timer_50ms.c **** }
 723              		.loc 1 454 0
 724 0012 1846     		mov	r0, r3
 725 0014 0C37     		adds	r7, r7, #12
 726              		.cfi_def_cfa_offset 4
 727 0016 BD46     		mov	sp, r7
 728              		.cfi_def_cfa_register 13
 729              		@ sp needed
 730 0018 80BC     		pop	{r7}
 731              		.cfi_restore 7
 732              		.cfi_def_cfa_offset 0
 733 001a 7047     		bx	lr
 734              	.L56:
 735              		.align	2
 736              	.L55:
 737 001c 05E400E0 		.word	-536812539
 738              		.cfi_endproc
 739              	.LFE70:
ARM GAS  C:\Users\MARTHN~1\AppData\Local\Temp\ccfrtomi.s 			page 22


 740              		.size	isr_Timer_50ms_GetPriority, .-isr_Timer_50ms_GetPriority
 741              		.section	.text.isr_Timer_50ms_Enable,"ax",%progbits
 742              		.align	2
 743              		.global	isr_Timer_50ms_Enable
 744              		.thumb
 745              		.thumb_func
 746              		.type	isr_Timer_50ms_Enable, %function
 747              	isr_Timer_50ms_Enable:
 748              	.LFB71:
 455:Generated_Source\PSoC5/isr_Timer_50ms.c **** 
 456:Generated_Source\PSoC5/isr_Timer_50ms.c **** 
 457:Generated_Source\PSoC5/isr_Timer_50ms.c **** /*******************************************************************************
 458:Generated_Source\PSoC5/isr_Timer_50ms.c **** * Function Name: isr_Timer_50ms_Enable
 459:Generated_Source\PSoC5/isr_Timer_50ms.c **** ********************************************************************************
 460:Generated_Source\PSoC5/isr_Timer_50ms.c **** *
 461:Generated_Source\PSoC5/isr_Timer_50ms.c **** * Summary:
 462:Generated_Source\PSoC5/isr_Timer_50ms.c **** *   Enables the interrupt to the interrupt controller. Do not call this function
 463:Generated_Source\PSoC5/isr_Timer_50ms.c **** *   unless ISR_Start() has been called or the functionality of the ISR_Start() 
 464:Generated_Source\PSoC5/isr_Timer_50ms.c **** *   function, which sets the vector and the priority, has been called.
 465:Generated_Source\PSoC5/isr_Timer_50ms.c **** *
 466:Generated_Source\PSoC5/isr_Timer_50ms.c **** * Parameters:
 467:Generated_Source\PSoC5/isr_Timer_50ms.c **** *   None
 468:Generated_Source\PSoC5/isr_Timer_50ms.c **** *
 469:Generated_Source\PSoC5/isr_Timer_50ms.c **** * Return:
 470:Generated_Source\PSoC5/isr_Timer_50ms.c **** *   None
 471:Generated_Source\PSoC5/isr_Timer_50ms.c **** *
 472:Generated_Source\PSoC5/isr_Timer_50ms.c **** *******************************************************************************/
 473:Generated_Source\PSoC5/isr_Timer_50ms.c **** void isr_Timer_50ms_Enable(void)
 474:Generated_Source\PSoC5/isr_Timer_50ms.c **** {
 749              		.loc 1 474 0
 750              		.cfi_startproc
 751              		@ args = 0, pretend = 0, frame = 0
 752              		@ frame_needed = 1, uses_anonymous_args = 0
 753              		@ link register save eliminated.
 754 0000 80B4     		push	{r7}
 755              		.cfi_def_cfa_offset 4
 756              		.cfi_offset 7, -4
 757 0002 00AF     		add	r7, sp, #0
 758              		.cfi_def_cfa_register 7
 475:Generated_Source\PSoC5/isr_Timer_50ms.c ****     /* Enable the general interrupt. */
 476:Generated_Source\PSoC5/isr_Timer_50ms.c ****     *isr_Timer_50ms_INTC_SET_EN = isr_Timer_50ms__INTC_MASK;
 759              		.loc 1 476 0
 760 0004 034B     		ldr	r3, .L58
 761 0006 2022     		movs	r2, #32
 762 0008 1A60     		str	r2, [r3]
 477:Generated_Source\PSoC5/isr_Timer_50ms.c **** }
 763              		.loc 1 477 0
 764 000a 00BF     		nop
 765 000c BD46     		mov	sp, r7
 766              		.cfi_def_cfa_register 13
 767              		@ sp needed
 768 000e 80BC     		pop	{r7}
 769              		.cfi_restore 7
 770              		.cfi_def_cfa_offset 0
 771 0010 7047     		bx	lr
 772              	.L59:
 773 0012 00BF     		.align	2
ARM GAS  C:\Users\MARTHN~1\AppData\Local\Temp\ccfrtomi.s 			page 23


 774              	.L58:
 775 0014 00E100E0 		.word	-536813312
 776              		.cfi_endproc
 777              	.LFE71:
 778              		.size	isr_Timer_50ms_Enable, .-isr_Timer_50ms_Enable
 779              		.section	.text.isr_Timer_50ms_GetState,"ax",%progbits
 780              		.align	2
 781              		.global	isr_Timer_50ms_GetState
 782              		.thumb
 783              		.thumb_func
 784              		.type	isr_Timer_50ms_GetState, %function
 785              	isr_Timer_50ms_GetState:
 786              	.LFB72:
 478:Generated_Source\PSoC5/isr_Timer_50ms.c **** 
 479:Generated_Source\PSoC5/isr_Timer_50ms.c **** 
 480:Generated_Source\PSoC5/isr_Timer_50ms.c **** /*******************************************************************************
 481:Generated_Source\PSoC5/isr_Timer_50ms.c **** * Function Name: isr_Timer_50ms_GetState
 482:Generated_Source\PSoC5/isr_Timer_50ms.c **** ********************************************************************************
 483:Generated_Source\PSoC5/isr_Timer_50ms.c **** *
 484:Generated_Source\PSoC5/isr_Timer_50ms.c **** * Summary:
 485:Generated_Source\PSoC5/isr_Timer_50ms.c **** *   Gets the state (enabled, disabled) of the Interrupt.
 486:Generated_Source\PSoC5/isr_Timer_50ms.c **** *
 487:Generated_Source\PSoC5/isr_Timer_50ms.c **** * Parameters:
 488:Generated_Source\PSoC5/isr_Timer_50ms.c **** *   None
 489:Generated_Source\PSoC5/isr_Timer_50ms.c **** *
 490:Generated_Source\PSoC5/isr_Timer_50ms.c **** * Return:
 491:Generated_Source\PSoC5/isr_Timer_50ms.c **** *   1 if enabled, 0 if disabled.
 492:Generated_Source\PSoC5/isr_Timer_50ms.c **** *
 493:Generated_Source\PSoC5/isr_Timer_50ms.c **** *******************************************************************************/
 494:Generated_Source\PSoC5/isr_Timer_50ms.c **** uint8 isr_Timer_50ms_GetState(void)
 495:Generated_Source\PSoC5/isr_Timer_50ms.c **** {
 787              		.loc 1 495 0
 788              		.cfi_startproc
 789              		@ args = 0, pretend = 0, frame = 0
 790              		@ frame_needed = 1, uses_anonymous_args = 0
 791              		@ link register save eliminated.
 792 0000 80B4     		push	{r7}
 793              		.cfi_def_cfa_offset 4
 794              		.cfi_offset 7, -4
 795 0002 00AF     		add	r7, sp, #0
 796              		.cfi_def_cfa_register 7
 496:Generated_Source\PSoC5/isr_Timer_50ms.c ****     /* Get the state of the general interrupt. */
 497:Generated_Source\PSoC5/isr_Timer_50ms.c ****     return ((*isr_Timer_50ms_INTC_SET_EN & (uint32)isr_Timer_50ms__INTC_MASK) != 0u) ? 1u:0u;
 797              		.loc 1 497 0
 798 0004 064B     		ldr	r3, .L64
 799 0006 1B68     		ldr	r3, [r3]
 800 0008 03F02003 		and	r3, r3, #32
 801 000c 002B     		cmp	r3, #0
 802 000e 01D0     		beq	.L61
 803              		.loc 1 497 0 is_stmt 0 discriminator 1
 804 0010 0123     		movs	r3, #1
 805 0012 00E0     		b	.L62
 806              	.L61:
 807              		.loc 1 497 0 discriminator 2
 808 0014 0023     		movs	r3, #0
 809              	.L62:
 498:Generated_Source\PSoC5/isr_Timer_50ms.c **** }
ARM GAS  C:\Users\MARTHN~1\AppData\Local\Temp\ccfrtomi.s 			page 24


 810              		.loc 1 498 0 is_stmt 1 discriminator 4
 811 0016 1846     		mov	r0, r3
 812 0018 BD46     		mov	sp, r7
 813              		.cfi_def_cfa_register 13
 814              		@ sp needed
 815 001a 80BC     		pop	{r7}
 816              		.cfi_restore 7
 817              		.cfi_def_cfa_offset 0
 818 001c 7047     		bx	lr
 819              	.L65:
 820 001e 00BF     		.align	2
 821              	.L64:
 822 0020 00E100E0 		.word	-536813312
 823              		.cfi_endproc
 824              	.LFE72:
 825              		.size	isr_Timer_50ms_GetState, .-isr_Timer_50ms_GetState
 826              		.section	.text.isr_Timer_50ms_Disable,"ax",%progbits
 827              		.align	2
 828              		.global	isr_Timer_50ms_Disable
 829              		.thumb
 830              		.thumb_func
 831              		.type	isr_Timer_50ms_Disable, %function
 832              	isr_Timer_50ms_Disable:
 833              	.LFB73:
 499:Generated_Source\PSoC5/isr_Timer_50ms.c **** 
 500:Generated_Source\PSoC5/isr_Timer_50ms.c **** 
 501:Generated_Source\PSoC5/isr_Timer_50ms.c **** /*******************************************************************************
 502:Generated_Source\PSoC5/isr_Timer_50ms.c **** * Function Name: isr_Timer_50ms_Disable
 503:Generated_Source\PSoC5/isr_Timer_50ms.c **** ********************************************************************************
 504:Generated_Source\PSoC5/isr_Timer_50ms.c **** *
 505:Generated_Source\PSoC5/isr_Timer_50ms.c **** * Summary:
 506:Generated_Source\PSoC5/isr_Timer_50ms.c **** *   Disables the Interrupt in the interrupt controller.
 507:Generated_Source\PSoC5/isr_Timer_50ms.c **** *
 508:Generated_Source\PSoC5/isr_Timer_50ms.c **** * Parameters:
 509:Generated_Source\PSoC5/isr_Timer_50ms.c **** *   None
 510:Generated_Source\PSoC5/isr_Timer_50ms.c **** *
 511:Generated_Source\PSoC5/isr_Timer_50ms.c **** * Return:
 512:Generated_Source\PSoC5/isr_Timer_50ms.c **** *   None
 513:Generated_Source\PSoC5/isr_Timer_50ms.c **** *
 514:Generated_Source\PSoC5/isr_Timer_50ms.c **** *******************************************************************************/
 515:Generated_Source\PSoC5/isr_Timer_50ms.c **** void isr_Timer_50ms_Disable(void)
 516:Generated_Source\PSoC5/isr_Timer_50ms.c **** {
 834              		.loc 1 516 0
 835              		.cfi_startproc
 836              		@ args = 0, pretend = 0, frame = 0
 837              		@ frame_needed = 1, uses_anonymous_args = 0
 838              		@ link register save eliminated.
 839 0000 80B4     		push	{r7}
 840              		.cfi_def_cfa_offset 4
 841              		.cfi_offset 7, -4
 842 0002 00AF     		add	r7, sp, #0
 843              		.cfi_def_cfa_register 7
 517:Generated_Source\PSoC5/isr_Timer_50ms.c ****     /* Disable the general interrupt. */
 518:Generated_Source\PSoC5/isr_Timer_50ms.c ****     *isr_Timer_50ms_INTC_CLR_EN = isr_Timer_50ms__INTC_MASK;
 844              		.loc 1 518 0
 845 0004 034B     		ldr	r3, .L67
 846 0006 2022     		movs	r2, #32
ARM GAS  C:\Users\MARTHN~1\AppData\Local\Temp\ccfrtomi.s 			page 25


 847 0008 1A60     		str	r2, [r3]
 519:Generated_Source\PSoC5/isr_Timer_50ms.c **** }
 848              		.loc 1 519 0
 849 000a 00BF     		nop
 850 000c BD46     		mov	sp, r7
 851              		.cfi_def_cfa_register 13
 852              		@ sp needed
 853 000e 80BC     		pop	{r7}
 854              		.cfi_restore 7
 855              		.cfi_def_cfa_offset 0
 856 0010 7047     		bx	lr
 857              	.L68:
 858 0012 00BF     		.align	2
 859              	.L67:
 860 0014 80E100E0 		.word	-536813184
 861              		.cfi_endproc
 862              	.LFE73:
 863              		.size	isr_Timer_50ms_Disable, .-isr_Timer_50ms_Disable
 864              		.section	.text.isr_Timer_50ms_SetPending,"ax",%progbits
 865              		.align	2
 866              		.global	isr_Timer_50ms_SetPending
 867              		.thumb
 868              		.thumb_func
 869              		.type	isr_Timer_50ms_SetPending, %function
 870              	isr_Timer_50ms_SetPending:
 871              	.LFB74:
 520:Generated_Source\PSoC5/isr_Timer_50ms.c **** 
 521:Generated_Source\PSoC5/isr_Timer_50ms.c **** 
 522:Generated_Source\PSoC5/isr_Timer_50ms.c **** /*******************************************************************************
 523:Generated_Source\PSoC5/isr_Timer_50ms.c **** * Function Name: isr_Timer_50ms_SetPending
 524:Generated_Source\PSoC5/isr_Timer_50ms.c **** ********************************************************************************
 525:Generated_Source\PSoC5/isr_Timer_50ms.c **** *
 526:Generated_Source\PSoC5/isr_Timer_50ms.c **** * Summary:
 527:Generated_Source\PSoC5/isr_Timer_50ms.c **** *   Causes the Interrupt to enter the pending state, a software method of
 528:Generated_Source\PSoC5/isr_Timer_50ms.c **** *   generating the interrupt.
 529:Generated_Source\PSoC5/isr_Timer_50ms.c **** *
 530:Generated_Source\PSoC5/isr_Timer_50ms.c **** * Parameters:
 531:Generated_Source\PSoC5/isr_Timer_50ms.c **** *   None
 532:Generated_Source\PSoC5/isr_Timer_50ms.c **** *
 533:Generated_Source\PSoC5/isr_Timer_50ms.c **** * Return:
 534:Generated_Source\PSoC5/isr_Timer_50ms.c **** *   None
 535:Generated_Source\PSoC5/isr_Timer_50ms.c **** *
 536:Generated_Source\PSoC5/isr_Timer_50ms.c **** * Side Effects:
 537:Generated_Source\PSoC5/isr_Timer_50ms.c **** *   If interrupts are enabled and the interrupt is set up properly, the ISR is
 538:Generated_Source\PSoC5/isr_Timer_50ms.c **** *   entered (depending on the priority of this interrupt and other pending 
 539:Generated_Source\PSoC5/isr_Timer_50ms.c **** *   interrupts).
 540:Generated_Source\PSoC5/isr_Timer_50ms.c **** *
 541:Generated_Source\PSoC5/isr_Timer_50ms.c **** *******************************************************************************/
 542:Generated_Source\PSoC5/isr_Timer_50ms.c **** void isr_Timer_50ms_SetPending(void)
 543:Generated_Source\PSoC5/isr_Timer_50ms.c **** {
 872              		.loc 1 543 0
 873              		.cfi_startproc
 874              		@ args = 0, pretend = 0, frame = 0
 875              		@ frame_needed = 1, uses_anonymous_args = 0
 876              		@ link register save eliminated.
 877 0000 80B4     		push	{r7}
 878              		.cfi_def_cfa_offset 4
ARM GAS  C:\Users\MARTHN~1\AppData\Local\Temp\ccfrtomi.s 			page 26


 879              		.cfi_offset 7, -4
 880 0002 00AF     		add	r7, sp, #0
 881              		.cfi_def_cfa_register 7
 544:Generated_Source\PSoC5/isr_Timer_50ms.c ****     *isr_Timer_50ms_INTC_SET_PD = isr_Timer_50ms__INTC_MASK;
 882              		.loc 1 544 0
 883 0004 034B     		ldr	r3, .L70
 884 0006 2022     		movs	r2, #32
 885 0008 1A60     		str	r2, [r3]
 545:Generated_Source\PSoC5/isr_Timer_50ms.c **** }
 886              		.loc 1 545 0
 887 000a 00BF     		nop
 888 000c BD46     		mov	sp, r7
 889              		.cfi_def_cfa_register 13
 890              		@ sp needed
 891 000e 80BC     		pop	{r7}
 892              		.cfi_restore 7
 893              		.cfi_def_cfa_offset 0
 894 0010 7047     		bx	lr
 895              	.L71:
 896 0012 00BF     		.align	2
 897              	.L70:
 898 0014 00E200E0 		.word	-536813056
 899              		.cfi_endproc
 900              	.LFE74:
 901              		.size	isr_Timer_50ms_SetPending, .-isr_Timer_50ms_SetPending
 902              		.section	.text.isr_Timer_50ms_ClearPending,"ax",%progbits
 903              		.align	2
 904              		.global	isr_Timer_50ms_ClearPending
 905              		.thumb
 906              		.thumb_func
 907              		.type	isr_Timer_50ms_ClearPending, %function
 908              	isr_Timer_50ms_ClearPending:
 909              	.LFB75:
 546:Generated_Source\PSoC5/isr_Timer_50ms.c **** 
 547:Generated_Source\PSoC5/isr_Timer_50ms.c **** 
 548:Generated_Source\PSoC5/isr_Timer_50ms.c **** /*******************************************************************************
 549:Generated_Source\PSoC5/isr_Timer_50ms.c **** * Function Name: isr_Timer_50ms_ClearPending
 550:Generated_Source\PSoC5/isr_Timer_50ms.c **** ********************************************************************************
 551:Generated_Source\PSoC5/isr_Timer_50ms.c **** *
 552:Generated_Source\PSoC5/isr_Timer_50ms.c **** * Summary:
 553:Generated_Source\PSoC5/isr_Timer_50ms.c **** *   Clears a pending interrupt in the interrupt controller.
 554:Generated_Source\PSoC5/isr_Timer_50ms.c **** *
 555:Generated_Source\PSoC5/isr_Timer_50ms.c **** *   Note Some interrupt sources are clear-on-read and require the block 
 556:Generated_Source\PSoC5/isr_Timer_50ms.c **** *   interrupt/status register to be read/cleared with the appropriate block API 
 557:Generated_Source\PSoC5/isr_Timer_50ms.c **** *   (GPIO, UART, and so on). Otherwise the ISR will continue to remain in 
 558:Generated_Source\PSoC5/isr_Timer_50ms.c **** *   pending state even though the interrupt itself is cleared using this API.
 559:Generated_Source\PSoC5/isr_Timer_50ms.c **** *
 560:Generated_Source\PSoC5/isr_Timer_50ms.c **** * Parameters:
 561:Generated_Source\PSoC5/isr_Timer_50ms.c **** *   None
 562:Generated_Source\PSoC5/isr_Timer_50ms.c **** *
 563:Generated_Source\PSoC5/isr_Timer_50ms.c **** * Return:
 564:Generated_Source\PSoC5/isr_Timer_50ms.c **** *   None
 565:Generated_Source\PSoC5/isr_Timer_50ms.c **** *
 566:Generated_Source\PSoC5/isr_Timer_50ms.c **** *******************************************************************************/
 567:Generated_Source\PSoC5/isr_Timer_50ms.c **** void isr_Timer_50ms_ClearPending(void)
 568:Generated_Source\PSoC5/isr_Timer_50ms.c **** {
 910              		.loc 1 568 0
ARM GAS  C:\Users\MARTHN~1\AppData\Local\Temp\ccfrtomi.s 			page 27


 911              		.cfi_startproc
 912              		@ args = 0, pretend = 0, frame = 0
 913              		@ frame_needed = 1, uses_anonymous_args = 0
 914              		@ link register save eliminated.
 915 0000 80B4     		push	{r7}
 916              		.cfi_def_cfa_offset 4
 917              		.cfi_offset 7, -4
 918 0002 00AF     		add	r7, sp, #0
 919              		.cfi_def_cfa_register 7
 569:Generated_Source\PSoC5/isr_Timer_50ms.c ****     *isr_Timer_50ms_INTC_CLR_PD = isr_Timer_50ms__INTC_MASK;
 920              		.loc 1 569 0
 921 0004 034B     		ldr	r3, .L73
 922 0006 2022     		movs	r2, #32
 923 0008 1A60     		str	r2, [r3]
 570:Generated_Source\PSoC5/isr_Timer_50ms.c **** }
 924              		.loc 1 570 0
 925 000a 00BF     		nop
 926 000c BD46     		mov	sp, r7
 927              		.cfi_def_cfa_register 13
 928              		@ sp needed
 929 000e 80BC     		pop	{r7}
 930              		.cfi_restore 7
 931              		.cfi_def_cfa_offset 0
 932 0010 7047     		bx	lr
 933              	.L74:
 934 0012 00BF     		.align	2
 935              	.L73:
 936 0014 80E200E0 		.word	-536812928
 937              		.cfi_endproc
 938              	.LFE75:
 939              		.size	isr_Timer_50ms_ClearPending, .-isr_Timer_50ms_ClearPending
 940              		.text
 941              	.Letext0:
 942              		.file 2 "c:\\program files (x86)\\cypress\\psoc creator\\4.3\\psoc creator\\import\\gnu\\arm\\5.4.
 943              		.file 3 "c:\\program files (x86)\\cypress\\psoc creator\\4.3\\psoc creator\\import\\gnu\\arm\\5.4.
 944              		.file 4 "Generated_Source\\PSoC5/cytypes.h"
 945              		.file 5 "./CommonVariables.h"
 946              		.file 6 "Generated_Source\\PSoC5/core_cm3.h"