ARM GAS  C:\Users\MARTHN~1\AppData\Local\Temp\ccfToeiu.s 			page 1


   1              		.syntax unified
   2              		.cpu cortex-m3
   3              		.fpu softvfp
   4              		.eabi_attribute 20, 1
   5              		.eabi_attribute 21, 1
   6              		.eabi_attribute 23, 3
   7              		.eabi_attribute 24, 1
   8              		.eabi_attribute 25, 1
   9              		.eabi_attribute 26, 1
  10              		.eabi_attribute 30, 6
  11              		.eabi_attribute 34, 1
  12              		.eabi_attribute 18, 4
  13              		.thumb
  14              		.syntax unified
  15              		.file	"isr_Timer_20ms.c"
  16              		.text
  17              	.Ltext0:
  18              		.cfi_sections	.debug_frame
  19              		.comm	Test,3,4
  20              		.section	.text.isr_Timer_20ms_Start,"ax",%progbits
  21              		.align	2
  22              		.global	isr_Timer_20ms_Start
  23              		.thumb
  24              		.thumb_func
  25              		.type	isr_Timer_20ms_Start, %function
  26              	isr_Timer_20ms_Start:
  27              	.LFB63:
  28              		.file 1 "Generated_Source\\PSoC5\\isr_Timer_20ms.c"
   1:Generated_Source\PSoC5/isr_Timer_20ms.c **** /*******************************************************************************
   2:Generated_Source\PSoC5/isr_Timer_20ms.c **** * File Name: isr_Timer_20ms.c  
   3:Generated_Source\PSoC5/isr_Timer_20ms.c **** * Version 1.70
   4:Generated_Source\PSoC5/isr_Timer_20ms.c **** *
   5:Generated_Source\PSoC5/isr_Timer_20ms.c **** *  Description:
   6:Generated_Source\PSoC5/isr_Timer_20ms.c **** *   API for controlling the state of an interrupt.
   7:Generated_Source\PSoC5/isr_Timer_20ms.c **** *
   8:Generated_Source\PSoC5/isr_Timer_20ms.c **** *
   9:Generated_Source\PSoC5/isr_Timer_20ms.c **** *  Note:
  10:Generated_Source\PSoC5/isr_Timer_20ms.c **** *
  11:Generated_Source\PSoC5/isr_Timer_20ms.c **** ********************************************************************************
  12:Generated_Source\PSoC5/isr_Timer_20ms.c **** * Copyright 2008-2015, Cypress Semiconductor Corporation.  All rights reserved.
  13:Generated_Source\PSoC5/isr_Timer_20ms.c **** * You may use this file only in accordance with the license, terms, conditions, 
  14:Generated_Source\PSoC5/isr_Timer_20ms.c **** * disclaimers, and limitations in the end user license agreement accompanying 
  15:Generated_Source\PSoC5/isr_Timer_20ms.c **** * the software package with which this file was provided.
  16:Generated_Source\PSoC5/isr_Timer_20ms.c **** *******************************************************************************/
  17:Generated_Source\PSoC5/isr_Timer_20ms.c **** 
  18:Generated_Source\PSoC5/isr_Timer_20ms.c **** 
  19:Generated_Source\PSoC5/isr_Timer_20ms.c **** #include <cydevice_trm.h>
  20:Generated_Source\PSoC5/isr_Timer_20ms.c **** #include <CyLib.h>
  21:Generated_Source\PSoC5/isr_Timer_20ms.c **** #include <isr_Timer_20ms.h>
  22:Generated_Source\PSoC5/isr_Timer_20ms.c **** #include "cyapicallbacks.h"
  23:Generated_Source\PSoC5/isr_Timer_20ms.c **** 
  24:Generated_Source\PSoC5/isr_Timer_20ms.c **** #if !defined(isr_Timer_20ms__REMOVED) /* Check for removal by optimization */
  25:Generated_Source\PSoC5/isr_Timer_20ms.c **** 
  26:Generated_Source\PSoC5/isr_Timer_20ms.c **** /*******************************************************************************
  27:Generated_Source\PSoC5/isr_Timer_20ms.c **** *  Place your includes, defines and code here 
  28:Generated_Source\PSoC5/isr_Timer_20ms.c **** ********************************************************************************/
  29:Generated_Source\PSoC5/isr_Timer_20ms.c **** /* `#START isr_Timer_20ms_intc` */
ARM GAS  C:\Users\MARTHN~1\AppData\Local\Temp\ccfToeiu.s 			page 2


  30:Generated_Source\PSoC5/isr_Timer_20ms.c ****     
  31:Generated_Source\PSoC5/isr_Timer_20ms.c **** //    //#include "ControllerTest.h"
  32:Generated_Source\PSoC5/isr_Timer_20ms.c ****     #include "UART_230400_Functions.h"
  33:Generated_Source\PSoC5/isr_Timer_20ms.c ****     #include "ControllerTest.h"
  34:Generated_Source\PSoC5/isr_Timer_20ms.c ****     #include "RelayTest.h"
  35:Generated_Source\PSoC5/isr_Timer_20ms.c ****     #include "SirenTest.h"
  36:Generated_Source\PSoC5/isr_Timer_20ms.c ****     #include "CommonVariables.h"
  37:Generated_Source\PSoC5/isr_Timer_20ms.c ****     
  38:Generated_Source\PSoC5/isr_Timer_20ms.c ****        // extern uint16 _100ms_flag;
  39:Generated_Source\PSoC5/isr_Timer_20ms.c **** 
  40:Generated_Source\PSoC5/isr_Timer_20ms.c **** /* `#END` */
  41:Generated_Source\PSoC5/isr_Timer_20ms.c **** 
  42:Generated_Source\PSoC5/isr_Timer_20ms.c **** #ifndef CYINT_IRQ_BASE
  43:Generated_Source\PSoC5/isr_Timer_20ms.c **** #define CYINT_IRQ_BASE      16
  44:Generated_Source\PSoC5/isr_Timer_20ms.c **** #endif /* CYINT_IRQ_BASE */
  45:Generated_Source\PSoC5/isr_Timer_20ms.c **** #ifndef CYINT_VECT_TABLE
  46:Generated_Source\PSoC5/isr_Timer_20ms.c **** #define CYINT_VECT_TABLE    ((cyisraddress **) CYREG_NVIC_VECT_OFFSET)
  47:Generated_Source\PSoC5/isr_Timer_20ms.c **** #endif /* CYINT_VECT_TABLE */
  48:Generated_Source\PSoC5/isr_Timer_20ms.c **** 
  49:Generated_Source\PSoC5/isr_Timer_20ms.c **** /* Declared in startup, used to set unused interrupts to. */
  50:Generated_Source\PSoC5/isr_Timer_20ms.c **** CY_ISR_PROTO(IntDefaultHandler);
  51:Generated_Source\PSoC5/isr_Timer_20ms.c **** 
  52:Generated_Source\PSoC5/isr_Timer_20ms.c **** 
  53:Generated_Source\PSoC5/isr_Timer_20ms.c **** /*******************************************************************************
  54:Generated_Source\PSoC5/isr_Timer_20ms.c **** * Function Name: isr_Timer_20ms_Start
  55:Generated_Source\PSoC5/isr_Timer_20ms.c **** ********************************************************************************
  56:Generated_Source\PSoC5/isr_Timer_20ms.c **** *
  57:Generated_Source\PSoC5/isr_Timer_20ms.c **** * Summary:
  58:Generated_Source\PSoC5/isr_Timer_20ms.c **** *  Set up the interrupt and enable it. This function disables the interrupt, 
  59:Generated_Source\PSoC5/isr_Timer_20ms.c **** *  sets the default interrupt vector, sets the priority from the value in the
  60:Generated_Source\PSoC5/isr_Timer_20ms.c **** *  Design Wide Resources Interrupt Editor, then enables the interrupt to the 
  61:Generated_Source\PSoC5/isr_Timer_20ms.c **** *  interrupt controller.
  62:Generated_Source\PSoC5/isr_Timer_20ms.c **** *
  63:Generated_Source\PSoC5/isr_Timer_20ms.c **** * Parameters:  
  64:Generated_Source\PSoC5/isr_Timer_20ms.c **** *   None
  65:Generated_Source\PSoC5/isr_Timer_20ms.c **** *
  66:Generated_Source\PSoC5/isr_Timer_20ms.c **** * Return:
  67:Generated_Source\PSoC5/isr_Timer_20ms.c **** *   None
  68:Generated_Source\PSoC5/isr_Timer_20ms.c **** *
  69:Generated_Source\PSoC5/isr_Timer_20ms.c **** *******************************************************************************/
  70:Generated_Source\PSoC5/isr_Timer_20ms.c **** void isr_Timer_20ms_Start(void)
  71:Generated_Source\PSoC5/isr_Timer_20ms.c **** {
  29              		.loc 1 71 0
  30              		.cfi_startproc
  31              		@ args = 0, pretend = 0, frame = 0
  32              		@ frame_needed = 1, uses_anonymous_args = 0
  33 0000 80B5     		push	{r7, lr}
  34              		.cfi_def_cfa_offset 8
  35              		.cfi_offset 7, -8
  36              		.cfi_offset 14, -4
  37 0002 00AF     		add	r7, sp, #0
  38              		.cfi_def_cfa_register 7
  72:Generated_Source\PSoC5/isr_Timer_20ms.c ****     /* For all we know the interrupt is active. */
  73:Generated_Source\PSoC5/isr_Timer_20ms.c ****     isr_Timer_20ms_Disable();
  39              		.loc 1 73 0
  40 0004 FFF7FEFF 		bl	isr_Timer_20ms_Disable
  74:Generated_Source\PSoC5/isr_Timer_20ms.c **** 
ARM GAS  C:\Users\MARTHN~1\AppData\Local\Temp\ccfToeiu.s 			page 3


  75:Generated_Source\PSoC5/isr_Timer_20ms.c ****     /* Set the ISR to point to the isr_Timer_20ms Interrupt. */
  76:Generated_Source\PSoC5/isr_Timer_20ms.c ****     isr_Timer_20ms_SetVector(&isr_Timer_20ms_Interrupt);
  41              		.loc 1 76 0
  42 0008 0448     		ldr	r0, .L2
  43 000a FFF7FEFF 		bl	isr_Timer_20ms_SetVector
  77:Generated_Source\PSoC5/isr_Timer_20ms.c **** 
  78:Generated_Source\PSoC5/isr_Timer_20ms.c ****     /* Set the priority. */
  79:Generated_Source\PSoC5/isr_Timer_20ms.c ****     isr_Timer_20ms_SetPriority((uint8)isr_Timer_20ms_INTC_PRIOR_NUMBER);
  44              		.loc 1 79 0
  45 000e 0520     		movs	r0, #5
  46 0010 FFF7FEFF 		bl	isr_Timer_20ms_SetPriority
  80:Generated_Source\PSoC5/isr_Timer_20ms.c **** 
  81:Generated_Source\PSoC5/isr_Timer_20ms.c ****     /* Enable it. */
  82:Generated_Source\PSoC5/isr_Timer_20ms.c ****     isr_Timer_20ms_Enable();
  47              		.loc 1 82 0
  48 0014 FFF7FEFF 		bl	isr_Timer_20ms_Enable
  83:Generated_Source\PSoC5/isr_Timer_20ms.c **** }
  49              		.loc 1 83 0
  50 0018 00BF     		nop
  51 001a 80BD     		pop	{r7, pc}
  52              	.L3:
  53              		.align	2
  54              	.L2:
  55 001c 00000000 		.word	isr_Timer_20ms_Interrupt
  56              		.cfi_endproc
  57              	.LFE63:
  58              		.size	isr_Timer_20ms_Start, .-isr_Timer_20ms_Start
  59              		.section	.text.isr_Timer_20ms_StartEx,"ax",%progbits
  60              		.align	2
  61              		.global	isr_Timer_20ms_StartEx
  62              		.thumb
  63              		.thumb_func
  64              		.type	isr_Timer_20ms_StartEx, %function
  65              	isr_Timer_20ms_StartEx:
  66              	.LFB64:
  84:Generated_Source\PSoC5/isr_Timer_20ms.c **** 
  85:Generated_Source\PSoC5/isr_Timer_20ms.c **** 
  86:Generated_Source\PSoC5/isr_Timer_20ms.c **** /*******************************************************************************
  87:Generated_Source\PSoC5/isr_Timer_20ms.c **** * Function Name: isr_Timer_20ms_StartEx
  88:Generated_Source\PSoC5/isr_Timer_20ms.c **** ********************************************************************************
  89:Generated_Source\PSoC5/isr_Timer_20ms.c **** *
  90:Generated_Source\PSoC5/isr_Timer_20ms.c **** * Summary:
  91:Generated_Source\PSoC5/isr_Timer_20ms.c **** *  Sets up the interrupt and enables it. This function disables the interrupt,
  92:Generated_Source\PSoC5/isr_Timer_20ms.c **** *  sets the interrupt vector based on the address passed in, sets the priority 
  93:Generated_Source\PSoC5/isr_Timer_20ms.c **** *  from the value in the Design Wide Resources Interrupt Editor, then enables 
  94:Generated_Source\PSoC5/isr_Timer_20ms.c **** *  the interrupt to the interrupt controller.
  95:Generated_Source\PSoC5/isr_Timer_20ms.c **** *  
  96:Generated_Source\PSoC5/isr_Timer_20ms.c **** *  When defining ISR functions, the CY_ISR and CY_ISR_PROTO macros should be 
  97:Generated_Source\PSoC5/isr_Timer_20ms.c **** *  used to provide consistent definition across compilers:
  98:Generated_Source\PSoC5/isr_Timer_20ms.c **** *  
  99:Generated_Source\PSoC5/isr_Timer_20ms.c **** *  Function definition example:
 100:Generated_Source\PSoC5/isr_Timer_20ms.c **** *   CY_ISR(MyISR)
 101:Generated_Source\PSoC5/isr_Timer_20ms.c **** *   {
 102:Generated_Source\PSoC5/isr_Timer_20ms.c **** *   }
 103:Generated_Source\PSoC5/isr_Timer_20ms.c **** *   Function prototype example:
 104:Generated_Source\PSoC5/isr_Timer_20ms.c **** *   CY_ISR_PROTO(MyISR);
 105:Generated_Source\PSoC5/isr_Timer_20ms.c **** *
ARM GAS  C:\Users\MARTHN~1\AppData\Local\Temp\ccfToeiu.s 			page 4


 106:Generated_Source\PSoC5/isr_Timer_20ms.c **** * Parameters:  
 107:Generated_Source\PSoC5/isr_Timer_20ms.c **** *   address: Address of the ISR to set in the interrupt vector table.
 108:Generated_Source\PSoC5/isr_Timer_20ms.c **** *
 109:Generated_Source\PSoC5/isr_Timer_20ms.c **** * Return:
 110:Generated_Source\PSoC5/isr_Timer_20ms.c **** *   None
 111:Generated_Source\PSoC5/isr_Timer_20ms.c **** *
 112:Generated_Source\PSoC5/isr_Timer_20ms.c **** *******************************************************************************/
 113:Generated_Source\PSoC5/isr_Timer_20ms.c **** void isr_Timer_20ms_StartEx(cyisraddress address)
 114:Generated_Source\PSoC5/isr_Timer_20ms.c **** {
  67              		.loc 1 114 0
  68              		.cfi_startproc
  69              		@ args = 0, pretend = 0, frame = 8
  70              		@ frame_needed = 1, uses_anonymous_args = 0
  71 0000 80B5     		push	{r7, lr}
  72              		.cfi_def_cfa_offset 8
  73              		.cfi_offset 7, -8
  74              		.cfi_offset 14, -4
  75 0002 82B0     		sub	sp, sp, #8
  76              		.cfi_def_cfa_offset 16
  77 0004 00AF     		add	r7, sp, #0
  78              		.cfi_def_cfa_register 7
  79 0006 7860     		str	r0, [r7, #4]
 115:Generated_Source\PSoC5/isr_Timer_20ms.c ****     /* For all we know the interrupt is active. */
 116:Generated_Source\PSoC5/isr_Timer_20ms.c ****     isr_Timer_20ms_Disable();
  80              		.loc 1 116 0
  81 0008 FFF7FEFF 		bl	isr_Timer_20ms_Disable
 117:Generated_Source\PSoC5/isr_Timer_20ms.c **** 
 118:Generated_Source\PSoC5/isr_Timer_20ms.c ****     /* Set the ISR to point to the isr_Timer_20ms Interrupt. */
 119:Generated_Source\PSoC5/isr_Timer_20ms.c ****     isr_Timer_20ms_SetVector(address);
  82              		.loc 1 119 0
  83 000c 7868     		ldr	r0, [r7, #4]
  84 000e FFF7FEFF 		bl	isr_Timer_20ms_SetVector
 120:Generated_Source\PSoC5/isr_Timer_20ms.c **** 
 121:Generated_Source\PSoC5/isr_Timer_20ms.c ****     /* Set the priority. */
 122:Generated_Source\PSoC5/isr_Timer_20ms.c ****     isr_Timer_20ms_SetPriority((uint8)isr_Timer_20ms_INTC_PRIOR_NUMBER);
  85              		.loc 1 122 0
  86 0012 0520     		movs	r0, #5
  87 0014 FFF7FEFF 		bl	isr_Timer_20ms_SetPriority
 123:Generated_Source\PSoC5/isr_Timer_20ms.c **** 
 124:Generated_Source\PSoC5/isr_Timer_20ms.c ****     /* Enable it. */
 125:Generated_Source\PSoC5/isr_Timer_20ms.c ****     isr_Timer_20ms_Enable();
  88              		.loc 1 125 0
  89 0018 FFF7FEFF 		bl	isr_Timer_20ms_Enable
 126:Generated_Source\PSoC5/isr_Timer_20ms.c **** }
  90              		.loc 1 126 0
  91 001c 00BF     		nop
  92 001e 0837     		adds	r7, r7, #8
  93              		.cfi_def_cfa_offset 8
  94 0020 BD46     		mov	sp, r7
  95              		.cfi_def_cfa_register 13
  96              		@ sp needed
  97 0022 80BD     		pop	{r7, pc}
  98              		.cfi_endproc
  99              	.LFE64:
 100              		.size	isr_Timer_20ms_StartEx, .-isr_Timer_20ms_StartEx
 101              		.section	.text.isr_Timer_20ms_Stop,"ax",%progbits
 102              		.align	2
ARM GAS  C:\Users\MARTHN~1\AppData\Local\Temp\ccfToeiu.s 			page 5


 103              		.global	isr_Timer_20ms_Stop
 104              		.thumb
 105              		.thumb_func
 106              		.type	isr_Timer_20ms_Stop, %function
 107              	isr_Timer_20ms_Stop:
 108              	.LFB65:
 127:Generated_Source\PSoC5/isr_Timer_20ms.c **** 
 128:Generated_Source\PSoC5/isr_Timer_20ms.c **** 
 129:Generated_Source\PSoC5/isr_Timer_20ms.c **** /*******************************************************************************
 130:Generated_Source\PSoC5/isr_Timer_20ms.c **** * Function Name: isr_Timer_20ms_Stop
 131:Generated_Source\PSoC5/isr_Timer_20ms.c **** ********************************************************************************
 132:Generated_Source\PSoC5/isr_Timer_20ms.c **** *
 133:Generated_Source\PSoC5/isr_Timer_20ms.c **** * Summary:
 134:Generated_Source\PSoC5/isr_Timer_20ms.c **** *   Disables and removes the interrupt.
 135:Generated_Source\PSoC5/isr_Timer_20ms.c **** *
 136:Generated_Source\PSoC5/isr_Timer_20ms.c **** * Parameters:  
 137:Generated_Source\PSoC5/isr_Timer_20ms.c **** *   None
 138:Generated_Source\PSoC5/isr_Timer_20ms.c **** *
 139:Generated_Source\PSoC5/isr_Timer_20ms.c **** * Return:
 140:Generated_Source\PSoC5/isr_Timer_20ms.c **** *   None
 141:Generated_Source\PSoC5/isr_Timer_20ms.c **** *
 142:Generated_Source\PSoC5/isr_Timer_20ms.c **** *******************************************************************************/
 143:Generated_Source\PSoC5/isr_Timer_20ms.c **** void isr_Timer_20ms_Stop(void)
 144:Generated_Source\PSoC5/isr_Timer_20ms.c **** {
 109              		.loc 1 144 0
 110              		.cfi_startproc
 111              		@ args = 0, pretend = 0, frame = 0
 112              		@ frame_needed = 1, uses_anonymous_args = 0
 113 0000 80B5     		push	{r7, lr}
 114              		.cfi_def_cfa_offset 8
 115              		.cfi_offset 7, -8
 116              		.cfi_offset 14, -4
 117 0002 00AF     		add	r7, sp, #0
 118              		.cfi_def_cfa_register 7
 145:Generated_Source\PSoC5/isr_Timer_20ms.c ****     /* Disable this interrupt. */
 146:Generated_Source\PSoC5/isr_Timer_20ms.c ****     isr_Timer_20ms_Disable();
 119              		.loc 1 146 0
 120 0004 FFF7FEFF 		bl	isr_Timer_20ms_Disable
 147:Generated_Source\PSoC5/isr_Timer_20ms.c **** 
 148:Generated_Source\PSoC5/isr_Timer_20ms.c ****     /* Set the ISR to point to the passive one. */
 149:Generated_Source\PSoC5/isr_Timer_20ms.c ****     isr_Timer_20ms_SetVector(&IntDefaultHandler);
 121              		.loc 1 149 0
 122 0008 0248     		ldr	r0, .L6
 123 000a FFF7FEFF 		bl	isr_Timer_20ms_SetVector
 150:Generated_Source\PSoC5/isr_Timer_20ms.c **** }
 124              		.loc 1 150 0
 125 000e 00BF     		nop
 126 0010 80BD     		pop	{r7, pc}
 127              	.L7:
 128 0012 00BF     		.align	2
 129              	.L6:
 130 0014 00000000 		.word	IntDefaultHandler
 131              		.cfi_endproc
 132              	.LFE65:
 133              		.size	isr_Timer_20ms_Stop, .-isr_Timer_20ms_Stop
 134              		.section	.text.isr_Timer_20ms_Interrupt,"ax",%progbits
 135              		.align	2
ARM GAS  C:\Users\MARTHN~1\AppData\Local\Temp\ccfToeiu.s 			page 6


 136              		.global	isr_Timer_20ms_Interrupt
 137              		.thumb
 138              		.thumb_func
 139              		.type	isr_Timer_20ms_Interrupt, %function
 140              	isr_Timer_20ms_Interrupt:
 141              	.LFB66:
 151:Generated_Source\PSoC5/isr_Timer_20ms.c **** 
 152:Generated_Source\PSoC5/isr_Timer_20ms.c **** 
 153:Generated_Source\PSoC5/isr_Timer_20ms.c **** /*******************************************************************************
 154:Generated_Source\PSoC5/isr_Timer_20ms.c **** * Function Name: isr_Timer_20ms_Interrupt
 155:Generated_Source\PSoC5/isr_Timer_20ms.c **** ********************************************************************************
 156:Generated_Source\PSoC5/isr_Timer_20ms.c **** *
 157:Generated_Source\PSoC5/isr_Timer_20ms.c **** * Summary:
 158:Generated_Source\PSoC5/isr_Timer_20ms.c **** *   The default Interrupt Service Routine for isr_Timer_20ms.
 159:Generated_Source\PSoC5/isr_Timer_20ms.c **** *
 160:Generated_Source\PSoC5/isr_Timer_20ms.c **** *   Add custom code between the coments to keep the next version of this file
 161:Generated_Source\PSoC5/isr_Timer_20ms.c **** *   from over writting your code.
 162:Generated_Source\PSoC5/isr_Timer_20ms.c **** *
 163:Generated_Source\PSoC5/isr_Timer_20ms.c **** * Parameters:  
 164:Generated_Source\PSoC5/isr_Timer_20ms.c **** *
 165:Generated_Source\PSoC5/isr_Timer_20ms.c **** * Return:
 166:Generated_Source\PSoC5/isr_Timer_20ms.c **** *   None
 167:Generated_Source\PSoC5/isr_Timer_20ms.c **** *
 168:Generated_Source\PSoC5/isr_Timer_20ms.c **** *******************************************************************************/
 169:Generated_Source\PSoC5/isr_Timer_20ms.c **** CY_ISR(isr_Timer_20ms_Interrupt)
 170:Generated_Source\PSoC5/isr_Timer_20ms.c **** {
 142              		.loc 1 170 0
 143              		.cfi_startproc
 144              		@ args = 0, pretend = 0, frame = 0
 145              		@ frame_needed = 1, uses_anonymous_args = 0
 146 0000 80B5     		push	{r7, lr}
 147              		.cfi_def_cfa_offset 8
 148              		.cfi_offset 7, -8
 149              		.cfi_offset 14, -4
 150 0002 00AF     		add	r7, sp, #0
 151              		.cfi_def_cfa_register 7
 171:Generated_Source\PSoC5/isr_Timer_20ms.c ****     #ifdef isr_Timer_20ms_INTERRUPT_INTERRUPT_CALLBACK
 172:Generated_Source\PSoC5/isr_Timer_20ms.c ****         isr_Timer_20ms_Interrupt_InterruptCallback();
 173:Generated_Source\PSoC5/isr_Timer_20ms.c ****     #endif /* isr_Timer_20ms_INTERRUPT_INTERRUPT_CALLBACK */ 
 174:Generated_Source\PSoC5/isr_Timer_20ms.c **** 
 175:Generated_Source\PSoC5/isr_Timer_20ms.c ****     /*  Place your Interrupt code here. */
 176:Generated_Source\PSoC5/isr_Timer_20ms.c ****     /* `#START isr_Timer_20ms_Interrupt` */
 177:Generated_Source\PSoC5/isr_Timer_20ms.c ****         
 178:Generated_Source\PSoC5/isr_Timer_20ms.c ****         CTest_20ms_isr();
 152              		.loc 1 178 0
 153 0004 FFF7FEFF 		bl	CTest_20ms_isr
 179:Generated_Source\PSoC5/isr_Timer_20ms.c ****         RTest_20ms_isr();
 154              		.loc 1 179 0
 155 0008 FFF7FEFF 		bl	RTest_20ms_isr
 180:Generated_Source\PSoC5/isr_Timer_20ms.c ****         STest_20ms_isr();
 156              		.loc 1 180 0
 157 000c FFF7FEFF 		bl	STest_20ms_isr
 181:Generated_Source\PSoC5/isr_Timer_20ms.c ****         CTest_Complete_20ms_isr();
 158              		.loc 1 181 0
 159 0010 FFF7FEFF 		bl	CTest_Complete_20ms_isr
 182:Generated_Source\PSoC5/isr_Timer_20ms.c ****         RTest_Complete_20ms_isr();
 160              		.loc 1 182 0
ARM GAS  C:\Users\MARTHN~1\AppData\Local\Temp\ccfToeiu.s 			page 7


 161 0014 FFF7FEFF 		bl	RTest_Complete_20ms_isr
 183:Generated_Source\PSoC5/isr_Timer_20ms.c ****         CableTest_Complete_20ms_isr();
 162              		.loc 1 183 0
 163 0018 FFF7FEFF 		bl	CableTest_Complete_20ms_isr
 184:Generated_Source\PSoC5/isr_Timer_20ms.c ****                     
 185:Generated_Source\PSoC5/isr_Timer_20ms.c ****         CTest_isr_PB();
 164              		.loc 1 185 0
 165 001c FFF7FEFF 		bl	CTest_isr_PB
 186:Generated_Source\PSoC5/isr_Timer_20ms.c ****         STest_isr_PB();
 166              		.loc 1 186 0
 167 0020 FFF7FEFF 		bl	STest_isr_PB
 187:Generated_Source\PSoC5/isr_Timer_20ms.c ****         //CTest_Complete_isr_PB();
 188:Generated_Source\PSoC5/isr_Timer_20ms.c ****         RTest_Complete_isr_PB();
 168              		.loc 1 188 0
 169 0024 FFF7FEFF 		bl	RTest_Complete_isr_PB
 189:Generated_Source\PSoC5/isr_Timer_20ms.c ****         
 190:Generated_Source\PSoC5/isr_Timer_20ms.c ****     /* `#END` */
 191:Generated_Source\PSoC5/isr_Timer_20ms.c **** }
 170              		.loc 1 191 0
 171 0028 00BF     		nop
 172 002a 80BD     		pop	{r7, pc}
 173              		.cfi_endproc
 174              	.LFE66:
 175              		.size	isr_Timer_20ms_Interrupt, .-isr_Timer_20ms_Interrupt
 176              		.section	.text.isr_Timer_20ms_SetVector,"ax",%progbits
 177              		.align	2
 178              		.global	isr_Timer_20ms_SetVector
 179              		.thumb
 180              		.thumb_func
 181              		.type	isr_Timer_20ms_SetVector, %function
 182              	isr_Timer_20ms_SetVector:
 183              	.LFB67:
 192:Generated_Source\PSoC5/isr_Timer_20ms.c **** 
 193:Generated_Source\PSoC5/isr_Timer_20ms.c **** 
 194:Generated_Source\PSoC5/isr_Timer_20ms.c **** /*******************************************************************************
 195:Generated_Source\PSoC5/isr_Timer_20ms.c **** * Function Name: isr_Timer_20ms_SetVector
 196:Generated_Source\PSoC5/isr_Timer_20ms.c **** ********************************************************************************
 197:Generated_Source\PSoC5/isr_Timer_20ms.c **** *
 198:Generated_Source\PSoC5/isr_Timer_20ms.c **** * Summary:
 199:Generated_Source\PSoC5/isr_Timer_20ms.c **** *   Change the ISR vector for the Interrupt. Note calling isr_Timer_20ms_Start
 200:Generated_Source\PSoC5/isr_Timer_20ms.c **** *   will override any effect this method would have had. To set the vector 
 201:Generated_Source\PSoC5/isr_Timer_20ms.c **** *   before the component has been started use isr_Timer_20ms_StartEx instead.
 202:Generated_Source\PSoC5/isr_Timer_20ms.c **** * 
 203:Generated_Source\PSoC5/isr_Timer_20ms.c **** *   When defining ISR functions, the CY_ISR and CY_ISR_PROTO macros should be 
 204:Generated_Source\PSoC5/isr_Timer_20ms.c **** *   used to provide consistent definition across compilers:
 205:Generated_Source\PSoC5/isr_Timer_20ms.c **** *
 206:Generated_Source\PSoC5/isr_Timer_20ms.c **** *   Function definition example:
 207:Generated_Source\PSoC5/isr_Timer_20ms.c **** *   CY_ISR(MyISR)
 208:Generated_Source\PSoC5/isr_Timer_20ms.c **** *   {
 209:Generated_Source\PSoC5/isr_Timer_20ms.c **** *   }
 210:Generated_Source\PSoC5/isr_Timer_20ms.c **** *
 211:Generated_Source\PSoC5/isr_Timer_20ms.c **** *   Function prototype example:
 212:Generated_Source\PSoC5/isr_Timer_20ms.c **** *     CY_ISR_PROTO(MyISR);
 213:Generated_Source\PSoC5/isr_Timer_20ms.c **** *
 214:Generated_Source\PSoC5/isr_Timer_20ms.c **** * Parameters:
 215:Generated_Source\PSoC5/isr_Timer_20ms.c **** *   address: Address of the ISR to set in the interrupt vector table.
 216:Generated_Source\PSoC5/isr_Timer_20ms.c **** *
ARM GAS  C:\Users\MARTHN~1\AppData\Local\Temp\ccfToeiu.s 			page 8


 217:Generated_Source\PSoC5/isr_Timer_20ms.c **** * Return:
 218:Generated_Source\PSoC5/isr_Timer_20ms.c **** *   None
 219:Generated_Source\PSoC5/isr_Timer_20ms.c **** *
 220:Generated_Source\PSoC5/isr_Timer_20ms.c **** *******************************************************************************/
 221:Generated_Source\PSoC5/isr_Timer_20ms.c **** void isr_Timer_20ms_SetVector(cyisraddress address)
 222:Generated_Source\PSoC5/isr_Timer_20ms.c **** {
 184              		.loc 1 222 0
 185              		.cfi_startproc
 186              		@ args = 0, pretend = 0, frame = 16
 187              		@ frame_needed = 1, uses_anonymous_args = 0
 188              		@ link register save eliminated.
 189 0000 80B4     		push	{r7}
 190              		.cfi_def_cfa_offset 4
 191              		.cfi_offset 7, -4
 192 0002 85B0     		sub	sp, sp, #20
 193              		.cfi_def_cfa_offset 24
 194 0004 00AF     		add	r7, sp, #0
 195              		.cfi_def_cfa_register 7
 196 0006 7860     		str	r0, [r7, #4]
 223:Generated_Source\PSoC5/isr_Timer_20ms.c ****     cyisraddress * ramVectorTable;
 224:Generated_Source\PSoC5/isr_Timer_20ms.c **** 
 225:Generated_Source\PSoC5/isr_Timer_20ms.c ****     ramVectorTable = (cyisraddress *) *CYINT_VECT_TABLE;
 197              		.loc 1 225 0
 198 0008 054B     		ldr	r3, .L10
 199 000a 1B68     		ldr	r3, [r3]
 200 000c FB60     		str	r3, [r7, #12]
 226:Generated_Source\PSoC5/isr_Timer_20ms.c **** 
 227:Generated_Source\PSoC5/isr_Timer_20ms.c ****     ramVectorTable[CYINT_IRQ_BASE + (uint32)isr_Timer_20ms__INTC_NUMBER] = address;
 201              		.loc 1 227 0
 202 000e FB68     		ldr	r3, [r7, #12]
 203 0010 5033     		adds	r3, r3, #80
 204 0012 7A68     		ldr	r2, [r7, #4]
 205 0014 1A60     		str	r2, [r3]
 228:Generated_Source\PSoC5/isr_Timer_20ms.c **** }
 206              		.loc 1 228 0
 207 0016 00BF     		nop
 208 0018 1437     		adds	r7, r7, #20
 209              		.cfi_def_cfa_offset 4
 210 001a BD46     		mov	sp, r7
 211              		.cfi_def_cfa_register 13
 212              		@ sp needed
 213 001c 80BC     		pop	{r7}
 214              		.cfi_restore 7
 215              		.cfi_def_cfa_offset 0
 216 001e 7047     		bx	lr
 217              	.L11:
 218              		.align	2
 219              	.L10:
 220 0020 08ED00E0 		.word	-536810232
 221              		.cfi_endproc
 222              	.LFE67:
 223              		.size	isr_Timer_20ms_SetVector, .-isr_Timer_20ms_SetVector
 224              		.section	.text.isr_Timer_20ms_GetVector,"ax",%progbits
 225              		.align	2
 226              		.global	isr_Timer_20ms_GetVector
 227              		.thumb
 228              		.thumb_func
ARM GAS  C:\Users\MARTHN~1\AppData\Local\Temp\ccfToeiu.s 			page 9


 229              		.type	isr_Timer_20ms_GetVector, %function
 230              	isr_Timer_20ms_GetVector:
 231              	.LFB68:
 229:Generated_Source\PSoC5/isr_Timer_20ms.c **** 
 230:Generated_Source\PSoC5/isr_Timer_20ms.c **** 
 231:Generated_Source\PSoC5/isr_Timer_20ms.c **** /*******************************************************************************
 232:Generated_Source\PSoC5/isr_Timer_20ms.c **** * Function Name: isr_Timer_20ms_GetVector
 233:Generated_Source\PSoC5/isr_Timer_20ms.c **** ********************************************************************************
 234:Generated_Source\PSoC5/isr_Timer_20ms.c **** *
 235:Generated_Source\PSoC5/isr_Timer_20ms.c **** * Summary:
 236:Generated_Source\PSoC5/isr_Timer_20ms.c **** *   Gets the "address" of the current ISR vector for the Interrupt.
 237:Generated_Source\PSoC5/isr_Timer_20ms.c **** *
 238:Generated_Source\PSoC5/isr_Timer_20ms.c **** * Parameters:
 239:Generated_Source\PSoC5/isr_Timer_20ms.c **** *   None
 240:Generated_Source\PSoC5/isr_Timer_20ms.c **** *
 241:Generated_Source\PSoC5/isr_Timer_20ms.c **** * Return:
 242:Generated_Source\PSoC5/isr_Timer_20ms.c **** *   Address of the ISR in the interrupt vector table.
 243:Generated_Source\PSoC5/isr_Timer_20ms.c **** *
 244:Generated_Source\PSoC5/isr_Timer_20ms.c **** *******************************************************************************/
 245:Generated_Source\PSoC5/isr_Timer_20ms.c **** cyisraddress isr_Timer_20ms_GetVector(void)
 246:Generated_Source\PSoC5/isr_Timer_20ms.c **** {
 232              		.loc 1 246 0
 233              		.cfi_startproc
 234              		@ args = 0, pretend = 0, frame = 8
 235              		@ frame_needed = 1, uses_anonymous_args = 0
 236              		@ link register save eliminated.
 237 0000 80B4     		push	{r7}
 238              		.cfi_def_cfa_offset 4
 239              		.cfi_offset 7, -4
 240 0002 83B0     		sub	sp, sp, #12
 241              		.cfi_def_cfa_offset 16
 242 0004 00AF     		add	r7, sp, #0
 243              		.cfi_def_cfa_register 7
 247:Generated_Source\PSoC5/isr_Timer_20ms.c ****     cyisraddress * ramVectorTable;
 248:Generated_Source\PSoC5/isr_Timer_20ms.c **** 
 249:Generated_Source\PSoC5/isr_Timer_20ms.c ****     ramVectorTable = (cyisraddress *) *CYINT_VECT_TABLE;
 244              		.loc 1 249 0
 245 0006 054B     		ldr	r3, .L14
 246 0008 1B68     		ldr	r3, [r3]
 247 000a 7B60     		str	r3, [r7, #4]
 250:Generated_Source\PSoC5/isr_Timer_20ms.c **** 
 251:Generated_Source\PSoC5/isr_Timer_20ms.c ****     return ramVectorTable[CYINT_IRQ_BASE + (uint32)isr_Timer_20ms__INTC_NUMBER];
 248              		.loc 1 251 0
 249 000c 7B68     		ldr	r3, [r7, #4]
 250 000e 1B6D     		ldr	r3, [r3, #80]
 252:Generated_Source\PSoC5/isr_Timer_20ms.c **** }
 251              		.loc 1 252 0
 252 0010 1846     		mov	r0, r3
 253 0012 0C37     		adds	r7, r7, #12
 254              		.cfi_def_cfa_offset 4
 255 0014 BD46     		mov	sp, r7
 256              		.cfi_def_cfa_register 13
 257              		@ sp needed
 258 0016 80BC     		pop	{r7}
 259              		.cfi_restore 7
 260              		.cfi_def_cfa_offset 0
 261 0018 7047     		bx	lr
ARM GAS  C:\Users\MARTHN~1\AppData\Local\Temp\ccfToeiu.s 			page 10


 262              	.L15:
 263 001a 00BF     		.align	2
 264              	.L14:
 265 001c 08ED00E0 		.word	-536810232
 266              		.cfi_endproc
 267              	.LFE68:
 268              		.size	isr_Timer_20ms_GetVector, .-isr_Timer_20ms_GetVector
 269              		.section	.text.isr_Timer_20ms_SetPriority,"ax",%progbits
 270              		.align	2
 271              		.global	isr_Timer_20ms_SetPriority
 272              		.thumb
 273              		.thumb_func
 274              		.type	isr_Timer_20ms_SetPriority, %function
 275              	isr_Timer_20ms_SetPriority:
 276              	.LFB69:
 253:Generated_Source\PSoC5/isr_Timer_20ms.c **** 
 254:Generated_Source\PSoC5/isr_Timer_20ms.c **** 
 255:Generated_Source\PSoC5/isr_Timer_20ms.c **** /*******************************************************************************
 256:Generated_Source\PSoC5/isr_Timer_20ms.c **** * Function Name: isr_Timer_20ms_SetPriority
 257:Generated_Source\PSoC5/isr_Timer_20ms.c **** ********************************************************************************
 258:Generated_Source\PSoC5/isr_Timer_20ms.c **** *
 259:Generated_Source\PSoC5/isr_Timer_20ms.c **** * Summary:
 260:Generated_Source\PSoC5/isr_Timer_20ms.c **** *   Sets the Priority of the Interrupt. 
 261:Generated_Source\PSoC5/isr_Timer_20ms.c **** *
 262:Generated_Source\PSoC5/isr_Timer_20ms.c **** *   Note calling isr_Timer_20ms_Start or isr_Timer_20ms_StartEx will 
 263:Generated_Source\PSoC5/isr_Timer_20ms.c **** *   override any effect this API would have had. This API should only be called
 264:Generated_Source\PSoC5/isr_Timer_20ms.c **** *   after isr_Timer_20ms_Start or isr_Timer_20ms_StartEx has been called. 
 265:Generated_Source\PSoC5/isr_Timer_20ms.c **** *   To set the initial priority for the component, use the Design-Wide Resources
 266:Generated_Source\PSoC5/isr_Timer_20ms.c **** *   Interrupt Editor.
 267:Generated_Source\PSoC5/isr_Timer_20ms.c **** *
 268:Generated_Source\PSoC5/isr_Timer_20ms.c **** *   Note This API has no effect on Non-maskable interrupt NMI).
 269:Generated_Source\PSoC5/isr_Timer_20ms.c **** *
 270:Generated_Source\PSoC5/isr_Timer_20ms.c **** * Parameters:
 271:Generated_Source\PSoC5/isr_Timer_20ms.c **** *   priority: Priority of the interrupt, 0 being the highest priority
 272:Generated_Source\PSoC5/isr_Timer_20ms.c **** *             PSoC 3 and PSoC 5LP: Priority is from 0 to 7.
 273:Generated_Source\PSoC5/isr_Timer_20ms.c **** *             PSoC 4: Priority is from 0 to 3.
 274:Generated_Source\PSoC5/isr_Timer_20ms.c **** *
 275:Generated_Source\PSoC5/isr_Timer_20ms.c **** * Return:
 276:Generated_Source\PSoC5/isr_Timer_20ms.c **** *   None
 277:Generated_Source\PSoC5/isr_Timer_20ms.c **** *
 278:Generated_Source\PSoC5/isr_Timer_20ms.c **** *******************************************************************************/
 279:Generated_Source\PSoC5/isr_Timer_20ms.c **** void isr_Timer_20ms_SetPriority(uint8 priority)
 280:Generated_Source\PSoC5/isr_Timer_20ms.c **** {
 277              		.loc 1 280 0
 278              		.cfi_startproc
 279              		@ args = 0, pretend = 0, frame = 8
 280              		@ frame_needed = 1, uses_anonymous_args = 0
 281              		@ link register save eliminated.
 282 0000 80B4     		push	{r7}
 283              		.cfi_def_cfa_offset 4
 284              		.cfi_offset 7, -4
 285 0002 83B0     		sub	sp, sp, #12
 286              		.cfi_def_cfa_offset 16
 287 0004 00AF     		add	r7, sp, #0
 288              		.cfi_def_cfa_register 7
 289 0006 0346     		mov	r3, r0
 290 0008 FB71     		strb	r3, [r7, #7]
ARM GAS  C:\Users\MARTHN~1\AppData\Local\Temp\ccfToeiu.s 			page 11


 281:Generated_Source\PSoC5/isr_Timer_20ms.c ****     *isr_Timer_20ms_INTC_PRIOR = priority << 5;
 291              		.loc 1 281 0
 292 000a 054A     		ldr	r2, .L17
 293 000c FB79     		ldrb	r3, [r7, #7]
 294 000e 5B01     		lsls	r3, r3, #5
 295 0010 DBB2     		uxtb	r3, r3
 296 0012 1370     		strb	r3, [r2]
 282:Generated_Source\PSoC5/isr_Timer_20ms.c **** }
 297              		.loc 1 282 0
 298 0014 00BF     		nop
 299 0016 0C37     		adds	r7, r7, #12
 300              		.cfi_def_cfa_offset 4
 301 0018 BD46     		mov	sp, r7
 302              		.cfi_def_cfa_register 13
 303              		@ sp needed
 304 001a 80BC     		pop	{r7}
 305              		.cfi_restore 7
 306              		.cfi_def_cfa_offset 0
 307 001c 7047     		bx	lr
 308              	.L18:
 309 001e 00BF     		.align	2
 310              	.L17:
 311 0020 04E400E0 		.word	-536812540
 312              		.cfi_endproc
 313              	.LFE69:
 314              		.size	isr_Timer_20ms_SetPriority, .-isr_Timer_20ms_SetPriority
 315              		.section	.text.isr_Timer_20ms_GetPriority,"ax",%progbits
 316              		.align	2
 317              		.global	isr_Timer_20ms_GetPriority
 318              		.thumb
 319              		.thumb_func
 320              		.type	isr_Timer_20ms_GetPriority, %function
 321              	isr_Timer_20ms_GetPriority:
 322              	.LFB70:
 283:Generated_Source\PSoC5/isr_Timer_20ms.c **** 
 284:Generated_Source\PSoC5/isr_Timer_20ms.c **** 
 285:Generated_Source\PSoC5/isr_Timer_20ms.c **** /*******************************************************************************
 286:Generated_Source\PSoC5/isr_Timer_20ms.c **** * Function Name: isr_Timer_20ms_GetPriority
 287:Generated_Source\PSoC5/isr_Timer_20ms.c **** ********************************************************************************
 288:Generated_Source\PSoC5/isr_Timer_20ms.c **** *
 289:Generated_Source\PSoC5/isr_Timer_20ms.c **** * Summary:
 290:Generated_Source\PSoC5/isr_Timer_20ms.c **** *   Gets the Priority of the Interrupt.
 291:Generated_Source\PSoC5/isr_Timer_20ms.c **** *
 292:Generated_Source\PSoC5/isr_Timer_20ms.c **** * Parameters:
 293:Generated_Source\PSoC5/isr_Timer_20ms.c **** *   None
 294:Generated_Source\PSoC5/isr_Timer_20ms.c **** *
 295:Generated_Source\PSoC5/isr_Timer_20ms.c **** * Return:
 296:Generated_Source\PSoC5/isr_Timer_20ms.c **** *   Priority of the interrupt, 0 being the highest priority
 297:Generated_Source\PSoC5/isr_Timer_20ms.c **** *    PSoC 3 and PSoC 5LP: Priority is from 0 to 7.
 298:Generated_Source\PSoC5/isr_Timer_20ms.c **** *    PSoC 4: Priority is from 0 to 3.
 299:Generated_Source\PSoC5/isr_Timer_20ms.c **** *
 300:Generated_Source\PSoC5/isr_Timer_20ms.c **** *******************************************************************************/
 301:Generated_Source\PSoC5/isr_Timer_20ms.c **** uint8 isr_Timer_20ms_GetPriority(void)
 302:Generated_Source\PSoC5/isr_Timer_20ms.c **** {
 323              		.loc 1 302 0
 324              		.cfi_startproc
 325              		@ args = 0, pretend = 0, frame = 8
ARM GAS  C:\Users\MARTHN~1\AppData\Local\Temp\ccfToeiu.s 			page 12


 326              		@ frame_needed = 1, uses_anonymous_args = 0
 327              		@ link register save eliminated.
 328 0000 80B4     		push	{r7}
 329              		.cfi_def_cfa_offset 4
 330              		.cfi_offset 7, -4
 331 0002 83B0     		sub	sp, sp, #12
 332              		.cfi_def_cfa_offset 16
 333 0004 00AF     		add	r7, sp, #0
 334              		.cfi_def_cfa_register 7
 303:Generated_Source\PSoC5/isr_Timer_20ms.c ****     uint8 priority;
 304:Generated_Source\PSoC5/isr_Timer_20ms.c **** 
 305:Generated_Source\PSoC5/isr_Timer_20ms.c **** 
 306:Generated_Source\PSoC5/isr_Timer_20ms.c ****     priority = *isr_Timer_20ms_INTC_PRIOR >> 5;
 335              		.loc 1 306 0
 336 0006 054B     		ldr	r3, .L21
 337 0008 1B78     		ldrb	r3, [r3]
 338 000a DBB2     		uxtb	r3, r3
 339 000c 5B09     		lsrs	r3, r3, #5
 340 000e FB71     		strb	r3, [r7, #7]
 307:Generated_Source\PSoC5/isr_Timer_20ms.c **** 
 308:Generated_Source\PSoC5/isr_Timer_20ms.c ****     return priority;
 341              		.loc 1 308 0
 342 0010 FB79     		ldrb	r3, [r7, #7]	@ zero_extendqisi2
 309:Generated_Source\PSoC5/isr_Timer_20ms.c **** }
 343              		.loc 1 309 0
 344 0012 1846     		mov	r0, r3
 345 0014 0C37     		adds	r7, r7, #12
 346              		.cfi_def_cfa_offset 4
 347 0016 BD46     		mov	sp, r7
 348              		.cfi_def_cfa_register 13
 349              		@ sp needed
 350 0018 80BC     		pop	{r7}
 351              		.cfi_restore 7
 352              		.cfi_def_cfa_offset 0
 353 001a 7047     		bx	lr
 354              	.L22:
 355              		.align	2
 356              	.L21:
 357 001c 04E400E0 		.word	-536812540
 358              		.cfi_endproc
 359              	.LFE70:
 360              		.size	isr_Timer_20ms_GetPriority, .-isr_Timer_20ms_GetPriority
 361              		.section	.text.isr_Timer_20ms_Enable,"ax",%progbits
 362              		.align	2
 363              		.global	isr_Timer_20ms_Enable
 364              		.thumb
 365              		.thumb_func
 366              		.type	isr_Timer_20ms_Enable, %function
 367              	isr_Timer_20ms_Enable:
 368              	.LFB71:
 310:Generated_Source\PSoC5/isr_Timer_20ms.c **** 
 311:Generated_Source\PSoC5/isr_Timer_20ms.c **** 
 312:Generated_Source\PSoC5/isr_Timer_20ms.c **** /*******************************************************************************
 313:Generated_Source\PSoC5/isr_Timer_20ms.c **** * Function Name: isr_Timer_20ms_Enable
 314:Generated_Source\PSoC5/isr_Timer_20ms.c **** ********************************************************************************
 315:Generated_Source\PSoC5/isr_Timer_20ms.c **** *
 316:Generated_Source\PSoC5/isr_Timer_20ms.c **** * Summary:
ARM GAS  C:\Users\MARTHN~1\AppData\Local\Temp\ccfToeiu.s 			page 13


 317:Generated_Source\PSoC5/isr_Timer_20ms.c **** *   Enables the interrupt to the interrupt controller. Do not call this function
 318:Generated_Source\PSoC5/isr_Timer_20ms.c **** *   unless ISR_Start() has been called or the functionality of the ISR_Start() 
 319:Generated_Source\PSoC5/isr_Timer_20ms.c **** *   function, which sets the vector and the priority, has been called.
 320:Generated_Source\PSoC5/isr_Timer_20ms.c **** *
 321:Generated_Source\PSoC5/isr_Timer_20ms.c **** * Parameters:
 322:Generated_Source\PSoC5/isr_Timer_20ms.c **** *   None
 323:Generated_Source\PSoC5/isr_Timer_20ms.c **** *
 324:Generated_Source\PSoC5/isr_Timer_20ms.c **** * Return:
 325:Generated_Source\PSoC5/isr_Timer_20ms.c **** *   None
 326:Generated_Source\PSoC5/isr_Timer_20ms.c **** *
 327:Generated_Source\PSoC5/isr_Timer_20ms.c **** *******************************************************************************/
 328:Generated_Source\PSoC5/isr_Timer_20ms.c **** void isr_Timer_20ms_Enable(void)
 329:Generated_Source\PSoC5/isr_Timer_20ms.c **** {
 369              		.loc 1 329 0
 370              		.cfi_startproc
 371              		@ args = 0, pretend = 0, frame = 0
 372              		@ frame_needed = 1, uses_anonymous_args = 0
 373              		@ link register save eliminated.
 374 0000 80B4     		push	{r7}
 375              		.cfi_def_cfa_offset 4
 376              		.cfi_offset 7, -4
 377 0002 00AF     		add	r7, sp, #0
 378              		.cfi_def_cfa_register 7
 330:Generated_Source\PSoC5/isr_Timer_20ms.c ****     /* Enable the general interrupt. */
 331:Generated_Source\PSoC5/isr_Timer_20ms.c ****     *isr_Timer_20ms_INTC_SET_EN = isr_Timer_20ms__INTC_MASK;
 379              		.loc 1 331 0
 380 0004 034B     		ldr	r3, .L24
 381 0006 1022     		movs	r2, #16
 382 0008 1A60     		str	r2, [r3]
 332:Generated_Source\PSoC5/isr_Timer_20ms.c **** }
 383              		.loc 1 332 0
 384 000a 00BF     		nop
 385 000c BD46     		mov	sp, r7
 386              		.cfi_def_cfa_register 13
 387              		@ sp needed
 388 000e 80BC     		pop	{r7}
 389              		.cfi_restore 7
 390              		.cfi_def_cfa_offset 0
 391 0010 7047     		bx	lr
 392              	.L25:
 393 0012 00BF     		.align	2
 394              	.L24:
 395 0014 00E100E0 		.word	-536813312
 396              		.cfi_endproc
 397              	.LFE71:
 398              		.size	isr_Timer_20ms_Enable, .-isr_Timer_20ms_Enable
 399              		.section	.text.isr_Timer_20ms_GetState,"ax",%progbits
 400              		.align	2
 401              		.global	isr_Timer_20ms_GetState
 402              		.thumb
 403              		.thumb_func
 404              		.type	isr_Timer_20ms_GetState, %function
 405              	isr_Timer_20ms_GetState:
 406              	.LFB72:
 333:Generated_Source\PSoC5/isr_Timer_20ms.c **** 
 334:Generated_Source\PSoC5/isr_Timer_20ms.c **** 
 335:Generated_Source\PSoC5/isr_Timer_20ms.c **** /*******************************************************************************
ARM GAS  C:\Users\MARTHN~1\AppData\Local\Temp\ccfToeiu.s 			page 14


 336:Generated_Source\PSoC5/isr_Timer_20ms.c **** * Function Name: isr_Timer_20ms_GetState
 337:Generated_Source\PSoC5/isr_Timer_20ms.c **** ********************************************************************************
 338:Generated_Source\PSoC5/isr_Timer_20ms.c **** *
 339:Generated_Source\PSoC5/isr_Timer_20ms.c **** * Summary:
 340:Generated_Source\PSoC5/isr_Timer_20ms.c **** *   Gets the state (enabled, disabled) of the Interrupt.
 341:Generated_Source\PSoC5/isr_Timer_20ms.c **** *
 342:Generated_Source\PSoC5/isr_Timer_20ms.c **** * Parameters:
 343:Generated_Source\PSoC5/isr_Timer_20ms.c **** *   None
 344:Generated_Source\PSoC5/isr_Timer_20ms.c **** *
 345:Generated_Source\PSoC5/isr_Timer_20ms.c **** * Return:
 346:Generated_Source\PSoC5/isr_Timer_20ms.c **** *   1 if enabled, 0 if disabled.
 347:Generated_Source\PSoC5/isr_Timer_20ms.c **** *
 348:Generated_Source\PSoC5/isr_Timer_20ms.c **** *******************************************************************************/
 349:Generated_Source\PSoC5/isr_Timer_20ms.c **** uint8 isr_Timer_20ms_GetState(void)
 350:Generated_Source\PSoC5/isr_Timer_20ms.c **** {
 407              		.loc 1 350 0
 408              		.cfi_startproc
 409              		@ args = 0, pretend = 0, frame = 0
 410              		@ frame_needed = 1, uses_anonymous_args = 0
 411              		@ link register save eliminated.
 412 0000 80B4     		push	{r7}
 413              		.cfi_def_cfa_offset 4
 414              		.cfi_offset 7, -4
 415 0002 00AF     		add	r7, sp, #0
 416              		.cfi_def_cfa_register 7
 351:Generated_Source\PSoC5/isr_Timer_20ms.c ****     /* Get the state of the general interrupt. */
 352:Generated_Source\PSoC5/isr_Timer_20ms.c ****     return ((*isr_Timer_20ms_INTC_SET_EN & (uint32)isr_Timer_20ms__INTC_MASK) != 0u) ? 1u:0u;
 417              		.loc 1 352 0
 418 0004 064B     		ldr	r3, .L30
 419 0006 1B68     		ldr	r3, [r3]
 420 0008 03F01003 		and	r3, r3, #16
 421 000c 002B     		cmp	r3, #0
 422 000e 01D0     		beq	.L27
 423              		.loc 1 352 0 is_stmt 0 discriminator 1
 424 0010 0123     		movs	r3, #1
 425 0012 00E0     		b	.L28
 426              	.L27:
 427              		.loc 1 352 0 discriminator 2
 428 0014 0023     		movs	r3, #0
 429              	.L28:
 353:Generated_Source\PSoC5/isr_Timer_20ms.c **** }
 430              		.loc 1 353 0 is_stmt 1 discriminator 4
 431 0016 1846     		mov	r0, r3
 432 0018 BD46     		mov	sp, r7
 433              		.cfi_def_cfa_register 13
 434              		@ sp needed
 435 001a 80BC     		pop	{r7}
 436              		.cfi_restore 7
 437              		.cfi_def_cfa_offset 0
 438 001c 7047     		bx	lr
 439              	.L31:
 440 001e 00BF     		.align	2
 441              	.L30:
 442 0020 00E100E0 		.word	-536813312
 443              		.cfi_endproc
 444              	.LFE72:
 445              		.size	isr_Timer_20ms_GetState, .-isr_Timer_20ms_GetState
ARM GAS  C:\Users\MARTHN~1\AppData\Local\Temp\ccfToeiu.s 			page 15


 446              		.section	.text.isr_Timer_20ms_Disable,"ax",%progbits
 447              		.align	2
 448              		.global	isr_Timer_20ms_Disable
 449              		.thumb
 450              		.thumb_func
 451              		.type	isr_Timer_20ms_Disable, %function
 452              	isr_Timer_20ms_Disable:
 453              	.LFB73:
 354:Generated_Source\PSoC5/isr_Timer_20ms.c **** 
 355:Generated_Source\PSoC5/isr_Timer_20ms.c **** 
 356:Generated_Source\PSoC5/isr_Timer_20ms.c **** /*******************************************************************************
 357:Generated_Source\PSoC5/isr_Timer_20ms.c **** * Function Name: isr_Timer_20ms_Disable
 358:Generated_Source\PSoC5/isr_Timer_20ms.c **** ********************************************************************************
 359:Generated_Source\PSoC5/isr_Timer_20ms.c **** *
 360:Generated_Source\PSoC5/isr_Timer_20ms.c **** * Summary:
 361:Generated_Source\PSoC5/isr_Timer_20ms.c **** *   Disables the Interrupt in the interrupt controller.
 362:Generated_Source\PSoC5/isr_Timer_20ms.c **** *
 363:Generated_Source\PSoC5/isr_Timer_20ms.c **** * Parameters:
 364:Generated_Source\PSoC5/isr_Timer_20ms.c **** *   None
 365:Generated_Source\PSoC5/isr_Timer_20ms.c **** *
 366:Generated_Source\PSoC5/isr_Timer_20ms.c **** * Return:
 367:Generated_Source\PSoC5/isr_Timer_20ms.c **** *   None
 368:Generated_Source\PSoC5/isr_Timer_20ms.c **** *
 369:Generated_Source\PSoC5/isr_Timer_20ms.c **** *******************************************************************************/
 370:Generated_Source\PSoC5/isr_Timer_20ms.c **** void isr_Timer_20ms_Disable(void)
 371:Generated_Source\PSoC5/isr_Timer_20ms.c **** {
 454              		.loc 1 371 0
 455              		.cfi_startproc
 456              		@ args = 0, pretend = 0, frame = 0
 457              		@ frame_needed = 1, uses_anonymous_args = 0
 458              		@ link register save eliminated.
 459 0000 80B4     		push	{r7}
 460              		.cfi_def_cfa_offset 4
 461              		.cfi_offset 7, -4
 462 0002 00AF     		add	r7, sp, #0
 463              		.cfi_def_cfa_register 7
 372:Generated_Source\PSoC5/isr_Timer_20ms.c ****     /* Disable the general interrupt. */
 373:Generated_Source\PSoC5/isr_Timer_20ms.c ****     *isr_Timer_20ms_INTC_CLR_EN = isr_Timer_20ms__INTC_MASK;
 464              		.loc 1 373 0
 465 0004 034B     		ldr	r3, .L33
 466 0006 1022     		movs	r2, #16
 467 0008 1A60     		str	r2, [r3]
 374:Generated_Source\PSoC5/isr_Timer_20ms.c **** }
 468              		.loc 1 374 0
 469 000a 00BF     		nop
 470 000c BD46     		mov	sp, r7
 471              		.cfi_def_cfa_register 13
 472              		@ sp needed
 473 000e 80BC     		pop	{r7}
 474              		.cfi_restore 7
 475              		.cfi_def_cfa_offset 0
 476 0010 7047     		bx	lr
 477              	.L34:
 478 0012 00BF     		.align	2
 479              	.L33:
 480 0014 80E100E0 		.word	-536813184
 481              		.cfi_endproc
ARM GAS  C:\Users\MARTHN~1\AppData\Local\Temp\ccfToeiu.s 			page 16


 482              	.LFE73:
 483              		.size	isr_Timer_20ms_Disable, .-isr_Timer_20ms_Disable
 484              		.section	.text.isr_Timer_20ms_SetPending,"ax",%progbits
 485              		.align	2
 486              		.global	isr_Timer_20ms_SetPending
 487              		.thumb
 488              		.thumb_func
 489              		.type	isr_Timer_20ms_SetPending, %function
 490              	isr_Timer_20ms_SetPending:
 491              	.LFB74:
 375:Generated_Source\PSoC5/isr_Timer_20ms.c **** 
 376:Generated_Source\PSoC5/isr_Timer_20ms.c **** 
 377:Generated_Source\PSoC5/isr_Timer_20ms.c **** /*******************************************************************************
 378:Generated_Source\PSoC5/isr_Timer_20ms.c **** * Function Name: isr_Timer_20ms_SetPending
 379:Generated_Source\PSoC5/isr_Timer_20ms.c **** ********************************************************************************
 380:Generated_Source\PSoC5/isr_Timer_20ms.c **** *
 381:Generated_Source\PSoC5/isr_Timer_20ms.c **** * Summary:
 382:Generated_Source\PSoC5/isr_Timer_20ms.c **** *   Causes the Interrupt to enter the pending state, a software method of
 383:Generated_Source\PSoC5/isr_Timer_20ms.c **** *   generating the interrupt.
 384:Generated_Source\PSoC5/isr_Timer_20ms.c **** *
 385:Generated_Source\PSoC5/isr_Timer_20ms.c **** * Parameters:
 386:Generated_Source\PSoC5/isr_Timer_20ms.c **** *   None
 387:Generated_Source\PSoC5/isr_Timer_20ms.c **** *
 388:Generated_Source\PSoC5/isr_Timer_20ms.c **** * Return:
 389:Generated_Source\PSoC5/isr_Timer_20ms.c **** *   None
 390:Generated_Source\PSoC5/isr_Timer_20ms.c **** *
 391:Generated_Source\PSoC5/isr_Timer_20ms.c **** * Side Effects:
 392:Generated_Source\PSoC5/isr_Timer_20ms.c **** *   If interrupts are enabled and the interrupt is set up properly, the ISR is
 393:Generated_Source\PSoC5/isr_Timer_20ms.c **** *   entered (depending on the priority of this interrupt and other pending 
 394:Generated_Source\PSoC5/isr_Timer_20ms.c **** *   interrupts).
 395:Generated_Source\PSoC5/isr_Timer_20ms.c **** *
 396:Generated_Source\PSoC5/isr_Timer_20ms.c **** *******************************************************************************/
 397:Generated_Source\PSoC5/isr_Timer_20ms.c **** void isr_Timer_20ms_SetPending(void)
 398:Generated_Source\PSoC5/isr_Timer_20ms.c **** {
 492              		.loc 1 398 0
 493              		.cfi_startproc
 494              		@ args = 0, pretend = 0, frame = 0
 495              		@ frame_needed = 1, uses_anonymous_args = 0
 496              		@ link register save eliminated.
 497 0000 80B4     		push	{r7}
 498              		.cfi_def_cfa_offset 4
 499              		.cfi_offset 7, -4
 500 0002 00AF     		add	r7, sp, #0
 501              		.cfi_def_cfa_register 7
 399:Generated_Source\PSoC5/isr_Timer_20ms.c ****     *isr_Timer_20ms_INTC_SET_PD = isr_Timer_20ms__INTC_MASK;
 502              		.loc 1 399 0
 503 0004 034B     		ldr	r3, .L36
 504 0006 1022     		movs	r2, #16
 505 0008 1A60     		str	r2, [r3]
 400:Generated_Source\PSoC5/isr_Timer_20ms.c **** }
 506              		.loc 1 400 0
 507 000a 00BF     		nop
 508 000c BD46     		mov	sp, r7
 509              		.cfi_def_cfa_register 13
 510              		@ sp needed
 511 000e 80BC     		pop	{r7}
 512              		.cfi_restore 7
ARM GAS  C:\Users\MARTHN~1\AppData\Local\Temp\ccfToeiu.s 			page 17


 513              		.cfi_def_cfa_offset 0
 514 0010 7047     		bx	lr
 515              	.L37:
 516 0012 00BF     		.align	2
 517              	.L36:
 518 0014 00E200E0 		.word	-536813056
 519              		.cfi_endproc
 520              	.LFE74:
 521              		.size	isr_Timer_20ms_SetPending, .-isr_Timer_20ms_SetPending
 522              		.section	.text.isr_Timer_20ms_ClearPending,"ax",%progbits
 523              		.align	2
 524              		.global	isr_Timer_20ms_ClearPending
 525              		.thumb
 526              		.thumb_func
 527              		.type	isr_Timer_20ms_ClearPending, %function
 528              	isr_Timer_20ms_ClearPending:
 529              	.LFB75:
 401:Generated_Source\PSoC5/isr_Timer_20ms.c **** 
 402:Generated_Source\PSoC5/isr_Timer_20ms.c **** 
 403:Generated_Source\PSoC5/isr_Timer_20ms.c **** /*******************************************************************************
 404:Generated_Source\PSoC5/isr_Timer_20ms.c **** * Function Name: isr_Timer_20ms_ClearPending
 405:Generated_Source\PSoC5/isr_Timer_20ms.c **** ********************************************************************************
 406:Generated_Source\PSoC5/isr_Timer_20ms.c **** *
 407:Generated_Source\PSoC5/isr_Timer_20ms.c **** * Summary:
 408:Generated_Source\PSoC5/isr_Timer_20ms.c **** *   Clears a pending interrupt in the interrupt controller.
 409:Generated_Source\PSoC5/isr_Timer_20ms.c **** *
 410:Generated_Source\PSoC5/isr_Timer_20ms.c **** *   Note Some interrupt sources are clear-on-read and require the block 
 411:Generated_Source\PSoC5/isr_Timer_20ms.c **** *   interrupt/status register to be read/cleared with the appropriate block API 
 412:Generated_Source\PSoC5/isr_Timer_20ms.c **** *   (GPIO, UART, and so on). Otherwise the ISR will continue to remain in 
 413:Generated_Source\PSoC5/isr_Timer_20ms.c **** *   pending state even though the interrupt itself is cleared using this API.
 414:Generated_Source\PSoC5/isr_Timer_20ms.c **** *
 415:Generated_Source\PSoC5/isr_Timer_20ms.c **** * Parameters:
 416:Generated_Source\PSoC5/isr_Timer_20ms.c **** *   None
 417:Generated_Source\PSoC5/isr_Timer_20ms.c **** *
 418:Generated_Source\PSoC5/isr_Timer_20ms.c **** * Return:
 419:Generated_Source\PSoC5/isr_Timer_20ms.c **** *   None
 420:Generated_Source\PSoC5/isr_Timer_20ms.c **** *
 421:Generated_Source\PSoC5/isr_Timer_20ms.c **** *******************************************************************************/
 422:Generated_Source\PSoC5/isr_Timer_20ms.c **** void isr_Timer_20ms_ClearPending(void)
 423:Generated_Source\PSoC5/isr_Timer_20ms.c **** {
 530              		.loc 1 423 0
 531              		.cfi_startproc
 532              		@ args = 0, pretend = 0, frame = 0
 533              		@ frame_needed = 1, uses_anonymous_args = 0
 534              		@ link register save eliminated.
 535 0000 80B4     		push	{r7}
 536              		.cfi_def_cfa_offset 4
 537              		.cfi_offset 7, -4
 538 0002 00AF     		add	r7, sp, #0
 539              		.cfi_def_cfa_register 7
 424:Generated_Source\PSoC5/isr_Timer_20ms.c ****     *isr_Timer_20ms_INTC_CLR_PD = isr_Timer_20ms__INTC_MASK;
 540              		.loc 1 424 0
 541 0004 034B     		ldr	r3, .L39
 542 0006 1022     		movs	r2, #16
 543 0008 1A60     		str	r2, [r3]
 425:Generated_Source\PSoC5/isr_Timer_20ms.c **** }
 544              		.loc 1 425 0
ARM GAS  C:\Users\MARTHN~1\AppData\Local\Temp\ccfToeiu.s 			page 18


 545 000a 00BF     		nop
 546 000c BD46     		mov	sp, r7
 547              		.cfi_def_cfa_register 13
 548              		@ sp needed
 549 000e 80BC     		pop	{r7}
 550              		.cfi_restore 7
 551              		.cfi_def_cfa_offset 0
 552 0010 7047     		bx	lr
 553              	.L40:
 554 0012 00BF     		.align	2
 555              	.L39:
 556 0014 80E200E0 		.word	-536812928
 557              		.cfi_endproc
 558              	.LFE75:
 559              		.size	isr_Timer_20ms_ClearPending, .-isr_Timer_20ms_ClearPending
 560              		.text
 561              	.Letext0:
 562              		.file 2 "c:\\program files (x86)\\cypress\\psoc creator\\4.3\\psoc creator\\import\\gnu\\arm\\5.4.
 563              		.file 3 "c:\\program files (x86)\\cypress\\psoc creator\\4.3\\psoc creator\\import\\gnu\\arm\\5.4.
 564              		.file 4 "Generated_Source\\PSoC5/cytypes.h"
 565              		.file 5 "./CommonVariables.h"
 566              		.file 6 "Generated_Source\\PSoC5/core_cm3.h"