ARM GAS  C:\Users\MARTHN~1\AppData\Local\Temp\ccdIXi3K.s 			page 1


   1              		.syntax unified
   2              		.cpu cortex-m3
   3              		.fpu softvfp
   4              		.eabi_attribute 20, 1
   5              		.eabi_attribute 21, 1
   6              		.eabi_attribute 23, 3
   7              		.eabi_attribute 24, 1
   8              		.eabi_attribute 25, 1
   9              		.eabi_attribute 26, 1
  10              		.eabi_attribute 30, 6
  11              		.eabi_attribute 34, 1
  12              		.eabi_attribute 18, 4
  13              		.thumb
  14              		.syntax unified
  15              		.file	"isr_Timer_50ms.c"
  16              		.text
  17              	.Ltext0:
  18              		.cfi_sections	.debug_frame
  19              		.comm	Test,3,4
  20              		.comm	CurrentTest,3,4
  21              		.bss
  22              	blinkcounter:
  23 0000 00       		.space	1
  24              		.section	.text.isr_Timer_50ms_Start,"ax",%progbits
  25              		.align	2
  26              		.global	isr_Timer_50ms_Start
  27              		.thumb
  28              		.thumb_func
  29              		.type	isr_Timer_50ms_Start, %function
  30              	isr_Timer_50ms_Start:
  31              	.LFB63:
  32              		.file 1 "Generated_Source\\PSoC5\\isr_Timer_50ms.c"
   1:Generated_Source\PSoC5/isr_Timer_50ms.c **** /*******************************************************************************
   2:Generated_Source\PSoC5/isr_Timer_50ms.c **** * File Name: isr_Timer_50ms.c  
   3:Generated_Source\PSoC5/isr_Timer_50ms.c **** * Version 1.70
   4:Generated_Source\PSoC5/isr_Timer_50ms.c **** *
   5:Generated_Source\PSoC5/isr_Timer_50ms.c **** *  Description:
   6:Generated_Source\PSoC5/isr_Timer_50ms.c **** *   API for controlling the state of an interrupt.
   7:Generated_Source\PSoC5/isr_Timer_50ms.c **** *
   8:Generated_Source\PSoC5/isr_Timer_50ms.c **** *
   9:Generated_Source\PSoC5/isr_Timer_50ms.c **** *  Note:
  10:Generated_Source\PSoC5/isr_Timer_50ms.c **** *
  11:Generated_Source\PSoC5/isr_Timer_50ms.c **** ********************************************************************************
  12:Generated_Source\PSoC5/isr_Timer_50ms.c **** * Copyright 2008-2015, Cypress Semiconductor Corporation.  All rights reserved.
  13:Generated_Source\PSoC5/isr_Timer_50ms.c **** * You may use this file only in accordance with the license, terms, conditions, 
  14:Generated_Source\PSoC5/isr_Timer_50ms.c **** * disclaimers, and limitations in the end user license agreement accompanying 
  15:Generated_Source\PSoC5/isr_Timer_50ms.c **** * the software package with which this file was provided.
  16:Generated_Source\PSoC5/isr_Timer_50ms.c **** *******************************************************************************/
  17:Generated_Source\PSoC5/isr_Timer_50ms.c **** 
  18:Generated_Source\PSoC5/isr_Timer_50ms.c **** 
  19:Generated_Source\PSoC5/isr_Timer_50ms.c **** #include <cydevice_trm.h>
  20:Generated_Source\PSoC5/isr_Timer_50ms.c **** #include <CyLib.h>
  21:Generated_Source\PSoC5/isr_Timer_50ms.c **** #include <isr_Timer_50ms.h>
  22:Generated_Source\PSoC5/isr_Timer_50ms.c **** #include "cyapicallbacks.h"
  23:Generated_Source\PSoC5/isr_Timer_50ms.c **** 
  24:Generated_Source\PSoC5/isr_Timer_50ms.c **** #if !defined(isr_Timer_50ms__REMOVED) /* Check for removal by optimization */
  25:Generated_Source\PSoC5/isr_Timer_50ms.c **** 
ARM GAS  C:\Users\MARTHN~1\AppData\Local\Temp\ccdIXi3K.s 			page 2


  26:Generated_Source\PSoC5/isr_Timer_50ms.c **** /*******************************************************************************
  27:Generated_Source\PSoC5/isr_Timer_50ms.c **** *  Place your includes, defines and code here 
  28:Generated_Source\PSoC5/isr_Timer_50ms.c **** ********************************************************************************/
  29:Generated_Source\PSoC5/isr_Timer_50ms.c **** /* `#START isr_Timer_50ms_intc` */
  30:Generated_Source\PSoC5/isr_Timer_50ms.c ****     
  31:Generated_Source\PSoC5/isr_Timer_50ms.c ****     #include "CommonVariables.h"
  32:Generated_Source\PSoC5/isr_Timer_50ms.c ****     //#include "UART_230400_Functions.h"
  33:Generated_Source\PSoC5/isr_Timer_50ms.c ****     #include "ControllerTest.h"
  34:Generated_Source\PSoC5/isr_Timer_50ms.c ****     #include "RelayTest.h"
  35:Generated_Source\PSoC5/isr_Timer_50ms.c ****     #include "SirenTest.h"
  36:Generated_Source\PSoC5/isr_Timer_50ms.c ****     
  37:Generated_Source\PSoC5/isr_Timer_50ms.c ****     #define BLINKTIME   2       // How many 50msec periods of on time
  38:Generated_Source\PSoC5/isr_Timer_50ms.c ****      
  39:Generated_Source\PSoC5/isr_Timer_50ms.c ****     //uint8 SelectedTest;
  40:Generated_Source\PSoC5/isr_Timer_50ms.c ****     //struct structTestInfo CurrentTest;
  41:Generated_Source\PSoC5/isr_Timer_50ms.c ****     
  42:Generated_Source\PSoC5/isr_Timer_50ms.c ****     StructTestInfo CurrentTest;
  43:Generated_Source\PSoC5/isr_Timer_50ms.c ****     
  44:Generated_Source\PSoC5/isr_Timer_50ms.c ****     static uint8 blinkcounter = 0;
  45:Generated_Source\PSoC5/isr_Timer_50ms.c ****     
  46:Generated_Source\PSoC5/isr_Timer_50ms.c ****     enum DataType
  47:Generated_Source\PSoC5/isr_Timer_50ms.c ****     { 
  48:Generated_Source\PSoC5/isr_Timer_50ms.c ****         CTEST, 
  49:Generated_Source\PSoC5/isr_Timer_50ms.c ****         RTEST,
  50:Generated_Source\PSoC5/isr_Timer_50ms.c ****         STEST,
  51:Generated_Source\PSoC5/isr_Timer_50ms.c ****         CTEST_COMPLETE,
  52:Generated_Source\PSoC5/isr_Timer_50ms.c ****         RTEST_COMPLETE
  53:Generated_Source\PSoC5/isr_Timer_50ms.c ****     };
  54:Generated_Source\PSoC5/isr_Timer_50ms.c **** 
  55:Generated_Source\PSoC5/isr_Timer_50ms.c **** /* `#END` */
  56:Generated_Source\PSoC5/isr_Timer_50ms.c **** 
  57:Generated_Source\PSoC5/isr_Timer_50ms.c **** #ifndef CYINT_IRQ_BASE
  58:Generated_Source\PSoC5/isr_Timer_50ms.c **** #define CYINT_IRQ_BASE      16
  59:Generated_Source\PSoC5/isr_Timer_50ms.c **** #endif /* CYINT_IRQ_BASE */
  60:Generated_Source\PSoC5/isr_Timer_50ms.c **** #ifndef CYINT_VECT_TABLE
  61:Generated_Source\PSoC5/isr_Timer_50ms.c **** #define CYINT_VECT_TABLE    ((cyisraddress **) CYREG_NVIC_VECT_OFFSET)
  62:Generated_Source\PSoC5/isr_Timer_50ms.c **** #endif /* CYINT_VECT_TABLE */
  63:Generated_Source\PSoC5/isr_Timer_50ms.c **** 
  64:Generated_Source\PSoC5/isr_Timer_50ms.c **** /* Declared in startup, used to set unused interrupts to. */
  65:Generated_Source\PSoC5/isr_Timer_50ms.c **** CY_ISR_PROTO(IntDefaultHandler);
  66:Generated_Source\PSoC5/isr_Timer_50ms.c **** 
  67:Generated_Source\PSoC5/isr_Timer_50ms.c **** 
  68:Generated_Source\PSoC5/isr_Timer_50ms.c **** /*******************************************************************************
  69:Generated_Source\PSoC5/isr_Timer_50ms.c **** * Function Name: isr_Timer_50ms_Start
  70:Generated_Source\PSoC5/isr_Timer_50ms.c **** ********************************************************************************
  71:Generated_Source\PSoC5/isr_Timer_50ms.c **** *
  72:Generated_Source\PSoC5/isr_Timer_50ms.c **** * Summary:
  73:Generated_Source\PSoC5/isr_Timer_50ms.c **** *  Set up the interrupt and enable it. This function disables the interrupt, 
  74:Generated_Source\PSoC5/isr_Timer_50ms.c **** *  sets the default interrupt vector, sets the priority from the value in the
  75:Generated_Source\PSoC5/isr_Timer_50ms.c **** *  Design Wide Resources Interrupt Editor, then enables the interrupt to the 
  76:Generated_Source\PSoC5/isr_Timer_50ms.c **** *  interrupt controller.
  77:Generated_Source\PSoC5/isr_Timer_50ms.c **** *
  78:Generated_Source\PSoC5/isr_Timer_50ms.c **** * Parameters:  
  79:Generated_Source\PSoC5/isr_Timer_50ms.c **** *   None
  80:Generated_Source\PSoC5/isr_Timer_50ms.c **** *
  81:Generated_Source\PSoC5/isr_Timer_50ms.c **** * Return:
  82:Generated_Source\PSoC5/isr_Timer_50ms.c **** *   None
ARM GAS  C:\Users\MARTHN~1\AppData\Local\Temp\ccdIXi3K.s 			page 3


  83:Generated_Source\PSoC5/isr_Timer_50ms.c **** *
  84:Generated_Source\PSoC5/isr_Timer_50ms.c **** *******************************************************************************/
  85:Generated_Source\PSoC5/isr_Timer_50ms.c **** void isr_Timer_50ms_Start(void)
  86:Generated_Source\PSoC5/isr_Timer_50ms.c **** {
  33              		.loc 1 86 0
  34              		.cfi_startproc
  35              		@ args = 0, pretend = 0, frame = 0
  36              		@ frame_needed = 1, uses_anonymous_args = 0
  37 0000 80B5     		push	{r7, lr}
  38              		.cfi_def_cfa_offset 8
  39              		.cfi_offset 7, -8
  40              		.cfi_offset 14, -4
  41 0002 00AF     		add	r7, sp, #0
  42              		.cfi_def_cfa_register 7
  87:Generated_Source\PSoC5/isr_Timer_50ms.c ****     /* For all we know the interrupt is active. */
  88:Generated_Source\PSoC5/isr_Timer_50ms.c ****     isr_Timer_50ms_Disable();
  43              		.loc 1 88 0
  44 0004 FFF7FEFF 		bl	isr_Timer_50ms_Disable
  89:Generated_Source\PSoC5/isr_Timer_50ms.c **** 
  90:Generated_Source\PSoC5/isr_Timer_50ms.c ****     /* Set the ISR to point to the isr_Timer_50ms Interrupt. */
  91:Generated_Source\PSoC5/isr_Timer_50ms.c ****     isr_Timer_50ms_SetVector(&isr_Timer_50ms_Interrupt);
  45              		.loc 1 91 0
  46 0008 0448     		ldr	r0, .L2
  47 000a FFF7FEFF 		bl	isr_Timer_50ms_SetVector
  92:Generated_Source\PSoC5/isr_Timer_50ms.c **** 
  93:Generated_Source\PSoC5/isr_Timer_50ms.c ****     /* Set the priority. */
  94:Generated_Source\PSoC5/isr_Timer_50ms.c ****     isr_Timer_50ms_SetPriority((uint8)isr_Timer_50ms_INTC_PRIOR_NUMBER);
  48              		.loc 1 94 0
  49 000e 0720     		movs	r0, #7
  50 0010 FFF7FEFF 		bl	isr_Timer_50ms_SetPriority
  95:Generated_Source\PSoC5/isr_Timer_50ms.c **** 
  96:Generated_Source\PSoC5/isr_Timer_50ms.c ****     /* Enable it. */
  97:Generated_Source\PSoC5/isr_Timer_50ms.c ****     isr_Timer_50ms_Enable();
  51              		.loc 1 97 0
  52 0014 FFF7FEFF 		bl	isr_Timer_50ms_Enable
  98:Generated_Source\PSoC5/isr_Timer_50ms.c **** }
  53              		.loc 1 98 0
  54 0018 00BF     		nop
  55 001a 80BD     		pop	{r7, pc}
  56              	.L3:
  57              		.align	2
  58              	.L2:
  59 001c 00000000 		.word	isr_Timer_50ms_Interrupt
  60              		.cfi_endproc
  61              	.LFE63:
  62              		.size	isr_Timer_50ms_Start, .-isr_Timer_50ms_Start
  63              		.section	.text.isr_Timer_50ms_StartEx,"ax",%progbits
  64              		.align	2
  65              		.global	isr_Timer_50ms_StartEx
  66              		.thumb
  67              		.thumb_func
  68              		.type	isr_Timer_50ms_StartEx, %function
  69              	isr_Timer_50ms_StartEx:
  70              	.LFB64:
  99:Generated_Source\PSoC5/isr_Timer_50ms.c **** 
 100:Generated_Source\PSoC5/isr_Timer_50ms.c **** 
 101:Generated_Source\PSoC5/isr_Timer_50ms.c **** /*******************************************************************************
ARM GAS  C:\Users\MARTHN~1\AppData\Local\Temp\ccdIXi3K.s 			page 4


 102:Generated_Source\PSoC5/isr_Timer_50ms.c **** * Function Name: isr_Timer_50ms_StartEx
 103:Generated_Source\PSoC5/isr_Timer_50ms.c **** ********************************************************************************
 104:Generated_Source\PSoC5/isr_Timer_50ms.c **** *
 105:Generated_Source\PSoC5/isr_Timer_50ms.c **** * Summary:
 106:Generated_Source\PSoC5/isr_Timer_50ms.c **** *  Sets up the interrupt and enables it. This function disables the interrupt,
 107:Generated_Source\PSoC5/isr_Timer_50ms.c **** *  sets the interrupt vector based on the address passed in, sets the priority 
 108:Generated_Source\PSoC5/isr_Timer_50ms.c **** *  from the value in the Design Wide Resources Interrupt Editor, then enables 
 109:Generated_Source\PSoC5/isr_Timer_50ms.c **** *  the interrupt to the interrupt controller.
 110:Generated_Source\PSoC5/isr_Timer_50ms.c **** *  
 111:Generated_Source\PSoC5/isr_Timer_50ms.c **** *  When defining ISR functions, the CY_ISR and CY_ISR_PROTO macros should be 
 112:Generated_Source\PSoC5/isr_Timer_50ms.c **** *  used to provide consistent definition across compilers:
 113:Generated_Source\PSoC5/isr_Timer_50ms.c **** *  
 114:Generated_Source\PSoC5/isr_Timer_50ms.c **** *  Function definition example:
 115:Generated_Source\PSoC5/isr_Timer_50ms.c **** *   CY_ISR(MyISR)
 116:Generated_Source\PSoC5/isr_Timer_50ms.c **** *   {
 117:Generated_Source\PSoC5/isr_Timer_50ms.c **** *   }
 118:Generated_Source\PSoC5/isr_Timer_50ms.c **** *   Function prototype example:
 119:Generated_Source\PSoC5/isr_Timer_50ms.c **** *   CY_ISR_PROTO(MyISR);
 120:Generated_Source\PSoC5/isr_Timer_50ms.c **** *
 121:Generated_Source\PSoC5/isr_Timer_50ms.c **** * Parameters:  
 122:Generated_Source\PSoC5/isr_Timer_50ms.c **** *   address: Address of the ISR to set in the interrupt vector table.
 123:Generated_Source\PSoC5/isr_Timer_50ms.c **** *
 124:Generated_Source\PSoC5/isr_Timer_50ms.c **** * Return:
 125:Generated_Source\PSoC5/isr_Timer_50ms.c **** *   None
 126:Generated_Source\PSoC5/isr_Timer_50ms.c **** *
 127:Generated_Source\PSoC5/isr_Timer_50ms.c **** *******************************************************************************/
 128:Generated_Source\PSoC5/isr_Timer_50ms.c **** void isr_Timer_50ms_StartEx(cyisraddress address)
 129:Generated_Source\PSoC5/isr_Timer_50ms.c **** {
  71              		.loc 1 129 0
  72              		.cfi_startproc
  73              		@ args = 0, pretend = 0, frame = 8
  74              		@ frame_needed = 1, uses_anonymous_args = 0
  75 0000 80B5     		push	{r7, lr}
  76              		.cfi_def_cfa_offset 8
  77              		.cfi_offset 7, -8
  78              		.cfi_offset 14, -4
  79 0002 82B0     		sub	sp, sp, #8
  80              		.cfi_def_cfa_offset 16
  81 0004 00AF     		add	r7, sp, #0
  82              		.cfi_def_cfa_register 7
  83 0006 7860     		str	r0, [r7, #4]
 130:Generated_Source\PSoC5/isr_Timer_50ms.c ****     /* For all we know the interrupt is active. */
 131:Generated_Source\PSoC5/isr_Timer_50ms.c ****     isr_Timer_50ms_Disable();
  84              		.loc 1 131 0
  85 0008 FFF7FEFF 		bl	isr_Timer_50ms_Disable
 132:Generated_Source\PSoC5/isr_Timer_50ms.c **** 
 133:Generated_Source\PSoC5/isr_Timer_50ms.c ****     /* Set the ISR to point to the isr_Timer_50ms Interrupt. */
 134:Generated_Source\PSoC5/isr_Timer_50ms.c ****     isr_Timer_50ms_SetVector(address);
  86              		.loc 1 134 0
  87 000c 7868     		ldr	r0, [r7, #4]
  88 000e FFF7FEFF 		bl	isr_Timer_50ms_SetVector
 135:Generated_Source\PSoC5/isr_Timer_50ms.c **** 
 136:Generated_Source\PSoC5/isr_Timer_50ms.c ****     /* Set the priority. */
 137:Generated_Source\PSoC5/isr_Timer_50ms.c ****     isr_Timer_50ms_SetPriority((uint8)isr_Timer_50ms_INTC_PRIOR_NUMBER);
  89              		.loc 1 137 0
  90 0012 0720     		movs	r0, #7
  91 0014 FFF7FEFF 		bl	isr_Timer_50ms_SetPriority
ARM GAS  C:\Users\MARTHN~1\AppData\Local\Temp\ccdIXi3K.s 			page 5


 138:Generated_Source\PSoC5/isr_Timer_50ms.c **** 
 139:Generated_Source\PSoC5/isr_Timer_50ms.c ****     /* Enable it. */
 140:Generated_Source\PSoC5/isr_Timer_50ms.c ****     isr_Timer_50ms_Enable();
  92              		.loc 1 140 0
  93 0018 FFF7FEFF 		bl	isr_Timer_50ms_Enable
 141:Generated_Source\PSoC5/isr_Timer_50ms.c **** }
  94              		.loc 1 141 0
  95 001c 00BF     		nop
  96 001e 0837     		adds	r7, r7, #8
  97              		.cfi_def_cfa_offset 8
  98 0020 BD46     		mov	sp, r7
  99              		.cfi_def_cfa_register 13
 100              		@ sp needed
 101 0022 80BD     		pop	{r7, pc}
 102              		.cfi_endproc
 103              	.LFE64:
 104              		.size	isr_Timer_50ms_StartEx, .-isr_Timer_50ms_StartEx
 105              		.section	.text.isr_Timer_50ms_Stop,"ax",%progbits
 106              		.align	2
 107              		.global	isr_Timer_50ms_Stop
 108              		.thumb
 109              		.thumb_func
 110              		.type	isr_Timer_50ms_Stop, %function
 111              	isr_Timer_50ms_Stop:
 112              	.LFB65:
 142:Generated_Source\PSoC5/isr_Timer_50ms.c **** 
 143:Generated_Source\PSoC5/isr_Timer_50ms.c **** 
 144:Generated_Source\PSoC5/isr_Timer_50ms.c **** /*******************************************************************************
 145:Generated_Source\PSoC5/isr_Timer_50ms.c **** * Function Name: isr_Timer_50ms_Stop
 146:Generated_Source\PSoC5/isr_Timer_50ms.c **** ********************************************************************************
 147:Generated_Source\PSoC5/isr_Timer_50ms.c **** *
 148:Generated_Source\PSoC5/isr_Timer_50ms.c **** * Summary:
 149:Generated_Source\PSoC5/isr_Timer_50ms.c **** *   Disables and removes the interrupt.
 150:Generated_Source\PSoC5/isr_Timer_50ms.c **** *
 151:Generated_Source\PSoC5/isr_Timer_50ms.c **** * Parameters:  
 152:Generated_Source\PSoC5/isr_Timer_50ms.c **** *   None
 153:Generated_Source\PSoC5/isr_Timer_50ms.c **** *
 154:Generated_Source\PSoC5/isr_Timer_50ms.c **** * Return:
 155:Generated_Source\PSoC5/isr_Timer_50ms.c **** *   None
 156:Generated_Source\PSoC5/isr_Timer_50ms.c **** *
 157:Generated_Source\PSoC5/isr_Timer_50ms.c **** *******************************************************************************/
 158:Generated_Source\PSoC5/isr_Timer_50ms.c **** void isr_Timer_50ms_Stop(void)
 159:Generated_Source\PSoC5/isr_Timer_50ms.c **** {
 113              		.loc 1 159 0
 114              		.cfi_startproc
 115              		@ args = 0, pretend = 0, frame = 0
 116              		@ frame_needed = 1, uses_anonymous_args = 0
 117 0000 80B5     		push	{r7, lr}
 118              		.cfi_def_cfa_offset 8
 119              		.cfi_offset 7, -8
 120              		.cfi_offset 14, -4
 121 0002 00AF     		add	r7, sp, #0
 122              		.cfi_def_cfa_register 7
 160:Generated_Source\PSoC5/isr_Timer_50ms.c ****     /* Disable this interrupt. */
 161:Generated_Source\PSoC5/isr_Timer_50ms.c ****     isr_Timer_50ms_Disable();
 123              		.loc 1 161 0
 124 0004 FFF7FEFF 		bl	isr_Timer_50ms_Disable
ARM GAS  C:\Users\MARTHN~1\AppData\Local\Temp\ccdIXi3K.s 			page 6


 162:Generated_Source\PSoC5/isr_Timer_50ms.c **** 
 163:Generated_Source\PSoC5/isr_Timer_50ms.c ****     /* Set the ISR to point to the passive one. */
 164:Generated_Source\PSoC5/isr_Timer_50ms.c ****     isr_Timer_50ms_SetVector(&IntDefaultHandler);
 125              		.loc 1 164 0
 126 0008 0248     		ldr	r0, .L6
 127 000a FFF7FEFF 		bl	isr_Timer_50ms_SetVector
 165:Generated_Source\PSoC5/isr_Timer_50ms.c **** }
 128              		.loc 1 165 0
 129 000e 00BF     		nop
 130 0010 80BD     		pop	{r7, pc}
 131              	.L7:
 132 0012 00BF     		.align	2
 133              	.L6:
 134 0014 00000000 		.word	IntDefaultHandler
 135              		.cfi_endproc
 136              	.LFE65:
 137              		.size	isr_Timer_50ms_Stop, .-isr_Timer_50ms_Stop
 138              		.section	.text.isr_Timer_50ms_Interrupt,"ax",%progbits
 139              		.align	2
 140              		.global	isr_Timer_50ms_Interrupt
 141              		.thumb
 142              		.thumb_func
 143              		.type	isr_Timer_50ms_Interrupt, %function
 144              	isr_Timer_50ms_Interrupt:
 145              	.LFB66:
 166:Generated_Source\PSoC5/isr_Timer_50ms.c **** 
 167:Generated_Source\PSoC5/isr_Timer_50ms.c **** 
 168:Generated_Source\PSoC5/isr_Timer_50ms.c **** /*******************************************************************************
 169:Generated_Source\PSoC5/isr_Timer_50ms.c **** * Function Name: isr_Timer_50ms_Interrupt
 170:Generated_Source\PSoC5/isr_Timer_50ms.c **** ********************************************************************************
 171:Generated_Source\PSoC5/isr_Timer_50ms.c **** *
 172:Generated_Source\PSoC5/isr_Timer_50ms.c **** * Summary:
 173:Generated_Source\PSoC5/isr_Timer_50ms.c **** *   The default Interrupt Service Routine for isr_Timer_50ms.
 174:Generated_Source\PSoC5/isr_Timer_50ms.c **** *
 175:Generated_Source\PSoC5/isr_Timer_50ms.c **** *   Add custom code between the coments to keep the next version of this file
 176:Generated_Source\PSoC5/isr_Timer_50ms.c **** *   from over writting your code.
 177:Generated_Source\PSoC5/isr_Timer_50ms.c **** *
 178:Generated_Source\PSoC5/isr_Timer_50ms.c **** * Parameters:  
 179:Generated_Source\PSoC5/isr_Timer_50ms.c **** *
 180:Generated_Source\PSoC5/isr_Timer_50ms.c **** * Return:
 181:Generated_Source\PSoC5/isr_Timer_50ms.c **** *   None
 182:Generated_Source\PSoC5/isr_Timer_50ms.c **** *
 183:Generated_Source\PSoC5/isr_Timer_50ms.c **** *******************************************************************************/
 184:Generated_Source\PSoC5/isr_Timer_50ms.c **** CY_ISR(isr_Timer_50ms_Interrupt)
 185:Generated_Source\PSoC5/isr_Timer_50ms.c **** {
 146              		.loc 1 185 0
 147              		.cfi_startproc
 148              		@ args = 0, pretend = 0, frame = 0
 149              		@ frame_needed = 1, uses_anonymous_args = 0
 150 0000 80B5     		push	{r7, lr}
 151              		.cfi_def_cfa_offset 8
 152              		.cfi_offset 7, -8
 153              		.cfi_offset 14, -4
 154 0002 00AF     		add	r7, sp, #0
 155              		.cfi_def_cfa_register 7
 186:Generated_Source\PSoC5/isr_Timer_50ms.c ****     #ifdef isr_Timer_50ms_INTERRUPT_INTERRUPT_CALLBACK
 187:Generated_Source\PSoC5/isr_Timer_50ms.c ****         isr_Timer_50ms_Interrupt_InterruptCallback();
ARM GAS  C:\Users\MARTHN~1\AppData\Local\Temp\ccdIXi3K.s 			page 7


 188:Generated_Source\PSoC5/isr_Timer_50ms.c ****     #endif /* isr_Timer_50ms_INTERRUPT_INTERRUPT_CALLBACK */ 
 189:Generated_Source\PSoC5/isr_Timer_50ms.c **** 
 190:Generated_Source\PSoC5/isr_Timer_50ms.c ****     /*  Place your Interrupt code here. */
 191:Generated_Source\PSoC5/isr_Timer_50ms.c ****     /* `#START isr_Timer_50ms_Interrupt` */
 192:Generated_Source\PSoC5/isr_Timer_50ms.c ****     
 193:Generated_Source\PSoC5/isr_Timer_50ms.c ****     blinkcounter++;
 156              		.loc 1 193 0
 157 0004 AB4B     		ldr	r3, .L44
 158 0006 1B78     		ldrb	r3, [r3]	@ zero_extendqisi2
 159 0008 0133     		adds	r3, r3, #1
 160 000a DAB2     		uxtb	r2, r3
 161 000c A94B     		ldr	r3, .L44
 162 000e 1A70     		strb	r2, [r3]
 194:Generated_Source\PSoC5/isr_Timer_50ms.c ****         
 195:Generated_Source\PSoC5/isr_Timer_50ms.c ****     if(CurrentTest.SelectedTest == 0)
 163              		.loc 1 195 0
 164 0010 A94B     		ldr	r3, .L44+4
 165 0012 1B78     		ldrb	r3, [r3]	@ zero_extendqisi2
 166 0014 002B     		cmp	r3, #0
 167 0016 02D1     		bne	.L9
 196:Generated_Source\PSoC5/isr_Timer_50ms.c ****         CTest_50ms_isr();
 168              		.loc 1 196 0
 169 0018 FFF7FEFF 		bl	CTest_50ms_isr
 170 001c 21E0     		b	.L10
 171              	.L9:
 197:Generated_Source\PSoC5/isr_Timer_50ms.c ****     else if(CurrentTest.SelectedTest == 1)
 172              		.loc 1 197 0
 173 001e A64B     		ldr	r3, .L44+4
 174 0020 1B78     		ldrb	r3, [r3]	@ zero_extendqisi2
 175 0022 012B     		cmp	r3, #1
 176 0024 02D1     		bne	.L11
 198:Generated_Source\PSoC5/isr_Timer_50ms.c ****         RTest_50ms_isr();
 177              		.loc 1 198 0
 178 0026 FFF7FEFF 		bl	RTest_50ms_isr
 179 002a 1AE0     		b	.L10
 180              	.L11:
 199:Generated_Source\PSoC5/isr_Timer_50ms.c ****     else if(CurrentTest.SelectedTest == 2)
 181              		.loc 1 199 0
 182 002c A24B     		ldr	r3, .L44+4
 183 002e 1B78     		ldrb	r3, [r3]	@ zero_extendqisi2
 184 0030 022B     		cmp	r3, #2
 185 0032 02D1     		bne	.L12
 200:Generated_Source\PSoC5/isr_Timer_50ms.c ****         STest_50ms_isr();
 186              		.loc 1 200 0
 187 0034 FFF7FEFF 		bl	STest_50ms_isr
 188 0038 13E0     		b	.L10
 189              	.L12:
 201:Generated_Source\PSoC5/isr_Timer_50ms.c ****     else if(CurrentTest.SelectedTest == 3)
 190              		.loc 1 201 0
 191 003a 9F4B     		ldr	r3, .L44+4
 192 003c 1B78     		ldrb	r3, [r3]	@ zero_extendqisi2
 193 003e 032B     		cmp	r3, #3
 194 0040 02D1     		bne	.L13
 202:Generated_Source\PSoC5/isr_Timer_50ms.c ****         CTest_Complete_50ms_isr();
 195              		.loc 1 202 0
 196 0042 FFF7FEFF 		bl	CTest_Complete_50ms_isr
 197 0046 0CE0     		b	.L10
ARM GAS  C:\Users\MARTHN~1\AppData\Local\Temp\ccdIXi3K.s 			page 8


 198              	.L13:
 203:Generated_Source\PSoC5/isr_Timer_50ms.c ****     else if(CurrentTest.SelectedTest == 4)
 199              		.loc 1 203 0
 200 0048 9B4B     		ldr	r3, .L44+4
 201 004a 1B78     		ldrb	r3, [r3]	@ zero_extendqisi2
 202 004c 042B     		cmp	r3, #4
 203 004e 02D1     		bne	.L14
 204:Generated_Source\PSoC5/isr_Timer_50ms.c ****         RTest_Complete_50ms_isr();
 204              		.loc 1 204 0
 205 0050 FFF7FEFF 		bl	RTest_Complete_50ms_isr
 206 0054 05E0     		b	.L10
 207              	.L14:
 205:Generated_Source\PSoC5/isr_Timer_50ms.c ****     else if(CurrentTest.SelectedTest == 5)
 208              		.loc 1 205 0
 209 0056 984B     		ldr	r3, .L44+4
 210 0058 1B78     		ldrb	r3, [r3]	@ zero_extendqisi2
 211 005a 052B     		cmp	r3, #5
 212 005c 01D1     		bne	.L10
 206:Generated_Source\PSoC5/isr_Timer_50ms.c ****         CableTest_Complete_50ms_isr();
 213              		.loc 1 206 0
 214 005e FFF7FEFF 		bl	CableTest_Complete_50ms_isr
 215              	.L10:
 207:Generated_Source\PSoC5/isr_Timer_50ms.c ****         
 208:Generated_Source\PSoC5/isr_Timer_50ms.c **** //    LED1_Write(0);  // Red
 209:Generated_Source\PSoC5/isr_Timer_50ms.c **** //    LED2_Write(0);  // Amber
 210:Generated_Source\PSoC5/isr_Timer_50ms.c **** //    LED3_Write(1);  // Green
 211:Generated_Source\PSoC5/isr_Timer_50ms.c ****     
 212:Generated_Source\PSoC5/isr_Timer_50ms.c ****     // *** Add LED stuff here
 213:Generated_Source\PSoC5/isr_Timer_50ms.c ****     if( (CurrentTest.Status == 'I') || (CurrentTest.Status == 'B') || (CurrentTest.Status == 'U') )
 216              		.loc 1 213 0
 217 0062 954B     		ldr	r3, .L44+4
 218 0064 9B78     		ldrb	r3, [r3, #2]	@ zero_extendqisi2
 219 0066 492B     		cmp	r3, #73
 220 0068 07D0     		beq	.L15
 221              		.loc 1 213 0 is_stmt 0 discriminator 1
 222 006a 934B     		ldr	r3, .L44+4
 223 006c 9B78     		ldrb	r3, [r3, #2]	@ zero_extendqisi2
 224 006e 422B     		cmp	r3, #66
 225 0070 03D0     		beq	.L15
 226              		.loc 1 213 0 discriminator 2
 227 0072 914B     		ldr	r3, .L44+4
 228 0074 9B78     		ldrb	r3, [r3, #2]	@ zero_extendqisi2
 229 0076 552B     		cmp	r3, #85
 230 0078 09D1     		bne	.L16
 231              	.L15:
 214:Generated_Source\PSoC5/isr_Timer_50ms.c ****     {
 215:Generated_Source\PSoC5/isr_Timer_50ms.c ****         LED1_Write(0);
 232              		.loc 1 215 0 is_stmt 1
 233 007a 0020     		movs	r0, #0
 234 007c FFF7FEFF 		bl	LED1_Write
 216:Generated_Source\PSoC5/isr_Timer_50ms.c ****         LED2_Write(1);
 235              		.loc 1 216 0
 236 0080 0120     		movs	r0, #1
 237 0082 FFF7FEFF 		bl	LED2_Write
 217:Generated_Source\PSoC5/isr_Timer_50ms.c ****         LED3_Write(0); 
 238              		.loc 1 217 0
 239 0086 0020     		movs	r0, #0
ARM GAS  C:\Users\MARTHN~1\AppData\Local\Temp\ccdIXi3K.s 			page 9


 240 0088 FFF7FEFF 		bl	LED3_Write
 241 008c 08E1     		b	.L17
 242              	.L16:
 218:Generated_Source\PSoC5/isr_Timer_50ms.c ****     }
 219:Generated_Source\PSoC5/isr_Timer_50ms.c ****     else if(CurrentTest.Status == 'W')
 243              		.loc 1 219 0
 244 008e 8A4B     		ldr	r3, .L44+4
 245 0090 9B78     		ldrb	r3, [r3, #2]	@ zero_extendqisi2
 246 0092 572B     		cmp	r3, #87
 247 0094 28D1     		bne	.L18
 220:Generated_Source\PSoC5/isr_Timer_50ms.c ****     {
 221:Generated_Source\PSoC5/isr_Timer_50ms.c ****         if(blinkcounter < BLINKTIME)
 248              		.loc 1 221 0
 249 0096 874B     		ldr	r3, .L44
 250 0098 1B78     		ldrb	r3, [r3]	@ zero_extendqisi2
 251 009a 012B     		cmp	r3, #1
 252 009c 09D8     		bhi	.L19
 222:Generated_Source\PSoC5/isr_Timer_50ms.c ****         {
 223:Generated_Source\PSoC5/isr_Timer_50ms.c ****             LED1_Write(0);
 253              		.loc 1 223 0
 254 009e 0020     		movs	r0, #0
 255 00a0 FFF7FEFF 		bl	LED1_Write
 224:Generated_Source\PSoC5/isr_Timer_50ms.c ****             LED2_Write(1); 
 256              		.loc 1 224 0
 257 00a4 0120     		movs	r0, #1
 258 00a6 FFF7FEFF 		bl	LED2_Write
 225:Generated_Source\PSoC5/isr_Timer_50ms.c ****             LED3_Write(0); 
 259              		.loc 1 225 0
 260 00aa 0020     		movs	r0, #0
 261 00ac FFF7FEFF 		bl	LED3_Write
 262 00b0 F6E0     		b	.L17
 263              	.L19:
 226:Generated_Source\PSoC5/isr_Timer_50ms.c ****         }
 227:Generated_Source\PSoC5/isr_Timer_50ms.c ****         else if( ( blinkcounter > BLINKTIME) && (blinkcounter < (2*BLINKTIME) ) )
 264              		.loc 1 227 0
 265 00b2 804B     		ldr	r3, .L44
 266 00b4 1B78     		ldrb	r3, [r3]	@ zero_extendqisi2
 267 00b6 022B     		cmp	r3, #2
 268 00b8 0DD9     		bls	.L21
 269              		.loc 1 227 0 is_stmt 0 discriminator 1
 270 00ba 7E4B     		ldr	r3, .L44
 271 00bc 1B78     		ldrb	r3, [r3]	@ zero_extendqisi2
 272 00be 032B     		cmp	r3, #3
 273 00c0 09D8     		bhi	.L21
 228:Generated_Source\PSoC5/isr_Timer_50ms.c ****         {
 229:Generated_Source\PSoC5/isr_Timer_50ms.c ****             LED1_Write(0);
 274              		.loc 1 229 0 is_stmt 1
 275 00c2 0020     		movs	r0, #0
 276 00c4 FFF7FEFF 		bl	LED1_Write
 230:Generated_Source\PSoC5/isr_Timer_50ms.c ****             LED2_Write(0); 
 277              		.loc 1 230 0
 278 00c8 0020     		movs	r0, #0
 279 00ca FFF7FEFF 		bl	LED2_Write
 231:Generated_Source\PSoC5/isr_Timer_50ms.c ****             LED3_Write(0); 
 280              		.loc 1 231 0
 281 00ce 0020     		movs	r0, #0
 282 00d0 FFF7FEFF 		bl	LED3_Write
ARM GAS  C:\Users\MARTHN~1\AppData\Local\Temp\ccdIXi3K.s 			page 10


 283 00d4 E4E0     		b	.L17
 284              	.L21:
 232:Generated_Source\PSoC5/isr_Timer_50ms.c ****         }
 233:Generated_Source\PSoC5/isr_Timer_50ms.c ****         else if( blinkcounter > (2*BLINKTIME) )
 285              		.loc 1 233 0
 286 00d6 774B     		ldr	r3, .L44
 287 00d8 1B78     		ldrb	r3, [r3]	@ zero_extendqisi2
 288 00da 042B     		cmp	r3, #4
 289 00dc 40F2E080 		bls	.L17
 234:Generated_Source\PSoC5/isr_Timer_50ms.c ****         {
 235:Generated_Source\PSoC5/isr_Timer_50ms.c ****             blinkcounter = 0;
 290              		.loc 1 235 0
 291 00e0 744B     		ldr	r3, .L44
 292 00e2 0022     		movs	r2, #0
 293 00e4 1A70     		strb	r2, [r3]
 294 00e6 DBE0     		b	.L17
 295              	.L18:
 236:Generated_Source\PSoC5/isr_Timer_50ms.c ****         }
 237:Generated_Source\PSoC5/isr_Timer_50ms.c ****     }
 238:Generated_Source\PSoC5/isr_Timer_50ms.c ****     else if(CurrentTest.Status == 'P')
 296              		.loc 1 238 0
 297 00e8 734B     		ldr	r3, .L44+4
 298 00ea 9B78     		ldrb	r3, [r3, #2]	@ zero_extendqisi2
 299 00ec 502B     		cmp	r3, #80
 300 00ee 3AD1     		bne	.L22
 239:Generated_Source\PSoC5/isr_Timer_50ms.c ****     {
 240:Generated_Source\PSoC5/isr_Timer_50ms.c ****         if( (CurrentTest.SelectedTest == RTEST) && (CurrentTest.TestStep == 10) )           // If l
 301              		.loc 1 240 0
 302 00f0 714B     		ldr	r3, .L44+4
 303 00f2 1B78     		ldrb	r3, [r3]	@ zero_extendqisi2
 304 00f4 012B     		cmp	r3, #1
 305 00f6 2CD1     		bne	.L23
 306              		.loc 1 240 0 is_stmt 0 discriminator 1
 307 00f8 6F4B     		ldr	r3, .L44+4
 308 00fa 5B78     		ldrb	r3, [r3, #1]	@ zero_extendqisi2
 309 00fc 0A2B     		cmp	r3, #10
 310 00fe 28D1     		bne	.L23
 241:Generated_Source\PSoC5/isr_Timer_50ms.c ****         {
 242:Generated_Source\PSoC5/isr_Timer_50ms.c ****             if(blinkcounter < BLINKTIME)
 311              		.loc 1 242 0 is_stmt 1
 312 0100 6C4B     		ldr	r3, .L44
 313 0102 1B78     		ldrb	r3, [r3]	@ zero_extendqisi2
 314 0104 012B     		cmp	r3, #1
 315 0106 09D8     		bhi	.L24
 243:Generated_Source\PSoC5/isr_Timer_50ms.c ****             {
 244:Generated_Source\PSoC5/isr_Timer_50ms.c ****                 LED1_Write(0); 
 316              		.loc 1 244 0
 317 0108 0020     		movs	r0, #0
 318 010a FFF7FEFF 		bl	LED1_Write
 245:Generated_Source\PSoC5/isr_Timer_50ms.c ****                 LED2_Write(0); 
 319              		.loc 1 245 0
 320 010e 0020     		movs	r0, #0
 321 0110 FFF7FEFF 		bl	LED2_Write
 246:Generated_Source\PSoC5/isr_Timer_50ms.c ****                 LED3_Write(1); 
 322              		.loc 1 246 0
 323 0114 0120     		movs	r0, #1
 324 0116 FFF7FEFF 		bl	LED3_Write
ARM GAS  C:\Users\MARTHN~1\AppData\Local\Temp\ccdIXi3K.s 			page 11


 242:Generated_Source\PSoC5/isr_Timer_50ms.c ****             {
 325              		.loc 1 242 0
 326 011a C0E0     		b	.L42
 327              	.L24:
 247:Generated_Source\PSoC5/isr_Timer_50ms.c ****             }
 248:Generated_Source\PSoC5/isr_Timer_50ms.c ****             else if( ( blinkcounter > BLINKTIME) && (blinkcounter < (2*BLINKTIME) ) )
 328              		.loc 1 248 0
 329 011c 654B     		ldr	r3, .L44
 330 011e 1B78     		ldrb	r3, [r3]	@ zero_extendqisi2
 331 0120 022B     		cmp	r3, #2
 332 0122 0DD9     		bls	.L26
 333              		.loc 1 248 0 is_stmt 0 discriminator 1
 334 0124 634B     		ldr	r3, .L44
 335 0126 1B78     		ldrb	r3, [r3]	@ zero_extendqisi2
 336 0128 032B     		cmp	r3, #3
 337 012a 09D8     		bhi	.L26
 249:Generated_Source\PSoC5/isr_Timer_50ms.c ****             {
 250:Generated_Source\PSoC5/isr_Timer_50ms.c ****                 LED1_Write(0); 
 338              		.loc 1 250 0 is_stmt 1
 339 012c 0020     		movs	r0, #0
 340 012e FFF7FEFF 		bl	LED1_Write
 251:Generated_Source\PSoC5/isr_Timer_50ms.c ****                 LED2_Write(0); 
 341              		.loc 1 251 0
 342 0132 0020     		movs	r0, #0
 343 0134 FFF7FEFF 		bl	LED2_Write
 252:Generated_Source\PSoC5/isr_Timer_50ms.c ****                 LED3_Write(0); 
 344              		.loc 1 252 0
 345 0138 0020     		movs	r0, #0
 346 013a FFF7FEFF 		bl	LED3_Write
 242:Generated_Source\PSoC5/isr_Timer_50ms.c ****             {
 347              		.loc 1 242 0
 348 013e AEE0     		b	.L42
 349              	.L26:
 253:Generated_Source\PSoC5/isr_Timer_50ms.c ****             }
 254:Generated_Source\PSoC5/isr_Timer_50ms.c ****             else if( blinkcounter > (2*BLINKTIME) )
 350              		.loc 1 254 0
 351 0140 5C4B     		ldr	r3, .L44
 352 0142 1B78     		ldrb	r3, [r3]	@ zero_extendqisi2
 353 0144 042B     		cmp	r3, #4
 354 0146 40F2AA80 		bls	.L42
 255:Generated_Source\PSoC5/isr_Timer_50ms.c ****             {
 256:Generated_Source\PSoC5/isr_Timer_50ms.c ****                 blinkcounter = 0;
 355              		.loc 1 256 0
 356 014a 5A4B     		ldr	r3, .L44
 357 014c 0022     		movs	r2, #0
 358 014e 1A70     		strb	r2, [r3]
 242:Generated_Source\PSoC5/isr_Timer_50ms.c ****             {
 359              		.loc 1 242 0
 360 0150 A5E0     		b	.L42
 361              	.L23:
 257:Generated_Source\PSoC5/isr_Timer_50ms.c ****             }    
 258:Generated_Source\PSoC5/isr_Timer_50ms.c ****         }
 259:Generated_Source\PSoC5/isr_Timer_50ms.c ****         else
 260:Generated_Source\PSoC5/isr_Timer_50ms.c ****         {
 261:Generated_Source\PSoC5/isr_Timer_50ms.c ****             LED1_Write(0);
 362              		.loc 1 261 0
 363 0152 0020     		movs	r0, #0
ARM GAS  C:\Users\MARTHN~1\AppData\Local\Temp\ccdIXi3K.s 			page 12


 364 0154 FFF7FEFF 		bl	LED1_Write
 262:Generated_Source\PSoC5/isr_Timer_50ms.c ****             LED2_Write(0);
 365              		.loc 1 262 0
 366 0158 0020     		movs	r0, #0
 367 015a FFF7FEFF 		bl	LED2_Write
 263:Generated_Source\PSoC5/isr_Timer_50ms.c ****             LED3_Write(1); 
 368              		.loc 1 263 0
 369 015e 0120     		movs	r0, #1
 370 0160 FFF7FEFF 		bl	LED3_Write
 371 0164 9CE0     		b	.L17
 372              	.L22:
 264:Generated_Source\PSoC5/isr_Timer_50ms.c ****         }   
 265:Generated_Source\PSoC5/isr_Timer_50ms.c ****     }
 266:Generated_Source\PSoC5/isr_Timer_50ms.c ****     else if(CurrentTest.Status == 'F')
 373              		.loc 1 266 0
 374 0166 544B     		ldr	r3, .L44+4
 375 0168 9B78     		ldrb	r3, [r3, #2]	@ zero_extendqisi2
 376 016a 462B     		cmp	r3, #70
 377 016c 09D1     		bne	.L28
 267:Generated_Source\PSoC5/isr_Timer_50ms.c ****     {
 268:Generated_Source\PSoC5/isr_Timer_50ms.c ****         LED1_Write(1);
 378              		.loc 1 268 0
 379 016e 0120     		movs	r0, #1
 380 0170 FFF7FEFF 		bl	LED1_Write
 269:Generated_Source\PSoC5/isr_Timer_50ms.c ****         LED2_Write(0); 
 381              		.loc 1 269 0
 382 0174 0020     		movs	r0, #0
 383 0176 FFF7FEFF 		bl	LED2_Write
 270:Generated_Source\PSoC5/isr_Timer_50ms.c ****         LED3_Write(0); 
 384              		.loc 1 270 0
 385 017a 0020     		movs	r0, #0
 386 017c FFF7FEFF 		bl	LED3_Write
 387 0180 8EE0     		b	.L17
 388              	.L28:
 271:Generated_Source\PSoC5/isr_Timer_50ms.c ****     }
 272:Generated_Source\PSoC5/isr_Timer_50ms.c ****     else if(CurrentTest.Status == 'p')
 389              		.loc 1 272 0
 390 0182 4D4B     		ldr	r3, .L44+4
 391 0184 9B78     		ldrb	r3, [r3, #2]	@ zero_extendqisi2
 392 0186 702B     		cmp	r3, #112
 393 0188 27D1     		bne	.L29
 273:Generated_Source\PSoC5/isr_Timer_50ms.c ****     {
 274:Generated_Source\PSoC5/isr_Timer_50ms.c ****         if(blinkcounter < BLINKTIME)
 394              		.loc 1 274 0
 395 018a 4A4B     		ldr	r3, .L44
 396 018c 1B78     		ldrb	r3, [r3]	@ zero_extendqisi2
 397 018e 012B     		cmp	r3, #1
 398 0190 09D8     		bhi	.L30
 275:Generated_Source\PSoC5/isr_Timer_50ms.c ****         {
 276:Generated_Source\PSoC5/isr_Timer_50ms.c ****             LED1_Write(0);
 399              		.loc 1 276 0
 400 0192 0020     		movs	r0, #0
 401 0194 FFF7FEFF 		bl	LED1_Write
 277:Generated_Source\PSoC5/isr_Timer_50ms.c ****             LED2_Write(0);
 402              		.loc 1 277 0
 403 0198 0020     		movs	r0, #0
 404 019a FFF7FEFF 		bl	LED2_Write
ARM GAS  C:\Users\MARTHN~1\AppData\Local\Temp\ccdIXi3K.s 			page 13


 278:Generated_Source\PSoC5/isr_Timer_50ms.c ****             LED3_Write(1); 
 405              		.loc 1 278 0
 406 019e 0120     		movs	r0, #1
 407 01a0 FFF7FEFF 		bl	LED3_Write
 408 01a4 7CE0     		b	.L17
 409              	.L30:
 279:Generated_Source\PSoC5/isr_Timer_50ms.c ****         }
 280:Generated_Source\PSoC5/isr_Timer_50ms.c ****         else if( ( blinkcounter > BLINKTIME) && (blinkcounter < (2*BLINKTIME) ) )
 410              		.loc 1 280 0
 411 01a6 434B     		ldr	r3, .L44
 412 01a8 1B78     		ldrb	r3, [r3]	@ zero_extendqisi2
 413 01aa 022B     		cmp	r3, #2
 414 01ac 0DD9     		bls	.L32
 415              		.loc 1 280 0 is_stmt 0 discriminator 1
 416 01ae 414B     		ldr	r3, .L44
 417 01b0 1B78     		ldrb	r3, [r3]	@ zero_extendqisi2
 418 01b2 032B     		cmp	r3, #3
 419 01b4 09D8     		bhi	.L32
 281:Generated_Source\PSoC5/isr_Timer_50ms.c ****         {
 282:Generated_Source\PSoC5/isr_Timer_50ms.c ****             LED1_Write(0);
 420              		.loc 1 282 0 is_stmt 1
 421 01b6 0020     		movs	r0, #0
 422 01b8 FFF7FEFF 		bl	LED1_Write
 283:Generated_Source\PSoC5/isr_Timer_50ms.c ****             LED2_Write(0); 
 423              		.loc 1 283 0
 424 01bc 0020     		movs	r0, #0
 425 01be FFF7FEFF 		bl	LED2_Write
 284:Generated_Source\PSoC5/isr_Timer_50ms.c ****             LED3_Write(0); 
 426              		.loc 1 284 0
 427 01c2 0020     		movs	r0, #0
 428 01c4 FFF7FEFF 		bl	LED3_Write
 429 01c8 6AE0     		b	.L17
 430              	.L32:
 285:Generated_Source\PSoC5/isr_Timer_50ms.c ****         }
 286:Generated_Source\PSoC5/isr_Timer_50ms.c ****         else if( blinkcounter > (2*BLINKTIME) )
 431              		.loc 1 286 0
 432 01ca 3A4B     		ldr	r3, .L44
 433 01cc 1B78     		ldrb	r3, [r3]	@ zero_extendqisi2
 434 01ce 042B     		cmp	r3, #4
 435 01d0 66D9     		bls	.L17
 287:Generated_Source\PSoC5/isr_Timer_50ms.c ****         {
 288:Generated_Source\PSoC5/isr_Timer_50ms.c ****             blinkcounter = 0;
 436              		.loc 1 288 0
 437 01d2 384B     		ldr	r3, .L44
 438 01d4 0022     		movs	r2, #0
 439 01d6 1A70     		strb	r2, [r3]
 440 01d8 62E0     		b	.L17
 441              	.L29:
 289:Generated_Source\PSoC5/isr_Timer_50ms.c ****         }    
 290:Generated_Source\PSoC5/isr_Timer_50ms.c ****     }
 291:Generated_Source\PSoC5/isr_Timer_50ms.c ****     else if(CurrentTest.Status == 'f')
 442              		.loc 1 291 0
 443 01da 374B     		ldr	r3, .L44+4
 444 01dc 9B78     		ldrb	r3, [r3, #2]	@ zero_extendqisi2
 445 01de 662B     		cmp	r3, #102
 446 01e0 27D1     		bne	.L33
 292:Generated_Source\PSoC5/isr_Timer_50ms.c ****     {
ARM GAS  C:\Users\MARTHN~1\AppData\Local\Temp\ccdIXi3K.s 			page 14


 293:Generated_Source\PSoC5/isr_Timer_50ms.c ****         if(blinkcounter < BLINKTIME)
 447              		.loc 1 293 0
 448 01e2 344B     		ldr	r3, .L44
 449 01e4 1B78     		ldrb	r3, [r3]	@ zero_extendqisi2
 450 01e6 012B     		cmp	r3, #1
 451 01e8 09D8     		bhi	.L34
 294:Generated_Source\PSoC5/isr_Timer_50ms.c ****         {
 295:Generated_Source\PSoC5/isr_Timer_50ms.c ****             LED1_Write(1);
 452              		.loc 1 295 0
 453 01ea 0120     		movs	r0, #1
 454 01ec FFF7FEFF 		bl	LED1_Write
 296:Generated_Source\PSoC5/isr_Timer_50ms.c ****             LED2_Write(0);
 455              		.loc 1 296 0
 456 01f0 0020     		movs	r0, #0
 457 01f2 FFF7FEFF 		bl	LED2_Write
 297:Generated_Source\PSoC5/isr_Timer_50ms.c ****             LED3_Write(0); 
 458              		.loc 1 297 0
 459 01f6 0020     		movs	r0, #0
 460 01f8 FFF7FEFF 		bl	LED3_Write
 461 01fc 50E0     		b	.L17
 462              	.L34:
 298:Generated_Source\PSoC5/isr_Timer_50ms.c ****         }
 299:Generated_Source\PSoC5/isr_Timer_50ms.c ****         else if( ( blinkcounter > BLINKTIME) && (blinkcounter < (2*BLINKTIME) ) )
 463              		.loc 1 299 0
 464 01fe 2D4B     		ldr	r3, .L44
 465 0200 1B78     		ldrb	r3, [r3]	@ zero_extendqisi2
 466 0202 022B     		cmp	r3, #2
 467 0204 0DD9     		bls	.L36
 468              		.loc 1 299 0 is_stmt 0 discriminator 1
 469 0206 2B4B     		ldr	r3, .L44
 470 0208 1B78     		ldrb	r3, [r3]	@ zero_extendqisi2
 471 020a 032B     		cmp	r3, #3
 472 020c 09D8     		bhi	.L36
 300:Generated_Source\PSoC5/isr_Timer_50ms.c ****         {
 301:Generated_Source\PSoC5/isr_Timer_50ms.c ****             LED1_Write(0);
 473              		.loc 1 301 0 is_stmt 1
 474 020e 0020     		movs	r0, #0
 475 0210 FFF7FEFF 		bl	LED1_Write
 302:Generated_Source\PSoC5/isr_Timer_50ms.c ****             LED2_Write(0); 
 476              		.loc 1 302 0
 477 0214 0020     		movs	r0, #0
 478 0216 FFF7FEFF 		bl	LED2_Write
 303:Generated_Source\PSoC5/isr_Timer_50ms.c ****             LED3_Write(0); 
 479              		.loc 1 303 0
 480 021a 0020     		movs	r0, #0
 481 021c FFF7FEFF 		bl	LED3_Write
 482 0220 3EE0     		b	.L17
 483              	.L36:
 304:Generated_Source\PSoC5/isr_Timer_50ms.c ****         }
 305:Generated_Source\PSoC5/isr_Timer_50ms.c ****         else if( blinkcounter > (2*BLINKTIME) )
 484              		.loc 1 305 0
 485 0222 244B     		ldr	r3, .L44
 486 0224 1B78     		ldrb	r3, [r3]	@ zero_extendqisi2
 487 0226 042B     		cmp	r3, #4
 488 0228 3AD9     		bls	.L17
 306:Generated_Source\PSoC5/isr_Timer_50ms.c ****         {
 307:Generated_Source\PSoC5/isr_Timer_50ms.c ****             blinkcounter = 0;
ARM GAS  C:\Users\MARTHN~1\AppData\Local\Temp\ccdIXi3K.s 			page 15


 489              		.loc 1 307 0
 490 022a 224B     		ldr	r3, .L44
 491 022c 0022     		movs	r2, #0
 492 022e 1A70     		strb	r2, [r3]
 493 0230 36E0     		b	.L17
 494              	.L33:
 308:Generated_Source\PSoC5/isr_Timer_50ms.c ****         }    
 309:Generated_Source\PSoC5/isr_Timer_50ms.c ****     }
 310:Generated_Source\PSoC5/isr_Timer_50ms.c ****     else if(CurrentTest.Status == 'r')          // reset
 495              		.loc 1 310 0
 496 0232 214B     		ldr	r3, .L44+4
 497 0234 9B78     		ldrb	r3, [r3, #2]	@ zero_extendqisi2
 498 0236 722B     		cmp	r3, #114
 499 0238 27D1     		bne	.L37
 311:Generated_Source\PSoC5/isr_Timer_50ms.c ****     {
 312:Generated_Source\PSoC5/isr_Timer_50ms.c ****         if(blinkcounter < BLINKTIME)
 500              		.loc 1 312 0
 501 023a 1E4B     		ldr	r3, .L44
 502 023c 1B78     		ldrb	r3, [r3]	@ zero_extendqisi2
 503 023e 012B     		cmp	r3, #1
 504 0240 09D8     		bhi	.L38
 313:Generated_Source\PSoC5/isr_Timer_50ms.c ****         {
 314:Generated_Source\PSoC5/isr_Timer_50ms.c ****             LED1_Write(1);
 505              		.loc 1 314 0
 506 0242 0120     		movs	r0, #1
 507 0244 FFF7FEFF 		bl	LED1_Write
 315:Generated_Source\PSoC5/isr_Timer_50ms.c ****             LED2_Write(1);
 508              		.loc 1 315 0
 509 0248 0120     		movs	r0, #1
 510 024a FFF7FEFF 		bl	LED2_Write
 316:Generated_Source\PSoC5/isr_Timer_50ms.c ****             LED3_Write(1); 
 511              		.loc 1 316 0
 512 024e 0120     		movs	r0, #1
 513 0250 FFF7FEFF 		bl	LED3_Write
 514 0254 24E0     		b	.L17
 515              	.L38:
 317:Generated_Source\PSoC5/isr_Timer_50ms.c ****         }
 318:Generated_Source\PSoC5/isr_Timer_50ms.c ****         else if( ( blinkcounter > BLINKTIME) && (blinkcounter < (2*BLINKTIME) ) )
 516              		.loc 1 318 0
 517 0256 174B     		ldr	r3, .L44
 518 0258 1B78     		ldrb	r3, [r3]	@ zero_extendqisi2
 519 025a 022B     		cmp	r3, #2
 520 025c 0DD9     		bls	.L40
 521              		.loc 1 318 0 is_stmt 0 discriminator 1
 522 025e 154B     		ldr	r3, .L44
 523 0260 1B78     		ldrb	r3, [r3]	@ zero_extendqisi2
 524 0262 032B     		cmp	r3, #3
 525 0264 09D8     		bhi	.L40
 319:Generated_Source\PSoC5/isr_Timer_50ms.c ****         {
 320:Generated_Source\PSoC5/isr_Timer_50ms.c ****             LED1_Write(0);
 526              		.loc 1 320 0 is_stmt 1
 527 0266 0020     		movs	r0, #0
 528 0268 FFF7FEFF 		bl	LED1_Write
 321:Generated_Source\PSoC5/isr_Timer_50ms.c ****             LED2_Write(0); 
 529              		.loc 1 321 0
 530 026c 0020     		movs	r0, #0
 531 026e FFF7FEFF 		bl	LED2_Write
ARM GAS  C:\Users\MARTHN~1\AppData\Local\Temp\ccdIXi3K.s 			page 16


 322:Generated_Source\PSoC5/isr_Timer_50ms.c ****             LED3_Write(0); 
 532              		.loc 1 322 0
 533 0272 0020     		movs	r0, #0
 534 0274 FFF7FEFF 		bl	LED3_Write
 535 0278 12E0     		b	.L17
 536              	.L40:
 323:Generated_Source\PSoC5/isr_Timer_50ms.c ****         }
 324:Generated_Source\PSoC5/isr_Timer_50ms.c ****         else if( blinkcounter > (2*BLINKTIME) )
 537              		.loc 1 324 0
 538 027a 0E4B     		ldr	r3, .L44
 539 027c 1B78     		ldrb	r3, [r3]	@ zero_extendqisi2
 540 027e 042B     		cmp	r3, #4
 541 0280 0ED9     		bls	.L17
 325:Generated_Source\PSoC5/isr_Timer_50ms.c ****         {
 326:Generated_Source\PSoC5/isr_Timer_50ms.c ****             blinkcounter = 0;
 542              		.loc 1 326 0
 543 0282 0C4B     		ldr	r3, .L44
 544 0284 0022     		movs	r2, #0
 545 0286 1A70     		strb	r2, [r3]
 546 0288 0AE0     		b	.L17
 547              	.L37:
 327:Generated_Source\PSoC5/isr_Timer_50ms.c ****         }    
 328:Generated_Source\PSoC5/isr_Timer_50ms.c ****     }
 329:Generated_Source\PSoC5/isr_Timer_50ms.c ****     else
 330:Generated_Source\PSoC5/isr_Timer_50ms.c ****     {
 331:Generated_Source\PSoC5/isr_Timer_50ms.c ****         LED1_Write(0);
 548              		.loc 1 331 0
 549 028a 0020     		movs	r0, #0
 550 028c FFF7FEFF 		bl	LED1_Write
 332:Generated_Source\PSoC5/isr_Timer_50ms.c ****         LED2_Write(0);
 551              		.loc 1 332 0
 552 0290 0020     		movs	r0, #0
 553 0292 FFF7FEFF 		bl	LED2_Write
 333:Generated_Source\PSoC5/isr_Timer_50ms.c ****         LED3_Write(0); 
 554              		.loc 1 333 0
 555 0296 0020     		movs	r0, #0
 556 0298 FFF7FEFF 		bl	LED3_Write
 557 029c 00E0     		b	.L17
 558              	.L42:
 242:Generated_Source\PSoC5/isr_Timer_50ms.c ****             {
 559              		.loc 1 242 0
 560 029e 00BF     		nop
 561              	.L17:
 334:Generated_Source\PSoC5/isr_Timer_50ms.c ****     }
 335:Generated_Source\PSoC5/isr_Timer_50ms.c ****     
 336:Generated_Source\PSoC5/isr_Timer_50ms.c ****     
 337:Generated_Source\PSoC5/isr_Timer_50ms.c ****     if(blinkcounter > 100)
 562              		.loc 1 337 0
 563 02a0 044B     		ldr	r3, .L44
 564 02a2 1B78     		ldrb	r3, [r3]	@ zero_extendqisi2
 565 02a4 642B     		cmp	r3, #100
 566 02a6 02D9     		bls	.L43
 338:Generated_Source\PSoC5/isr_Timer_50ms.c ****         blinkcounter = 0;
 567              		.loc 1 338 0
 568 02a8 024B     		ldr	r3, .L44
 569 02aa 0022     		movs	r2, #0
 570 02ac 1A70     		strb	r2, [r3]
ARM GAS  C:\Users\MARTHN~1\AppData\Local\Temp\ccdIXi3K.s 			page 17


 571              	.L43:
 339:Generated_Source\PSoC5/isr_Timer_50ms.c ****         
 340:Generated_Source\PSoC5/isr_Timer_50ms.c ****         
 341:Generated_Source\PSoC5/isr_Timer_50ms.c **** 
 342:Generated_Source\PSoC5/isr_Timer_50ms.c ****     /* `#END` */
 343:Generated_Source\PSoC5/isr_Timer_50ms.c **** }
 572              		.loc 1 343 0
 573 02ae 00BF     		nop
 574 02b0 80BD     		pop	{r7, pc}
 575              	.L45:
 576 02b2 00BF     		.align	2
 577              	.L44:
 578 02b4 00000000 		.word	blinkcounter
 579 02b8 00000000 		.word	CurrentTest
 580              		.cfi_endproc
 581              	.LFE66:
 582              		.size	isr_Timer_50ms_Interrupt, .-isr_Timer_50ms_Interrupt
 583              		.section	.text.isr_Timer_50ms_SetVector,"ax",%progbits
 584              		.align	2
 585              		.global	isr_Timer_50ms_SetVector
 586              		.thumb
 587              		.thumb_func
 588              		.type	isr_Timer_50ms_SetVector, %function
 589              	isr_Timer_50ms_SetVector:
 590              	.LFB67:
 344:Generated_Source\PSoC5/isr_Timer_50ms.c **** 
 345:Generated_Source\PSoC5/isr_Timer_50ms.c **** 
 346:Generated_Source\PSoC5/isr_Timer_50ms.c **** /*******************************************************************************
 347:Generated_Source\PSoC5/isr_Timer_50ms.c **** * Function Name: isr_Timer_50ms_SetVector
 348:Generated_Source\PSoC5/isr_Timer_50ms.c **** ********************************************************************************
 349:Generated_Source\PSoC5/isr_Timer_50ms.c **** *
 350:Generated_Source\PSoC5/isr_Timer_50ms.c **** * Summary:
 351:Generated_Source\PSoC5/isr_Timer_50ms.c **** *   Change the ISR vector for the Interrupt. Note calling isr_Timer_50ms_Start
 352:Generated_Source\PSoC5/isr_Timer_50ms.c **** *   will override any effect this method would have had. To set the vector 
 353:Generated_Source\PSoC5/isr_Timer_50ms.c **** *   before the component has been started use isr_Timer_50ms_StartEx instead.
 354:Generated_Source\PSoC5/isr_Timer_50ms.c **** * 
 355:Generated_Source\PSoC5/isr_Timer_50ms.c **** *   When defining ISR functions, the CY_ISR and CY_ISR_PROTO macros should be 
 356:Generated_Source\PSoC5/isr_Timer_50ms.c **** *   used to provide consistent definition across compilers:
 357:Generated_Source\PSoC5/isr_Timer_50ms.c **** *
 358:Generated_Source\PSoC5/isr_Timer_50ms.c **** *   Function definition example:
 359:Generated_Source\PSoC5/isr_Timer_50ms.c **** *   CY_ISR(MyISR)
 360:Generated_Source\PSoC5/isr_Timer_50ms.c **** *   {
 361:Generated_Source\PSoC5/isr_Timer_50ms.c **** *   }
 362:Generated_Source\PSoC5/isr_Timer_50ms.c **** *
 363:Generated_Source\PSoC5/isr_Timer_50ms.c **** *   Function prototype example:
 364:Generated_Source\PSoC5/isr_Timer_50ms.c **** *     CY_ISR_PROTO(MyISR);
 365:Generated_Source\PSoC5/isr_Timer_50ms.c **** *
 366:Generated_Source\PSoC5/isr_Timer_50ms.c **** * Parameters:
 367:Generated_Source\PSoC5/isr_Timer_50ms.c **** *   address: Address of the ISR to set in the interrupt vector table.
 368:Generated_Source\PSoC5/isr_Timer_50ms.c **** *
 369:Generated_Source\PSoC5/isr_Timer_50ms.c **** * Return:
 370:Generated_Source\PSoC5/isr_Timer_50ms.c **** *   None
 371:Generated_Source\PSoC5/isr_Timer_50ms.c **** *
 372:Generated_Source\PSoC5/isr_Timer_50ms.c **** *******************************************************************************/
 373:Generated_Source\PSoC5/isr_Timer_50ms.c **** void isr_Timer_50ms_SetVector(cyisraddress address)
 374:Generated_Source\PSoC5/isr_Timer_50ms.c **** {
 591              		.loc 1 374 0
ARM GAS  C:\Users\MARTHN~1\AppData\Local\Temp\ccdIXi3K.s 			page 18


 592              		.cfi_startproc
 593              		@ args = 0, pretend = 0, frame = 16
 594              		@ frame_needed = 1, uses_anonymous_args = 0
 595              		@ link register save eliminated.
 596 0000 80B4     		push	{r7}
 597              		.cfi_def_cfa_offset 4
 598              		.cfi_offset 7, -4
 599 0002 85B0     		sub	sp, sp, #20
 600              		.cfi_def_cfa_offset 24
 601 0004 00AF     		add	r7, sp, #0
 602              		.cfi_def_cfa_register 7
 603 0006 7860     		str	r0, [r7, #4]
 375:Generated_Source\PSoC5/isr_Timer_50ms.c ****     cyisraddress * ramVectorTable;
 376:Generated_Source\PSoC5/isr_Timer_50ms.c **** 
 377:Generated_Source\PSoC5/isr_Timer_50ms.c ****     ramVectorTable = (cyisraddress *) *CYINT_VECT_TABLE;
 604              		.loc 1 377 0
 605 0008 054B     		ldr	r3, .L47
 606 000a 1B68     		ldr	r3, [r3]
 607 000c FB60     		str	r3, [r7, #12]
 378:Generated_Source\PSoC5/isr_Timer_50ms.c **** 
 379:Generated_Source\PSoC5/isr_Timer_50ms.c ****     ramVectorTable[CYINT_IRQ_BASE + (uint32)isr_Timer_50ms__INTC_NUMBER] = address;
 608              		.loc 1 379 0
 609 000e FB68     		ldr	r3, [r7, #12]
 610 0010 5433     		adds	r3, r3, #84
 611 0012 7A68     		ldr	r2, [r7, #4]
 612 0014 1A60     		str	r2, [r3]
 380:Generated_Source\PSoC5/isr_Timer_50ms.c **** }
 613              		.loc 1 380 0
 614 0016 00BF     		nop
 615 0018 1437     		adds	r7, r7, #20
 616              		.cfi_def_cfa_offset 4
 617 001a BD46     		mov	sp, r7
 618              		.cfi_def_cfa_register 13
 619              		@ sp needed
 620 001c 80BC     		pop	{r7}
 621              		.cfi_restore 7
 622              		.cfi_def_cfa_offset 0
 623 001e 7047     		bx	lr
 624              	.L48:
 625              		.align	2
 626              	.L47:
 627 0020 08ED00E0 		.word	-536810232
 628              		.cfi_endproc
 629              	.LFE67:
 630              		.size	isr_Timer_50ms_SetVector, .-isr_Timer_50ms_SetVector
 631              		.section	.text.isr_Timer_50ms_GetVector,"ax",%progbits
 632              		.align	2
 633              		.global	isr_Timer_50ms_GetVector
 634              		.thumb
 635              		.thumb_func
 636              		.type	isr_Timer_50ms_GetVector, %function
 637              	isr_Timer_50ms_GetVector:
 638              	.LFB68:
 381:Generated_Source\PSoC5/isr_Timer_50ms.c **** 
 382:Generated_Source\PSoC5/isr_Timer_50ms.c **** 
 383:Generated_Source\PSoC5/isr_Timer_50ms.c **** /*******************************************************************************
 384:Generated_Source\PSoC5/isr_Timer_50ms.c **** * Function Name: isr_Timer_50ms_GetVector
ARM GAS  C:\Users\MARTHN~1\AppData\Local\Temp\ccdIXi3K.s 			page 19


 385:Generated_Source\PSoC5/isr_Timer_50ms.c **** ********************************************************************************
 386:Generated_Source\PSoC5/isr_Timer_50ms.c **** *
 387:Generated_Source\PSoC5/isr_Timer_50ms.c **** * Summary:
 388:Generated_Source\PSoC5/isr_Timer_50ms.c **** *   Gets the "address" of the current ISR vector for the Interrupt.
 389:Generated_Source\PSoC5/isr_Timer_50ms.c **** *
 390:Generated_Source\PSoC5/isr_Timer_50ms.c **** * Parameters:
 391:Generated_Source\PSoC5/isr_Timer_50ms.c **** *   None
 392:Generated_Source\PSoC5/isr_Timer_50ms.c **** *
 393:Generated_Source\PSoC5/isr_Timer_50ms.c **** * Return:
 394:Generated_Source\PSoC5/isr_Timer_50ms.c **** *   Address of the ISR in the interrupt vector table.
 395:Generated_Source\PSoC5/isr_Timer_50ms.c **** *
 396:Generated_Source\PSoC5/isr_Timer_50ms.c **** *******************************************************************************/
 397:Generated_Source\PSoC5/isr_Timer_50ms.c **** cyisraddress isr_Timer_50ms_GetVector(void)
 398:Generated_Source\PSoC5/isr_Timer_50ms.c **** {
 639              		.loc 1 398 0
 640              		.cfi_startproc
 641              		@ args = 0, pretend = 0, frame = 8
 642              		@ frame_needed = 1, uses_anonymous_args = 0
 643              		@ link register save eliminated.
 644 0000 80B4     		push	{r7}
 645              		.cfi_def_cfa_offset 4
 646              		.cfi_offset 7, -4
 647 0002 83B0     		sub	sp, sp, #12
 648              		.cfi_def_cfa_offset 16
 649 0004 00AF     		add	r7, sp, #0
 650              		.cfi_def_cfa_register 7
 399:Generated_Source\PSoC5/isr_Timer_50ms.c ****     cyisraddress * ramVectorTable;
 400:Generated_Source\PSoC5/isr_Timer_50ms.c **** 
 401:Generated_Source\PSoC5/isr_Timer_50ms.c ****     ramVectorTable = (cyisraddress *) *CYINT_VECT_TABLE;
 651              		.loc 1 401 0
 652 0006 054B     		ldr	r3, .L51
 653 0008 1B68     		ldr	r3, [r3]
 654 000a 7B60     		str	r3, [r7, #4]
 402:Generated_Source\PSoC5/isr_Timer_50ms.c **** 
 403:Generated_Source\PSoC5/isr_Timer_50ms.c ****     return ramVectorTable[CYINT_IRQ_BASE + (uint32)isr_Timer_50ms__INTC_NUMBER];
 655              		.loc 1 403 0
 656 000c 7B68     		ldr	r3, [r7, #4]
 657 000e 5B6D     		ldr	r3, [r3, #84]
 404:Generated_Source\PSoC5/isr_Timer_50ms.c **** }
 658              		.loc 1 404 0
 659 0010 1846     		mov	r0, r3
 660 0012 0C37     		adds	r7, r7, #12
 661              		.cfi_def_cfa_offset 4
 662 0014 BD46     		mov	sp, r7
 663              		.cfi_def_cfa_register 13
 664              		@ sp needed
 665 0016 80BC     		pop	{r7}
 666              		.cfi_restore 7
 667              		.cfi_def_cfa_offset 0
 668 0018 7047     		bx	lr
 669              	.L52:
 670 001a 00BF     		.align	2
 671              	.L51:
 672 001c 08ED00E0 		.word	-536810232
 673              		.cfi_endproc
 674              	.LFE68:
 675              		.size	isr_Timer_50ms_GetVector, .-isr_Timer_50ms_GetVector
ARM GAS  C:\Users\MARTHN~1\AppData\Local\Temp\ccdIXi3K.s 			page 20


 676              		.section	.text.isr_Timer_50ms_SetPriority,"ax",%progbits
 677              		.align	2
 678              		.global	isr_Timer_50ms_SetPriority
 679              		.thumb
 680              		.thumb_func
 681              		.type	isr_Timer_50ms_SetPriority, %function
 682              	isr_Timer_50ms_SetPriority:
 683              	.LFB69:
 405:Generated_Source\PSoC5/isr_Timer_50ms.c **** 
 406:Generated_Source\PSoC5/isr_Timer_50ms.c **** 
 407:Generated_Source\PSoC5/isr_Timer_50ms.c **** /*******************************************************************************
 408:Generated_Source\PSoC5/isr_Timer_50ms.c **** * Function Name: isr_Timer_50ms_SetPriority
 409:Generated_Source\PSoC5/isr_Timer_50ms.c **** ********************************************************************************
 410:Generated_Source\PSoC5/isr_Timer_50ms.c **** *
 411:Generated_Source\PSoC5/isr_Timer_50ms.c **** * Summary:
 412:Generated_Source\PSoC5/isr_Timer_50ms.c **** *   Sets the Priority of the Interrupt. 
 413:Generated_Source\PSoC5/isr_Timer_50ms.c **** *
 414:Generated_Source\PSoC5/isr_Timer_50ms.c **** *   Note calling isr_Timer_50ms_Start or isr_Timer_50ms_StartEx will 
 415:Generated_Source\PSoC5/isr_Timer_50ms.c **** *   override any effect this API would have had. This API should only be called
 416:Generated_Source\PSoC5/isr_Timer_50ms.c **** *   after isr_Timer_50ms_Start or isr_Timer_50ms_StartEx has been called. 
 417:Generated_Source\PSoC5/isr_Timer_50ms.c **** *   To set the initial priority for the component, use the Design-Wide Resources
 418:Generated_Source\PSoC5/isr_Timer_50ms.c **** *   Interrupt Editor.
 419:Generated_Source\PSoC5/isr_Timer_50ms.c **** *
 420:Generated_Source\PSoC5/isr_Timer_50ms.c **** *   Note This API has no effect on Non-maskable interrupt NMI).
 421:Generated_Source\PSoC5/isr_Timer_50ms.c **** *
 422:Generated_Source\PSoC5/isr_Timer_50ms.c **** * Parameters:
 423:Generated_Source\PSoC5/isr_Timer_50ms.c **** *   priority: Priority of the interrupt, 0 being the highest priority
 424:Generated_Source\PSoC5/isr_Timer_50ms.c **** *             PSoC 3 and PSoC 5LP: Priority is from 0 to 7.
 425:Generated_Source\PSoC5/isr_Timer_50ms.c **** *             PSoC 4: Priority is from 0 to 3.
 426:Generated_Source\PSoC5/isr_Timer_50ms.c **** *
 427:Generated_Source\PSoC5/isr_Timer_50ms.c **** * Return:
 428:Generated_Source\PSoC5/isr_Timer_50ms.c **** *   None
 429:Generated_Source\PSoC5/isr_Timer_50ms.c **** *
 430:Generated_Source\PSoC5/isr_Timer_50ms.c **** *******************************************************************************/
 431:Generated_Source\PSoC5/isr_Timer_50ms.c **** void isr_Timer_50ms_SetPriority(uint8 priority)
 432:Generated_Source\PSoC5/isr_Timer_50ms.c **** {
 684              		.loc 1 432 0
 685              		.cfi_startproc
 686              		@ args = 0, pretend = 0, frame = 8
 687              		@ frame_needed = 1, uses_anonymous_args = 0
 688              		@ link register save eliminated.
 689 0000 80B4     		push	{r7}
 690              		.cfi_def_cfa_offset 4
 691              		.cfi_offset 7, -4
 692 0002 83B0     		sub	sp, sp, #12
 693              		.cfi_def_cfa_offset 16
 694 0004 00AF     		add	r7, sp, #0
 695              		.cfi_def_cfa_register 7
 696 0006 0346     		mov	r3, r0
 697 0008 FB71     		strb	r3, [r7, #7]
 433:Generated_Source\PSoC5/isr_Timer_50ms.c ****     *isr_Timer_50ms_INTC_PRIOR = priority << 5;
 698              		.loc 1 433 0
 699 000a 054A     		ldr	r2, .L54
 700 000c FB79     		ldrb	r3, [r7, #7]
 701 000e 5B01     		lsls	r3, r3, #5
 702 0010 DBB2     		uxtb	r3, r3
 703 0012 1370     		strb	r3, [r2]
ARM GAS  C:\Users\MARTHN~1\AppData\Local\Temp\ccdIXi3K.s 			page 21


 434:Generated_Source\PSoC5/isr_Timer_50ms.c **** }
 704              		.loc 1 434 0
 705 0014 00BF     		nop
 706 0016 0C37     		adds	r7, r7, #12
 707              		.cfi_def_cfa_offset 4
 708 0018 BD46     		mov	sp, r7
 709              		.cfi_def_cfa_register 13
 710              		@ sp needed
 711 001a 80BC     		pop	{r7}
 712              		.cfi_restore 7
 713              		.cfi_def_cfa_offset 0
 714 001c 7047     		bx	lr
 715              	.L55:
 716 001e 00BF     		.align	2
 717              	.L54:
 718 0020 05E400E0 		.word	-536812539
 719              		.cfi_endproc
 720              	.LFE69:
 721              		.size	isr_Timer_50ms_SetPriority, .-isr_Timer_50ms_SetPriority
 722              		.section	.text.isr_Timer_50ms_GetPriority,"ax",%progbits
 723              		.align	2
 724              		.global	isr_Timer_50ms_GetPriority
 725              		.thumb
 726              		.thumb_func
 727              		.type	isr_Timer_50ms_GetPriority, %function
 728              	isr_Timer_50ms_GetPriority:
 729              	.LFB70:
 435:Generated_Source\PSoC5/isr_Timer_50ms.c **** 
 436:Generated_Source\PSoC5/isr_Timer_50ms.c **** 
 437:Generated_Source\PSoC5/isr_Timer_50ms.c **** /*******************************************************************************
 438:Generated_Source\PSoC5/isr_Timer_50ms.c **** * Function Name: isr_Timer_50ms_GetPriority
 439:Generated_Source\PSoC5/isr_Timer_50ms.c **** ********************************************************************************
 440:Generated_Source\PSoC5/isr_Timer_50ms.c **** *
 441:Generated_Source\PSoC5/isr_Timer_50ms.c **** * Summary:
 442:Generated_Source\PSoC5/isr_Timer_50ms.c **** *   Gets the Priority of the Interrupt.
 443:Generated_Source\PSoC5/isr_Timer_50ms.c **** *
 444:Generated_Source\PSoC5/isr_Timer_50ms.c **** * Parameters:
 445:Generated_Source\PSoC5/isr_Timer_50ms.c **** *   None
 446:Generated_Source\PSoC5/isr_Timer_50ms.c **** *
 447:Generated_Source\PSoC5/isr_Timer_50ms.c **** * Return:
 448:Generated_Source\PSoC5/isr_Timer_50ms.c **** *   Priority of the interrupt, 0 being the highest priority
 449:Generated_Source\PSoC5/isr_Timer_50ms.c **** *    PSoC 3 and PSoC 5LP: Priority is from 0 to 7.
 450:Generated_Source\PSoC5/isr_Timer_50ms.c **** *    PSoC 4: Priority is from 0 to 3.
 451:Generated_Source\PSoC5/isr_Timer_50ms.c **** *
 452:Generated_Source\PSoC5/isr_Timer_50ms.c **** *******************************************************************************/
 453:Generated_Source\PSoC5/isr_Timer_50ms.c **** uint8 isr_Timer_50ms_GetPriority(void)
 454:Generated_Source\PSoC5/isr_Timer_50ms.c **** {
 730              		.loc 1 454 0
 731              		.cfi_startproc
 732              		@ args = 0, pretend = 0, frame = 8
 733              		@ frame_needed = 1, uses_anonymous_args = 0
 734              		@ link register save eliminated.
 735 0000 80B4     		push	{r7}
 736              		.cfi_def_cfa_offset 4
 737              		.cfi_offset 7, -4
 738 0002 83B0     		sub	sp, sp, #12
 739              		.cfi_def_cfa_offset 16
ARM GAS  C:\Users\MARTHN~1\AppData\Local\Temp\ccdIXi3K.s 			page 22


 740 0004 00AF     		add	r7, sp, #0
 741              		.cfi_def_cfa_register 7
 455:Generated_Source\PSoC5/isr_Timer_50ms.c ****     uint8 priority;
 456:Generated_Source\PSoC5/isr_Timer_50ms.c **** 
 457:Generated_Source\PSoC5/isr_Timer_50ms.c **** 
 458:Generated_Source\PSoC5/isr_Timer_50ms.c ****     priority = *isr_Timer_50ms_INTC_PRIOR >> 5;
 742              		.loc 1 458 0
 743 0006 054B     		ldr	r3, .L58
 744 0008 1B78     		ldrb	r3, [r3]
 745 000a DBB2     		uxtb	r3, r3
 746 000c 5B09     		lsrs	r3, r3, #5
 747 000e FB71     		strb	r3, [r7, #7]
 459:Generated_Source\PSoC5/isr_Timer_50ms.c **** 
 460:Generated_Source\PSoC5/isr_Timer_50ms.c ****     return priority;
 748              		.loc 1 460 0
 749 0010 FB79     		ldrb	r3, [r7, #7]	@ zero_extendqisi2
 461:Generated_Source\PSoC5/isr_Timer_50ms.c **** }
 750              		.loc 1 461 0
 751 0012 1846     		mov	r0, r3
 752 0014 0C37     		adds	r7, r7, #12
 753              		.cfi_def_cfa_offset 4
 754 0016 BD46     		mov	sp, r7
 755              		.cfi_def_cfa_register 13
 756              		@ sp needed
 757 0018 80BC     		pop	{r7}
 758              		.cfi_restore 7
 759              		.cfi_def_cfa_offset 0
 760 001a 7047     		bx	lr
 761              	.L59:
 762              		.align	2
 763              	.L58:
 764 001c 05E400E0 		.word	-536812539
 765              		.cfi_endproc
 766              	.LFE70:
 767              		.size	isr_Timer_50ms_GetPriority, .-isr_Timer_50ms_GetPriority
 768              		.section	.text.isr_Timer_50ms_Enable,"ax",%progbits
 769              		.align	2
 770              		.global	isr_Timer_50ms_Enable
 771              		.thumb
 772              		.thumb_func
 773              		.type	isr_Timer_50ms_Enable, %function
 774              	isr_Timer_50ms_Enable:
 775              	.LFB71:
 462:Generated_Source\PSoC5/isr_Timer_50ms.c **** 
 463:Generated_Source\PSoC5/isr_Timer_50ms.c **** 
 464:Generated_Source\PSoC5/isr_Timer_50ms.c **** /*******************************************************************************
 465:Generated_Source\PSoC5/isr_Timer_50ms.c **** * Function Name: isr_Timer_50ms_Enable
 466:Generated_Source\PSoC5/isr_Timer_50ms.c **** ********************************************************************************
 467:Generated_Source\PSoC5/isr_Timer_50ms.c **** *
 468:Generated_Source\PSoC5/isr_Timer_50ms.c **** * Summary:
 469:Generated_Source\PSoC5/isr_Timer_50ms.c **** *   Enables the interrupt to the interrupt controller. Do not call this function
 470:Generated_Source\PSoC5/isr_Timer_50ms.c **** *   unless ISR_Start() has been called or the functionality of the ISR_Start() 
 471:Generated_Source\PSoC5/isr_Timer_50ms.c **** *   function, which sets the vector and the priority, has been called.
 472:Generated_Source\PSoC5/isr_Timer_50ms.c **** *
 473:Generated_Source\PSoC5/isr_Timer_50ms.c **** * Parameters:
 474:Generated_Source\PSoC5/isr_Timer_50ms.c **** *   None
 475:Generated_Source\PSoC5/isr_Timer_50ms.c **** *
ARM GAS  C:\Users\MARTHN~1\AppData\Local\Temp\ccdIXi3K.s 			page 23


 476:Generated_Source\PSoC5/isr_Timer_50ms.c **** * Return:
 477:Generated_Source\PSoC5/isr_Timer_50ms.c **** *   None
 478:Generated_Source\PSoC5/isr_Timer_50ms.c **** *
 479:Generated_Source\PSoC5/isr_Timer_50ms.c **** *******************************************************************************/
 480:Generated_Source\PSoC5/isr_Timer_50ms.c **** void isr_Timer_50ms_Enable(void)
 481:Generated_Source\PSoC5/isr_Timer_50ms.c **** {
 776              		.loc 1 481 0
 777              		.cfi_startproc
 778              		@ args = 0, pretend = 0, frame = 0
 779              		@ frame_needed = 1, uses_anonymous_args = 0
 780              		@ link register save eliminated.
 781 0000 80B4     		push	{r7}
 782              		.cfi_def_cfa_offset 4
 783              		.cfi_offset 7, -4
 784 0002 00AF     		add	r7, sp, #0
 785              		.cfi_def_cfa_register 7
 482:Generated_Source\PSoC5/isr_Timer_50ms.c ****     /* Enable the general interrupt. */
 483:Generated_Source\PSoC5/isr_Timer_50ms.c ****     *isr_Timer_50ms_INTC_SET_EN = isr_Timer_50ms__INTC_MASK;
 786              		.loc 1 483 0
 787 0004 034B     		ldr	r3, .L61
 788 0006 2022     		movs	r2, #32
 789 0008 1A60     		str	r2, [r3]
 484:Generated_Source\PSoC5/isr_Timer_50ms.c **** }
 790              		.loc 1 484 0
 791 000a 00BF     		nop
 792 000c BD46     		mov	sp, r7
 793              		.cfi_def_cfa_register 13
 794              		@ sp needed
 795 000e 80BC     		pop	{r7}
 796              		.cfi_restore 7
 797              		.cfi_def_cfa_offset 0
 798 0010 7047     		bx	lr
 799              	.L62:
 800 0012 00BF     		.align	2
 801              	.L61:
 802 0014 00E100E0 		.word	-536813312
 803              		.cfi_endproc
 804              	.LFE71:
 805              		.size	isr_Timer_50ms_Enable, .-isr_Timer_50ms_Enable
 806              		.section	.text.isr_Timer_50ms_GetState,"ax",%progbits
 807              		.align	2
 808              		.global	isr_Timer_50ms_GetState
 809              		.thumb
 810              		.thumb_func
 811              		.type	isr_Timer_50ms_GetState, %function
 812              	isr_Timer_50ms_GetState:
 813              	.LFB72:
 485:Generated_Source\PSoC5/isr_Timer_50ms.c **** 
 486:Generated_Source\PSoC5/isr_Timer_50ms.c **** 
 487:Generated_Source\PSoC5/isr_Timer_50ms.c **** /*******************************************************************************
 488:Generated_Source\PSoC5/isr_Timer_50ms.c **** * Function Name: isr_Timer_50ms_GetState
 489:Generated_Source\PSoC5/isr_Timer_50ms.c **** ********************************************************************************
 490:Generated_Source\PSoC5/isr_Timer_50ms.c **** *
 491:Generated_Source\PSoC5/isr_Timer_50ms.c **** * Summary:
 492:Generated_Source\PSoC5/isr_Timer_50ms.c **** *   Gets the state (enabled, disabled) of the Interrupt.
 493:Generated_Source\PSoC5/isr_Timer_50ms.c **** *
 494:Generated_Source\PSoC5/isr_Timer_50ms.c **** * Parameters:
ARM GAS  C:\Users\MARTHN~1\AppData\Local\Temp\ccdIXi3K.s 			page 24


 495:Generated_Source\PSoC5/isr_Timer_50ms.c **** *   None
 496:Generated_Source\PSoC5/isr_Timer_50ms.c **** *
 497:Generated_Source\PSoC5/isr_Timer_50ms.c **** * Return:
 498:Generated_Source\PSoC5/isr_Timer_50ms.c **** *   1 if enabled, 0 if disabled.
 499:Generated_Source\PSoC5/isr_Timer_50ms.c **** *
 500:Generated_Source\PSoC5/isr_Timer_50ms.c **** *******************************************************************************/
 501:Generated_Source\PSoC5/isr_Timer_50ms.c **** uint8 isr_Timer_50ms_GetState(void)
 502:Generated_Source\PSoC5/isr_Timer_50ms.c **** {
 814              		.loc 1 502 0
 815              		.cfi_startproc
 816              		@ args = 0, pretend = 0, frame = 0
 817              		@ frame_needed = 1, uses_anonymous_args = 0
 818              		@ link register save eliminated.
 819 0000 80B4     		push	{r7}
 820              		.cfi_def_cfa_offset 4
 821              		.cfi_offset 7, -4
 822 0002 00AF     		add	r7, sp, #0
 823              		.cfi_def_cfa_register 7
 503:Generated_Source\PSoC5/isr_Timer_50ms.c ****     /* Get the state of the general interrupt. */
 504:Generated_Source\PSoC5/isr_Timer_50ms.c ****     return ((*isr_Timer_50ms_INTC_SET_EN & (uint32)isr_Timer_50ms__INTC_MASK) != 0u) ? 1u:0u;
 824              		.loc 1 504 0
 825 0004 064B     		ldr	r3, .L67
 826 0006 1B68     		ldr	r3, [r3]
 827 0008 03F02003 		and	r3, r3, #32
 828 000c 002B     		cmp	r3, #0
 829 000e 01D0     		beq	.L64
 830              		.loc 1 504 0 is_stmt 0 discriminator 1
 831 0010 0123     		movs	r3, #1
 832 0012 00E0     		b	.L65
 833              	.L64:
 834              		.loc 1 504 0 discriminator 2
 835 0014 0023     		movs	r3, #0
 836              	.L65:
 505:Generated_Source\PSoC5/isr_Timer_50ms.c **** }
 837              		.loc 1 505 0 is_stmt 1 discriminator 4
 838 0016 1846     		mov	r0, r3
 839 0018 BD46     		mov	sp, r7
 840              		.cfi_def_cfa_register 13
 841              		@ sp needed
 842 001a 80BC     		pop	{r7}
 843              		.cfi_restore 7
 844              		.cfi_def_cfa_offset 0
 845 001c 7047     		bx	lr
 846              	.L68:
 847 001e 00BF     		.align	2
 848              	.L67:
 849 0020 00E100E0 		.word	-536813312
 850              		.cfi_endproc
 851              	.LFE72:
 852              		.size	isr_Timer_50ms_GetState, .-isr_Timer_50ms_GetState
 853              		.section	.text.isr_Timer_50ms_Disable,"ax",%progbits
 854              		.align	2
 855              		.global	isr_Timer_50ms_Disable
 856              		.thumb
 857              		.thumb_func
 858              		.type	isr_Timer_50ms_Disable, %function
 859              	isr_Timer_50ms_Disable:
ARM GAS  C:\Users\MARTHN~1\AppData\Local\Temp\ccdIXi3K.s 			page 25


 860              	.LFB73:
 506:Generated_Source\PSoC5/isr_Timer_50ms.c **** 
 507:Generated_Source\PSoC5/isr_Timer_50ms.c **** 
 508:Generated_Source\PSoC5/isr_Timer_50ms.c **** /*******************************************************************************
 509:Generated_Source\PSoC5/isr_Timer_50ms.c **** * Function Name: isr_Timer_50ms_Disable
 510:Generated_Source\PSoC5/isr_Timer_50ms.c **** ********************************************************************************
 511:Generated_Source\PSoC5/isr_Timer_50ms.c **** *
 512:Generated_Source\PSoC5/isr_Timer_50ms.c **** * Summary:
 513:Generated_Source\PSoC5/isr_Timer_50ms.c **** *   Disables the Interrupt in the interrupt controller.
 514:Generated_Source\PSoC5/isr_Timer_50ms.c **** *
 515:Generated_Source\PSoC5/isr_Timer_50ms.c **** * Parameters:
 516:Generated_Source\PSoC5/isr_Timer_50ms.c **** *   None
 517:Generated_Source\PSoC5/isr_Timer_50ms.c **** *
 518:Generated_Source\PSoC5/isr_Timer_50ms.c **** * Return:
 519:Generated_Source\PSoC5/isr_Timer_50ms.c **** *   None
 520:Generated_Source\PSoC5/isr_Timer_50ms.c **** *
 521:Generated_Source\PSoC5/isr_Timer_50ms.c **** *******************************************************************************/
 522:Generated_Source\PSoC5/isr_Timer_50ms.c **** void isr_Timer_50ms_Disable(void)
 523:Generated_Source\PSoC5/isr_Timer_50ms.c **** {
 861              		.loc 1 523 0
 862              		.cfi_startproc
 863              		@ args = 0, pretend = 0, frame = 0
 864              		@ frame_needed = 1, uses_anonymous_args = 0
 865              		@ link register save eliminated.
 866 0000 80B4     		push	{r7}
 867              		.cfi_def_cfa_offset 4
 868              		.cfi_offset 7, -4
 869 0002 00AF     		add	r7, sp, #0
 870              		.cfi_def_cfa_register 7
 524:Generated_Source\PSoC5/isr_Timer_50ms.c ****     /* Disable the general interrupt. */
 525:Generated_Source\PSoC5/isr_Timer_50ms.c ****     *isr_Timer_50ms_INTC_CLR_EN = isr_Timer_50ms__INTC_MASK;
 871              		.loc 1 525 0
 872 0004 034B     		ldr	r3, .L70
 873 0006 2022     		movs	r2, #32
 874 0008 1A60     		str	r2, [r3]
 526:Generated_Source\PSoC5/isr_Timer_50ms.c **** }
 875              		.loc 1 526 0
 876 000a 00BF     		nop
 877 000c BD46     		mov	sp, r7
 878              		.cfi_def_cfa_register 13
 879              		@ sp needed
 880 000e 80BC     		pop	{r7}
 881              		.cfi_restore 7
 882              		.cfi_def_cfa_offset 0
 883 0010 7047     		bx	lr
 884              	.L71:
 885 0012 00BF     		.align	2
 886              	.L70:
 887 0014 80E100E0 		.word	-536813184
 888              		.cfi_endproc
 889              	.LFE73:
 890              		.size	isr_Timer_50ms_Disable, .-isr_Timer_50ms_Disable
 891              		.section	.text.isr_Timer_50ms_SetPending,"ax",%progbits
 892              		.align	2
 893              		.global	isr_Timer_50ms_SetPending
 894              		.thumb
 895              		.thumb_func
ARM GAS  C:\Users\MARTHN~1\AppData\Local\Temp\ccdIXi3K.s 			page 26


 896              		.type	isr_Timer_50ms_SetPending, %function
 897              	isr_Timer_50ms_SetPending:
 898              	.LFB74:
 527:Generated_Source\PSoC5/isr_Timer_50ms.c **** 
 528:Generated_Source\PSoC5/isr_Timer_50ms.c **** 
 529:Generated_Source\PSoC5/isr_Timer_50ms.c **** /*******************************************************************************
 530:Generated_Source\PSoC5/isr_Timer_50ms.c **** * Function Name: isr_Timer_50ms_SetPending
 531:Generated_Source\PSoC5/isr_Timer_50ms.c **** ********************************************************************************
 532:Generated_Source\PSoC5/isr_Timer_50ms.c **** *
 533:Generated_Source\PSoC5/isr_Timer_50ms.c **** * Summary:
 534:Generated_Source\PSoC5/isr_Timer_50ms.c **** *   Causes the Interrupt to enter the pending state, a software method of
 535:Generated_Source\PSoC5/isr_Timer_50ms.c **** *   generating the interrupt.
 536:Generated_Source\PSoC5/isr_Timer_50ms.c **** *
 537:Generated_Source\PSoC5/isr_Timer_50ms.c **** * Parameters:
 538:Generated_Source\PSoC5/isr_Timer_50ms.c **** *   None
 539:Generated_Source\PSoC5/isr_Timer_50ms.c **** *
 540:Generated_Source\PSoC5/isr_Timer_50ms.c **** * Return:
 541:Generated_Source\PSoC5/isr_Timer_50ms.c **** *   None
 542:Generated_Source\PSoC5/isr_Timer_50ms.c **** *
 543:Generated_Source\PSoC5/isr_Timer_50ms.c **** * Side Effects:
 544:Generated_Source\PSoC5/isr_Timer_50ms.c **** *   If interrupts are enabled and the interrupt is set up properly, the ISR is
 545:Generated_Source\PSoC5/isr_Timer_50ms.c **** *   entered (depending on the priority of this interrupt and other pending 
 546:Generated_Source\PSoC5/isr_Timer_50ms.c **** *   interrupts).
 547:Generated_Source\PSoC5/isr_Timer_50ms.c **** *
 548:Generated_Source\PSoC5/isr_Timer_50ms.c **** *******************************************************************************/
 549:Generated_Source\PSoC5/isr_Timer_50ms.c **** void isr_Timer_50ms_SetPending(void)
 550:Generated_Source\PSoC5/isr_Timer_50ms.c **** {
 899              		.loc 1 550 0
 900              		.cfi_startproc
 901              		@ args = 0, pretend = 0, frame = 0
 902              		@ frame_needed = 1, uses_anonymous_args = 0
 903              		@ link register save eliminated.
 904 0000 80B4     		push	{r7}
 905              		.cfi_def_cfa_offset 4
 906              		.cfi_offset 7, -4
 907 0002 00AF     		add	r7, sp, #0
 908              		.cfi_def_cfa_register 7
 551:Generated_Source\PSoC5/isr_Timer_50ms.c ****     *isr_Timer_50ms_INTC_SET_PD = isr_Timer_50ms__INTC_MASK;
 909              		.loc 1 551 0
 910 0004 034B     		ldr	r3, .L73
 911 0006 2022     		movs	r2, #32
 912 0008 1A60     		str	r2, [r3]
 552:Generated_Source\PSoC5/isr_Timer_50ms.c **** }
 913              		.loc 1 552 0
 914 000a 00BF     		nop
 915 000c BD46     		mov	sp, r7
 916              		.cfi_def_cfa_register 13
 917              		@ sp needed
 918 000e 80BC     		pop	{r7}
 919              		.cfi_restore 7
 920              		.cfi_def_cfa_offset 0
 921 0010 7047     		bx	lr
 922              	.L74:
 923 0012 00BF     		.align	2
 924              	.L73:
 925 0014 00E200E0 		.word	-536813056
 926              		.cfi_endproc
ARM GAS  C:\Users\MARTHN~1\AppData\Local\Temp\ccdIXi3K.s 			page 27


 927              	.LFE74:
 928              		.size	isr_Timer_50ms_SetPending, .-isr_Timer_50ms_SetPending
 929              		.section	.text.isr_Timer_50ms_ClearPending,"ax",%progbits
 930              		.align	2
 931              		.global	isr_Timer_50ms_ClearPending
 932              		.thumb
 933              		.thumb_func
 934              		.type	isr_Timer_50ms_ClearPending, %function
 935              	isr_Timer_50ms_ClearPending:
 936              	.LFB75:
 553:Generated_Source\PSoC5/isr_Timer_50ms.c **** 
 554:Generated_Source\PSoC5/isr_Timer_50ms.c **** 
 555:Generated_Source\PSoC5/isr_Timer_50ms.c **** /*******************************************************************************
 556:Generated_Source\PSoC5/isr_Timer_50ms.c **** * Function Name: isr_Timer_50ms_ClearPending
 557:Generated_Source\PSoC5/isr_Timer_50ms.c **** ********************************************************************************
 558:Generated_Source\PSoC5/isr_Timer_50ms.c **** *
 559:Generated_Source\PSoC5/isr_Timer_50ms.c **** * Summary:
 560:Generated_Source\PSoC5/isr_Timer_50ms.c **** *   Clears a pending interrupt in the interrupt controller.
 561:Generated_Source\PSoC5/isr_Timer_50ms.c **** *
 562:Generated_Source\PSoC5/isr_Timer_50ms.c **** *   Note Some interrupt sources are clear-on-read and require the block 
 563:Generated_Source\PSoC5/isr_Timer_50ms.c **** *   interrupt/status register to be read/cleared with the appropriate block API 
 564:Generated_Source\PSoC5/isr_Timer_50ms.c **** *   (GPIO, UART, and so on). Otherwise the ISR will continue to remain in 
 565:Generated_Source\PSoC5/isr_Timer_50ms.c **** *   pending state even though the interrupt itself is cleared using this API.
 566:Generated_Source\PSoC5/isr_Timer_50ms.c **** *
 567:Generated_Source\PSoC5/isr_Timer_50ms.c **** * Parameters:
 568:Generated_Source\PSoC5/isr_Timer_50ms.c **** *   None
 569:Generated_Source\PSoC5/isr_Timer_50ms.c **** *
 570:Generated_Source\PSoC5/isr_Timer_50ms.c **** * Return:
 571:Generated_Source\PSoC5/isr_Timer_50ms.c **** *   None
 572:Generated_Source\PSoC5/isr_Timer_50ms.c **** *
 573:Generated_Source\PSoC5/isr_Timer_50ms.c **** *******************************************************************************/
 574:Generated_Source\PSoC5/isr_Timer_50ms.c **** void isr_Timer_50ms_ClearPending(void)
 575:Generated_Source\PSoC5/isr_Timer_50ms.c **** {
 937              		.loc 1 575 0
 938              		.cfi_startproc
 939              		@ args = 0, pretend = 0, frame = 0
 940              		@ frame_needed = 1, uses_anonymous_args = 0
 941              		@ link register save eliminated.
 942 0000 80B4     		push	{r7}
 943              		.cfi_def_cfa_offset 4
 944              		.cfi_offset 7, -4
 945 0002 00AF     		add	r7, sp, #0
 946              		.cfi_def_cfa_register 7
 576:Generated_Source\PSoC5/isr_Timer_50ms.c ****     *isr_Timer_50ms_INTC_CLR_PD = isr_Timer_50ms__INTC_MASK;
 947              		.loc 1 576 0
 948 0004 034B     		ldr	r3, .L76
 949 0006 2022     		movs	r2, #32
 950 0008 1A60     		str	r2, [r3]
 577:Generated_Source\PSoC5/isr_Timer_50ms.c **** }
 951              		.loc 1 577 0
 952 000a 00BF     		nop
 953 000c BD46     		mov	sp, r7
 954              		.cfi_def_cfa_register 13
 955              		@ sp needed
 956 000e 80BC     		pop	{r7}
 957              		.cfi_restore 7
 958              		.cfi_def_cfa_offset 0
ARM GAS  C:\Users\MARTHN~1\AppData\Local\Temp\ccdIXi3K.s 			page 28


 959 0010 7047     		bx	lr
 960              	.L77:
 961 0012 00BF     		.align	2
 962              	.L76:
 963 0014 80E200E0 		.word	-536812928
 964              		.cfi_endproc
 965              	.LFE75:
 966              		.size	isr_Timer_50ms_ClearPending, .-isr_Timer_50ms_ClearPending
 967              		.text
 968              	.Letext0:
 969              		.file 2 "c:\\program files (x86)\\cypress\\psoc creator\\4.3\\psoc creator\\import\\gnu\\arm\\5.4.
 970              		.file 3 "c:\\program files (x86)\\cypress\\psoc creator\\4.3\\psoc creator\\import\\gnu\\arm\\5.4.
 971              		.file 4 "Generated_Source\\PSoC5/cytypes.h"
 972              		.file 5 "./CommonVariables.h"
 973              		.file 6 "Generated_Source\\PSoC5/core_cm3.h"
 974              		.section	.debug_info,"",%progbits
 975              	.Ldebug_info0:
 976 0000 07030000 		.4byte	0x307
 977 0004 0400     		.2byte	0x4
 978 0006 00000000 		.4byte	.Ldebug_abbrev0
 979 000a 04       		.byte	0x4
 980 000b 01       		.uleb128 0x1
 981 000c 5E000000 		.4byte	.LASF49
 982 0010 0C       		.byte	0xc
 983 0011 C7020000 		.4byte	.LASF50
 984 0015 D4010000 		.4byte	.LASF51
 985 0019 00000000 		.4byte	.Ldebug_ranges0+0
 986 001d 00000000 		.4byte	0
 987 0021 00000000 		.4byte	.Ldebug_line0
 988 0025 02       		.uleb128 0x2
 989 0026 04       		.byte	0x4
 990 0027 05       		.byte	0x5
 991 0028 696E7400 		.ascii	"int\000"
 992 002c 03       		.uleb128 0x3
 993 002d 04       		.byte	0x4
 994 002e 07       		.byte	0x7
 995 002f 64020000 		.4byte	.LASF0
 996 0033 03       		.uleb128 0x3
 997 0034 08       		.byte	0x8
 998 0035 05       		.byte	0x5
 999 0036 EF020000 		.4byte	.LASF1
 1000 003a 03       		.uleb128 0x3
 1001 003b 08       		.byte	0x8
 1002 003c 04       		.byte	0x4
 1003 003d 99030000 		.4byte	.LASF2
 1004 0041 03       		.uleb128 0x3
 1005 0042 01       		.byte	0x1
 1006 0043 06       		.byte	0x6
 1007 0044 A5030000 		.4byte	.LASF3
 1008 0048 03       		.uleb128 0x3
 1009 0049 01       		.byte	0x1
 1010 004a 08       		.byte	0x8
 1011 004b 25020000 		.4byte	.LASF4
 1012 004f 03       		.uleb128 0x3
 1013 0050 02       		.byte	0x2
 1014 0051 05       		.byte	0x5
 1015 0052 51030000 		.4byte	.LASF5
ARM GAS  C:\Users\MARTHN~1\AppData\Local\Temp\ccdIXi3K.s 			page 29


 1016 0056 03       		.uleb128 0x3
 1017 0057 02       		.byte	0x2
 1018 0058 07       		.byte	0x7
 1019 0059 BC010000 		.4byte	.LASF6
 1020 005d 04       		.uleb128 0x4
 1021 005e 09010000 		.4byte	.LASF12
 1022 0062 02       		.byte	0x2
 1023 0063 3F       		.byte	0x3f
 1024 0064 68000000 		.4byte	0x68
 1025 0068 03       		.uleb128 0x3
 1026 0069 04       		.byte	0x4
 1027 006a 05       		.byte	0x5
 1028 006b 7B030000 		.4byte	.LASF7
 1029 006f 03       		.uleb128 0x3
 1030 0070 04       		.byte	0x4
 1031 0071 07       		.byte	0x7
 1032 0072 9E010000 		.4byte	.LASF8
 1033 0076 03       		.uleb128 0x3
 1034 0077 08       		.byte	0x8
 1035 0078 07       		.byte	0x7
 1036 0079 79020000 		.4byte	.LASF9
 1037 007d 03       		.uleb128 0x3
 1038 007e 04       		.byte	0x4
 1039 007f 07       		.byte	0x7
 1040 0080 BE020000 		.4byte	.LASF10
 1041 0084 03       		.uleb128 0x3
 1042 0085 01       		.byte	0x1
 1043 0086 08       		.byte	0x8
 1044 0087 18030000 		.4byte	.LASF11
 1045 008b 05       		.uleb128 0x5
 1046 008c 04       		.byte	0x4
 1047 008d 91000000 		.4byte	0x91
 1048 0091 06       		.uleb128 0x6
 1049 0092 04       		.uleb128 0x4
 1050 0093 B6020000 		.4byte	.LASF13
 1051 0097 03       		.byte	0x3
 1052 0098 2C       		.byte	0x2c
 1053 0099 5D000000 		.4byte	0x5d
 1054 009d 07       		.uleb128 0x7
 1055 009e 61030000 		.4byte	.LASF14
 1056 00a2 04       		.byte	0x4
 1057 00a3 E401     		.2byte	0x1e4
 1058 00a5 48000000 		.4byte	0x48
 1059 00a9 07       		.uleb128 0x7
 1060 00aa 5D020000 		.4byte	.LASF15
 1061 00ae 04       		.byte	0x4
 1062 00af E601     		.2byte	0x1e6
 1063 00b1 6F000000 		.4byte	0x6f
 1064 00b5 03       		.uleb128 0x3
 1065 00b6 04       		.byte	0x4
 1066 00b7 04       		.byte	0x4
 1067 00b8 67010000 		.4byte	.LASF16
 1068 00bc 03       		.uleb128 0x3
 1069 00bd 08       		.byte	0x8
 1070 00be 04       		.byte	0x4
 1071 00bf 33020000 		.4byte	.LASF17
 1072 00c3 07       		.uleb128 0x7
ARM GAS  C:\Users\MARTHN~1\AppData\Local\Temp\ccdIXi3K.s 			page 30


 1073 00c4 93010000 		.4byte	.LASF18
 1074 00c8 04       		.byte	0x4
 1075 00c9 8E02     		.2byte	0x28e
 1076 00cb CF000000 		.4byte	0xcf
 1077 00cf 08       		.uleb128 0x8
 1078 00d0 9D000000 		.4byte	0x9d
 1079 00d4 07       		.uleb128 0x7
 1080 00d5 84030000 		.4byte	.LASF19
 1081 00d9 04       		.byte	0x4
 1082 00da 9002     		.2byte	0x290
 1083 00dc E0000000 		.4byte	0xe0
 1084 00e0 08       		.uleb128 0x8
 1085 00e1 A9000000 		.4byte	0xa9
 1086 00e5 07       		.uleb128 0x7
 1087 00e6 90020000 		.4byte	.LASF20
 1088 00ea 04       		.byte	0x4
 1089 00eb A002     		.2byte	0x2a0
 1090 00ed 8B000000 		.4byte	0x8b
 1091 00f1 09       		.uleb128 0x9
 1092 00f2 8A030000 		.4byte	.LASF52
 1093 00f6 03       		.byte	0x3
 1094 00f7 05       		.byte	0x5
 1095 00f8 10       		.byte	0x10
 1096 00f9 22010000 		.4byte	0x122
 1097 00fd 0A       		.uleb128 0xa
 1098 00fe 5A010000 		.4byte	.LASF21
 1099 0102 05       		.byte	0x5
 1100 0103 12       		.byte	0x12
 1101 0104 9D000000 		.4byte	0x9d
 1102 0108 00       		.byte	0
 1103 0109 0A       		.uleb128 0xa
 1104 010a 2F010000 		.4byte	.LASF22
 1105 010e 05       		.byte	0x5
 1106 010f 13       		.byte	0x13
 1107 0110 9D000000 		.4byte	0x9d
 1108 0114 01       		.byte	0x1
 1109 0115 0A       		.uleb128 0xa
 1110 0116 13010000 		.4byte	.LASF23
 1111 011a 05       		.byte	0x5
 1112 011b 14       		.byte	0x14
 1113 011c 9D000000 		.4byte	0x9d
 1114 0120 02       		.byte	0x2
 1115 0121 00       		.byte	0
 1116 0122 04       		.uleb128 0x4
 1117 0123 2C030000 		.4byte	.LASF24
 1118 0127 05       		.byte	0x5
 1119 0128 18       		.byte	0x18
 1120 0129 F1000000 		.4byte	0xf1
 1121 012d 0B       		.uleb128 0xb
 1122 012e 38010000 		.4byte	.LASF53
 1123 0132 01       		.byte	0x1
 1124 0133 48000000 		.4byte	0x48
 1125 0137 01       		.byte	0x1
 1126 0138 2E       		.byte	0x2e
 1127 0139 5C010000 		.4byte	0x15c
 1128 013d 0C       		.uleb128 0xc
 1129 013e 5B030000 		.4byte	.LASF25
ARM GAS  C:\Users\MARTHN~1\AppData\Local\Temp\ccdIXi3K.s 			page 31


 1130 0142 00       		.byte	0
 1131 0143 0C       		.uleb128 0xc
 1132 0144 03010000 		.4byte	.LASF26
 1133 0148 01       		.byte	0x1
 1134 0149 0C       		.uleb128 0xc
 1135 014a 98010000 		.4byte	.LASF27
 1136 014e 02       		.byte	0x2
 1137 014f 0C       		.uleb128 0xc
 1138 0150 B1030000 		.4byte	.LASF28
 1139 0154 03       		.byte	0x3
 1140 0155 0C       		.uleb128 0xc
 1141 0156 33000000 		.4byte	.LASF29
 1142 015a 04       		.byte	0x4
 1143 015b 00       		.byte	0
 1144 015c 0D       		.uleb128 0xd
 1145 015d 1A010000 		.4byte	.LASF30
 1146 0161 01       		.byte	0x1
 1147 0162 55       		.byte	0x55
 1148 0163 00000000 		.4byte	.LFB63
 1149 0167 20000000 		.4byte	.LFE63-.LFB63
 1150 016b 01       		.uleb128 0x1
 1151 016c 9C       		.byte	0x9c
 1152 016d 0E       		.uleb128 0xe
 1153 016e C0030000 		.4byte	.LASF33
 1154 0172 01       		.byte	0x1
 1155 0173 80       		.byte	0x80
 1156 0174 00000000 		.4byte	.LFB64
 1157 0178 24000000 		.4byte	.LFE64-.LFB64
 1158 017c 01       		.uleb128 0x1
 1159 017d 9C       		.byte	0x9c
 1160 017e 91010000 		.4byte	0x191
 1161 0182 0F       		.uleb128 0xf
 1162 0183 71020000 		.4byte	.LASF35
 1163 0187 01       		.byte	0x1
 1164 0188 80       		.byte	0x80
 1165 0189 E5000000 		.4byte	0xe5
 1166 018d 02       		.uleb128 0x2
 1167 018e 91       		.byte	0x91
 1168 018f 74       		.sleb128 -12
 1169 0190 00       		.byte	0
 1170 0191 0D       		.uleb128 0xd
 1171 0192 67030000 		.4byte	.LASF31
 1172 0196 01       		.byte	0x1
 1173 0197 9E       		.byte	0x9e
 1174 0198 00000000 		.4byte	.LFB65
 1175 019c 18000000 		.4byte	.LFE65-.LFB65
 1176 01a0 01       		.uleb128 0x1
 1177 01a1 9C       		.byte	0x9c
 1178 01a2 0D       		.uleb128 0xd
 1179 01a3 9D020000 		.4byte	.LASF32
 1180 01a7 01       		.byte	0x1
 1181 01a8 B8       		.byte	0xb8
 1182 01a9 00000000 		.4byte	.LFB66
 1183 01ad BC020000 		.4byte	.LFE66-.LFB66
 1184 01b1 01       		.uleb128 0x1
 1185 01b2 9C       		.byte	0x9c
 1186 01b3 10       		.uleb128 0x10
ARM GAS  C:\Users\MARTHN~1\AppData\Local\Temp\ccdIXi3K.s 			page 32


 1187 01b4 6D010000 		.4byte	.LASF34
 1188 01b8 01       		.byte	0x1
 1189 01b9 7501     		.2byte	0x175
 1190 01bb 00000000 		.4byte	.LFB67
 1191 01bf 24000000 		.4byte	.LFE67-.LFB67
 1192 01c3 01       		.uleb128 0x1
 1193 01c4 9C       		.byte	0x9c
 1194 01c5 E8010000 		.4byte	0x1e8
 1195 01c9 11       		.uleb128 0x11
 1196 01ca 71020000 		.4byte	.LASF35
 1197 01ce 01       		.byte	0x1
 1198 01cf 7501     		.2byte	0x175
 1199 01d1 E5000000 		.4byte	0xe5
 1200 01d5 02       		.uleb128 0x2
 1201 01d6 91       		.byte	0x91
 1202 01d7 6C       		.sleb128 -20
 1203 01d8 12       		.uleb128 0x12
 1204 01d9 1D030000 		.4byte	.LASF36
 1205 01dd 01       		.byte	0x1
 1206 01de 7701     		.2byte	0x177
 1207 01e0 E8010000 		.4byte	0x1e8
 1208 01e4 02       		.uleb128 0x2
 1209 01e5 91       		.byte	0x91
 1210 01e6 74       		.sleb128 -12
 1211 01e7 00       		.byte	0
 1212 01e8 05       		.uleb128 0x5
 1213 01e9 04       		.byte	0x4
 1214 01ea E5000000 		.4byte	0xe5
 1215 01ee 13       		.uleb128 0x13
 1216 01ef 41010000 		.4byte	.LASF39
 1217 01f3 01       		.byte	0x1
 1218 01f4 8D01     		.2byte	0x18d
 1219 01f6 E5000000 		.4byte	0xe5
 1220 01fa 00000000 		.4byte	.LFB68
 1221 01fe 20000000 		.4byte	.LFE68-.LFB68
 1222 0202 01       		.uleb128 0x1
 1223 0203 9C       		.byte	0x9c
 1224 0204 18020000 		.4byte	0x218
 1225 0208 12       		.uleb128 0x12
 1226 0209 1D030000 		.4byte	.LASF36
 1227 020d 01       		.byte	0x1
 1228 020e 8F01     		.2byte	0x18f
 1229 0210 E8010000 		.4byte	0x1e8
 1230 0214 02       		.uleb128 0x2
 1231 0215 91       		.byte	0x91
 1232 0216 74       		.sleb128 -12
 1233 0217 00       		.byte	0
 1234 0218 10       		.uleb128 0x10
 1235 0219 18000000 		.4byte	.LASF37
 1236 021d 01       		.byte	0x1
 1237 021e AF01     		.2byte	0x1af
 1238 0220 00000000 		.4byte	.LFB69
 1239 0224 24000000 		.4byte	.LFE69-.LFB69
 1240 0228 01       		.uleb128 0x1
 1241 0229 9C       		.byte	0x9c
 1242 022a 3E020000 		.4byte	0x23e
 1243 022e 11       		.uleb128 0x11
ARM GAS  C:\Users\MARTHN~1\AppData\Local\Temp\ccdIXi3K.s 			page 33


 1244 022f 3A020000 		.4byte	.LASF38
 1245 0233 01       		.byte	0x1
 1246 0234 AF01     		.2byte	0x1af
 1247 0236 9D000000 		.4byte	0x9d
 1248 023a 02       		.uleb128 0x2
 1249 023b 91       		.byte	0x91
 1250 023c 77       		.sleb128 -9
 1251 023d 00       		.byte	0
 1252 023e 13       		.uleb128 0x13
 1253 023f FD020000 		.4byte	.LASF40
 1254 0243 01       		.byte	0x1
 1255 0244 C501     		.2byte	0x1c5
 1256 0246 9D000000 		.4byte	0x9d
 1257 024a 00000000 		.4byte	.LFB70
 1258 024e 20000000 		.4byte	.LFE70-.LFB70
 1259 0252 01       		.uleb128 0x1
 1260 0253 9C       		.byte	0x9c
 1261 0254 68020000 		.4byte	0x268
 1262 0258 12       		.uleb128 0x12
 1263 0259 3A020000 		.4byte	.LASF38
 1264 025d 01       		.byte	0x1
 1265 025e C701     		.2byte	0x1c7
 1266 0260 9D000000 		.4byte	0x9d
 1267 0264 02       		.uleb128 0x2
 1268 0265 91       		.byte	0x91
 1269 0266 77       		.sleb128 -9
 1270 0267 00       		.byte	0
 1271 0268 14       		.uleb128 0x14
 1272 0269 3B030000 		.4byte	.LASF41
 1273 026d 01       		.byte	0x1
 1274 026e E001     		.2byte	0x1e0
 1275 0270 00000000 		.4byte	.LFB71
 1276 0274 18000000 		.4byte	.LFE71-.LFB71
 1277 0278 01       		.uleb128 0x1
 1278 0279 9C       		.byte	0x9c
 1279 027a 15       		.uleb128 0x15
 1280 027b 00000000 		.4byte	.LASF54
 1281 027f 01       		.byte	0x1
 1282 0280 F501     		.2byte	0x1f5
 1283 0282 9D000000 		.4byte	0x9d
 1284 0286 00000000 		.4byte	.LFB72
 1285 028a 24000000 		.4byte	.LFE72-.LFB72
 1286 028e 01       		.uleb128 0x1
 1287 028f 9C       		.byte	0x9c
 1288 0290 14       		.uleb128 0x14
 1289 0291 EC000000 		.4byte	.LASF42
 1290 0295 01       		.byte	0x1
 1291 0296 0A02     		.2byte	0x20a
 1292 0298 00000000 		.4byte	.LFB73
 1293 029c 18000000 		.4byte	.LFE73-.LFB73
 1294 02a0 01       		.uleb128 0x1
 1295 02a1 9C       		.byte	0x9c
 1296 02a2 14       		.uleb128 0x14
 1297 02a3 43020000 		.4byte	.LASF43
 1298 02a7 01       		.byte	0x1
 1299 02a8 2502     		.2byte	0x225
 1300 02aa 00000000 		.4byte	.LFB74
ARM GAS  C:\Users\MARTHN~1\AppData\Local\Temp\ccdIXi3K.s 			page 34


 1301 02ae 18000000 		.4byte	.LFE74-.LFB74
 1302 02b2 01       		.uleb128 0x1
 1303 02b3 9C       		.byte	0x9c
 1304 02b4 14       		.uleb128 0x14
 1305 02b5 42000000 		.4byte	.LASF44
 1306 02b9 01       		.byte	0x1
 1307 02ba 3E02     		.2byte	0x23e
 1308 02bc 00000000 		.4byte	.LFB75
 1309 02c0 18000000 		.4byte	.LFE75-.LFB75
 1310 02c4 01       		.uleb128 0x1
 1311 02c5 9C       		.byte	0x9c
 1312 02c6 16       		.uleb128 0x16
 1313 02c7 86010000 		.4byte	.LASF45
 1314 02cb 01       		.byte	0x1
 1315 02cc 2C       		.byte	0x2c
 1316 02cd 9D000000 		.4byte	0x9d
 1317 02d1 05       		.uleb128 0x5
 1318 02d2 03       		.byte	0x3
 1319 02d3 00000000 		.4byte	blinkcounter
 1320 02d7 17       		.uleb128 0x17
 1321 02d8 18020000 		.4byte	.LASF46
 1322 02dc 06       		.byte	0x6
 1323 02dd 1207     		.2byte	0x712
 1324 02df E3020000 		.4byte	0x2e3
 1325 02e3 08       		.uleb128 0x8
 1326 02e4 92000000 		.4byte	0x92
 1327 02e8 18       		.uleb128 0x18
 1328 02e9 CF010000 		.4byte	.LASF47
 1329 02ed 05       		.byte	0x5
 1330 02ee 16       		.byte	0x16
 1331 02ef F1000000 		.4byte	0xf1
 1332 02f3 05       		.uleb128 0x5
 1333 02f4 03       		.byte	0x3
 1334 02f5 00000000 		.4byte	Test
 1335 02f9 18       		.uleb128 0x18
 1336 02fa B0010000 		.4byte	.LASF48
 1337 02fe 01       		.byte	0x1
 1338 02ff 2A       		.byte	0x2a
 1339 0300 22010000 		.4byte	0x122
 1340 0304 05       		.uleb128 0x5
 1341 0305 03       		.byte	0x3
 1342 0306 00000000 		.4byte	CurrentTest
 1343 030a 00       		.byte	0
 1344              		.section	.debug_abbrev,"",%progbits
 1345              	.Ldebug_abbrev0:
 1346 0000 01       		.uleb128 0x1
 1347 0001 11       		.uleb128 0x11
 1348 0002 01       		.byte	0x1
 1349 0003 25       		.uleb128 0x25
 1350 0004 0E       		.uleb128 0xe
 1351 0005 13       		.uleb128 0x13
 1352 0006 0B       		.uleb128 0xb
 1353 0007 03       		.uleb128 0x3
 1354 0008 0E       		.uleb128 0xe
 1355 0009 1B       		.uleb128 0x1b
 1356 000a 0E       		.uleb128 0xe
 1357 000b 55       		.uleb128 0x55
ARM GAS  C:\Users\MARTHN~1\AppData\Local\Temp\ccdIXi3K.s 			page 35


 1358 000c 17       		.uleb128 0x17
 1359 000d 11       		.uleb128 0x11
 1360 000e 01       		.uleb128 0x1
 1361 000f 10       		.uleb128 0x10
 1362 0010 17       		.uleb128 0x17
 1363 0011 00       		.byte	0
 1364 0012 00       		.byte	0
 1365 0013 02       		.uleb128 0x2
 1366 0014 24       		.uleb128 0x24
 1367 0015 00       		.byte	0
 1368 0016 0B       		.uleb128 0xb
 1369 0017 0B       		.uleb128 0xb
 1370 0018 3E       		.uleb128 0x3e
 1371 0019 0B       		.uleb128 0xb
 1372 001a 03       		.uleb128 0x3
 1373 001b 08       		.uleb128 0x8
 1374 001c 00       		.byte	0
 1375 001d 00       		.byte	0
 1376 001e 03       		.uleb128 0x3
 1377 001f 24       		.uleb128 0x24
 1378 0020 00       		.byte	0
 1379 0021 0B       		.uleb128 0xb
 1380 0022 0B       		.uleb128 0xb
 1381 0023 3E       		.uleb128 0x3e
 1382 0024 0B       		.uleb128 0xb
 1383 0025 03       		.uleb128 0x3
 1384 0026 0E       		.uleb128 0xe
 1385 0027 00       		.byte	0
 1386 0028 00       		.byte	0
 1387 0029 04       		.uleb128 0x4
 1388 002a 16       		.uleb128 0x16
 1389 002b 00       		.byte	0
 1390 002c 03       		.uleb128 0x3
 1391 002d 0E       		.uleb128 0xe
 1392 002e 3A       		.uleb128 0x3a
 1393 002f 0B       		.uleb128 0xb
 1394 0030 3B       		.uleb128 0x3b
 1395 0031 0B       		.uleb128 0xb
 1396 0032 49       		.uleb128 0x49
 1397 0033 13       		.uleb128 0x13
 1398 0034 00       		.byte	0
 1399 0035 00       		.byte	0
 1400 0036 05       		.uleb128 0x5
 1401 0037 0F       		.uleb128 0xf
 1402 0038 00       		.byte	0
 1403 0039 0B       		.uleb128 0xb
 1404 003a 0B       		.uleb128 0xb
 1405 003b 49       		.uleb128 0x49
 1406 003c 13       		.uleb128 0x13
 1407 003d 00       		.byte	0
 1408 003e 00       		.byte	0
 1409 003f 06       		.uleb128 0x6
 1410 0040 15       		.uleb128 0x15
 1411 0041 00       		.byte	0
 1412 0042 27       		.uleb128 0x27
 1413 0043 19       		.uleb128 0x19
 1414 0044 00       		.byte	0
ARM GAS  C:\Users\MARTHN~1\AppData\Local\Temp\ccdIXi3K.s 			page 36


 1415 0045 00       		.byte	0
 1416 0046 07       		.uleb128 0x7
 1417 0047 16       		.uleb128 0x16
 1418 0048 00       		.byte	0
 1419 0049 03       		.uleb128 0x3
 1420 004a 0E       		.uleb128 0xe
 1421 004b 3A       		.uleb128 0x3a
 1422 004c 0B       		.uleb128 0xb
 1423 004d 3B       		.uleb128 0x3b
 1424 004e 05       		.uleb128 0x5
 1425 004f 49       		.uleb128 0x49
 1426 0050 13       		.uleb128 0x13
 1427 0051 00       		.byte	0
 1428 0052 00       		.byte	0
 1429 0053 08       		.uleb128 0x8
 1430 0054 35       		.uleb128 0x35
 1431 0055 00       		.byte	0
 1432 0056 49       		.uleb128 0x49
 1433 0057 13       		.uleb128 0x13
 1434 0058 00       		.byte	0
 1435 0059 00       		.byte	0
 1436 005a 09       		.uleb128 0x9
 1437 005b 13       		.uleb128 0x13
 1438 005c 01       		.byte	0x1
 1439 005d 03       		.uleb128 0x3
 1440 005e 0E       		.uleb128 0xe
 1441 005f 0B       		.uleb128 0xb
 1442 0060 0B       		.uleb128 0xb
 1443 0061 3A       		.uleb128 0x3a
 1444 0062 0B       		.uleb128 0xb
 1445 0063 3B       		.uleb128 0x3b
 1446 0064 0B       		.uleb128 0xb
 1447 0065 01       		.uleb128 0x1
 1448 0066 13       		.uleb128 0x13
 1449 0067 00       		.byte	0
 1450 0068 00       		.byte	0
 1451 0069 0A       		.uleb128 0xa
 1452 006a 0D       		.uleb128 0xd
 1453 006b 00       		.byte	0
 1454 006c 03       		.uleb128 0x3
 1455 006d 0E       		.uleb128 0xe
 1456 006e 3A       		.uleb128 0x3a
 1457 006f 0B       		.uleb128 0xb
 1458 0070 3B       		.uleb128 0x3b
 1459 0071 0B       		.uleb128 0xb
 1460 0072 49       		.uleb128 0x49
 1461 0073 13       		.uleb128 0x13
 1462 0074 38       		.uleb128 0x38
 1463 0075 0B       		.uleb128 0xb
 1464 0076 00       		.byte	0
 1465 0077 00       		.byte	0
 1466 0078 0B       		.uleb128 0xb
 1467 0079 04       		.uleb128 0x4
 1468 007a 01       		.byte	0x1
 1469 007b 03       		.uleb128 0x3
 1470 007c 0E       		.uleb128 0xe
 1471 007d 0B       		.uleb128 0xb
ARM GAS  C:\Users\MARTHN~1\AppData\Local\Temp\ccdIXi3K.s 			page 37


 1472 007e 0B       		.uleb128 0xb
 1473 007f 49       		.uleb128 0x49
 1474 0080 13       		.uleb128 0x13
 1475 0081 3A       		.uleb128 0x3a
 1476 0082 0B       		.uleb128 0xb
 1477 0083 3B       		.uleb128 0x3b
 1478 0084 0B       		.uleb128 0xb
 1479 0085 01       		.uleb128 0x1
 1480 0086 13       		.uleb128 0x13
 1481 0087 00       		.byte	0
 1482 0088 00       		.byte	0
 1483 0089 0C       		.uleb128 0xc
 1484 008a 28       		.uleb128 0x28
 1485 008b 00       		.byte	0
 1486 008c 03       		.uleb128 0x3
 1487 008d 0E       		.uleb128 0xe
 1488 008e 1C       		.uleb128 0x1c
 1489 008f 0B       		.uleb128 0xb
 1490 0090 00       		.byte	0
 1491 0091 00       		.byte	0
 1492 0092 0D       		.uleb128 0xd
 1493 0093 2E       		.uleb128 0x2e
 1494 0094 00       		.byte	0
 1495 0095 3F       		.uleb128 0x3f
 1496 0096 19       		.uleb128 0x19
 1497 0097 03       		.uleb128 0x3
 1498 0098 0E       		.uleb128 0xe
 1499 0099 3A       		.uleb128 0x3a
 1500 009a 0B       		.uleb128 0xb
 1501 009b 3B       		.uleb128 0x3b
 1502 009c 0B       		.uleb128 0xb
 1503 009d 27       		.uleb128 0x27
 1504 009e 19       		.uleb128 0x19
 1505 009f 11       		.uleb128 0x11
 1506 00a0 01       		.uleb128 0x1
 1507 00a1 12       		.uleb128 0x12
 1508 00a2 06       		.uleb128 0x6
 1509 00a3 40       		.uleb128 0x40
 1510 00a4 18       		.uleb128 0x18
 1511 00a5 9642     		.uleb128 0x2116
 1512 00a7 19       		.uleb128 0x19
 1513 00a8 00       		.byte	0
 1514 00a9 00       		.byte	0
 1515 00aa 0E       		.uleb128 0xe
 1516 00ab 2E       		.uleb128 0x2e
 1517 00ac 01       		.byte	0x1
 1518 00ad 3F       		.uleb128 0x3f
 1519 00ae 19       		.uleb128 0x19
 1520 00af 03       		.uleb128 0x3
 1521 00b0 0E       		.uleb128 0xe
 1522 00b1 3A       		.uleb128 0x3a
 1523 00b2 0B       		.uleb128 0xb
 1524 00b3 3B       		.uleb128 0x3b
 1525 00b4 0B       		.uleb128 0xb
 1526 00b5 27       		.uleb128 0x27
 1527 00b6 19       		.uleb128 0x19
 1528 00b7 11       		.uleb128 0x11
ARM GAS  C:\Users\MARTHN~1\AppData\Local\Temp\ccdIXi3K.s 			page 38


 1529 00b8 01       		.uleb128 0x1
 1530 00b9 12       		.uleb128 0x12
 1531 00ba 06       		.uleb128 0x6
 1532 00bb 40       		.uleb128 0x40
 1533 00bc 18       		.uleb128 0x18
 1534 00bd 9642     		.uleb128 0x2116
 1535 00bf 19       		.uleb128 0x19
 1536 00c0 01       		.uleb128 0x1
 1537 00c1 13       		.uleb128 0x13
 1538 00c2 00       		.byte	0
 1539 00c3 00       		.byte	0
 1540 00c4 0F       		.uleb128 0xf
 1541 00c5 05       		.uleb128 0x5
 1542 00c6 00       		.byte	0
 1543 00c7 03       		.uleb128 0x3
 1544 00c8 0E       		.uleb128 0xe
 1545 00c9 3A       		.uleb128 0x3a
 1546 00ca 0B       		.uleb128 0xb
 1547 00cb 3B       		.uleb128 0x3b
 1548 00cc 0B       		.uleb128 0xb
 1549 00cd 49       		.uleb128 0x49
 1550 00ce 13       		.uleb128 0x13
 1551 00cf 02       		.uleb128 0x2
 1552 00d0 18       		.uleb128 0x18
 1553 00d1 00       		.byte	0
 1554 00d2 00       		.byte	0
 1555 00d3 10       		.uleb128 0x10
 1556 00d4 2E       		.uleb128 0x2e
 1557 00d5 01       		.byte	0x1
 1558 00d6 3F       		.uleb128 0x3f
 1559 00d7 19       		.uleb128 0x19
 1560 00d8 03       		.uleb128 0x3
 1561 00d9 0E       		.uleb128 0xe
 1562 00da 3A       		.uleb128 0x3a
 1563 00db 0B       		.uleb128 0xb
 1564 00dc 3B       		.uleb128 0x3b
 1565 00dd 05       		.uleb128 0x5
 1566 00de 27       		.uleb128 0x27
 1567 00df 19       		.uleb128 0x19
 1568 00e0 11       		.uleb128 0x11
 1569 00e1 01       		.uleb128 0x1
 1570 00e2 12       		.uleb128 0x12
 1571 00e3 06       		.uleb128 0x6
 1572 00e4 40       		.uleb128 0x40
 1573 00e5 18       		.uleb128 0x18
 1574 00e6 9742     		.uleb128 0x2117
 1575 00e8 19       		.uleb128 0x19
 1576 00e9 01       		.uleb128 0x1
 1577 00ea 13       		.uleb128 0x13
 1578 00eb 00       		.byte	0
 1579 00ec 00       		.byte	0
 1580 00ed 11       		.uleb128 0x11
 1581 00ee 05       		.uleb128 0x5
 1582 00ef 00       		.byte	0
 1583 00f0 03       		.uleb128 0x3
 1584 00f1 0E       		.uleb128 0xe
 1585 00f2 3A       		.uleb128 0x3a
ARM GAS  C:\Users\MARTHN~1\AppData\Local\Temp\ccdIXi3K.s 			page 39


 1586 00f3 0B       		.uleb128 0xb
 1587 00f4 3B       		.uleb128 0x3b
 1588 00f5 05       		.uleb128 0x5
 1589 00f6 49       		.uleb128 0x49
 1590 00f7 13       		.uleb128 0x13
 1591 00f8 02       		.uleb128 0x2
 1592 00f9 18       		.uleb128 0x18
 1593 00fa 00       		.byte	0
 1594 00fb 00       		.byte	0
 1595 00fc 12       		.uleb128 0x12
 1596 00fd 34       		.uleb128 0x34
 1597 00fe 00       		.byte	0
 1598 00ff 03       		.uleb128 0x3
 1599 0100 0E       		.uleb128 0xe
 1600 0101 3A       		.uleb128 0x3a
 1601 0102 0B       		.uleb128 0xb
 1602 0103 3B       		.uleb128 0x3b
 1603 0104 05       		.uleb128 0x5
 1604 0105 49       		.uleb128 0x49
 1605 0106 13       		.uleb128 0x13
 1606 0107 02       		.uleb128 0x2
 1607 0108 18       		.uleb128 0x18
 1608 0109 00       		.byte	0
 1609 010a 00       		.byte	0
 1610 010b 13       		.uleb128 0x13
 1611 010c 2E       		.uleb128 0x2e
 1612 010d 01       		.byte	0x1
 1613 010e 3F       		.uleb128 0x3f
 1614 010f 19       		.uleb128 0x19
 1615 0110 03       		.uleb128 0x3
 1616 0111 0E       		.uleb128 0xe
 1617 0112 3A       		.uleb128 0x3a
 1618 0113 0B       		.uleb128 0xb
 1619 0114 3B       		.uleb128 0x3b
 1620 0115 05       		.uleb128 0x5
 1621 0116 27       		.uleb128 0x27
 1622 0117 19       		.uleb128 0x19
 1623 0118 49       		.uleb128 0x49
 1624 0119 13       		.uleb128 0x13
 1625 011a 11       		.uleb128 0x11
 1626 011b 01       		.uleb128 0x1
 1627 011c 12       		.uleb128 0x12
 1628 011d 06       		.uleb128 0x6
 1629 011e 40       		.uleb128 0x40
 1630 011f 18       		.uleb128 0x18
 1631 0120 9742     		.uleb128 0x2117
 1632 0122 19       		.uleb128 0x19
 1633 0123 01       		.uleb128 0x1
 1634 0124 13       		.uleb128 0x13
 1635 0125 00       		.byte	0
 1636 0126 00       		.byte	0
 1637 0127 14       		.uleb128 0x14
 1638 0128 2E       		.uleb128 0x2e
 1639 0129 00       		.byte	0
 1640 012a 3F       		.uleb128 0x3f
 1641 012b 19       		.uleb128 0x19
 1642 012c 03       		.uleb128 0x3
ARM GAS  C:\Users\MARTHN~1\AppData\Local\Temp\ccdIXi3K.s 			page 40


 1643 012d 0E       		.uleb128 0xe
 1644 012e 3A       		.uleb128 0x3a
 1645 012f 0B       		.uleb128 0xb
 1646 0130 3B       		.uleb128 0x3b
 1647 0131 05       		.uleb128 0x5
 1648 0132 27       		.uleb128 0x27
 1649 0133 19       		.uleb128 0x19
 1650 0134 11       		.uleb128 0x11
 1651 0135 01       		.uleb128 0x1
 1652 0136 12       		.uleb128 0x12
 1653 0137 06       		.uleb128 0x6
 1654 0138 40       		.uleb128 0x40
 1655 0139 18       		.uleb128 0x18
 1656 013a 9742     		.uleb128 0x2117
 1657 013c 19       		.uleb128 0x19
 1658 013d 00       		.byte	0
 1659 013e 00       		.byte	0
 1660 013f 15       		.uleb128 0x15
 1661 0140 2E       		.uleb128 0x2e
 1662 0141 00       		.byte	0
 1663 0142 3F       		.uleb128 0x3f
 1664 0143 19       		.uleb128 0x19
 1665 0144 03       		.uleb128 0x3
 1666 0145 0E       		.uleb128 0xe
 1667 0146 3A       		.uleb128 0x3a
 1668 0147 0B       		.uleb128 0xb
 1669 0148 3B       		.uleb128 0x3b
 1670 0149 05       		.uleb128 0x5
 1671 014a 27       		.uleb128 0x27
 1672 014b 19       		.uleb128 0x19
 1673 014c 49       		.uleb128 0x49
 1674 014d 13       		.uleb128 0x13
 1675 014e 11       		.uleb128 0x11
 1676 014f 01       		.uleb128 0x1
 1677 0150 12       		.uleb128 0x12
 1678 0151 06       		.uleb128 0x6
 1679 0152 40       		.uleb128 0x40
 1680 0153 18       		.uleb128 0x18
 1681 0154 9742     		.uleb128 0x2117
 1682 0156 19       		.uleb128 0x19
 1683 0157 00       		.byte	0
 1684 0158 00       		.byte	0
 1685 0159 16       		.uleb128 0x16
 1686 015a 34       		.uleb128 0x34
 1687 015b 00       		.byte	0
 1688 015c 03       		.uleb128 0x3
 1689 015d 0E       		.uleb128 0xe
 1690 015e 3A       		.uleb128 0x3a
 1691 015f 0B       		.uleb128 0xb
 1692 0160 3B       		.uleb128 0x3b
 1693 0161 0B       		.uleb128 0xb
 1694 0162 49       		.uleb128 0x49
 1695 0163 13       		.uleb128 0x13
 1696 0164 02       		.uleb128 0x2
 1697 0165 18       		.uleb128 0x18
 1698 0166 00       		.byte	0
 1699 0167 00       		.byte	0
ARM GAS  C:\Users\MARTHN~1\AppData\Local\Temp\ccdIXi3K.s 			page 41


 1700 0168 17       		.uleb128 0x17
 1701 0169 34       		.uleb128 0x34
 1702 016a 00       		.byte	0
 1703 016b 03       		.uleb128 0x3
 1704 016c 0E       		.uleb128 0xe
 1705 016d 3A       		.uleb128 0x3a
 1706 016e 0B       		.uleb128 0xb
 1707 016f 3B       		.uleb128 0x3b
 1708 0170 05       		.uleb128 0x5
 1709 0171 49       		.uleb128 0x49
 1710 0172 13       		.uleb128 0x13
 1711 0173 3F       		.uleb128 0x3f
 1712 0174 19       		.uleb128 0x19
 1713 0175 3C       		.uleb128 0x3c
 1714 0176 19       		.uleb128 0x19
 1715 0177 00       		.byte	0
 1716 0178 00       		.byte	0
 1717 0179 18       		.uleb128 0x18
 1718 017a 34       		.uleb128 0x34
 1719 017b 00       		.byte	0
 1720 017c 03       		.uleb128 0x3
 1721 017d 0E       		.uleb128 0xe
 1722 017e 3A       		.uleb128 0x3a
 1723 017f 0B       		.uleb128 0xb
 1724 0180 3B       		.uleb128 0x3b
 1725 0181 0B       		.uleb128 0xb
 1726 0182 49       		.uleb128 0x49
 1727 0183 13       		.uleb128 0x13
 1728 0184 3F       		.uleb128 0x3f
 1729 0185 19       		.uleb128 0x19
 1730 0186 02       		.uleb128 0x2
 1731 0187 18       		.uleb128 0x18
 1732 0188 00       		.byte	0
 1733 0189 00       		.byte	0
 1734 018a 00       		.byte	0
 1735              		.section	.debug_aranges,"",%progbits
 1736 0000 7C000000 		.4byte	0x7c
 1737 0004 0200     		.2byte	0x2
 1738 0006 00000000 		.4byte	.Ldebug_info0
 1739 000a 04       		.byte	0x4
 1740 000b 00       		.byte	0
 1741 000c 0000     		.2byte	0
 1742 000e 0000     		.2byte	0
 1743 0010 00000000 		.4byte	.LFB63
 1744 0014 20000000 		.4byte	.LFE63-.LFB63
 1745 0018 00000000 		.4byte	.LFB64
 1746 001c 24000000 		.4byte	.LFE64-.LFB64
 1747 0020 00000000 		.4byte	.LFB65
 1748 0024 18000000 		.4byte	.LFE65-.LFB65
 1749 0028 00000000 		.4byte	.LFB66
 1750 002c BC020000 		.4byte	.LFE66-.LFB66
 1751 0030 00000000 		.4byte	.LFB67
 1752 0034 24000000 		.4byte	.LFE67-.LFB67
 1753 0038 00000000 		.4byte	.LFB68
 1754 003c 20000000 		.4byte	.LFE68-.LFB68
 1755 0040 00000000 		.4byte	.LFB69
 1756 0044 24000000 		.4byte	.LFE69-.LFB69
ARM GAS  C:\Users\MARTHN~1\AppData\Local\Temp\ccdIXi3K.s 			page 42


 1757 0048 00000000 		.4byte	.LFB70
 1758 004c 20000000 		.4byte	.LFE70-.LFB70
 1759 0050 00000000 		.4byte	.LFB71
 1760 0054 18000000 		.4byte	.LFE71-.LFB71
 1761 0058 00000000 		.4byte	.LFB72
 1762 005c 24000000 		.4byte	.LFE72-.LFB72
 1763 0060 00000000 		.4byte	.LFB73
 1764 0064 18000000 		.4byte	.LFE73-.LFB73
 1765 0068 00000000 		.4byte	.LFB74
 1766 006c 18000000 		.4byte	.LFE74-.LFB74
 1767 0070 00000000 		.4byte	.LFB75
 1768 0074 18000000 		.4byte	.LFE75-.LFB75
 1769 0078 00000000 		.4byte	0
 1770 007c 00000000 		.4byte	0
 1771              		.section	.debug_ranges,"",%progbits
 1772              	.Ldebug_ranges0:
 1773 0000 00000000 		.4byte	.LFB63
 1774 0004 20000000 		.4byte	.LFE63
 1775 0008 00000000 		.4byte	.LFB64
 1776 000c 24000000 		.4byte	.LFE64
 1777 0010 00000000 		.4byte	.LFB65
 1778 0014 18000000 		.4byte	.LFE65
 1779 0018 00000000 		.4byte	.LFB66
 1780 001c BC020000 		.4byte	.LFE66
 1781 0020 00000000 		.4byte	.LFB67
 1782 0024 24000000 		.4byte	.LFE67
 1783 0028 00000000 		.4byte	.LFB68
 1784 002c 20000000 		.4byte	.LFE68
 1785 0030 00000000 		.4byte	.LFB69
 1786 0034 24000000 		.4byte	.LFE69
 1787 0038 00000000 		.4byte	.LFB70
 1788 003c 20000000 		.4byte	.LFE70
 1789 0040 00000000 		.4byte	.LFB71
 1790 0044 18000000 		.4byte	.LFE71
 1791 0048 00000000 		.4byte	.LFB72
 1792 004c 24000000 		.4byte	.LFE72
 1793 0050 00000000 		.4byte	.LFB73
 1794 0054 18000000 		.4byte	.LFE73
 1795 0058 00000000 		.4byte	.LFB74
 1796 005c 18000000 		.4byte	.LFE74
 1797 0060 00000000 		.4byte	.LFB75
 1798 0064 18000000 		.4byte	.LFE75
 1799 0068 00000000 		.4byte	0
 1800 006c 00000000 		.4byte	0
 1801              		.section	.debug_line,"",%progbits
 1802              	.Ldebug_line0:
 1803 0000 13030000 		.section	.debug_str,"MS",%progbits,1
 1803      02006D01 
 1803      00000201 
 1803      FB0E0D00 
 1803      01010101 
 1804              	.LASF54:
 1805 0000 6973725F 		.ascii	"isr_Timer_50ms_GetState\000"
 1805      54696D65 
 1805      725F3530 
 1805      6D735F47 
 1805      65745374 
ARM GAS  C:\Users\MARTHN~1\AppData\Local\Temp\ccdIXi3K.s 			page 43


 1806              	.LASF37:
 1807 0018 6973725F 		.ascii	"isr_Timer_50ms_SetPriority\000"
 1807      54696D65 
 1807      725F3530 
 1807      6D735F53 
 1807      65745072 
 1808              	.LASF29:
 1809 0033 52544553 		.ascii	"RTEST_COMPLETE\000"
 1809      545F434F 
 1809      4D504C45 
 1809      544500
 1810              	.LASF44:
 1811 0042 6973725F 		.ascii	"isr_Timer_50ms_ClearPending\000"
 1811      54696D65 
 1811      725F3530 
 1811      6D735F43 
 1811      6C656172 
 1812              	.LASF49:
 1813 005e 474E5520 		.ascii	"GNU C11 5.4.1 20160609 (release) [ARM/embedded-5-br"
 1813      43313120 
 1813      352E342E 
 1813      31203230 
 1813      31363036 
 1814 0091 616E6368 		.ascii	"anch revision 237715] -mcpu=cortex-m3 -mthumb -g -O"
 1814      20726576 
 1814      6973696F 
 1814      6E203233 
 1814      37373135 
 1815 00c4 30202D66 		.ascii	"0 -ffunction-sections -ffat-lto-objects\000"
 1815      66756E63 
 1815      74696F6E 
 1815      2D736563 
 1815      74696F6E 
 1816              	.LASF42:
 1817 00ec 6973725F 		.ascii	"isr_Timer_50ms_Disable\000"
 1817      54696D65 
 1817      725F3530 
 1817      6D735F44 
 1817      69736162 
 1818              	.LASF26:
 1819 0103 52544553 		.ascii	"RTEST\000"
 1819      5400
 1820              	.LASF12:
 1821 0109 5F5F696E 		.ascii	"__int32_t\000"
 1821      7433325F 
 1821      7400
 1822              	.LASF23:
 1823 0113 53746174 		.ascii	"Status\000"
 1823      757300
 1824              	.LASF30:
 1825 011a 6973725F 		.ascii	"isr_Timer_50ms_Start\000"
 1825      54696D65 
 1825      725F3530 
 1825      6D735F53 
 1825      74617274 
 1826              	.LASF22:
 1827 012f 54657374 		.ascii	"TestStep\000"
ARM GAS  C:\Users\MARTHN~1\AppData\Local\Temp\ccdIXi3K.s 			page 44


 1827      53746570 
 1827      00
 1828              	.LASF53:
 1829 0138 44617461 		.ascii	"DataType\000"
 1829      54797065 
 1829      00
 1830              	.LASF39:
 1831 0141 6973725F 		.ascii	"isr_Timer_50ms_GetVector\000"
 1831      54696D65 
 1831      725F3530 
 1831      6D735F47 
 1831      65745665 
 1832              	.LASF21:
 1833 015a 53656C65 		.ascii	"SelectedTest\000"
 1833      63746564 
 1833      54657374 
 1833      00
 1834              	.LASF16:
 1835 0167 666C6F61 		.ascii	"float\000"
 1835      7400
 1836              	.LASF34:
 1837 016d 6973725F 		.ascii	"isr_Timer_50ms_SetVector\000"
 1837      54696D65 
 1837      725F3530 
 1837      6D735F53 
 1837      65745665 
 1838              	.LASF45:
 1839 0186 626C696E 		.ascii	"blinkcounter\000"
 1839      6B636F75 
 1839      6E746572 
 1839      00
 1840              	.LASF18:
 1841 0193 72656738 		.ascii	"reg8\000"
 1841      00
 1842              	.LASF27:
 1843 0198 53544553 		.ascii	"STEST\000"
 1843      5400
 1844              	.LASF8:
 1845 019e 6C6F6E67 		.ascii	"long unsigned int\000"
 1845      20756E73 
 1845      69676E65 
 1845      6420696E 
 1845      7400
 1846              	.LASF48:
 1847 01b0 43757272 		.ascii	"CurrentTest\000"
 1847      656E7454 
 1847      65737400 
 1848              	.LASF6:
 1849 01bc 73686F72 		.ascii	"short unsigned int\000"
 1849      7420756E 
 1849      7369676E 
 1849      65642069 
 1849      6E7400
 1850              	.LASF47:
 1851 01cf 54657374 		.ascii	"Test\000"
 1851      00
 1852              	.LASF51:
ARM GAS  C:\Users\MARTHN~1\AppData\Local\Temp\ccdIXi3K.s 			page 45


 1853 01d4 433A5C55 		.ascii	"C:\\Users\\marthnick\\Desktop\\firm_F1-TestFixture\\"
 1853      73657273 
 1853      5C6D6172 
 1853      74686E69 
 1853      636B5C44 
 1854 0203 46312D54 		.ascii	"F1-TestFixture.cydsn\000"
 1854      65737446 
 1854      69787475 
 1854      72652E63 
 1854      7964736E 
 1855              	.LASF46:
 1856 0218 49544D5F 		.ascii	"ITM_RxBuffer\000"
 1856      52784275 
 1856      66666572 
 1856      00
 1857              	.LASF4:
 1858 0225 756E7369 		.ascii	"unsigned char\000"
 1858      676E6564 
 1858      20636861 
 1858      7200
 1859              	.LASF17:
 1860 0233 646F7562 		.ascii	"double\000"
 1860      6C6500
 1861              	.LASF38:
 1862 023a 7072696F 		.ascii	"priority\000"
 1862      72697479 
 1862      00
 1863              	.LASF43:
 1864 0243 6973725F 		.ascii	"isr_Timer_50ms_SetPending\000"
 1864      54696D65 
 1864      725F3530 
 1864      6D735F53 
 1864      65745065 
 1865              	.LASF15:
 1866 025d 75696E74 		.ascii	"uint32\000"
 1866      333200
 1867              	.LASF0:
 1868 0264 756E7369 		.ascii	"unsigned int\000"
 1868      676E6564 
 1868      20696E74 
 1868      00
 1869              	.LASF35:
 1870 0271 61646472 		.ascii	"address\000"
 1870      65737300 
 1871              	.LASF9:
 1872 0279 6C6F6E67 		.ascii	"long long unsigned int\000"
 1872      206C6F6E 
 1872      6720756E 
 1872      7369676E 
 1872      65642069 
 1873              	.LASF20:
 1874 0290 63796973 		.ascii	"cyisraddress\000"
 1874      72616464 
 1874      72657373 
 1874      00
 1875              	.LASF32:
 1876 029d 6973725F 		.ascii	"isr_Timer_50ms_Interrupt\000"
ARM GAS  C:\Users\MARTHN~1\AppData\Local\Temp\ccdIXi3K.s 			page 46


 1876      54696D65 
 1876      725F3530 
 1876      6D735F49 
 1876      6E746572 
 1877              	.LASF13:
 1878 02b6 696E7433 		.ascii	"int32_t\000"
 1878      325F7400 
 1879              	.LASF10:
 1880 02be 73697A65 		.ascii	"sizetype\000"
 1880      74797065 
 1880      00
 1881              	.LASF50:
 1882 02c7 47656E65 		.ascii	"Generated_Source\\PSoC5\\isr_Timer_50ms.c\000"
 1882      72617465 
 1882      645F536F 
 1882      75726365 
 1882      5C50536F 
 1883              	.LASF1:
 1884 02ef 6C6F6E67 		.ascii	"long long int\000"
 1884      206C6F6E 
 1884      6720696E 
 1884      7400
 1885              	.LASF40:
 1886 02fd 6973725F 		.ascii	"isr_Timer_50ms_GetPriority\000"
 1886      54696D65 
 1886      725F3530 
 1886      6D735F47 
 1886      65745072 
 1887              	.LASF11:
 1888 0318 63686172 		.ascii	"char\000"
 1888      00
 1889              	.LASF36:
 1890 031d 72616D56 		.ascii	"ramVectorTable\000"
 1890      6563746F 
 1890      72546162 
 1890      6C6500
 1891              	.LASF24:
 1892 032c 53747275 		.ascii	"StructTestInfo\000"
 1892      63745465 
 1892      7374496E 
 1892      666F00
 1893              	.LASF41:
 1894 033b 6973725F 		.ascii	"isr_Timer_50ms_Enable\000"
 1894      54696D65 
 1894      725F3530 
 1894      6D735F45 
 1894      6E61626C 
 1895              	.LASF5:
 1896 0351 73686F72 		.ascii	"short int\000"
 1896      7420696E 
 1896      7400
 1897              	.LASF25:
 1898 035b 43544553 		.ascii	"CTEST\000"
 1898      5400
 1899              	.LASF14:
 1900 0361 75696E74 		.ascii	"uint8\000"
 1900      3800
ARM GAS  C:\Users\MARTHN~1\AppData\Local\Temp\ccdIXi3K.s 			page 47


 1901              	.LASF31:
 1902 0367 6973725F 		.ascii	"isr_Timer_50ms_Stop\000"
 1902      54696D65 
 1902      725F3530 
 1902      6D735F53 
 1902      746F7000 
 1903              	.LASF7:
 1904 037b 6C6F6E67 		.ascii	"long int\000"
 1904      20696E74 
 1904      00
 1905              	.LASF19:
 1906 0384 72656733 		.ascii	"reg32\000"
 1906      3200
 1907              	.LASF52:
 1908 038a 73747275 		.ascii	"structTestInfo\000"
 1908      63745465 
 1908      7374496E 
 1908      666F00
 1909              	.LASF2:
 1910 0399 6C6F6E67 		.ascii	"long double\000"
 1910      20646F75 
 1910      626C6500 
 1911              	.LASF3:
 1912 03a5 7369676E 		.ascii	"signed char\000"
 1912      65642063 
 1912      68617200 
 1913              	.LASF28:
 1914 03b1 43544553 		.ascii	"CTEST_COMPLETE\000"
 1914      545F434F 
 1914      4D504C45 
 1914      544500
 1915              	.LASF33:
 1916 03c0 6973725F 		.ascii	"isr_Timer_50ms_StartEx\000"
 1916      54696D65 
 1916      725F3530 
 1916      6D735F53 
 1916      74617274 
 1917              		.ident	"GCC: (GNU Tools for ARM Embedded Processors) 5.4.1 20160609 (release) [ARM/embedded-5-bran
