ARM GAS  C:\Users\MARTHN~1\AppData\Local\Temp\cczMMs3C.s 			page 1


   1              		.syntax unified
   2              		.cpu cortex-m3
   3              		.fpu softvfp
   4              		.eabi_attribute 20, 1
   5              		.eabi_attribute 21, 1
   6              		.eabi_attribute 23, 3
   7              		.eabi_attribute 24, 1
   8              		.eabi_attribute 25, 1
   9              		.eabi_attribute 26, 1
  10              		.eabi_attribute 30, 6
  11              		.eabi_attribute 34, 1
  12              		.eabi_attribute 18, 4
  13              		.thumb
  14              		.syntax unified
  15              		.file	"isr_Timer_10ms.c"
  16              		.text
  17              	.Ltext0:
  18              		.cfi_sections	.debug_frame
  19              		.section	.text.isr_Timer_10ms_Start,"ax",%progbits
  20              		.align	2
  21              		.global	isr_Timer_10ms_Start
  22              		.thumb
  23              		.thumb_func
  24              		.type	isr_Timer_10ms_Start, %function
  25              	isr_Timer_10ms_Start:
  26              	.LFB63:
  27              		.file 1 "Generated_Source\\PSoC5\\isr_Timer_10ms.c"
   1:Generated_Source\PSoC5/isr_Timer_10ms.c **** /*******************************************************************************
   2:Generated_Source\PSoC5/isr_Timer_10ms.c **** * File Name: isr_Timer_10ms.c  
   3:Generated_Source\PSoC5/isr_Timer_10ms.c **** * Version 1.70
   4:Generated_Source\PSoC5/isr_Timer_10ms.c **** *
   5:Generated_Source\PSoC5/isr_Timer_10ms.c **** *  Description:
   6:Generated_Source\PSoC5/isr_Timer_10ms.c **** *   API for controlling the state of an interrupt.
   7:Generated_Source\PSoC5/isr_Timer_10ms.c **** *
   8:Generated_Source\PSoC5/isr_Timer_10ms.c **** *
   9:Generated_Source\PSoC5/isr_Timer_10ms.c **** *  Note:
  10:Generated_Source\PSoC5/isr_Timer_10ms.c **** *
  11:Generated_Source\PSoC5/isr_Timer_10ms.c **** ********************************************************************************
  12:Generated_Source\PSoC5/isr_Timer_10ms.c **** * Copyright 2008-2015, Cypress Semiconductor Corporation.  All rights reserved.
  13:Generated_Source\PSoC5/isr_Timer_10ms.c **** * You may use this file only in accordance with the license, terms, conditions, 
  14:Generated_Source\PSoC5/isr_Timer_10ms.c **** * disclaimers, and limitations in the end user license agreement accompanying 
  15:Generated_Source\PSoC5/isr_Timer_10ms.c **** * the software package with which this file was provided.
  16:Generated_Source\PSoC5/isr_Timer_10ms.c **** *******************************************************************************/
  17:Generated_Source\PSoC5/isr_Timer_10ms.c **** 
  18:Generated_Source\PSoC5/isr_Timer_10ms.c **** 
  19:Generated_Source\PSoC5/isr_Timer_10ms.c **** #include <cydevice_trm.h>
  20:Generated_Source\PSoC5/isr_Timer_10ms.c **** #include <CyLib.h>
  21:Generated_Source\PSoC5/isr_Timer_10ms.c **** #include <isr_Timer_10ms.h>
  22:Generated_Source\PSoC5/isr_Timer_10ms.c **** #include "cyapicallbacks.h"
  23:Generated_Source\PSoC5/isr_Timer_10ms.c **** 
  24:Generated_Source\PSoC5/isr_Timer_10ms.c **** #if !defined(isr_Timer_10ms__REMOVED) /* Check for removal by optimization */
  25:Generated_Source\PSoC5/isr_Timer_10ms.c **** 
  26:Generated_Source\PSoC5/isr_Timer_10ms.c **** /*******************************************************************************
  27:Generated_Source\PSoC5/isr_Timer_10ms.c **** *  Place your includes, defines and code here 
  28:Generated_Source\PSoC5/isr_Timer_10ms.c **** ********************************************************************************/
  29:Generated_Source\PSoC5/isr_Timer_10ms.c **** /* `#START isr_Timer_10ms_intc` */
  30:Generated_Source\PSoC5/isr_Timer_10ms.c ****     
ARM GAS  C:\Users\MARTHN~1\AppData\Local\Temp\cczMMs3C.s 			page 2


  31:Generated_Source\PSoC5/isr_Timer_10ms.c ****     //#include "UART_230400_Functions.h"
  32:Generated_Source\PSoC5/isr_Timer_10ms.c ****     #include "RelayTest.h"
  33:Generated_Source\PSoC5/isr_Timer_10ms.c ****     
  34:Generated_Source\PSoC5/isr_Timer_10ms.c ****     //uint8 isr_count = 0;
  35:Generated_Source\PSoC5/isr_Timer_10ms.c ****     
  36:Generated_Source\PSoC5/isr_Timer_10ms.c **** /* `#END` */
  37:Generated_Source\PSoC5/isr_Timer_10ms.c **** 
  38:Generated_Source\PSoC5/isr_Timer_10ms.c **** #ifndef CYINT_IRQ_BASE
  39:Generated_Source\PSoC5/isr_Timer_10ms.c **** #define CYINT_IRQ_BASE      16
  40:Generated_Source\PSoC5/isr_Timer_10ms.c **** #endif /* CYINT_IRQ_BASE */
  41:Generated_Source\PSoC5/isr_Timer_10ms.c **** #ifndef CYINT_VECT_TABLE
  42:Generated_Source\PSoC5/isr_Timer_10ms.c **** #define CYINT_VECT_TABLE    ((cyisraddress **) CYREG_NVIC_VECT_OFFSET)
  43:Generated_Source\PSoC5/isr_Timer_10ms.c **** #endif /* CYINT_VECT_TABLE */
  44:Generated_Source\PSoC5/isr_Timer_10ms.c **** 
  45:Generated_Source\PSoC5/isr_Timer_10ms.c **** /* Declared in startup, used to set unused interrupts to. */
  46:Generated_Source\PSoC5/isr_Timer_10ms.c **** CY_ISR_PROTO(IntDefaultHandler);
  47:Generated_Source\PSoC5/isr_Timer_10ms.c **** 
  48:Generated_Source\PSoC5/isr_Timer_10ms.c **** 
  49:Generated_Source\PSoC5/isr_Timer_10ms.c **** /*******************************************************************************
  50:Generated_Source\PSoC5/isr_Timer_10ms.c **** * Function Name: isr_Timer_10ms_Start
  51:Generated_Source\PSoC5/isr_Timer_10ms.c **** ********************************************************************************
  52:Generated_Source\PSoC5/isr_Timer_10ms.c **** *
  53:Generated_Source\PSoC5/isr_Timer_10ms.c **** * Summary:
  54:Generated_Source\PSoC5/isr_Timer_10ms.c **** *  Set up the interrupt and enable it. This function disables the interrupt, 
  55:Generated_Source\PSoC5/isr_Timer_10ms.c **** *  sets the default interrupt vector, sets the priority from the value in the
  56:Generated_Source\PSoC5/isr_Timer_10ms.c **** *  Design Wide Resources Interrupt Editor, then enables the interrupt to the 
  57:Generated_Source\PSoC5/isr_Timer_10ms.c **** *  interrupt controller.
  58:Generated_Source\PSoC5/isr_Timer_10ms.c **** *
  59:Generated_Source\PSoC5/isr_Timer_10ms.c **** * Parameters:  
  60:Generated_Source\PSoC5/isr_Timer_10ms.c **** *   None
  61:Generated_Source\PSoC5/isr_Timer_10ms.c **** *
  62:Generated_Source\PSoC5/isr_Timer_10ms.c **** * Return:
  63:Generated_Source\PSoC5/isr_Timer_10ms.c **** *   None
  64:Generated_Source\PSoC5/isr_Timer_10ms.c **** *
  65:Generated_Source\PSoC5/isr_Timer_10ms.c **** *******************************************************************************/
  66:Generated_Source\PSoC5/isr_Timer_10ms.c **** void isr_Timer_10ms_Start(void)
  67:Generated_Source\PSoC5/isr_Timer_10ms.c **** {
  28              		.loc 1 67 0
  29              		.cfi_startproc
  30              		@ args = 0, pretend = 0, frame = 0
  31              		@ frame_needed = 1, uses_anonymous_args = 0
  32 0000 80B5     		push	{r7, lr}
  33              		.cfi_def_cfa_offset 8
  34              		.cfi_offset 7, -8
  35              		.cfi_offset 14, -4
  36 0002 00AF     		add	r7, sp, #0
  37              		.cfi_def_cfa_register 7
  68:Generated_Source\PSoC5/isr_Timer_10ms.c ****     /* For all we know the interrupt is active. */
  69:Generated_Source\PSoC5/isr_Timer_10ms.c ****     isr_Timer_10ms_Disable();
  38              		.loc 1 69 0
  39 0004 FFF7FEFF 		bl	isr_Timer_10ms_Disable
  70:Generated_Source\PSoC5/isr_Timer_10ms.c **** 
  71:Generated_Source\PSoC5/isr_Timer_10ms.c ****     /* Set the ISR to point to the isr_Timer_10ms Interrupt. */
  72:Generated_Source\PSoC5/isr_Timer_10ms.c ****     isr_Timer_10ms_SetVector(&isr_Timer_10ms_Interrupt);
  40              		.loc 1 72 0
  41 0008 0448     		ldr	r0, .L2
  42 000a FFF7FEFF 		bl	isr_Timer_10ms_SetVector
ARM GAS  C:\Users\MARTHN~1\AppData\Local\Temp\cczMMs3C.s 			page 3


  73:Generated_Source\PSoC5/isr_Timer_10ms.c **** 
  74:Generated_Source\PSoC5/isr_Timer_10ms.c ****     /* Set the priority. */
  75:Generated_Source\PSoC5/isr_Timer_10ms.c ****     isr_Timer_10ms_SetPriority((uint8)isr_Timer_10ms_INTC_PRIOR_NUMBER);
  43              		.loc 1 75 0
  44 000e 0420     		movs	r0, #4
  45 0010 FFF7FEFF 		bl	isr_Timer_10ms_SetPriority
  76:Generated_Source\PSoC5/isr_Timer_10ms.c **** 
  77:Generated_Source\PSoC5/isr_Timer_10ms.c ****     /* Enable it. */
  78:Generated_Source\PSoC5/isr_Timer_10ms.c ****     isr_Timer_10ms_Enable();
  46              		.loc 1 78 0
  47 0014 FFF7FEFF 		bl	isr_Timer_10ms_Enable
  79:Generated_Source\PSoC5/isr_Timer_10ms.c **** }
  48              		.loc 1 79 0
  49 0018 00BF     		nop
  50 001a 80BD     		pop	{r7, pc}
  51              	.L3:
  52              		.align	2
  53              	.L2:
  54 001c 00000000 		.word	isr_Timer_10ms_Interrupt
  55              		.cfi_endproc
  56              	.LFE63:
  57              		.size	isr_Timer_10ms_Start, .-isr_Timer_10ms_Start
  58              		.section	.text.isr_Timer_10ms_StartEx,"ax",%progbits
  59              		.align	2
  60              		.global	isr_Timer_10ms_StartEx
  61              		.thumb
  62              		.thumb_func
  63              		.type	isr_Timer_10ms_StartEx, %function
  64              	isr_Timer_10ms_StartEx:
  65              	.LFB64:
  80:Generated_Source\PSoC5/isr_Timer_10ms.c **** 
  81:Generated_Source\PSoC5/isr_Timer_10ms.c **** 
  82:Generated_Source\PSoC5/isr_Timer_10ms.c **** /*******************************************************************************
  83:Generated_Source\PSoC5/isr_Timer_10ms.c **** * Function Name: isr_Timer_10ms_StartEx
  84:Generated_Source\PSoC5/isr_Timer_10ms.c **** ********************************************************************************
  85:Generated_Source\PSoC5/isr_Timer_10ms.c **** *
  86:Generated_Source\PSoC5/isr_Timer_10ms.c **** * Summary:
  87:Generated_Source\PSoC5/isr_Timer_10ms.c **** *  Sets up the interrupt and enables it. This function disables the interrupt,
  88:Generated_Source\PSoC5/isr_Timer_10ms.c **** *  sets the interrupt vector based on the address passed in, sets the priority 
  89:Generated_Source\PSoC5/isr_Timer_10ms.c **** *  from the value in the Design Wide Resources Interrupt Editor, then enables 
  90:Generated_Source\PSoC5/isr_Timer_10ms.c **** *  the interrupt to the interrupt controller.
  91:Generated_Source\PSoC5/isr_Timer_10ms.c **** *  
  92:Generated_Source\PSoC5/isr_Timer_10ms.c **** *  When defining ISR functions, the CY_ISR and CY_ISR_PROTO macros should be 
  93:Generated_Source\PSoC5/isr_Timer_10ms.c **** *  used to provide consistent definition across compilers:
  94:Generated_Source\PSoC5/isr_Timer_10ms.c **** *  
  95:Generated_Source\PSoC5/isr_Timer_10ms.c **** *  Function definition example:
  96:Generated_Source\PSoC5/isr_Timer_10ms.c **** *   CY_ISR(MyISR)
  97:Generated_Source\PSoC5/isr_Timer_10ms.c **** *   {
  98:Generated_Source\PSoC5/isr_Timer_10ms.c **** *   }
  99:Generated_Source\PSoC5/isr_Timer_10ms.c **** *   Function prototype example:
 100:Generated_Source\PSoC5/isr_Timer_10ms.c **** *   CY_ISR_PROTO(MyISR);
 101:Generated_Source\PSoC5/isr_Timer_10ms.c **** *
 102:Generated_Source\PSoC5/isr_Timer_10ms.c **** * Parameters:  
 103:Generated_Source\PSoC5/isr_Timer_10ms.c **** *   address: Address of the ISR to set in the interrupt vector table.
 104:Generated_Source\PSoC5/isr_Timer_10ms.c **** *
 105:Generated_Source\PSoC5/isr_Timer_10ms.c **** * Return:
 106:Generated_Source\PSoC5/isr_Timer_10ms.c **** *   None
ARM GAS  C:\Users\MARTHN~1\AppData\Local\Temp\cczMMs3C.s 			page 4


 107:Generated_Source\PSoC5/isr_Timer_10ms.c **** *
 108:Generated_Source\PSoC5/isr_Timer_10ms.c **** *******************************************************************************/
 109:Generated_Source\PSoC5/isr_Timer_10ms.c **** void isr_Timer_10ms_StartEx(cyisraddress address)
 110:Generated_Source\PSoC5/isr_Timer_10ms.c **** {
  66              		.loc 1 110 0
  67              		.cfi_startproc
  68              		@ args = 0, pretend = 0, frame = 8
  69              		@ frame_needed = 1, uses_anonymous_args = 0
  70 0000 80B5     		push	{r7, lr}
  71              		.cfi_def_cfa_offset 8
  72              		.cfi_offset 7, -8
  73              		.cfi_offset 14, -4
  74 0002 82B0     		sub	sp, sp, #8
  75              		.cfi_def_cfa_offset 16
  76 0004 00AF     		add	r7, sp, #0
  77              		.cfi_def_cfa_register 7
  78 0006 7860     		str	r0, [r7, #4]
 111:Generated_Source\PSoC5/isr_Timer_10ms.c ****     /* For all we know the interrupt is active. */
 112:Generated_Source\PSoC5/isr_Timer_10ms.c ****     isr_Timer_10ms_Disable();
  79              		.loc 1 112 0
  80 0008 FFF7FEFF 		bl	isr_Timer_10ms_Disable
 113:Generated_Source\PSoC5/isr_Timer_10ms.c **** 
 114:Generated_Source\PSoC5/isr_Timer_10ms.c ****     /* Set the ISR to point to the isr_Timer_10ms Interrupt. */
 115:Generated_Source\PSoC5/isr_Timer_10ms.c ****     isr_Timer_10ms_SetVector(address);
  81              		.loc 1 115 0
  82 000c 7868     		ldr	r0, [r7, #4]
  83 000e FFF7FEFF 		bl	isr_Timer_10ms_SetVector
 116:Generated_Source\PSoC5/isr_Timer_10ms.c **** 
 117:Generated_Source\PSoC5/isr_Timer_10ms.c ****     /* Set the priority. */
 118:Generated_Source\PSoC5/isr_Timer_10ms.c ****     isr_Timer_10ms_SetPriority((uint8)isr_Timer_10ms_INTC_PRIOR_NUMBER);
  84              		.loc 1 118 0
  85 0012 0420     		movs	r0, #4
  86 0014 FFF7FEFF 		bl	isr_Timer_10ms_SetPriority
 119:Generated_Source\PSoC5/isr_Timer_10ms.c **** 
 120:Generated_Source\PSoC5/isr_Timer_10ms.c ****     /* Enable it. */
 121:Generated_Source\PSoC5/isr_Timer_10ms.c ****     isr_Timer_10ms_Enable();
  87              		.loc 1 121 0
  88 0018 FFF7FEFF 		bl	isr_Timer_10ms_Enable
 122:Generated_Source\PSoC5/isr_Timer_10ms.c **** }
  89              		.loc 1 122 0
  90 001c 00BF     		nop
  91 001e 0837     		adds	r7, r7, #8
  92              		.cfi_def_cfa_offset 8
  93 0020 BD46     		mov	sp, r7
  94              		.cfi_def_cfa_register 13
  95              		@ sp needed
  96 0022 80BD     		pop	{r7, pc}
  97              		.cfi_endproc
  98              	.LFE64:
  99              		.size	isr_Timer_10ms_StartEx, .-isr_Timer_10ms_StartEx
 100              		.section	.text.isr_Timer_10ms_Stop,"ax",%progbits
 101              		.align	2
 102              		.global	isr_Timer_10ms_Stop
 103              		.thumb
 104              		.thumb_func
 105              		.type	isr_Timer_10ms_Stop, %function
 106              	isr_Timer_10ms_Stop:
ARM GAS  C:\Users\MARTHN~1\AppData\Local\Temp\cczMMs3C.s 			page 5


 107              	.LFB65:
 123:Generated_Source\PSoC5/isr_Timer_10ms.c **** 
 124:Generated_Source\PSoC5/isr_Timer_10ms.c **** 
 125:Generated_Source\PSoC5/isr_Timer_10ms.c **** /*******************************************************************************
 126:Generated_Source\PSoC5/isr_Timer_10ms.c **** * Function Name: isr_Timer_10ms_Stop
 127:Generated_Source\PSoC5/isr_Timer_10ms.c **** ********************************************************************************
 128:Generated_Source\PSoC5/isr_Timer_10ms.c **** *
 129:Generated_Source\PSoC5/isr_Timer_10ms.c **** * Summary:
 130:Generated_Source\PSoC5/isr_Timer_10ms.c **** *   Disables and removes the interrupt.
 131:Generated_Source\PSoC5/isr_Timer_10ms.c **** *
 132:Generated_Source\PSoC5/isr_Timer_10ms.c **** * Parameters:  
 133:Generated_Source\PSoC5/isr_Timer_10ms.c **** *   None
 134:Generated_Source\PSoC5/isr_Timer_10ms.c **** *
 135:Generated_Source\PSoC5/isr_Timer_10ms.c **** * Return:
 136:Generated_Source\PSoC5/isr_Timer_10ms.c **** *   None
 137:Generated_Source\PSoC5/isr_Timer_10ms.c **** *
 138:Generated_Source\PSoC5/isr_Timer_10ms.c **** *******************************************************************************/
 139:Generated_Source\PSoC5/isr_Timer_10ms.c **** void isr_Timer_10ms_Stop(void)
 140:Generated_Source\PSoC5/isr_Timer_10ms.c **** {
 108              		.loc 1 140 0
 109              		.cfi_startproc
 110              		@ args = 0, pretend = 0, frame = 0
 111              		@ frame_needed = 1, uses_anonymous_args = 0
 112 0000 80B5     		push	{r7, lr}
 113              		.cfi_def_cfa_offset 8
 114              		.cfi_offset 7, -8
 115              		.cfi_offset 14, -4
 116 0002 00AF     		add	r7, sp, #0
 117              		.cfi_def_cfa_register 7
 141:Generated_Source\PSoC5/isr_Timer_10ms.c ****     /* Disable this interrupt. */
 142:Generated_Source\PSoC5/isr_Timer_10ms.c ****     isr_Timer_10ms_Disable();
 118              		.loc 1 142 0
 119 0004 FFF7FEFF 		bl	isr_Timer_10ms_Disable
 143:Generated_Source\PSoC5/isr_Timer_10ms.c **** 
 144:Generated_Source\PSoC5/isr_Timer_10ms.c ****     /* Set the ISR to point to the passive one. */
 145:Generated_Source\PSoC5/isr_Timer_10ms.c ****     isr_Timer_10ms_SetVector(&IntDefaultHandler);
 120              		.loc 1 145 0
 121 0008 0248     		ldr	r0, .L6
 122 000a FFF7FEFF 		bl	isr_Timer_10ms_SetVector
 146:Generated_Source\PSoC5/isr_Timer_10ms.c **** }
 123              		.loc 1 146 0
 124 000e 00BF     		nop
 125 0010 80BD     		pop	{r7, pc}
 126              	.L7:
 127 0012 00BF     		.align	2
 128              	.L6:
 129 0014 00000000 		.word	IntDefaultHandler
 130              		.cfi_endproc
 131              	.LFE65:
 132              		.size	isr_Timer_10ms_Stop, .-isr_Timer_10ms_Stop
 133              		.section	.text.isr_Timer_10ms_Interrupt,"ax",%progbits
 134              		.align	2
 135              		.global	isr_Timer_10ms_Interrupt
 136              		.thumb
 137              		.thumb_func
 138              		.type	isr_Timer_10ms_Interrupt, %function
 139              	isr_Timer_10ms_Interrupt:
ARM GAS  C:\Users\MARTHN~1\AppData\Local\Temp\cczMMs3C.s 			page 6


 140              	.LFB66:
 147:Generated_Source\PSoC5/isr_Timer_10ms.c **** 
 148:Generated_Source\PSoC5/isr_Timer_10ms.c **** 
 149:Generated_Source\PSoC5/isr_Timer_10ms.c **** /*******************************************************************************
 150:Generated_Source\PSoC5/isr_Timer_10ms.c **** * Function Name: isr_Timer_10ms_Interrupt
 151:Generated_Source\PSoC5/isr_Timer_10ms.c **** ********************************************************************************
 152:Generated_Source\PSoC5/isr_Timer_10ms.c **** *
 153:Generated_Source\PSoC5/isr_Timer_10ms.c **** * Summary:
 154:Generated_Source\PSoC5/isr_Timer_10ms.c **** *   The default Interrupt Service Routine for isr_Timer_10ms.
 155:Generated_Source\PSoC5/isr_Timer_10ms.c **** *
 156:Generated_Source\PSoC5/isr_Timer_10ms.c **** *   Add custom code between the coments to keep the next version of this file
 157:Generated_Source\PSoC5/isr_Timer_10ms.c **** *   from over writting your code.
 158:Generated_Source\PSoC5/isr_Timer_10ms.c **** *
 159:Generated_Source\PSoC5/isr_Timer_10ms.c **** * Parameters:  
 160:Generated_Source\PSoC5/isr_Timer_10ms.c **** *
 161:Generated_Source\PSoC5/isr_Timer_10ms.c **** * Return:
 162:Generated_Source\PSoC5/isr_Timer_10ms.c **** *   None
 163:Generated_Source\PSoC5/isr_Timer_10ms.c **** *
 164:Generated_Source\PSoC5/isr_Timer_10ms.c **** *******************************************************************************/
 165:Generated_Source\PSoC5/isr_Timer_10ms.c **** CY_ISR(isr_Timer_10ms_Interrupt)
 166:Generated_Source\PSoC5/isr_Timer_10ms.c **** {
 141              		.loc 1 166 0
 142              		.cfi_startproc
 143              		@ args = 0, pretend = 0, frame = 0
 144              		@ frame_needed = 1, uses_anonymous_args = 0
 145 0000 80B5     		push	{r7, lr}
 146              		.cfi_def_cfa_offset 8
 147              		.cfi_offset 7, -8
 148              		.cfi_offset 14, -4
 149 0002 00AF     		add	r7, sp, #0
 150              		.cfi_def_cfa_register 7
 167:Generated_Source\PSoC5/isr_Timer_10ms.c ****     #ifdef isr_Timer_10ms_INTERRUPT_INTERRUPT_CALLBACK
 168:Generated_Source\PSoC5/isr_Timer_10ms.c ****         isr_Timer_10ms_Interrupt_InterruptCallback();
 169:Generated_Source\PSoC5/isr_Timer_10ms.c ****     #endif /* isr_Timer_10ms_INTERRUPT_INTERRUPT_CALLBACK */ 
 170:Generated_Source\PSoC5/isr_Timer_10ms.c **** 
 171:Generated_Source\PSoC5/isr_Timer_10ms.c ****     /*  Place your Interrupt code here. */
 172:Generated_Source\PSoC5/isr_Timer_10ms.c ****     /* `#START isr_Timer_10ms_Interrupt` */
 173:Generated_Source\PSoC5/isr_Timer_10ms.c ****     
 174:Generated_Source\PSoC5/isr_Timer_10ms.c ****     //static uint8 isr_count = 0;
 175:Generated_Source\PSoC5/isr_Timer_10ms.c ****     //extern uint16 isr_count;
 176:Generated_Source\PSoC5/isr_Timer_10ms.c ****     //uint16 isr_count;
 177:Generated_Source\PSoC5/isr_Timer_10ms.c ****     //extern uint16 _100ms_flag;
 178:Generated_Source\PSoC5/isr_Timer_10ms.c ****         
 179:Generated_Source\PSoC5/isr_Timer_10ms.c ****         //sendDiagPacket();
 180:Generated_Source\PSoC5/isr_Timer_10ms.c ****         
 181:Generated_Source\PSoC5/isr_Timer_10ms.c ****         //CTest_20ms_isr();
 182:Generated_Source\PSoC5/isr_Timer_10ms.c ****         //STest_20ms_isr();
 183:Generated_Source\PSoC5/isr_Timer_10ms.c ****     
 184:Generated_Source\PSoC5/isr_Timer_10ms.c ****         //sendPacketToRelay_Quad();   // 460800 - TX
 185:Generated_Source\PSoC5/isr_Timer_10ms.c ****         //sendPacketToRelaySiren();   // 230400 - TX
 186:Generated_Source\PSoC5/isr_Timer_10ms.c ****         
 187:Generated_Source\PSoC5/isr_Timer_10ms.c **** //        isr_count++;
 188:Generated_Source\PSoC5/isr_Timer_10ms.c ****     
 189:Generated_Source\PSoC5/isr_Timer_10ms.c ****         RTest_10ms_isr();
 151              		.loc 1 189 0
 152 0004 FFF7FEFF 		bl	RTest_10ms_isr
 190:Generated_Source\PSoC5/isr_Timer_10ms.c ****     
ARM GAS  C:\Users\MARTHN~1\AppData\Local\Temp\cczMMs3C.s 			page 7


 191:Generated_Source\PSoC5/isr_Timer_10ms.c **** //        if( (isr_count % 5) == 0 )
 192:Generated_Source\PSoC5/isr_Timer_10ms.c **** //        {
 193:Generated_Source\PSoC5/isr_Timer_10ms.c **** //            RTest_50ms_isr();
 194:Generated_Source\PSoC5/isr_Timer_10ms.c **** //            //isr_count = 0;
 195:Generated_Source\PSoC5/isr_Timer_10ms.c **** //        }
 196:Generated_Source\PSoC5/isr_Timer_10ms.c ****         
 197:Generated_Source\PSoC5/isr_Timer_10ms.c **** //        if( (isr_count % 2) == 0 )
 198:Generated_Source\PSoC5/isr_Timer_10ms.c **** //        {
 199:Generated_Source\PSoC5/isr_Timer_10ms.c **** //            RTest_20ms_isr();
 200:Generated_Source\PSoC5/isr_Timer_10ms.c **** //            //isr_count = 0;
 201:Generated_Source\PSoC5/isr_Timer_10ms.c **** //        }
 202:Generated_Source\PSoC5/isr_Timer_10ms.c ****         
 203:Generated_Source\PSoC5/isr_Timer_10ms.c **** //        if(isr_count >= 65000)
 204:Generated_Source\PSoC5/isr_Timer_10ms.c **** //        {
 205:Generated_Source\PSoC5/isr_Timer_10ms.c **** //            isr_count = 0;
 206:Generated_Source\PSoC5/isr_Timer_10ms.c **** //        }
 207:Generated_Source\PSoC5/isr_Timer_10ms.c ****         
 208:Generated_Source\PSoC5/isr_Timer_10ms.c ****         
 209:Generated_Source\PSoC5/isr_Timer_10ms.c ****         
 210:Generated_Source\PSoC5/isr_Timer_10ms.c **** 
 211:Generated_Source\PSoC5/isr_Timer_10ms.c ****     /* `#END` */
 212:Generated_Source\PSoC5/isr_Timer_10ms.c **** }
 153              		.loc 1 212 0
 154 0008 00BF     		nop
 155 000a 80BD     		pop	{r7, pc}
 156              		.cfi_endproc
 157              	.LFE66:
 158              		.size	isr_Timer_10ms_Interrupt, .-isr_Timer_10ms_Interrupt
 159              		.section	.text.isr_Timer_10ms_SetVector,"ax",%progbits
 160              		.align	2
 161              		.global	isr_Timer_10ms_SetVector
 162              		.thumb
 163              		.thumb_func
 164              		.type	isr_Timer_10ms_SetVector, %function
 165              	isr_Timer_10ms_SetVector:
 166              	.LFB67:
 213:Generated_Source\PSoC5/isr_Timer_10ms.c **** 
 214:Generated_Source\PSoC5/isr_Timer_10ms.c **** 
 215:Generated_Source\PSoC5/isr_Timer_10ms.c **** /*******************************************************************************
 216:Generated_Source\PSoC5/isr_Timer_10ms.c **** * Function Name: isr_Timer_10ms_SetVector
 217:Generated_Source\PSoC5/isr_Timer_10ms.c **** ********************************************************************************
 218:Generated_Source\PSoC5/isr_Timer_10ms.c **** *
 219:Generated_Source\PSoC5/isr_Timer_10ms.c **** * Summary:
 220:Generated_Source\PSoC5/isr_Timer_10ms.c **** *   Change the ISR vector for the Interrupt. Note calling isr_Timer_10ms_Start
 221:Generated_Source\PSoC5/isr_Timer_10ms.c **** *   will override any effect this method would have had. To set the vector 
 222:Generated_Source\PSoC5/isr_Timer_10ms.c **** *   before the component has been started use isr_Timer_10ms_StartEx instead.
 223:Generated_Source\PSoC5/isr_Timer_10ms.c **** * 
 224:Generated_Source\PSoC5/isr_Timer_10ms.c **** *   When defining ISR functions, the CY_ISR and CY_ISR_PROTO macros should be 
 225:Generated_Source\PSoC5/isr_Timer_10ms.c **** *   used to provide consistent definition across compilers:
 226:Generated_Source\PSoC5/isr_Timer_10ms.c **** *
 227:Generated_Source\PSoC5/isr_Timer_10ms.c **** *   Function definition example:
 228:Generated_Source\PSoC5/isr_Timer_10ms.c **** *   CY_ISR(MyISR)
 229:Generated_Source\PSoC5/isr_Timer_10ms.c **** *   {
 230:Generated_Source\PSoC5/isr_Timer_10ms.c **** *   }
 231:Generated_Source\PSoC5/isr_Timer_10ms.c **** *
 232:Generated_Source\PSoC5/isr_Timer_10ms.c **** *   Function prototype example:
 233:Generated_Source\PSoC5/isr_Timer_10ms.c **** *     CY_ISR_PROTO(MyISR);
ARM GAS  C:\Users\MARTHN~1\AppData\Local\Temp\cczMMs3C.s 			page 8


 234:Generated_Source\PSoC5/isr_Timer_10ms.c **** *
 235:Generated_Source\PSoC5/isr_Timer_10ms.c **** * Parameters:
 236:Generated_Source\PSoC5/isr_Timer_10ms.c **** *   address: Address of the ISR to set in the interrupt vector table.
 237:Generated_Source\PSoC5/isr_Timer_10ms.c **** *
 238:Generated_Source\PSoC5/isr_Timer_10ms.c **** * Return:
 239:Generated_Source\PSoC5/isr_Timer_10ms.c **** *   None
 240:Generated_Source\PSoC5/isr_Timer_10ms.c **** *
 241:Generated_Source\PSoC5/isr_Timer_10ms.c **** *******************************************************************************/
 242:Generated_Source\PSoC5/isr_Timer_10ms.c **** void isr_Timer_10ms_SetVector(cyisraddress address)
 243:Generated_Source\PSoC5/isr_Timer_10ms.c **** {
 167              		.loc 1 243 0
 168              		.cfi_startproc
 169              		@ args = 0, pretend = 0, frame = 16
 170              		@ frame_needed = 1, uses_anonymous_args = 0
 171              		@ link register save eliminated.
 172 0000 80B4     		push	{r7}
 173              		.cfi_def_cfa_offset 4
 174              		.cfi_offset 7, -4
 175 0002 85B0     		sub	sp, sp, #20
 176              		.cfi_def_cfa_offset 24
 177 0004 00AF     		add	r7, sp, #0
 178              		.cfi_def_cfa_register 7
 179 0006 7860     		str	r0, [r7, #4]
 244:Generated_Source\PSoC5/isr_Timer_10ms.c ****     cyisraddress * ramVectorTable;
 245:Generated_Source\PSoC5/isr_Timer_10ms.c **** 
 246:Generated_Source\PSoC5/isr_Timer_10ms.c ****     ramVectorTable = (cyisraddress *) *CYINT_VECT_TABLE;
 180              		.loc 1 246 0
 181 0008 054B     		ldr	r3, .L10
 182 000a 1B68     		ldr	r3, [r3]
 183 000c FB60     		str	r3, [r7, #12]
 247:Generated_Source\PSoC5/isr_Timer_10ms.c **** 
 248:Generated_Source\PSoC5/isr_Timer_10ms.c ****     ramVectorTable[CYINT_IRQ_BASE + (uint32)isr_Timer_10ms__INTC_NUMBER] = address;
 184              		.loc 1 248 0
 185 000e FB68     		ldr	r3, [r7, #12]
 186 0010 4433     		adds	r3, r3, #68
 187 0012 7A68     		ldr	r2, [r7, #4]
 188 0014 1A60     		str	r2, [r3]
 249:Generated_Source\PSoC5/isr_Timer_10ms.c **** }
 189              		.loc 1 249 0
 190 0016 00BF     		nop
 191 0018 1437     		adds	r7, r7, #20
 192              		.cfi_def_cfa_offset 4
 193 001a BD46     		mov	sp, r7
 194              		.cfi_def_cfa_register 13
 195              		@ sp needed
 196 001c 80BC     		pop	{r7}
 197              		.cfi_restore 7
 198              		.cfi_def_cfa_offset 0
 199 001e 7047     		bx	lr
 200              	.L11:
 201              		.align	2
 202              	.L10:
 203 0020 08ED00E0 		.word	-536810232
 204              		.cfi_endproc
 205              	.LFE67:
 206              		.size	isr_Timer_10ms_SetVector, .-isr_Timer_10ms_SetVector
 207              		.section	.text.isr_Timer_10ms_GetVector,"ax",%progbits
ARM GAS  C:\Users\MARTHN~1\AppData\Local\Temp\cczMMs3C.s 			page 9


 208              		.align	2
 209              		.global	isr_Timer_10ms_GetVector
 210              		.thumb
 211              		.thumb_func
 212              		.type	isr_Timer_10ms_GetVector, %function
 213              	isr_Timer_10ms_GetVector:
 214              	.LFB68:
 250:Generated_Source\PSoC5/isr_Timer_10ms.c **** 
 251:Generated_Source\PSoC5/isr_Timer_10ms.c **** 
 252:Generated_Source\PSoC5/isr_Timer_10ms.c **** /*******************************************************************************
 253:Generated_Source\PSoC5/isr_Timer_10ms.c **** * Function Name: isr_Timer_10ms_GetVector
 254:Generated_Source\PSoC5/isr_Timer_10ms.c **** ********************************************************************************
 255:Generated_Source\PSoC5/isr_Timer_10ms.c **** *
 256:Generated_Source\PSoC5/isr_Timer_10ms.c **** * Summary:
 257:Generated_Source\PSoC5/isr_Timer_10ms.c **** *   Gets the "address" of the current ISR vector for the Interrupt.
 258:Generated_Source\PSoC5/isr_Timer_10ms.c **** *
 259:Generated_Source\PSoC5/isr_Timer_10ms.c **** * Parameters:
 260:Generated_Source\PSoC5/isr_Timer_10ms.c **** *   None
 261:Generated_Source\PSoC5/isr_Timer_10ms.c **** *
 262:Generated_Source\PSoC5/isr_Timer_10ms.c **** * Return:
 263:Generated_Source\PSoC5/isr_Timer_10ms.c **** *   Address of the ISR in the interrupt vector table.
 264:Generated_Source\PSoC5/isr_Timer_10ms.c **** *
 265:Generated_Source\PSoC5/isr_Timer_10ms.c **** *******************************************************************************/
 266:Generated_Source\PSoC5/isr_Timer_10ms.c **** cyisraddress isr_Timer_10ms_GetVector(void)
 267:Generated_Source\PSoC5/isr_Timer_10ms.c **** {
 215              		.loc 1 267 0
 216              		.cfi_startproc
 217              		@ args = 0, pretend = 0, frame = 8
 218              		@ frame_needed = 1, uses_anonymous_args = 0
 219              		@ link register save eliminated.
 220 0000 80B4     		push	{r7}
 221              		.cfi_def_cfa_offset 4
 222              		.cfi_offset 7, -4
 223 0002 83B0     		sub	sp, sp, #12
 224              		.cfi_def_cfa_offset 16
 225 0004 00AF     		add	r7, sp, #0
 226              		.cfi_def_cfa_register 7
 268:Generated_Source\PSoC5/isr_Timer_10ms.c ****     cyisraddress * ramVectorTable;
 269:Generated_Source\PSoC5/isr_Timer_10ms.c **** 
 270:Generated_Source\PSoC5/isr_Timer_10ms.c ****     ramVectorTable = (cyisraddress *) *CYINT_VECT_TABLE;
 227              		.loc 1 270 0
 228 0006 054B     		ldr	r3, .L14
 229 0008 1B68     		ldr	r3, [r3]
 230 000a 7B60     		str	r3, [r7, #4]
 271:Generated_Source\PSoC5/isr_Timer_10ms.c **** 
 272:Generated_Source\PSoC5/isr_Timer_10ms.c ****     return ramVectorTable[CYINT_IRQ_BASE + (uint32)isr_Timer_10ms__INTC_NUMBER];
 231              		.loc 1 272 0
 232 000c 7B68     		ldr	r3, [r7, #4]
 233 000e 5B6C     		ldr	r3, [r3, #68]
 273:Generated_Source\PSoC5/isr_Timer_10ms.c **** }
 234              		.loc 1 273 0
 235 0010 1846     		mov	r0, r3
 236 0012 0C37     		adds	r7, r7, #12
 237              		.cfi_def_cfa_offset 4
 238 0014 BD46     		mov	sp, r7
 239              		.cfi_def_cfa_register 13
 240              		@ sp needed
ARM GAS  C:\Users\MARTHN~1\AppData\Local\Temp\cczMMs3C.s 			page 10


 241 0016 80BC     		pop	{r7}
 242              		.cfi_restore 7
 243              		.cfi_def_cfa_offset 0
 244 0018 7047     		bx	lr
 245              	.L15:
 246 001a 00BF     		.align	2
 247              	.L14:
 248 001c 08ED00E0 		.word	-536810232
 249              		.cfi_endproc
 250              	.LFE68:
 251              		.size	isr_Timer_10ms_GetVector, .-isr_Timer_10ms_GetVector
 252              		.section	.text.isr_Timer_10ms_SetPriority,"ax",%progbits
 253              		.align	2
 254              		.global	isr_Timer_10ms_SetPriority
 255              		.thumb
 256              		.thumb_func
 257              		.type	isr_Timer_10ms_SetPriority, %function
 258              	isr_Timer_10ms_SetPriority:
 259              	.LFB69:
 274:Generated_Source\PSoC5/isr_Timer_10ms.c **** 
 275:Generated_Source\PSoC5/isr_Timer_10ms.c **** 
 276:Generated_Source\PSoC5/isr_Timer_10ms.c **** /*******************************************************************************
 277:Generated_Source\PSoC5/isr_Timer_10ms.c **** * Function Name: isr_Timer_10ms_SetPriority
 278:Generated_Source\PSoC5/isr_Timer_10ms.c **** ********************************************************************************
 279:Generated_Source\PSoC5/isr_Timer_10ms.c **** *
 280:Generated_Source\PSoC5/isr_Timer_10ms.c **** * Summary:
 281:Generated_Source\PSoC5/isr_Timer_10ms.c **** *   Sets the Priority of the Interrupt. 
 282:Generated_Source\PSoC5/isr_Timer_10ms.c **** *
 283:Generated_Source\PSoC5/isr_Timer_10ms.c **** *   Note calling isr_Timer_10ms_Start or isr_Timer_10ms_StartEx will 
 284:Generated_Source\PSoC5/isr_Timer_10ms.c **** *   override any effect this API would have had. This API should only be called
 285:Generated_Source\PSoC5/isr_Timer_10ms.c **** *   after isr_Timer_10ms_Start or isr_Timer_10ms_StartEx has been called. 
 286:Generated_Source\PSoC5/isr_Timer_10ms.c **** *   To set the initial priority for the component, use the Design-Wide Resources
 287:Generated_Source\PSoC5/isr_Timer_10ms.c **** *   Interrupt Editor.
 288:Generated_Source\PSoC5/isr_Timer_10ms.c **** *
 289:Generated_Source\PSoC5/isr_Timer_10ms.c **** *   Note This API has no effect on Non-maskable interrupt NMI).
 290:Generated_Source\PSoC5/isr_Timer_10ms.c **** *
 291:Generated_Source\PSoC5/isr_Timer_10ms.c **** * Parameters:
 292:Generated_Source\PSoC5/isr_Timer_10ms.c **** *   priority: Priority of the interrupt, 0 being the highest priority
 293:Generated_Source\PSoC5/isr_Timer_10ms.c **** *             PSoC 3 and PSoC 5LP: Priority is from 0 to 7.
 294:Generated_Source\PSoC5/isr_Timer_10ms.c **** *             PSoC 4: Priority is from 0 to 3.
 295:Generated_Source\PSoC5/isr_Timer_10ms.c **** *
 296:Generated_Source\PSoC5/isr_Timer_10ms.c **** * Return:
 297:Generated_Source\PSoC5/isr_Timer_10ms.c **** *   None
 298:Generated_Source\PSoC5/isr_Timer_10ms.c **** *
 299:Generated_Source\PSoC5/isr_Timer_10ms.c **** *******************************************************************************/
 300:Generated_Source\PSoC5/isr_Timer_10ms.c **** void isr_Timer_10ms_SetPriority(uint8 priority)
 301:Generated_Source\PSoC5/isr_Timer_10ms.c **** {
 260              		.loc 1 301 0
 261              		.cfi_startproc
 262              		@ args = 0, pretend = 0, frame = 8
 263              		@ frame_needed = 1, uses_anonymous_args = 0
 264              		@ link register save eliminated.
 265 0000 80B4     		push	{r7}
 266              		.cfi_def_cfa_offset 4
 267              		.cfi_offset 7, -4
 268 0002 83B0     		sub	sp, sp, #12
 269              		.cfi_def_cfa_offset 16
ARM GAS  C:\Users\MARTHN~1\AppData\Local\Temp\cczMMs3C.s 			page 11


 270 0004 00AF     		add	r7, sp, #0
 271              		.cfi_def_cfa_register 7
 272 0006 0346     		mov	r3, r0
 273 0008 FB71     		strb	r3, [r7, #7]
 302:Generated_Source\PSoC5/isr_Timer_10ms.c ****     *isr_Timer_10ms_INTC_PRIOR = priority << 5;
 274              		.loc 1 302 0
 275 000a 054A     		ldr	r2, .L17
 276 000c FB79     		ldrb	r3, [r7, #7]
 277 000e 5B01     		lsls	r3, r3, #5
 278 0010 DBB2     		uxtb	r3, r3
 279 0012 1370     		strb	r3, [r2]
 303:Generated_Source\PSoC5/isr_Timer_10ms.c **** }
 280              		.loc 1 303 0
 281 0014 00BF     		nop
 282 0016 0C37     		adds	r7, r7, #12
 283              		.cfi_def_cfa_offset 4
 284 0018 BD46     		mov	sp, r7
 285              		.cfi_def_cfa_register 13
 286              		@ sp needed
 287 001a 80BC     		pop	{r7}
 288              		.cfi_restore 7
 289              		.cfi_def_cfa_offset 0
 290 001c 7047     		bx	lr
 291              	.L18:
 292 001e 00BF     		.align	2
 293              	.L17:
 294 0020 01E400E0 		.word	-536812543
 295              		.cfi_endproc
 296              	.LFE69:
 297              		.size	isr_Timer_10ms_SetPriority, .-isr_Timer_10ms_SetPriority
 298              		.section	.text.isr_Timer_10ms_GetPriority,"ax",%progbits
 299              		.align	2
 300              		.global	isr_Timer_10ms_GetPriority
 301              		.thumb
 302              		.thumb_func
 303              		.type	isr_Timer_10ms_GetPriority, %function
 304              	isr_Timer_10ms_GetPriority:
 305              	.LFB70:
 304:Generated_Source\PSoC5/isr_Timer_10ms.c **** 
 305:Generated_Source\PSoC5/isr_Timer_10ms.c **** 
 306:Generated_Source\PSoC5/isr_Timer_10ms.c **** /*******************************************************************************
 307:Generated_Source\PSoC5/isr_Timer_10ms.c **** * Function Name: isr_Timer_10ms_GetPriority
 308:Generated_Source\PSoC5/isr_Timer_10ms.c **** ********************************************************************************
 309:Generated_Source\PSoC5/isr_Timer_10ms.c **** *
 310:Generated_Source\PSoC5/isr_Timer_10ms.c **** * Summary:
 311:Generated_Source\PSoC5/isr_Timer_10ms.c **** *   Gets the Priority of the Interrupt.
 312:Generated_Source\PSoC5/isr_Timer_10ms.c **** *
 313:Generated_Source\PSoC5/isr_Timer_10ms.c **** * Parameters:
 314:Generated_Source\PSoC5/isr_Timer_10ms.c **** *   None
 315:Generated_Source\PSoC5/isr_Timer_10ms.c **** *
 316:Generated_Source\PSoC5/isr_Timer_10ms.c **** * Return:
 317:Generated_Source\PSoC5/isr_Timer_10ms.c **** *   Priority of the interrupt, 0 being the highest priority
 318:Generated_Source\PSoC5/isr_Timer_10ms.c **** *    PSoC 3 and PSoC 5LP: Priority is from 0 to 7.
 319:Generated_Source\PSoC5/isr_Timer_10ms.c **** *    PSoC 4: Priority is from 0 to 3.
 320:Generated_Source\PSoC5/isr_Timer_10ms.c **** *
 321:Generated_Source\PSoC5/isr_Timer_10ms.c **** *******************************************************************************/
 322:Generated_Source\PSoC5/isr_Timer_10ms.c **** uint8 isr_Timer_10ms_GetPriority(void)
ARM GAS  C:\Users\MARTHN~1\AppData\Local\Temp\cczMMs3C.s 			page 12


 323:Generated_Source\PSoC5/isr_Timer_10ms.c **** {
 306              		.loc 1 323 0
 307              		.cfi_startproc
 308              		@ args = 0, pretend = 0, frame = 8
 309              		@ frame_needed = 1, uses_anonymous_args = 0
 310              		@ link register save eliminated.
 311 0000 80B4     		push	{r7}
 312              		.cfi_def_cfa_offset 4
 313              		.cfi_offset 7, -4
 314 0002 83B0     		sub	sp, sp, #12
 315              		.cfi_def_cfa_offset 16
 316 0004 00AF     		add	r7, sp, #0
 317              		.cfi_def_cfa_register 7
 324:Generated_Source\PSoC5/isr_Timer_10ms.c ****     uint8 priority;
 325:Generated_Source\PSoC5/isr_Timer_10ms.c **** 
 326:Generated_Source\PSoC5/isr_Timer_10ms.c **** 
 327:Generated_Source\PSoC5/isr_Timer_10ms.c ****     priority = *isr_Timer_10ms_INTC_PRIOR >> 5;
 318              		.loc 1 327 0
 319 0006 054B     		ldr	r3, .L21
 320 0008 1B78     		ldrb	r3, [r3]
 321 000a DBB2     		uxtb	r3, r3
 322 000c 5B09     		lsrs	r3, r3, #5
 323 000e FB71     		strb	r3, [r7, #7]
 328:Generated_Source\PSoC5/isr_Timer_10ms.c **** 
 329:Generated_Source\PSoC5/isr_Timer_10ms.c ****     return priority;
 324              		.loc 1 329 0
 325 0010 FB79     		ldrb	r3, [r7, #7]	@ zero_extendqisi2
 330:Generated_Source\PSoC5/isr_Timer_10ms.c **** }
 326              		.loc 1 330 0
 327 0012 1846     		mov	r0, r3
 328 0014 0C37     		adds	r7, r7, #12
 329              		.cfi_def_cfa_offset 4
 330 0016 BD46     		mov	sp, r7
 331              		.cfi_def_cfa_register 13
 332              		@ sp needed
 333 0018 80BC     		pop	{r7}
 334              		.cfi_restore 7
 335              		.cfi_def_cfa_offset 0
 336 001a 7047     		bx	lr
 337              	.L22:
 338              		.align	2
 339              	.L21:
 340 001c 01E400E0 		.word	-536812543
 341              		.cfi_endproc
 342              	.LFE70:
 343              		.size	isr_Timer_10ms_GetPriority, .-isr_Timer_10ms_GetPriority
 344              		.section	.text.isr_Timer_10ms_Enable,"ax",%progbits
 345              		.align	2
 346              		.global	isr_Timer_10ms_Enable
 347              		.thumb
 348              		.thumb_func
 349              		.type	isr_Timer_10ms_Enable, %function
 350              	isr_Timer_10ms_Enable:
 351              	.LFB71:
 331:Generated_Source\PSoC5/isr_Timer_10ms.c **** 
 332:Generated_Source\PSoC5/isr_Timer_10ms.c **** 
 333:Generated_Source\PSoC5/isr_Timer_10ms.c **** /*******************************************************************************
ARM GAS  C:\Users\MARTHN~1\AppData\Local\Temp\cczMMs3C.s 			page 13


 334:Generated_Source\PSoC5/isr_Timer_10ms.c **** * Function Name: isr_Timer_10ms_Enable
 335:Generated_Source\PSoC5/isr_Timer_10ms.c **** ********************************************************************************
 336:Generated_Source\PSoC5/isr_Timer_10ms.c **** *
 337:Generated_Source\PSoC5/isr_Timer_10ms.c **** * Summary:
 338:Generated_Source\PSoC5/isr_Timer_10ms.c **** *   Enables the interrupt to the interrupt controller. Do not call this function
 339:Generated_Source\PSoC5/isr_Timer_10ms.c **** *   unless ISR_Start() has been called or the functionality of the ISR_Start() 
 340:Generated_Source\PSoC5/isr_Timer_10ms.c **** *   function, which sets the vector and the priority, has been called.
 341:Generated_Source\PSoC5/isr_Timer_10ms.c **** *
 342:Generated_Source\PSoC5/isr_Timer_10ms.c **** * Parameters:
 343:Generated_Source\PSoC5/isr_Timer_10ms.c **** *   None
 344:Generated_Source\PSoC5/isr_Timer_10ms.c **** *
 345:Generated_Source\PSoC5/isr_Timer_10ms.c **** * Return:
 346:Generated_Source\PSoC5/isr_Timer_10ms.c **** *   None
 347:Generated_Source\PSoC5/isr_Timer_10ms.c **** *
 348:Generated_Source\PSoC5/isr_Timer_10ms.c **** *******************************************************************************/
 349:Generated_Source\PSoC5/isr_Timer_10ms.c **** void isr_Timer_10ms_Enable(void)
 350:Generated_Source\PSoC5/isr_Timer_10ms.c **** {
 352              		.loc 1 350 0
 353              		.cfi_startproc
 354              		@ args = 0, pretend = 0, frame = 0
 355              		@ frame_needed = 1, uses_anonymous_args = 0
 356              		@ link register save eliminated.
 357 0000 80B4     		push	{r7}
 358              		.cfi_def_cfa_offset 4
 359              		.cfi_offset 7, -4
 360 0002 00AF     		add	r7, sp, #0
 361              		.cfi_def_cfa_register 7
 351:Generated_Source\PSoC5/isr_Timer_10ms.c ****     /* Enable the general interrupt. */
 352:Generated_Source\PSoC5/isr_Timer_10ms.c ****     *isr_Timer_10ms_INTC_SET_EN = isr_Timer_10ms__INTC_MASK;
 362              		.loc 1 352 0
 363 0004 034B     		ldr	r3, .L24
 364 0006 0222     		movs	r2, #2
 365 0008 1A60     		str	r2, [r3]
 353:Generated_Source\PSoC5/isr_Timer_10ms.c **** }
 366              		.loc 1 353 0
 367 000a 00BF     		nop
 368 000c BD46     		mov	sp, r7
 369              		.cfi_def_cfa_register 13
 370              		@ sp needed
 371 000e 80BC     		pop	{r7}
 372              		.cfi_restore 7
 373              		.cfi_def_cfa_offset 0
 374 0010 7047     		bx	lr
 375              	.L25:
 376 0012 00BF     		.align	2
 377              	.L24:
 378 0014 00E100E0 		.word	-536813312
 379              		.cfi_endproc
 380              	.LFE71:
 381              		.size	isr_Timer_10ms_Enable, .-isr_Timer_10ms_Enable
 382              		.section	.text.isr_Timer_10ms_GetState,"ax",%progbits
 383              		.align	2
 384              		.global	isr_Timer_10ms_GetState
 385              		.thumb
 386              		.thumb_func
 387              		.type	isr_Timer_10ms_GetState, %function
 388              	isr_Timer_10ms_GetState:
ARM GAS  C:\Users\MARTHN~1\AppData\Local\Temp\cczMMs3C.s 			page 14


 389              	.LFB72:
 354:Generated_Source\PSoC5/isr_Timer_10ms.c **** 
 355:Generated_Source\PSoC5/isr_Timer_10ms.c **** 
 356:Generated_Source\PSoC5/isr_Timer_10ms.c **** /*******************************************************************************
 357:Generated_Source\PSoC5/isr_Timer_10ms.c **** * Function Name: isr_Timer_10ms_GetState
 358:Generated_Source\PSoC5/isr_Timer_10ms.c **** ********************************************************************************
 359:Generated_Source\PSoC5/isr_Timer_10ms.c **** *
 360:Generated_Source\PSoC5/isr_Timer_10ms.c **** * Summary:
 361:Generated_Source\PSoC5/isr_Timer_10ms.c **** *   Gets the state (enabled, disabled) of the Interrupt.
 362:Generated_Source\PSoC5/isr_Timer_10ms.c **** *
 363:Generated_Source\PSoC5/isr_Timer_10ms.c **** * Parameters:
 364:Generated_Source\PSoC5/isr_Timer_10ms.c **** *   None
 365:Generated_Source\PSoC5/isr_Timer_10ms.c **** *
 366:Generated_Source\PSoC5/isr_Timer_10ms.c **** * Return:
 367:Generated_Source\PSoC5/isr_Timer_10ms.c **** *   1 if enabled, 0 if disabled.
 368:Generated_Source\PSoC5/isr_Timer_10ms.c **** *
 369:Generated_Source\PSoC5/isr_Timer_10ms.c **** *******************************************************************************/
 370:Generated_Source\PSoC5/isr_Timer_10ms.c **** uint8 isr_Timer_10ms_GetState(void)
 371:Generated_Source\PSoC5/isr_Timer_10ms.c **** {
 390              		.loc 1 371 0
 391              		.cfi_startproc
 392              		@ args = 0, pretend = 0, frame = 0
 393              		@ frame_needed = 1, uses_anonymous_args = 0
 394              		@ link register save eliminated.
 395 0000 80B4     		push	{r7}
 396              		.cfi_def_cfa_offset 4
 397              		.cfi_offset 7, -4
 398 0002 00AF     		add	r7, sp, #0
 399              		.cfi_def_cfa_register 7
 372:Generated_Source\PSoC5/isr_Timer_10ms.c ****     /* Get the state of the general interrupt. */
 373:Generated_Source\PSoC5/isr_Timer_10ms.c ****     return ((*isr_Timer_10ms_INTC_SET_EN & (uint32)isr_Timer_10ms__INTC_MASK) != 0u) ? 1u:0u;
 400              		.loc 1 373 0
 401 0004 064B     		ldr	r3, .L30
 402 0006 1B68     		ldr	r3, [r3]
 403 0008 03F00203 		and	r3, r3, #2
 404 000c 002B     		cmp	r3, #0
 405 000e 01D0     		beq	.L27
 406              		.loc 1 373 0 is_stmt 0 discriminator 1
 407 0010 0123     		movs	r3, #1
 408 0012 00E0     		b	.L28
 409              	.L27:
 410              		.loc 1 373 0 discriminator 2
 411 0014 0023     		movs	r3, #0
 412              	.L28:
 374:Generated_Source\PSoC5/isr_Timer_10ms.c **** }
 413              		.loc 1 374 0 is_stmt 1 discriminator 4
 414 0016 1846     		mov	r0, r3
 415 0018 BD46     		mov	sp, r7
 416              		.cfi_def_cfa_register 13
 417              		@ sp needed
 418 001a 80BC     		pop	{r7}
 419              		.cfi_restore 7
 420              		.cfi_def_cfa_offset 0
 421 001c 7047     		bx	lr
 422              	.L31:
 423 001e 00BF     		.align	2
 424              	.L30:
ARM GAS  C:\Users\MARTHN~1\AppData\Local\Temp\cczMMs3C.s 			page 15


 425 0020 00E100E0 		.word	-536813312
 426              		.cfi_endproc
 427              	.LFE72:
 428              		.size	isr_Timer_10ms_GetState, .-isr_Timer_10ms_GetState
 429              		.section	.text.isr_Timer_10ms_Disable,"ax",%progbits
 430              		.align	2
 431              		.global	isr_Timer_10ms_Disable
 432              		.thumb
 433              		.thumb_func
 434              		.type	isr_Timer_10ms_Disable, %function
 435              	isr_Timer_10ms_Disable:
 436              	.LFB73:
 375:Generated_Source\PSoC5/isr_Timer_10ms.c **** 
 376:Generated_Source\PSoC5/isr_Timer_10ms.c **** 
 377:Generated_Source\PSoC5/isr_Timer_10ms.c **** /*******************************************************************************
 378:Generated_Source\PSoC5/isr_Timer_10ms.c **** * Function Name: isr_Timer_10ms_Disable
 379:Generated_Source\PSoC5/isr_Timer_10ms.c **** ********************************************************************************
 380:Generated_Source\PSoC5/isr_Timer_10ms.c **** *
 381:Generated_Source\PSoC5/isr_Timer_10ms.c **** * Summary:
 382:Generated_Source\PSoC5/isr_Timer_10ms.c **** *   Disables the Interrupt in the interrupt controller.
 383:Generated_Source\PSoC5/isr_Timer_10ms.c **** *
 384:Generated_Source\PSoC5/isr_Timer_10ms.c **** * Parameters:
 385:Generated_Source\PSoC5/isr_Timer_10ms.c **** *   None
 386:Generated_Source\PSoC5/isr_Timer_10ms.c **** *
 387:Generated_Source\PSoC5/isr_Timer_10ms.c **** * Return:
 388:Generated_Source\PSoC5/isr_Timer_10ms.c **** *   None
 389:Generated_Source\PSoC5/isr_Timer_10ms.c **** *
 390:Generated_Source\PSoC5/isr_Timer_10ms.c **** *******************************************************************************/
 391:Generated_Source\PSoC5/isr_Timer_10ms.c **** void isr_Timer_10ms_Disable(void)
 392:Generated_Source\PSoC5/isr_Timer_10ms.c **** {
 437              		.loc 1 392 0
 438              		.cfi_startproc
 439              		@ args = 0, pretend = 0, frame = 0
 440              		@ frame_needed = 1, uses_anonymous_args = 0
 441              		@ link register save eliminated.
 442 0000 80B4     		push	{r7}
 443              		.cfi_def_cfa_offset 4
 444              		.cfi_offset 7, -4
 445 0002 00AF     		add	r7, sp, #0
 446              		.cfi_def_cfa_register 7
 393:Generated_Source\PSoC5/isr_Timer_10ms.c ****     /* Disable the general interrupt. */
 394:Generated_Source\PSoC5/isr_Timer_10ms.c ****     *isr_Timer_10ms_INTC_CLR_EN = isr_Timer_10ms__INTC_MASK;
 447              		.loc 1 394 0
 448 0004 034B     		ldr	r3, .L33
 449 0006 0222     		movs	r2, #2
 450 0008 1A60     		str	r2, [r3]
 395:Generated_Source\PSoC5/isr_Timer_10ms.c **** }
 451              		.loc 1 395 0
 452 000a 00BF     		nop
 453 000c BD46     		mov	sp, r7
 454              		.cfi_def_cfa_register 13
 455              		@ sp needed
 456 000e 80BC     		pop	{r7}
 457              		.cfi_restore 7
 458              		.cfi_def_cfa_offset 0
 459 0010 7047     		bx	lr
 460              	.L34:
ARM GAS  C:\Users\MARTHN~1\AppData\Local\Temp\cczMMs3C.s 			page 16


 461 0012 00BF     		.align	2
 462              	.L33:
 463 0014 80E100E0 		.word	-536813184
 464              		.cfi_endproc
 465              	.LFE73:
 466              		.size	isr_Timer_10ms_Disable, .-isr_Timer_10ms_Disable
 467              		.section	.text.isr_Timer_10ms_SetPending,"ax",%progbits
 468              		.align	2
 469              		.global	isr_Timer_10ms_SetPending
 470              		.thumb
 471              		.thumb_func
 472              		.type	isr_Timer_10ms_SetPending, %function
 473              	isr_Timer_10ms_SetPending:
 474              	.LFB74:
 396:Generated_Source\PSoC5/isr_Timer_10ms.c **** 
 397:Generated_Source\PSoC5/isr_Timer_10ms.c **** 
 398:Generated_Source\PSoC5/isr_Timer_10ms.c **** /*******************************************************************************
 399:Generated_Source\PSoC5/isr_Timer_10ms.c **** * Function Name: isr_Timer_10ms_SetPending
 400:Generated_Source\PSoC5/isr_Timer_10ms.c **** ********************************************************************************
 401:Generated_Source\PSoC5/isr_Timer_10ms.c **** *
 402:Generated_Source\PSoC5/isr_Timer_10ms.c **** * Summary:
 403:Generated_Source\PSoC5/isr_Timer_10ms.c **** *   Causes the Interrupt to enter the pending state, a software method of
 404:Generated_Source\PSoC5/isr_Timer_10ms.c **** *   generating the interrupt.
 405:Generated_Source\PSoC5/isr_Timer_10ms.c **** *
 406:Generated_Source\PSoC5/isr_Timer_10ms.c **** * Parameters:
 407:Generated_Source\PSoC5/isr_Timer_10ms.c **** *   None
 408:Generated_Source\PSoC5/isr_Timer_10ms.c **** *
 409:Generated_Source\PSoC5/isr_Timer_10ms.c **** * Return:
 410:Generated_Source\PSoC5/isr_Timer_10ms.c **** *   None
 411:Generated_Source\PSoC5/isr_Timer_10ms.c **** *
 412:Generated_Source\PSoC5/isr_Timer_10ms.c **** * Side Effects:
 413:Generated_Source\PSoC5/isr_Timer_10ms.c **** *   If interrupts are enabled and the interrupt is set up properly, the ISR is
 414:Generated_Source\PSoC5/isr_Timer_10ms.c **** *   entered (depending on the priority of this interrupt and other pending 
 415:Generated_Source\PSoC5/isr_Timer_10ms.c **** *   interrupts).
 416:Generated_Source\PSoC5/isr_Timer_10ms.c **** *
 417:Generated_Source\PSoC5/isr_Timer_10ms.c **** *******************************************************************************/
 418:Generated_Source\PSoC5/isr_Timer_10ms.c **** void isr_Timer_10ms_SetPending(void)
 419:Generated_Source\PSoC5/isr_Timer_10ms.c **** {
 475              		.loc 1 419 0
 476              		.cfi_startproc
 477              		@ args = 0, pretend = 0, frame = 0
 478              		@ frame_needed = 1, uses_anonymous_args = 0
 479              		@ link register save eliminated.
 480 0000 80B4     		push	{r7}
 481              		.cfi_def_cfa_offset 4
 482              		.cfi_offset 7, -4
 483 0002 00AF     		add	r7, sp, #0
 484              		.cfi_def_cfa_register 7
 420:Generated_Source\PSoC5/isr_Timer_10ms.c ****     *isr_Timer_10ms_INTC_SET_PD = isr_Timer_10ms__INTC_MASK;
 485              		.loc 1 420 0
 486 0004 034B     		ldr	r3, .L36
 487 0006 0222     		movs	r2, #2
 488 0008 1A60     		str	r2, [r3]
 421:Generated_Source\PSoC5/isr_Timer_10ms.c **** }
 489              		.loc 1 421 0
 490 000a 00BF     		nop
 491 000c BD46     		mov	sp, r7
ARM GAS  C:\Users\MARTHN~1\AppData\Local\Temp\cczMMs3C.s 			page 17


 492              		.cfi_def_cfa_register 13
 493              		@ sp needed
 494 000e 80BC     		pop	{r7}
 495              		.cfi_restore 7
 496              		.cfi_def_cfa_offset 0
 497 0010 7047     		bx	lr
 498              	.L37:
 499 0012 00BF     		.align	2
 500              	.L36:
 501 0014 00E200E0 		.word	-536813056
 502              		.cfi_endproc
 503              	.LFE74:
 504              		.size	isr_Timer_10ms_SetPending, .-isr_Timer_10ms_SetPending
 505              		.section	.text.isr_Timer_10ms_ClearPending,"ax",%progbits
 506              		.align	2
 507              		.global	isr_Timer_10ms_ClearPending
 508              		.thumb
 509              		.thumb_func
 510              		.type	isr_Timer_10ms_ClearPending, %function
 511              	isr_Timer_10ms_ClearPending:
 512              	.LFB75:
 422:Generated_Source\PSoC5/isr_Timer_10ms.c **** 
 423:Generated_Source\PSoC5/isr_Timer_10ms.c **** 
 424:Generated_Source\PSoC5/isr_Timer_10ms.c **** /*******************************************************************************
 425:Generated_Source\PSoC5/isr_Timer_10ms.c **** * Function Name: isr_Timer_10ms_ClearPending
 426:Generated_Source\PSoC5/isr_Timer_10ms.c **** ********************************************************************************
 427:Generated_Source\PSoC5/isr_Timer_10ms.c **** *
 428:Generated_Source\PSoC5/isr_Timer_10ms.c **** * Summary:
 429:Generated_Source\PSoC5/isr_Timer_10ms.c **** *   Clears a pending interrupt in the interrupt controller.
 430:Generated_Source\PSoC5/isr_Timer_10ms.c **** *
 431:Generated_Source\PSoC5/isr_Timer_10ms.c **** *   Note Some interrupt sources are clear-on-read and require the block 
 432:Generated_Source\PSoC5/isr_Timer_10ms.c **** *   interrupt/status register to be read/cleared with the appropriate block API 
 433:Generated_Source\PSoC5/isr_Timer_10ms.c **** *   (GPIO, UART, and so on). Otherwise the ISR will continue to remain in 
 434:Generated_Source\PSoC5/isr_Timer_10ms.c **** *   pending state even though the interrupt itself is cleared using this API.
 435:Generated_Source\PSoC5/isr_Timer_10ms.c **** *
 436:Generated_Source\PSoC5/isr_Timer_10ms.c **** * Parameters:
 437:Generated_Source\PSoC5/isr_Timer_10ms.c **** *   None
 438:Generated_Source\PSoC5/isr_Timer_10ms.c **** *
 439:Generated_Source\PSoC5/isr_Timer_10ms.c **** * Return:
 440:Generated_Source\PSoC5/isr_Timer_10ms.c **** *   None
 441:Generated_Source\PSoC5/isr_Timer_10ms.c **** *
 442:Generated_Source\PSoC5/isr_Timer_10ms.c **** *******************************************************************************/
 443:Generated_Source\PSoC5/isr_Timer_10ms.c **** void isr_Timer_10ms_ClearPending(void)
 444:Generated_Source\PSoC5/isr_Timer_10ms.c **** {
 513              		.loc 1 444 0
 514              		.cfi_startproc
 515              		@ args = 0, pretend = 0, frame = 0
 516              		@ frame_needed = 1, uses_anonymous_args = 0
 517              		@ link register save eliminated.
 518 0000 80B4     		push	{r7}
 519              		.cfi_def_cfa_offset 4
 520              		.cfi_offset 7, -4
 521 0002 00AF     		add	r7, sp, #0
 522              		.cfi_def_cfa_register 7
 445:Generated_Source\PSoC5/isr_Timer_10ms.c ****     *isr_Timer_10ms_INTC_CLR_PD = isr_Timer_10ms__INTC_MASK;
 523              		.loc 1 445 0
 524 0004 034B     		ldr	r3, .L39
ARM GAS  C:\Users\MARTHN~1\AppData\Local\Temp\cczMMs3C.s 			page 18


 525 0006 0222     		movs	r2, #2
 526 0008 1A60     		str	r2, [r3]
 446:Generated_Source\PSoC5/isr_Timer_10ms.c **** }
 527              		.loc 1 446 0
 528 000a 00BF     		nop
 529 000c BD46     		mov	sp, r7
 530              		.cfi_def_cfa_register 13
 531              		@ sp needed
 532 000e 80BC     		pop	{r7}
 533              		.cfi_restore 7
 534              		.cfi_def_cfa_offset 0
 535 0010 7047     		bx	lr
 536              	.L40:
 537 0012 00BF     		.align	2
 538              	.L39:
 539 0014 80E200E0 		.word	-536812928
 540              		.cfi_endproc
 541              	.LFE75:
 542              		.size	isr_Timer_10ms_ClearPending, .-isr_Timer_10ms_ClearPending
 543              		.text
 544              	.Letext0:
 545              		.file 2 "c:\\program files (x86)\\cypress\\psoc creator\\4.3\\psoc creator\\import\\gnu\\arm\\5.4.
 546              		.file 3 "c:\\program files (x86)\\cypress\\psoc creator\\4.3\\psoc creator\\import\\gnu\\arm\\5.4.
 547              		.file 4 "Generated_Source\\PSoC5/cytypes.h"
 548              		.file 5 "Generated_Source\\PSoC5/core_cm3.h"