ARM GAS  C:\Users\MARTHN~1\AppData\Local\Temp\ccjmYZlA.s 			page 1


   1              		.syntax unified
   2              		.cpu cortex-m3
   3              		.fpu softvfp
   4              		.eabi_attribute 20, 1
   5              		.eabi_attribute 21, 1
   6              		.eabi_attribute 23, 3
   7              		.eabi_attribute 24, 1
   8              		.eabi_attribute 25, 1
   9              		.eabi_attribute 26, 1
  10              		.eabi_attribute 30, 6
  11              		.eabi_attribute 34, 1
  12              		.eabi_attribute 18, 4
  13              		.thumb
  14              		.syntax unified
  15              		.file	"LED_ISR.c"
  16              		.text
  17              	.Ltext0:
  18              		.cfi_sections	.debug_frame
  19              		.section	.text.LED_ISR_Start,"ax",%progbits
  20              		.align	2
  21              		.global	LED_ISR_Start
  22              		.thumb
  23              		.thumb_func
  24              		.type	LED_ISR_Start, %function
  25              	LED_ISR_Start:
  26              	.LFB0:
  27              		.file 1 "Generated_Source\\PSoC5\\LED_ISR.c"
   1:Generated_Source\PSoC5/LED_ISR.c **** /*******************************************************************************
   2:Generated_Source\PSoC5/LED_ISR.c **** * File Name: LED_ISR.c  
   3:Generated_Source\PSoC5/LED_ISR.c **** * Version 1.70
   4:Generated_Source\PSoC5/LED_ISR.c **** *
   5:Generated_Source\PSoC5/LED_ISR.c **** *  Description:
   6:Generated_Source\PSoC5/LED_ISR.c **** *   API for controlling the state of an interrupt.
   7:Generated_Source\PSoC5/LED_ISR.c **** *
   8:Generated_Source\PSoC5/LED_ISR.c **** *
   9:Generated_Source\PSoC5/LED_ISR.c **** *  Note:
  10:Generated_Source\PSoC5/LED_ISR.c **** *
  11:Generated_Source\PSoC5/LED_ISR.c **** ********************************************************************************
  12:Generated_Source\PSoC5/LED_ISR.c **** * Copyright 2008-2015, Cypress Semiconductor Corporation.  All rights reserved.
  13:Generated_Source\PSoC5/LED_ISR.c **** * You may use this file only in accordance with the license, terms, conditions, 
  14:Generated_Source\PSoC5/LED_ISR.c **** * disclaimers, and limitations in the end user license agreement accompanying 
  15:Generated_Source\PSoC5/LED_ISR.c **** * the software package with which this file was provided.
  16:Generated_Source\PSoC5/LED_ISR.c **** *******************************************************************************/
  17:Generated_Source\PSoC5/LED_ISR.c **** 
  18:Generated_Source\PSoC5/LED_ISR.c **** 
  19:Generated_Source\PSoC5/LED_ISR.c **** #include <cydevice_trm.h>
  20:Generated_Source\PSoC5/LED_ISR.c **** #include <CyLib.h>
  21:Generated_Source\PSoC5/LED_ISR.c **** #include <LED_ISR.h>
  22:Generated_Source\PSoC5/LED_ISR.c **** #include "cyapicallbacks.h"
  23:Generated_Source\PSoC5/LED_ISR.c **** 
  24:Generated_Source\PSoC5/LED_ISR.c **** #if !defined(LED_ISR__REMOVED) /* Check for removal by optimization */
  25:Generated_Source\PSoC5/LED_ISR.c **** 
  26:Generated_Source\PSoC5/LED_ISR.c **** /*******************************************************************************
  27:Generated_Source\PSoC5/LED_ISR.c **** *  Place your includes, defines and code here 
  28:Generated_Source\PSoC5/LED_ISR.c **** ********************************************************************************/
  29:Generated_Source\PSoC5/LED_ISR.c **** /* `#START LED_ISR_intc` */
  30:Generated_Source\PSoC5/LED_ISR.c **** //#include "CommManager.h"
ARM GAS  C:\Users\MARTHN~1\AppData\Local\Temp\ccjmYZlA.s 			page 2


  31:Generated_Source\PSoC5/LED_ISR.c **** /* `#END` */
  32:Generated_Source\PSoC5/LED_ISR.c **** 
  33:Generated_Source\PSoC5/LED_ISR.c **** #ifndef CYINT_IRQ_BASE
  34:Generated_Source\PSoC5/LED_ISR.c **** #define CYINT_IRQ_BASE      16
  35:Generated_Source\PSoC5/LED_ISR.c **** #endif /* CYINT_IRQ_BASE */
  36:Generated_Source\PSoC5/LED_ISR.c **** #ifndef CYINT_VECT_TABLE
  37:Generated_Source\PSoC5/LED_ISR.c **** #define CYINT_VECT_TABLE    ((cyisraddress **) CYREG_NVIC_VECT_OFFSET)
  38:Generated_Source\PSoC5/LED_ISR.c **** #endif /* CYINT_VECT_TABLE */
  39:Generated_Source\PSoC5/LED_ISR.c **** 
  40:Generated_Source\PSoC5/LED_ISR.c **** /* Declared in startup, used to set unused interrupts to. */
  41:Generated_Source\PSoC5/LED_ISR.c **** CY_ISR_PROTO(IntDefaultHandler);
  42:Generated_Source\PSoC5/LED_ISR.c **** 
  43:Generated_Source\PSoC5/LED_ISR.c **** 
  44:Generated_Source\PSoC5/LED_ISR.c **** /*******************************************************************************
  45:Generated_Source\PSoC5/LED_ISR.c **** * Function Name: LED_ISR_Start
  46:Generated_Source\PSoC5/LED_ISR.c **** ********************************************************************************
  47:Generated_Source\PSoC5/LED_ISR.c **** *
  48:Generated_Source\PSoC5/LED_ISR.c **** * Summary:
  49:Generated_Source\PSoC5/LED_ISR.c **** *  Set up the interrupt and enable it. This function disables the interrupt, 
  50:Generated_Source\PSoC5/LED_ISR.c **** *  sets the default interrupt vector, sets the priority from the value in the
  51:Generated_Source\PSoC5/LED_ISR.c **** *  Design Wide Resources Interrupt Editor, then enables the interrupt to the 
  52:Generated_Source\PSoC5/LED_ISR.c **** *  interrupt controller.
  53:Generated_Source\PSoC5/LED_ISR.c **** *
  54:Generated_Source\PSoC5/LED_ISR.c **** * Parameters:  
  55:Generated_Source\PSoC5/LED_ISR.c **** *   None
  56:Generated_Source\PSoC5/LED_ISR.c **** *
  57:Generated_Source\PSoC5/LED_ISR.c **** * Return:
  58:Generated_Source\PSoC5/LED_ISR.c **** *   None
  59:Generated_Source\PSoC5/LED_ISR.c **** *
  60:Generated_Source\PSoC5/LED_ISR.c **** *******************************************************************************/
  61:Generated_Source\PSoC5/LED_ISR.c **** void LED_ISR_Start(void)
  62:Generated_Source\PSoC5/LED_ISR.c **** {
  28              		.loc 1 62 0
  29              		.cfi_startproc
  30              		@ args = 0, pretend = 0, frame = 0
  31              		@ frame_needed = 1, uses_anonymous_args = 0
  32 0000 80B5     		push	{r7, lr}
  33              		.cfi_def_cfa_offset 8
  34              		.cfi_offset 7, -8
  35              		.cfi_offset 14, -4
  36 0002 00AF     		add	r7, sp, #0
  37              		.cfi_def_cfa_register 7
  63:Generated_Source\PSoC5/LED_ISR.c ****     /* For all we know the interrupt is active. */
  64:Generated_Source\PSoC5/LED_ISR.c ****     LED_ISR_Disable();
  38              		.loc 1 64 0
  39 0004 FFF7FEFF 		bl	LED_ISR_Disable
  65:Generated_Source\PSoC5/LED_ISR.c **** 
  66:Generated_Source\PSoC5/LED_ISR.c ****     /* Set the ISR to point to the LED_ISR Interrupt. */
  67:Generated_Source\PSoC5/LED_ISR.c ****     LED_ISR_SetVector(&LED_ISR_Interrupt);
  40              		.loc 1 67 0
  41 0008 0448     		ldr	r0, .L2
  42 000a FFF7FEFF 		bl	LED_ISR_SetVector
  68:Generated_Source\PSoC5/LED_ISR.c **** 
  69:Generated_Source\PSoC5/LED_ISR.c ****     /* Set the priority. */
  70:Generated_Source\PSoC5/LED_ISR.c ****     LED_ISR_SetPriority((uint8)LED_ISR_INTC_PRIOR_NUMBER);
  43              		.loc 1 70 0
  44 000e 0720     		movs	r0, #7
ARM GAS  C:\Users\MARTHN~1\AppData\Local\Temp\ccjmYZlA.s 			page 3


  45 0010 FFF7FEFF 		bl	LED_ISR_SetPriority
  71:Generated_Source\PSoC5/LED_ISR.c **** 
  72:Generated_Source\PSoC5/LED_ISR.c ****     /* Enable it. */
  73:Generated_Source\PSoC5/LED_ISR.c ****     LED_ISR_Enable();
  46              		.loc 1 73 0
  47 0014 FFF7FEFF 		bl	LED_ISR_Enable
  74:Generated_Source\PSoC5/LED_ISR.c **** }
  48              		.loc 1 74 0
  49 0018 00BF     		nop
  50 001a 80BD     		pop	{r7, pc}
  51              	.L3:
  52              		.align	2
  53              	.L2:
  54 001c 00000000 		.word	LED_ISR_Interrupt
  55              		.cfi_endproc
  56              	.LFE0:
  57              		.size	LED_ISR_Start, .-LED_ISR_Start
  58              		.section	.text.LED_ISR_StartEx,"ax",%progbits
  59              		.align	2
  60              		.global	LED_ISR_StartEx
  61              		.thumb
  62              		.thumb_func
  63              		.type	LED_ISR_StartEx, %function
  64              	LED_ISR_StartEx:
  65              	.LFB1:
  75:Generated_Source\PSoC5/LED_ISR.c **** 
  76:Generated_Source\PSoC5/LED_ISR.c **** 
  77:Generated_Source\PSoC5/LED_ISR.c **** /*******************************************************************************
  78:Generated_Source\PSoC5/LED_ISR.c **** * Function Name: LED_ISR_StartEx
  79:Generated_Source\PSoC5/LED_ISR.c **** ********************************************************************************
  80:Generated_Source\PSoC5/LED_ISR.c **** *
  81:Generated_Source\PSoC5/LED_ISR.c **** * Summary:
  82:Generated_Source\PSoC5/LED_ISR.c **** *  Sets up the interrupt and enables it. This function disables the interrupt,
  83:Generated_Source\PSoC5/LED_ISR.c **** *  sets the interrupt vector based on the address passed in, sets the priority 
  84:Generated_Source\PSoC5/LED_ISR.c **** *  from the value in the Design Wide Resources Interrupt Editor, then enables 
  85:Generated_Source\PSoC5/LED_ISR.c **** *  the interrupt to the interrupt controller.
  86:Generated_Source\PSoC5/LED_ISR.c **** *  
  87:Generated_Source\PSoC5/LED_ISR.c **** *  When defining ISR functions, the CY_ISR and CY_ISR_PROTO macros should be 
  88:Generated_Source\PSoC5/LED_ISR.c **** *  used to provide consistent definition across compilers:
  89:Generated_Source\PSoC5/LED_ISR.c **** *  
  90:Generated_Source\PSoC5/LED_ISR.c **** *  Function definition example:
  91:Generated_Source\PSoC5/LED_ISR.c **** *   CY_ISR(MyISR)
  92:Generated_Source\PSoC5/LED_ISR.c **** *   {
  93:Generated_Source\PSoC5/LED_ISR.c **** *   }
  94:Generated_Source\PSoC5/LED_ISR.c **** *   Function prototype example:
  95:Generated_Source\PSoC5/LED_ISR.c **** *   CY_ISR_PROTO(MyISR);
  96:Generated_Source\PSoC5/LED_ISR.c **** *
  97:Generated_Source\PSoC5/LED_ISR.c **** * Parameters:  
  98:Generated_Source\PSoC5/LED_ISR.c **** *   address: Address of the ISR to set in the interrupt vector table.
  99:Generated_Source\PSoC5/LED_ISR.c **** *
 100:Generated_Source\PSoC5/LED_ISR.c **** * Return:
 101:Generated_Source\PSoC5/LED_ISR.c **** *   None
 102:Generated_Source\PSoC5/LED_ISR.c **** *
 103:Generated_Source\PSoC5/LED_ISR.c **** *******************************************************************************/
 104:Generated_Source\PSoC5/LED_ISR.c **** void LED_ISR_StartEx(cyisraddress address)
 105:Generated_Source\PSoC5/LED_ISR.c **** {
  66              		.loc 1 105 0
ARM GAS  C:\Users\MARTHN~1\AppData\Local\Temp\ccjmYZlA.s 			page 4


  67              		.cfi_startproc
  68              		@ args = 0, pretend = 0, frame = 8
  69              		@ frame_needed = 1, uses_anonymous_args = 0
  70 0000 80B5     		push	{r7, lr}
  71              		.cfi_def_cfa_offset 8
  72              		.cfi_offset 7, -8
  73              		.cfi_offset 14, -4
  74 0002 82B0     		sub	sp, sp, #8
  75              		.cfi_def_cfa_offset 16
  76 0004 00AF     		add	r7, sp, #0
  77              		.cfi_def_cfa_register 7
  78 0006 7860     		str	r0, [r7, #4]
 106:Generated_Source\PSoC5/LED_ISR.c ****     /* For all we know the interrupt is active. */
 107:Generated_Source\PSoC5/LED_ISR.c ****     LED_ISR_Disable();
  79              		.loc 1 107 0
  80 0008 FFF7FEFF 		bl	LED_ISR_Disable
 108:Generated_Source\PSoC5/LED_ISR.c **** 
 109:Generated_Source\PSoC5/LED_ISR.c ****     /* Set the ISR to point to the LED_ISR Interrupt. */
 110:Generated_Source\PSoC5/LED_ISR.c ****     LED_ISR_SetVector(address);
  81              		.loc 1 110 0
  82 000c 7868     		ldr	r0, [r7, #4]
  83 000e FFF7FEFF 		bl	LED_ISR_SetVector
 111:Generated_Source\PSoC5/LED_ISR.c **** 
 112:Generated_Source\PSoC5/LED_ISR.c ****     /* Set the priority. */
 113:Generated_Source\PSoC5/LED_ISR.c ****     LED_ISR_SetPriority((uint8)LED_ISR_INTC_PRIOR_NUMBER);
  84              		.loc 1 113 0
  85 0012 0720     		movs	r0, #7
  86 0014 FFF7FEFF 		bl	LED_ISR_SetPriority
 114:Generated_Source\PSoC5/LED_ISR.c **** 
 115:Generated_Source\PSoC5/LED_ISR.c ****     /* Enable it. */
 116:Generated_Source\PSoC5/LED_ISR.c ****     LED_ISR_Enable();
  87              		.loc 1 116 0
  88 0018 FFF7FEFF 		bl	LED_ISR_Enable
 117:Generated_Source\PSoC5/LED_ISR.c **** }
  89              		.loc 1 117 0
  90 001c 00BF     		nop
  91 001e 0837     		adds	r7, r7, #8
  92              		.cfi_def_cfa_offset 8
  93 0020 BD46     		mov	sp, r7
  94              		.cfi_def_cfa_register 13
  95              		@ sp needed
  96 0022 80BD     		pop	{r7, pc}
  97              		.cfi_endproc
  98              	.LFE1:
  99              		.size	LED_ISR_StartEx, .-LED_ISR_StartEx
 100              		.section	.text.LED_ISR_Stop,"ax",%progbits
 101              		.align	2
 102              		.global	LED_ISR_Stop
 103              		.thumb
 104              		.thumb_func
 105              		.type	LED_ISR_Stop, %function
 106              	LED_ISR_Stop:
 107              	.LFB2:
 118:Generated_Source\PSoC5/LED_ISR.c **** 
 119:Generated_Source\PSoC5/LED_ISR.c **** 
 120:Generated_Source\PSoC5/LED_ISR.c **** /*******************************************************************************
 121:Generated_Source\PSoC5/LED_ISR.c **** * Function Name: LED_ISR_Stop
ARM GAS  C:\Users\MARTHN~1\AppData\Local\Temp\ccjmYZlA.s 			page 5


 122:Generated_Source\PSoC5/LED_ISR.c **** ********************************************************************************
 123:Generated_Source\PSoC5/LED_ISR.c **** *
 124:Generated_Source\PSoC5/LED_ISR.c **** * Summary:
 125:Generated_Source\PSoC5/LED_ISR.c **** *   Disables and removes the interrupt.
 126:Generated_Source\PSoC5/LED_ISR.c **** *
 127:Generated_Source\PSoC5/LED_ISR.c **** * Parameters:  
 128:Generated_Source\PSoC5/LED_ISR.c **** *   None
 129:Generated_Source\PSoC5/LED_ISR.c **** *
 130:Generated_Source\PSoC5/LED_ISR.c **** * Return:
 131:Generated_Source\PSoC5/LED_ISR.c **** *   None
 132:Generated_Source\PSoC5/LED_ISR.c **** *
 133:Generated_Source\PSoC5/LED_ISR.c **** *******************************************************************************/
 134:Generated_Source\PSoC5/LED_ISR.c **** void LED_ISR_Stop(void)
 135:Generated_Source\PSoC5/LED_ISR.c **** {
 108              		.loc 1 135 0
 109              		.cfi_startproc
 110              		@ args = 0, pretend = 0, frame = 0
 111              		@ frame_needed = 1, uses_anonymous_args = 0
 112 0000 80B5     		push	{r7, lr}
 113              		.cfi_def_cfa_offset 8
 114              		.cfi_offset 7, -8
 115              		.cfi_offset 14, -4
 116 0002 00AF     		add	r7, sp, #0
 117              		.cfi_def_cfa_register 7
 136:Generated_Source\PSoC5/LED_ISR.c ****     /* Disable this interrupt. */
 137:Generated_Source\PSoC5/LED_ISR.c ****     LED_ISR_Disable();
 118              		.loc 1 137 0
 119 0004 FFF7FEFF 		bl	LED_ISR_Disable
 138:Generated_Source\PSoC5/LED_ISR.c **** 
 139:Generated_Source\PSoC5/LED_ISR.c ****     /* Set the ISR to point to the passive one. */
 140:Generated_Source\PSoC5/LED_ISR.c ****     LED_ISR_SetVector(&IntDefaultHandler);
 120              		.loc 1 140 0
 121 0008 0248     		ldr	r0, .L6
 122 000a FFF7FEFF 		bl	LED_ISR_SetVector
 141:Generated_Source\PSoC5/LED_ISR.c **** }
 123              		.loc 1 141 0
 124 000e 00BF     		nop
 125 0010 80BD     		pop	{r7, pc}
 126              	.L7:
 127 0012 00BF     		.align	2
 128              	.L6:
 129 0014 00000000 		.word	IntDefaultHandler
 130              		.cfi_endproc
 131              	.LFE2:
 132              		.size	LED_ISR_Stop, .-LED_ISR_Stop
 133              		.section	.text.LED_ISR_Interrupt,"ax",%progbits
 134              		.align	2
 135              		.global	LED_ISR_Interrupt
 136              		.thumb
 137              		.thumb_func
 138              		.type	LED_ISR_Interrupt, %function
 139              	LED_ISR_Interrupt:
 140              	.LFB3:
 142:Generated_Source\PSoC5/LED_ISR.c **** 
 143:Generated_Source\PSoC5/LED_ISR.c **** 
 144:Generated_Source\PSoC5/LED_ISR.c **** /*******************************************************************************
 145:Generated_Source\PSoC5/LED_ISR.c **** * Function Name: LED_ISR_Interrupt
ARM GAS  C:\Users\MARTHN~1\AppData\Local\Temp\ccjmYZlA.s 			page 6


 146:Generated_Source\PSoC5/LED_ISR.c **** ********************************************************************************
 147:Generated_Source\PSoC5/LED_ISR.c **** *
 148:Generated_Source\PSoC5/LED_ISR.c **** * Summary:
 149:Generated_Source\PSoC5/LED_ISR.c **** *   The default Interrupt Service Routine for LED_ISR.
 150:Generated_Source\PSoC5/LED_ISR.c **** *
 151:Generated_Source\PSoC5/LED_ISR.c **** *   Add custom code between the coments to keep the next version of this file
 152:Generated_Source\PSoC5/LED_ISR.c **** *   from over writting your code.
 153:Generated_Source\PSoC5/LED_ISR.c **** *
 154:Generated_Source\PSoC5/LED_ISR.c **** * Parameters:  
 155:Generated_Source\PSoC5/LED_ISR.c **** *
 156:Generated_Source\PSoC5/LED_ISR.c **** * Return:
 157:Generated_Source\PSoC5/LED_ISR.c **** *   None
 158:Generated_Source\PSoC5/LED_ISR.c **** *
 159:Generated_Source\PSoC5/LED_ISR.c **** *******************************************************************************/
 160:Generated_Source\PSoC5/LED_ISR.c **** CY_ISR(LED_ISR_Interrupt)
 161:Generated_Source\PSoC5/LED_ISR.c **** {
 141              		.loc 1 161 0
 142              		.cfi_startproc
 143              		@ args = 0, pretend = 0, frame = 0
 144              		@ frame_needed = 1, uses_anonymous_args = 0
 145 0000 80B5     		push	{r7, lr}
 146              		.cfi_def_cfa_offset 8
 147              		.cfi_offset 7, -8
 148              		.cfi_offset 14, -4
 149 0002 00AF     		add	r7, sp, #0
 150              		.cfi_def_cfa_register 7
 162:Generated_Source\PSoC5/LED_ISR.c ****     #ifdef LED_ISR_INTERRUPT_INTERRUPT_CALLBACK
 163:Generated_Source\PSoC5/LED_ISR.c ****         LED_ISR_Interrupt_InterruptCallback();
 164:Generated_Source\PSoC5/LED_ISR.c ****     #endif /* LED_ISR_INTERRUPT_INTERRUPT_CALLBACK */ 
 165:Generated_Source\PSoC5/LED_ISR.c **** 
 166:Generated_Source\PSoC5/LED_ISR.c ****     /*  Place your Interrupt code here. */
 167:Generated_Source\PSoC5/LED_ISR.c ****     /* `#START LED_ISR_Interrupt` */
 168:Generated_Source\PSoC5/LED_ISR.c ****     
 169:Generated_Source\PSoC5/LED_ISR.c ****     processLED_TimerRoutine();
 151              		.loc 1 169 0
 152 0004 FFF7FEFF 		bl	processLED_TimerRoutine
 170:Generated_Source\PSoC5/LED_ISR.c ****     sendVersionPacket();
 153              		.loc 1 170 0
 154 0008 FFF7FEFF 		bl	sendVersionPacket
 171:Generated_Source\PSoC5/LED_ISR.c ****     
 172:Generated_Source\PSoC5/LED_ISR.c ****     /* `#END` */
 173:Generated_Source\PSoC5/LED_ISR.c **** }
 155              		.loc 1 173 0
 156 000c 00BF     		nop
 157 000e 80BD     		pop	{r7, pc}
 158              		.cfi_endproc
 159              	.LFE3:
 160              		.size	LED_ISR_Interrupt, .-LED_ISR_Interrupt
 161              		.section	.text.LED_ISR_SetVector,"ax",%progbits
 162              		.align	2
 163              		.global	LED_ISR_SetVector
 164              		.thumb
 165              		.thumb_func
 166              		.type	LED_ISR_SetVector, %function
 167              	LED_ISR_SetVector:
 168              	.LFB4:
 174:Generated_Source\PSoC5/LED_ISR.c **** 
ARM GAS  C:\Users\MARTHN~1\AppData\Local\Temp\ccjmYZlA.s 			page 7


 175:Generated_Source\PSoC5/LED_ISR.c **** 
 176:Generated_Source\PSoC5/LED_ISR.c **** /*******************************************************************************
 177:Generated_Source\PSoC5/LED_ISR.c **** * Function Name: LED_ISR_SetVector
 178:Generated_Source\PSoC5/LED_ISR.c **** ********************************************************************************
 179:Generated_Source\PSoC5/LED_ISR.c **** *
 180:Generated_Source\PSoC5/LED_ISR.c **** * Summary:
 181:Generated_Source\PSoC5/LED_ISR.c **** *   Change the ISR vector for the Interrupt. Note calling LED_ISR_Start
 182:Generated_Source\PSoC5/LED_ISR.c **** *   will override any effect this method would have had. To set the vector 
 183:Generated_Source\PSoC5/LED_ISR.c **** *   before the component has been started use LED_ISR_StartEx instead.
 184:Generated_Source\PSoC5/LED_ISR.c **** * 
 185:Generated_Source\PSoC5/LED_ISR.c **** *   When defining ISR functions, the CY_ISR and CY_ISR_PROTO macros should be 
 186:Generated_Source\PSoC5/LED_ISR.c **** *   used to provide consistent definition across compilers:
 187:Generated_Source\PSoC5/LED_ISR.c **** *
 188:Generated_Source\PSoC5/LED_ISR.c **** *   Function definition example:
 189:Generated_Source\PSoC5/LED_ISR.c **** *   CY_ISR(MyISR)
 190:Generated_Source\PSoC5/LED_ISR.c **** *   {
 191:Generated_Source\PSoC5/LED_ISR.c **** *   }
 192:Generated_Source\PSoC5/LED_ISR.c **** *
 193:Generated_Source\PSoC5/LED_ISR.c **** *   Function prototype example:
 194:Generated_Source\PSoC5/LED_ISR.c **** *     CY_ISR_PROTO(MyISR);
 195:Generated_Source\PSoC5/LED_ISR.c **** *
 196:Generated_Source\PSoC5/LED_ISR.c **** * Parameters:
 197:Generated_Source\PSoC5/LED_ISR.c **** *   address: Address of the ISR to set in the interrupt vector table.
 198:Generated_Source\PSoC5/LED_ISR.c **** *
 199:Generated_Source\PSoC5/LED_ISR.c **** * Return:
 200:Generated_Source\PSoC5/LED_ISR.c **** *   None
 201:Generated_Source\PSoC5/LED_ISR.c **** *
 202:Generated_Source\PSoC5/LED_ISR.c **** *******************************************************************************/
 203:Generated_Source\PSoC5/LED_ISR.c **** void LED_ISR_SetVector(cyisraddress address)
 204:Generated_Source\PSoC5/LED_ISR.c **** {
 169              		.loc 1 204 0
 170              		.cfi_startproc
 171              		@ args = 0, pretend = 0, frame = 16
 172              		@ frame_needed = 1, uses_anonymous_args = 0
 173              		@ link register save eliminated.
 174 0000 80B4     		push	{r7}
 175              		.cfi_def_cfa_offset 4
 176              		.cfi_offset 7, -4
 177 0002 85B0     		sub	sp, sp, #20
 178              		.cfi_def_cfa_offset 24
 179 0004 00AF     		add	r7, sp, #0
 180              		.cfi_def_cfa_register 7
 181 0006 7860     		str	r0, [r7, #4]
 205:Generated_Source\PSoC5/LED_ISR.c ****     cyisraddress * ramVectorTable;
 206:Generated_Source\PSoC5/LED_ISR.c **** 
 207:Generated_Source\PSoC5/LED_ISR.c ****     ramVectorTable = (cyisraddress *) *CYINT_VECT_TABLE;
 182              		.loc 1 207 0
 183 0008 054B     		ldr	r3, .L10
 184 000a 1B68     		ldr	r3, [r3]
 185 000c FB60     		str	r3, [r7, #12]
 208:Generated_Source\PSoC5/LED_ISR.c **** 
 209:Generated_Source\PSoC5/LED_ISR.c ****     ramVectorTable[CYINT_IRQ_BASE + (uint32)LED_ISR__INTC_NUMBER] = address;
 186              		.loc 1 209 0
 187 000e FB68     		ldr	r3, [r7, #12]
 188 0010 4033     		adds	r3, r3, #64
 189 0012 7A68     		ldr	r2, [r7, #4]
 190 0014 1A60     		str	r2, [r3]
ARM GAS  C:\Users\MARTHN~1\AppData\Local\Temp\ccjmYZlA.s 			page 8


 210:Generated_Source\PSoC5/LED_ISR.c **** }
 191              		.loc 1 210 0
 192 0016 00BF     		nop
 193 0018 1437     		adds	r7, r7, #20
 194              		.cfi_def_cfa_offset 4
 195 001a BD46     		mov	sp, r7
 196              		.cfi_def_cfa_register 13
 197              		@ sp needed
 198 001c 80BC     		pop	{r7}
 199              		.cfi_restore 7
 200              		.cfi_def_cfa_offset 0
 201 001e 7047     		bx	lr
 202              	.L11:
 203              		.align	2
 204              	.L10:
 205 0020 08ED00E0 		.word	-536810232
 206              		.cfi_endproc
 207              	.LFE4:
 208              		.size	LED_ISR_SetVector, .-LED_ISR_SetVector
 209              		.section	.text.LED_ISR_GetVector,"ax",%progbits
 210              		.align	2
 211              		.global	LED_ISR_GetVector
 212              		.thumb
 213              		.thumb_func
 214              		.type	LED_ISR_GetVector, %function
 215              	LED_ISR_GetVector:
 216              	.LFB5:
 211:Generated_Source\PSoC5/LED_ISR.c **** 
 212:Generated_Source\PSoC5/LED_ISR.c **** 
 213:Generated_Source\PSoC5/LED_ISR.c **** /*******************************************************************************
 214:Generated_Source\PSoC5/LED_ISR.c **** * Function Name: LED_ISR_GetVector
 215:Generated_Source\PSoC5/LED_ISR.c **** ********************************************************************************
 216:Generated_Source\PSoC5/LED_ISR.c **** *
 217:Generated_Source\PSoC5/LED_ISR.c **** * Summary:
 218:Generated_Source\PSoC5/LED_ISR.c **** *   Gets the "address" of the current ISR vector for the Interrupt.
 219:Generated_Source\PSoC5/LED_ISR.c **** *
 220:Generated_Source\PSoC5/LED_ISR.c **** * Parameters:
 221:Generated_Source\PSoC5/LED_ISR.c **** *   None
 222:Generated_Source\PSoC5/LED_ISR.c **** *
 223:Generated_Source\PSoC5/LED_ISR.c **** * Return:
 224:Generated_Source\PSoC5/LED_ISR.c **** *   Address of the ISR in the interrupt vector table.
 225:Generated_Source\PSoC5/LED_ISR.c **** *
 226:Generated_Source\PSoC5/LED_ISR.c **** *******************************************************************************/
 227:Generated_Source\PSoC5/LED_ISR.c **** cyisraddress LED_ISR_GetVector(void)
 228:Generated_Source\PSoC5/LED_ISR.c **** {
 217              		.loc 1 228 0
 218              		.cfi_startproc
 219              		@ args = 0, pretend = 0, frame = 8
 220              		@ frame_needed = 1, uses_anonymous_args = 0
 221              		@ link register save eliminated.
 222 0000 80B4     		push	{r7}
 223              		.cfi_def_cfa_offset 4
 224              		.cfi_offset 7, -4
 225 0002 83B0     		sub	sp, sp, #12
 226              		.cfi_def_cfa_offset 16
 227 0004 00AF     		add	r7, sp, #0
 228              		.cfi_def_cfa_register 7
ARM GAS  C:\Users\MARTHN~1\AppData\Local\Temp\ccjmYZlA.s 			page 9


 229:Generated_Source\PSoC5/LED_ISR.c ****     cyisraddress * ramVectorTable;
 230:Generated_Source\PSoC5/LED_ISR.c **** 
 231:Generated_Source\PSoC5/LED_ISR.c ****     ramVectorTable = (cyisraddress *) *CYINT_VECT_TABLE;
 229              		.loc 1 231 0
 230 0006 054B     		ldr	r3, .L14
 231 0008 1B68     		ldr	r3, [r3]
 232 000a 7B60     		str	r3, [r7, #4]
 232:Generated_Source\PSoC5/LED_ISR.c **** 
 233:Generated_Source\PSoC5/LED_ISR.c ****     return ramVectorTable[CYINT_IRQ_BASE + (uint32)LED_ISR__INTC_NUMBER];
 233              		.loc 1 233 0
 234 000c 7B68     		ldr	r3, [r7, #4]
 235 000e 1B6C     		ldr	r3, [r3, #64]
 234:Generated_Source\PSoC5/LED_ISR.c **** }
 236              		.loc 1 234 0
 237 0010 1846     		mov	r0, r3
 238 0012 0C37     		adds	r7, r7, #12
 239              		.cfi_def_cfa_offset 4
 240 0014 BD46     		mov	sp, r7
 241              		.cfi_def_cfa_register 13
 242              		@ sp needed
 243 0016 80BC     		pop	{r7}
 244              		.cfi_restore 7
 245              		.cfi_def_cfa_offset 0
 246 0018 7047     		bx	lr
 247              	.L15:
 248 001a 00BF     		.align	2
 249              	.L14:
 250 001c 08ED00E0 		.word	-536810232
 251              		.cfi_endproc
 252              	.LFE5:
 253              		.size	LED_ISR_GetVector, .-LED_ISR_GetVector
 254              		.section	.text.LED_ISR_SetPriority,"ax",%progbits
 255              		.align	2
 256              		.global	LED_ISR_SetPriority
 257              		.thumb
 258              		.thumb_func
 259              		.type	LED_ISR_SetPriority, %function
 260              	LED_ISR_SetPriority:
 261              	.LFB6:
 235:Generated_Source\PSoC5/LED_ISR.c **** 
 236:Generated_Source\PSoC5/LED_ISR.c **** 
 237:Generated_Source\PSoC5/LED_ISR.c **** /*******************************************************************************
 238:Generated_Source\PSoC5/LED_ISR.c **** * Function Name: LED_ISR_SetPriority
 239:Generated_Source\PSoC5/LED_ISR.c **** ********************************************************************************
 240:Generated_Source\PSoC5/LED_ISR.c **** *
 241:Generated_Source\PSoC5/LED_ISR.c **** * Summary:
 242:Generated_Source\PSoC5/LED_ISR.c **** *   Sets the Priority of the Interrupt. 
 243:Generated_Source\PSoC5/LED_ISR.c **** *
 244:Generated_Source\PSoC5/LED_ISR.c **** *   Note calling LED_ISR_Start or LED_ISR_StartEx will 
 245:Generated_Source\PSoC5/LED_ISR.c **** *   override any effect this API would have had. This API should only be called
 246:Generated_Source\PSoC5/LED_ISR.c **** *   after LED_ISR_Start or LED_ISR_StartEx has been called. 
 247:Generated_Source\PSoC5/LED_ISR.c **** *   To set the initial priority for the component, use the Design-Wide Resources
 248:Generated_Source\PSoC5/LED_ISR.c **** *   Interrupt Editor.
 249:Generated_Source\PSoC5/LED_ISR.c **** *
 250:Generated_Source\PSoC5/LED_ISR.c **** *   Note This API has no effect on Non-maskable interrupt NMI).
 251:Generated_Source\PSoC5/LED_ISR.c **** *
 252:Generated_Source\PSoC5/LED_ISR.c **** * Parameters:
ARM GAS  C:\Users\MARTHN~1\AppData\Local\Temp\ccjmYZlA.s 			page 10


 253:Generated_Source\PSoC5/LED_ISR.c **** *   priority: Priority of the interrupt, 0 being the highest priority
 254:Generated_Source\PSoC5/LED_ISR.c **** *             PSoC 3 and PSoC 5LP: Priority is from 0 to 7.
 255:Generated_Source\PSoC5/LED_ISR.c **** *             PSoC 4: Priority is from 0 to 3.
 256:Generated_Source\PSoC5/LED_ISR.c **** *
 257:Generated_Source\PSoC5/LED_ISR.c **** * Return:
 258:Generated_Source\PSoC5/LED_ISR.c **** *   None
 259:Generated_Source\PSoC5/LED_ISR.c **** *
 260:Generated_Source\PSoC5/LED_ISR.c **** *******************************************************************************/
 261:Generated_Source\PSoC5/LED_ISR.c **** void LED_ISR_SetPriority(uint8 priority)
 262:Generated_Source\PSoC5/LED_ISR.c **** {
 262              		.loc 1 262 0
 263              		.cfi_startproc
 264              		@ args = 0, pretend = 0, frame = 8
 265              		@ frame_needed = 1, uses_anonymous_args = 0
 266              		@ link register save eliminated.
 267 0000 80B4     		push	{r7}
 268              		.cfi_def_cfa_offset 4
 269              		.cfi_offset 7, -4
 270 0002 83B0     		sub	sp, sp, #12
 271              		.cfi_def_cfa_offset 16
 272 0004 00AF     		add	r7, sp, #0
 273              		.cfi_def_cfa_register 7
 274 0006 0346     		mov	r3, r0
 275 0008 FB71     		strb	r3, [r7, #7]
 263:Generated_Source\PSoC5/LED_ISR.c ****     *LED_ISR_INTC_PRIOR = priority << 5;
 276              		.loc 1 263 0
 277 000a 054A     		ldr	r2, .L17
 278 000c FB79     		ldrb	r3, [r7, #7]
 279 000e 5B01     		lsls	r3, r3, #5
 280 0010 DBB2     		uxtb	r3, r3
 281 0012 1370     		strb	r3, [r2]
 264:Generated_Source\PSoC5/LED_ISR.c **** }
 282              		.loc 1 264 0
 283 0014 00BF     		nop
 284 0016 0C37     		adds	r7, r7, #12
 285              		.cfi_def_cfa_offset 4
 286 0018 BD46     		mov	sp, r7
 287              		.cfi_def_cfa_register 13
 288              		@ sp needed
 289 001a 80BC     		pop	{r7}
 290              		.cfi_restore 7
 291              		.cfi_def_cfa_offset 0
 292 001c 7047     		bx	lr
 293              	.L18:
 294 001e 00BF     		.align	2
 295              	.L17:
 296 0020 00E400E0 		.word	-536812544
 297              		.cfi_endproc
 298              	.LFE6:
 299              		.size	LED_ISR_SetPriority, .-LED_ISR_SetPriority
 300              		.section	.text.LED_ISR_GetPriority,"ax",%progbits
 301              		.align	2
 302              		.global	LED_ISR_GetPriority
 303              		.thumb
 304              		.thumb_func
 305              		.type	LED_ISR_GetPriority, %function
 306              	LED_ISR_GetPriority:
ARM GAS  C:\Users\MARTHN~1\AppData\Local\Temp\ccjmYZlA.s 			page 11


 307              	.LFB7:
 265:Generated_Source\PSoC5/LED_ISR.c **** 
 266:Generated_Source\PSoC5/LED_ISR.c **** 
 267:Generated_Source\PSoC5/LED_ISR.c **** /*******************************************************************************
 268:Generated_Source\PSoC5/LED_ISR.c **** * Function Name: LED_ISR_GetPriority
 269:Generated_Source\PSoC5/LED_ISR.c **** ********************************************************************************
 270:Generated_Source\PSoC5/LED_ISR.c **** *
 271:Generated_Source\PSoC5/LED_ISR.c **** * Summary:
 272:Generated_Source\PSoC5/LED_ISR.c **** *   Gets the Priority of the Interrupt.
 273:Generated_Source\PSoC5/LED_ISR.c **** *
 274:Generated_Source\PSoC5/LED_ISR.c **** * Parameters:
 275:Generated_Source\PSoC5/LED_ISR.c **** *   None
 276:Generated_Source\PSoC5/LED_ISR.c **** *
 277:Generated_Source\PSoC5/LED_ISR.c **** * Return:
 278:Generated_Source\PSoC5/LED_ISR.c **** *   Priority of the interrupt, 0 being the highest priority
 279:Generated_Source\PSoC5/LED_ISR.c **** *    PSoC 3 and PSoC 5LP: Priority is from 0 to 7.
 280:Generated_Source\PSoC5/LED_ISR.c **** *    PSoC 4: Priority is from 0 to 3.
 281:Generated_Source\PSoC5/LED_ISR.c **** *
 282:Generated_Source\PSoC5/LED_ISR.c **** *******************************************************************************/
 283:Generated_Source\PSoC5/LED_ISR.c **** uint8 LED_ISR_GetPriority(void)
 284:Generated_Source\PSoC5/LED_ISR.c **** {
 308              		.loc 1 284 0
 309              		.cfi_startproc
 310              		@ args = 0, pretend = 0, frame = 8
 311              		@ frame_needed = 1, uses_anonymous_args = 0
 312              		@ link register save eliminated.
 313 0000 80B4     		push	{r7}
 314              		.cfi_def_cfa_offset 4
 315              		.cfi_offset 7, -4
 316 0002 83B0     		sub	sp, sp, #12
 317              		.cfi_def_cfa_offset 16
 318 0004 00AF     		add	r7, sp, #0
 319              		.cfi_def_cfa_register 7
 285:Generated_Source\PSoC5/LED_ISR.c ****     uint8 priority;
 286:Generated_Source\PSoC5/LED_ISR.c **** 
 287:Generated_Source\PSoC5/LED_ISR.c **** 
 288:Generated_Source\PSoC5/LED_ISR.c ****     priority = *LED_ISR_INTC_PRIOR >> 5;
 320              		.loc 1 288 0
 321 0006 054B     		ldr	r3, .L21
 322 0008 1B78     		ldrb	r3, [r3]
 323 000a DBB2     		uxtb	r3, r3
 324 000c 5B09     		lsrs	r3, r3, #5
 325 000e FB71     		strb	r3, [r7, #7]
 289:Generated_Source\PSoC5/LED_ISR.c **** 
 290:Generated_Source\PSoC5/LED_ISR.c ****     return priority;
 326              		.loc 1 290 0
 327 0010 FB79     		ldrb	r3, [r7, #7]	@ zero_extendqisi2
 291:Generated_Source\PSoC5/LED_ISR.c **** }
 328              		.loc 1 291 0
 329 0012 1846     		mov	r0, r3
 330 0014 0C37     		adds	r7, r7, #12
 331              		.cfi_def_cfa_offset 4
 332 0016 BD46     		mov	sp, r7
 333              		.cfi_def_cfa_register 13
 334              		@ sp needed
 335 0018 80BC     		pop	{r7}
 336              		.cfi_restore 7
ARM GAS  C:\Users\MARTHN~1\AppData\Local\Temp\ccjmYZlA.s 			page 12


 337              		.cfi_def_cfa_offset 0
 338 001a 7047     		bx	lr
 339              	.L22:
 340              		.align	2
 341              	.L21:
 342 001c 00E400E0 		.word	-536812544
 343              		.cfi_endproc
 344              	.LFE7:
 345              		.size	LED_ISR_GetPriority, .-LED_ISR_GetPriority
 346              		.section	.text.LED_ISR_Enable,"ax",%progbits
 347              		.align	2
 348              		.global	LED_ISR_Enable
 349              		.thumb
 350              		.thumb_func
 351              		.type	LED_ISR_Enable, %function
 352              	LED_ISR_Enable:
 353              	.LFB8:
 292:Generated_Source\PSoC5/LED_ISR.c **** 
 293:Generated_Source\PSoC5/LED_ISR.c **** 
 294:Generated_Source\PSoC5/LED_ISR.c **** /*******************************************************************************
 295:Generated_Source\PSoC5/LED_ISR.c **** * Function Name: LED_ISR_Enable
 296:Generated_Source\PSoC5/LED_ISR.c **** ********************************************************************************
 297:Generated_Source\PSoC5/LED_ISR.c **** *
 298:Generated_Source\PSoC5/LED_ISR.c **** * Summary:
 299:Generated_Source\PSoC5/LED_ISR.c **** *   Enables the interrupt to the interrupt controller. Do not call this function
 300:Generated_Source\PSoC5/LED_ISR.c **** *   unless ISR_Start() has been called or the functionality of the ISR_Start() 
 301:Generated_Source\PSoC5/LED_ISR.c **** *   function, which sets the vector and the priority, has been called.
 302:Generated_Source\PSoC5/LED_ISR.c **** *
 303:Generated_Source\PSoC5/LED_ISR.c **** * Parameters:
 304:Generated_Source\PSoC5/LED_ISR.c **** *   None
 305:Generated_Source\PSoC5/LED_ISR.c **** *
 306:Generated_Source\PSoC5/LED_ISR.c **** * Return:
 307:Generated_Source\PSoC5/LED_ISR.c **** *   None
 308:Generated_Source\PSoC5/LED_ISR.c **** *
 309:Generated_Source\PSoC5/LED_ISR.c **** *******************************************************************************/
 310:Generated_Source\PSoC5/LED_ISR.c **** void LED_ISR_Enable(void)
 311:Generated_Source\PSoC5/LED_ISR.c **** {
 354              		.loc 1 311 0
 355              		.cfi_startproc
 356              		@ args = 0, pretend = 0, frame = 0
 357              		@ frame_needed = 1, uses_anonymous_args = 0
 358              		@ link register save eliminated.
 359 0000 80B4     		push	{r7}
 360              		.cfi_def_cfa_offset 4
 361              		.cfi_offset 7, -4
 362 0002 00AF     		add	r7, sp, #0
 363              		.cfi_def_cfa_register 7
 312:Generated_Source\PSoC5/LED_ISR.c ****     /* Enable the general interrupt. */
 313:Generated_Source\PSoC5/LED_ISR.c ****     *LED_ISR_INTC_SET_EN = LED_ISR__INTC_MASK;
 364              		.loc 1 313 0
 365 0004 034B     		ldr	r3, .L24
 366 0006 0122     		movs	r2, #1
 367 0008 1A60     		str	r2, [r3]
 314:Generated_Source\PSoC5/LED_ISR.c **** }
 368              		.loc 1 314 0
 369 000a 00BF     		nop
 370 000c BD46     		mov	sp, r7
ARM GAS  C:\Users\MARTHN~1\AppData\Local\Temp\ccjmYZlA.s 			page 13


 371              		.cfi_def_cfa_register 13
 372              		@ sp needed
 373 000e 80BC     		pop	{r7}
 374              		.cfi_restore 7
 375              		.cfi_def_cfa_offset 0
 376 0010 7047     		bx	lr
 377              	.L25:
 378 0012 00BF     		.align	2
 379              	.L24:
 380 0014 00E100E0 		.word	-536813312
 381              		.cfi_endproc
 382              	.LFE8:
 383              		.size	LED_ISR_Enable, .-LED_ISR_Enable
 384              		.section	.text.LED_ISR_GetState,"ax",%progbits
 385              		.align	2
 386              		.global	LED_ISR_GetState
 387              		.thumb
 388              		.thumb_func
 389              		.type	LED_ISR_GetState, %function
 390              	LED_ISR_GetState:
 391              	.LFB9:
 315:Generated_Source\PSoC5/LED_ISR.c **** 
 316:Generated_Source\PSoC5/LED_ISR.c **** 
 317:Generated_Source\PSoC5/LED_ISR.c **** /*******************************************************************************
 318:Generated_Source\PSoC5/LED_ISR.c **** * Function Name: LED_ISR_GetState
 319:Generated_Source\PSoC5/LED_ISR.c **** ********************************************************************************
 320:Generated_Source\PSoC5/LED_ISR.c **** *
 321:Generated_Source\PSoC5/LED_ISR.c **** * Summary:
 322:Generated_Source\PSoC5/LED_ISR.c **** *   Gets the state (enabled, disabled) of the Interrupt.
 323:Generated_Source\PSoC5/LED_ISR.c **** *
 324:Generated_Source\PSoC5/LED_ISR.c **** * Parameters:
 325:Generated_Source\PSoC5/LED_ISR.c **** *   None
 326:Generated_Source\PSoC5/LED_ISR.c **** *
 327:Generated_Source\PSoC5/LED_ISR.c **** * Return:
 328:Generated_Source\PSoC5/LED_ISR.c **** *   1 if enabled, 0 if disabled.
 329:Generated_Source\PSoC5/LED_ISR.c **** *
 330:Generated_Source\PSoC5/LED_ISR.c **** *******************************************************************************/
 331:Generated_Source\PSoC5/LED_ISR.c **** uint8 LED_ISR_GetState(void)
 332:Generated_Source\PSoC5/LED_ISR.c **** {
 392              		.loc 1 332 0
 393              		.cfi_startproc
 394              		@ args = 0, pretend = 0, frame = 0
 395              		@ frame_needed = 1, uses_anonymous_args = 0
 396              		@ link register save eliminated.
 397 0000 80B4     		push	{r7}
 398              		.cfi_def_cfa_offset 4
 399              		.cfi_offset 7, -4
 400 0002 00AF     		add	r7, sp, #0
 401              		.cfi_def_cfa_register 7
 333:Generated_Source\PSoC5/LED_ISR.c ****     /* Get the state of the general interrupt. */
 334:Generated_Source\PSoC5/LED_ISR.c ****     return ((*LED_ISR_INTC_SET_EN & (uint32)LED_ISR__INTC_MASK) != 0u) ? 1u:0u;
 402              		.loc 1 334 0
 403 0004 044B     		ldr	r3, .L28
 404 0006 1B68     		ldr	r3, [r3]
 405 0008 DBB2     		uxtb	r3, r3
 406 000a 03F00103 		and	r3, r3, #1
 407 000e DBB2     		uxtb	r3, r3
ARM GAS  C:\Users\MARTHN~1\AppData\Local\Temp\ccjmYZlA.s 			page 14


 335:Generated_Source\PSoC5/LED_ISR.c **** }
 408              		.loc 1 335 0
 409 0010 1846     		mov	r0, r3
 410 0012 BD46     		mov	sp, r7
 411              		.cfi_def_cfa_register 13
 412              		@ sp needed
 413 0014 80BC     		pop	{r7}
 414              		.cfi_restore 7
 415              		.cfi_def_cfa_offset 0
 416 0016 7047     		bx	lr
 417              	.L29:
 418              		.align	2
 419              	.L28:
 420 0018 00E100E0 		.word	-536813312
 421              		.cfi_endproc
 422              	.LFE9:
 423              		.size	LED_ISR_GetState, .-LED_ISR_GetState
 424              		.section	.text.LED_ISR_Disable,"ax",%progbits
 425              		.align	2
 426              		.global	LED_ISR_Disable
 427              		.thumb
 428              		.thumb_func
 429              		.type	LED_ISR_Disable, %function
 430              	LED_ISR_Disable:
 431              	.LFB10:
 336:Generated_Source\PSoC5/LED_ISR.c **** 
 337:Generated_Source\PSoC5/LED_ISR.c **** 
 338:Generated_Source\PSoC5/LED_ISR.c **** /*******************************************************************************
 339:Generated_Source\PSoC5/LED_ISR.c **** * Function Name: LED_ISR_Disable
 340:Generated_Source\PSoC5/LED_ISR.c **** ********************************************************************************
 341:Generated_Source\PSoC5/LED_ISR.c **** *
 342:Generated_Source\PSoC5/LED_ISR.c **** * Summary:
 343:Generated_Source\PSoC5/LED_ISR.c **** *   Disables the Interrupt in the interrupt controller.
 344:Generated_Source\PSoC5/LED_ISR.c **** *
 345:Generated_Source\PSoC5/LED_ISR.c **** * Parameters:
 346:Generated_Source\PSoC5/LED_ISR.c **** *   None
 347:Generated_Source\PSoC5/LED_ISR.c **** *
 348:Generated_Source\PSoC5/LED_ISR.c **** * Return:
 349:Generated_Source\PSoC5/LED_ISR.c **** *   None
 350:Generated_Source\PSoC5/LED_ISR.c **** *
 351:Generated_Source\PSoC5/LED_ISR.c **** *******************************************************************************/
 352:Generated_Source\PSoC5/LED_ISR.c **** void LED_ISR_Disable(void)
 353:Generated_Source\PSoC5/LED_ISR.c **** {
 432              		.loc 1 353 0
 433              		.cfi_startproc
 434              		@ args = 0, pretend = 0, frame = 0
 435              		@ frame_needed = 1, uses_anonymous_args = 0
 436              		@ link register save eliminated.
 437 0000 80B4     		push	{r7}
 438              		.cfi_def_cfa_offset 4
 439              		.cfi_offset 7, -4
 440 0002 00AF     		add	r7, sp, #0
 441              		.cfi_def_cfa_register 7
 354:Generated_Source\PSoC5/LED_ISR.c ****     /* Disable the general interrupt. */
 355:Generated_Source\PSoC5/LED_ISR.c ****     *LED_ISR_INTC_CLR_EN = LED_ISR__INTC_MASK;
 442              		.loc 1 355 0
 443 0004 034B     		ldr	r3, .L31
ARM GAS  C:\Users\MARTHN~1\AppData\Local\Temp\ccjmYZlA.s 			page 15


 444 0006 0122     		movs	r2, #1
 445 0008 1A60     		str	r2, [r3]
 356:Generated_Source\PSoC5/LED_ISR.c **** }
 446              		.loc 1 356 0
 447 000a 00BF     		nop
 448 000c BD46     		mov	sp, r7
 449              		.cfi_def_cfa_register 13
 450              		@ sp needed
 451 000e 80BC     		pop	{r7}
 452              		.cfi_restore 7
 453              		.cfi_def_cfa_offset 0
 454 0010 7047     		bx	lr
 455              	.L32:
 456 0012 00BF     		.align	2
 457              	.L31:
 458 0014 80E100E0 		.word	-536813184
 459              		.cfi_endproc
 460              	.LFE10:
 461              		.size	LED_ISR_Disable, .-LED_ISR_Disable
 462              		.section	.text.LED_ISR_SetPending,"ax",%progbits
 463              		.align	2
 464              		.global	LED_ISR_SetPending
 465              		.thumb
 466              		.thumb_func
 467              		.type	LED_ISR_SetPending, %function
 468              	LED_ISR_SetPending:
 469              	.LFB11:
 357:Generated_Source\PSoC5/LED_ISR.c **** 
 358:Generated_Source\PSoC5/LED_ISR.c **** 
 359:Generated_Source\PSoC5/LED_ISR.c **** /*******************************************************************************
 360:Generated_Source\PSoC5/LED_ISR.c **** * Function Name: LED_ISR_SetPending
 361:Generated_Source\PSoC5/LED_ISR.c **** ********************************************************************************
 362:Generated_Source\PSoC5/LED_ISR.c **** *
 363:Generated_Source\PSoC5/LED_ISR.c **** * Summary:
 364:Generated_Source\PSoC5/LED_ISR.c **** *   Causes the Interrupt to enter the pending state, a software method of
 365:Generated_Source\PSoC5/LED_ISR.c **** *   generating the interrupt.
 366:Generated_Source\PSoC5/LED_ISR.c **** *
 367:Generated_Source\PSoC5/LED_ISR.c **** * Parameters:
 368:Generated_Source\PSoC5/LED_ISR.c **** *   None
 369:Generated_Source\PSoC5/LED_ISR.c **** *
 370:Generated_Source\PSoC5/LED_ISR.c **** * Return:
 371:Generated_Source\PSoC5/LED_ISR.c **** *   None
 372:Generated_Source\PSoC5/LED_ISR.c **** *
 373:Generated_Source\PSoC5/LED_ISR.c **** * Side Effects:
 374:Generated_Source\PSoC5/LED_ISR.c **** *   If interrupts are enabled and the interrupt is set up properly, the ISR is
 375:Generated_Source\PSoC5/LED_ISR.c **** *   entered (depending on the priority of this interrupt and other pending 
 376:Generated_Source\PSoC5/LED_ISR.c **** *   interrupts).
 377:Generated_Source\PSoC5/LED_ISR.c **** *
 378:Generated_Source\PSoC5/LED_ISR.c **** *******************************************************************************/
 379:Generated_Source\PSoC5/LED_ISR.c **** void LED_ISR_SetPending(void)
 380:Generated_Source\PSoC5/LED_ISR.c **** {
 470              		.loc 1 380 0
 471              		.cfi_startproc
 472              		@ args = 0, pretend = 0, frame = 0
 473              		@ frame_needed = 1, uses_anonymous_args = 0
 474              		@ link register save eliminated.
 475 0000 80B4     		push	{r7}
ARM GAS  C:\Users\MARTHN~1\AppData\Local\Temp\ccjmYZlA.s 			page 16


 476              		.cfi_def_cfa_offset 4
 477              		.cfi_offset 7, -4
 478 0002 00AF     		add	r7, sp, #0
 479              		.cfi_def_cfa_register 7
 381:Generated_Source\PSoC5/LED_ISR.c ****     *LED_ISR_INTC_SET_PD = LED_ISR__INTC_MASK;
 480              		.loc 1 381 0
 481 0004 034B     		ldr	r3, .L34
 482 0006 0122     		movs	r2, #1
 483 0008 1A60     		str	r2, [r3]
 382:Generated_Source\PSoC5/LED_ISR.c **** }
 484              		.loc 1 382 0
 485 000a 00BF     		nop
 486 000c BD46     		mov	sp, r7
 487              		.cfi_def_cfa_register 13
 488              		@ sp needed
 489 000e 80BC     		pop	{r7}
 490              		.cfi_restore 7
 491              		.cfi_def_cfa_offset 0
 492 0010 7047     		bx	lr
 493              	.L35:
 494 0012 00BF     		.align	2
 495              	.L34:
 496 0014 00E200E0 		.word	-536813056
 497              		.cfi_endproc
 498              	.LFE11:
 499              		.size	LED_ISR_SetPending, .-LED_ISR_SetPending
 500              		.section	.text.LED_ISR_ClearPending,"ax",%progbits
 501              		.align	2
 502              		.global	LED_ISR_ClearPending
 503              		.thumb
 504              		.thumb_func
 505              		.type	LED_ISR_ClearPending, %function
 506              	LED_ISR_ClearPending:
 507              	.LFB12:
 383:Generated_Source\PSoC5/LED_ISR.c **** 
 384:Generated_Source\PSoC5/LED_ISR.c **** 
 385:Generated_Source\PSoC5/LED_ISR.c **** /*******************************************************************************
 386:Generated_Source\PSoC5/LED_ISR.c **** * Function Name: LED_ISR_ClearPending
 387:Generated_Source\PSoC5/LED_ISR.c **** ********************************************************************************
 388:Generated_Source\PSoC5/LED_ISR.c **** *
 389:Generated_Source\PSoC5/LED_ISR.c **** * Summary:
 390:Generated_Source\PSoC5/LED_ISR.c **** *   Clears a pending interrupt in the interrupt controller.
 391:Generated_Source\PSoC5/LED_ISR.c **** *
 392:Generated_Source\PSoC5/LED_ISR.c **** *   Note Some interrupt sources are clear-on-read and require the block 
 393:Generated_Source\PSoC5/LED_ISR.c **** *   interrupt/status register to be read/cleared with the appropriate block API 
 394:Generated_Source\PSoC5/LED_ISR.c **** *   (GPIO, UART, and so on). Otherwise the ISR will continue to remain in 
 395:Generated_Source\PSoC5/LED_ISR.c **** *   pending state even though the interrupt itself is cleared using this API.
 396:Generated_Source\PSoC5/LED_ISR.c **** *
 397:Generated_Source\PSoC5/LED_ISR.c **** * Parameters:
 398:Generated_Source\PSoC5/LED_ISR.c **** *   None
 399:Generated_Source\PSoC5/LED_ISR.c **** *
 400:Generated_Source\PSoC5/LED_ISR.c **** * Return:
 401:Generated_Source\PSoC5/LED_ISR.c **** *   None
 402:Generated_Source\PSoC5/LED_ISR.c **** *
 403:Generated_Source\PSoC5/LED_ISR.c **** *******************************************************************************/
 404:Generated_Source\PSoC5/LED_ISR.c **** void LED_ISR_ClearPending(void)
 405:Generated_Source\PSoC5/LED_ISR.c **** {
ARM GAS  C:\Users\MARTHN~1\AppData\Local\Temp\ccjmYZlA.s 			page 17


 508              		.loc 1 405 0
 509              		.cfi_startproc
 510              		@ args = 0, pretend = 0, frame = 0
 511              		@ frame_needed = 1, uses_anonymous_args = 0
 512              		@ link register save eliminated.
 513 0000 80B4     		push	{r7}
 514              		.cfi_def_cfa_offset 4
 515              		.cfi_offset 7, -4
 516 0002 00AF     		add	r7, sp, #0
 517              		.cfi_def_cfa_register 7
 406:Generated_Source\PSoC5/LED_ISR.c ****     *LED_ISR_INTC_CLR_PD = LED_ISR__INTC_MASK;
 518              		.loc 1 406 0
 519 0004 034B     		ldr	r3, .L37
 520 0006 0122     		movs	r2, #1
 521 0008 1A60     		str	r2, [r3]
 407:Generated_Source\PSoC5/LED_ISR.c **** }
 522              		.loc 1 407 0
 523 000a 00BF     		nop
 524 000c BD46     		mov	sp, r7
 525              		.cfi_def_cfa_register 13
 526              		@ sp needed
 527 000e 80BC     		pop	{r7}
 528              		.cfi_restore 7
 529              		.cfi_def_cfa_offset 0
 530 0010 7047     		bx	lr
 531              	.L38:
 532 0012 00BF     		.align	2
 533              	.L37:
 534 0014 80E200E0 		.word	-536812928
 535              		.cfi_endproc
 536              	.LFE12:
 537              		.size	LED_ISR_ClearPending, .-LED_ISR_ClearPending
 538              		.text
 539              	.Letext0:
 540              		.file 2 "Generated_Source\\PSoC5/cytypes.h"