ARM GAS  C:\Users\MARTHN~1\AppData\Local\Temp\ccemPNR2.s 			page 1


   1              		.syntax unified
   2              		.cpu cortex-m3
   3              		.fpu softvfp
   4              		.eabi_attribute 20, 1
   5              		.eabi_attribute 21, 1
   6              		.eabi_attribute 23, 3
   7              		.eabi_attribute 24, 1
   8              		.eabi_attribute 25, 1
   9              		.eabi_attribute 26, 1
  10              		.eabi_attribute 30, 6
  11              		.eabi_attribute 34, 1
  12              		.eabi_attribute 18, 4
  13              		.thumb
  14              		.syntax unified
  15              		.file	"main.c"
  16              		.text
  17              	.Ltext0:
  18              		.cfi_sections	.debug_frame
  19              		.bss
  20              	SelectedTest:
  21 0000 00       		.space	1
  22              		.section	.text.main,"ax",%progbits
  23              		.align	2
  24              		.global	main
  25              		.thumb
  26              		.thumb_func
  27              		.type	main, %function
  28              	main:
  29              	.LFB63:
  30              		.file 1 "main.c"
   1:main.c        **** /* ========================================
   2:main.c        ****  *
   3:main.c        ****  * Copyright YOUR COMPANY, THE YEAR
   4:main.c        ****  * All Rights Reserved
   5:main.c        ****  * UNPUBLISHED, LICENSED SOFTWARE.
   6:main.c        ****  *
   7:main.c        ****  * CONFIDENTIAL AND PROPRIETARY INFORMATION
   8:main.c        ****  * WHICH IS THE PROPERTY OF your company.
   9:main.c        ****  *
  10:main.c        ****  * ========================================
  11:main.c        **** */
  12:main.c        **** 
  13:main.c        **** // This firmare is meant to be run on the F1-Siren-REV02 board
  14:main.c        **** // It serves as a sandbox to develope test fixture firmware while waiting for hardware to arrive
  15:main.c        **** 
  16:main.c        **** /********************Version Changes***************************
  17:main.c        **** *
  18:main.c        **** *   Started test fixture firmware on 11-4-20
  19:main.c        **** *
  20:main.c        **** *   Initial commit to GitHub on 12-15-20
  21:main.c        **** *
  22:main.c        **** ***********************************************/
  23:main.c        **** 
  24:main.c        **** /**********PREPROCESSOR DIRECTIVES**********/
  25:main.c        **** #include <project.h>
  26:main.c        **** 
  27:main.c        **** #include "UART_230400.h"
ARM GAS  C:\Users\MARTHN~1\AppData\Local\Temp\ccemPNR2.s 			page 2


  28:main.c        **** #include "ControllerTest.h"
  29:main.c        **** #include "RelayTest.h"
  30:main.c        **** #include "SirenTest.h"
  31:main.c        **** 
  32:main.c        **** #include "isr_Timer_Quick.h"
  33:main.c        **** 
  34:main.c        **** //#define TIMEOUT 100
  35:main.c        **** 
  36:main.c        **** 
  37:main.c        **** 
  38:main.c        **** /**********DEFINED CONSTANTS**********/
  39:main.c        **** 
  40:main.c        **** //#define CTEST
  41:main.c        **** enum DataType
  42:main.c        **** { 
  43:main.c        ****     CTEST, 
  44:main.c        ****     RTEST,
  45:main.c        ****     STEST
  46:main.c        **** };
  47:main.c        **** 
  48:main.c        **** /**********DATA STRUCTURES**********/
  49:main.c        **** 
  50:main.c        **** /**********GLOBAL VARIABLES**********/
  51:main.c        **** static uint8 SelectedTest = 0;
  52:main.c        **** 
  53:main.c        **** /**********FUNCTION PROTOTYPES**********/
  54:main.c        **** static void initializePeripherals(void);
  55:main.c        **** 
  56:main.c        **** //uint8 Timer_Quick_INT_GetFlag(void);
  57:main.c        **** //void Timer_Quick_INT_ClearFlag(void);
  58:main.c        **** void StartTimeout(void);
  59:main.c        **** void StopTimeout(void);
  60:main.c        **** void ProcessFailure(void);
  61:main.c        **** 
  62:main.c        **** /**********DEFINED FUNCTIONS**********/
  63:main.c        **** 
  64:main.c        **** int main()
  65:main.c        **** {
  31              		.loc 1 65 0
  32              		.cfi_startproc
  33              		@ args = 0, pretend = 0, frame = 0
  34              		@ frame_needed = 1, uses_anonymous_args = 0
  35 0000 80B5     		push	{r7, lr}
  36              		.cfi_def_cfa_offset 8
  37              		.cfi_offset 7, -8
  38              		.cfi_offset 14, -4
  39 0002 00AF     		add	r7, sp, #0
  40              		.cfi_def_cfa_register 7
  66:main.c        ****     initializePeripherals();
  41              		.loc 1 66 0
  42 0004 FFF7FEFF 		bl	initializePeripherals
  67:main.c        ****     CyGlobalIntEnable; /* Enable global interrupts. */
  43              		.loc 1 67 0
  44              		.syntax unified
  45              	@ 67 "main.c" 1
  46 0008 62B6     		CPSIE   i
  47              	@ 0 "" 2
ARM GAS  C:\Users\MARTHN~1\AppData\Local\Temp\ccemPNR2.s 			page 3


  48              		.thumb
  49              		.syntax unified
  50              	.L5:
  68:main.c        ****     
  69:main.c        **** //    MUX_CTRL_230400_Write(1);
  70:main.c        **** //    while(1);
  71:main.c        **** 
  72:main.c        ****     for(;;)
  73:main.c        ****     {     
  74:main.c        ****         SelectedTest = RTEST;
  51              		.loc 1 74 0
  52 000a 084B     		ldr	r3, .L6
  53 000c 0122     		movs	r2, #1
  54 000e 1A70     		strb	r2, [r3]
  75:main.c        ****         
  76:main.c        ****         //sendDiagPacket();
  77:main.c        ****         
  78:main.c        ****         switch(SelectedTest)
  55              		.loc 1 78 0
  56 0010 064B     		ldr	r3, .L6
  57 0012 1B78     		ldrb	r3, [r3]	@ zero_extendqisi2
  58 0014 002B     		cmp	r3, #0
  59 0016 02D0     		beq	.L3
  60 0018 012B     		cmp	r3, #1
  61 001a 03D0     		beq	.L4
  62 001c 05E0     		b	.L2
  63              	.L3:
  79:main.c        ****         {
  80:main.c        ****             case 0:
  81:main.c        ****             
  82:main.c        ****                 ControllerTest();
  64              		.loc 1 82 0
  65 001e FFF7FEFF 		bl	ControllerTest
  83:main.c        **** 
  84:main.c        ****             break;
  66              		.loc 1 84 0
  67 0022 02E0     		b	.L2
  68              	.L4:
  85:main.c        ****                 
  86:main.c        ****             case RTEST:
  87:main.c        ****             
  88:main.c        ****                 RelayTest();
  69              		.loc 1 88 0
  70 0024 FFF7FEFF 		bl	RelayTest
  89:main.c        **** 
  90:main.c        ****             break;         
  71              		.loc 1 90 0
  72 0028 00BF     		nop
  73              	.L2:
  91:main.c        ****         }
  92:main.c        ****             
  93:main.c        ****     }
  74              		.loc 1 93 0
  75 002a EEE7     		b	.L5
  76              	.L7:
  77              		.align	2
  78              	.L6:
ARM GAS  C:\Users\MARTHN~1\AppData\Local\Temp\ccemPNR2.s 			page 4


  79 002c 00000000 		.word	SelectedTest
  80              		.cfi_endproc
  81              	.LFE63:
  82              		.size	main, .-main
  83              		.section	.text.initializePeripherals,"ax",%progbits
  84              		.align	2
  85              		.thumb
  86              		.thumb_func
  87              		.type	initializePeripherals, %function
  88              	initializePeripherals:
  89              	.LFB64:
  94:main.c        ****     
  95:main.c        **** }
  96:main.c        **** 
  97:main.c        **** /*******************************************************************************
  98:main.c        **** * Function Name: initializePeripherals
  99:main.c        **** ********************************************************************************
 100:main.c        **** *
 101:main.c        **** * Summary:
 102:main.c        **** *  Sets up the watchdog timer, disables, power amplifiers, and enables all ISRs
 103:main.c        **** *
 104:main.c        **** * Parameters:  
 105:main.c        **** *   None
 106:main.c        **** *
 107:main.c        **** * Return:
 108:main.c        **** *   None
 109:main.c        **** *
 110:main.c        **** *******************************************************************************/
 111:main.c        **** static void initializePeripherals(void)
 112:main.c        **** {
  90              		.loc 1 112 0
  91              		.cfi_startproc
  92              		@ args = 0, pretend = 0, frame = 0
  93              		@ frame_needed = 1, uses_anonymous_args = 0
  94 0000 80B5     		push	{r7, lr}
  95              		.cfi_def_cfa_offset 8
  96              		.cfi_offset 7, -8
  97              		.cfi_offset 14, -4
  98 0002 00AF     		add	r7, sp, #0
  99              		.cfi_def_cfa_register 7
 113:main.c        ****     
 114:main.c        ****     RS485_RX_EN_Write(1);                       // *** for testing with siren board only
 100              		.loc 1 114 0
 101 0004 0120     		movs	r0, #1
 102 0006 FFF7FEFF 		bl	RS485_RX_EN_Write
 115:main.c        ****     
 116:main.c        ****     //----------Start UART_460800--------
 117:main.c        ****     UART_460800_Start();    
 103              		.loc 1 117 0
 104 000a FFF7FEFF 		bl	UART_460800_Start
 118:main.c        ****     isr_UART_460800_Start();
 105              		.loc 1 118 0
 106 000e FFF7FEFF 		bl	isr_UART_460800_Start
 119:main.c        ****     //----------Start UART_230400--------
 120:main.c        ****     UART_230400_Start();    
 107              		.loc 1 120 0
 108 0012 FFF7FEFF 		bl	UART_230400_Start
ARM GAS  C:\Users\MARTHN~1\AppData\Local\Temp\ccemPNR2.s 			page 5


 121:main.c        ****     isr_UART_230400_Start();
 109              		.loc 1 121 0
 110 0016 FFF7FEFF 		bl	isr_UART_230400_Start
 122:main.c        ****     //----------Start UART_115200--------
 123:main.c        **** //    UART_115200_Start();    
 124:main.c        **** //    isr_UART_115200_Start();
 125:main.c        ****     //----------Start UART_9600----------
 126:main.c        **** //    UART_9600_Start();    
 127:main.c        **** //    isr_UART_9600_Start();
 128:main.c        **** 
 129:main.c        ****     
 130:main.c        ****     //-----------------------------------
 131:main.c        ****     
 132:main.c        ****     Timer_50ms_Start();
 111              		.loc 1 132 0
 112 001a FFF7FEFF 		bl	Timer_50ms_Start
 133:main.c        ****     isr_Timer_50ms_Start();
 113              		.loc 1 133 0
 114 001e FFF7FEFF 		bl	isr_Timer_50ms_Start
 134:main.c        ****     
 135:main.c        ****     Timer_20ms_Start();
 115              		.loc 1 135 0
 116 0022 FFF7FEFF 		bl	Timer_20ms_Start
 136:main.c        ****     isr_Timer_20ms_Start();
 117              		.loc 1 136 0
 118 0026 FFF7FEFF 		bl	isr_Timer_20ms_Start
 137:main.c        ****     
 138:main.c        ****     Timer_10ms_Start();
 119              		.loc 1 138 0
 120 002a FFF7FEFF 		bl	Timer_10ms_Start
 139:main.c        ****     isr_Timer_10ms_Start();
 121              		.loc 1 139 0
 122 002e FFF7FEFF 		bl	isr_Timer_10ms_Start
 140:main.c        **** 
 141:main.c        ****     return;
 123              		.loc 1 141 0
 124 0032 00BF     		nop
 142:main.c        **** }
 125              		.loc 1 142 0
 126 0034 80BD     		pop	{r7, pc}
 127              		.cfi_endproc
 128              	.LFE64:
 129              		.size	initializePeripherals, .-initializePeripherals
 130 0036 00BF     		.section	.text.StartTimeout,"ax",%progbits
 131              		.align	2
 132              		.global	StartTimeout
 133              		.thumb
 134              		.thumb_func
 135              		.type	StartTimeout, %function
 136              	StartTimeout:
 137              	.LFB65:
 143:main.c        **** 
 144:main.c        **** void StartTimeout(void)
 145:main.c        **** {
 138              		.loc 1 145 0
 139              		.cfi_startproc
 140              		@ args = 0, pretend = 0, frame = 0
ARM GAS  C:\Users\MARTHN~1\AppData\Local\Temp\ccemPNR2.s 			page 6


 141              		@ frame_needed = 1, uses_anonymous_args = 0
 142              		@ link register save eliminated.
 143 0000 80B4     		push	{r7}
 144              		.cfi_def_cfa_offset 4
 145              		.cfi_offset 7, -4
 146 0002 00AF     		add	r7, sp, #0
 147              		.cfi_def_cfa_register 7
 146:main.c        ****     
 147:main.c        **** 
 148:main.c        ****     return;
 148              		.loc 1 148 0
 149 0004 00BF     		nop
 149:main.c        **** }
 150              		.loc 1 149 0
 151 0006 BD46     		mov	sp, r7
 152              		.cfi_def_cfa_register 13
 153              		@ sp needed
 154 0008 80BC     		pop	{r7}
 155              		.cfi_restore 7
 156              		.cfi_def_cfa_offset 0
 157 000a 7047     		bx	lr
 158              		.cfi_endproc
 159              	.LFE65:
 160              		.size	StartTimeout, .-StartTimeout
 161              		.section	.text.StopTimeout,"ax",%progbits
 162              		.align	2
 163              		.global	StopTimeout
 164              		.thumb
 165              		.thumb_func
 166              		.type	StopTimeout, %function
 167              	StopTimeout:
 168              	.LFB66:
 150:main.c        **** 
 151:main.c        **** void StopTimeout(void)
 152:main.c        **** {
 169              		.loc 1 152 0
 170              		.cfi_startproc
 171              		@ args = 0, pretend = 0, frame = 0
 172              		@ frame_needed = 1, uses_anonymous_args = 0
 173              		@ link register save eliminated.
 174 0000 80B4     		push	{r7}
 175              		.cfi_def_cfa_offset 4
 176              		.cfi_offset 7, -4
 177 0002 00AF     		add	r7, sp, #0
 178              		.cfi_def_cfa_register 7
 153:main.c        **** 
 154:main.c        **** 
 155:main.c        ****     return;
 179              		.loc 1 155 0
 180 0004 00BF     		nop
 156:main.c        **** }
 181              		.loc 1 156 0
 182 0006 BD46     		mov	sp, r7
 183              		.cfi_def_cfa_register 13
 184              		@ sp needed
 185 0008 80BC     		pop	{r7}
 186              		.cfi_restore 7
ARM GAS  C:\Users\MARTHN~1\AppData\Local\Temp\ccemPNR2.s 			page 7


 187              		.cfi_def_cfa_offset 0
 188 000a 7047     		bx	lr
 189              		.cfi_endproc
 190              	.LFE66:
 191              		.size	StopTimeout, .-StopTimeout
 192              		.text
 193              	.Letext0:
 194              		.file 2 "c:\\program files (x86)\\cypress\\psoc creator\\4.3\\psoc creator\\import\\gnu\\arm\\5.4.
 195              		.file 3 "c:\\program files (x86)\\cypress\\psoc creator\\4.3\\psoc creator\\import\\gnu\\arm\\5.4.
 196              		.file 4 "Generated_Source\\PSoC5/cytypes.h"
 197              		.file 5 "Generated_Source\\PSoC5/core_cm3.h"