ARM GAS  C:\Users\kylep\AppData\Local\Temp\cc4o752d.s 			page 1


   1              		.syntax unified
   2              		.cpu cortex-m3
   3              		.fpu softvfp
   4              		.eabi_attribute 20, 1
   5              		.eabi_attribute 21, 1
   6              		.eabi_attribute 23, 3
   7              		.eabi_attribute 24, 1
   8              		.eabi_attribute 25, 1
   9              		.eabi_attribute 26, 1
  10              		.eabi_attribute 30, 6
  11              		.eabi_attribute 34, 1
  12              		.eabi_attribute 18, 4
  13              		.thumb
  14              		.syntax unified
  15              		.file	"PWMtimer2_ISR.c"
  16              		.text
  17              	.Ltext0:
  18              		.cfi_sections	.debug_frame
  19              		.section	.text.PWMtimer2_ISR_Start,"ax",%progbits
  20              		.align	2
  21              		.global	PWMtimer2_ISR_Start
  22              		.thumb
  23              		.thumb_func
  24              		.type	PWMtimer2_ISR_Start, %function
  25              	PWMtimer2_ISR_Start:
  26              	.LFB63:
  27              		.file 1 "Generated_Source\\PSoC5\\PWMtimer2_ISR.c"
   1:Generated_Source\PSoC5/PWMtimer2_ISR.c **** /*******************************************************************************
   2:Generated_Source\PSoC5/PWMtimer2_ISR.c **** * File Name: PWMtimer2_ISR.c  
   3:Generated_Source\PSoC5/PWMtimer2_ISR.c **** * Version 1.70
   4:Generated_Source\PSoC5/PWMtimer2_ISR.c **** *
   5:Generated_Source\PSoC5/PWMtimer2_ISR.c **** *  Description:
   6:Generated_Source\PSoC5/PWMtimer2_ISR.c **** *   API for controlling the state of an interrupt.
   7:Generated_Source\PSoC5/PWMtimer2_ISR.c **** *
   8:Generated_Source\PSoC5/PWMtimer2_ISR.c **** *
   9:Generated_Source\PSoC5/PWMtimer2_ISR.c **** *  Note:
  10:Generated_Source\PSoC5/PWMtimer2_ISR.c **** *
  11:Generated_Source\PSoC5/PWMtimer2_ISR.c **** ********************************************************************************
  12:Generated_Source\PSoC5/PWMtimer2_ISR.c **** * Copyright 2008-2015, Cypress Semiconductor Corporation.  All rights reserved.
  13:Generated_Source\PSoC5/PWMtimer2_ISR.c **** * You may use this file only in accordance with the license, terms, conditions, 
  14:Generated_Source\PSoC5/PWMtimer2_ISR.c **** * disclaimers, and limitations in the end user license agreement accompanying 
  15:Generated_Source\PSoC5/PWMtimer2_ISR.c **** * the software package with which this file was provided.
  16:Generated_Source\PSoC5/PWMtimer2_ISR.c **** *******************************************************************************/
  17:Generated_Source\PSoC5/PWMtimer2_ISR.c **** 
  18:Generated_Source\PSoC5/PWMtimer2_ISR.c **** 
  19:Generated_Source\PSoC5/PWMtimer2_ISR.c **** #include <cydevice_trm.h>
  20:Generated_Source\PSoC5/PWMtimer2_ISR.c **** #include <CyLib.h>
  21:Generated_Source\PSoC5/PWMtimer2_ISR.c **** #include <PWMtimer2_ISR.h>
  22:Generated_Source\PSoC5/PWMtimer2_ISR.c **** #include "cyapicallbacks.h"
  23:Generated_Source\PSoC5/PWMtimer2_ISR.c **** 
  24:Generated_Source\PSoC5/PWMtimer2_ISR.c **** #if !defined(PWMtimer2_ISR__REMOVED) /* Check for removal by optimization */
  25:Generated_Source\PSoC5/PWMtimer2_ISR.c **** 
  26:Generated_Source\PSoC5/PWMtimer2_ISR.c **** /*******************************************************************************
  27:Generated_Source\PSoC5/PWMtimer2_ISR.c **** *  Place your includes, defines and code here 
  28:Generated_Source\PSoC5/PWMtimer2_ISR.c **** ********************************************************************************/
  29:Generated_Source\PSoC5/PWMtimer2_ISR.c **** /* `#START PWMtimer2_ISR_intc` */
  30:Generated_Source\PSoC5/PWMtimer2_ISR.c **** #include <stdbool.h>
ARM GAS  C:\Users\kylep\AppData\Local\Temp\cc4o752d.s 			page 2


  31:Generated_Source\PSoC5/PWMtimer2_ISR.c **** #include "Tones.h"
  32:Generated_Source\PSoC5/PWMtimer2_ISR.c **** /* `#END` */
  33:Generated_Source\PSoC5/PWMtimer2_ISR.c **** 
  34:Generated_Source\PSoC5/PWMtimer2_ISR.c **** #ifndef CYINT_IRQ_BASE
  35:Generated_Source\PSoC5/PWMtimer2_ISR.c **** #define CYINT_IRQ_BASE      16
  36:Generated_Source\PSoC5/PWMtimer2_ISR.c **** #endif /* CYINT_IRQ_BASE */
  37:Generated_Source\PSoC5/PWMtimer2_ISR.c **** #ifndef CYINT_VECT_TABLE
  38:Generated_Source\PSoC5/PWMtimer2_ISR.c **** #define CYINT_VECT_TABLE    ((cyisraddress **) CYREG_NVIC_VECT_OFFSET)
  39:Generated_Source\PSoC5/PWMtimer2_ISR.c **** #endif /* CYINT_VECT_TABLE */
  40:Generated_Source\PSoC5/PWMtimer2_ISR.c **** 
  41:Generated_Source\PSoC5/PWMtimer2_ISR.c **** /* Declared in startup, used to set unused interrupts to. */
  42:Generated_Source\PSoC5/PWMtimer2_ISR.c **** CY_ISR_PROTO(IntDefaultHandler);
  43:Generated_Source\PSoC5/PWMtimer2_ISR.c **** 
  44:Generated_Source\PSoC5/PWMtimer2_ISR.c **** 
  45:Generated_Source\PSoC5/PWMtimer2_ISR.c **** /*******************************************************************************
  46:Generated_Source\PSoC5/PWMtimer2_ISR.c **** * Function Name: PWMtimer2_ISR_Start
  47:Generated_Source\PSoC5/PWMtimer2_ISR.c **** ********************************************************************************
  48:Generated_Source\PSoC5/PWMtimer2_ISR.c **** *
  49:Generated_Source\PSoC5/PWMtimer2_ISR.c **** * Summary:
  50:Generated_Source\PSoC5/PWMtimer2_ISR.c **** *  Set up the interrupt and enable it. This function disables the interrupt, 
  51:Generated_Source\PSoC5/PWMtimer2_ISR.c **** *  sets the default interrupt vector, sets the priority from the value in the
  52:Generated_Source\PSoC5/PWMtimer2_ISR.c **** *  Design Wide Resources Interrupt Editor, then enables the interrupt to the 
  53:Generated_Source\PSoC5/PWMtimer2_ISR.c **** *  interrupt controller.
  54:Generated_Source\PSoC5/PWMtimer2_ISR.c **** *
  55:Generated_Source\PSoC5/PWMtimer2_ISR.c **** * Parameters:  
  56:Generated_Source\PSoC5/PWMtimer2_ISR.c **** *   None
  57:Generated_Source\PSoC5/PWMtimer2_ISR.c **** *
  58:Generated_Source\PSoC5/PWMtimer2_ISR.c **** * Return:
  59:Generated_Source\PSoC5/PWMtimer2_ISR.c **** *   None
  60:Generated_Source\PSoC5/PWMtimer2_ISR.c **** *
  61:Generated_Source\PSoC5/PWMtimer2_ISR.c **** *******************************************************************************/
  62:Generated_Source\PSoC5/PWMtimer2_ISR.c **** void PWMtimer2_ISR_Start(void)
  63:Generated_Source\PSoC5/PWMtimer2_ISR.c **** {
  28              		.loc 1 63 0
  29              		.cfi_startproc
  30              		@ args = 0, pretend = 0, frame = 0
  31              		@ frame_needed = 1, uses_anonymous_args = 0
  32 0000 80B5     		push	{r7, lr}
  33              		.cfi_def_cfa_offset 8
  34              		.cfi_offset 7, -8
  35              		.cfi_offset 14, -4
  36 0002 00AF     		add	r7, sp, #0
  37              		.cfi_def_cfa_register 7
  64:Generated_Source\PSoC5/PWMtimer2_ISR.c ****     /* For all we know the interrupt is active. */
  65:Generated_Source\PSoC5/PWMtimer2_ISR.c ****     PWMtimer2_ISR_Disable();
  38              		.loc 1 65 0
  39 0004 FFF7FEFF 		bl	PWMtimer2_ISR_Disable
  66:Generated_Source\PSoC5/PWMtimer2_ISR.c **** 
  67:Generated_Source\PSoC5/PWMtimer2_ISR.c ****     /* Set the ISR to point to the PWMtimer2_ISR Interrupt. */
  68:Generated_Source\PSoC5/PWMtimer2_ISR.c ****     PWMtimer2_ISR_SetVector(&PWMtimer2_ISR_Interrupt);
  40              		.loc 1 68 0
  41 0008 0448     		ldr	r0, .L2
  42 000a FFF7FEFF 		bl	PWMtimer2_ISR_SetVector
  69:Generated_Source\PSoC5/PWMtimer2_ISR.c **** 
  70:Generated_Source\PSoC5/PWMtimer2_ISR.c ****     /* Set the priority. */
  71:Generated_Source\PSoC5/PWMtimer2_ISR.c ****     PWMtimer2_ISR_SetPriority((uint8)PWMtimer2_ISR_INTC_PRIOR_NUMBER);
  43              		.loc 1 71 0
ARM GAS  C:\Users\kylep\AppData\Local\Temp\cc4o752d.s 			page 3


  44 000e 0720     		movs	r0, #7
  45 0010 FFF7FEFF 		bl	PWMtimer2_ISR_SetPriority
  72:Generated_Source\PSoC5/PWMtimer2_ISR.c **** 
  73:Generated_Source\PSoC5/PWMtimer2_ISR.c ****     /* Enable it. */
  74:Generated_Source\PSoC5/PWMtimer2_ISR.c ****     PWMtimer2_ISR_Enable();
  46              		.loc 1 74 0
  47 0014 FFF7FEFF 		bl	PWMtimer2_ISR_Enable
  75:Generated_Source\PSoC5/PWMtimer2_ISR.c **** }
  48              		.loc 1 75 0
  49 0018 00BF     		nop
  50 001a 80BD     		pop	{r7, pc}
  51              	.L3:
  52              		.align	2
  53              	.L2:
  54 001c 00000000 		.word	PWMtimer2_ISR_Interrupt
  55              		.cfi_endproc
  56              	.LFE63:
  57              		.size	PWMtimer2_ISR_Start, .-PWMtimer2_ISR_Start
  58              		.section	.text.PWMtimer2_ISR_StartEx,"ax",%progbits
  59              		.align	2
  60              		.global	PWMtimer2_ISR_StartEx
  61              		.thumb
  62              		.thumb_func
  63              		.type	PWMtimer2_ISR_StartEx, %function
  64              	PWMtimer2_ISR_StartEx:
  65              	.LFB64:
  76:Generated_Source\PSoC5/PWMtimer2_ISR.c **** 
  77:Generated_Source\PSoC5/PWMtimer2_ISR.c **** 
  78:Generated_Source\PSoC5/PWMtimer2_ISR.c **** /*******************************************************************************
  79:Generated_Source\PSoC5/PWMtimer2_ISR.c **** * Function Name: PWMtimer2_ISR_StartEx
  80:Generated_Source\PSoC5/PWMtimer2_ISR.c **** ********************************************************************************
  81:Generated_Source\PSoC5/PWMtimer2_ISR.c **** *
  82:Generated_Source\PSoC5/PWMtimer2_ISR.c **** * Summary:
  83:Generated_Source\PSoC5/PWMtimer2_ISR.c **** *  Sets up the interrupt and enables it. This function disables the interrupt,
  84:Generated_Source\PSoC5/PWMtimer2_ISR.c **** *  sets the interrupt vector based on the address passed in, sets the priority 
  85:Generated_Source\PSoC5/PWMtimer2_ISR.c **** *  from the value in the Design Wide Resources Interrupt Editor, then enables 
  86:Generated_Source\PSoC5/PWMtimer2_ISR.c **** *  the interrupt to the interrupt controller.
  87:Generated_Source\PSoC5/PWMtimer2_ISR.c **** *  
  88:Generated_Source\PSoC5/PWMtimer2_ISR.c **** *  When defining ISR functions, the CY_ISR and CY_ISR_PROTO macros should be 
  89:Generated_Source\PSoC5/PWMtimer2_ISR.c **** *  used to provide consistent definition across compilers:
  90:Generated_Source\PSoC5/PWMtimer2_ISR.c **** *  
  91:Generated_Source\PSoC5/PWMtimer2_ISR.c **** *  Function definition example:
  92:Generated_Source\PSoC5/PWMtimer2_ISR.c **** *   CY_ISR(MyISR)
  93:Generated_Source\PSoC5/PWMtimer2_ISR.c **** *   {
  94:Generated_Source\PSoC5/PWMtimer2_ISR.c **** *   }
  95:Generated_Source\PSoC5/PWMtimer2_ISR.c **** *   Function prototype example:
  96:Generated_Source\PSoC5/PWMtimer2_ISR.c **** *   CY_ISR_PROTO(MyISR);
  97:Generated_Source\PSoC5/PWMtimer2_ISR.c **** *
  98:Generated_Source\PSoC5/PWMtimer2_ISR.c **** * Parameters:  
  99:Generated_Source\PSoC5/PWMtimer2_ISR.c **** *   address: Address of the ISR to set in the interrupt vector table.
 100:Generated_Source\PSoC5/PWMtimer2_ISR.c **** *
 101:Generated_Source\PSoC5/PWMtimer2_ISR.c **** * Return:
 102:Generated_Source\PSoC5/PWMtimer2_ISR.c **** *   None
 103:Generated_Source\PSoC5/PWMtimer2_ISR.c **** *
 104:Generated_Source\PSoC5/PWMtimer2_ISR.c **** *******************************************************************************/
 105:Generated_Source\PSoC5/PWMtimer2_ISR.c **** void PWMtimer2_ISR_StartEx(cyisraddress address)
 106:Generated_Source\PSoC5/PWMtimer2_ISR.c **** {
ARM GAS  C:\Users\kylep\AppData\Local\Temp\cc4o752d.s 			page 4


  66              		.loc 1 106 0
  67              		.cfi_startproc
  68              		@ args = 0, pretend = 0, frame = 8
  69              		@ frame_needed = 1, uses_anonymous_args = 0
  70 0000 80B5     		push	{r7, lr}
  71              		.cfi_def_cfa_offset 8
  72              		.cfi_offset 7, -8
  73              		.cfi_offset 14, -4
  74 0002 82B0     		sub	sp, sp, #8
  75              		.cfi_def_cfa_offset 16
  76 0004 00AF     		add	r7, sp, #0
  77              		.cfi_def_cfa_register 7
  78 0006 7860     		str	r0, [r7, #4]
 107:Generated_Source\PSoC5/PWMtimer2_ISR.c ****     /* For all we know the interrupt is active. */
 108:Generated_Source\PSoC5/PWMtimer2_ISR.c ****     PWMtimer2_ISR_Disable();
  79              		.loc 1 108 0
  80 0008 FFF7FEFF 		bl	PWMtimer2_ISR_Disable
 109:Generated_Source\PSoC5/PWMtimer2_ISR.c **** 
 110:Generated_Source\PSoC5/PWMtimer2_ISR.c ****     /* Set the ISR to point to the PWMtimer2_ISR Interrupt. */
 111:Generated_Source\PSoC5/PWMtimer2_ISR.c ****     PWMtimer2_ISR_SetVector(address);
  81              		.loc 1 111 0
  82 000c 7868     		ldr	r0, [r7, #4]
  83 000e FFF7FEFF 		bl	PWMtimer2_ISR_SetVector
 112:Generated_Source\PSoC5/PWMtimer2_ISR.c **** 
 113:Generated_Source\PSoC5/PWMtimer2_ISR.c ****     /* Set the priority. */
 114:Generated_Source\PSoC5/PWMtimer2_ISR.c ****     PWMtimer2_ISR_SetPriority((uint8)PWMtimer2_ISR_INTC_PRIOR_NUMBER);
  84              		.loc 1 114 0
  85 0012 0720     		movs	r0, #7
  86 0014 FFF7FEFF 		bl	PWMtimer2_ISR_SetPriority
 115:Generated_Source\PSoC5/PWMtimer2_ISR.c **** 
 116:Generated_Source\PSoC5/PWMtimer2_ISR.c ****     /* Enable it. */
 117:Generated_Source\PSoC5/PWMtimer2_ISR.c ****     PWMtimer2_ISR_Enable();
  87              		.loc 1 117 0
  88 0018 FFF7FEFF 		bl	PWMtimer2_ISR_Enable
 118:Generated_Source\PSoC5/PWMtimer2_ISR.c **** }
  89              		.loc 1 118 0
  90 001c 00BF     		nop
  91 001e 0837     		adds	r7, r7, #8
  92              		.cfi_def_cfa_offset 8
  93 0020 BD46     		mov	sp, r7
  94              		.cfi_def_cfa_register 13
  95              		@ sp needed
  96 0022 80BD     		pop	{r7, pc}
  97              		.cfi_endproc
  98              	.LFE64:
  99              		.size	PWMtimer2_ISR_StartEx, .-PWMtimer2_ISR_StartEx
 100              		.section	.text.PWMtimer2_ISR_Stop,"ax",%progbits
 101              		.align	2
 102              		.global	PWMtimer2_ISR_Stop
 103              		.thumb
 104              		.thumb_func
 105              		.type	PWMtimer2_ISR_Stop, %function
 106              	PWMtimer2_ISR_Stop:
 107              	.LFB65:
 119:Generated_Source\PSoC5/PWMtimer2_ISR.c **** 
 120:Generated_Source\PSoC5/PWMtimer2_ISR.c **** 
 121:Generated_Source\PSoC5/PWMtimer2_ISR.c **** /*******************************************************************************
ARM GAS  C:\Users\kylep\AppData\Local\Temp\cc4o752d.s 			page 5


 122:Generated_Source\PSoC5/PWMtimer2_ISR.c **** * Function Name: PWMtimer2_ISR_Stop
 123:Generated_Source\PSoC5/PWMtimer2_ISR.c **** ********************************************************************************
 124:Generated_Source\PSoC5/PWMtimer2_ISR.c **** *
 125:Generated_Source\PSoC5/PWMtimer2_ISR.c **** * Summary:
 126:Generated_Source\PSoC5/PWMtimer2_ISR.c **** *   Disables and removes the interrupt.
 127:Generated_Source\PSoC5/PWMtimer2_ISR.c **** *
 128:Generated_Source\PSoC5/PWMtimer2_ISR.c **** * Parameters:  
 129:Generated_Source\PSoC5/PWMtimer2_ISR.c **** *   None
 130:Generated_Source\PSoC5/PWMtimer2_ISR.c **** *
 131:Generated_Source\PSoC5/PWMtimer2_ISR.c **** * Return:
 132:Generated_Source\PSoC5/PWMtimer2_ISR.c **** *   None
 133:Generated_Source\PSoC5/PWMtimer2_ISR.c **** *
 134:Generated_Source\PSoC5/PWMtimer2_ISR.c **** *******************************************************************************/
 135:Generated_Source\PSoC5/PWMtimer2_ISR.c **** void PWMtimer2_ISR_Stop(void)
 136:Generated_Source\PSoC5/PWMtimer2_ISR.c **** {
 108              		.loc 1 136 0
 109              		.cfi_startproc
 110              		@ args = 0, pretend = 0, frame = 0
 111              		@ frame_needed = 1, uses_anonymous_args = 0
 112 0000 80B5     		push	{r7, lr}
 113              		.cfi_def_cfa_offset 8
 114              		.cfi_offset 7, -8
 115              		.cfi_offset 14, -4
 116 0002 00AF     		add	r7, sp, #0
 117              		.cfi_def_cfa_register 7
 137:Generated_Source\PSoC5/PWMtimer2_ISR.c ****     /* Disable this interrupt. */
 138:Generated_Source\PSoC5/PWMtimer2_ISR.c ****     PWMtimer2_ISR_Disable();
 118              		.loc 1 138 0
 119 0004 FFF7FEFF 		bl	PWMtimer2_ISR_Disable
 139:Generated_Source\PSoC5/PWMtimer2_ISR.c **** 
 140:Generated_Source\PSoC5/PWMtimer2_ISR.c ****     /* Set the ISR to point to the passive one. */
 141:Generated_Source\PSoC5/PWMtimer2_ISR.c ****     PWMtimer2_ISR_SetVector(&IntDefaultHandler);
 120              		.loc 1 141 0
 121 0008 0248     		ldr	r0, .L6
 122 000a FFF7FEFF 		bl	PWMtimer2_ISR_SetVector
 142:Generated_Source\PSoC5/PWMtimer2_ISR.c **** }
 123              		.loc 1 142 0
 124 000e 00BF     		nop
 125 0010 80BD     		pop	{r7, pc}
 126              	.L7:
 127 0012 00BF     		.align	2
 128              	.L6:
 129 0014 00000000 		.word	IntDefaultHandler
 130              		.cfi_endproc
 131              	.LFE65:
 132              		.size	PWMtimer2_ISR_Stop, .-PWMtimer2_ISR_Stop
 133              		.section	.text.PWMtimer2_ISR_Interrupt,"ax",%progbits
 134              		.align	2
 135              		.global	PWMtimer2_ISR_Interrupt
 136              		.thumb
 137              		.thumb_func
 138              		.type	PWMtimer2_ISR_Interrupt, %function
 139              	PWMtimer2_ISR_Interrupt:
 140              	.LFB66:
 143:Generated_Source\PSoC5/PWMtimer2_ISR.c **** 
 144:Generated_Source\PSoC5/PWMtimer2_ISR.c **** 
 145:Generated_Source\PSoC5/PWMtimer2_ISR.c **** /*******************************************************************************
ARM GAS  C:\Users\kylep\AppData\Local\Temp\cc4o752d.s 			page 6


 146:Generated_Source\PSoC5/PWMtimer2_ISR.c **** * Function Name: PWMtimer2_ISR_Interrupt
 147:Generated_Source\PSoC5/PWMtimer2_ISR.c **** ********************************************************************************
 148:Generated_Source\PSoC5/PWMtimer2_ISR.c **** *
 149:Generated_Source\PSoC5/PWMtimer2_ISR.c **** * Summary:
 150:Generated_Source\PSoC5/PWMtimer2_ISR.c **** *   The default Interrupt Service Routine for PWMtimer2_ISR.
 151:Generated_Source\PSoC5/PWMtimer2_ISR.c **** *
 152:Generated_Source\PSoC5/PWMtimer2_ISR.c **** *   Add custom code between the coments to keep the next version of this file
 153:Generated_Source\PSoC5/PWMtimer2_ISR.c **** *   from over writting your code.
 154:Generated_Source\PSoC5/PWMtimer2_ISR.c **** *
 155:Generated_Source\PSoC5/PWMtimer2_ISR.c **** * Parameters:  
 156:Generated_Source\PSoC5/PWMtimer2_ISR.c **** *
 157:Generated_Source\PSoC5/PWMtimer2_ISR.c **** * Return:
 158:Generated_Source\PSoC5/PWMtimer2_ISR.c **** *   None
 159:Generated_Source\PSoC5/PWMtimer2_ISR.c **** *
 160:Generated_Source\PSoC5/PWMtimer2_ISR.c **** *******************************************************************************/
 161:Generated_Source\PSoC5/PWMtimer2_ISR.c **** CY_ISR(PWMtimer2_ISR_Interrupt)
 162:Generated_Source\PSoC5/PWMtimer2_ISR.c **** {
 141              		.loc 1 162 0
 142              		.cfi_startproc
 143              		@ args = 0, pretend = 0, frame = 0
 144              		@ frame_needed = 1, uses_anonymous_args = 0
 145 0000 80B5     		push	{r7, lr}
 146              		.cfi_def_cfa_offset 8
 147              		.cfi_offset 7, -8
 148              		.cfi_offset 14, -4
 149 0002 00AF     		add	r7, sp, #0
 150              		.cfi_def_cfa_register 7
 163:Generated_Source\PSoC5/PWMtimer2_ISR.c ****     #ifdef PWMtimer2_ISR_INTERRUPT_INTERRUPT_CALLBACK
 164:Generated_Source\PSoC5/PWMtimer2_ISR.c ****         PWMtimer2_ISR_Interrupt_InterruptCallback();
 165:Generated_Source\PSoC5/PWMtimer2_ISR.c ****     #endif /* PWMtimer2_ISR_INTERRUPT_INTERRUPT_CALLBACK */ 
 166:Generated_Source\PSoC5/PWMtimer2_ISR.c **** 
 167:Generated_Source\PSoC5/PWMtimer2_ISR.c ****     /*  Place your Interrupt code here. */
 168:Generated_Source\PSoC5/PWMtimer2_ISR.c ****     /* `#START PWMtimer2_ISR_Interrupt` */
 169:Generated_Source\PSoC5/PWMtimer2_ISR.c ****     processPWMtimerRoutine(true);
 151              		.loc 1 169 0
 152 0004 0120     		movs	r0, #1
 153 0006 FFF7FEFF 		bl	processPWMtimerRoutine
 170:Generated_Source\PSoC5/PWMtimer2_ISR.c ****     /* `#END` */
 171:Generated_Source\PSoC5/PWMtimer2_ISR.c **** }
 154              		.loc 1 171 0
 155 000a 00BF     		nop
 156 000c 80BD     		pop	{r7, pc}
 157              		.cfi_endproc
 158              	.LFE66:
 159              		.size	PWMtimer2_ISR_Interrupt, .-PWMtimer2_ISR_Interrupt
 160 000e 00BF     		.section	.text.PWMtimer2_ISR_SetVector,"ax",%progbits
 161              		.align	2
 162              		.global	PWMtimer2_ISR_SetVector
 163              		.thumb
 164              		.thumb_func
 165              		.type	PWMtimer2_ISR_SetVector, %function
 166              	PWMtimer2_ISR_SetVector:
 167              	.LFB67:
 172:Generated_Source\PSoC5/PWMtimer2_ISR.c **** 
 173:Generated_Source\PSoC5/PWMtimer2_ISR.c **** 
 174:Generated_Source\PSoC5/PWMtimer2_ISR.c **** /*******************************************************************************
 175:Generated_Source\PSoC5/PWMtimer2_ISR.c **** * Function Name: PWMtimer2_ISR_SetVector
ARM GAS  C:\Users\kylep\AppData\Local\Temp\cc4o752d.s 			page 7


 176:Generated_Source\PSoC5/PWMtimer2_ISR.c **** ********************************************************************************
 177:Generated_Source\PSoC5/PWMtimer2_ISR.c **** *
 178:Generated_Source\PSoC5/PWMtimer2_ISR.c **** * Summary:
 179:Generated_Source\PSoC5/PWMtimer2_ISR.c **** *   Change the ISR vector for the Interrupt. Note calling PWMtimer2_ISR_Start
 180:Generated_Source\PSoC5/PWMtimer2_ISR.c **** *   will override any effect this method would have had. To set the vector 
 181:Generated_Source\PSoC5/PWMtimer2_ISR.c **** *   before the component has been started use PWMtimer2_ISR_StartEx instead.
 182:Generated_Source\PSoC5/PWMtimer2_ISR.c **** * 
 183:Generated_Source\PSoC5/PWMtimer2_ISR.c **** *   When defining ISR functions, the CY_ISR and CY_ISR_PROTO macros should be 
 184:Generated_Source\PSoC5/PWMtimer2_ISR.c **** *   used to provide consistent definition across compilers:
 185:Generated_Source\PSoC5/PWMtimer2_ISR.c **** *
 186:Generated_Source\PSoC5/PWMtimer2_ISR.c **** *   Function definition example:
 187:Generated_Source\PSoC5/PWMtimer2_ISR.c **** *   CY_ISR(MyISR)
 188:Generated_Source\PSoC5/PWMtimer2_ISR.c **** *   {
 189:Generated_Source\PSoC5/PWMtimer2_ISR.c **** *   }
 190:Generated_Source\PSoC5/PWMtimer2_ISR.c **** *
 191:Generated_Source\PSoC5/PWMtimer2_ISR.c **** *   Function prototype example:
 192:Generated_Source\PSoC5/PWMtimer2_ISR.c **** *     CY_ISR_PROTO(MyISR);
 193:Generated_Source\PSoC5/PWMtimer2_ISR.c **** *
 194:Generated_Source\PSoC5/PWMtimer2_ISR.c **** * Parameters:
 195:Generated_Source\PSoC5/PWMtimer2_ISR.c **** *   address: Address of the ISR to set in the interrupt vector table.
 196:Generated_Source\PSoC5/PWMtimer2_ISR.c **** *
 197:Generated_Source\PSoC5/PWMtimer2_ISR.c **** * Return:
 198:Generated_Source\PSoC5/PWMtimer2_ISR.c **** *   None
 199:Generated_Source\PSoC5/PWMtimer2_ISR.c **** *
 200:Generated_Source\PSoC5/PWMtimer2_ISR.c **** *******************************************************************************/
 201:Generated_Source\PSoC5/PWMtimer2_ISR.c **** void PWMtimer2_ISR_SetVector(cyisraddress address)
 202:Generated_Source\PSoC5/PWMtimer2_ISR.c **** {
 168              		.loc 1 202 0
 169              		.cfi_startproc
 170              		@ args = 0, pretend = 0, frame = 16
 171              		@ frame_needed = 1, uses_anonymous_args = 0
 172              		@ link register save eliminated.
 173 0000 80B4     		push	{r7}
 174              		.cfi_def_cfa_offset 4
 175              		.cfi_offset 7, -4
 176 0002 85B0     		sub	sp, sp, #20
 177              		.cfi_def_cfa_offset 24
 178 0004 00AF     		add	r7, sp, #0
 179              		.cfi_def_cfa_register 7
 180 0006 7860     		str	r0, [r7, #4]
 203:Generated_Source\PSoC5/PWMtimer2_ISR.c ****     cyisraddress * ramVectorTable;
 204:Generated_Source\PSoC5/PWMtimer2_ISR.c **** 
 205:Generated_Source\PSoC5/PWMtimer2_ISR.c ****     ramVectorTable = (cyisraddress *) *CYINT_VECT_TABLE;
 181              		.loc 1 205 0
 182 0008 054B     		ldr	r3, .L10
 183 000a 1B68     		ldr	r3, [r3]
 184 000c FB60     		str	r3, [r7, #12]
 206:Generated_Source\PSoC5/PWMtimer2_ISR.c **** 
 207:Generated_Source\PSoC5/PWMtimer2_ISR.c ****     ramVectorTable[CYINT_IRQ_BASE + (uint32)PWMtimer2_ISR__INTC_NUMBER] = address;
 185              		.loc 1 207 0
 186 000e FB68     		ldr	r3, [r7, #12]
 187 0010 9033     		adds	r3, r3, #144
 188 0012 7A68     		ldr	r2, [r7, #4]
 189 0014 1A60     		str	r2, [r3]
 208:Generated_Source\PSoC5/PWMtimer2_ISR.c **** }
 190              		.loc 1 208 0
 191 0016 00BF     		nop
ARM GAS  C:\Users\kylep\AppData\Local\Temp\cc4o752d.s 			page 8


 192 0018 1437     		adds	r7, r7, #20
 193              		.cfi_def_cfa_offset 4
 194 001a BD46     		mov	sp, r7
 195              		.cfi_def_cfa_register 13
 196              		@ sp needed
 197 001c 80BC     		pop	{r7}
 198              		.cfi_restore 7
 199              		.cfi_def_cfa_offset 0
 200 001e 7047     		bx	lr
 201              	.L11:
 202              		.align	2
 203              	.L10:
 204 0020 08ED00E0 		.word	-536810232
 205              		.cfi_endproc
 206              	.LFE67:
 207              		.size	PWMtimer2_ISR_SetVector, .-PWMtimer2_ISR_SetVector
 208              		.section	.text.PWMtimer2_ISR_GetVector,"ax",%progbits
 209              		.align	2
 210              		.global	PWMtimer2_ISR_GetVector
 211              		.thumb
 212              		.thumb_func
 213              		.type	PWMtimer2_ISR_GetVector, %function
 214              	PWMtimer2_ISR_GetVector:
 215              	.LFB68:
 209:Generated_Source\PSoC5/PWMtimer2_ISR.c **** 
 210:Generated_Source\PSoC5/PWMtimer2_ISR.c **** 
 211:Generated_Source\PSoC5/PWMtimer2_ISR.c **** /*******************************************************************************
 212:Generated_Source\PSoC5/PWMtimer2_ISR.c **** * Function Name: PWMtimer2_ISR_GetVector
 213:Generated_Source\PSoC5/PWMtimer2_ISR.c **** ********************************************************************************
 214:Generated_Source\PSoC5/PWMtimer2_ISR.c **** *
 215:Generated_Source\PSoC5/PWMtimer2_ISR.c **** * Summary:
 216:Generated_Source\PSoC5/PWMtimer2_ISR.c **** *   Gets the "address" of the current ISR vector for the Interrupt.
 217:Generated_Source\PSoC5/PWMtimer2_ISR.c **** *
 218:Generated_Source\PSoC5/PWMtimer2_ISR.c **** * Parameters:
 219:Generated_Source\PSoC5/PWMtimer2_ISR.c **** *   None
 220:Generated_Source\PSoC5/PWMtimer2_ISR.c **** *
 221:Generated_Source\PSoC5/PWMtimer2_ISR.c **** * Return:
 222:Generated_Source\PSoC5/PWMtimer2_ISR.c **** *   Address of the ISR in the interrupt vector table.
 223:Generated_Source\PSoC5/PWMtimer2_ISR.c **** *
 224:Generated_Source\PSoC5/PWMtimer2_ISR.c **** *******************************************************************************/
 225:Generated_Source\PSoC5/PWMtimer2_ISR.c **** cyisraddress PWMtimer2_ISR_GetVector(void)
 226:Generated_Source\PSoC5/PWMtimer2_ISR.c **** {
 216              		.loc 1 226 0
 217              		.cfi_startproc
 218              		@ args = 0, pretend = 0, frame = 8
 219              		@ frame_needed = 1, uses_anonymous_args = 0
 220              		@ link register save eliminated.
 221 0000 80B4     		push	{r7}
 222              		.cfi_def_cfa_offset 4
 223              		.cfi_offset 7, -4
 224 0002 83B0     		sub	sp, sp, #12
 225              		.cfi_def_cfa_offset 16
 226 0004 00AF     		add	r7, sp, #0
 227              		.cfi_def_cfa_register 7
 227:Generated_Source\PSoC5/PWMtimer2_ISR.c ****     cyisraddress * ramVectorTable;
 228:Generated_Source\PSoC5/PWMtimer2_ISR.c **** 
 229:Generated_Source\PSoC5/PWMtimer2_ISR.c ****     ramVectorTable = (cyisraddress *) *CYINT_VECT_TABLE;
ARM GAS  C:\Users\kylep\AppData\Local\Temp\cc4o752d.s 			page 9


 228              		.loc 1 229 0
 229 0006 054B     		ldr	r3, .L14
 230 0008 1B68     		ldr	r3, [r3]
 231 000a 7B60     		str	r3, [r7, #4]
 230:Generated_Source\PSoC5/PWMtimer2_ISR.c **** 
 231:Generated_Source\PSoC5/PWMtimer2_ISR.c ****     return ramVectorTable[CYINT_IRQ_BASE + (uint32)PWMtimer2_ISR__INTC_NUMBER];
 232              		.loc 1 231 0
 233 000c 7B68     		ldr	r3, [r7, #4]
 234 000e D3F89030 		ldr	r3, [r3, #144]
 232:Generated_Source\PSoC5/PWMtimer2_ISR.c **** }
 235              		.loc 1 232 0
 236 0012 1846     		mov	r0, r3
 237 0014 0C37     		adds	r7, r7, #12
 238              		.cfi_def_cfa_offset 4
 239 0016 BD46     		mov	sp, r7
 240              		.cfi_def_cfa_register 13
 241              		@ sp needed
 242 0018 80BC     		pop	{r7}
 243              		.cfi_restore 7
 244              		.cfi_def_cfa_offset 0
 245 001a 7047     		bx	lr
 246              	.L15:
 247              		.align	2
 248              	.L14:
 249 001c 08ED00E0 		.word	-536810232
 250              		.cfi_endproc
 251              	.LFE68:
 252              		.size	PWMtimer2_ISR_GetVector, .-PWMtimer2_ISR_GetVector
 253              		.section	.text.PWMtimer2_ISR_SetPriority,"ax",%progbits
 254              		.align	2
 255              		.global	PWMtimer2_ISR_SetPriority
 256              		.thumb
 257              		.thumb_func
 258              		.type	PWMtimer2_ISR_SetPriority, %function
 259              	PWMtimer2_ISR_SetPriority:
 260              	.LFB69:
 233:Generated_Source\PSoC5/PWMtimer2_ISR.c **** 
 234:Generated_Source\PSoC5/PWMtimer2_ISR.c **** 
 235:Generated_Source\PSoC5/PWMtimer2_ISR.c **** /*******************************************************************************
 236:Generated_Source\PSoC5/PWMtimer2_ISR.c **** * Function Name: PWMtimer2_ISR_SetPriority
 237:Generated_Source\PSoC5/PWMtimer2_ISR.c **** ********************************************************************************
 238:Generated_Source\PSoC5/PWMtimer2_ISR.c **** *
 239:Generated_Source\PSoC5/PWMtimer2_ISR.c **** * Summary:
 240:Generated_Source\PSoC5/PWMtimer2_ISR.c **** *   Sets the Priority of the Interrupt. 
 241:Generated_Source\PSoC5/PWMtimer2_ISR.c **** *
 242:Generated_Source\PSoC5/PWMtimer2_ISR.c **** *   Note calling PWMtimer2_ISR_Start or PWMtimer2_ISR_StartEx will 
 243:Generated_Source\PSoC5/PWMtimer2_ISR.c **** *   override any effect this API would have had. This API should only be called
 244:Generated_Source\PSoC5/PWMtimer2_ISR.c **** *   after PWMtimer2_ISR_Start or PWMtimer2_ISR_StartEx has been called. 
 245:Generated_Source\PSoC5/PWMtimer2_ISR.c **** *   To set the initial priority for the component, use the Design-Wide Resources
 246:Generated_Source\PSoC5/PWMtimer2_ISR.c **** *   Interrupt Editor.
 247:Generated_Source\PSoC5/PWMtimer2_ISR.c **** *
 248:Generated_Source\PSoC5/PWMtimer2_ISR.c **** *   Note This API has no effect on Non-maskable interrupt NMI).
 249:Generated_Source\PSoC5/PWMtimer2_ISR.c **** *
 250:Generated_Source\PSoC5/PWMtimer2_ISR.c **** * Parameters:
 251:Generated_Source\PSoC5/PWMtimer2_ISR.c **** *   priority: Priority of the interrupt, 0 being the highest priority
 252:Generated_Source\PSoC5/PWMtimer2_ISR.c **** *             PSoC 3 and PSoC 5LP: Priority is from 0 to 7.
 253:Generated_Source\PSoC5/PWMtimer2_ISR.c **** *             PSoC 4: Priority is from 0 to 3.
ARM GAS  C:\Users\kylep\AppData\Local\Temp\cc4o752d.s 			page 10


 254:Generated_Source\PSoC5/PWMtimer2_ISR.c **** *
 255:Generated_Source\PSoC5/PWMtimer2_ISR.c **** * Return:
 256:Generated_Source\PSoC5/PWMtimer2_ISR.c **** *   None
 257:Generated_Source\PSoC5/PWMtimer2_ISR.c **** *
 258:Generated_Source\PSoC5/PWMtimer2_ISR.c **** *******************************************************************************/
 259:Generated_Source\PSoC5/PWMtimer2_ISR.c **** void PWMtimer2_ISR_SetPriority(uint8 priority)
 260:Generated_Source\PSoC5/PWMtimer2_ISR.c **** {
 261              		.loc 1 260 0
 262              		.cfi_startproc
 263              		@ args = 0, pretend = 0, frame = 8
 264              		@ frame_needed = 1, uses_anonymous_args = 0
 265              		@ link register save eliminated.
 266 0000 80B4     		push	{r7}
 267              		.cfi_def_cfa_offset 4
 268              		.cfi_offset 7, -4
 269 0002 83B0     		sub	sp, sp, #12
 270              		.cfi_def_cfa_offset 16
 271 0004 00AF     		add	r7, sp, #0
 272              		.cfi_def_cfa_register 7
 273 0006 0346     		mov	r3, r0
 274 0008 FB71     		strb	r3, [r7, #7]
 261:Generated_Source\PSoC5/PWMtimer2_ISR.c ****     *PWMtimer2_ISR_INTC_PRIOR = priority << 5;
 275              		.loc 1 261 0
 276 000a 054A     		ldr	r2, .L17
 277 000c FB79     		ldrb	r3, [r7, #7]
 278 000e 5B01     		lsls	r3, r3, #5
 279 0010 DBB2     		uxtb	r3, r3
 280 0012 1370     		strb	r3, [r2]
 262:Generated_Source\PSoC5/PWMtimer2_ISR.c **** }
 281              		.loc 1 262 0
 282 0014 00BF     		nop
 283 0016 0C37     		adds	r7, r7, #12
 284              		.cfi_def_cfa_offset 4
 285 0018 BD46     		mov	sp, r7
 286              		.cfi_def_cfa_register 13
 287              		@ sp needed
 288 001a 80BC     		pop	{r7}
 289              		.cfi_restore 7
 290              		.cfi_def_cfa_offset 0
 291 001c 7047     		bx	lr
 292              	.L18:
 293 001e 00BF     		.align	2
 294              	.L17:
 295 0020 14E400E0 		.word	-536812524
 296              		.cfi_endproc
 297              	.LFE69:
 298              		.size	PWMtimer2_ISR_SetPriority, .-PWMtimer2_ISR_SetPriority
 299              		.section	.text.PWMtimer2_ISR_GetPriority,"ax",%progbits
 300              		.align	2
 301              		.global	PWMtimer2_ISR_GetPriority
 302              		.thumb
 303              		.thumb_func
 304              		.type	PWMtimer2_ISR_GetPriority, %function
 305              	PWMtimer2_ISR_GetPriority:
 306              	.LFB70:
 263:Generated_Source\PSoC5/PWMtimer2_ISR.c **** 
 264:Generated_Source\PSoC5/PWMtimer2_ISR.c **** 
ARM GAS  C:\Users\kylep\AppData\Local\Temp\cc4o752d.s 			page 11


 265:Generated_Source\PSoC5/PWMtimer2_ISR.c **** /*******************************************************************************
 266:Generated_Source\PSoC5/PWMtimer2_ISR.c **** * Function Name: PWMtimer2_ISR_GetPriority
 267:Generated_Source\PSoC5/PWMtimer2_ISR.c **** ********************************************************************************
 268:Generated_Source\PSoC5/PWMtimer2_ISR.c **** *
 269:Generated_Source\PSoC5/PWMtimer2_ISR.c **** * Summary:
 270:Generated_Source\PSoC5/PWMtimer2_ISR.c **** *   Gets the Priority of the Interrupt.
 271:Generated_Source\PSoC5/PWMtimer2_ISR.c **** *
 272:Generated_Source\PSoC5/PWMtimer2_ISR.c **** * Parameters:
 273:Generated_Source\PSoC5/PWMtimer2_ISR.c **** *   None
 274:Generated_Source\PSoC5/PWMtimer2_ISR.c **** *
 275:Generated_Source\PSoC5/PWMtimer2_ISR.c **** * Return:
 276:Generated_Source\PSoC5/PWMtimer2_ISR.c **** *   Priority of the interrupt, 0 being the highest priority
 277:Generated_Source\PSoC5/PWMtimer2_ISR.c **** *    PSoC 3 and PSoC 5LP: Priority is from 0 to 7.
 278:Generated_Source\PSoC5/PWMtimer2_ISR.c **** *    PSoC 4: Priority is from 0 to 3.
 279:Generated_Source\PSoC5/PWMtimer2_ISR.c **** *
 280:Generated_Source\PSoC5/PWMtimer2_ISR.c **** *******************************************************************************/
 281:Generated_Source\PSoC5/PWMtimer2_ISR.c **** uint8 PWMtimer2_ISR_GetPriority(void)
 282:Generated_Source\PSoC5/PWMtimer2_ISR.c **** {
 307              		.loc 1 282 0
 308              		.cfi_startproc
 309              		@ args = 0, pretend = 0, frame = 8
 310              		@ frame_needed = 1, uses_anonymous_args = 0
 311              		@ link register save eliminated.
 312 0000 80B4     		push	{r7}
 313              		.cfi_def_cfa_offset 4
 314              		.cfi_offset 7, -4
 315 0002 83B0     		sub	sp, sp, #12
 316              		.cfi_def_cfa_offset 16
 317 0004 00AF     		add	r7, sp, #0
 318              		.cfi_def_cfa_register 7
 283:Generated_Source\PSoC5/PWMtimer2_ISR.c ****     uint8 priority;
 284:Generated_Source\PSoC5/PWMtimer2_ISR.c **** 
 285:Generated_Source\PSoC5/PWMtimer2_ISR.c **** 
 286:Generated_Source\PSoC5/PWMtimer2_ISR.c ****     priority = *PWMtimer2_ISR_INTC_PRIOR >> 5;
 319              		.loc 1 286 0
 320 0006 054B     		ldr	r3, .L21
 321 0008 1B78     		ldrb	r3, [r3]
 322 000a DBB2     		uxtb	r3, r3
 323 000c 5B09     		lsrs	r3, r3, #5
 324 000e FB71     		strb	r3, [r7, #7]
 287:Generated_Source\PSoC5/PWMtimer2_ISR.c **** 
 288:Generated_Source\PSoC5/PWMtimer2_ISR.c ****     return priority;
 325              		.loc 1 288 0
 326 0010 FB79     		ldrb	r3, [r7, #7]	@ zero_extendqisi2
 289:Generated_Source\PSoC5/PWMtimer2_ISR.c **** }
 327              		.loc 1 289 0
 328 0012 1846     		mov	r0, r3
 329 0014 0C37     		adds	r7, r7, #12
 330              		.cfi_def_cfa_offset 4
 331 0016 BD46     		mov	sp, r7
 332              		.cfi_def_cfa_register 13
 333              		@ sp needed
 334 0018 80BC     		pop	{r7}
 335              		.cfi_restore 7
 336              		.cfi_def_cfa_offset 0
 337 001a 7047     		bx	lr
 338              	.L22:
ARM GAS  C:\Users\kylep\AppData\Local\Temp\cc4o752d.s 			page 12


 339              		.align	2
 340              	.L21:
 341 001c 14E400E0 		.word	-536812524
 342              		.cfi_endproc
 343              	.LFE70:
 344              		.size	PWMtimer2_ISR_GetPriority, .-PWMtimer2_ISR_GetPriority
 345              		.section	.text.PWMtimer2_ISR_Enable,"ax",%progbits
 346              		.align	2
 347              		.global	PWMtimer2_ISR_Enable
 348              		.thumb
 349              		.thumb_func
 350              		.type	PWMtimer2_ISR_Enable, %function
 351              	PWMtimer2_ISR_Enable:
 352              	.LFB71:
 290:Generated_Source\PSoC5/PWMtimer2_ISR.c **** 
 291:Generated_Source\PSoC5/PWMtimer2_ISR.c **** 
 292:Generated_Source\PSoC5/PWMtimer2_ISR.c **** /*******************************************************************************
 293:Generated_Source\PSoC5/PWMtimer2_ISR.c **** * Function Name: PWMtimer2_ISR_Enable
 294:Generated_Source\PSoC5/PWMtimer2_ISR.c **** ********************************************************************************
 295:Generated_Source\PSoC5/PWMtimer2_ISR.c **** *
 296:Generated_Source\PSoC5/PWMtimer2_ISR.c **** * Summary:
 297:Generated_Source\PSoC5/PWMtimer2_ISR.c **** *   Enables the interrupt to the interrupt controller. Do not call this function
 298:Generated_Source\PSoC5/PWMtimer2_ISR.c **** *   unless ISR_Start() has been called or the functionality of the ISR_Start() 
 299:Generated_Source\PSoC5/PWMtimer2_ISR.c **** *   function, which sets the vector and the priority, has been called.
 300:Generated_Source\PSoC5/PWMtimer2_ISR.c **** *
 301:Generated_Source\PSoC5/PWMtimer2_ISR.c **** * Parameters:
 302:Generated_Source\PSoC5/PWMtimer2_ISR.c **** *   None
 303:Generated_Source\PSoC5/PWMtimer2_ISR.c **** *
 304:Generated_Source\PSoC5/PWMtimer2_ISR.c **** * Return:
 305:Generated_Source\PSoC5/PWMtimer2_ISR.c **** *   None
 306:Generated_Source\PSoC5/PWMtimer2_ISR.c **** *
 307:Generated_Source\PSoC5/PWMtimer2_ISR.c **** *******************************************************************************/
 308:Generated_Source\PSoC5/PWMtimer2_ISR.c **** void PWMtimer2_ISR_Enable(void)
 309:Generated_Source\PSoC5/PWMtimer2_ISR.c **** {
 353              		.loc 1 309 0
 354              		.cfi_startproc
 355              		@ args = 0, pretend = 0, frame = 0
 356              		@ frame_needed = 1, uses_anonymous_args = 0
 357              		@ link register save eliminated.
 358 0000 80B4     		push	{r7}
 359              		.cfi_def_cfa_offset 4
 360              		.cfi_offset 7, -4
 361 0002 00AF     		add	r7, sp, #0
 362              		.cfi_def_cfa_register 7
 310:Generated_Source\PSoC5/PWMtimer2_ISR.c ****     /* Enable the general interrupt. */
 311:Generated_Source\PSoC5/PWMtimer2_ISR.c ****     *PWMtimer2_ISR_INTC_SET_EN = PWMtimer2_ISR__INTC_MASK;
 363              		.loc 1 311 0
 364 0004 034B     		ldr	r3, .L24
 365 0006 4FF48012 		mov	r2, #1048576
 366 000a 1A60     		str	r2, [r3]
 312:Generated_Source\PSoC5/PWMtimer2_ISR.c **** }
 367              		.loc 1 312 0
 368 000c 00BF     		nop
 369 000e BD46     		mov	sp, r7
 370              		.cfi_def_cfa_register 13
 371              		@ sp needed
 372 0010 80BC     		pop	{r7}
ARM GAS  C:\Users\kylep\AppData\Local\Temp\cc4o752d.s 			page 13


 373              		.cfi_restore 7
 374              		.cfi_def_cfa_offset 0
 375 0012 7047     		bx	lr
 376              	.L25:
 377              		.align	2
 378              	.L24:
 379 0014 00E100E0 		.word	-536813312
 380              		.cfi_endproc
 381              	.LFE71:
 382              		.size	PWMtimer2_ISR_Enable, .-PWMtimer2_ISR_Enable
 383              		.section	.text.PWMtimer2_ISR_GetState,"ax",%progbits
 384              		.align	2
 385              		.global	PWMtimer2_ISR_GetState
 386              		.thumb
 387              		.thumb_func
 388              		.type	PWMtimer2_ISR_GetState, %function
 389              	PWMtimer2_ISR_GetState:
 390              	.LFB72:
 313:Generated_Source\PSoC5/PWMtimer2_ISR.c **** 
 314:Generated_Source\PSoC5/PWMtimer2_ISR.c **** 
 315:Generated_Source\PSoC5/PWMtimer2_ISR.c **** /*******************************************************************************
 316:Generated_Source\PSoC5/PWMtimer2_ISR.c **** * Function Name: PWMtimer2_ISR_GetState
 317:Generated_Source\PSoC5/PWMtimer2_ISR.c **** ********************************************************************************
 318:Generated_Source\PSoC5/PWMtimer2_ISR.c **** *
 319:Generated_Source\PSoC5/PWMtimer2_ISR.c **** * Summary:
 320:Generated_Source\PSoC5/PWMtimer2_ISR.c **** *   Gets the state (enabled, disabled) of the Interrupt.
 321:Generated_Source\PSoC5/PWMtimer2_ISR.c **** *
 322:Generated_Source\PSoC5/PWMtimer2_ISR.c **** * Parameters:
 323:Generated_Source\PSoC5/PWMtimer2_ISR.c **** *   None
 324:Generated_Source\PSoC5/PWMtimer2_ISR.c **** *
 325:Generated_Source\PSoC5/PWMtimer2_ISR.c **** * Return:
 326:Generated_Source\PSoC5/PWMtimer2_ISR.c **** *   1 if enabled, 0 if disabled.
 327:Generated_Source\PSoC5/PWMtimer2_ISR.c **** *
 328:Generated_Source\PSoC5/PWMtimer2_ISR.c **** *******************************************************************************/
 329:Generated_Source\PSoC5/PWMtimer2_ISR.c **** uint8 PWMtimer2_ISR_GetState(void)
 330:Generated_Source\PSoC5/PWMtimer2_ISR.c **** {
 391              		.loc 1 330 0
 392              		.cfi_startproc
 393              		@ args = 0, pretend = 0, frame = 0
 394              		@ frame_needed = 1, uses_anonymous_args = 0
 395              		@ link register save eliminated.
 396 0000 80B4     		push	{r7}
 397              		.cfi_def_cfa_offset 4
 398              		.cfi_offset 7, -4
 399 0002 00AF     		add	r7, sp, #0
 400              		.cfi_def_cfa_register 7
 331:Generated_Source\PSoC5/PWMtimer2_ISR.c ****     /* Get the state of the general interrupt. */
 332:Generated_Source\PSoC5/PWMtimer2_ISR.c ****     return ((*PWMtimer2_ISR_INTC_SET_EN & (uint32)PWMtimer2_ISR__INTC_MASK) != 0u) ? 1u:0u;
 401              		.loc 1 332 0
 402 0004 064B     		ldr	r3, .L30
 403 0006 1B68     		ldr	r3, [r3]
 404 0008 03F48013 		and	r3, r3, #1048576
 405 000c 002B     		cmp	r3, #0
 406 000e 01D0     		beq	.L27
 407              		.loc 1 332 0 is_stmt 0 discriminator 1
 408 0010 0123     		movs	r3, #1
 409 0012 00E0     		b	.L28
ARM GAS  C:\Users\kylep\AppData\Local\Temp\cc4o752d.s 			page 14


 410              	.L27:
 411              		.loc 1 332 0 discriminator 2
 412 0014 0023     		movs	r3, #0
 413              	.L28:
 333:Generated_Source\PSoC5/PWMtimer2_ISR.c **** }
 414              		.loc 1 333 0 is_stmt 1 discriminator 4
 415 0016 1846     		mov	r0, r3
 416 0018 BD46     		mov	sp, r7
 417              		.cfi_def_cfa_register 13
 418              		@ sp needed
 419 001a 80BC     		pop	{r7}
 420              		.cfi_restore 7
 421              		.cfi_def_cfa_offset 0
 422 001c 7047     		bx	lr
 423              	.L31:
 424 001e 00BF     		.align	2
 425              	.L30:
 426 0020 00E100E0 		.word	-536813312
 427              		.cfi_endproc
 428              	.LFE72:
 429              		.size	PWMtimer2_ISR_GetState, .-PWMtimer2_ISR_GetState
 430              		.section	.text.PWMtimer2_ISR_Disable,"ax",%progbits
 431              		.align	2
 432              		.global	PWMtimer2_ISR_Disable
 433              		.thumb
 434              		.thumb_func
 435              		.type	PWMtimer2_ISR_Disable, %function
 436              	PWMtimer2_ISR_Disable:
 437              	.LFB73:
 334:Generated_Source\PSoC5/PWMtimer2_ISR.c **** 
 335:Generated_Source\PSoC5/PWMtimer2_ISR.c **** 
 336:Generated_Source\PSoC5/PWMtimer2_ISR.c **** /*******************************************************************************
 337:Generated_Source\PSoC5/PWMtimer2_ISR.c **** * Function Name: PWMtimer2_ISR_Disable
 338:Generated_Source\PSoC5/PWMtimer2_ISR.c **** ********************************************************************************
 339:Generated_Source\PSoC5/PWMtimer2_ISR.c **** *
 340:Generated_Source\PSoC5/PWMtimer2_ISR.c **** * Summary:
 341:Generated_Source\PSoC5/PWMtimer2_ISR.c **** *   Disables the Interrupt in the interrupt controller.
 342:Generated_Source\PSoC5/PWMtimer2_ISR.c **** *
 343:Generated_Source\PSoC5/PWMtimer2_ISR.c **** * Parameters:
 344:Generated_Source\PSoC5/PWMtimer2_ISR.c **** *   None
 345:Generated_Source\PSoC5/PWMtimer2_ISR.c **** *
 346:Generated_Source\PSoC5/PWMtimer2_ISR.c **** * Return:
 347:Generated_Source\PSoC5/PWMtimer2_ISR.c **** *   None
 348:Generated_Source\PSoC5/PWMtimer2_ISR.c **** *
 349:Generated_Source\PSoC5/PWMtimer2_ISR.c **** *******************************************************************************/
 350:Generated_Source\PSoC5/PWMtimer2_ISR.c **** void PWMtimer2_ISR_Disable(void)
 351:Generated_Source\PSoC5/PWMtimer2_ISR.c **** {
 438              		.loc 1 351 0
 439              		.cfi_startproc
 440              		@ args = 0, pretend = 0, frame = 0
 441              		@ frame_needed = 1, uses_anonymous_args = 0
 442              		@ link register save eliminated.
 443 0000 80B4     		push	{r7}
 444              		.cfi_def_cfa_offset 4
 445              		.cfi_offset 7, -4
 446 0002 00AF     		add	r7, sp, #0
 447              		.cfi_def_cfa_register 7
ARM GAS  C:\Users\kylep\AppData\Local\Temp\cc4o752d.s 			page 15


 352:Generated_Source\PSoC5/PWMtimer2_ISR.c ****     /* Disable the general interrupt. */
 353:Generated_Source\PSoC5/PWMtimer2_ISR.c ****     *PWMtimer2_ISR_INTC_CLR_EN = PWMtimer2_ISR__INTC_MASK;
 448              		.loc 1 353 0
 449 0004 034B     		ldr	r3, .L33
 450 0006 4FF48012 		mov	r2, #1048576
 451 000a 1A60     		str	r2, [r3]
 354:Generated_Source\PSoC5/PWMtimer2_ISR.c **** }
 452              		.loc 1 354 0
 453 000c 00BF     		nop
 454 000e BD46     		mov	sp, r7
 455              		.cfi_def_cfa_register 13
 456              		@ sp needed
 457 0010 80BC     		pop	{r7}
 458              		.cfi_restore 7
 459              		.cfi_def_cfa_offset 0
 460 0012 7047     		bx	lr
 461              	.L34:
 462              		.align	2
 463              	.L33:
 464 0014 80E100E0 		.word	-536813184
 465              		.cfi_endproc
 466              	.LFE73:
 467              		.size	PWMtimer2_ISR_Disable, .-PWMtimer2_ISR_Disable
 468              		.section	.text.PWMtimer2_ISR_SetPending,"ax",%progbits
 469              		.align	2
 470              		.global	PWMtimer2_ISR_SetPending
 471              		.thumb
 472              		.thumb_func
 473              		.type	PWMtimer2_ISR_SetPending, %function
 474              	PWMtimer2_ISR_SetPending:
 475              	.LFB74:
 355:Generated_Source\PSoC5/PWMtimer2_ISR.c **** 
 356:Generated_Source\PSoC5/PWMtimer2_ISR.c **** 
 357:Generated_Source\PSoC5/PWMtimer2_ISR.c **** /*******************************************************************************
 358:Generated_Source\PSoC5/PWMtimer2_ISR.c **** * Function Name: PWMtimer2_ISR_SetPending
 359:Generated_Source\PSoC5/PWMtimer2_ISR.c **** ********************************************************************************
 360:Generated_Source\PSoC5/PWMtimer2_ISR.c **** *
 361:Generated_Source\PSoC5/PWMtimer2_ISR.c **** * Summary:
 362:Generated_Source\PSoC5/PWMtimer2_ISR.c **** *   Causes the Interrupt to enter the pending state, a software method of
 363:Generated_Source\PSoC5/PWMtimer2_ISR.c **** *   generating the interrupt.
 364:Generated_Source\PSoC5/PWMtimer2_ISR.c **** *
 365:Generated_Source\PSoC5/PWMtimer2_ISR.c **** * Parameters:
 366:Generated_Source\PSoC5/PWMtimer2_ISR.c **** *   None
 367:Generated_Source\PSoC5/PWMtimer2_ISR.c **** *
 368:Generated_Source\PSoC5/PWMtimer2_ISR.c **** * Return:
 369:Generated_Source\PSoC5/PWMtimer2_ISR.c **** *   None
 370:Generated_Source\PSoC5/PWMtimer2_ISR.c **** *
 371:Generated_Source\PSoC5/PWMtimer2_ISR.c **** * Side Effects:
 372:Generated_Source\PSoC5/PWMtimer2_ISR.c **** *   If interrupts are enabled and the interrupt is set up properly, the ISR is
 373:Generated_Source\PSoC5/PWMtimer2_ISR.c **** *   entered (depending on the priority of this interrupt and other pending 
 374:Generated_Source\PSoC5/PWMtimer2_ISR.c **** *   interrupts).
 375:Generated_Source\PSoC5/PWMtimer2_ISR.c **** *
 376:Generated_Source\PSoC5/PWMtimer2_ISR.c **** *******************************************************************************/
 377:Generated_Source\PSoC5/PWMtimer2_ISR.c **** void PWMtimer2_ISR_SetPending(void)
 378:Generated_Source\PSoC5/PWMtimer2_ISR.c **** {
 476              		.loc 1 378 0
 477              		.cfi_startproc
ARM GAS  C:\Users\kylep\AppData\Local\Temp\cc4o752d.s 			page 16


 478              		@ args = 0, pretend = 0, frame = 0
 479              		@ frame_needed = 1, uses_anonymous_args = 0
 480              		@ link register save eliminated.
 481 0000 80B4     		push	{r7}
 482              		.cfi_def_cfa_offset 4
 483              		.cfi_offset 7, -4
 484 0002 00AF     		add	r7, sp, #0
 485              		.cfi_def_cfa_register 7
 379:Generated_Source\PSoC5/PWMtimer2_ISR.c ****     *PWMtimer2_ISR_INTC_SET_PD = PWMtimer2_ISR__INTC_MASK;
 486              		.loc 1 379 0
 487 0004 034B     		ldr	r3, .L36
 488 0006 4FF48012 		mov	r2, #1048576
 489 000a 1A60     		str	r2, [r3]
 380:Generated_Source\PSoC5/PWMtimer2_ISR.c **** }
 490              		.loc 1 380 0
 491 000c 00BF     		nop
 492 000e BD46     		mov	sp, r7
 493              		.cfi_def_cfa_register 13
 494              		@ sp needed
 495 0010 80BC     		pop	{r7}
 496              		.cfi_restore 7
 497              		.cfi_def_cfa_offset 0
 498 0012 7047     		bx	lr
 499              	.L37:
 500              		.align	2
 501              	.L36:
 502 0014 00E200E0 		.word	-536813056
 503              		.cfi_endproc
 504              	.LFE74:
 505              		.size	PWMtimer2_ISR_SetPending, .-PWMtimer2_ISR_SetPending
 506              		.section	.text.PWMtimer2_ISR_ClearPending,"ax",%progbits
 507              		.align	2
 508              		.global	PWMtimer2_ISR_ClearPending
 509              		.thumb
 510              		.thumb_func
 511              		.type	PWMtimer2_ISR_ClearPending, %function
 512              	PWMtimer2_ISR_ClearPending:
 513              	.LFB75:
 381:Generated_Source\PSoC5/PWMtimer2_ISR.c **** 
 382:Generated_Source\PSoC5/PWMtimer2_ISR.c **** 
 383:Generated_Source\PSoC5/PWMtimer2_ISR.c **** /*******************************************************************************
 384:Generated_Source\PSoC5/PWMtimer2_ISR.c **** * Function Name: PWMtimer2_ISR_ClearPending
 385:Generated_Source\PSoC5/PWMtimer2_ISR.c **** ********************************************************************************
 386:Generated_Source\PSoC5/PWMtimer2_ISR.c **** *
 387:Generated_Source\PSoC5/PWMtimer2_ISR.c **** * Summary:
 388:Generated_Source\PSoC5/PWMtimer2_ISR.c **** *   Clears a pending interrupt in the interrupt controller.
 389:Generated_Source\PSoC5/PWMtimer2_ISR.c **** *
 390:Generated_Source\PSoC5/PWMtimer2_ISR.c **** *   Note Some interrupt sources are clear-on-read and require the block 
 391:Generated_Source\PSoC5/PWMtimer2_ISR.c **** *   interrupt/status register to be read/cleared with the appropriate block API 
 392:Generated_Source\PSoC5/PWMtimer2_ISR.c **** *   (GPIO, UART, and so on). Otherwise the ISR will continue to remain in 
 393:Generated_Source\PSoC5/PWMtimer2_ISR.c **** *   pending state even though the interrupt itself is cleared using this API.
 394:Generated_Source\PSoC5/PWMtimer2_ISR.c **** *
 395:Generated_Source\PSoC5/PWMtimer2_ISR.c **** * Parameters:
 396:Generated_Source\PSoC5/PWMtimer2_ISR.c **** *   None
 397:Generated_Source\PSoC5/PWMtimer2_ISR.c **** *
 398:Generated_Source\PSoC5/PWMtimer2_ISR.c **** * Return:
 399:Generated_Source\PSoC5/PWMtimer2_ISR.c **** *   None
ARM GAS  C:\Users\kylep\AppData\Local\Temp\cc4o752d.s 			page 17


 400:Generated_Source\PSoC5/PWMtimer2_ISR.c **** *
 401:Generated_Source\PSoC5/PWMtimer2_ISR.c **** *******************************************************************************/
 402:Generated_Source\PSoC5/PWMtimer2_ISR.c **** void PWMtimer2_ISR_ClearPending(void)
 403:Generated_Source\PSoC5/PWMtimer2_ISR.c **** {
 514              		.loc 1 403 0
 515              		.cfi_startproc
 516              		@ args = 0, pretend = 0, frame = 0
 517              		@ frame_needed = 1, uses_anonymous_args = 0
 518              		@ link register save eliminated.
 519 0000 80B4     		push	{r7}
 520              		.cfi_def_cfa_offset 4
 521              		.cfi_offset 7, -4
 522 0002 00AF     		add	r7, sp, #0
 523              		.cfi_def_cfa_register 7
 404:Generated_Source\PSoC5/PWMtimer2_ISR.c ****     *PWMtimer2_ISR_INTC_CLR_PD = PWMtimer2_ISR__INTC_MASK;
 524              		.loc 1 404 0
 525 0004 034B     		ldr	r3, .L39
 526 0006 4FF48012 		mov	r2, #1048576
 527 000a 1A60     		str	r2, [r3]
 405:Generated_Source\PSoC5/PWMtimer2_ISR.c **** }
 528              		.loc 1 405 0
 529 000c 00BF     		nop
 530 000e BD46     		mov	sp, r7
 531              		.cfi_def_cfa_register 13
 532              		@ sp needed
 533 0010 80BC     		pop	{r7}
 534              		.cfi_restore 7
 535              		.cfi_def_cfa_offset 0
 536 0012 7047     		bx	lr
 537              	.L40:
 538              		.align	2
 539              	.L39:
 540 0014 80E200E0 		.word	-536812928
 541              		.cfi_endproc
 542              	.LFE75:
 543              		.size	PWMtimer2_ISR_ClearPending, .-PWMtimer2_ISR_ClearPending
 544              		.text
 545              	.Letext0:
 546              		.file 2 "c:\\program files (x86)\\cypress\\psoc creator\\4.2\\psoc creator\\import\\gnu\\arm\\5.4.
 547              		.file 3 "c:\\program files (x86)\\cypress\\psoc creator\\4.2\\psoc creator\\import\\gnu\\arm\\5.4.
 548              		.file 4 "Generated_Source\\PSoC5/cytypes.h"
 549              		.file 5 "Generated_Source\\PSoC5/core_cm3.h"