ARM GAS  C:\Users\MARTHN~1\AppData\Local\Temp\cc9i6CHj.s 			page 1


   1              		.syntax unified
   2              		.cpu cortex-m3
   3              		.fpu softvfp
   4              		.eabi_attribute 20, 1
   5              		.eabi_attribute 21, 1
   6              		.eabi_attribute 23, 3
   7              		.eabi_attribute 24, 1
   8              		.eabi_attribute 25, 1
   9              		.eabi_attribute 26, 1
  10              		.eabi_attribute 30, 6
  11              		.eabi_attribute 34, 1
  12              		.eabi_attribute 18, 4
  13              		.thumb
  14              		.syntax unified
  15              		.file	"RelayTest.c"
  16              		.text
  17              	.Ltext0:
  18              		.cfi_sections	.debug_frame
  19              		.comm	Test,3,4
  20              		.bss
  21              		.align	2
  22              	rxPacket_Relay:
  23 0000 00000000 		.space	15
  23      00000000 
  23      00000000 
  23      000000
  24 000f 00       		.align	2
  25              	pRxPacket_Relay:
  26 0010 00000000 		.space	4
  27              		.align	2
  28              	rxPacket_RelaySiren:
  29 0014 00000000 		.space	15
  29      00000000 
  29      00000000 
  29      000000
  30 0023 00       		.align	2
  31              	pRxPacket_RelaySiren:
  32 0024 00000000 		.space	4
  33              		.align	2
  34              	txPacket_RelaySiren:
  35 0028 00000000 		.space	79
  35      00000000 
  35      00000000 
  35      00000000 
  35      00000000 
  36 0077 00       		.align	2
  37              	pTxPacket_RelaySiren:
  38 0078 00000000 		.space	4
  39              		.align	2
  40              	txPacket_H:
  41 007c 00000000 		.space	5
  41      00
  42 0081 000000   		.align	2
  43              	pTxPacket_H:
  44 0084 00000000 		.space	4
  45              		.align	2
  46              	rxPacket_H:
ARM GAS  C:\Users\MARTHN~1\AppData\Local\Temp\cc9i6CHj.s 			page 2


  47 0088 00000000 		.space	5
  47      00
  48 008d 000000   		.align	2
  49              	pRxPacket_H:
  50 0090 00000000 		.space	4
  51              		.align	2
  52              	txPacket_Quad:
  53 0094 00000000 		.space	111
  53      00000000 
  53      00000000 
  53      00000000 
  53      00000000 
  54 0103 00       		.align	2
  55              	pTxPacket_Quad:
  56 0104 00000000 		.space	4
  57              		.align	1
  58              	RTest_20ms_isr_count:
  59 0108 0000     		.space	2
  60              		.align	1
  61              	RTest_20ms_isr_EN:
  62 010a 0000     		.space	2
  63              		.data
  64              		.align	2
  65              		.type	RTest_TimeoutCount, %object
  66              		.size	RTest_TimeoutCount, 22
  67              	RTest_TimeoutCount:
  68 0000 3200     		.short	50
  69 0002 3200     		.short	50
  70 0004 3200     		.short	50
  71 0006 C800     		.short	200
  72 0008 3200     		.short	50
  73 000a 6400     		.short	100
  74 000c 6400     		.short	100
  75 000e 3200     		.short	50
  76 0010 6400     		.short	100
  77 0012 983A     		.short	15000
  78 0014 3200     		.short	50
  79              		.bss
  80              		.align	2
  81              	RTestStatus:
  82 010c 00000000 		.space	11
  82      00000000 
  82      000000
  83              		.section	.text.RelayTest,"ax",%progbits
  84              		.align	2
  85              		.global	RelayTest
  86              		.thumb
  87              		.thumb_func
  88              		.type	RelayTest, %function
  89              	RelayTest:
  90              	.LFB63:
  91              		.file 1 "RelayTest.c"
   1:RelayTest.c   **** /* ========================================
   2:RelayTest.c   ****  *
   3:RelayTest.c   ****  * Copyright YOUR COMPANY, THE YEAR
   4:RelayTest.c   ****  * All Rights Reserved
   5:RelayTest.c   ****  * UNPUBLISHED, LICENSED SOFTWARE.
ARM GAS  C:\Users\MARTHN~1\AppData\Local\Temp\cc9i6CHj.s 			page 3


   6:RelayTest.c   ****  *
   7:RelayTest.c   ****  * CONFIDENTIAL AND PROPRIETARY INFORMATION
   8:RelayTest.c   ****  * WHICH IS THE PROPERTY OF your company.
   9:RelayTest.c   ****  *
  10:RelayTest.c   ****  * ========================================
  11:RelayTest.c   **** */
  12:RelayTest.c   **** 
  13:RelayTest.c   **** #include <project.h>
  14:RelayTest.c   **** #include "CommonVariables.h"
  15:RelayTest.c   **** #include "RelayTest.h"
  16:RelayTest.c   **** #include "UART_115200_Functions.h"
  17:RelayTest.c   **** #include "UART_230400_Functions.h"
  18:RelayTest.c   **** #include "UART_460800_Functions.h"
  19:RelayTest.c   **** #include "CD4051BPW_Driver.h"
  20:RelayTest.c   **** 
  21:RelayTest.c   **** #define VOLTAGE_SYSTEM      120             // (Voltage * 10)
  22:RelayTest.c   **** #define TOLERANCE_VOLTAGE   5  
  23:RelayTest.c   **** #define CURRENT_LOAD        9              // (ohms)
  24:RelayTest.c   **** #define TOLERANCE_CURRENT   2 
  25:RelayTest.c   **** #define CONFIRM_TIME        400            // How many msec to show pass/fail for each step
  26:RelayTest.c   **** 
  27:RelayTest.c   **** static RxPacket_RelaySiren rxPacket_Relay;          // Inputs - 'D' relay to controller
  28:RelayTest.c   **** static RxPacket_RelaySiren * pRxPacket_Relay;       // UART_SIREN
  29:RelayTest.c   **** static RxPacket_RelaySiren rxPacket_RelaySiren;     // *** these are redundant 'D' packets 
  30:RelayTest.c   **** static RxPacket_RelaySiren * pRxPacket_RelaySiren;  // OVERLOAD
  31:RelayTest.c   **** 
  32:RelayTest.c   **** static TxPacket_RelaySiren txPacket_RelaySiren;         // SetRelayOutputs - 'I' (also 3,S,P) contr
  33:RelayTest.c   **** static TxPacket_RelaySiren * pTxPacket_RelaySiren;      // 
  34:RelayTest.c   **** 
  35:RelayTest.c   **** //static TxPacket_Relay txPacket_Relay;            
  36:RelayTest.c   **** //static TxPacket_Relay * pTxPacket_Relay;
  37:RelayTest.c   **** 
  38:RelayTest.c   **** //static RxPacket_Siren rxPacket_Siren;             // 'S' relay to siren
  39:RelayTest.c   **** //static RxPacket_Siren * pRxPacket_Siren;  
  40:RelayTest.c   **** 
  41:RelayTest.c   **** static Packet_H txPacket_H;          //     Packet 'H'
  42:RelayTest.c   **** static Packet_H * pTxPacket_H;      //
  43:RelayTest.c   **** 
  44:RelayTest.c   **** static Packet_H rxPacket_H;          //     Packet 'H'
  45:RelayTest.c   **** static Packet_H * pRxPacket_H;      //
  46:RelayTest.c   **** 
  47:RelayTest.c   **** static RxPacket_Quad txPacket_Quad;          //*** 
  48:RelayTest.c   **** static RxPacket_Quad * pTxPacket_Quad;      //***
  49:RelayTest.c   **** //RxPacket_Quad * getRxPacket_Quad(void);
  50:RelayTest.c   **** 
  51:RelayTest.c   **** //static RxPacket_RelaySiren rxPacket_Relay;          //     Packet 'D'
  52:RelayTest.c   **** //static RxPacket_RelaySiren * pRxPacket_Relay;      //
  53:RelayTest.c   **** 
  54:RelayTest.c   **** //------------GLOABAL variables--------------------
  55:RelayTest.c   **** 
  56:RelayTest.c   **** static uint16 RTest_20ms_isr_count = 0;
  57:RelayTest.c   **** static uint16 RTest_20ms_isr_EN = 0;
  58:RelayTest.c   **** 
  59:RelayTest.c   **** void StartTimeout(void);
  60:RelayTest.c   **** void StopTimeout(void);
  61:RelayTest.c   **** 
  62:RelayTest.c   **** enum DATA_TYPE_460800
ARM GAS  C:\Users\MARTHN~1\AppData\Local\Temp\cc9i6CHj.s 			page 4


  63:RelayTest.c   **** { 
  64:RelayTest.c   ****     CTEST_AUDIO,        // This is for both cont and relay tests
  65:RelayTest.c   ****     CTEST_RTEST_QUAD,   // CTest/RTest - quad normal - (controller to relay, relay to quad)
  66:RelayTest.c   **** //    CTEST_A,            //*** needs to  (*** not used - only need to look for 'L' packet)
  67:RelayTest.c   **** //    QTEST_QUAD          // (*** not used - Quad-Controller packets - type 'C')
  68:RelayTest.c   **** };
  69:RelayTest.c   **** 
  70:RelayTest.c   **** enum MUX_460800_CHANNEL
  71:RelayTest.c   **** { 
  72:RelayTest.c   ****     CTEST_QUAD,       
  73:RelayTest.c   ****     CTEST_AUDIOSTREAM,
  74:RelayTest.c   ****     RTEST_QUAD_1,    
  75:RelayTest.c   ****     RTEST_QUAD_2,
  76:RelayTest.c   ****     RTEST_QUAD_3,
  77:RelayTest.c   ****     RTEST_QUAD_4,
  78:RelayTest.c   ****     RTEST_QUAD_5,
  79:RelayTest.c   ****     RTEST_QUAD_6,
  80:RelayTest.c   ****     RTEST_QUAD_7,
  81:RelayTest.c   ****     RTEST_QUAD_8            
  82:RelayTest.c   **** };
  83:RelayTest.c   **** 
  84:RelayTest.c   **** 
  85:RelayTest.c   **** 
  86:RelayTest.c   **** enum DEMUX_460800_CHANNEL
  87:RelayTest.c   **** { 
  88:RelayTest.c   ****     CTEST_OBDII_TX,         // 
  89:RelayTest.c   ****     RTEST_QUAD_TX,          // 
  90:RelayTest.c   ****     STEST_AUDIO_TX,
  91:RelayTest.c   **** };
  92:RelayTest.c   **** 
  93:RelayTest.c   **** enum MUX_DEMUX_230400_CHANNEL              
  94:RelayTest.c   **** { 
  95:RelayTest.c   ****     CTEST_RELAY, 
  96:RelayTest.c   ****     RTEST_CONT,
  97:RelayTest.c   ****     RTEST_SIREN,
  98:RelayTest.c   ****     STEST_RELAY            
  99:RelayTest.c   **** };
 100:RelayTest.c   **** 
 101:RelayTest.c   **** enum DATATYPE_115200         
 102:RelayTest.c   **** { 
 103:RelayTest.c   ****     RTEST_DLINK
 104:RelayTest.c   **** };
 105:RelayTest.c   **** enum MUX_115200_CHANNEL      
 106:RelayTest.c   **** { 
 107:RelayTest.c   ****     RTEST_DLINK1,    
 108:RelayTest.c   ****     RTEST_DLINK2,    
 109:RelayTest.c   ****     CTEST_USB_DEBUG,
 110:RelayTest.c   ****     DIAG_UART_RX        
 111:RelayTest.c   **** };
 112:RelayTest.c   **** 
 113:RelayTest.c   **** // --------------Test steps---------------
 114:RelayTest.c   **** #define NUMBER_TEST_STEPS   11
 115:RelayTest.c   **** static uint16 RTest_TimeoutCount[NUMBER_TEST_STEPS] = {50,50,50,200,50,100,100,50,100,15000,50};  /
 116:RelayTest.c   **** 
 117:RelayTest.c   **** static uint8 RTestStatus[NUMBER_TEST_STEPS];
 118:RelayTest.c   **** 
 119:RelayTest.c   **** enum TestStep               // *** Need to get muxes setup permanently, 
ARM GAS  C:\Users\MARTHN~1\AppData\Local\Temp\cc9i6CHj.s 			page 5


 120:RelayTest.c   **** { 
 121:RelayTest.c   ****     INITIALIZE_TEST,    // COMPLETE
 122:RelayTest.c   ****     SIREN_EN,           // COMPLETE
 123:RelayTest.c   ****     TEST_OUTPUTS,       // COMPLETE
 124:RelayTest.c   ****     DATALINK,           // COMPLETE
 125:RelayTest.c   ****     QUAD_PORTS,         // COMPLETE
 126:RelayTest.c   ****     UART_SIREN,         // COMPLETE
 127:RelayTest.c   ****     INPUTS,             // COMPLETE
 128:RelayTest.c   ****     VBATT,              // COMPLETE
 129:RelayTest.c   ****     BLOCK_CURRENTS,     // COMPLETE
 130:RelayTest.c   ****     GPS,                // COMPLETE
 131:RelayTest.c   ****     PASS                // COMPLETE 
 132:RelayTest.c   **** };
 133:RelayTest.c   **** 
 134:RelayTest.c   **** 
 135:RelayTest.c   **** 
 136:RelayTest.c   **** //----------------------------------------
 137:RelayTest.c   **** // Main state machine for F1-Relay Test
 138:RelayTest.c   **** //----------------------------------------
 139:RelayTest.c   **** uint8 RelayTest(void)
 140:RelayTest.c   **** {
  92              		.loc 1 140 0
  93              		.cfi_startproc
  94              		@ args = 0, pretend = 0, frame = 8
  95              		@ frame_needed = 1, uses_anonymous_args = 0
  96 0000 80B5     		push	{r7, lr}
  97              		.cfi_def_cfa_offset 8
  98              		.cfi_offset 7, -8
  99              		.cfi_offset 14, -4
 100 0002 82B0     		sub	sp, sp, #8
 101              		.cfi_def_cfa_offset 16
 102 0004 00AF     		add	r7, sp, #0
 103              		.cfi_def_cfa_register 7
 141:RelayTest.c   ****     
 142:RelayTest.c   ****     switch(CurrentTest.TestStep)
 104              		.loc 1 142 0
 105 0006 B34B     		ldr	r3, .L42
 106 0008 5B78     		ldrb	r3, [r3, #1]	@ zero_extendqisi2
 107 000a 0A2B     		cmp	r3, #10
 108 000c 00F2B381 		bhi	.L2
 109 0010 01A2     		adr	r2, .L4
 110 0012 52F823F0 		ldr	pc, [r2, r3, lsl #2]
 111 0016 00BF     		.p2align 2
 112              	.L4:
 113 0018 45000000 		.word	.L3+1
 114 001c 2D010000 		.word	.L5+1
 115 0020 5F010000 		.word	.L6+1
 116 0024 91010000 		.word	.L7+1
 117 0028 C3010000 		.word	.L8+1
 118 002c FB010000 		.word	.L9+1
 119 0030 2D020000 		.word	.L10+1
 120 0034 5F020000 		.word	.L11+1
 121 0038 91020000 		.word	.L12+1
 122 003c E1020000 		.word	.L13+1
 123 0040 19030000 		.word	.L14+1
 124              		.p2align 1
 125              	.L3:
ARM GAS  C:\Users\MARTHN~1\AppData\Local\Temp\cc9i6CHj.s 			page 6


 126              	.LBB2:
 143:RelayTest.c   ****     {   
 144:RelayTest.c   ****                
 145:RelayTest.c   ****         case INITIALIZE_TEST:
 146:RelayTest.c   **** 
 147:RelayTest.c   ****             for (uint8 i=0;i<NUMBER_TEST_STEPS;i++)                 // Reset Status of aall test st
 127              		.loc 1 147 0
 128 0044 0023     		movs	r3, #0
 129 0046 FB71     		strb	r3, [r7, #7]
 130 0048 06E0     		b	.L15
 131              	.L16:
 148:RelayTest.c   ****                 RTestStatus[i] = '_';
 132              		.loc 1 148 0 discriminator 3
 133 004a FB79     		ldrb	r3, [r7, #7]	@ zero_extendqisi2
 134 004c A24A     		ldr	r2, .L42+4
 135 004e 5F21     		movs	r1, #95
 136 0050 D154     		strb	r1, [r2, r3]
 147:RelayTest.c   ****                 RTestStatus[i] = '_';
 137              		.loc 1 147 0 discriminator 3
 138 0052 FB79     		ldrb	r3, [r7, #7]	@ zero_extendqisi2
 139 0054 0133     		adds	r3, r3, #1
 140 0056 FB71     		strb	r3, [r7, #7]
 141              	.L15:
 147:RelayTest.c   ****                 RTestStatus[i] = '_';
 142              		.loc 1 147 0 is_stmt 0 discriminator 1
 143 0058 FB79     		ldrb	r3, [r7, #7]	@ zero_extendqisi2
 144 005a 0A2B     		cmp	r3, #10
 145 005c F5D9     		bls	.L16
 146              	.LBE2:
 149:RelayTest.c   ****                 
 150:RelayTest.c   ****             RTestStatus[CurrentTest.TestStep] = 'I';
 147              		.loc 1 150 0 is_stmt 1
 148 005e 9D4B     		ldr	r3, .L42
 149 0060 5B78     		ldrb	r3, [r3, #1]	@ zero_extendqisi2
 150 0062 1A46     		mov	r2, r3
 151 0064 9C4B     		ldr	r3, .L42+4
 152 0066 4921     		movs	r1, #73
 153 0068 9954     		strb	r1, [r3, r2]
 151:RelayTest.c   ****             CurrentTest.Status = 'I'; 
 154              		.loc 1 151 0
 155 006a 9A4B     		ldr	r3, .L42
 156 006c 4922     		movs	r2, #73
 157 006e 9A70     		strb	r2, [r3, #2]
 152:RelayTest.c   **** 
 153:RelayTest.c   ****             pTxPacket_RelaySiren = getTxPacket_RelaySiren();        // Tx - Initialize TX_RelaySire
 158              		.loc 1 153 0
 159 0070 FFF7FEFF 		bl	getTxPacket_RelaySiren
 160 0074 0246     		mov	r2, r0
 161 0076 994B     		ldr	r3, .L42+8
 162 0078 1A60     		str	r2, [r3]
 163              	.LBB3:
 154:RelayTest.c   ****             for(uint8 i;i<79;i++)
 164              		.loc 1 154 0
 165 007a 07E0     		b	.L17
 166              	.L18:
 155:RelayTest.c   ****                 pTxPacket_RelaySiren->bytes[i] = 0;
 167              		.loc 1 155 0 discriminator 2
ARM GAS  C:\Users\MARTHN~1\AppData\Local\Temp\cc9i6CHj.s 			page 7


 168 007c 974B     		ldr	r3, .L42+8
 169 007e 1A68     		ldr	r2, [r3]
 170 0080 BB79     		ldrb	r3, [r7, #6]	@ zero_extendqisi2
 171 0082 0021     		movs	r1, #0
 172 0084 D154     		strb	r1, [r2, r3]
 154:RelayTest.c   ****             for(uint8 i;i<79;i++)
 173              		.loc 1 154 0 discriminator 2
 174 0086 BB79     		ldrb	r3, [r7, #6]	@ zero_extendqisi2
 175 0088 0133     		adds	r3, r3, #1
 176 008a BB71     		strb	r3, [r7, #6]
 177              	.L17:
 154:RelayTest.c   ****             for(uint8 i;i<79;i++)
 178              		.loc 1 154 0 is_stmt 0 discriminator 1
 179 008c BB79     		ldrb	r3, [r7, #6]	@ zero_extendqisi2
 180 008e 4E2B     		cmp	r3, #78
 181 0090 F4D9     		bls	.L18
 182              	.LBE3:
 156:RelayTest.c   **** 
 157:RelayTest.c   ****             pTxPacket_RelaySiren->Payload.StartByte_FLB = '~';
 183              		.loc 1 157 0 is_stmt 1
 184 0092 924B     		ldr	r3, .L42+8
 185 0094 1B68     		ldr	r3, [r3]
 186 0096 7E22     		movs	r2, #126
 187 0098 83F83520 		strb	r2, [r3, #53]
 158:RelayTest.c   ****             pTxPacket_RelaySiren->Payload.FLB_PacketType = '3';
 188              		.loc 1 158 0
 189 009c 8F4B     		ldr	r3, .L42+8
 190 009e 1B68     		ldr	r3, [r3]
 191 00a0 3322     		movs	r2, #51
 192 00a2 83F83620 		strb	r2, [r3, #54]
 159:RelayTest.c   ****             pTxPacket_RelaySiren->Payload.StopByte1_FLB = 0x0D;
 193              		.loc 1 159 0
 194 00a6 8D4B     		ldr	r3, .L42+8
 195 00a8 1B68     		ldr	r3, [r3]
 196 00aa 0D22     		movs	r2, #13
 197 00ac 83F83A20 		strb	r2, [r3, #58]
 160:RelayTest.c   ****             pTxPacket_RelaySiren->Payload.StopByte2_FLB = 0x0A;    
 198              		.loc 1 160 0
 199 00b0 8A4B     		ldr	r3, .L42+8
 200 00b2 1B68     		ldr	r3, [r3]
 201 00b4 0A22     		movs	r2, #10
 202 00b6 83F83B20 		strb	r2, [r3, #59]
 161:RelayTest.c   ****             pTxPacket_RelaySiren->Payload.StartByte1_Siren = '~';    
 203              		.loc 1 161 0
 204 00ba 884B     		ldr	r3, .L42+8
 205 00bc 1B68     		ldr	r3, [r3]
 206 00be 7E22     		movs	r2, #126
 207 00c0 83F83C20 		strb	r2, [r3, #60]
 162:RelayTest.c   ****             pTxPacket_RelaySiren->Payload.Siren_PacketType = 'S';
 208              		.loc 1 162 0
 209 00c4 854B     		ldr	r3, .L42+8
 210 00c6 1B68     		ldr	r3, [r3]
 211 00c8 5322     		movs	r2, #83
 212 00ca 83F83D20 		strb	r2, [r3, #61]
 163:RelayTest.c   ****             pTxPacket_RelaySiren->Payload.StopByte1_Siren = 0x0D;
 213              		.loc 1 163 0
 214 00ce 834B     		ldr	r3, .L42+8
ARM GAS  C:\Users\MARTHN~1\AppData\Local\Temp\cc9i6CHj.s 			page 8


 215 00d0 1B68     		ldr	r3, [r3]
 216 00d2 0D22     		movs	r2, #13
 217 00d4 83F84120 		strb	r2, [r3, #65]
 164:RelayTest.c   ****             pTxPacket_RelaySiren->Payload.StopByte2_Siren = 0x0A;                       
 218              		.loc 1 164 0
 219 00d8 804B     		ldr	r3, .L42+8
 220 00da 1B68     		ldr	r3, [r3]
 221 00dc 0A22     		movs	r2, #10
 222 00de 83F84220 		strb	r2, [r3, #66]
 165:RelayTest.c   ****             pTxPacket_RelaySiren->Payload.StartByte1_Relay = '~';
 223              		.loc 1 165 0
 224 00e2 7E4B     		ldr	r3, .L42+8
 225 00e4 1B68     		ldr	r3, [r3]
 226 00e6 7E22     		movs	r2, #126
 227 00e8 83F84320 		strb	r2, [r3, #67]
 166:RelayTest.c   ****             pTxPacket_RelaySiren->Payload.Relay_PacketType = 'P';
 228              		.loc 1 166 0
 229 00ec 7B4B     		ldr	r3, .L42+8
 230 00ee 1B68     		ldr	r3, [r3]
 231 00f0 5022     		movs	r2, #80
 232 00f2 83F84420 		strb	r2, [r3, #68]
 167:RelayTest.c   ****             pTxPacket_RelaySiren->Payload.StopByte1_Relay = 0x0D;
 233              		.loc 1 167 0
 234 00f6 794B     		ldr	r3, .L42+8
 235 00f8 1B68     		ldr	r3, [r3]
 236 00fa 0D22     		movs	r2, #13
 237 00fc 83F84D20 		strb	r2, [r3, #77]
 168:RelayTest.c   ****             pTxPacket_RelaySiren->Payload.StopByte2_Relay = 0x0A;                    
 238              		.loc 1 168 0
 239 0100 764B     		ldr	r3, .L42+8
 240 0102 1B68     		ldr	r3, [r3]
 241 0104 0A22     		movs	r2, #10
 242 0106 83F84E20 		strb	r2, [r3, #78]
 169:RelayTest.c   ****             
 170:RelayTest.c   ****                 
 171:RelayTest.c   ****                 
 172:RelayTest.c   ****             // Deactivate each input
 173:RelayTest.c   ****             // RTest_HSide1_Write(0);
 174:RelayTest.c   ****             // RTest_HSide2_Write(0);
 175:RelayTest.c   ****             // RTest_HSide3_Write(0);
 176:RelayTest.c   ****             // RTest_HSide4_Write(0);
 177:RelayTest.c   ****             // RTest_HSide5_Write(0);
 178:RelayTest.c   ****             // RTest_HSide6_Write(0);
 179:RelayTest.c   ****             // RTest_HSide7_Write(0);
 180:RelayTest.c   ****             // RTest_HSide8_Write(0);
 181:RelayTest.c   ****                 
 182:RelayTest.c   ****             RTestStatus[CurrentTest.TestStep] = 'P';
 243              		.loc 1 182 0
 244 010a 724B     		ldr	r3, .L42
 245 010c 5B78     		ldrb	r3, [r3, #1]	@ zero_extendqisi2
 246 010e 1A46     		mov	r2, r3
 247 0110 714B     		ldr	r3, .L42+4
 248 0112 5021     		movs	r1, #80
 249 0114 9954     		strb	r1, [r3, r2]
 183:RelayTest.c   ****             CurrentTest.Status = 'P'; 
 250              		.loc 1 183 0
 251 0116 6F4B     		ldr	r3, .L42
ARM GAS  C:\Users\MARTHN~1\AppData\Local\Temp\cc9i6CHj.s 			page 9


 252 0118 5022     		movs	r2, #80
 253 011a 9A70     		strb	r2, [r3, #2]
 184:RelayTest.c   ****                     
 185:RelayTest.c   ****             CyDelay(CONFIRM_TIME);
 254              		.loc 1 185 0
 255 011c 4FF4C870 		mov	r0, #400
 256 0120 FFF7FEFF 		bl	CyDelay
 186:RelayTest.c   ****             
 187:RelayTest.c   ****             //CurrentTest.TestStep = INITIALIZE_TEST;
 188:RelayTest.c   ****             CurrentTest.TestStep = SIREN_EN;
 257              		.loc 1 188 0
 258 0124 6B4B     		ldr	r3, .L42
 259 0126 0122     		movs	r2, #1
 260 0128 5A70     		strb	r2, [r3, #1]
 189:RelayTest.c   ****             //CurrentTest.TestStep = TEST_OUTPUTS;
 190:RelayTest.c   ****             //CurrentTest.TestStep = DATALINK;
 191:RelayTest.c   ****             //CurrentTest.TestStep = QUAD_PORTS;
 192:RelayTest.c   ****             //CurrentTest.TestStep = UART_SIREN;
 193:RelayTest.c   ****             //CurrentTest.TestStep = INPUTS;
 194:RelayTest.c   ****             //CurrentTest.TestStep = VBATT; 
 195:RelayTest.c   ****             //CurrentTest.TestStep = BLOCK_CURRENTS; 
 196:RelayTest.c   ****             //CurrentTest.TestStep = GPS; 
 197:RelayTest.c   ****                    
 198:RelayTest.c   ****         break;
 261              		.loc 1 198 0
 262 012a 24E1     		b	.L2
 263              	.L5:
 199:RelayTest.c   ****              
 200:RelayTest.c   ****         case SIREN_EN:
 201:RelayTest.c   ****                        
 202:RelayTest.c   ****             RTest_StartAutomatedStep(); 
 264              		.loc 1 202 0
 265 012c FFF7FEFF 		bl	RTest_StartAutomatedStep
 203:RelayTest.c   ****              
 204:RelayTest.c   ****             while( (!RTest_SIREN_EN_Read()) && (RTestStatus[CurrentTest.TestStep] != 'F') )        
 266              		.loc 1 204 0
 267 0130 00BF     		nop
 268              	.L20:
 269              		.loc 1 204 0 is_stmt 0 discriminator 2
 270 0132 FFF7FEFF 		bl	RTest_SIREN_EN_Read
 271 0136 0346     		mov	r3, r0
 272 0138 002B     		cmp	r3, #0
 273 013a 06D1     		bne	.L19
 274              		.loc 1 204 0 discriminator 1
 275 013c 654B     		ldr	r3, .L42
 276 013e 5B78     		ldrb	r3, [r3, #1]	@ zero_extendqisi2
 277 0140 1A46     		mov	r2, r3
 278 0142 654B     		ldr	r3, .L42+4
 279 0144 9B5C     		ldrb	r3, [r3, r2]	@ zero_extendqisi2
 280 0146 462B     		cmp	r3, #70
 281 0148 F3D1     		bne	.L20
 282              	.L19:
 205:RelayTest.c   ****             {} 
 206:RelayTest.c   ****             
 207:RelayTest.c   ****             RTest_StopAutomatedStep();
 283              		.loc 1 207 0 is_stmt 1
 284 014a FFF7FEFF 		bl	RTest_StopAutomatedStep
ARM GAS  C:\Users\MARTHN~1\AppData\Local\Temp\cc9i6CHj.s 			page 10


 208:RelayTest.c   ****             
 209:RelayTest.c   ****             CyDelay(CONFIRM_TIME);
 285              		.loc 1 209 0
 286 014e 4FF4C870 		mov	r0, #400
 287 0152 FFF7FEFF 		bl	CyDelay
 210:RelayTest.c   ****             
 211:RelayTest.c   ****             //CurrentTest.TestStep = INITIALIZE_TEST;
 212:RelayTest.c   ****             CurrentTest.TestStep = TEST_OUTPUTS;        
 288              		.loc 1 212 0
 289 0156 5F4B     		ldr	r3, .L42
 290 0158 0222     		movs	r2, #2
 291 015a 5A70     		strb	r2, [r3, #1]
 213:RelayTest.c   ****         break;    
 292              		.loc 1 213 0
 293 015c 0BE1     		b	.L2
 294              	.L6:
 214:RelayTest.c   ****               
 215:RelayTest.c   ****         case TEST_OUTPUTS:  
 216:RelayTest.c   ****                 
 217:RelayTest.c   ****             RTest_StartAutomatedStep(); 
 295              		.loc 1 217 0
 296 015e FFF7FEFF 		bl	RTest_StartAutomatedStep
 218:RelayTest.c   ****             
 219:RelayTest.c   ****             while( (!RTest_Test_Outputs()) && (RTestStatus[CurrentTest.TestStep] != 'F') )    // Wa
 297              		.loc 1 219 0
 298 0162 00BF     		nop
 299              	.L22:
 300              		.loc 1 219 0 is_stmt 0 discriminator 2
 301 0164 FFF7FEFF 		bl	RTest_Test_Outputs
 302 0168 0346     		mov	r3, r0
 303 016a 002B     		cmp	r3, #0
 304 016c 06D1     		bne	.L21
 305              		.loc 1 219 0 discriminator 1
 306 016e 594B     		ldr	r3, .L42
 307 0170 5B78     		ldrb	r3, [r3, #1]	@ zero_extendqisi2
 308 0172 1A46     		mov	r2, r3
 309 0174 584B     		ldr	r3, .L42+4
 310 0176 9B5C     		ldrb	r3, [r3, r2]	@ zero_extendqisi2
 311 0178 462B     		cmp	r3, #70
 312 017a F3D1     		bne	.L22
 313              	.L21:
 220:RelayTest.c   ****             {}   
 221:RelayTest.c   ****             
 222:RelayTest.c   ****             RTest_StopAutomatedStep();
 314              		.loc 1 222 0 is_stmt 1
 315 017c FFF7FEFF 		bl	RTest_StopAutomatedStep
 223:RelayTest.c   ****             
 224:RelayTest.c   ****             CyDelay(CONFIRM_TIME);
 316              		.loc 1 224 0
 317 0180 4FF4C870 		mov	r0, #400
 318 0184 FFF7FEFF 		bl	CyDelay
 225:RelayTest.c   **** 
 226:RelayTest.c   ****             //CurrentTest.TestStep = INITIALIZE_TEST;
 227:RelayTest.c   ****             CurrentTest.TestStep = DATALINK;        
 319              		.loc 1 227 0
 320 0188 524B     		ldr	r3, .L42
 321 018a 0322     		movs	r2, #3
ARM GAS  C:\Users\MARTHN~1\AppData\Local\Temp\cc9i6CHj.s 			page 11


 322 018c 5A70     		strb	r2, [r3, #1]
 228:RelayTest.c   ****         break;        
 323              		.loc 1 228 0
 324 018e F2E0     		b	.L2
 325              	.L7:
 229:RelayTest.c   ****               
 230:RelayTest.c   ****         case DATALINK: 
 231:RelayTest.c   **** 
 232:RelayTest.c   ****             RTest_StartAutomatedStep();
 326              		.loc 1 232 0
 327 0190 FFF7FEFF 		bl	RTest_StartAutomatedStep
 233:RelayTest.c   ****             
 234:RelayTest.c   ****             while( (!RTest_Test_DataLink()) && (RTestStatus[CurrentTest.TestStep] != 'F') )    // W
 328              		.loc 1 234 0
 329 0194 00BF     		nop
 330              	.L24:
 331              		.loc 1 234 0 is_stmt 0 discriminator 2
 332 0196 FFF7FEFF 		bl	RTest_Test_DataLink
 333 019a 0346     		mov	r3, r0
 334 019c 002B     		cmp	r3, #0
 335 019e 06D1     		bne	.L23
 336              		.loc 1 234 0 discriminator 1
 337 01a0 4C4B     		ldr	r3, .L42
 338 01a2 5B78     		ldrb	r3, [r3, #1]	@ zero_extendqisi2
 339 01a4 1A46     		mov	r2, r3
 340 01a6 4C4B     		ldr	r3, .L42+4
 341 01a8 9B5C     		ldrb	r3, [r3, r2]	@ zero_extendqisi2
 342 01aa 462B     		cmp	r3, #70
 343 01ac F3D1     		bne	.L24
 344              	.L23:
 235:RelayTest.c   ****             {}          
 236:RelayTest.c   ****  
 237:RelayTest.c   ****             RTest_StopAutomatedStep();
 345              		.loc 1 237 0 is_stmt 1
 346 01ae FFF7FEFF 		bl	RTest_StopAutomatedStep
 238:RelayTest.c   ****             
 239:RelayTest.c   ****             CyDelay(CONFIRM_TIME);
 347              		.loc 1 239 0
 348 01b2 4FF4C870 		mov	r0, #400
 349 01b6 FFF7FEFF 		bl	CyDelay
 240:RelayTest.c   **** 
 241:RelayTest.c   ****             //CurrentTest.TestStep = INITIALIZE_TEST;
 242:RelayTest.c   ****             CurrentTest.TestStep = QUAD_PORTS;        
 350              		.loc 1 242 0
 351 01ba 464B     		ldr	r3, .L42
 352 01bc 0422     		movs	r2, #4
 353 01be 5A70     		strb	r2, [r3, #1]
 243:RelayTest.c   ****         break;  
 354              		.loc 1 243 0
 355 01c0 D9E0     		b	.L2
 356              	.L8:
 244:RelayTest.c   ****             
 245:RelayTest.c   ****         case QUAD_PORTS: 
 246:RelayTest.c   ****                 
 247:RelayTest.c   ****             RTest_StartAutomatedStep();  
 357              		.loc 1 247 0
 358 01c2 FFF7FEFF 		bl	RTest_StartAutomatedStep
ARM GAS  C:\Users\MARTHN~1\AppData\Local\Temp\cc9i6CHj.s 			page 12


 248:RelayTest.c   ****                 
 249:RelayTest.c   ****             DEMUX_CTRL_460800_Write(RTEST_QUAD_TX);             // Select TX xhannel
 359              		.loc 1 249 0
 360 01c6 0120     		movs	r0, #1
 361 01c8 FFF7FEFF 		bl	DEMUX_CTRL_460800_Write
 250:RelayTest.c   ****                       
 251:RelayTest.c   ****             while( (!RTest_Test_QuadPorts()) && (RTestStatus[CurrentTest.TestStep] != 'F') )    // 
 362              		.loc 1 251 0
 363 01cc 00BF     		nop
 364              	.L26:
 365              		.loc 1 251 0 is_stmt 0 discriminator 2
 366 01ce FFF7FEFF 		bl	RTest_Test_QuadPorts
 367 01d2 0346     		mov	r3, r0
 368 01d4 002B     		cmp	r3, #0
 369 01d6 06D1     		bne	.L25
 370              		.loc 1 251 0 discriminator 1
 371 01d8 3E4B     		ldr	r3, .L42
 372 01da 5B78     		ldrb	r3, [r3, #1]	@ zero_extendqisi2
 373 01dc 1A46     		mov	r2, r3
 374 01de 3E4B     		ldr	r3, .L42+4
 375 01e0 9B5C     		ldrb	r3, [r3, r2]	@ zero_extendqisi2
 376 01e2 462B     		cmp	r3, #70
 377 01e4 F3D1     		bne	.L26
 378              	.L25:
 252:RelayTest.c   ****             {}    
 253:RelayTest.c   ****             
 254:RelayTest.c   ****             RTest_StopAutomatedStep();
 379              		.loc 1 254 0 is_stmt 1
 380 01e6 FFF7FEFF 		bl	RTest_StopAutomatedStep
 255:RelayTest.c   ****             
 256:RelayTest.c   ****             CyDelay(CONFIRM_TIME);
 381              		.loc 1 256 0
 382 01ea 4FF4C870 		mov	r0, #400
 383 01ee FFF7FEFF 		bl	CyDelay
 257:RelayTest.c   ****                   
 258:RelayTest.c   ****             //CurrentTest.TestStep = INITIALIZE_TEST;
 259:RelayTest.c   ****             CurrentTest.TestStep = UART_SIREN;      
 384              		.loc 1 259 0
 385 01f2 384B     		ldr	r3, .L42
 386 01f4 0522     		movs	r2, #5
 387 01f6 5A70     		strb	r2, [r3, #1]
 260:RelayTest.c   ****         break;  
 388              		.loc 1 260 0
 389 01f8 BDE0     		b	.L2
 390              	.L9:
 261:RelayTest.c   ****                
 262:RelayTest.c   ****                 
 263:RelayTest.c   ****         case UART_SIREN: 
 264:RelayTest.c   ****                 
 265:RelayTest.c   ****             RTest_StartAutomatedStep();
 391              		.loc 1 265 0
 392 01fa FFF7FEFF 		bl	RTest_StartAutomatedStep
 266:RelayTest.c   ****                 
 267:RelayTest.c   ****             while( (!RTest_Test_UART_Siren()) && (RTestStatus[CurrentTest.TestStep] != 'F') )
 393              		.loc 1 267 0
 394 01fe 00BF     		nop
 395              	.L28:
ARM GAS  C:\Users\MARTHN~1\AppData\Local\Temp\cc9i6CHj.s 			page 13


 396              		.loc 1 267 0 is_stmt 0 discriminator 2
 397 0200 FFF7FEFF 		bl	RTest_Test_UART_Siren
 398 0204 0346     		mov	r3, r0
 399 0206 002B     		cmp	r3, #0
 400 0208 06D1     		bne	.L27
 401              		.loc 1 267 0 discriminator 1
 402 020a 324B     		ldr	r3, .L42
 403 020c 5B78     		ldrb	r3, [r3, #1]	@ zero_extendqisi2
 404 020e 1A46     		mov	r2, r3
 405 0210 314B     		ldr	r3, .L42+4
 406 0212 9B5C     		ldrb	r3, [r3, r2]	@ zero_extendqisi2
 407 0214 462B     		cmp	r3, #70
 408 0216 F3D1     		bne	.L28
 409              	.L27:
 268:RelayTest.c   ****             {}    
 269:RelayTest.c   ****             
 270:RelayTest.c   ****             RTest_StopAutomatedStep();
 410              		.loc 1 270 0 is_stmt 1
 411 0218 FFF7FEFF 		bl	RTest_StopAutomatedStep
 271:RelayTest.c   ****             
 272:RelayTest.c   ****             CyDelay(CONFIRM_TIME);
 412              		.loc 1 272 0
 413 021c 4FF4C870 		mov	r0, #400
 414 0220 FFF7FEFF 		bl	CyDelay
 273:RelayTest.c   ****             
 274:RelayTest.c   ****             //CurrentTest.TestStep = INITIALIZE_TEST;  
 275:RelayTest.c   ****             CurrentTest.TestStep = INPUTS;                
 415              		.loc 1 275 0
 416 0224 2B4B     		ldr	r3, .L42
 417 0226 0622     		movs	r2, #6
 418 0228 5A70     		strb	r2, [r3, #1]
 276:RelayTest.c   ****         break;  
 419              		.loc 1 276 0
 420 022a A4E0     		b	.L2
 421              	.L10:
 277:RelayTest.c   ****               
 278:RelayTest.c   ****         case INPUTS:          
 279:RelayTest.c   ****                 
 280:RelayTest.c   ****             RTest_StartAutomatedStep();          
 422              		.loc 1 280 0
 423 022c FFF7FEFF 		bl	RTest_StartAutomatedStep
 281:RelayTest.c   ****                 
 282:RelayTest.c   ****             while( (!RTest_Test_Inputs()) && (RTestStatus[CurrentTest.TestStep] != 'F') )
 424              		.loc 1 282 0
 425 0230 00BF     		nop
 426              	.L30:
 427              		.loc 1 282 0 is_stmt 0 discriminator 2
 428 0232 FFF7FEFF 		bl	RTest_Test_Inputs
 429 0236 0346     		mov	r3, r0
 430 0238 002B     		cmp	r3, #0
 431 023a 06D1     		bne	.L29
 432              		.loc 1 282 0 discriminator 1
 433 023c 254B     		ldr	r3, .L42
 434 023e 5B78     		ldrb	r3, [r3, #1]	@ zero_extendqisi2
 435 0240 1A46     		mov	r2, r3
 436 0242 254B     		ldr	r3, .L42+4
 437 0244 9B5C     		ldrb	r3, [r3, r2]	@ zero_extendqisi2
ARM GAS  C:\Users\MARTHN~1\AppData\Local\Temp\cc9i6CHj.s 			page 14


 438 0246 462B     		cmp	r3, #70
 439 0248 F3D1     		bne	.L30
 440              	.L29:
 283:RelayTest.c   ****             {}   
 284:RelayTest.c   ****             
 285:RelayTest.c   ****             RTest_StopAutomatedStep();
 441              		.loc 1 285 0 is_stmt 1
 442 024a FFF7FEFF 		bl	RTest_StopAutomatedStep
 286:RelayTest.c   ****             
 287:RelayTest.c   ****             CyDelay(CONFIRM_TIME);
 443              		.loc 1 287 0
 444 024e 4FF4C870 		mov	r0, #400
 445 0252 FFF7FEFF 		bl	CyDelay
 288:RelayTest.c   ****                 
 289:RelayTest.c   ****             //CurrentTest.TestStep = INITIALIZE_TEST;  
 290:RelayTest.c   ****             CurrentTest.TestStep = VBATT;                
 446              		.loc 1 290 0
 447 0256 1F4B     		ldr	r3, .L42
 448 0258 0722     		movs	r2, #7
 449 025a 5A70     		strb	r2, [r3, #1]
 291:RelayTest.c   ****         break;          
 450              		.loc 1 291 0
 451 025c 8BE0     		b	.L2
 452              	.L11:
 292:RelayTest.c   **** 
 293:RelayTest.c   ****         case VBATT:                                     // Tested and working
 294:RelayTest.c   ****                 
 295:RelayTest.c   ****             RTest_StartAutomatedStep();
 453              		.loc 1 295 0
 454 025e FFF7FEFF 		bl	RTest_StartAutomatedStep
 296:RelayTest.c   ****                 
 297:RelayTest.c   ****             while( (!RTest_Test_Vbatt()) && (RTestStatus[CurrentTest.TestStep] != 'F') )
 455              		.loc 1 297 0
 456 0262 00BF     		nop
 457              	.L32:
 458              		.loc 1 297 0 is_stmt 0 discriminator 2
 459 0264 FFF7FEFF 		bl	RTest_Test_Vbatt
 460 0268 0346     		mov	r3, r0
 461 026a 002B     		cmp	r3, #0
 462 026c 06D1     		bne	.L31
 463              		.loc 1 297 0 discriminator 1
 464 026e 194B     		ldr	r3, .L42
 465 0270 5B78     		ldrb	r3, [r3, #1]	@ zero_extendqisi2
 466 0272 1A46     		mov	r2, r3
 467 0274 184B     		ldr	r3, .L42+4
 468 0276 9B5C     		ldrb	r3, [r3, r2]	@ zero_extendqisi2
 469 0278 462B     		cmp	r3, #70
 470 027a F3D1     		bne	.L32
 471              	.L31:
 298:RelayTest.c   ****             {}    
 299:RelayTest.c   ****             
 300:RelayTest.c   ****             RTest_StopAutomatedStep();
 472              		.loc 1 300 0 is_stmt 1
 473 027c FFF7FEFF 		bl	RTest_StopAutomatedStep
 301:RelayTest.c   ****             
 302:RelayTest.c   ****             CyDelay(CONFIRM_TIME);
 474              		.loc 1 302 0
ARM GAS  C:\Users\MARTHN~1\AppData\Local\Temp\cc9i6CHj.s 			page 15


 475 0280 4FF4C870 		mov	r0, #400
 476 0284 FFF7FEFF 		bl	CyDelay
 303:RelayTest.c   ****              
 304:RelayTest.c   ****             //CurrentTest.TestStep = INITIALIZE_TEST; 
 305:RelayTest.c   ****             CurrentTest.TestStep = BLOCK_CURRENTS;  
 477              		.loc 1 305 0
 478 0288 124B     		ldr	r3, .L42
 479 028a 0822     		movs	r2, #8
 480 028c 5A70     		strb	r2, [r3, #1]
 306:RelayTest.c   ****         break; 
 481              		.loc 1 306 0
 482 028e 72E0     		b	.L2
 483              	.L12:
 307:RelayTest.c   ****          
 308:RelayTest.c   ****         case BLOCK_CURRENTS:                            //*** Tested and working
 309:RelayTest.c   ****             
 310:RelayTest.c   ****             SetRelayOutputs(1);                         // Send command to turn on relay outputs
 484              		.loc 1 310 0
 485 0290 0120     		movs	r0, #1
 486 0292 FFF7FEFF 		bl	SetRelayOutputs
 311:RelayTest.c   ****                 
 312:RelayTest.c   ****             RTest_StartAutomatedStep();
 487              		.loc 1 312 0
 488 0296 FFF7FEFF 		bl	RTest_StartAutomatedStep
 313:RelayTest.c   ****              
 314:RelayTest.c   ****             while( (!RTest_Test_BlockCurrents()) && (RTestStatus[CurrentTest.TestStep] != 'F') )
 489              		.loc 1 314 0
 490 029a 00BF     		nop
 491              	.L34:
 492              		.loc 1 314 0 is_stmt 0 discriminator 2
 493 029c FFF7FEFF 		bl	RTest_Test_BlockCurrents
 494 02a0 0346     		mov	r3, r0
 495 02a2 002B     		cmp	r3, #0
 496 02a4 06D1     		bne	.L33
 497              		.loc 1 314 0 discriminator 1
 498 02a6 0B4B     		ldr	r3, .L42
 499 02a8 5B78     		ldrb	r3, [r3, #1]	@ zero_extendqisi2
 500 02aa 1A46     		mov	r2, r3
 501 02ac 0A4B     		ldr	r3, .L42+4
 502 02ae 9B5C     		ldrb	r3, [r3, r2]	@ zero_extendqisi2
 503 02b0 462B     		cmp	r3, #70
 504 02b2 F3D1     		bne	.L34
 505              	.L33:
 315:RelayTest.c   ****             {} 
 316:RelayTest.c   ****             
 317:RelayTest.c   ****             RTest_StopAutomatedStep();
 506              		.loc 1 317 0 is_stmt 1
 507 02b4 FFF7FEFF 		bl	RTest_StopAutomatedStep
 318:RelayTest.c   ****             
 319:RelayTest.c   ****             CyDelay(CONFIRM_TIME);
 508              		.loc 1 319 0
 509 02b8 4FF4C870 		mov	r0, #400
 510 02bc FFF7FEFF 		bl	CyDelay
 320:RelayTest.c   ****              
 321:RelayTest.c   ****             SetRelayOutputs(0);                         // Send command to turn off relay outputs
 511              		.loc 1 321 0
 512 02c0 0020     		movs	r0, #0
ARM GAS  C:\Users\MARTHN~1\AppData\Local\Temp\cc9i6CHj.s 			page 16


 513 02c2 FFF7FEFF 		bl	SetRelayOutputs
 322:RelayTest.c   ****             
 323:RelayTest.c   ****             CyDelay(100);
 514              		.loc 1 323 0
 515 02c6 6420     		movs	r0, #100
 516 02c8 FFF7FEFF 		bl	CyDelay
 324:RelayTest.c   **** 
 325:RelayTest.c   ****             //CurrentTest.TestStep = INITIALIZE_TEST;
 326:RelayTest.c   ****             CurrentTest.TestStep = GPS;  
 517              		.loc 1 326 0
 518 02cc 014B     		ldr	r3, .L42
 519 02ce 0922     		movs	r2, #9
 520 02d0 5A70     		strb	r2, [r3, #1]
 327:RelayTest.c   ****         break; 
 521              		.loc 1 327 0
 522 02d2 50E0     		b	.L2
 523              	.L43:
 524              		.align	2
 525              	.L42:
 526 02d4 00000000 		.word	CurrentTest
 527 02d8 0C010000 		.word	RTestStatus
 528 02dc 78000000 		.word	pTxPacket_RelaySiren
 529              	.L13:
 328:RelayTest.c   ****           
 329:RelayTest.c   ****         case GPS:         
 330:RelayTest.c   ****                 
 331:RelayTest.c   ****             RTest_StartAutomatedStep();
 530              		.loc 1 331 0
 531 02e0 FFF7FEFF 		bl	RTest_StartAutomatedStep
 332:RelayTest.c   **** //            RTestStatus[CurrentTest.TestStep] = 'B';
 333:RelayTest.c   **** //            CurrentTest.Status = 'B';
 334:RelayTest.c   ****             
 335:RelayTest.c   ****             MUX_CTRL_230400_Write(RTEST_CONT);
 532              		.loc 1 335 0
 533 02e4 0120     		movs	r0, #1
 534 02e6 FFF7FEFF 		bl	MUX_CTRL_230400_Write
 336:RelayTest.c   ****                
 337:RelayTest.c   ****             while( (!VerifyPacket_GPS()) && (RTestStatus[CurrentTest.TestStep] != 'F') )
 535              		.loc 1 337 0
 536 02ea 00BF     		nop
 537              	.L36:
 538              		.loc 1 337 0 is_stmt 0 discriminator 2
 539 02ec FFF7FEFF 		bl	VerifyPacket_GPS
 540 02f0 0346     		mov	r3, r0
 541 02f2 002B     		cmp	r3, #0
 542 02f4 06D1     		bne	.L35
 543              		.loc 1 337 0 discriminator 1
 544 02f6 224B     		ldr	r3, .L44
 545 02f8 5B78     		ldrb	r3, [r3, #1]	@ zero_extendqisi2
 546 02fa 1A46     		mov	r2, r3
 547 02fc 214B     		ldr	r3, .L44+4
 548 02fe 9B5C     		ldrb	r3, [r3, r2]	@ zero_extendqisi2
 549 0300 462B     		cmp	r3, #70
 550 0302 F3D1     		bne	.L36
 551              	.L35:
 338:RelayTest.c   ****             {}        
 339:RelayTest.c   ****             
ARM GAS  C:\Users\MARTHN~1\AppData\Local\Temp\cc9i6CHj.s 			page 17


 340:RelayTest.c   ****             RTest_StopAutomatedStep();
 552              		.loc 1 340 0 is_stmt 1
 553 0304 FFF7FEFF 		bl	RTest_StopAutomatedStep
 341:RelayTest.c   **** //            if(RTestStatus[CurrentTest.TestStep] != 'F')       // If not failed, then pass
 342:RelayTest.c   **** //            {
 343:RelayTest.c   **** //                RTestStatus[CurrentTest.TestStep] = 'P';
 344:RelayTest.c   **** //                CurrentTest.Status = 'P';
 345:RelayTest.c   **** //            }
 346:RelayTest.c   ****             
 347:RelayTest.c   ****             CyDelay(CONFIRM_TIME);
 554              		.loc 1 347 0
 555 0308 4FF4C870 		mov	r0, #400
 556 030c FFF7FEFF 		bl	CyDelay
 348:RelayTest.c   ****              
 349:RelayTest.c   ****             //CurrentTest.TestStep = INITIALIZE_TEST; 
 350:RelayTest.c   ****             CurrentTest.TestStep = PASS;
 557              		.loc 1 350 0
 558 0310 1B4B     		ldr	r3, .L44
 559 0312 0A22     		movs	r2, #10
 560 0314 5A70     		strb	r2, [r3, #1]
 351:RelayTest.c   ****         break;   
 561              		.loc 1 351 0
 562 0316 2EE0     		b	.L2
 563              	.L14:
 564              	.LBB4:
 352:RelayTest.c   ****             
 353:RelayTest.c   ****         case PASS:  
 354:RelayTest.c   ****             
 355:RelayTest.c   ****             for(uint8 i=0;i<(NUMBER_TEST_STEPS-1);i++)
 565              		.loc 1 355 0
 566 0318 0023     		movs	r3, #0
 567 031a 7B71     		strb	r3, [r7, #5]
 568 031c 10E0     		b	.L37
 569              	.L39:
 356:RelayTest.c   ****             {
 357:RelayTest.c   ****                 if(RTestStatus[i] != 'P')
 570              		.loc 1 357 0
 571 031e 7B79     		ldrb	r3, [r7, #5]	@ zero_extendqisi2
 572 0320 184A     		ldr	r2, .L44+4
 573 0322 D35C     		ldrb	r3, [r2, r3]	@ zero_extendqisi2
 574 0324 502B     		cmp	r3, #80
 575 0326 08D0     		beq	.L38
 358:RelayTest.c   ****                 {
 359:RelayTest.c   ****                     RTestStatus[CurrentTest.TestStep] = 'f';
 576              		.loc 1 359 0
 577 0328 154B     		ldr	r3, .L44
 578 032a 5B78     		ldrb	r3, [r3, #1]	@ zero_extendqisi2
 579 032c 1A46     		mov	r2, r3
 580 032e 154B     		ldr	r3, .L44+4
 581 0330 6621     		movs	r1, #102
 582 0332 9954     		strb	r1, [r3, r2]
 360:RelayTest.c   ****                     CurrentTest.Status = 'f';                      
 583              		.loc 1 360 0
 584 0334 124B     		ldr	r3, .L44
 585 0336 6622     		movs	r2, #102
 586 0338 9A70     		strb	r2, [r3, #2]
 587              	.L38:
ARM GAS  C:\Users\MARTHN~1\AppData\Local\Temp\cc9i6CHj.s 			page 18


 355:RelayTest.c   ****             {
 588              		.loc 1 355 0 discriminator 2
 589 033a 7B79     		ldrb	r3, [r7, #5]	@ zero_extendqisi2
 590 033c 0133     		adds	r3, r3, #1
 591 033e 7B71     		strb	r3, [r7, #5]
 592              	.L37:
 355:RelayTest.c   ****             {
 593              		.loc 1 355 0 is_stmt 0 discriminator 1
 594 0340 7B79     		ldrb	r3, [r7, #5]	@ zero_extendqisi2
 595 0342 092B     		cmp	r3, #9
 596 0344 EBD9     		bls	.L39
 597              	.LBE4:
 361:RelayTest.c   ****                 }    
 362:RelayTest.c   ****             }
 363:RelayTest.c   ****  
 364:RelayTest.c   ****             if(RTestStatus[CurrentTest.TestStep] != 'f')
 598              		.loc 1 364 0 is_stmt 1
 599 0346 0E4B     		ldr	r3, .L44
 600 0348 5B78     		ldrb	r3, [r3, #1]	@ zero_extendqisi2
 601 034a 1A46     		mov	r2, r3
 602 034c 0D4B     		ldr	r3, .L44+4
 603 034e 9B5C     		ldrb	r3, [r3, r2]	@ zero_extendqisi2
 604 0350 662B     		cmp	r3, #102
 605 0352 08D0     		beq	.L40
 365:RelayTest.c   ****             {
 366:RelayTest.c   ****                 RTestStatus[CurrentTest.TestStep] = 'p';
 606              		.loc 1 366 0
 607 0354 0A4B     		ldr	r3, .L44
 608 0356 5B78     		ldrb	r3, [r3, #1]	@ zero_extendqisi2
 609 0358 1A46     		mov	r2, r3
 610 035a 0A4B     		ldr	r3, .L44+4
 611 035c 7021     		movs	r1, #112
 612 035e 9954     		strb	r1, [r3, r2]
 367:RelayTest.c   ****                 CurrentTest.Status = 'p'; 
 613              		.loc 1 367 0
 614 0360 074B     		ldr	r3, .L44
 615 0362 7022     		movs	r2, #112
 616 0364 9A70     		strb	r2, [r3, #2]
 617              	.L40:
 368:RelayTest.c   ****             }
 369:RelayTest.c   ****             
 370:RelayTest.c   ****             //while(1);
 371:RelayTest.c   ****             
 372:RelayTest.c   ****             CyDelay(1000);
 618              		.loc 1 372 0
 619 0366 4FF47A70 		mov	r0, #1000
 620 036a FFF7FEFF 		bl	CyDelay
 373:RelayTest.c   ****             CurrentTest.TestStep = INITIALIZE_TEST;
 621              		.loc 1 373 0
 622 036e 044B     		ldr	r3, .L44
 623 0370 0022     		movs	r2, #0
 624 0372 5A70     		strb	r2, [r3, #1]
 374:RelayTest.c   **** 
 375:RelayTest.c   ****         break;          
 625              		.loc 1 375 0
 626 0374 00BF     		nop
 627              	.L2:
ARM GAS  C:\Users\MARTHN~1\AppData\Local\Temp\cc9i6CHj.s 			page 19


 376:RelayTest.c   ****            
 377:RelayTest.c   ****     }
 378:RelayTest.c   ****       
 379:RelayTest.c   ****     return(0);
 628              		.loc 1 379 0
 629 0376 0023     		movs	r3, #0
 380:RelayTest.c   ****     
 381:RelayTest.c   **** }
 630              		.loc 1 381 0
 631 0378 1846     		mov	r0, r3
 632 037a 0837     		adds	r7, r7, #8
 633              		.cfi_def_cfa_offset 8
 634 037c BD46     		mov	sp, r7
 635              		.cfi_def_cfa_register 13
 636              		@ sp needed
 637 037e 80BD     		pop	{r7, pc}
 638              	.L45:
 639              		.align	2
 640              	.L44:
 641 0380 00000000 		.word	CurrentTest
 642 0384 0C010000 		.word	RTestStatus
 643              		.cfi_endproc
 644              	.LFE63:
 645              		.size	RelayTest, .-RelayTest
 646              		.section	.text.RTest_Test_Outputs,"ax",%progbits
 647              		.align	2
 648              		.global	RTest_Test_Outputs
 649              		.thumb
 650              		.thumb_func
 651              		.type	RTest_Test_Outputs, %function
 652              	RTest_Test_Outputs:
 653              	.LFB64:
 382:RelayTest.c   **** 
 383:RelayTest.c   **** /* 230400bps ********************************************************************************
 384:RelayTest.c   **** *  Send 'P' packet (or 'I' packet)   (controller to relay)  - turn on all relay outputs
 385:RelayTest.c   **** *  Read Hardware                            - read each input, verify all are active
 386:RelayTest.c   **** *  Return: Pass/Fail
 387:RelayTest.c   **** *********************************************************************************************/
 388:RelayTest.c   **** uint8 RTest_Test_Outputs(void)
 389:RelayTest.c   **** {
 654              		.loc 1 389 0
 655              		.cfi_startproc
 656              		@ args = 0, pretend = 0, frame = 16
 657              		@ frame_needed = 1, uses_anonymous_args = 0
 658 0000 80B5     		push	{r7, lr}
 659              		.cfi_def_cfa_offset 8
 660              		.cfi_offset 7, -8
 661              		.cfi_offset 14, -4
 662 0002 84B0     		sub	sp, sp, #16
 663              		.cfi_def_cfa_offset 24
 664 0004 00AF     		add	r7, sp, #0
 665              		.cfi_def_cfa_register 7
 390:RelayTest.c   **** 
 391:RelayTest.c   ****     uint32 OutputsState = 0;
 666              		.loc 1 391 0
 667 0006 0023     		movs	r3, #0
 668 0008 FB60     		str	r3, [r7, #12]
ARM GAS  C:\Users\MARTHN~1\AppData\Local\Temp\cc9i6CHj.s 			page 20


 392:RelayTest.c   ****     uint32 testval = 0;
 669              		.loc 1 392 0
 670 000a 0023     		movs	r3, #0
 671 000c 7B60     		str	r3, [r7, #4]
 393:RelayTest.c   ****     
 394:RelayTest.c   ****     SetRelayOutputs(1);                                                     // Send command to turn
 672              		.loc 1 394 0
 673 000e 0120     		movs	r0, #1
 674 0010 FFF7FEFF 		bl	SetRelayOutputs
 675              	.LBB5:
 395:RelayTest.c   **** 
 396:RelayTest.c   ****     for (uint8 channel=0; channel<32; channel++)                            // Address and read cha
 676              		.loc 1 396 0
 677 0014 0023     		movs	r3, #0
 678 0016 FB72     		strb	r3, [r7, #11]
 679 0018 14E0     		b	.L47
 680              	.L48:
 397:RelayTest.c   ****     {
 398:RelayTest.c   ****         selectADCChannelMux(channel);                                       //*** This needs to be 
 681              		.loc 1 398 0 discriminator 3
 682 001a FB7A     		ldrb	r3, [r7, #11]	@ zero_extendqisi2
 683 001c 1846     		mov	r0, r3
 684 001e FFF7FEFF 		bl	selectADCChannelMux
 399:RelayTest.c   ****         CyDelay(1);
 685              		.loc 1 399 0 discriminator 3
 686 0022 0120     		movs	r0, #1
 687 0024 FFF7FEFF 		bl	CyDelay
 400:RelayTest.c   ****         testval = RTest_DEMUX_COM_Read();
 688              		.loc 1 400 0 discriminator 3
 689 0028 FFF7FEFF 		bl	RTest_DEMUX_COM_Read
 690 002c 0346     		mov	r3, r0
 691 002e 7B60     		str	r3, [r7, #4]
 401:RelayTest.c   **** 
 402:RelayTest.c   ****         OutputsState = ( OutputsState | (testval << channel) );             // Read RTest_INPUT_DEM
 692              		.loc 1 402 0 discriminator 3
 693 0030 FB7A     		ldrb	r3, [r7, #11]	@ zero_extendqisi2
 694 0032 7A68     		ldr	r2, [r7, #4]
 695 0034 02FA03F3 		lsl	r3, r2, r3
 696 0038 FA68     		ldr	r2, [r7, #12]
 697 003a 1343     		orrs	r3, r3, r2
 698 003c FB60     		str	r3, [r7, #12]
 396:RelayTest.c   ****     {
 699              		.loc 1 396 0 discriminator 3
 700 003e FB7A     		ldrb	r3, [r7, #11]	@ zero_extendqisi2
 701 0040 0133     		adds	r3, r3, #1
 702 0042 FB72     		strb	r3, [r7, #11]
 703              	.L47:
 396:RelayTest.c   ****     {
 704              		.loc 1 396 0 is_stmt 0 discriminator 1
 705 0044 FB7A     		ldrb	r3, [r7, #11]	@ zero_extendqisi2
 706 0046 1F2B     		cmp	r3, #31
 707 0048 E7D9     		bls	.L48
 708              	.LBE5:
 403:RelayTest.c   ****     }
 404:RelayTest.c   ****     
 405:RelayTest.c   ****     SetRelayOutputs(0);                                                     // Send command to turn
 709              		.loc 1 405 0 is_stmt 1
ARM GAS  C:\Users\MARTHN~1\AppData\Local\Temp\cc9i6CHj.s 			page 21


 710 004a 0020     		movs	r0, #0
 711 004c FFF7FEFF 		bl	SetRelayOutputs
 406:RelayTest.c   ****     
 407:RelayTest.c   ****     if(OutputsState == 0xFFFFFFFF)
 712              		.loc 1 407 0
 713 0050 FB68     		ldr	r3, [r7, #12]
 714 0052 B3F1FF3F 		cmp	r3, #-1
 715 0056 01D1     		bne	.L49
 408:RelayTest.c   ****         return(1);                                                          // If all outputs are t
 716              		.loc 1 408 0
 717 0058 0123     		movs	r3, #1
 718 005a 00E0     		b	.L50
 719              	.L49:
 409:RelayTest.c   ****     else
 410:RelayTest.c   ****         return(0);                                                          // If not pass, then re
 720              		.loc 1 410 0
 721 005c 0023     		movs	r3, #0
 722              	.L50:
 411:RelayTest.c   **** }
 723              		.loc 1 411 0
 724 005e 1846     		mov	r0, r3
 725 0060 1037     		adds	r7, r7, #16
 726              		.cfi_def_cfa_offset 8
 727 0062 BD46     		mov	sp, r7
 728              		.cfi_def_cfa_register 13
 729              		@ sp needed
 730 0064 80BD     		pop	{r7, pc}
 731              		.cfi_endproc
 732              	.LFE64:
 733              		.size	RTest_Test_Outputs, .-RTest_Test_Outputs
 734 0066 00BF     		.section	.text.RTest_Test_DataLink,"ax",%progbits
 735              		.align	2
 736              		.global	RTest_Test_DataLink
 737              		.thumb
 738              		.thumb_func
 739              		.type	RTest_Test_DataLink, %function
 740              	RTest_Test_DataLink:
 741              	.LFB65:
 412:RelayTest.c   **** 
 413:RelayTest.c   **** /* 230400/115200bps **************************************************************************
 414:RelayTest.c   **** *  230400 - Tx - Send 'S' packet   (controller to relay/siren)    - turn on all relay outputs
 415:RelayTest.c   **** *  115200 - Rx - Read 'S' packet   (relay to datalink device)     - verify successful packet recept
 416:RelayTest.c   **** *  Return: Pass/Fail
 417:RelayTest.c   **** *********************************************************************************************/
 418:RelayTest.c   **** uint8 RTest_Test_DataLink(void)
 419:RelayTest.c   **** {
 742              		.loc 1 419 0
 743              		.cfi_startproc
 744              		@ args = 0, pretend = 0, frame = 0
 745              		@ frame_needed = 1, uses_anonymous_args = 0
 746 0000 80B5     		push	{r7, lr}
 747              		.cfi_def_cfa_offset 8
 748              		.cfi_offset 7, -8
 749              		.cfi_offset 14, -4
 750 0002 00AF     		add	r7, sp, #0
 751              		.cfi_def_cfa_register 7
 420:RelayTest.c   ****     
ARM GAS  C:\Users\MARTHN~1\AppData\Local\Temp\cc9i6CHj.s 			page 22


 421:RelayTest.c   ****     MUX_CTRL_115200_Write(RTEST_DLINK1);            //Select the RTest_RS485_DLink1_RX channel 
 752              		.loc 1 421 0
 753 0004 0020     		movs	r0, #0
 754 0006 FFF7FEFF 		bl	MUX_CTRL_115200_Write
 422:RelayTest.c   ****     while( (!VerifyPacket_115200(RTEST_DLINK)) && (RTestStatus[CurrentTest.TestStep] != 'F') )    /
 755              		.loc 1 422 0
 756 000a 00BF     		nop
 757              	.L53:
 758              		.loc 1 422 0 is_stmt 0 discriminator 2
 759 000c 0020     		movs	r0, #0
 760 000e FFF7FEFF 		bl	VerifyPacket_115200
 761 0012 0346     		mov	r3, r0
 762 0014 002B     		cmp	r3, #0
 763 0016 06D1     		bne	.L52
 764              		.loc 1 422 0 discriminator 1
 765 0018 114B     		ldr	r3, .L58
 766 001a 5B78     		ldrb	r3, [r3, #1]	@ zero_extendqisi2
 767 001c 1A46     		mov	r2, r3
 768 001e 114B     		ldr	r3, .L58+4
 769 0020 9B5C     		ldrb	r3, [r3, r2]	@ zero_extendqisi2
 770 0022 462B     		cmp	r3, #70
 771 0024 F2D1     		bne	.L53
 772              	.L52:
 423:RelayTest.c   ****     {}  
 424:RelayTest.c   ****     
 425:RelayTest.c   ****     MUX_CTRL_115200_Write(RTEST_DLINK2);            //Select the RTest_RS485_DLink2_RX channel     
 773              		.loc 1 425 0 is_stmt 1
 774 0026 0120     		movs	r0, #1
 775 0028 FFF7FEFF 		bl	MUX_CTRL_115200_Write
 426:RelayTest.c   ****     while( (!VerifyPacket_115200(RTEST_DLINK)) && (RTestStatus[CurrentTest.TestStep] != 'F') )    /
 776              		.loc 1 426 0
 777 002c 00BF     		nop
 778              	.L55:
 779              		.loc 1 426 0 is_stmt 0 discriminator 2
 780 002e 0020     		movs	r0, #0
 781 0030 FFF7FEFF 		bl	VerifyPacket_115200
 782 0034 0346     		mov	r3, r0
 783 0036 002B     		cmp	r3, #0
 784 0038 06D1     		bne	.L54
 785              		.loc 1 426 0 discriminator 1
 786 003a 094B     		ldr	r3, .L58
 787 003c 5B78     		ldrb	r3, [r3, #1]	@ zero_extendqisi2
 788 003e 1A46     		mov	r2, r3
 789 0040 084B     		ldr	r3, .L58+4
 790 0042 9B5C     		ldrb	r3, [r3, r2]	@ zero_extendqisi2
 791 0044 462B     		cmp	r3, #70
 792 0046 F2D1     		bne	.L55
 793              	.L54:
 427:RelayTest.c   ****     {} 
 428:RelayTest.c   ****     
 429:RelayTest.c   ****     if(RTestStatus[CurrentTest.TestStep] != 'F')
 794              		.loc 1 429 0 is_stmt 1
 795 0048 054B     		ldr	r3, .L58
 796 004a 5B78     		ldrb	r3, [r3, #1]	@ zero_extendqisi2
 797 004c 1A46     		mov	r2, r3
 798 004e 054B     		ldr	r3, .L58+4
 799 0050 9B5C     		ldrb	r3, [r3, r2]	@ zero_extendqisi2
ARM GAS  C:\Users\MARTHN~1\AppData\Local\Temp\cc9i6CHj.s 			page 23


 800 0052 462B     		cmp	r3, #70
 801 0054 01D0     		beq	.L56
 430:RelayTest.c   ****         return(1);                                      // If both packets get verified, then retur
 802              		.loc 1 430 0
 803 0056 0123     		movs	r3, #1
 804 0058 00E0     		b	.L57
 805              	.L56:
 431:RelayTest.c   ****     else
 432:RelayTest.c   ****         return(0); 
 806              		.loc 1 432 0
 807 005a 0023     		movs	r3, #0
 808              	.L57:
 433:RelayTest.c   **** }
 809              		.loc 1 433 0
 810 005c 1846     		mov	r0, r3
 811 005e 80BD     		pop	{r7, pc}
 812              	.L59:
 813              		.align	2
 814              	.L58:
 815 0060 00000000 		.word	CurrentTest
 816 0064 0C010000 		.word	RTestStatus
 817              		.cfi_endproc
 818              	.LFE65:
 819              		.size	RTest_Test_DataLink, .-RTest_Test_DataLink
 820              		.section	.text.RTest_Test_QuadPorts,"ax",%progbits
 821              		.align	2
 822              		.global	RTest_Test_QuadPorts
 823              		.thumb
 824              		.thumb_func
 825              		.type	RTest_Test_QuadPorts, %function
 826              	RTest_Test_QuadPorts:
 827              	.LFB66:
 434:RelayTest.c   **** 
 435:RelayTest.c   **** /* 460800bps ********************************************************************************
 436:RelayTest.c   **** *  Send 'L' packet   (controller to relay)
 437:RelayTest.c   **** *  Read 'L' packet   (relay to quad device)  - verify successful packet reception
 438:RelayTest.c   **** *  Return: Pass/Fail
 439:RelayTest.c   **** *********************************************************************************************/
 440:RelayTest.c   **** uint8 RTest_Test_QuadPorts(void)
 441:RelayTest.c   **** {
 828              		.loc 1 441 0
 829              		.cfi_startproc
 830              		@ args = 0, pretend = 0, frame = 8
 831              		@ frame_needed = 1, uses_anonymous_args = 0
 832 0000 80B5     		push	{r7, lr}
 833              		.cfi_def_cfa_offset 8
 834              		.cfi_offset 7, -8
 835              		.cfi_offset 14, -4
 836 0002 82B0     		sub	sp, sp, #8
 837              		.cfi_def_cfa_offset 16
 838 0004 00AF     		add	r7, sp, #0
 839              		.cfi_def_cfa_register 7
 840              	.LBB6:
 442:RelayTest.c   ****     for(uint8 i=0;i<8;i++)
 841              		.loc 1 442 0
 842 0006 0023     		movs	r3, #0
 843 0008 FB71     		strb	r3, [r7, #7]
ARM GAS  C:\Users\MARTHN~1\AppData\Local\Temp\cc9i6CHj.s 			page 24


 844 000a 16E0     		b	.L61
 845              	.L64:
 443:RelayTest.c   ****     {
 444:RelayTest.c   ****         MUX_CTRL_460800_Write(RTEST_QUAD_1 + i);                // Select RX channel         
 846              		.loc 1 444 0
 847 000c FB79     		ldrb	r3, [r7, #7]
 848 000e 0233     		adds	r3, r3, #2
 849 0010 DBB2     		uxtb	r3, r3
 850 0012 1846     		mov	r0, r3
 851 0014 FFF7FEFF 		bl	MUX_CTRL_460800_Write
 445:RelayTest.c   ****         while( (!VerifyPacket_460800(CTEST_RTEST_QUAD)) && (RTestStatus[CurrentTest.TestStep] != 'F
 852              		.loc 1 445 0
 853 0018 00BF     		nop
 854              	.L63:
 855              		.loc 1 445 0 is_stmt 0 discriminator 2
 856 001a 0120     		movs	r0, #1
 857 001c FFF7FEFF 		bl	VerifyPacket_460800
 858 0020 0346     		mov	r3, r0
 859 0022 002B     		cmp	r3, #0
 860 0024 06D1     		bne	.L62
 861              		.loc 1 445 0 discriminator 1
 862 0026 094B     		ldr	r3, .L66
 863 0028 5B78     		ldrb	r3, [r3, #1]	@ zero_extendqisi2
 864 002a 1A46     		mov	r2, r3
 865 002c 084B     		ldr	r3, .L66+4
 866 002e 9B5C     		ldrb	r3, [r3, r2]	@ zero_extendqisi2
 867 0030 462B     		cmp	r3, #70
 868 0032 F2D1     		bne	.L63
 869              	.L62:
 442:RelayTest.c   ****     for(uint8 i=0;i<8;i++)
 870              		.loc 1 442 0 is_stmt 1 discriminator 2
 871 0034 FB79     		ldrb	r3, [r7, #7]	@ zero_extendqisi2
 872 0036 0133     		adds	r3, r3, #1
 873 0038 FB71     		strb	r3, [r7, #7]
 874              	.L61:
 442:RelayTest.c   ****     for(uint8 i=0;i<8;i++)
 875              		.loc 1 442 0 is_stmt 0 discriminator 1
 876 003a FB79     		ldrb	r3, [r7, #7]	@ zero_extendqisi2
 877 003c 072B     		cmp	r3, #7
 878 003e E5D9     		bls	.L64
 879              	.LBE6:
 446:RelayTest.c   ****         {}
 447:RelayTest.c   ****     }
 448:RelayTest.c   ****     
 449:RelayTest.c   ****     return(1);
 880              		.loc 1 449 0 is_stmt 1
 881 0040 0123     		movs	r3, #1
 450:RelayTest.c   **** 
 451:RelayTest.c   **** }
 882              		.loc 1 451 0
 883 0042 1846     		mov	r0, r3
 884 0044 0837     		adds	r7, r7, #8
 885              		.cfi_def_cfa_offset 8
 886 0046 BD46     		mov	sp, r7
 887              		.cfi_def_cfa_register 13
 888              		@ sp needed
 889 0048 80BD     		pop	{r7, pc}
ARM GAS  C:\Users\MARTHN~1\AppData\Local\Temp\cc9i6CHj.s 			page 25


 890              	.L67:
 891 004a 00BF     		.align	2
 892              	.L66:
 893 004c 00000000 		.word	CurrentTest
 894 0050 0C010000 		.word	RTestStatus
 895              		.cfi_endproc
 896              	.LFE66:
 897              		.size	RTest_Test_QuadPorts, .-RTest_Test_QuadPorts
 898              		.section	.text.RTest_Test_UART_Siren,"ax",%progbits
 899              		.align	2
 900              		.global	RTest_Test_UART_Siren
 901              		.thumb
 902              		.thumb_func
 903              		.type	RTest_Test_UART_Siren, %function
 904              	RTest_Test_UART_Siren:
 905              	.LFB67:
 452:RelayTest.c   **** 
 453:RelayTest.c   **** //*** This needs some work
 454:RelayTest.c   **** /* 230400bps ********************************************************************************
 455:RelayTest.c   **** *  ***Send 'H' packet   (siren to relay)
 456:RelayTest.c   **** *  ***Read 'D' packet   (relay to controller)   - verify successful packet reception
 457:RelayTest.c   **** *  Return: Pass/Fail
 458:RelayTest.c   **** *********************************************************************************************/
 459:RelayTest.c   **** uint8 RTest_Test_UART_Siren(void)
 460:RelayTest.c   **** {
 906              		.loc 1 460 0
 907              		.cfi_startproc
 908              		@ args = 0, pretend = 0, frame = 0
 909              		@ frame_needed = 1, uses_anonymous_args = 0
 910 0000 80B5     		push	{r7, lr}
 911              		.cfi_def_cfa_offset 8
 912              		.cfi_offset 7, -8
 913              		.cfi_offset 14, -4
 914 0002 00AF     		add	r7, sp, #0
 915              		.cfi_def_cfa_register 7
 461:RelayTest.c   ****            
 462:RelayTest.c   ****     pTxPacket_H = getTxPacket_H();                          // Tx - Send a 'H' packet from siren to
 916              		.loc 1 462 0
 917 0004 FFF7FEFF 		bl	getTxPacket_H
 918 0008 0246     		mov	r2, r0
 919 000a 264B     		ldr	r3, .L74
 920 000c 1A60     		str	r2, [r3]
 463:RelayTest.c   ****     pTxPacket_H->Payload.SirenFirm_0 = 's';
 921              		.loc 1 463 0
 922 000e 254B     		ldr	r3, .L74
 923 0010 1B68     		ldr	r3, [r3]
 924 0012 7322     		movs	r2, #115
 925 0014 1A70     		strb	r2, [r3]
 464:RelayTest.c   ****     pTxPacket_H->Payload.SirenFirm_1 = 's';
 926              		.loc 1 464 0
 927 0016 234B     		ldr	r3, .L74
 928 0018 1B68     		ldr	r3, [r3]
 929 001a 7322     		movs	r2, #115
 930 001c 5A70     		strb	r2, [r3, #1]
 465:RelayTest.c   ****     pTxPacket_H->Payload.SirenFirm_2 = 's';
 931              		.loc 1 465 0
 932 001e 214B     		ldr	r3, .L74
ARM GAS  C:\Users\MARTHN~1\AppData\Local\Temp\cc9i6CHj.s 			page 26


 933 0020 1B68     		ldr	r3, [r3]
 934 0022 7322     		movs	r2, #115
 935 0024 9A70     		strb	r2, [r3, #2]
 466:RelayTest.c   ****     pTxPacket_H->Payload.Speaker1_Overcurrent = 's';
 936              		.loc 1 466 0
 937 0026 1F4B     		ldr	r3, .L74
 938 0028 1B68     		ldr	r3, [r3]
 939 002a 7322     		movs	r2, #115
 940 002c DA70     		strb	r2, [r3, #3]
 467:RelayTest.c   ****     pTxPacket_H->Payload.Speaker2_Overcurrent = 's';
 941              		.loc 1 467 0
 942 002e 1D4B     		ldr	r3, .L74
 943 0030 1B68     		ldr	r3, [r3]
 944 0032 7322     		movs	r2, #115
 945 0034 1A71     		strb	r2, [r3, #4]
 468:RelayTest.c   **** 
 469:RelayTest.c   ****     MUX_CTRL_230400_Write(RTEST_CONT);                      // Rx - Verify data sent from relay to 
 946              		.loc 1 469 0
 947 0036 0120     		movs	r0, #1
 948 0038 FFF7FEFF 		bl	MUX_CTRL_230400_Write
 470:RelayTest.c   ****     
 471:RelayTest.c   ****     pRxPacket_Relay = getRxPacket_RelaySiren();                              // Rx - Get pointers t
 949              		.loc 1 471 0
 950 003c FFF7FEFF 		bl	getRxPacket_RelaySiren
 951 0040 0246     		mov	r2, r0
 952 0042 194B     		ldr	r3, .L74+4
 953 0044 1A60     		str	r2, [r3]
 472:RelayTest.c   ****     while(  ( (pRxPacket_RelaySiren->Payload.SirenFirm_0 != 's' ) &&           // Wait for the pack
 954              		.loc 1 472 0
 955 0046 00BF     		nop
 956              	.L70:
 957 0048 184B     		ldr	r3, .L74+8
 958 004a 1B68     		ldr	r3, [r3]
 959 004c 1B7A     		ldrb	r3, [r3, #8]	@ zero_extendqisi2
 960 004e 732B     		cmp	r3, #115
 961 0050 10D0     		beq	.L69
 473:RelayTest.c   ****             (pRxPacket_RelaySiren->Payload.SirenFirm_1 != 's' ) &&
 962              		.loc 1 473 0 discriminator 1
 963 0052 164B     		ldr	r3, .L74+8
 964 0054 1B68     		ldr	r3, [r3]
 965 0056 5B7A     		ldrb	r3, [r3, #9]	@ zero_extendqisi2
 472:RelayTest.c   ****     while(  ( (pRxPacket_RelaySiren->Payload.SirenFirm_0 != 's' ) &&           // Wait for the pack
 966              		.loc 1 472 0 discriminator 1
 967 0058 732B     		cmp	r3, #115
 968 005a 0BD0     		beq	.L69
 474:RelayTest.c   ****             (pRxPacket_RelaySiren->Payload.SirenFirm_2 != 's' ) //&&
 969              		.loc 1 474 0
 970 005c 134B     		ldr	r3, .L74+8
 971 005e 1B68     		ldr	r3, [r3]
 972 0060 9B7A     		ldrb	r3, [r3, #10]	@ zero_extendqisi2
 473:RelayTest.c   ****             (pRxPacket_RelaySiren->Payload.SirenFirm_1 != 's' ) &&
 973              		.loc 1 473 0
 974 0062 732B     		cmp	r3, #115
 975 0064 06D0     		beq	.L69
 475:RelayTest.c   ****             //(pRxPacket_RelaySiren->Payload.Speaker1_Overcurrent != 's' ) &&
 476:RelayTest.c   ****             //(pRxPacket_RelaySiren->Payload.Speaker2_Overcurrent != 's' )
 477:RelayTest.c   ****             ) && (RTestStatus[CurrentTest.TestStep] != 'F') )
ARM GAS  C:\Users\MARTHN~1\AppData\Local\Temp\cc9i6CHj.s 			page 27


 976              		.loc 1 477 0
 977 0066 124B     		ldr	r3, .L74+12
 978 0068 5B78     		ldrb	r3, [r3, #1]	@ zero_extendqisi2
 979 006a 1A46     		mov	r2, r3
 980 006c 114B     		ldr	r3, .L74+16
 981 006e 9B5C     		ldrb	r3, [r3, r2]	@ zero_extendqisi2
 982 0070 462B     		cmp	r3, #70
 983 0072 E9D1     		bne	.L70
 984              	.L69:
 478:RelayTest.c   ****     {}
 479:RelayTest.c   ****           
 480:RelayTest.c   **** 
 481:RelayTest.c   ****     DEMUX_CTRL_230400_Write(RTEST_CONT);                            // Tx - Send a 'S' packet to re
 985              		.loc 1 481 0
 986 0074 0120     		movs	r0, #1
 987 0076 FFF7FEFF 		bl	DEMUX_CTRL_230400_Write
 482:RelayTest.c   ****     
 483:RelayTest.c   ****     MUX_CTRL_230400_Write(RTEST_SIREN);                             // Rx - Verify a 'S' packet is 
 988              		.loc 1 483 0
 989 007a 0220     		movs	r0, #2
 990 007c FFF7FEFF 		bl	MUX_CTRL_230400_Write
 484:RelayTest.c   ****     while( (!VerifyPacket_230400(STEST_RELAY)) && (RTestStatus[CurrentTest.TestStep] != 'F') )
 991              		.loc 1 484 0
 992 0080 00BF     		nop
 993              	.L72:
 994              		.loc 1 484 0 is_stmt 0 discriminator 2
 995 0082 0320     		movs	r0, #3
 996 0084 FFF7FEFF 		bl	VerifyPacket_230400
 997 0088 0346     		mov	r3, r0
 998 008a 002B     		cmp	r3, #0
 999 008c 06D1     		bne	.L71
 1000              		.loc 1 484 0 discriminator 1
 1001 008e 084B     		ldr	r3, .L74+12
 1002 0090 5B78     		ldrb	r3, [r3, #1]	@ zero_extendqisi2
 1003 0092 1A46     		mov	r2, r3
 1004 0094 074B     		ldr	r3, .L74+16
 1005 0096 9B5C     		ldrb	r3, [r3, r2]	@ zero_extendqisi2
 1006 0098 462B     		cmp	r3, #70
 1007 009a F2D1     		bne	.L72
 1008              	.L71:
 485:RelayTest.c   ****     {}
 486:RelayTest.c   **** 
 487:RelayTest.c   ****     return(1);
 1009              		.loc 1 487 0 is_stmt 1
 1010 009c 0123     		movs	r3, #1
 488:RelayTest.c   **** }
 1011              		.loc 1 488 0
 1012 009e 1846     		mov	r0, r3
 1013 00a0 80BD     		pop	{r7, pc}
 1014              	.L75:
 1015 00a2 00BF     		.align	2
 1016              	.L74:
 1017 00a4 84000000 		.word	pTxPacket_H
 1018 00a8 10000000 		.word	pRxPacket_Relay
 1019 00ac 24000000 		.word	pRxPacket_RelaySiren
 1020 00b0 00000000 		.word	CurrentTest
 1021 00b4 0C010000 		.word	RTestStatus
ARM GAS  C:\Users\MARTHN~1\AppData\Local\Temp\cc9i6CHj.s 			page 28


 1022              		.cfi_endproc
 1023              	.LFE67:
 1024              		.size	RTest_Test_UART_Siren, .-RTest_Test_UART_Siren
 1025              		.section	.text.RTest_Test_Inputs,"ax",%progbits
 1026              		.align	2
 1027              		.global	RTest_Test_Inputs
 1028              		.thumb
 1029              		.thumb_func
 1030              		.type	RTest_Test_Inputs, %function
 1031              	RTest_Test_Inputs:
 1032              	.LFB68:
 489:RelayTest.c   **** 
 490:RelayTest.c   **** 
 491:RelayTest.c   **** /* 230400bps *****************************************************************************
 492:RelayTest.c   **** *  Send 'P' packet (controller to relay) - set input logic  
 493:RelayTest.c   **** *  Read 'D' packet (relay to controller) - verify the 'RelayInputs' byte 
 494:RelayTest.c   **** *  Return: Pass/Fail
 495:RelayTest.c   **** ******************************************************************************************/
 496:RelayTest.c   **** uint8 RTest_Test_Inputs(void)
 497:RelayTest.c   **** {
 1033              		.loc 1 497 0
 1034              		.cfi_startproc
 1035              		@ args = 0, pretend = 0, frame = 0
 1036              		@ frame_needed = 1, uses_anonymous_args = 0
 1037 0000 80B5     		push	{r7, lr}
 1038              		.cfi_def_cfa_offset 8
 1039              		.cfi_offset 7, -8
 1040              		.cfi_offset 14, -4
 1041 0002 00AF     		add	r7, sp, #0
 1042              		.cfi_def_cfa_register 7
 498:RelayTest.c   ****     
 499:RelayTest.c   **** //    DEMUX_CTRL_230400_Write(RTEST_CONT);                // Tx - Send a 'P' packet to set input lo
 500:RelayTest.c   **** //    pTxPacket_RelaySiren = getTxPacket_RelaySiren();   
 501:RelayTest.c   **** //    pTxPacket_RelaySiren->Payload.HiLoInputLogic = 0x00; 
 502:RelayTest.c   **** //    
 503:RelayTest.c   **** //    SetRelayInputs(0);
 504:RelayTest.c   **** //    
 505:RelayTest.c   **** //    MUX_CTRL_230400_Write(RTEST_CONT);                  // Rx - Verify all inputs are deactivated
 506:RelayTest.c   **** //    pRxPacket_Relay = getRxPacket_Relay();              
 507:RelayTest.c   **** //    if(pRxPacket_Relay->Payload.RelayInputs != 0x00) 
 508:RelayTest.c   **** //        return(0);
 509:RelayTest.c   ****     
 510:RelayTest.c   ****     DEMUX_CTRL_230400_Write(RTEST_CONT);                // Tx - Send a 'P' packet to set input logi
 1043              		.loc 1 510 0
 1044 0004 0120     		movs	r0, #1
 1045 0006 FFF7FEFF 		bl	DEMUX_CTRL_230400_Write
 511:RelayTest.c   ****     pTxPacket_RelaySiren = getTxPacket_RelaySiren();  
 1046              		.loc 1 511 0
 1047 000a FFF7FEFF 		bl	getTxPacket_RelaySiren
 1048 000e 0246     		mov	r2, r0
 1049 0010 0D4B     		ldr	r3, .L79
 1050 0012 1A60     		str	r2, [r3]
 512:RelayTest.c   ****     pTxPacket_RelaySiren->Payload.HiLoInputLogic = 0xFF; 
 1051              		.loc 1 512 0
 1052 0014 0C4B     		ldr	r3, .L79
 1053 0016 1B68     		ldr	r3, [r3]
 1054 0018 FF22     		movs	r2, #255
ARM GAS  C:\Users\MARTHN~1\AppData\Local\Temp\cc9i6CHj.s 			page 29


 1055 001a 83F84920 		strb	r2, [r3, #73]
 513:RelayTest.c   **** 
 514:RelayTest.c   **** //    MUX_CTRL_230400_Write(RTEST_CONT);                  // Rx - Verify all inputs are deactivated
 515:RelayTest.c   **** //    pRxPacket_Relay = getRxPacket_Relay();              
 516:RelayTest.c   **** //    if(pRxPacket_Relay->Payload.RelayInputs != 0x00) 
 517:RelayTest.c   **** //        return(0);
 518:RelayTest.c   ****     
 519:RelayTest.c   ****     SetRelayInputs(1);
 1056              		.loc 1 519 0
 1057 001e 0120     		movs	r0, #1
 1058 0020 FFF7FEFF 		bl	SetRelayInputs
 520:RelayTest.c   **** 
 521:RelayTest.c   ****     MUX_CTRL_230400_Write(RTEST_CONT);                  // Rx - Verify all inputs are deactivated, 
 1059              		.loc 1 521 0
 1060 0024 0120     		movs	r0, #1
 1061 0026 FFF7FEFF 		bl	MUX_CTRL_230400_Write
 522:RelayTest.c   ****     pRxPacket_Relay = getRxPacket_Relay();  
 1062              		.loc 1 522 0
 1063 002a FFF7FEFF 		bl	getRxPacket_Relay
 1064 002e 0246     		mov	r2, r0
 1065 0030 064B     		ldr	r3, .L79+4
 1066 0032 1A60     		str	r2, [r3]
 523:RelayTest.c   ****     if(pRxPacket_RelaySiren->Payload.RelayInputs == 0xFF)    // Verify all inputs are activated, if
 1067              		.loc 1 523 0
 1068 0034 064B     		ldr	r3, .L79+8
 1069 0036 1B68     		ldr	r3, [r3]
 1070 0038 DB79     		ldrb	r3, [r3, #7]	@ zero_extendqisi2
 1071 003a FF2B     		cmp	r3, #255
 1072 003c 01D1     		bne	.L77
 524:RelayTest.c   ****         return(1);
 1073              		.loc 1 524 0
 1074 003e 0123     		movs	r3, #1
 1075 0040 00E0     		b	.L78
 1076              	.L77:
 525:RelayTest.c   ****     
 526:RelayTest.c   ****     return(0);                                          // If this step was not failed, return pass
 1077              		.loc 1 526 0
 1078 0042 0023     		movs	r3, #0
 1079              	.L78:
 527:RelayTest.c   **** }
 1080              		.loc 1 527 0
 1081 0044 1846     		mov	r0, r3
 1082 0046 80BD     		pop	{r7, pc}
 1083              	.L80:
 1084              		.align	2
 1085              	.L79:
 1086 0048 78000000 		.word	pTxPacket_RelaySiren
 1087 004c 10000000 		.word	pRxPacket_Relay
 1088 0050 24000000 		.word	pRxPacket_RelaySiren
 1089              		.cfi_endproc
 1090              	.LFE68:
 1091              		.size	RTest_Test_Inputs, .-RTest_Test_Inputs
 1092              		.section	.text.RTest_Test_Vbatt,"ax",%progbits
 1093              		.align	2
 1094              		.global	RTest_Test_Vbatt
 1095              		.thumb
 1096              		.thumb_func
ARM GAS  C:\Users\MARTHN~1\AppData\Local\Temp\cc9i6CHj.s 			page 30


 1097              		.type	RTest_Test_Vbatt, %function
 1098              	RTest_Test_Vbatt:
 1099              	.LFB69:
 528:RelayTest.c   **** 
 529:RelayTest.c   **** 
 530:RelayTest.c   **** /* 230400bps *****************************************************************************
 531:RelayTest.c   **** *  Read a 'D' packet (relay to controller)  - verify the 'Voltage_BATT' byte
 532:RelayTest.c   **** *  Return: Pass/Fail
 533:RelayTest.c   **** ******************************************************************************************/
 534:RelayTest.c   **** uint8 RTest_Test_Vbatt(void)
 535:RelayTest.c   **** {
 1100              		.loc 1 535 0
 1101              		.cfi_startproc
 1102              		@ args = 0, pretend = 0, frame = 8
 1103              		@ frame_needed = 1, uses_anonymous_args = 0
 1104 0000 80B5     		push	{r7, lr}
 1105              		.cfi_def_cfa_offset 8
 1106              		.cfi_offset 7, -8
 1107              		.cfi_offset 14, -4
 1108 0002 82B0     		sub	sp, sp, #8
 1109              		.cfi_def_cfa_offset 16
 1110 0004 00AF     		add	r7, sp, #0
 1111              		.cfi_def_cfa_register 7
 536:RelayTest.c   ****     MUX_CTRL_230400_Write(RTEST_CONT);                              // Rx - Select the mux channel
 1112              		.loc 1 536 0
 1113 0006 0120     		movs	r0, #1
 1114 0008 FFF7FEFF 		bl	MUX_CTRL_230400_Write
 537:RelayTest.c   ****     pRxPacket_RelaySiren = getRxPacket_RelaySiren();                          // Rx - Get pointers 
 1115              		.loc 1 537 0
 1116 000c FFF7FEFF 		bl	getRxPacket_RelaySiren
 1117 0010 0246     		mov	r2, r0
 1118 0012 0A4B     		ldr	r3, .L84
 1119 0014 1A60     		str	r2, [r3]
 538:RelayTest.c   ****     
 539:RelayTest.c   ****     uint8 Vbatt_Reading = 0;
 1120              		.loc 1 539 0
 1121 0016 0023     		movs	r3, #0
 1122 0018 FB71     		strb	r3, [r7, #7]
 540:RelayTest.c   ****     
 541:RelayTest.c   ****     Vbatt_Reading = pRxPacket_RelaySiren->Payload.Voltage_BATT;          // Read Vbatt value
 1123              		.loc 1 541 0
 1124 001a 084B     		ldr	r3, .L84
 1125 001c 1B68     		ldr	r3, [r3]
 1126 001e 1B79     		ldrb	r3, [r3, #4]
 1127 0020 FB71     		strb	r3, [r7, #7]
 542:RelayTest.c   ****     
 543:RelayTest.c   ****     if( (Vbatt_Reading < (VOLTAGE_SYSTEM + TOLERANCE_VOLTAGE) ) &&
 1128              		.loc 1 543 0
 1129 0022 FB79     		ldrb	r3, [r7, #7]	@ zero_extendqisi2
 1130 0024 7C2B     		cmp	r3, #124
 1131 0026 04D8     		bhi	.L82
 1132              		.loc 1 543 0 is_stmt 0 discriminator 1
 1133 0028 FB79     		ldrb	r3, [r7, #7]	@ zero_extendqisi2
 1134 002a 732B     		cmp	r3, #115
 1135 002c 01D9     		bls	.L82
 544:RelayTest.c   ****         (Vbatt_Reading > (VOLTAGE_SYSTEM - TOLERANCE_VOLTAGE) ) )
 545:RelayTest.c   ****         return(1);                                                  // If Vbatt is within TOLERANCE
ARM GAS  C:\Users\MARTHN~1\AppData\Local\Temp\cc9i6CHj.s 			page 31


 1136              		.loc 1 545 0 is_stmt 1
 1137 002e 0123     		movs	r3, #1
 1138 0030 00E0     		b	.L83
 1139              	.L82:
 546:RelayTest.c   ****     else
 547:RelayTest.c   ****         return(0);                                                  // If not pass, then return fai
 1140              		.loc 1 547 0
 1141 0032 0023     		movs	r3, #0
 1142              	.L83:
 548:RelayTest.c   **** }
 1143              		.loc 1 548 0
 1144 0034 1846     		mov	r0, r3
 1145 0036 0837     		adds	r7, r7, #8
 1146              		.cfi_def_cfa_offset 8
 1147 0038 BD46     		mov	sp, r7
 1148              		.cfi_def_cfa_register 13
 1149              		@ sp needed
 1150 003a 80BD     		pop	{r7, pc}
 1151              	.L85:
 1152              		.align	2
 1153              	.L84:
 1154 003c 24000000 		.word	pRxPacket_RelaySiren
 1155              		.cfi_endproc
 1156              	.LFE69:
 1157              		.size	RTest_Test_Vbatt, .-RTest_Test_Vbatt
 1158              		.section	.text.RTest_Test_BlockCurrents,"ax",%progbits
 1159              		.align	2
 1160              		.global	RTest_Test_BlockCurrents
 1161              		.thumb
 1162              		.thumb_func
 1163              		.type	RTest_Test_BlockCurrents, %function
 1164              	RTest_Test_BlockCurrents:
 1165              	.LFB70:
 549:RelayTest.c   **** 
 550:RelayTest.c   **** /* 230400bps ***************************************************************
 551:RelayTest.c   **** *  Send a 'P'/'I' packet (controller to relay)  - Controller packet to turn on all the Relay output
 552:RelayTest.c   **** *  Read a 'D' packet (relay to controller)  - verify block currents are within a tolerance
 553:RelayTest.c   **** ****************************************************************************/
 554:RelayTest.c   **** uint8 RTest_Test_BlockCurrents(void)
 555:RelayTest.c   **** {
 1166              		.loc 1 555 0
 1167              		.cfi_startproc
 1168              		@ args = 0, pretend = 0, frame = 8
 1169              		@ frame_needed = 1, uses_anonymous_args = 0
 1170 0000 80B5     		push	{r7, lr}
 1171              		.cfi_def_cfa_offset 8
 1172              		.cfi_offset 7, -8
 1173              		.cfi_offset 14, -4
 1174 0002 82B0     		sub	sp, sp, #8
 1175              		.cfi_def_cfa_offset 16
 1176 0004 00AF     		add	r7, sp, #0
 1177              		.cfi_def_cfa_register 7
 556:RelayTest.c   ****     
 557:RelayTest.c   ****     uint8 BlockCurrentPass = 0x00;
 1178              		.loc 1 557 0
 1179 0006 0023     		movs	r3, #0
 1180 0008 FB71     		strb	r3, [r7, #7]
ARM GAS  C:\Users\MARTHN~1\AppData\Local\Temp\cc9i6CHj.s 			page 32


 558:RelayTest.c   ****     uint8 BlockCurrentValue = 0x00;
 1181              		.loc 1 558 0
 1182 000a 0023     		movs	r3, #0
 1183 000c 7B71     		strb	r3, [r7, #5]
 559:RelayTest.c   ****     
 560:RelayTest.c   ****     MUX_CTRL_230400_Write(RTEST_CONT);                  // Rx - Select the mux channel 
 1184              		.loc 1 560 0
 1185 000e 0120     		movs	r0, #1
 1186 0010 FFF7FEFF 		bl	MUX_CTRL_230400_Write
 561:RelayTest.c   ****     pRxPacket_RelaySiren = getRxPacket_RelaySiren();              // Rx - Get pointers to packet
 1187              		.loc 1 561 0
 1188 0014 FFF7FEFF 		bl	getRxPacket_RelaySiren
 1189 0018 0246     		mov	r2, r0
 1190 001a 164B     		ldr	r3, .L91
 1191 001c 1A60     		str	r2, [r3]
 562:RelayTest.c   ****     
 563:RelayTest.c   ****     DEMUX_CTRL_230400_Write(RTEST_CONT);                // Tx - Select the demux channel
 1192              		.loc 1 563 0
 1193 001e 0120     		movs	r0, #1
 1194 0020 FFF7FEFF 		bl	DEMUX_CTRL_230400_Write
 564:RelayTest.c   ****     pTxPacket_RelaySiren = getTxPacket_RelaySiren();              // Tx - Get pointers to packet
 1195              		.loc 1 564 0
 1196 0024 FFF7FEFF 		bl	getTxPacket_RelaySiren
 1197 0028 0246     		mov	r2, r0
 1198 002a 134B     		ldr	r3, .L91+4
 1199 002c 1A60     		str	r2, [r3]
 1200              	.LBB7:
 565:RelayTest.c   ****     
 566:RelayTest.c   ****     for(uint8 i=0;i<4;i++)                              // Save pass/fail for each block channel
 1201              		.loc 1 566 0
 1202 002e 0023     		movs	r3, #0
 1203 0030 BB71     		strb	r3, [r7, #6]
 1204 0032 10E0     		b	.L87
 1205              	.L88:
 567:RelayTest.c   ****     {
 568:RelayTest.c   ****         BlockCurrentValue = RTest_BlockCurrent(i);
 1206              		.loc 1 568 0 discriminator 3
 1207 0034 BB79     		ldrb	r3, [r7, #6]	@ zero_extendqisi2
 1208 0036 1846     		mov	r0, r3
 1209 0038 FFF7FEFF 		bl	RTest_BlockCurrent
 1210 003c 0346     		mov	r3, r0
 1211 003e 7B71     		strb	r3, [r7, #5]
 569:RelayTest.c   ****         BlockCurrentPass = (BlockCurrentPass << 1) | BlockCurrentValue;
 1212              		.loc 1 569 0 discriminator 3
 1213 0040 FB79     		ldrb	r3, [r7, #7]	@ zero_extendqisi2
 1214 0042 5B00     		lsls	r3, r3, #1
 1215 0044 5AB2     		sxtb	r2, r3
 1216 0046 97F90530 		ldrsb	r3, [r7, #5]
 1217 004a 1343     		orrs	r3, r3, r2
 1218 004c 5BB2     		sxtb	r3, r3
 1219 004e FB71     		strb	r3, [r7, #7]
 566:RelayTest.c   ****     {
 1220              		.loc 1 566 0 discriminator 3
 1221 0050 BB79     		ldrb	r3, [r7, #6]	@ zero_extendqisi2
 1222 0052 0133     		adds	r3, r3, #1
 1223 0054 BB71     		strb	r3, [r7, #6]
 1224              	.L87:
ARM GAS  C:\Users\MARTHN~1\AppData\Local\Temp\cc9i6CHj.s 			page 33


 566:RelayTest.c   ****     {
 1225              		.loc 1 566 0 is_stmt 0 discriminator 1
 1226 0056 BB79     		ldrb	r3, [r7, #6]	@ zero_extendqisi2
 1227 0058 032B     		cmp	r3, #3
 1228 005a EBD9     		bls	.L88
 1229              	.LBE7:
 570:RelayTest.c   ****     }
 571:RelayTest.c   ****     
 572:RelayTest.c   ****     if( (BlockCurrentPass & 0x0F) == 0x0F)
 1230              		.loc 1 572 0 is_stmt 1
 1231 005c FB79     		ldrb	r3, [r7, #7]	@ zero_extendqisi2
 1232 005e 03F00F03 		and	r3, r3, #15
 1233 0062 0F2B     		cmp	r3, #15
 1234 0064 01D1     		bne	.L89
 573:RelayTest.c   ****         return(1);                                      // If all block currents are within TOLERAN
 1235              		.loc 1 573 0
 1236 0066 0123     		movs	r3, #1
 1237 0068 00E0     		b	.L90
 1238              	.L89:
 574:RelayTest.c   ****     else
 575:RelayTest.c   ****         return(0);                                      // If not pass, then return fail
 1239              		.loc 1 575 0
 1240 006a 0023     		movs	r3, #0
 1241              	.L90:
 576:RelayTest.c   **** 
 577:RelayTest.c   **** }
 1242              		.loc 1 577 0
 1243 006c 1846     		mov	r0, r3
 1244 006e 0837     		adds	r7, r7, #8
 1245              		.cfi_def_cfa_offset 8
 1246 0070 BD46     		mov	sp, r7
 1247              		.cfi_def_cfa_register 13
 1248              		@ sp needed
 1249 0072 80BD     		pop	{r7, pc}
 1250              	.L92:
 1251              		.align	2
 1252              	.L91:
 1253 0074 24000000 		.word	pRxPacket_RelaySiren
 1254 0078 78000000 		.word	pTxPacket_RelaySiren
 1255              		.cfi_endproc
 1256              	.LFE70:
 1257              		.size	RTest_Test_BlockCurrents, .-RTest_Test_BlockCurrents
 1258              		.section	.text.getRxPacket_Relay,"ax",%progbits
 1259              		.align	2
 1260              		.global	getRxPacket_Relay
 1261              		.thumb
 1262              		.thumb_func
 1263              		.type	getRxPacket_Relay, %function
 1264              	getRxPacket_Relay:
 1265              	.LFB71:
 578:RelayTest.c   **** 
 579:RelayTest.c   **** ///* 230400bps ****************************************************
 580:RelayTest.c   **** //*   (wait for the GPS hardware to acquire a signal)
 581:RelayTest.c   **** //*   Read the GPS packet - search for the GPS formated data
 582:RelayTest.c   **** //*****************************************************************/
 583:RelayTest.c   **** //uint8 RTest_Test_GPS(void)
 584:RelayTest.c   **** //{
ARM GAS  C:\Users\MARTHN~1\AppData\Local\Temp\cc9i6CHj.s 			page 34


 585:RelayTest.c   **** //    
 586:RelayTest.c   **** //    //static uint8 targetstring[6] = {'$','G','P','M','R','C'};
 587:RelayTest.c   **** //
 588:RelayTest.c   **** //    uint8 findpacket(uint8 dataByte);  // - this should pass the target string
 589:RelayTest.c   **** //    //processByteReceivedHandler_230400(&targetstring);
 590:RelayTest.c   **** //
 591:RelayTest.c   **** //    
 592:RelayTest.c   **** //    
 593:RelayTest.c   **** //    return(0);
 594:RelayTest.c   **** //}
 595:RelayTest.c   **** 
 596:RelayTest.c   **** RxPacket_RelaySiren * getRxPacket_Relay(void)
 597:RelayTest.c   **** {
 1266              		.loc 1 597 0
 1267              		.cfi_startproc
 1268              		@ args = 0, pretend = 0, frame = 0
 1269              		@ frame_needed = 1, uses_anonymous_args = 0
 1270              		@ link register save eliminated.
 1271 0000 80B4     		push	{r7}
 1272              		.cfi_def_cfa_offset 4
 1273              		.cfi_offset 7, -4
 1274 0002 00AF     		add	r7, sp, #0
 1275              		.cfi_def_cfa_register 7
 598:RelayTest.c   ****     pRxPacket_Relay = &rxPacket_Relay;
 1276              		.loc 1 598 0
 1277 0004 044B     		ldr	r3, .L95
 1278 0006 054A     		ldr	r2, .L95+4
 1279 0008 1A60     		str	r2, [r3]
 599:RelayTest.c   ****     
 600:RelayTest.c   ****     return pRxPacket_Relay;
 1280              		.loc 1 600 0
 1281 000a 034B     		ldr	r3, .L95
 1282 000c 1B68     		ldr	r3, [r3]
 601:RelayTest.c   **** }
 1283              		.loc 1 601 0
 1284 000e 1846     		mov	r0, r3
 1285 0010 BD46     		mov	sp, r7
 1286              		.cfi_def_cfa_register 13
 1287              		@ sp needed
 1288 0012 80BC     		pop	{r7}
 1289              		.cfi_restore 7
 1290              		.cfi_def_cfa_offset 0
 1291 0014 7047     		bx	lr
 1292              	.L96:
 1293 0016 00BF     		.align	2
 1294              	.L95:
 1295 0018 10000000 		.word	pRxPacket_Relay
 1296 001c 00000000 		.word	rxPacket_Relay
 1297              		.cfi_endproc
 1298              	.LFE71:
 1299              		.size	getRxPacket_Relay, .-getRxPacket_Relay
 1300              		.section	.text.getTxPacket_RelaySiren,"ax",%progbits
 1301              		.align	2
 1302              		.global	getTxPacket_RelaySiren
 1303              		.thumb
 1304              		.thumb_func
 1305              		.type	getTxPacket_RelaySiren, %function
ARM GAS  C:\Users\MARTHN~1\AppData\Local\Temp\cc9i6CHj.s 			page 35


 1306              	getTxPacket_RelaySiren:
 1307              	.LFB72:
 602:RelayTest.c   **** 
 603:RelayTest.c   **** //RxPacket_RelaySiren * getRxPacket_RelayS(void)
 604:RelayTest.c   **** //{
 605:RelayTest.c   **** //    pRxPacket_Relay = &rxPacket_Relay;
 606:RelayTest.c   **** //    
 607:RelayTest.c   **** //    return pRxPacket_Relay;
 608:RelayTest.c   **** 
 609:RelayTest.c   **** //TxPacket_Relay * getTxPacket_Relay()
 610:RelayTest.c   **** //{
 611:RelayTest.c   **** //    pTxPacket_Relay = &txPacket_Relay;
 612:RelayTest.c   **** //    
 613:RelayTest.c   **** //    return pTxPacket_Relay;
 614:RelayTest.c   **** //}
 615:RelayTest.c   **** 
 616:RelayTest.c   **** //RxPacket_Siren * getRxPacket_Siren()
 617:RelayTest.c   **** //{
 618:RelayTest.c   **** //    pRxPacket_Siren = &rxPacket_Siren;
 619:RelayTest.c   **** //    
 620:RelayTest.c   **** //    return pRxPacket_Siren;
 621:RelayTest.c   **** //}
 622:RelayTest.c   **** 
 623:RelayTest.c   **** TxPacket_RelaySiren * getTxPacket_RelaySiren()          // STest Tx - 'I' packet sent to relay and 
 624:RelayTest.c   **** {
 1308              		.loc 1 624 0
 1309              		.cfi_startproc
 1310              		@ args = 0, pretend = 0, frame = 0
 1311              		@ frame_needed = 1, uses_anonymous_args = 0
 1312              		@ link register save eliminated.
 1313 0000 80B4     		push	{r7}
 1314              		.cfi_def_cfa_offset 4
 1315              		.cfi_offset 7, -4
 1316 0002 00AF     		add	r7, sp, #0
 1317              		.cfi_def_cfa_register 7
 625:RelayTest.c   ****     pTxPacket_RelaySiren = &txPacket_RelaySiren;
 1318              		.loc 1 625 0
 1319 0004 044B     		ldr	r3, .L99
 1320 0006 054A     		ldr	r2, .L99+4
 1321 0008 1A60     		str	r2, [r3]
 626:RelayTest.c   ****     
 627:RelayTest.c   ****     return pTxPacket_RelaySiren;
 1322              		.loc 1 627 0
 1323 000a 034B     		ldr	r3, .L99
 1324 000c 1B68     		ldr	r3, [r3]
 628:RelayTest.c   **** }
 1325              		.loc 1 628 0
 1326 000e 1846     		mov	r0, r3
 1327 0010 BD46     		mov	sp, r7
 1328              		.cfi_def_cfa_register 13
 1329              		@ sp needed
 1330 0012 80BC     		pop	{r7}
 1331              		.cfi_restore 7
 1332              		.cfi_def_cfa_offset 0
 1333 0014 7047     		bx	lr
 1334              	.L100:
 1335 0016 00BF     		.align	2
ARM GAS  C:\Users\MARTHN~1\AppData\Local\Temp\cc9i6CHj.s 			page 36


 1336              	.L99:
 1337 0018 78000000 		.word	pTxPacket_RelaySiren
 1338 001c 28000000 		.word	txPacket_RelaySiren
 1339              		.cfi_endproc
 1340              	.LFE72:
 1341              		.size	getTxPacket_RelaySiren, .-getTxPacket_RelaySiren
 1342              		.section	.text.getRxPacket_RelaySiren,"ax",%progbits
 1343              		.align	2
 1344              		.global	getRxPacket_RelaySiren
 1345              		.thumb
 1346              		.thumb_func
 1347              		.type	getRxPacket_RelaySiren, %function
 1348              	getRxPacket_RelaySiren:
 1349              	.LFB73:
 629:RelayTest.c   **** 
 630:RelayTest.c   **** RxPacket_RelaySiren * getRxPacket_RelaySiren()          // STest - 'D' packet sent to controller fr
 631:RelayTest.c   **** {
 1350              		.loc 1 631 0
 1351              		.cfi_startproc
 1352              		@ args = 0, pretend = 0, frame = 0
 1353              		@ frame_needed = 1, uses_anonymous_args = 0
 1354              		@ link register save eliminated.
 1355 0000 80B4     		push	{r7}
 1356              		.cfi_def_cfa_offset 4
 1357              		.cfi_offset 7, -4
 1358 0002 00AF     		add	r7, sp, #0
 1359              		.cfi_def_cfa_register 7
 632:RelayTest.c   ****     pRxPacket_RelaySiren = &rxPacket_RelaySiren;
 1360              		.loc 1 632 0
 1361 0004 044B     		ldr	r3, .L103
 1362 0006 054A     		ldr	r2, .L103+4
 1363 0008 1A60     		str	r2, [r3]
 633:RelayTest.c   ****     
 634:RelayTest.c   ****     return pRxPacket_RelaySiren;
 1364              		.loc 1 634 0
 1365 000a 034B     		ldr	r3, .L103
 1366 000c 1B68     		ldr	r3, [r3]
 635:RelayTest.c   **** }
 1367              		.loc 1 635 0
 1368 000e 1846     		mov	r0, r3
 1369 0010 BD46     		mov	sp, r7
 1370              		.cfi_def_cfa_register 13
 1371              		@ sp needed
 1372 0012 80BC     		pop	{r7}
 1373              		.cfi_restore 7
 1374              		.cfi_def_cfa_offset 0
 1375 0014 7047     		bx	lr
 1376              	.L104:
 1377 0016 00BF     		.align	2
 1378              	.L103:
 1379 0018 24000000 		.word	pRxPacket_RelaySiren
 1380 001c 14000000 		.word	rxPacket_RelaySiren
 1381              		.cfi_endproc
 1382              	.LFE73:
 1383              		.size	getRxPacket_RelaySiren, .-getRxPacket_RelaySiren
 1384              		.section	.text.getTxPacket_H,"ax",%progbits
 1385              		.align	2
ARM GAS  C:\Users\MARTHN~1\AppData\Local\Temp\cc9i6CHj.s 			page 37


 1386              		.global	getTxPacket_H
 1387              		.thumb
 1388              		.thumb_func
 1389              		.type	getTxPacket_H, %function
 1390              	getTxPacket_H:
 1391              	.LFB74:
 636:RelayTest.c   **** 
 637:RelayTest.c   **** //Packet_H * getPacket_H(void);
 638:RelayTest.c   **** Packet_H * getTxPacket_H()
 639:RelayTest.c   **** {
 1392              		.loc 1 639 0
 1393              		.cfi_startproc
 1394              		@ args = 0, pretend = 0, frame = 0
 1395              		@ frame_needed = 1, uses_anonymous_args = 0
 1396              		@ link register save eliminated.
 1397 0000 80B4     		push	{r7}
 1398              		.cfi_def_cfa_offset 4
 1399              		.cfi_offset 7, -4
 1400 0002 00AF     		add	r7, sp, #0
 1401              		.cfi_def_cfa_register 7
 640:RelayTest.c   ****     pTxPacket_H = &txPacket_H;
 1402              		.loc 1 640 0
 1403 0004 044B     		ldr	r3, .L107
 1404 0006 054A     		ldr	r2, .L107+4
 1405 0008 1A60     		str	r2, [r3]
 641:RelayTest.c   ****     
 642:RelayTest.c   ****     return pTxPacket_H;
 1406              		.loc 1 642 0
 1407 000a 034B     		ldr	r3, .L107
 1408 000c 1B68     		ldr	r3, [r3]
 643:RelayTest.c   **** }
 1409              		.loc 1 643 0
 1410 000e 1846     		mov	r0, r3
 1411 0010 BD46     		mov	sp, r7
 1412              		.cfi_def_cfa_register 13
 1413              		@ sp needed
 1414 0012 80BC     		pop	{r7}
 1415              		.cfi_restore 7
 1416              		.cfi_def_cfa_offset 0
 1417 0014 7047     		bx	lr
 1418              	.L108:
 1419 0016 00BF     		.align	2
 1420              	.L107:
 1421 0018 84000000 		.word	pTxPacket_H
 1422 001c 7C000000 		.word	txPacket_H
 1423              		.cfi_endproc
 1424              	.LFE74:
 1425              		.size	getTxPacket_H, .-getTxPacket_H
 1426              		.section	.text.getRxPacket_H,"ax",%progbits
 1427              		.align	2
 1428              		.global	getRxPacket_H
 1429              		.thumb
 1430              		.thumb_func
 1431              		.type	getRxPacket_H, %function
 1432              	getRxPacket_H:
 1433              	.LFB75:
 644:RelayTest.c   **** 
ARM GAS  C:\Users\MARTHN~1\AppData\Local\Temp\cc9i6CHj.s 			page 38


 645:RelayTest.c   **** Packet_H * getRxPacket_H()
 646:RelayTest.c   **** {
 1434              		.loc 1 646 0
 1435              		.cfi_startproc
 1436              		@ args = 0, pretend = 0, frame = 0
 1437              		@ frame_needed = 1, uses_anonymous_args = 0
 1438              		@ link register save eliminated.
 1439 0000 80B4     		push	{r7}
 1440              		.cfi_def_cfa_offset 4
 1441              		.cfi_offset 7, -4
 1442 0002 00AF     		add	r7, sp, #0
 1443              		.cfi_def_cfa_register 7
 647:RelayTest.c   ****     pRxPacket_H = &rxPacket_H;
 1444              		.loc 1 647 0
 1445 0004 044B     		ldr	r3, .L111
 1446 0006 054A     		ldr	r2, .L111+4
 1447 0008 1A60     		str	r2, [r3]
 648:RelayTest.c   ****     
 649:RelayTest.c   ****     return pRxPacket_H;
 1448              		.loc 1 649 0
 1449 000a 034B     		ldr	r3, .L111
 1450 000c 1B68     		ldr	r3, [r3]
 650:RelayTest.c   **** }
 1451              		.loc 1 650 0
 1452 000e 1846     		mov	r0, r3
 1453 0010 BD46     		mov	sp, r7
 1454              		.cfi_def_cfa_register 13
 1455              		@ sp needed
 1456 0012 80BC     		pop	{r7}
 1457              		.cfi_restore 7
 1458              		.cfi_def_cfa_offset 0
 1459 0014 7047     		bx	lr
 1460              	.L112:
 1461 0016 00BF     		.align	2
 1462              	.L111:
 1463 0018 90000000 		.word	pRxPacket_H
 1464 001c 88000000 		.word	rxPacket_H
 1465              		.cfi_endproc
 1466              	.LFE75:
 1467              		.size	getRxPacket_H, .-getRxPacket_H
 1468              		.section	.text.RTest_sendDiagPacket,"ax",%progbits
 1469              		.align	2
 1470              		.global	RTest_sendDiagPacket
 1471              		.thumb
 1472              		.thumb_func
 1473              		.type	RTest_sendDiagPacket, %function
 1474              	RTest_sendDiagPacket:
 1475              	.LFB76:
 651:RelayTest.c   **** 
 652:RelayTest.c   **** 
 653:RelayTest.c   **** //RxPacket_Quad * getTxPacket_Quad()              //***
 654:RelayTest.c   **** //{
 655:RelayTest.c   **** //    pTxPacket_Quad = &txPacket_Quad;
 656:RelayTest.c   **** //    
 657:RelayTest.c   **** //    return pTxPacket_Quad;
 658:RelayTest.c   **** //}
 659:RelayTest.c   **** 
ARM GAS  C:\Users\MARTHN~1\AppData\Local\Temp\cc9i6CHj.s 			page 39


 660:RelayTest.c   **** void RTest_sendDiagPacket(void)
 661:RelayTest.c   **** {
 1476              		.loc 1 661 0
 1477              		.cfi_startproc
 1478              		@ args = 0, pretend = 0, frame = 8
 1479              		@ frame_needed = 1, uses_anonymous_args = 0
 1480 0000 80B5     		push	{r7, lr}
 1481              		.cfi_def_cfa_offset 8
 1482              		.cfi_offset 7, -8
 1483              		.cfi_offset 14, -4
 1484 0002 82B0     		sub	sp, sp, #8
 1485              		.cfi_def_cfa_offset 16
 1486 0004 00AF     		add	r7, sp, #0
 1487              		.cfi_def_cfa_register 7
 1488              	.LBB8:
 662:RelayTest.c   **** 
 663:RelayTest.c   ****     static uint8 RelayTestStatus_display[ (NUMBER_TEST_STEPS*2) ];
 664:RelayTest.c   ****     
 665:RelayTest.c   ****     for(uint8 i=0;i<NUMBER_TEST_STEPS;i++)
 1489              		.loc 1 665 0
 1490 0006 0023     		movs	r3, #0
 1491 0008 FB71     		strb	r3, [r7, #7]
 1492 000a 0FE0     		b	.L114
 1493              	.L115:
 666:RelayTest.c   ****     {
 667:RelayTest.c   ****         RelayTestStatus_display[i*2] = RTestStatus[i];
 1494              		.loc 1 667 0 discriminator 3
 1495 000c FB79     		ldrb	r3, [r7, #7]	@ zero_extendqisi2
 1496 000e 5B00     		lsls	r3, r3, #1
 1497 0010 FA79     		ldrb	r2, [r7, #7]	@ zero_extendqisi2
 1498 0012 0F49     		ldr	r1, .L117
 1499 0014 895C     		ldrb	r1, [r1, r2]	@ zero_extendqisi2
 1500 0016 0F4A     		ldr	r2, .L117+4
 1501 0018 D154     		strb	r1, [r2, r3]
 668:RelayTest.c   ****         RelayTestStatus_display[(i*2) + 1] = ' ';
 1502              		.loc 1 668 0 discriminator 3
 1503 001a FB79     		ldrb	r3, [r7, #7]	@ zero_extendqisi2
 1504 001c 5B00     		lsls	r3, r3, #1
 1505 001e 0133     		adds	r3, r3, #1
 1506 0020 0C4A     		ldr	r2, .L117+4
 1507 0022 2021     		movs	r1, #32
 1508 0024 D154     		strb	r1, [r2, r3]
 665:RelayTest.c   ****     {
 1509              		.loc 1 665 0 discriminator 3
 1510 0026 FB79     		ldrb	r3, [r7, #7]	@ zero_extendqisi2
 1511 0028 0133     		adds	r3, r3, #1
 1512 002a FB71     		strb	r3, [r7, #7]
 1513              	.L114:
 665:RelayTest.c   ****     {
 1514              		.loc 1 665 0 is_stmt 0 discriminator 1
 1515 002c FB79     		ldrb	r3, [r7, #7]	@ zero_extendqisi2
 1516 002e 0A2B     		cmp	r3, #10
 1517 0030 ECD9     		bls	.L115
 1518              	.LBE8:
 669:RelayTest.c   ****     }
 670:RelayTest.c   ****     
 671:RelayTest.c   ****     //DEMUX_CTRL_115200_Write(RTEST_SIREN);
ARM GAS  C:\Users\MARTHN~1\AppData\Local\Temp\cc9i6CHj.s 			page 40


 672:RelayTest.c   ****     
 673:RelayTest.c   ****     UART_115200_PutArray(RelayTestStatus_display, (NUMBER_TEST_STEPS*2) );
 1519              		.loc 1 673 0 is_stmt 1
 1520 0032 1621     		movs	r1, #22
 1521 0034 0748     		ldr	r0, .L117+4
 1522 0036 FFF7FEFF 		bl	UART_115200_PutArray
 674:RelayTest.c   ****     
 675:RelayTest.c   ****     UART_115200_PutChar('\r');
 1523              		.loc 1 675 0
 1524 003a 0D20     		movs	r0, #13
 1525 003c FFF7FEFF 		bl	UART_115200_PutChar
 676:RelayTest.c   ****     UART_115200_PutChar('\n');
 1526              		.loc 1 676 0
 1527 0040 0A20     		movs	r0, #10
 1528 0042 FFF7FEFF 		bl	UART_115200_PutChar
 677:RelayTest.c   ****     
 678:RelayTest.c   ****     return;
 1529              		.loc 1 678 0
 1530 0046 00BF     		nop
 679:RelayTest.c   **** }
 1531              		.loc 1 679 0
 1532 0048 0837     		adds	r7, r7, #8
 1533              		.cfi_def_cfa_offset 8
 1534 004a BD46     		mov	sp, r7
 1535              		.cfi_def_cfa_register 13
 1536              		@ sp needed
 1537 004c 80BD     		pop	{r7, pc}
 1538              	.L118:
 1539 004e 00BF     		.align	2
 1540              	.L117:
 1541 0050 0C010000 		.word	RTestStatus
 1542 0054 18010000 		.word	RelayTestStatus_display.7653
 1543              		.cfi_endproc
 1544              	.LFE76:
 1545              		.size	RTest_sendDiagPacket, .-RTest_sendDiagPacket
 1546              		.section	.text.RTest_BlockCurrent,"ax",%progbits
 1547              		.align	2
 1548              		.global	RTest_BlockCurrent
 1549              		.thumb
 1550              		.thumb_func
 1551              		.type	RTest_BlockCurrent, %function
 1552              	RTest_BlockCurrent:
 1553              	.LFB77:
 680:RelayTest.c   **** 
 681:RelayTest.c   **** //void ProcessFailure(void)
 682:RelayTest.c   **** //{
 683:RelayTest.c   **** ////    
 684:RelayTest.c   **** ////    RelayTestStatus[TestState] = 'F';
 685:RelayTest.c   **** ////    //RelayTestStatus[TestState] = 'B';                   // *** dont fail the unit, keep tryin
 686:RelayTest.c   **** ////    
 687:RelayTest.c   **** //////    TestState++;
 688:RelayTest.c   **** //////    if(TestState >=10)
 689:RelayTest.c   **** //////        TestState = 0;
 690:RelayTest.c   **** ////    
 691:RelayTest.c   **** ////    LED_EN_Write(1);
 692:RelayTest.c   **** ////    
 693:RelayTest.c   **** ////    return;
ARM GAS  C:\Users\MARTHN~1\AppData\Local\Temp\cc9i6CHj.s 			page 41


 694:RelayTest.c   **** //}
 695:RelayTest.c   **** 
 696:RelayTest.c   **** /**********************************************************************
 697:RelayTest.c   **** *   230400bps
 698:RelayTest.c   **** *   - Read (the output bytes) and see that they are within TOLERANCE_CURRENT
 699:RelayTest.c   **** *   - Return: pass/fail
 700:RelayTest.c   **** **********************************************************************/
 701:RelayTest.c   **** uint8 RTest_BlockCurrent(uint8 block)
 702:RelayTest.c   **** {
 1554              		.loc 1 702 0
 1555              		.cfi_startproc
 1556              		@ args = 0, pretend = 0, frame = 16
 1557              		@ frame_needed = 1, uses_anonymous_args = 0
 1558 0000 80B5     		push	{r7, lr}
 1559              		.cfi_def_cfa_offset 8
 1560              		.cfi_offset 7, -8
 1561              		.cfi_offset 14, -4
 1562 0002 84B0     		sub	sp, sp, #16
 1563              		.cfi_def_cfa_offset 24
 1564 0004 00AF     		add	r7, sp, #0
 1565              		.cfi_def_cfa_register 7
 1566 0006 0346     		mov	r3, r0
 1567 0008 FB71     		strb	r3, [r7, #7]
 703:RelayTest.c   ****     
 704:RelayTest.c   ****     uint8 Current_Reading = 0;
 1568              		.loc 1 704 0
 1569 000a 0023     		movs	r3, #0
 1570 000c FB73     		strb	r3, [r7, #15]
 705:RelayTest.c   ****     
 706:RelayTest.c   ****     pRxPacket_RelaySiren = getRxPacket_RelaySiren();
 1571              		.loc 1 706 0
 1572 000e FFF7FEFF 		bl	getRxPacket_RelaySiren
 1573 0012 0246     		mov	r2, r0
 1574 0014 184B     		ldr	r3, .L127
 1575 0016 1A60     		str	r2, [r3]
 707:RelayTest.c   ****     
 708:RelayTest.c   ****     if(block == 0)
 1576              		.loc 1 708 0
 1577 0018 FB79     		ldrb	r3, [r7, #7]	@ zero_extendqisi2
 1578 001a 002B     		cmp	r3, #0
 1579 001c 04D1     		bne	.L120
 709:RelayTest.c   ****         Current_Reading = pRxPacket_RelaySiren->Payload.BlockCurrent_1;
 1580              		.loc 1 709 0
 1581 001e 164B     		ldr	r3, .L127
 1582 0020 1B68     		ldr	r3, [r3]
 1583 0022 1B78     		ldrb	r3, [r3]
 1584 0024 FB73     		strb	r3, [r7, #15]
 1585 0026 19E0     		b	.L121
 1586              	.L120:
 710:RelayTest.c   ****     else if(block == 1)
 1587              		.loc 1 710 0
 1588 0028 FB79     		ldrb	r3, [r7, #7]	@ zero_extendqisi2
 1589 002a 012B     		cmp	r3, #1
 1590 002c 04D1     		bne	.L122
 711:RelayTest.c   ****         Current_Reading = pRxPacket_RelaySiren->Payload.BlockCurrent_2;
 1591              		.loc 1 711 0
 1592 002e 124B     		ldr	r3, .L127
ARM GAS  C:\Users\MARTHN~1\AppData\Local\Temp\cc9i6CHj.s 			page 42


 1593 0030 1B68     		ldr	r3, [r3]
 1594 0032 5B78     		ldrb	r3, [r3, #1]
 1595 0034 FB73     		strb	r3, [r7, #15]
 1596 0036 11E0     		b	.L121
 1597              	.L122:
 712:RelayTest.c   ****     else if(block == 2)
 1598              		.loc 1 712 0
 1599 0038 FB79     		ldrb	r3, [r7, #7]	@ zero_extendqisi2
 1600 003a 022B     		cmp	r3, #2
 1601 003c 04D1     		bne	.L123
 713:RelayTest.c   ****         Current_Reading = pRxPacket_RelaySiren->Payload.BlockCurrent_3;
 1602              		.loc 1 713 0
 1603 003e 0E4B     		ldr	r3, .L127
 1604 0040 1B68     		ldr	r3, [r3]
 1605 0042 9B78     		ldrb	r3, [r3, #2]
 1606 0044 FB73     		strb	r3, [r7, #15]
 1607 0046 09E0     		b	.L121
 1608              	.L123:
 714:RelayTest.c   ****     else if(block == 3)
 1609              		.loc 1 714 0
 1610 0048 FB79     		ldrb	r3, [r7, #7]	@ zero_extendqisi2
 1611 004a 032B     		cmp	r3, #3
 1612 004c 04D1     		bne	.L124
 715:RelayTest.c   ****         Current_Reading = pRxPacket_RelaySiren->Payload.BlockCurrent_4;
 1613              		.loc 1 715 0
 1614 004e 0A4B     		ldr	r3, .L127
 1615 0050 1B68     		ldr	r3, [r3]
 1616 0052 DB78     		ldrb	r3, [r3, #3]
 1617 0054 FB73     		strb	r3, [r7, #15]
 1618 0056 01E0     		b	.L121
 1619              	.L124:
 716:RelayTest.c   ****     else 
 717:RelayTest.c   ****         return(0);
 1620              		.loc 1 717 0
 1621 0058 0023     		movs	r3, #0
 1622 005a 08E0     		b	.L125
 1623              	.L121:
 718:RelayTest.c   ****     
 719:RelayTest.c   ****     if( (Current_Reading < (CURRENT_LOAD + TOLERANCE_CURRENT) ) &&
 1624              		.loc 1 719 0
 1625 005c FB7B     		ldrb	r3, [r7, #15]	@ zero_extendqisi2
 1626 005e 0A2B     		cmp	r3, #10
 1627 0060 04D8     		bhi	.L126
 1628              		.loc 1 719 0 is_stmt 0 discriminator 1
 1629 0062 FB7B     		ldrb	r3, [r7, #15]	@ zero_extendqisi2
 1630 0064 072B     		cmp	r3, #7
 1631 0066 01D9     		bls	.L126
 720:RelayTest.c   ****         (Current_Reading > (CURRENT_LOAD - TOLERANCE_CURRENT) ) )
 721:RelayTest.c   ****         return(1);
 1632              		.loc 1 721 0 is_stmt 1
 1633 0068 0123     		movs	r3, #1
 1634 006a 00E0     		b	.L125
 1635              	.L126:
 722:RelayTest.c   ****     else
 723:RelayTest.c   ****         return(0);
 1636              		.loc 1 723 0
 1637 006c 0023     		movs	r3, #0
ARM GAS  C:\Users\MARTHN~1\AppData\Local\Temp\cc9i6CHj.s 			page 43


 1638              	.L125:
 724:RelayTest.c   ****         
 725:RelayTest.c   **** }
 1639              		.loc 1 725 0
 1640 006e 1846     		mov	r0, r3
 1641 0070 1037     		adds	r7, r7, #16
 1642              		.cfi_def_cfa_offset 8
 1643 0072 BD46     		mov	sp, r7
 1644              		.cfi_def_cfa_register 13
 1645              		@ sp needed
 1646 0074 80BD     		pop	{r7, pc}
 1647              	.L128:
 1648 0076 00BF     		.align	2
 1649              	.L127:
 1650 0078 24000000 		.word	pRxPacket_RelaySiren
 1651              		.cfi_endproc
 1652              	.LFE77:
 1653              		.size	RTest_BlockCurrent, .-RTest_BlockCurrent
 1654              		.section	.text.RTest_10ms_isr,"ax",%progbits
 1655              		.align	2
 1656              		.global	RTest_10ms_isr
 1657              		.thumb
 1658              		.thumb_func
 1659              		.type	RTest_10ms_isr, %function
 1660              	RTest_10ms_isr:
 1661              	.LFB78:
 726:RelayTest.c   **** 
 727:RelayTest.c   **** void RTest_10ms_isr(void)                       // Times Quad and Audio packets
 728:RelayTest.c   **** {
 1662              		.loc 1 728 0
 1663              		.cfi_startproc
 1664              		@ args = 0, pretend = 0, frame = 0
 1665              		@ frame_needed = 1, uses_anonymous_args = 0
 1666 0000 80B5     		push	{r7, lr}
 1667              		.cfi_def_cfa_offset 8
 1668              		.cfi_offset 7, -8
 1669              		.cfi_offset 14, -4
 1670 0002 00AF     		add	r7, sp, #0
 1671              		.cfi_def_cfa_register 7
 729:RelayTest.c   **** 
 730:RelayTest.c   ****     if(CurrentTest.TestStep == QUAD_PORTS)        // *** moved to 20ms  
 1672              		.loc 1 730 0
 1673 0004 044B     		ldr	r3, .L133
 1674 0006 5B78     		ldrb	r3, [r3, #1]	@ zero_extendqisi2
 1675 0008 042B     		cmp	r3, #4
 1676 000a 02D1     		bne	.L132
 731:RelayTest.c   ****         sendPacketToRelay_Quad();
 1677              		.loc 1 731 0
 1678 000c FFF7FEFF 		bl	sendPacketToRelay_Quad
 732:RelayTest.c   **** 
 733:RelayTest.c   ****     return;
 1679              		.loc 1 733 0
 1680 0010 00BF     		nop
 1681              	.L132:
 1682 0012 00BF     		nop
 734:RelayTest.c   ****     
 735:RelayTest.c   **** }
ARM GAS  C:\Users\MARTHN~1\AppData\Local\Temp\cc9i6CHj.s 			page 44


 1683              		.loc 1 735 0
 1684 0014 80BD     		pop	{r7, pc}
 1685              	.L134:
 1686 0016 00BF     		.align	2
 1687              	.L133:
 1688 0018 00000000 		.word	CurrentTest
 1689              		.cfi_endproc
 1690              	.LFE78:
 1691              		.size	RTest_10ms_isr, .-RTest_10ms_isr
 1692              		.section	.text.RTest_20ms_isr,"ax",%progbits
 1693              		.align	2
 1694              		.global	RTest_20ms_isr
 1695              		.thumb
 1696              		.thumb_func
 1697              		.type	RTest_20ms_isr, %function
 1698              	RTest_20ms_isr:
 1699              	.LFB79:
 736:RelayTest.c   **** 
 737:RelayTest.c   **** void RTest_20ms_isr(void)                       // Manage Timeout for failure
 738:RelayTest.c   **** {
 1700              		.loc 1 738 0
 1701              		.cfi_startproc
 1702              		@ args = 0, pretend = 0, frame = 0
 1703              		@ frame_needed = 1, uses_anonymous_args = 0
 1704 0000 80B5     		push	{r7, lr}
 1705              		.cfi_def_cfa_offset 8
 1706              		.cfi_offset 7, -8
 1707              		.cfi_offset 14, -4
 1708 0002 00AF     		add	r7, sp, #0
 1709              		.cfi_def_cfa_register 7
 739:RelayTest.c   ****     if(CurrentTest.TestStep == QUAD_PORTS)       // *** send quad packet if needed 
 1710              		.loc 1 739 0
 1711 0004 1A4B     		ldr	r3, .L143
 1712 0006 5B78     		ldrb	r3, [r3, #1]	@ zero_extendqisi2
 1713 0008 042B     		cmp	r3, #4
 1714 000a 01D1     		bne	.L136
 740:RelayTest.c   ****     {
 741:RelayTest.c   ****         sendPacketToRelay_Quad();
 1715              		.loc 1 741 0
 1716 000c FFF7FEFF 		bl	sendPacketToRelay_Quad
 1717              	.L136:
 742:RelayTest.c   ****     }
 743:RelayTest.c   ****     
 744:RelayTest.c   ****     RTest_20ms_isr_count++;                                         // 
 1718              		.loc 1 744 0
 1719 0010 184B     		ldr	r3, .L143+4
 1720 0012 1B88     		ldrh	r3, [r3]
 1721 0014 0133     		adds	r3, r3, #1
 1722 0016 9AB2     		uxth	r2, r3
 1723 0018 164B     		ldr	r3, .L143+4
 1724 001a 1A80     		strh	r2, [r3]	@ movhi
 745:RelayTest.c   **** 
 746:RelayTest.c   ****     if(RTest_20ms_isr_count > RTest_TimeoutCount[CurrentTest.TestStep])
 1725              		.loc 1 746 0
 1726 001c 144B     		ldr	r3, .L143
 1727 001e 5B78     		ldrb	r3, [r3, #1]	@ zero_extendqisi2
 1728 0020 1A46     		mov	r2, r3
ARM GAS  C:\Users\MARTHN~1\AppData\Local\Temp\cc9i6CHj.s 			page 45


 1729 0022 154B     		ldr	r3, .L143+8
 1730 0024 33F81220 		ldrh	r2, [r3, r2, lsl #1]
 1731 0028 124B     		ldr	r3, .L143+4
 1732 002a 1B88     		ldrh	r3, [r3]
 1733 002c 9A42     		cmp	r2, r3
 1734 002e 10D2     		bcs	.L137
 747:RelayTest.c   ****     {
 748:RelayTest.c   ****         RTest_20ms_isr_count = 0;
 1735              		.loc 1 748 0
 1736 0030 104B     		ldr	r3, .L143+4
 1737 0032 0022     		movs	r2, #0
 1738 0034 1A80     		strh	r2, [r3]	@ movhi
 749:RelayTest.c   ****         
 750:RelayTest.c   ****         if(RTest_20ms_isr_EN == 1)
 1739              		.loc 1 750 0
 1740 0036 114B     		ldr	r3, .L143+12
 1741 0038 1B88     		ldrh	r3, [r3]
 1742 003a 012B     		cmp	r3, #1
 1743 003c 14D1     		bne	.L141
 751:RelayTest.c   ****         {
 752:RelayTest.c   ****             RTestStatus[CurrentTest.TestStep] = 'F';
 1744              		.loc 1 752 0
 1745 003e 0C4B     		ldr	r3, .L143
 1746 0040 5B78     		ldrb	r3, [r3, #1]	@ zero_extendqisi2
 1747 0042 1A46     		mov	r2, r3
 1748 0044 0E4B     		ldr	r3, .L143+16
 1749 0046 4621     		movs	r1, #70
 1750 0048 9954     		strb	r1, [r3, r2]
 753:RelayTest.c   ****             CurrentTest.Status = 'F';
 1751              		.loc 1 753 0
 1752 004a 094B     		ldr	r3, .L143
 1753 004c 4622     		movs	r2, #70
 1754 004e 9A70     		strb	r2, [r3, #2]
 754:RelayTest.c   ****         }
 755:RelayTest.c   ****             
 756:RelayTest.c   ****         return;
 1755              		.loc 1 756 0
 1756 0050 0AE0     		b	.L141
 1757              	.L137:
 757:RelayTest.c   ****     }
 758:RelayTest.c   ****     
 759:RelayTest.c   ****     if(RTest_20ms_isr_count > 65000)
 1758              		.loc 1 759 0
 1759 0052 084B     		ldr	r3, .L143+4
 1760 0054 1B88     		ldrh	r3, [r3]
 1761 0056 4FF6E852 		movw	r2, #65000
 1762 005a 9342     		cmp	r3, r2
 1763 005c 06D9     		bls	.L142
 760:RelayTest.c   ****         RTest_20ms_isr_count = 0;
 1764              		.loc 1 760 0
 1765 005e 054B     		ldr	r3, .L143+4
 1766 0060 0022     		movs	r2, #0
 1767 0062 1A80     		strh	r2, [r3]	@ movhi
 761:RelayTest.c   ****     
 762:RelayTest.c   ****     return;
 1768              		.loc 1 762 0
 1769 0064 00BF     		nop
ARM GAS  C:\Users\MARTHN~1\AppData\Local\Temp\cc9i6CHj.s 			page 46


 1770 0066 01E0     		b	.L142
 1771              	.L141:
 756:RelayTest.c   ****     }
 1772              		.loc 1 756 0
 1773 0068 00BF     		nop
 1774 006a 00E0     		b	.L135
 1775              	.L142:
 1776              		.loc 1 762 0
 1777 006c 00BF     		nop
 1778              	.L135:
 763:RelayTest.c   ****     
 764:RelayTest.c   **** }
 1779              		.loc 1 764 0
 1780 006e 80BD     		pop	{r7, pc}
 1781              	.L144:
 1782              		.align	2
 1783              	.L143:
 1784 0070 00000000 		.word	CurrentTest
 1785 0074 08010000 		.word	RTest_20ms_isr_count
 1786 0078 00000000 		.word	RTest_TimeoutCount
 1787 007c 0A010000 		.word	RTest_20ms_isr_EN
 1788 0080 0C010000 		.word	RTestStatus
 1789              		.cfi_endproc
 1790              	.LFE79:
 1791              		.size	RTest_20ms_isr, .-RTest_20ms_isr
 1792              		.section	.text.RTest_50ms_isr,"ax",%progbits
 1793              		.align	2
 1794              		.global	RTest_50ms_isr
 1795              		.thumb
 1796              		.thumb_func
 1797              		.type	RTest_50ms_isr, %function
 1798              	RTest_50ms_isr:
 1799              	.LFB80:
 765:RelayTest.c   **** 
 766:RelayTest.c   **** void RTest_50ms_isr(void)                       // Times interboard comms, and serial diagnostics
 767:RelayTest.c   **** {
 1800              		.loc 1 767 0
 1801              		.cfi_startproc
 1802              		@ args = 0, pretend = 0, frame = 0
 1803              		@ frame_needed = 1, uses_anonymous_args = 0
 1804 0000 80B5     		push	{r7, lr}
 1805              		.cfi_def_cfa_offset 8
 1806              		.cfi_offset 7, -8
 1807              		.cfi_offset 14, -4
 1808 0002 00AF     		add	r7, sp, #0
 1809              		.cfi_def_cfa_register 7
 768:RelayTest.c   ****     
 769:RelayTest.c   ****     RTest_sendDiagPacket();
 1810              		.loc 1 769 0
 1811 0004 FFF7FEFF 		bl	RTest_sendDiagPacket
 770:RelayTest.c   ****     
 771:RelayTest.c   ****     if( (CurrentTest.TestStep == INITIALIZE_TEST) ||
 1812              		.loc 1 771 0
 1813 0008 124B     		ldr	r3, .L151
 1814 000a 5B78     		ldrb	r3, [r3, #1]	@ zero_extendqisi2
 1815 000c 002B     		cmp	r3, #0
 1816 000e 13D0     		beq	.L146
ARM GAS  C:\Users\MARTHN~1\AppData\Local\Temp\cc9i6CHj.s 			page 47


 772:RelayTest.c   ****         (CurrentTest.TestStep == TEST_OUTPUTS) ||
 1817              		.loc 1 772 0 discriminator 1
 1818 0010 104B     		ldr	r3, .L151
 1819 0012 5B78     		ldrb	r3, [r3, #1]	@ zero_extendqisi2
 771:RelayTest.c   ****         (CurrentTest.TestStep == TEST_OUTPUTS) ||
 1820              		.loc 1 771 0 discriminator 1
 1821 0014 022B     		cmp	r3, #2
 1822 0016 0FD0     		beq	.L146
 773:RelayTest.c   ****         (CurrentTest.TestStep == DATALINK) ||
 1823              		.loc 1 773 0
 1824 0018 0E4B     		ldr	r3, .L151
 1825 001a 5B78     		ldrb	r3, [r3, #1]	@ zero_extendqisi2
 772:RelayTest.c   ****         (CurrentTest.TestStep == TEST_OUTPUTS) ||
 1826              		.loc 1 772 0
 1827 001c 032B     		cmp	r3, #3
 1828 001e 0BD0     		beq	.L146
 774:RelayTest.c   ****         (CurrentTest.TestStep == UART_SIREN) ||
 1829              		.loc 1 774 0
 1830 0020 0C4B     		ldr	r3, .L151
 1831 0022 5B78     		ldrb	r3, [r3, #1]	@ zero_extendqisi2
 773:RelayTest.c   ****         (CurrentTest.TestStep == DATALINK) ||
 1832              		.loc 1 773 0
 1833 0024 052B     		cmp	r3, #5
 1834 0026 07D0     		beq	.L146
 775:RelayTest.c   ****         (CurrentTest.TestStep == INPUTS) ||
 1835              		.loc 1 775 0
 1836 0028 0A4B     		ldr	r3, .L151
 1837 002a 5B78     		ldrb	r3, [r3, #1]	@ zero_extendqisi2
 774:RelayTest.c   ****         (CurrentTest.TestStep == UART_SIREN) ||
 1838              		.loc 1 774 0
 1839 002c 062B     		cmp	r3, #6
 1840 002e 03D0     		beq	.L146
 776:RelayTest.c   ****         (CurrentTest.TestStep == BLOCK_CURRENTS) )
 1841              		.loc 1 776 0
 1842 0030 084B     		ldr	r3, .L151
 1843 0032 5B78     		ldrb	r3, [r3, #1]	@ zero_extendqisi2
 775:RelayTest.c   ****         (CurrentTest.TestStep == INPUTS) ||
 1844              		.loc 1 775 0
 1845 0034 082B     		cmp	r3, #8
 1846 0036 01D1     		bne	.L147
 1847              	.L146:
 777:RelayTest.c   ****     {      
 778:RelayTest.c   ****         sendPacketToRelaySiren();               //*** used for UART_SIREN
 1848              		.loc 1 778 0
 1849 0038 FFF7FEFF 		bl	sendPacketToRelaySiren
 1850              	.L147:
 779:RelayTest.c   ****     }
 780:RelayTest.c   ****         
 781:RelayTest.c   ****     CyDelay(5);                                 // *** Give some time for first transmit to finish 
 1851              		.loc 1 781 0
 1852 003c 0520     		movs	r0, #5
 1853 003e FFF7FEFF 		bl	CyDelay
 782:RelayTest.c   ****     
 783:RelayTest.c   ****     if( CurrentTest.TestStep == UART_SIREN )
 1854              		.loc 1 783 0
 1855 0042 044B     		ldr	r3, .L151
 1856 0044 5B78     		ldrb	r3, [r3, #1]	@ zero_extendqisi2
ARM GAS  C:\Users\MARTHN~1\AppData\Local\Temp\cc9i6CHj.s 			page 48


 1857 0046 052B     		cmp	r3, #5
 1858 0048 02D1     		bne	.L150
 784:RelayTest.c   ****     {   
 785:RelayTest.c   ****         sendPacket_SirenToRelay();              //*** used for UART_SIREN
 1859              		.loc 1 785 0
 1860 004a FFF7FEFF 		bl	sendPacket_SirenToRelay
 786:RelayTest.c   ****     }
 787:RelayTest.c   ****     
 788:RelayTest.c   ****     return;
 1861              		.loc 1 788 0
 1862 004e 00BF     		nop
 1863              	.L150:
 1864 0050 00BF     		nop
 789:RelayTest.c   ****     
 790:RelayTest.c   **** }
 1865              		.loc 1 790 0
 1866 0052 80BD     		pop	{r7, pc}
 1867              	.L152:
 1868              		.align	2
 1869              	.L151:
 1870 0054 00000000 		.word	CurrentTest
 1871              		.cfi_endproc
 1872              	.LFE80:
 1873              		.size	RTest_50ms_isr, .-RTest_50ms_isr
 1874              		.section	.text.SetRelayOutputs,"ax",%progbits
 1875              		.align	2
 1876              		.global	SetRelayOutputs
 1877              		.thumb
 1878              		.thumb_func
 1879              		.type	SetRelayOutputs, %function
 1880              	SetRelayOutputs:
 1881              	.LFB81:
 791:RelayTest.c   **** 
 792:RelayTest.c   **** void SetRelayOutputs(uint8 enable)
 793:RelayTest.c   **** {
 1882              		.loc 1 793 0
 1883              		.cfi_startproc
 1884              		@ args = 0, pretend = 0, frame = 8
 1885              		@ frame_needed = 1, uses_anonymous_args = 0
 1886 0000 80B5     		push	{r7, lr}
 1887              		.cfi_def_cfa_offset 8
 1888              		.cfi_offset 7, -8
 1889              		.cfi_offset 14, -4
 1890 0002 82B0     		sub	sp, sp, #8
 1891              		.cfi_def_cfa_offset 16
 1892 0004 00AF     		add	r7, sp, #0
 1893              		.cfi_def_cfa_register 7
 1894 0006 0346     		mov	r3, r0
 1895 0008 FB71     		strb	r3, [r7, #7]
 794:RelayTest.c   ****     
 795:RelayTest.c   ****     //DEMUX_CTRL_230400_Write(RTEST_CONT);                        // Tx - Select the demux channel
 796:RelayTest.c   ****     pTxPacket_RelaySiren = getTxPacket_RelaySiren();            // Tx - Get pointers to packet   
 1896              		.loc 1 796 0
 1897 000a FFF7FEFF 		bl	getTxPacket_RelaySiren
 1898 000e 0246     		mov	r2, r0
 1899 0010 184B     		ldr	r3, .L157
 1900 0012 1A60     		str	r2, [r3]
ARM GAS  C:\Users\MARTHN~1\AppData\Local\Temp\cc9i6CHj.s 			page 49


 797:RelayTest.c   ****     
 798:RelayTest.c   ****     if(enable == 1)
 1901              		.loc 1 798 0
 1902 0014 FB79     		ldrb	r3, [r7, #7]	@ zero_extendqisi2
 1903 0016 012B     		cmp	r3, #1
 1904 0018 14D1     		bne	.L154
 799:RelayTest.c   ****     {
 800:RelayTest.c   ****         pTxPacket_RelaySiren->Payload.Outputs_1to8 = 0xFF;       // Turn on all Relay outputs
 1905              		.loc 1 800 0
 1906 001a 164B     		ldr	r3, .L157
 1907 001c 1B68     		ldr	r3, [r3]
 1908 001e FF22     		movs	r2, #255
 1909 0020 83F84520 		strb	r2, [r3, #69]
 801:RelayTest.c   ****         pTxPacket_RelaySiren->Payload.Outputs_9to16 = 0xFF;
 1910              		.loc 1 801 0
 1911 0024 134B     		ldr	r3, .L157
 1912 0026 1B68     		ldr	r3, [r3]
 1913 0028 FF22     		movs	r2, #255
 1914 002a 83F84620 		strb	r2, [r3, #70]
 802:RelayTest.c   ****         pTxPacket_RelaySiren->Payload.Outputs_17to24 = 0xFF;
 1915              		.loc 1 802 0
 1916 002e 114B     		ldr	r3, .L157
 1917 0030 1B68     		ldr	r3, [r3]
 1918 0032 FF22     		movs	r2, #255
 1919 0034 83F84720 		strb	r2, [r3, #71]
 803:RelayTest.c   ****         pTxPacket_RelaySiren->Payload.Outputs_25to32 = 0xFF;
 1920              		.loc 1 803 0
 1921 0038 0E4B     		ldr	r3, .L157
 1922 003a 1B68     		ldr	r3, [r3]
 1923 003c FF22     		movs	r2, #255
 1924 003e 83F84820 		strb	r2, [r3, #72]
 804:RelayTest.c   ****     }
 805:RelayTest.c   ****     else
 806:RelayTest.c   ****     {
 807:RelayTest.c   ****         pTxPacket_RelaySiren->Payload.Outputs_1to8 = 0x00;       // Turn off all Relay outputs
 808:RelayTest.c   ****         pTxPacket_RelaySiren->Payload.Outputs_9to16 = 0x00;
 809:RelayTest.c   ****         pTxPacket_RelaySiren->Payload.Outputs_17to24 = 0x00;
 810:RelayTest.c   ****         pTxPacket_RelaySiren->Payload.Outputs_25to32 = 0x00;
 811:RelayTest.c   ****     }
 812:RelayTest.c   ****         
 813:RelayTest.c   ****     return;
 1925              		.loc 1 813 0
 1926 0042 14E0     		b	.L153
 1927              	.L154:
 807:RelayTest.c   ****         pTxPacket_RelaySiren->Payload.Outputs_9to16 = 0x00;
 1928              		.loc 1 807 0
 1929 0044 0B4B     		ldr	r3, .L157
 1930 0046 1B68     		ldr	r3, [r3]
 1931 0048 0022     		movs	r2, #0
 1932 004a 83F84520 		strb	r2, [r3, #69]
 808:RelayTest.c   ****         pTxPacket_RelaySiren->Payload.Outputs_17to24 = 0x00;
 1933              		.loc 1 808 0
 1934 004e 094B     		ldr	r3, .L157
 1935 0050 1B68     		ldr	r3, [r3]
 1936 0052 0022     		movs	r2, #0
 1937 0054 83F84620 		strb	r2, [r3, #70]
 809:RelayTest.c   ****         pTxPacket_RelaySiren->Payload.Outputs_25to32 = 0x00;
ARM GAS  C:\Users\MARTHN~1\AppData\Local\Temp\cc9i6CHj.s 			page 50


 1938              		.loc 1 809 0
 1939 0058 064B     		ldr	r3, .L157
 1940 005a 1B68     		ldr	r3, [r3]
 1941 005c 0022     		movs	r2, #0
 1942 005e 83F84720 		strb	r2, [r3, #71]
 810:RelayTest.c   ****     }
 1943              		.loc 1 810 0
 1944 0062 044B     		ldr	r3, .L157
 1945 0064 1B68     		ldr	r3, [r3]
 1946 0066 0022     		movs	r2, #0
 1947 0068 83F84820 		strb	r2, [r3, #72]
 1948              		.loc 1 813 0
 1949 006c 00BF     		nop
 1950              	.L153:
 814:RelayTest.c   ****     
 815:RelayTest.c   **** }
 1951              		.loc 1 815 0
 1952 006e 0837     		adds	r7, r7, #8
 1953              		.cfi_def_cfa_offset 8
 1954 0070 BD46     		mov	sp, r7
 1955              		.cfi_def_cfa_register 13
 1956              		@ sp needed
 1957 0072 80BD     		pop	{r7, pc}
 1958              	.L158:
 1959              		.align	2
 1960              	.L157:
 1961 0074 78000000 		.word	pTxPacket_RelaySiren
 1962              		.cfi_endproc
 1963              	.LFE81:
 1964              		.size	SetRelayOutputs, .-SetRelayOutputs
 1965              		.section	.text.RTest_StartAutomatedStep,"ax",%progbits
 1966              		.align	2
 1967              		.global	RTest_StartAutomatedStep
 1968              		.thumb
 1969              		.thumb_func
 1970              		.type	RTest_StartAutomatedStep, %function
 1971              	RTest_StartAutomatedStep:
 1972              	.LFB82:
 816:RelayTest.c   **** 
 817:RelayTest.c   **** //void RTest_20ms_isr_start(void)
 818:RelayTest.c   **** //{
 819:RelayTest.c   **** //    
 820:RelayTest.c   **** //    RTest_20ms_isr_count = 0;
 821:RelayTest.c   **** //    
 822:RelayTest.c   **** //    return;
 823:RelayTest.c   **** //    
 824:RelayTest.c   **** //}
 825:RelayTest.c   **** 
 826:RelayTest.c   **** void RTest_StartAutomatedStep(void)
 827:RelayTest.c   **** {
 1973              		.loc 1 827 0
 1974              		.cfi_startproc
 1975              		@ args = 0, pretend = 0, frame = 0
 1976              		@ frame_needed = 1, uses_anonymous_args = 0
 1977              		@ link register save eliminated.
 1978 0000 80B4     		push	{r7}
 1979              		.cfi_def_cfa_offset 4
ARM GAS  C:\Users\MARTHN~1\AppData\Local\Temp\cc9i6CHj.s 			page 51


 1980              		.cfi_offset 7, -4
 1981 0002 00AF     		add	r7, sp, #0
 1982              		.cfi_def_cfa_register 7
 828:RelayTest.c   ****     
 829:RelayTest.c   ****     RTestStatus[CurrentTest.TestStep] = 'B';
 1983              		.loc 1 829 0
 1984 0004 094B     		ldr	r3, .L161
 1985 0006 5B78     		ldrb	r3, [r3, #1]	@ zero_extendqisi2
 1986 0008 1A46     		mov	r2, r3
 1987 000a 094B     		ldr	r3, .L161+4
 1988 000c 4221     		movs	r1, #66
 1989 000e 9954     		strb	r1, [r3, r2]
 830:RelayTest.c   ****     CurrentTest.Status = 'B';
 1990              		.loc 1 830 0
 1991 0010 064B     		ldr	r3, .L161
 1992 0012 4222     		movs	r2, #66
 1993 0014 9A70     		strb	r2, [r3, #2]
 831:RelayTest.c   ****     
 832:RelayTest.c   ****     RTest_20ms_isr_count = 0;
 1994              		.loc 1 832 0
 1995 0016 074B     		ldr	r3, .L161+8
 1996 0018 0022     		movs	r2, #0
 1997 001a 1A80     		strh	r2, [r3]	@ movhi
 833:RelayTest.c   ****     RTest_20ms_isr_EN = 1;
 1998              		.loc 1 833 0
 1999 001c 064B     		ldr	r3, .L161+12
 2000 001e 0122     		movs	r2, #1
 2001 0020 1A80     		strh	r2, [r3]	@ movhi
 834:RelayTest.c   ****     
 835:RelayTest.c   ****     return;
 2002              		.loc 1 835 0
 2003 0022 00BF     		nop
 836:RelayTest.c   ****     
 837:RelayTest.c   **** }
 2004              		.loc 1 837 0
 2005 0024 BD46     		mov	sp, r7
 2006              		.cfi_def_cfa_register 13
 2007              		@ sp needed
 2008 0026 80BC     		pop	{r7}
 2009              		.cfi_restore 7
 2010              		.cfi_def_cfa_offset 0
 2011 0028 7047     		bx	lr
 2012              	.L162:
 2013 002a 00BF     		.align	2
 2014              	.L161:
 2015 002c 00000000 		.word	CurrentTest
 2016 0030 0C010000 		.word	RTestStatus
 2017 0034 08010000 		.word	RTest_20ms_isr_count
 2018 0038 0A010000 		.word	RTest_20ms_isr_EN
 2019              		.cfi_endproc
 2020              	.LFE82:
 2021              		.size	RTest_StartAutomatedStep, .-RTest_StartAutomatedStep
 2022              		.section	.text.RTest_StopAutomatedStep,"ax",%progbits
 2023              		.align	2
 2024              		.global	RTest_StopAutomatedStep
 2025              		.thumb
 2026              		.thumb_func
ARM GAS  C:\Users\MARTHN~1\AppData\Local\Temp\cc9i6CHj.s 			page 52


 2027              		.type	RTest_StopAutomatedStep, %function
 2028              	RTest_StopAutomatedStep:
 2029              	.LFB83:
 838:RelayTest.c   **** 
 839:RelayTest.c   **** void RTest_StopAutomatedStep(void)
 840:RelayTest.c   **** {
 2030              		.loc 1 840 0
 2031              		.cfi_startproc
 2032              		@ args = 0, pretend = 0, frame = 0
 2033              		@ frame_needed = 1, uses_anonymous_args = 0
 2034              		@ link register save eliminated.
 2035 0000 80B4     		push	{r7}
 2036              		.cfi_def_cfa_offset 4
 2037              		.cfi_offset 7, -4
 2038 0002 00AF     		add	r7, sp, #0
 2039              		.cfi_def_cfa_register 7
 841:RelayTest.c   ****     
 842:RelayTest.c   ****     RTest_20ms_isr_EN = 0;
 2040              		.loc 1 842 0
 2041 0004 0B4B     		ldr	r3, .L167
 2042 0006 0022     		movs	r2, #0
 2043 0008 1A80     		strh	r2, [r3]	@ movhi
 843:RelayTest.c   ****     if(RTestStatus[CurrentTest.TestStep] != 'F')       // If not failed, then pass
 2044              		.loc 1 843 0
 2045 000a 0B4B     		ldr	r3, .L167+4
 2046 000c 5B78     		ldrb	r3, [r3, #1]	@ zero_extendqisi2
 2047 000e 1A46     		mov	r2, r3
 2048 0010 0A4B     		ldr	r3, .L167+8
 2049 0012 9B5C     		ldrb	r3, [r3, r2]	@ zero_extendqisi2
 2050 0014 462B     		cmp	r3, #70
 2051 0016 09D0     		beq	.L166
 844:RelayTest.c   ****     {
 845:RelayTest.c   ****         RTestStatus[CurrentTest.TestStep] = 'P';
 2052              		.loc 1 845 0
 2053 0018 074B     		ldr	r3, .L167+4
 2054 001a 5B78     		ldrb	r3, [r3, #1]	@ zero_extendqisi2
 2055 001c 1A46     		mov	r2, r3
 2056 001e 074B     		ldr	r3, .L167+8
 2057 0020 5021     		movs	r1, #80
 2058 0022 9954     		strb	r1, [r3, r2]
 846:RelayTest.c   ****         CurrentTest.Status = 'P';
 2059              		.loc 1 846 0
 2060 0024 044B     		ldr	r3, .L167+4
 2061 0026 5022     		movs	r2, #80
 2062 0028 9A70     		strb	r2, [r3, #2]
 847:RelayTest.c   ****     }
 848:RelayTest.c   ****     
 849:RelayTest.c   ****     return;
 2063              		.loc 1 849 0
 2064 002a 00BF     		nop
 2065              	.L166:
 2066 002c 00BF     		nop
 850:RelayTest.c   ****     
 851:RelayTest.c   **** }
 2067              		.loc 1 851 0
 2068 002e BD46     		mov	sp, r7
 2069              		.cfi_def_cfa_register 13
ARM GAS  C:\Users\MARTHN~1\AppData\Local\Temp\cc9i6CHj.s 			page 53


 2070              		@ sp needed
 2071 0030 80BC     		pop	{r7}
 2072              		.cfi_restore 7
 2073              		.cfi_def_cfa_offset 0
 2074 0032 7047     		bx	lr
 2075              	.L168:
 2076              		.align	2
 2077              	.L167:
 2078 0034 0A010000 		.word	RTest_20ms_isr_EN
 2079 0038 00000000 		.word	CurrentTest
 2080 003c 0C010000 		.word	RTestStatus
 2081              		.cfi_endproc
 2082              	.LFE83:
 2083              		.size	RTest_StopAutomatedStep, .-RTest_StopAutomatedStep
 2084              		.section	.text.SetRelayInputs,"ax",%progbits
 2085              		.align	2
 2086              		.global	SetRelayInputs
 2087              		.thumb
 2088              		.thumb_func
 2089              		.type	SetRelayInputs, %function
 2090              	SetRelayInputs:
 2091              	.LFB84:
 852:RelayTest.c   **** 
 853:RelayTest.c   **** void SetRelayInputs(uint8 enable)
 854:RelayTest.c   **** {
 2092              		.loc 1 854 0
 2093              		.cfi_startproc
 2094              		@ args = 0, pretend = 0, frame = 8
 2095              		@ frame_needed = 1, uses_anonymous_args = 0
 2096 0000 80B5     		push	{r7, lr}
 2097              		.cfi_def_cfa_offset 8
 2098              		.cfi_offset 7, -8
 2099              		.cfi_offset 14, -4
 2100 0002 82B0     		sub	sp, sp, #8
 2101              		.cfi_def_cfa_offset 16
 2102 0004 00AF     		add	r7, sp, #0
 2103              		.cfi_def_cfa_register 7
 2104 0006 0346     		mov	r3, r0
 2105 0008 FB71     		strb	r3, [r7, #7]
 855:RelayTest.c   ****     
 856:RelayTest.c   ****     if(enable == 1)
 2106              		.loc 1 856 0
 2107 000a FB79     		ldrb	r3, [r7, #7]	@ zero_extendqisi2
 2108 000c 012B     		cmp	r3, #1
 2109 000e 18D1     		bne	.L170
 857:RelayTest.c   ****     {
 858:RelayTest.c   ****         RTest_HSide1_Write(1);       // Activate all inputs
 2110              		.loc 1 858 0
 2111 0010 0120     		movs	r0, #1
 2112 0012 FFF7FEFF 		bl	RTest_HSide1_Write
 859:RelayTest.c   ****         RTest_HSide2_Write(1);
 2113              		.loc 1 859 0
 2114 0016 0120     		movs	r0, #1
 2115 0018 FFF7FEFF 		bl	RTest_HSide2_Write
 860:RelayTest.c   ****         RTest_HSide3_Write(1);
 2116              		.loc 1 860 0
 2117 001c 0120     		movs	r0, #1
ARM GAS  C:\Users\MARTHN~1\AppData\Local\Temp\cc9i6CHj.s 			page 54


 2118 001e FFF7FEFF 		bl	RTest_HSide3_Write
 861:RelayTest.c   ****         RTest_HSide4_Write(1);
 2119              		.loc 1 861 0
 2120 0022 0120     		movs	r0, #1
 2121 0024 FFF7FEFF 		bl	RTest_HSide4_Write
 862:RelayTest.c   ****         RTest_HSide5_Write(1);
 2122              		.loc 1 862 0
 2123 0028 0120     		movs	r0, #1
 2124 002a FFF7FEFF 		bl	RTest_HSide5_Write
 863:RelayTest.c   ****         RTest_HSide6_Write(1);
 2125              		.loc 1 863 0
 2126 002e 0120     		movs	r0, #1
 2127 0030 FFF7FEFF 		bl	RTest_HSide6_Write
 864:RelayTest.c   ****         RTest_HSide7_Write(1);
 2128              		.loc 1 864 0
 2129 0034 0120     		movs	r0, #1
 2130 0036 FFF7FEFF 		bl	RTest_HSide7_Write
 865:RelayTest.c   ****         RTest_HSide8_Write(1);
 2131              		.loc 1 865 0
 2132 003a 0120     		movs	r0, #1
 2133 003c FFF7FEFF 		bl	RTest_HSide8_Write
 866:RelayTest.c   ****     }
 867:RelayTest.c   ****     
 868:RelayTest.c   ****     else
 869:RelayTest.c   ****     {
 870:RelayTest.c   ****         RTest_HSide1_Write(0);      // Deactivate all inputs
 871:RelayTest.c   ****         RTest_HSide2_Write(0);
 872:RelayTest.c   ****         RTest_HSide3_Write(0);
 873:RelayTest.c   ****         RTest_HSide4_Write(0);
 874:RelayTest.c   ****         RTest_HSide5_Write(0);
 875:RelayTest.c   ****         RTest_HSide6_Write(0);
 876:RelayTest.c   ****         RTest_HSide7_Write(0);
 877:RelayTest.c   ****         RTest_HSide8_Write(0);   
 878:RelayTest.c   ****     }
 879:RelayTest.c   ****     
 880:RelayTest.c   ****     return;
 2134              		.loc 1 880 0
 2135 0040 18E0     		b	.L169
 2136              	.L170:
 870:RelayTest.c   ****         RTest_HSide2_Write(0);
 2137              		.loc 1 870 0
 2138 0042 0020     		movs	r0, #0
 2139 0044 FFF7FEFF 		bl	RTest_HSide1_Write
 871:RelayTest.c   ****         RTest_HSide3_Write(0);
 2140              		.loc 1 871 0
 2141 0048 0020     		movs	r0, #0
 2142 004a FFF7FEFF 		bl	RTest_HSide2_Write
 872:RelayTest.c   ****         RTest_HSide4_Write(0);
 2143              		.loc 1 872 0
 2144 004e 0020     		movs	r0, #0
 2145 0050 FFF7FEFF 		bl	RTest_HSide3_Write
 873:RelayTest.c   ****         RTest_HSide5_Write(0);
 2146              		.loc 1 873 0
 2147 0054 0020     		movs	r0, #0
 2148 0056 FFF7FEFF 		bl	RTest_HSide4_Write
 874:RelayTest.c   ****         RTest_HSide6_Write(0);
 2149              		.loc 1 874 0
ARM GAS  C:\Users\MARTHN~1\AppData\Local\Temp\cc9i6CHj.s 			page 55


 2150 005a 0020     		movs	r0, #0
 2151 005c FFF7FEFF 		bl	RTest_HSide5_Write
 875:RelayTest.c   ****         RTest_HSide7_Write(0);
 2152              		.loc 1 875 0
 2153 0060 0020     		movs	r0, #0
 2154 0062 FFF7FEFF 		bl	RTest_HSide6_Write
 876:RelayTest.c   ****         RTest_HSide8_Write(0);   
 2155              		.loc 1 876 0
 2156 0066 0020     		movs	r0, #0
 2157 0068 FFF7FEFF 		bl	RTest_HSide7_Write
 877:RelayTest.c   ****     }
 2158              		.loc 1 877 0
 2159 006c 0020     		movs	r0, #0
 2160 006e FFF7FEFF 		bl	RTest_HSide8_Write
 2161              		.loc 1 880 0
 2162 0072 00BF     		nop
 2163              	.L169:
 881:RelayTest.c   **** }
 2164              		.loc 1 881 0
 2165 0074 0837     		adds	r7, r7, #8
 2166              		.cfi_def_cfa_offset 8
 2167 0076 BD46     		mov	sp, r7
 2168              		.cfi_def_cfa_register 13
 2169              		@ sp needed
 2170 0078 80BD     		pop	{r7, pc}
 2171              		.cfi_endproc
 2172              	.LFE84:
 2173              		.size	SetRelayInputs, .-SetRelayInputs
 2174 007a 00BF     		.bss
 2175 0117 00       		.align	2
 2176              	RelayTestStatus_display.7653:
 2177 0118 00000000 		.space	22
 2177      00000000 
 2177      00000000 
 2177      00000000 
 2177      00000000 
 2178              		.text
 2179              	.Letext0:
 2180              		.file 2 "c:\\program files (x86)\\cypress\\psoc creator\\4.3\\psoc creator\\import\\gnu\\arm\\5.4.
 2181              		.file 3 "c:\\program files (x86)\\cypress\\psoc creator\\4.3\\psoc creator\\import\\gnu\\arm\\5.4.
 2182              		.file 4 "Generated_Source\\PSoC5/cytypes.h"
 2183              		.file 5 "CommonVariables.h"
 2184              		.file 6 "UART_230400_Functions.h"
 2185              		.file 7 "UART_460800_Functions.h"
 2186              		.file 8 "Generated_Source\\PSoC5/core_cm3.h"
 2187              		.section	.debug_info,"",%progbits
 2188              	.Ldebug_info0:
 2189 0000 63120000 		.4byte	0x1263
 2190 0004 0400     		.2byte	0x4
 2191 0006 00000000 		.4byte	.Ldebug_abbrev0
 2192 000a 04       		.byte	0x4
 2193 000b 01       		.uleb128 0x1
 2194 000c C1090000 		.4byte	.LASF331
 2195 0010 0C       		.byte	0xc
 2196 0011 1E100000 		.4byte	.LASF332
 2197 0015 E6040000 		.4byte	.LASF333
 2198 0019 00000000 		.4byte	.Ldebug_ranges0+0
ARM GAS  C:\Users\MARTHN~1\AppData\Local\Temp\cc9i6CHj.s 			page 56


 2199 001d 00000000 		.4byte	0
 2200 0021 00000000 		.4byte	.Ldebug_line0
 2201 0025 02       		.uleb128 0x2
 2202 0026 01       		.byte	0x1
 2203 0027 06       		.byte	0x6
 2204 0028 6B040000 		.4byte	.LASF0
 2205 002c 02       		.uleb128 0x2
 2206 002d 01       		.byte	0x1
 2207 002e 08       		.byte	0x8
 2208 002f BB040000 		.4byte	.LASF1
 2209 0033 02       		.uleb128 0x2
 2210 0034 02       		.byte	0x2
 2211 0035 05       		.byte	0x5
 2212 0036 8C0F0000 		.4byte	.LASF2
 2213 003a 02       		.uleb128 0x2
 2214 003b 02       		.byte	0x2
 2215 003c 07       		.byte	0x7
 2216 003d 71110000 		.4byte	.LASF3
 2217 0041 03       		.uleb128 0x3
 2218 0042 90110000 		.4byte	.LASF9
 2219 0046 02       		.byte	0x2
 2220 0047 3F       		.byte	0x3f
 2221 0048 4C000000 		.4byte	0x4c
 2222 004c 02       		.uleb128 0x2
 2223 004d 04       		.byte	0x4
 2224 004e 05       		.byte	0x5
 2225 004f 94030000 		.4byte	.LASF4
 2226 0053 02       		.uleb128 0x2
 2227 0054 04       		.byte	0x4
 2228 0055 07       		.byte	0x7
 2229 0056 DA080000 		.4byte	.LASF5
 2230 005a 02       		.uleb128 0x2
 2231 005b 08       		.byte	0x8
 2232 005c 05       		.byte	0x5
 2233 005d 890A0000 		.4byte	.LASF6
 2234 0061 02       		.uleb128 0x2
 2235 0062 08       		.byte	0x8
 2236 0063 07       		.byte	0x7
 2237 0064 BB0C0000 		.4byte	.LASF7
 2238 0068 04       		.uleb128 0x4
 2239 0069 04       		.byte	0x4
 2240 006a 05       		.byte	0x5
 2241 006b 696E7400 		.ascii	"int\000"
 2242 006f 02       		.uleb128 0x2
 2243 0070 04       		.byte	0x4
 2244 0071 07       		.byte	0x7
 2245 0072 220B0000 		.4byte	.LASF8
 2246 0076 03       		.uleb128 0x3
 2247 0077 4E000000 		.4byte	.LASF10
 2248 007b 03       		.byte	0x3
 2249 007c 2C       		.byte	0x2c
 2250 007d 41000000 		.4byte	0x41
 2251 0081 05       		.uleb128 0x5
 2252 0082 5F0F0000 		.4byte	.LASF11
 2253 0086 04       		.byte	0x4
 2254 0087 E401     		.2byte	0x1e4
 2255 0089 2C000000 		.4byte	0x2c
ARM GAS  C:\Users\MARTHN~1\AppData\Local\Temp\cc9i6CHj.s 			page 57


 2256 008d 05       		.uleb128 0x5
 2257 008e 13120000 		.4byte	.LASF12
 2258 0092 04       		.byte	0x4
 2259 0093 E501     		.2byte	0x1e5
 2260 0095 3A000000 		.4byte	0x3a
 2261 0099 05       		.uleb128 0x5
 2262 009a F4000000 		.4byte	.LASF13
 2263 009e 04       		.byte	0x4
 2264 009f E601     		.2byte	0x1e6
 2265 00a1 53000000 		.4byte	0x53
 2266 00a5 02       		.uleb128 0x2
 2267 00a6 04       		.byte	0x4
 2268 00a7 04       		.byte	0x4
 2269 00a8 020B0000 		.4byte	.LASF14
 2270 00ac 02       		.uleb128 0x2
 2271 00ad 08       		.byte	0x8
 2272 00ae 04       		.byte	0x4
 2273 00af C10A0000 		.4byte	.LASF15
 2274 00b3 02       		.uleb128 0x2
 2275 00b4 01       		.byte	0x1
 2276 00b5 08       		.byte	0x8
 2277 00b6 40050000 		.4byte	.LASF16
 2278 00ba 02       		.uleb128 0x2
 2279 00bb 08       		.byte	0x8
 2280 00bc 04       		.byte	0x4
 2281 00bd EB0B0000 		.4byte	.LASF17
 2282 00c1 02       		.uleb128 0x2
 2283 00c2 04       		.byte	0x4
 2284 00c3 07       		.byte	0x7
 2285 00c4 20000000 		.4byte	.LASF18
 2286 00c8 06       		.uleb128 0x6
 2287 00c9 130B0000 		.4byte	.LASF23
 2288 00cd 03       		.byte	0x3
 2289 00ce 05       		.byte	0x5
 2290 00cf 10       		.byte	0x10
 2291 00d0 F9000000 		.4byte	0xf9
 2292 00d4 07       		.uleb128 0x7
 2293 00d5 EC080000 		.4byte	.LASF19
 2294 00d9 05       		.byte	0x5
 2295 00da 12       		.byte	0x12
 2296 00db 81000000 		.4byte	0x81
 2297 00df 00       		.byte	0
 2298 00e0 07       		.uleb128 0x7
 2299 00e1 4F0A0000 		.4byte	.LASF20
 2300 00e5 05       		.byte	0x5
 2301 00e6 13       		.byte	0x13
 2302 00e7 81000000 		.4byte	0x81
 2303 00eb 01       		.byte	0x1
 2304 00ec 07       		.uleb128 0x7
 2305 00ed 670A0000 		.4byte	.LASF21
 2306 00f1 05       		.byte	0x5
 2307 00f2 14       		.byte	0x14
 2308 00f3 81000000 		.4byte	0x81
 2309 00f7 02       		.byte	0x2
 2310 00f8 00       		.byte	0
 2311 00f9 03       		.uleb128 0x3
 2312 00fa 270F0000 		.4byte	.LASF22
ARM GAS  C:\Users\MARTHN~1\AppData\Local\Temp\cc9i6CHj.s 			page 58


 2313 00fe 05       		.byte	0x5
 2314 00ff 18       		.byte	0x18
 2315 0100 C8000000 		.4byte	0xc8
 2316 0104 08       		.uleb128 0x8
 2317 0105 81000000 		.4byte	0x81
 2318 0109 14010000 		.4byte	0x114
 2319 010d 09       		.uleb128 0x9
 2320 010e C1000000 		.4byte	0xc1
 2321 0112 4E       		.byte	0x4e
 2322 0113 00       		.byte	0
 2323 0114 08       		.uleb128 0x8
 2324 0115 81000000 		.4byte	0x81
 2325 0119 24010000 		.4byte	0x124
 2326 011d 09       		.uleb128 0x9
 2327 011e C1000000 		.4byte	0xc1
 2328 0122 0E       		.byte	0xe
 2329 0123 00       		.byte	0
 2330 0124 06       		.uleb128 0x6
 2331 0125 6E0F0000 		.4byte	.LASF24
 2332 0129 0F       		.byte	0xf
 2333 012a 06       		.byte	0x6
 2334 012b BB       		.byte	0xbb
 2335 012c E5010000 		.4byte	0x1e5
 2336 0130 07       		.uleb128 0x7
 2337 0131 BD020000 		.4byte	.LASF25
 2338 0135 06       		.byte	0x6
 2339 0136 BD       		.byte	0xbd
 2340 0137 81000000 		.4byte	0x81
 2341 013b 00       		.byte	0
 2342 013c 07       		.uleb128 0x7
 2343 013d CC020000 		.4byte	.LASF26
 2344 0141 06       		.byte	0x6
 2345 0142 BE       		.byte	0xbe
 2346 0143 81000000 		.4byte	0x81
 2347 0147 01       		.byte	0x1
 2348 0148 07       		.uleb128 0x7
 2349 0149 DB020000 		.4byte	.LASF27
 2350 014d 06       		.byte	0x6
 2351 014e BF       		.byte	0xbf
 2352 014f 81000000 		.4byte	0x81
 2353 0153 02       		.byte	0x2
 2354 0154 07       		.uleb128 0x7
 2355 0155 EA020000 		.4byte	.LASF28
 2356 0159 06       		.byte	0x6
 2357 015a C0       		.byte	0xc0
 2358 015b 81000000 		.4byte	0x81
 2359 015f 03       		.byte	0x3
 2360 0160 07       		.uleb128 0x7
 2361 0161 CF0B0000 		.4byte	.LASF29
 2362 0165 06       		.byte	0x6
 2363 0166 C1       		.byte	0xc1
 2364 0167 81000000 		.4byte	0x81
 2365 016b 04       		.byte	0x4
 2366 016c 07       		.uleb128 0x7
 2367 016d 4B060000 		.4byte	.LASF30
 2368 0171 06       		.byte	0x6
 2369 0172 C2       		.byte	0xc2
ARM GAS  C:\Users\MARTHN~1\AppData\Local\Temp\cc9i6CHj.s 			page 59


 2370 0173 81000000 		.4byte	0x81
 2371 0177 05       		.byte	0x5
 2372 0178 07       		.uleb128 0x7
 2373 0179 110E0000 		.4byte	.LASF31
 2374 017d 06       		.byte	0x6
 2375 017e C3       		.byte	0xc3
 2376 017f 81000000 		.4byte	0x81
 2377 0183 06       		.byte	0x6
 2378 0184 07       		.uleb128 0x7
 2379 0185 E40C0000 		.4byte	.LASF32
 2380 0189 06       		.byte	0x6
 2381 018a C4       		.byte	0xc4
 2382 018b 81000000 		.4byte	0x81
 2383 018f 07       		.byte	0x7
 2384 0190 07       		.uleb128 0x7
 2385 0191 2F0B0000 		.4byte	.LASF33
 2386 0195 06       		.byte	0x6
 2387 0196 C5       		.byte	0xc5
 2388 0197 81000000 		.4byte	0x81
 2389 019b 08       		.byte	0x8
 2390 019c 07       		.uleb128 0x7
 2391 019d 3B0B0000 		.4byte	.LASF34
 2392 01a1 06       		.byte	0x6
 2393 01a2 C6       		.byte	0xc6
 2394 01a3 81000000 		.4byte	0x81
 2395 01a7 09       		.byte	0x9
 2396 01a8 07       		.uleb128 0x7
 2397 01a9 470B0000 		.4byte	.LASF35
 2398 01ad 06       		.byte	0x6
 2399 01ae C7       		.byte	0xc7
 2400 01af 81000000 		.4byte	0x81
 2401 01b3 0A       		.byte	0xa
 2402 01b4 07       		.uleb128 0x7
 2403 01b5 EF110000 		.4byte	.LASF36
 2404 01b9 06       		.byte	0x6
 2405 01ba C8       		.byte	0xc8
 2406 01bb 81000000 		.4byte	0x81
 2407 01bf 0B       		.byte	0xb
 2408 01c0 07       		.uleb128 0x7
 2409 01c1 FB110000 		.4byte	.LASF37
 2410 01c5 06       		.byte	0x6
 2411 01c6 C9       		.byte	0xc9
 2412 01c7 81000000 		.4byte	0x81
 2413 01cb 0C       		.byte	0xc
 2414 01cc 07       		.uleb128 0x7
 2415 01cd 07120000 		.4byte	.LASF38
 2416 01d1 06       		.byte	0x6
 2417 01d2 CA       		.byte	0xca
 2418 01d3 81000000 		.4byte	0x81
 2419 01d7 0D       		.byte	0xd
 2420 01d8 07       		.uleb128 0x7
 2421 01d9 9F040000 		.4byte	.LASF39
 2422 01dd 06       		.byte	0x6
 2423 01de CB       		.byte	0xcb
 2424 01df 81000000 		.4byte	0x81
 2425 01e3 0E       		.byte	0xe
 2426 01e4 00       		.byte	0
ARM GAS  C:\Users\MARTHN~1\AppData\Local\Temp\cc9i6CHj.s 			page 60


 2427 01e5 0A       		.uleb128 0xa
 2428 01e6 780E0000 		.4byte	.LASF122
 2429 01ea 0F       		.byte	0xf
 2430 01eb 06       		.byte	0x6
 2431 01ec B7       		.byte	0xb7
 2432 01ed 08020000 		.4byte	0x208
 2433 01f1 0B       		.uleb128 0xb
 2434 01f2 3A050000 		.4byte	.LASF40
 2435 01f6 06       		.byte	0x6
 2436 01f7 B9       		.byte	0xb9
 2437 01f8 14010000 		.4byte	0x114
 2438 01fc 0B       		.uleb128 0xb
 2439 01fd A8040000 		.4byte	.LASF41
 2440 0201 06       		.byte	0x6
 2441 0202 CC       		.byte	0xcc
 2442 0203 24010000 		.4byte	0x124
 2443 0207 00       		.byte	0
 2444 0208 03       		.uleb128 0x3
 2445 0209 CC0F0000 		.4byte	.LASF42
 2446 020d 06       		.byte	0x6
 2447 020e CD       		.byte	0xcd
 2448 020f E5010000 		.4byte	0x1e5
 2449 0213 0C       		.uleb128 0xc
 2450 0214 D4100000 		.4byte	.LASF43
 2451 0218 4F       		.byte	0x4f
 2452 0219 06       		.byte	0x6
 2453 021a 2D01     		.2byte	0x12d
 2454 021c 24060000 		.4byte	0x624
 2455 0220 0D       		.uleb128 0xd
 2456 0221 98070000 		.4byte	.LASF44
 2457 0225 06       		.byte	0x6
 2458 0226 2F01     		.2byte	0x12f
 2459 0228 81000000 		.4byte	0x81
 2460 022c 00       		.byte	0
 2461 022d 0D       		.uleb128 0xd
 2462 022e 7A070000 		.4byte	.LASF45
 2463 0232 06       		.byte	0x6
 2464 0233 3001     		.2byte	0x130
 2465 0235 81000000 		.4byte	0x81
 2466 0239 01       		.byte	0x1
 2467 023a 0D       		.uleb128 0xd
 2468 023b 71070000 		.4byte	.LASF46
 2469 023f 06       		.byte	0x6
 2470 0240 3101     		.2byte	0x131
 2471 0242 81000000 		.4byte	0x81
 2472 0246 02       		.byte	0x2
 2473 0247 0D       		.uleb128 0xd
 2474 0248 51040000 		.4byte	.LASF47
 2475 024c 06       		.byte	0x6
 2476 024d 3201     		.2byte	0x132
 2477 024f 81000000 		.4byte	0x81
 2478 0253 03       		.byte	0x3
 2479 0254 0D       		.uleb128 0xd
 2480 0255 3C040000 		.4byte	.LASF48
 2481 0259 06       		.byte	0x6
 2482 025a 3301     		.2byte	0x133
 2483 025c 81000000 		.4byte	0x81
ARM GAS  C:\Users\MARTHN~1\AppData\Local\Temp\cc9i6CHj.s 			page 61


 2484 0260 04       		.byte	0x4
 2485 0261 0D       		.uleb128 0xd
 2486 0262 33040000 		.4byte	.LASF49
 2487 0266 06       		.byte	0x6
 2488 0267 3401     		.2byte	0x134
 2489 0269 81000000 		.4byte	0x81
 2490 026d 05       		.byte	0x5
 2491 026e 0D       		.uleb128 0xd
 2492 026f 2C120000 		.4byte	.LASF50
 2493 0273 06       		.byte	0x6
 2494 0274 3501     		.2byte	0x135
 2495 0276 81000000 		.4byte	0x81
 2496 027a 06       		.byte	0x6
 2497 027b 0D       		.uleb128 0xd
 2498 027c 23120000 		.4byte	.LASF51
 2499 0280 06       		.byte	0x6
 2500 0281 3601     		.2byte	0x136
 2501 0283 81000000 		.4byte	0x81
 2502 0287 07       		.byte	0x7
 2503 0288 0D       		.uleb128 0xd
 2504 0289 1A120000 		.4byte	.LASF52
 2505 028d 06       		.byte	0x6
 2506 028e 3701     		.2byte	0x137
 2507 0290 81000000 		.4byte	0x81
 2508 0294 08       		.byte	0x8
 2509 0295 0D       		.uleb128 0xd
 2510 0296 BE0E0000 		.4byte	.LASF53
 2511 029a 06       		.byte	0x6
 2512 029b 3801     		.2byte	0x138
 2513 029d 81000000 		.4byte	0x81
 2514 02a1 09       		.byte	0x9
 2515 02a2 0D       		.uleb128 0xd
 2516 02a3 950E0000 		.4byte	.LASF54
 2517 02a7 06       		.byte	0x6
 2518 02a8 3901     		.2byte	0x139
 2519 02aa 81000000 		.4byte	0x81
 2520 02ae 0A       		.byte	0xa
 2521 02af 0D       		.uleb128 0xd
 2522 02b0 8C0E0000 		.4byte	.LASF55
 2523 02b4 06       		.byte	0x6
 2524 02b5 3A01     		.2byte	0x13a
 2525 02b7 81000000 		.4byte	0x81
 2526 02bb 0B       		.byte	0xb
 2527 02bc 0D       		.uleb128 0xd
 2528 02bd 8D0B0000 		.4byte	.LASF56
 2529 02c1 06       		.byte	0x6
 2530 02c2 3B01     		.2byte	0x13b
 2531 02c4 81000000 		.4byte	0x81
 2532 02c8 0C       		.byte	0xc
 2533 02c9 0D       		.uleb128 0xd
 2534 02ca 760B0000 		.4byte	.LASF57
 2535 02ce 06       		.byte	0x6
 2536 02cf 3C01     		.2byte	0x13c
 2537 02d1 81000000 		.4byte	0x81
 2538 02d5 0D       		.byte	0xd
 2539 02d6 0D       		.uleb128 0xd
 2540 02d7 5E0B0000 		.4byte	.LASF58
ARM GAS  C:\Users\MARTHN~1\AppData\Local\Temp\cc9i6CHj.s 			page 62


 2541 02db 06       		.byte	0x6
 2542 02dc 3D01     		.2byte	0x13d
 2543 02de 81000000 		.4byte	0x81
 2544 02e2 0E       		.byte	0xe
 2545 02e3 0D       		.uleb128 0xd
 2546 02e4 3A010000 		.4byte	.LASF59
 2547 02e8 06       		.byte	0x6
 2548 02e9 3E01     		.2byte	0x13e
 2549 02eb 81000000 		.4byte	0x81
 2550 02ef 0F       		.byte	0xf
 2551 02f0 0D       		.uleb128 0xd
 2552 02f1 68070000 		.4byte	.LASF60
 2553 02f5 06       		.byte	0x6
 2554 02f6 3F01     		.2byte	0x13f
 2555 02f8 81000000 		.4byte	0x81
 2556 02fc 10       		.byte	0x10
 2557 02fd 0D       		.uleb128 0xd
 2558 02fe 4F070000 		.4byte	.LASF61
 2559 0302 06       		.byte	0x6
 2560 0303 4001     		.2byte	0x140
 2561 0305 81000000 		.4byte	0x81
 2562 0309 11       		.byte	0x11
 2563 030a 0D       		.uleb128 0xd
 2564 030b 240C0000 		.4byte	.LASF62
 2565 030f 06       		.byte	0x6
 2566 0310 4101     		.2byte	0x141
 2567 0312 81000000 		.4byte	0x81
 2568 0316 12       		.byte	0x12
 2569 0317 0D       		.uleb128 0xd
 2570 0318 2A040000 		.4byte	.LASF63
 2571 031c 06       		.byte	0x6
 2572 031d 4201     		.2byte	0x142
 2573 031f 81000000 		.4byte	0x81
 2574 0323 13       		.byte	0x13
 2575 0324 0D       		.uleb128 0xd
 2576 0325 21040000 		.4byte	.LASF64
 2577 0329 06       		.byte	0x6
 2578 032a 4301     		.2byte	0x143
 2579 032c 81000000 		.4byte	0x81
 2580 0330 14       		.byte	0x14
 2581 0331 0D       		.uleb128 0xd
 2582 0332 970A0000 		.4byte	.LASF65
 2583 0336 06       		.byte	0x6
 2584 0337 4401     		.2byte	0x144
 2585 0339 81000000 		.4byte	0x81
 2586 033d 15       		.byte	0x15
 2587 033e 0D       		.uleb128 0xd
 2588 033f 800A0000 		.4byte	.LASF66
 2589 0343 06       		.byte	0x6
 2590 0344 4501     		.2byte	0x145
 2591 0346 81000000 		.4byte	0x81
 2592 034a 16       		.byte	0x16
 2593 034b 0D       		.uleb128 0xd
 2594 034c 770A0000 		.4byte	.LASF67
 2595 0350 06       		.byte	0x6
 2596 0351 4601     		.2byte	0x146
 2597 0353 81000000 		.4byte	0x81
ARM GAS  C:\Users\MARTHN~1\AppData\Local\Temp\cc9i6CHj.s 			page 63


 2598 0357 17       		.byte	0x17
 2599 0358 0D       		.uleb128 0xd
 2600 0359 84050000 		.4byte	.LASF68
 2601 035d 06       		.byte	0x6
 2602 035e 4701     		.2byte	0x147
 2603 0360 81000000 		.4byte	0x81
 2604 0364 18       		.byte	0x18
 2605 0365 0D       		.uleb128 0xd
 2606 0366 7B050000 		.4byte	.LASF69
 2607 036a 06       		.byte	0x6
 2608 036b 4801     		.2byte	0x148
 2609 036d 81000000 		.4byte	0x81
 2610 0371 19       		.byte	0x19
 2611 0372 0D       		.uleb128 0xd
 2612 0373 72050000 		.4byte	.LASF70
 2613 0377 06       		.byte	0x6
 2614 0378 4901     		.2byte	0x149
 2615 037a 81000000 		.4byte	0x81
 2616 037e 1A       		.byte	0x1a
 2617 037f 0D       		.uleb128 0xd
 2618 0380 9D010000 		.4byte	.LASF71
 2619 0384 06       		.byte	0x6
 2620 0385 4A01     		.2byte	0x14a
 2621 0387 81000000 		.4byte	0x81
 2622 038b 1B       		.byte	0x1b
 2623 038c 0D       		.uleb128 0xd
 2624 038d 88010000 		.4byte	.LASF72
 2625 0391 06       		.byte	0x6
 2626 0392 4B01     		.2byte	0x14b
 2627 0394 81000000 		.4byte	0x81
 2628 0398 1C       		.byte	0x1c
 2629 0399 0D       		.uleb128 0xd
 2630 039a 7F010000 		.4byte	.LASF73
 2631 039e 06       		.byte	0x6
 2632 039f 4C01     		.2byte	0x14c
 2633 03a1 81000000 		.4byte	0x81
 2634 03a5 1D       		.byte	0x1d
 2635 03a6 0D       		.uleb128 0xd
 2636 03a7 CB100000 		.4byte	.LASF74
 2637 03ab 06       		.byte	0x6
 2638 03ac 4D01     		.2byte	0x14d
 2639 03ae 81000000 		.4byte	0x81
 2640 03b2 1E       		.byte	0x1e
 2641 03b3 0D       		.uleb128 0xd
 2642 03b4 B4100000 		.4byte	.LASF75
 2643 03b8 06       		.byte	0x6
 2644 03b9 4E01     		.2byte	0x14e
 2645 03bb 81000000 		.4byte	0x81
 2646 03bf 1F       		.byte	0x1f
 2647 03c0 0D       		.uleb128 0xd
 2648 03c1 AB100000 		.4byte	.LASF76
 2649 03c5 06       		.byte	0x6
 2650 03c6 4F01     		.2byte	0x14f
 2651 03c8 81000000 		.4byte	0x81
 2652 03cc 20       		.byte	0x20
 2653 03cd 0D       		.uleb128 0xd
 2654 03ce D20C0000 		.4byte	.LASF77
ARM GAS  C:\Users\MARTHN~1\AppData\Local\Temp\cc9i6CHj.s 			page 64


 2655 03d2 06       		.byte	0x6
 2656 03d3 5001     		.2byte	0x150
 2657 03d5 81000000 		.4byte	0x81
 2658 03d9 21       		.byte	0x21
 2659 03da 0D       		.uleb128 0xd
 2660 03db 9E0C0000 		.4byte	.LASF78
 2661 03df 06       		.byte	0x6
 2662 03e0 5101     		.2byte	0x151
 2663 03e2 81000000 		.4byte	0x81
 2664 03e6 22       		.byte	0x22
 2665 03e7 0D       		.uleb128 0xd
 2666 03e8 950C0000 		.4byte	.LASF79
 2667 03ec 06       		.byte	0x6
 2668 03ed 5201     		.2byte	0x152
 2669 03ef 81000000 		.4byte	0x81
 2670 03f3 23       		.byte	0x23
 2671 03f4 0D       		.uleb128 0xd
 2672 03f5 53030000 		.4byte	.LASF80
 2673 03f9 06       		.byte	0x6
 2674 03fa 5301     		.2byte	0x153
 2675 03fc 81000000 		.4byte	0x81
 2676 0400 24       		.byte	0x24
 2677 0401 0D       		.uleb128 0xd
 2678 0402 6E0A0000 		.4byte	.LASF81
 2679 0406 06       		.byte	0x6
 2680 0407 5401     		.2byte	0x154
 2681 0409 81000000 		.4byte	0x81
 2682 040d 25       		.byte	0x25
 2683 040e 0D       		.uleb128 0xd
 2684 040f 5E0A0000 		.4byte	.LASF82
 2685 0413 06       		.byte	0x6
 2686 0414 5501     		.2byte	0x155
 2687 0416 81000000 		.4byte	0x81
 2688 041a 26       		.byte	0x26
 2689 041b 0D       		.uleb128 0xd
 2690 041c D80D0000 		.4byte	.LASF83
 2691 0420 06       		.byte	0x6
 2692 0421 5601     		.2byte	0x156
 2693 0423 81000000 		.4byte	0x81
 2694 0427 27       		.byte	0x27
 2695 0428 0D       		.uleb128 0xd
 2696 0429 5B050000 		.4byte	.LASF84
 2697 042d 06       		.byte	0x6
 2698 042e 5701     		.2byte	0x157
 2699 0430 81000000 		.4byte	0x81
 2700 0434 28       		.byte	0x28
 2701 0435 0D       		.uleb128 0xd
 2702 0436 52050000 		.4byte	.LASF85
 2703 043a 06       		.byte	0x6
 2704 043b 5801     		.2byte	0x158
 2705 043d 81000000 		.4byte	0x81
 2706 0441 29       		.byte	0x29
 2707 0442 0D       		.uleb128 0xd
 2708 0443 60060000 		.4byte	.LASF86
 2709 0447 06       		.byte	0x6
 2710 0448 5901     		.2byte	0x159
 2711 044a 81000000 		.4byte	0x81
ARM GAS  C:\Users\MARTHN~1\AppData\Local\Temp\cc9i6CHj.s 			page 65


 2712 044e 2A       		.byte	0x2a
 2713 044f 0D       		.uleb128 0xd
 2714 0450 52010000 		.4byte	.LASF87
 2715 0454 06       		.byte	0x6
 2716 0455 5A01     		.2byte	0x15a
 2717 0457 81000000 		.4byte	0x81
 2718 045b 2B       		.byte	0x2b
 2719 045c 0D       		.uleb128 0xd
 2720 045d 31060000 		.4byte	.LASF88
 2721 0461 06       		.byte	0x6
 2722 0462 5B01     		.2byte	0x15b
 2723 0464 81000000 		.4byte	0x81
 2724 0468 2C       		.byte	0x2c
 2725 0469 0D       		.uleb128 0xd
 2726 046a 59110000 		.4byte	.LASF89
 2727 046e 06       		.byte	0x6
 2728 046f 5C01     		.2byte	0x15c
 2729 0471 81000000 		.4byte	0x81
 2730 0475 2D       		.byte	0x2d
 2731 0476 0D       		.uleb128 0xd
 2732 0477 A2100000 		.4byte	.LASF90
 2733 047b 06       		.byte	0x6
 2734 047c 5D01     		.2byte	0x15d
 2735 047e 81000000 		.4byte	0x81
 2736 0482 2E       		.byte	0x2e
 2737 0483 0D       		.uleb128 0xd
 2738 0484 99100000 		.4byte	.LASF91
 2739 0488 06       		.byte	0x6
 2740 0489 5E01     		.2byte	0x15e
 2741 048b 81000000 		.4byte	0x81
 2742 048f 2F       		.byte	0x2f
 2743 0490 0D       		.uleb128 0xd
 2744 0491 40120000 		.4byte	.LASF92
 2745 0495 06       		.byte	0x6
 2746 0496 5F01     		.2byte	0x15f
 2747 0498 81000000 		.4byte	0x81
 2748 049c 30       		.byte	0x30
 2749 049d 0D       		.uleb128 0xd
 2750 049e 00000000 		.4byte	.LASF93
 2751 04a2 06       		.byte	0x6
 2752 04a3 6001     		.2byte	0x160
 2753 04a5 81000000 		.4byte	0x81
 2754 04a9 31       		.byte	0x31
 2755 04aa 0D       		.uleb128 0xd
 2756 04ab 0A030000 		.4byte	.LASF94
 2757 04af 06       		.byte	0x6
 2758 04b0 6101     		.2byte	0x161
 2759 04b2 81000000 		.4byte	0x81
 2760 04b6 32       		.byte	0x32
 2761 04b7 0D       		.uleb128 0xd
 2762 04b8 CA010000 		.4byte	.LASF95
 2763 04bc 06       		.byte	0x6
 2764 04bd 6201     		.2byte	0x162
 2765 04bf 81000000 		.4byte	0x81
 2766 04c3 33       		.byte	0x33
 2767 04c4 0D       		.uleb128 0xd
 2768 04c5 A10B0000 		.4byte	.LASF96
ARM GAS  C:\Users\MARTHN~1\AppData\Local\Temp\cc9i6CHj.s 			page 66


 2769 04c9 06       		.byte	0x6
 2770 04ca 6301     		.2byte	0x163
 2771 04cc 81000000 		.4byte	0x81
 2772 04d0 34       		.byte	0x34
 2773 04d1 0D       		.uleb128 0xd
 2774 04d2 E1110000 		.4byte	.LASF97
 2775 04d6 06       		.byte	0x6
 2776 04d7 6401     		.2byte	0x164
 2777 04d9 81000000 		.4byte	0x81
 2778 04dd 35       		.byte	0x35
 2779 04de 0D       		.uleb128 0xd
 2780 04df 40070000 		.4byte	.LASF98
 2781 04e3 06       		.byte	0x6
 2782 04e4 6501     		.2byte	0x165
 2783 04e6 81000000 		.4byte	0x81
 2784 04ea 36       		.byte	0x36
 2785 04eb 0D       		.uleb128 0xd
 2786 04ec CF030000 		.4byte	.LASF99
 2787 04f0 06       		.byte	0x6
 2788 04f1 6601     		.2byte	0x166
 2789 04f3 81000000 		.4byte	0x81
 2790 04f7 37       		.byte	0x37
 2791 04f8 0D       		.uleb128 0xd
 2792 04f9 DF030000 		.4byte	.LASF100
 2793 04fd 06       		.byte	0x6
 2794 04fe 6701     		.2byte	0x167
 2795 0500 81000000 		.4byte	0x81
 2796 0504 38       		.byte	0x38
 2797 0505 0D       		.uleb128 0xd
 2798 0506 EF030000 		.4byte	.LASF101
 2799 050a 06       		.byte	0x6
 2800 050b 6801     		.2byte	0x168
 2801 050d 81000000 		.4byte	0x81
 2802 0511 39       		.byte	0x39
 2803 0512 0D       		.uleb128 0xd
 2804 0513 AC0A0000 		.4byte	.LASF102
 2805 0517 06       		.byte	0x6
 2806 0518 6901     		.2byte	0x169
 2807 051a 81000000 		.4byte	0x81
 2808 051e 3A       		.byte	0x3a
 2809 051f 0D       		.uleb128 0xd
 2810 0520 A0060000 		.4byte	.LASF103
 2811 0524 06       		.byte	0x6
 2812 0525 6A01     		.2byte	0x16a
 2813 0527 81000000 		.4byte	0x81
 2814 052b 3B       		.byte	0x3b
 2815 052c 0D       		.uleb128 0xd
 2816 052d 20060000 		.4byte	.LASF104
 2817 0531 06       		.byte	0x6
 2818 0532 6B01     		.2byte	0x16b
 2819 0534 81000000 		.4byte	0x81
 2820 0538 3C       		.byte	0x3c
 2821 0539 0D       		.uleb128 0xd
 2822 053a C9040000 		.4byte	.LASF105
 2823 053e 06       		.byte	0x6
 2824 053f 6C01     		.2byte	0x16c
 2825 0541 81000000 		.4byte	0x81
ARM GAS  C:\Users\MARTHN~1\AppData\Local\Temp\cc9i6CHj.s 			page 67


 2826 0545 3D       		.byte	0x3d
 2827 0546 0D       		.uleb128 0xd
 2828 0547 960B0000 		.4byte	.LASF106
 2829 054b 06       		.byte	0x6
 2830 054c 6D01     		.2byte	0x16d
 2831 054e 81000000 		.4byte	0x81
 2832 0552 3E       		.byte	0x3e
 2833 0553 0D       		.uleb128 0xd
 2834 0554 0E090000 		.4byte	.LASF107
 2835 0558 06       		.byte	0x6
 2836 0559 6E01     		.2byte	0x16e
 2837 055b 81000000 		.4byte	0x81
 2838 055f 3F       		.byte	0x3f
 2839 0560 0D       		.uleb128 0xd
 2840 0561 2A030000 		.4byte	.LASF108
 2841 0565 06       		.byte	0x6
 2842 0566 6F01     		.2byte	0x16f
 2843 0568 81000000 		.4byte	0x81
 2844 056c 40       		.byte	0x40
 2845 056d 0D       		.uleb128 0xd
 2846 056e 1E020000 		.4byte	.LASF109
 2847 0572 06       		.byte	0x6
 2848 0573 7001     		.2byte	0x170
 2849 0575 81000000 		.4byte	0x81
 2850 0579 41       		.byte	0x41
 2851 057a 0D       		.uleb128 0xd
 2852 057b 58070000 		.4byte	.LASF110
 2853 057f 06       		.byte	0x6
 2854 0580 7101     		.2byte	0x171
 2855 0582 81000000 		.4byte	0x81
 2856 0586 42       		.byte	0x42
 2857 0587 0D       		.uleb128 0xd
 2858 0588 AC020000 		.4byte	.LASF111
 2859 058c 06       		.byte	0x6
 2860 058d 7201     		.2byte	0x172
 2861 058f 81000000 		.4byte	0x81
 2862 0593 43       		.byte	0x43
 2863 0594 0D       		.uleb128 0xd
 2864 0595 5A040000 		.4byte	.LASF112
 2865 0599 06       		.byte	0x6
 2866 059a 7301     		.2byte	0x173
 2867 059c 81000000 		.4byte	0x81
 2868 05a0 44       		.byte	0x44
 2869 05a1 0D       		.uleb128 0xd
 2870 05a2 45050000 		.4byte	.LASF113
 2871 05a6 06       		.byte	0x6
 2872 05a7 7401     		.2byte	0x174
 2873 05a9 81000000 		.4byte	0x81
 2874 05ad 45       		.byte	0x45
 2875 05ae 0D       		.uleb128 0xd
 2876 05af 64050000 		.4byte	.LASF114
 2877 05b3 06       		.byte	0x6
 2878 05b4 7501     		.2byte	0x175
 2879 05b6 81000000 		.4byte	0x81
 2880 05ba 46       		.byte	0x46
 2881 05bb 0D       		.uleb128 0xd
 2882 05bc 360F0000 		.4byte	.LASF115
ARM GAS  C:\Users\MARTHN~1\AppData\Local\Temp\cc9i6CHj.s 			page 68


 2883 05c0 06       		.byte	0x6
 2884 05c1 7601     		.2byte	0x176
 2885 05c3 81000000 		.4byte	0x81
 2886 05c7 47       		.byte	0x47
 2887 05c8 0D       		.uleb128 0xd
 2888 05c9 5B010000 		.4byte	.LASF116
 2889 05cd 06       		.byte	0x6
 2890 05ce 7701     		.2byte	0x177
 2891 05d0 81000000 		.4byte	0x81
 2892 05d4 48       		.byte	0x48
 2893 05d5 0D       		.uleb128 0xd
 2894 05d6 DC0B0000 		.4byte	.LASF117
 2895 05da 06       		.byte	0x6
 2896 05db 7801     		.2byte	0x178
 2897 05dd 81000000 		.4byte	0x81
 2898 05e1 49       		.byte	0x49
 2899 05e2 0D       		.uleb128 0xd
 2900 05e3 43000000 		.4byte	.LASF118
 2901 05e7 06       		.byte	0x6
 2902 05e8 7901     		.2byte	0x179
 2903 05ea 81000000 		.4byte	0x81
 2904 05ee 4A       		.byte	0x4a
 2905 05ef 0E       		.uleb128 0xe
 2906 05f0 52524200 		.ascii	"RRB\000"
 2907 05f4 06       		.byte	0x6
 2908 05f5 7A01     		.2byte	0x17a
 2909 05f7 81000000 		.4byte	0x81
 2910 05fb 4B       		.byte	0x4b
 2911 05fc 0D       		.uleb128 0xd
 2912 05fd A00A0000 		.4byte	.LASF119
 2913 0601 06       		.byte	0x6
 2914 0602 7B01     		.2byte	0x17b
 2915 0604 81000000 		.4byte	0x81
 2916 0608 4C       		.byte	0x4c
 2917 0609 0D       		.uleb128 0xd
 2918 060a 00110000 		.4byte	.LASF120
 2919 060e 06       		.byte	0x6
 2920 060f 7C01     		.2byte	0x17c
 2921 0611 81000000 		.4byte	0x81
 2922 0615 4D       		.byte	0x4d
 2923 0616 0D       		.uleb128 0xd
 2924 0617 9A110000 		.4byte	.LASF121
 2925 061b 06       		.byte	0x6
 2926 061c 7D01     		.2byte	0x17d
 2927 061e 81000000 		.4byte	0x81
 2928 0622 4E       		.byte	0x4e
 2929 0623 00       		.byte	0
 2930 0624 0F       		.uleb128 0xf
 2931 0625 A70C0000 		.4byte	.LASF123
 2932 0629 4F       		.byte	0x4f
 2933 062a 06       		.byte	0x6
 2934 062b 2901     		.2byte	0x129
 2935 062d 4A060000 		.4byte	0x64a
 2936 0631 10       		.uleb128 0x10
 2937 0632 3A050000 		.4byte	.LASF40
 2938 0636 06       		.byte	0x6
 2939 0637 2B01     		.2byte	0x12b
ARM GAS  C:\Users\MARTHN~1\AppData\Local\Temp\cc9i6CHj.s 			page 69


 2940 0639 04010000 		.4byte	0x104
 2941 063d 10       		.uleb128 0x10
 2942 063e A8040000 		.4byte	.LASF41
 2943 0642 06       		.byte	0x6
 2944 0643 7E01     		.2byte	0x17e
 2945 0645 13020000 		.4byte	0x213
 2946 0649 00       		.byte	0
 2947 064a 05       		.uleb128 0x5
 2948 064b FD0D0000 		.4byte	.LASF124
 2949 064f 06       		.byte	0x6
 2950 0650 7F01     		.2byte	0x17f
 2951 0652 24060000 		.4byte	0x624
 2952 0656 0C       		.uleb128 0xc
 2953 0657 19000000 		.4byte	.LASF125
 2954 065b 05       		.byte	0x5
 2955 065c 06       		.byte	0x6
 2956 065d 9701     		.2byte	0x197
 2957 065f A5060000 		.4byte	0x6a5
 2958 0663 0D       		.uleb128 0xd
 2959 0664 2F0B0000 		.4byte	.LASF33
 2960 0668 06       		.byte	0x6
 2961 0669 9A01     		.2byte	0x19a
 2962 066b 81000000 		.4byte	0x81
 2963 066f 00       		.byte	0
 2964 0670 0D       		.uleb128 0xd
 2965 0671 3B0B0000 		.4byte	.LASF34
 2966 0675 06       		.byte	0x6
 2967 0676 9B01     		.2byte	0x19b
 2968 0678 81000000 		.4byte	0x81
 2969 067c 01       		.byte	0x1
 2970 067d 0D       		.uleb128 0xd
 2971 067e 470B0000 		.4byte	.LASF35
 2972 0682 06       		.byte	0x6
 2973 0683 9C01     		.2byte	0x19c
 2974 0685 81000000 		.4byte	0x81
 2975 0689 02       		.byte	0x2
 2976 068a 0D       		.uleb128 0xd
 2977 068b 4B060000 		.4byte	.LASF30
 2978 068f 06       		.byte	0x6
 2979 0690 9D01     		.2byte	0x19d
 2980 0692 81000000 		.4byte	0x81
 2981 0696 03       		.byte	0x3
 2982 0697 0D       		.uleb128 0xd
 2983 0698 110E0000 		.4byte	.LASF31
 2984 069c 06       		.byte	0x6
 2985 069d 9E01     		.2byte	0x19e
 2986 069f 81000000 		.4byte	0x81
 2987 06a3 04       		.byte	0x4
 2988 06a4 00       		.byte	0
 2989 06a5 0F       		.uleb128 0xf
 2990 06a6 70100000 		.4byte	.LASF126
 2991 06aa 05       		.byte	0x5
 2992 06ab 06       		.byte	0x6
 2993 06ac 9301     		.2byte	0x193
 2994 06ae CB060000 		.4byte	0x6cb
 2995 06b2 10       		.uleb128 0x10
 2996 06b3 3A050000 		.4byte	.LASF40
ARM GAS  C:\Users\MARTHN~1\AppData\Local\Temp\cc9i6CHj.s 			page 70


 2997 06b7 06       		.byte	0x6
 2998 06b8 9501     		.2byte	0x195
 2999 06ba CB060000 		.4byte	0x6cb
 3000 06be 10       		.uleb128 0x10
 3001 06bf A8040000 		.4byte	.LASF41
 3002 06c3 06       		.byte	0x6
 3003 06c4 A001     		.2byte	0x1a0
 3004 06c6 56060000 		.4byte	0x656
 3005 06ca 00       		.byte	0
 3006 06cb 08       		.uleb128 0x8
 3007 06cc 81000000 		.4byte	0x81
 3008 06d0 DB060000 		.4byte	0x6db
 3009 06d4 09       		.uleb128 0x9
 3010 06d5 C1000000 		.4byte	0xc1
 3011 06d9 04       		.byte	0x4
 3012 06da 00       		.byte	0
 3013 06db 05       		.uleb128 0x5
 3014 06dc 96040000 		.4byte	.LASF127
 3015 06e0 06       		.byte	0x6
 3016 06e1 A101     		.2byte	0x1a1
 3017 06e3 A5060000 		.4byte	0x6a5
 3018 06e7 06       		.uleb128 0x6
 3019 06e8 45040000 		.4byte	.LASF128
 3020 06ec 6F       		.byte	0x6f
 3021 06ed 07       		.byte	0x7
 3022 06ee 20       		.byte	0x20
 3023 06ef 280C0000 		.4byte	0xc28
 3024 06f3 07       		.uleb128 0x7
 3025 06f4 E10D0000 		.4byte	.LASF129
 3026 06f8 07       		.byte	0x7
 3027 06f9 22       		.byte	0x22
 3028 06fa 81000000 		.4byte	0x81
 3029 06fe 00       		.byte	0
 3030 06ff 07       		.uleb128 0x7
 3031 0700 A6010000 		.4byte	.LASF130
 3032 0704 07       		.byte	0x7
 3033 0705 23       		.byte	0x23
 3034 0706 81000000 		.4byte	0x81
 3035 070a 01       		.byte	0x1
 3036 070b 07       		.uleb128 0x7
 3037 070c B2010000 		.4byte	.LASF131
 3038 0710 07       		.byte	0x7
 3039 0711 24       		.byte	0x24
 3040 0712 81000000 		.4byte	0x81
 3041 0716 02       		.byte	0x2
 3042 0717 07       		.uleb128 0x7
 3043 0718 BE010000 		.4byte	.LASF132
 3044 071c 07       		.byte	0x7
 3045 071d 25       		.byte	0x25
 3046 071e 81000000 		.4byte	0x81
 3047 0722 03       		.byte	0x3
 3048 0723 07       		.uleb128 0x7
 3049 0724 800F0000 		.4byte	.LASF133
 3050 0728 07       		.byte	0x7
 3051 0729 26       		.byte	0x26
 3052 072a 81000000 		.4byte	0x81
 3053 072e 04       		.byte	0x4
ARM GAS  C:\Users\MARTHN~1\AppData\Local\Temp\cc9i6CHj.s 			page 71


 3054 072f 07       		.uleb128 0x7
 3055 0730 E2010000 		.4byte	.LASF134
 3056 0734 07       		.byte	0x7
 3057 0735 27       		.byte	0x27
 3058 0736 81000000 		.4byte	0x81
 3059 073a 05       		.byte	0x5
 3060 073b 07       		.uleb128 0x7
 3061 073c EE010000 		.4byte	.LASF135
 3062 0740 07       		.byte	0x7
 3063 0741 28       		.byte	0x28
 3064 0742 81000000 		.4byte	0x81
 3065 0746 06       		.byte	0x6
 3066 0747 07       		.uleb128 0x7
 3067 0748 FA010000 		.4byte	.LASF136
 3068 074c 07       		.byte	0x7
 3069 074d 29       		.byte	0x29
 3070 074e 81000000 		.4byte	0x81
 3071 0752 07       		.byte	0x7
 3072 0753 07       		.uleb128 0x7
 3073 0754 06020000 		.4byte	.LASF137
 3074 0758 07       		.byte	0x7
 3075 0759 2A       		.byte	0x2a
 3076 075a 81000000 		.4byte	0x81
 3077 075e 08       		.byte	0x8
 3078 075f 07       		.uleb128 0x7
 3079 0760 12020000 		.4byte	.LASF138
 3080 0764 07       		.byte	0x7
 3081 0765 2B       		.byte	0x2b
 3082 0766 81000000 		.4byte	0x81
 3083 076a 09       		.byte	0x9
 3084 076b 07       		.uleb128 0x7
 3085 076c AE060000 		.4byte	.LASF139
 3086 0770 07       		.byte	0x7
 3087 0771 2C       		.byte	0x2c
 3088 0772 81000000 		.4byte	0x81
 3089 0776 0A       		.byte	0xa
 3090 0777 07       		.uleb128 0x7
 3091 0778 BB060000 		.4byte	.LASF140
 3092 077c 07       		.byte	0x7
 3093 077d 2D       		.byte	0x2d
 3094 077e 81000000 		.4byte	0x81
 3095 0782 0B       		.byte	0xb
 3096 0783 07       		.uleb128 0x7
 3097 0784 C8060000 		.4byte	.LASF141
 3098 0788 07       		.byte	0x7
 3099 0789 2E       		.byte	0x2e
 3100 078a 81000000 		.4byte	0x81
 3101 078e 0C       		.byte	0xc
 3102 078f 07       		.uleb128 0x7
 3103 0790 D5060000 		.4byte	.LASF142
 3104 0794 07       		.byte	0x7
 3105 0795 2F       		.byte	0x2f
 3106 0796 81000000 		.4byte	0x81
 3107 079a 0D       		.byte	0xd
 3108 079b 07       		.uleb128 0x7
 3109 079c E2060000 		.4byte	.LASF143
 3110 07a0 07       		.byte	0x7
ARM GAS  C:\Users\MARTHN~1\AppData\Local\Temp\cc9i6CHj.s 			page 72


 3111 07a1 30       		.byte	0x30
 3112 07a2 81000000 		.4byte	0x81
 3113 07a6 0E       		.byte	0xe
 3114 07a7 07       		.uleb128 0x7
 3115 07a8 EF060000 		.4byte	.LASF144
 3116 07ac 07       		.byte	0x7
 3117 07ad 31       		.byte	0x31
 3118 07ae 81000000 		.4byte	0x81
 3119 07b2 0F       		.byte	0xf
 3120 07b3 07       		.uleb128 0x7
 3121 07b4 FC060000 		.4byte	.LASF145
 3122 07b8 07       		.byte	0x7
 3123 07b9 32       		.byte	0x32
 3124 07ba 81000000 		.4byte	0x81
 3125 07be 10       		.byte	0x10
 3126 07bf 07       		.uleb128 0x7
 3127 07c0 09070000 		.4byte	.LASF146
 3128 07c4 07       		.byte	0x7
 3129 07c5 33       		.byte	0x33
 3130 07c6 81000000 		.4byte	0x81
 3131 07ca 11       		.byte	0x11
 3132 07cb 07       		.uleb128 0x7
 3133 07cc 16070000 		.4byte	.LASF147
 3134 07d0 07       		.byte	0x7
 3135 07d1 34       		.byte	0x34
 3136 07d2 81000000 		.4byte	0x81
 3137 07d6 12       		.byte	0x12
 3138 07d7 07       		.uleb128 0x7
 3139 07d8 23070000 		.4byte	.LASF148
 3140 07dc 07       		.byte	0x7
 3141 07dd 35       		.byte	0x35
 3142 07de 81000000 		.4byte	0x81
 3143 07e2 13       		.byte	0x13
 3144 07e3 07       		.uleb128 0x7
 3145 07e4 B3070000 		.4byte	.LASF149
 3146 07e8 07       		.byte	0x7
 3147 07e9 36       		.byte	0x36
 3148 07ea 81000000 		.4byte	0x81
 3149 07ee 14       		.byte	0x14
 3150 07ef 07       		.uleb128 0x7
 3151 07f0 C0070000 		.4byte	.LASF150
 3152 07f4 07       		.byte	0x7
 3153 07f5 37       		.byte	0x37
 3154 07f6 81000000 		.4byte	0x81
 3155 07fa 15       		.byte	0x15
 3156 07fb 07       		.uleb128 0x7
 3157 07fc CD070000 		.4byte	.LASF151
 3158 0800 07       		.byte	0x7
 3159 0801 38       		.byte	0x38
 3160 0802 81000000 		.4byte	0x81
 3161 0806 16       		.byte	0x16
 3162 0807 07       		.uleb128 0x7
 3163 0808 DA070000 		.4byte	.LASF152
 3164 080c 07       		.byte	0x7
 3165 080d 39       		.byte	0x39
 3166 080e 81000000 		.4byte	0x81
 3167 0812 17       		.byte	0x17
ARM GAS  C:\Users\MARTHN~1\AppData\Local\Temp\cc9i6CHj.s 			page 73


 3168 0813 07       		.uleb128 0x7
 3169 0814 E7070000 		.4byte	.LASF153
 3170 0818 07       		.byte	0x7
 3171 0819 3A       		.byte	0x3a
 3172 081a 81000000 		.4byte	0x81
 3173 081e 18       		.byte	0x18
 3174 081f 07       		.uleb128 0x7
 3175 0820 F4070000 		.4byte	.LASF154
 3176 0824 07       		.byte	0x7
 3177 0825 3B       		.byte	0x3b
 3178 0826 81000000 		.4byte	0x81
 3179 082a 19       		.byte	0x19
 3180 082b 07       		.uleb128 0x7
 3181 082c 01080000 		.4byte	.LASF155
 3182 0830 07       		.byte	0x7
 3183 0831 3C       		.byte	0x3c
 3184 0832 81000000 		.4byte	0x81
 3185 0836 1A       		.byte	0x1a
 3186 0837 07       		.uleb128 0x7
 3187 0838 0E080000 		.4byte	.LASF156
 3188 083c 07       		.byte	0x7
 3189 083d 3D       		.byte	0x3d
 3190 083e 81000000 		.4byte	0x81
 3191 0842 1B       		.byte	0x1b
 3192 0843 07       		.uleb128 0x7
 3193 0844 1B080000 		.4byte	.LASF157
 3194 0848 07       		.byte	0x7
 3195 0849 3E       		.byte	0x3e
 3196 084a 81000000 		.4byte	0x81
 3197 084e 1C       		.byte	0x1c
 3198 084f 07       		.uleb128 0x7
 3199 0850 28080000 		.4byte	.LASF158
 3200 0854 07       		.byte	0x7
 3201 0855 3F       		.byte	0x3f
 3202 0856 81000000 		.4byte	0x81
 3203 085a 1D       		.byte	0x1d
 3204 085b 07       		.uleb128 0x7
 3205 085c 01090000 		.4byte	.LASF159
 3206 0860 07       		.byte	0x7
 3207 0861 40       		.byte	0x40
 3208 0862 81000000 		.4byte	0x81
 3209 0866 1E       		.byte	0x1e
 3210 0867 07       		.uleb128 0x7
 3211 0868 3B0C0000 		.4byte	.LASF160
 3212 086c 07       		.byte	0x7
 3213 086d 42       		.byte	0x42
 3214 086e 81000000 		.4byte	0x81
 3215 0872 1F       		.byte	0x1f
 3216 0873 07       		.uleb128 0x7
 3217 0874 440C0000 		.4byte	.LASF161
 3218 0878 07       		.byte	0x7
 3219 0879 43       		.byte	0x43
 3220 087a 81000000 		.4byte	0x81
 3221 087e 20       		.byte	0x20
 3222 087f 07       		.uleb128 0x7
 3223 0880 4D0C0000 		.4byte	.LASF162
 3224 0884 07       		.byte	0x7
ARM GAS  C:\Users\MARTHN~1\AppData\Local\Temp\cc9i6CHj.s 			page 74


 3225 0885 44       		.byte	0x44
 3226 0886 81000000 		.4byte	0x81
 3227 088a 21       		.byte	0x21
 3228 088b 07       		.uleb128 0x7
 3229 088c 54100000 		.4byte	.LASF163
 3230 0890 07       		.byte	0x7
 3231 0891 46       		.byte	0x46
 3232 0892 81000000 		.4byte	0x81
 3233 0896 22       		.byte	0x22
 3234 0897 07       		.uleb128 0x7
 3235 0898 62100000 		.4byte	.LASF164
 3236 089c 07       		.byte	0x7
 3237 089d 47       		.byte	0x47
 3238 089e 81000000 		.4byte	0x81
 3239 08a2 23       		.byte	0x23
 3240 08a3 07       		.uleb128 0x7
 3241 08a4 7F0B0000 		.4byte	.LASF165
 3242 08a8 07       		.byte	0x7
 3243 08a9 48       		.byte	0x48
 3244 08aa 81000000 		.4byte	0x81
 3245 08ae 24       		.byte	0x24
 3246 08af 07       		.uleb128 0x7
 3247 08b0 79100000 		.4byte	.LASF166
 3248 08b4 07       		.byte	0x7
 3249 08b5 49       		.byte	0x49
 3250 08b6 81000000 		.4byte	0x81
 3251 08ba 25       		.byte	0x25
 3252 08bb 07       		.uleb128 0x7
 3253 08bc 560C0000 		.4byte	.LASF167
 3254 08c0 07       		.byte	0x7
 3255 08c1 4B       		.byte	0x4b
 3256 08c2 81000000 		.4byte	0x81
 3257 08c6 26       		.byte	0x26
 3258 08c7 07       		.uleb128 0x7
 3259 08c8 5F0C0000 		.4byte	.LASF168
 3260 08cc 07       		.byte	0x7
 3261 08cd 4C       		.byte	0x4c
 3262 08ce 81000000 		.4byte	0x81
 3263 08d2 27       		.byte	0x27
 3264 08d3 07       		.uleb128 0x7
 3265 08d4 680C0000 		.4byte	.LASF169
 3266 08d8 07       		.byte	0x7
 3267 08d9 4D       		.byte	0x4d
 3268 08da 81000000 		.4byte	0x81
 3269 08de 28       		.byte	0x28
 3270 08df 07       		.uleb128 0x7
 3271 08e0 710C0000 		.4byte	.LASF170
 3272 08e4 07       		.byte	0x7
 3273 08e5 4E       		.byte	0x4e
 3274 08e6 81000000 		.4byte	0x81
 3275 08ea 29       		.byte	0x29
 3276 08eb 07       		.uleb128 0x7
 3277 08ec 19090000 		.4byte	.LASF171
 3278 08f0 07       		.byte	0x7
 3279 08f1 50       		.byte	0x50
 3280 08f2 81000000 		.4byte	0x81
 3281 08f6 2A       		.byte	0x2a
ARM GAS  C:\Users\MARTHN~1\AppData\Local\Temp\cc9i6CHj.s 			page 75


 3282 08f7 07       		.uleb128 0x7
 3283 08f8 2A090000 		.4byte	.LASF172
 3284 08fc 07       		.byte	0x7
 3285 08fd 51       		.byte	0x51
 3286 08fe 81000000 		.4byte	0x81
 3287 0902 2B       		.byte	0x2b
 3288 0903 07       		.uleb128 0x7
 3289 0904 3B090000 		.4byte	.LASF173
 3290 0908 07       		.byte	0x7
 3291 0909 52       		.byte	0x52
 3292 090a 81000000 		.4byte	0x81
 3293 090e 2C       		.byte	0x2c
 3294 090f 07       		.uleb128 0x7
 3295 0910 4C090000 		.4byte	.LASF174
 3296 0914 07       		.byte	0x7
 3297 0915 53       		.byte	0x53
 3298 0916 81000000 		.4byte	0x81
 3299 091a 2D       		.byte	0x2d
 3300 091b 07       		.uleb128 0x7
 3301 091c 5D090000 		.4byte	.LASF175
 3302 0920 07       		.byte	0x7
 3303 0921 54       		.byte	0x54
 3304 0922 81000000 		.4byte	0x81
 3305 0926 2E       		.byte	0x2e
 3306 0927 07       		.uleb128 0x7
 3307 0928 6E090000 		.4byte	.LASF176
 3308 092c 07       		.byte	0x7
 3309 092d 55       		.byte	0x55
 3310 092e 81000000 		.4byte	0x81
 3311 0932 2F       		.byte	0x2f
 3312 0933 07       		.uleb128 0x7
 3313 0934 7F090000 		.4byte	.LASF177
 3314 0938 07       		.byte	0x7
 3315 0939 56       		.byte	0x56
 3316 093a 81000000 		.4byte	0x81
 3317 093e 30       		.byte	0x30
 3318 093f 07       		.uleb128 0x7
 3319 0940 90090000 		.4byte	.LASF178
 3320 0944 07       		.byte	0x7
 3321 0945 57       		.byte	0x57
 3322 0946 81000000 		.4byte	0x81
 3323 094a 31       		.byte	0x31
 3324 094b 07       		.uleb128 0x7
 3325 094c 7A0C0000 		.4byte	.LASF179
 3326 0950 07       		.byte	0x7
 3327 0951 59       		.byte	0x59
 3328 0952 81000000 		.4byte	0x81
 3329 0956 32       		.byte	0x32
 3330 0957 07       		.uleb128 0x7
 3331 0958 FF030000 		.4byte	.LASF180
 3332 095c 07       		.byte	0x7
 3333 095d 5A       		.byte	0x5a
 3334 095e 81000000 		.4byte	0x81
 3335 0962 33       		.byte	0x33
 3336 0963 07       		.uleb128 0x7
 3337 0964 5C030000 		.4byte	.LASF181
 3338 0968 07       		.byte	0x7
ARM GAS  C:\Users\MARTHN~1\AppData\Local\Temp\cc9i6CHj.s 			page 76


 3339 0969 5C       		.byte	0x5c
 3340 096a 81000000 		.4byte	0x81
 3341 096e 34       		.byte	0x34
 3342 096f 07       		.uleb128 0x7
 3343 0970 6A030000 		.4byte	.LASF182
 3344 0974 07       		.byte	0x7
 3345 0975 5D       		.byte	0x5d
 3346 0976 81000000 		.4byte	0x81
 3347 097a 35       		.byte	0x35
 3348 097b 07       		.uleb128 0x7
 3349 097c 78030000 		.4byte	.LASF183
 3350 0980 07       		.byte	0x7
 3351 0981 5E       		.byte	0x5e
 3352 0982 81000000 		.4byte	0x81
 3353 0986 36       		.byte	0x36
 3354 0987 07       		.uleb128 0x7
 3355 0988 86030000 		.4byte	.LASF184
 3356 098c 07       		.byte	0x7
 3357 098d 5F       		.byte	0x5f
 3358 098e 81000000 		.4byte	0x81
 3359 0992 37       		.byte	0x37
 3360 0993 07       		.uleb128 0x7
 3361 0994 E70A0000 		.4byte	.LASF185
 3362 0998 07       		.byte	0x7
 3363 0999 60       		.byte	0x60
 3364 099a 81000000 		.4byte	0x81
 3365 099e 38       		.byte	0x38
 3366 099f 07       		.uleb128 0x7
 3367 09a0 9D030000 		.4byte	.LASF186
 3368 09a4 07       		.byte	0x7
 3369 09a5 61       		.byte	0x61
 3370 09a6 81000000 		.4byte	0x81
 3371 09aa 39       		.byte	0x39
 3372 09ab 07       		.uleb128 0x7
 3373 09ac AB030000 		.4byte	.LASF187
 3374 09b0 07       		.byte	0x7
 3375 09b1 62       		.byte	0x62
 3376 09b2 81000000 		.4byte	0x81
 3377 09b6 3A       		.byte	0x3a
 3378 09b7 07       		.uleb128 0x7
 3379 09b8 B9030000 		.4byte	.LASF188
 3380 09bc 07       		.byte	0x7
 3381 09bd 63       		.byte	0x63
 3382 09be 81000000 		.4byte	0x81
 3383 09c2 3B       		.byte	0x3b
 3384 09c3 07       		.uleb128 0x7
 3385 09c4 F1100000 		.4byte	.LASF189
 3386 09c8 07       		.byte	0x7
 3387 09c9 64       		.byte	0x64
 3388 09ca 81000000 		.4byte	0x81
 3389 09ce 3C       		.byte	0x3c
 3390 09cf 07       		.uleb128 0x7
 3391 09d0 2E020000 		.4byte	.LASF190
 3392 09d4 07       		.byte	0x7
 3393 09d5 66       		.byte	0x66
 3394 09d6 81000000 		.4byte	0x81
 3395 09da 3D       		.byte	0x3d
ARM GAS  C:\Users\MARTHN~1\AppData\Local\Temp\cc9i6CHj.s 			page 77


 3396 09db 07       		.uleb128 0x7
 3397 09dc 3C020000 		.4byte	.LASF191
 3398 09e0 07       		.byte	0x7
 3399 09e1 67       		.byte	0x67
 3400 09e2 81000000 		.4byte	0x81
 3401 09e6 3E       		.byte	0x3e
 3402 09e7 07       		.uleb128 0x7
 3403 09e8 4A020000 		.4byte	.LASF192
 3404 09ec 07       		.byte	0x7
 3405 09ed 68       		.byte	0x68
 3406 09ee 81000000 		.4byte	0x81
 3407 09f2 3F       		.byte	0x3f
 3408 09f3 07       		.uleb128 0x7
 3409 09f4 58020000 		.4byte	.LASF193
 3410 09f8 07       		.byte	0x7
 3411 09f9 69       		.byte	0x69
 3412 09fa 81000000 		.4byte	0x81
 3413 09fe 40       		.byte	0x40
 3414 09ff 07       		.uleb128 0x7
 3415 0a00 66020000 		.4byte	.LASF194
 3416 0a04 07       		.byte	0x7
 3417 0a05 6A       		.byte	0x6a
 3418 0a06 81000000 		.4byte	0x81
 3419 0a0a 41       		.byte	0x41
 3420 0a0b 07       		.uleb128 0x7
 3421 0a0c 74020000 		.4byte	.LASF195
 3422 0a10 07       		.byte	0x7
 3423 0a11 6B       		.byte	0x6b
 3424 0a12 81000000 		.4byte	0x81
 3425 0a16 42       		.byte	0x42
 3426 0a17 07       		.uleb128 0x7
 3427 0a18 82020000 		.4byte	.LASF196
 3428 0a1c 07       		.byte	0x7
 3429 0a1d 6C       		.byte	0x6c
 3430 0a1e 81000000 		.4byte	0x81
 3431 0a22 43       		.byte	0x43
 3432 0a23 07       		.uleb128 0x7
 3433 0a24 90020000 		.4byte	.LASF197
 3434 0a28 07       		.byte	0x7
 3435 0a29 6D       		.byte	0x6d
 3436 0a2a 81000000 		.4byte	0x81
 3437 0a2e 44       		.byte	0x44
 3438 0a2f 07       		.uleb128 0x7
 3439 0a30 9E020000 		.4byte	.LASF198
 3440 0a34 07       		.byte	0x7
 3441 0a35 6E       		.byte	0x6e
 3442 0a36 81000000 		.4byte	0x81
 3443 0a3a 45       		.byte	0x45
 3444 0a3b 07       		.uleb128 0x7
 3445 0a3c 520E0000 		.4byte	.LASF199
 3446 0a40 07       		.byte	0x7
 3447 0a41 6F       		.byte	0x6f
 3448 0a42 81000000 		.4byte	0x81
 3449 0a46 46       		.byte	0x46
 3450 0a47 07       		.uleb128 0x7
 3451 0a48 9E0E0000 		.4byte	.LASF200
 3452 0a4c 07       		.byte	0x7
ARM GAS  C:\Users\MARTHN~1\AppData\Local\Temp\cc9i6CHj.s 			page 78


 3453 0a4d 71       		.byte	0x71
 3454 0a4e 81000000 		.4byte	0x81
 3455 0a52 47       		.byte	0x47
 3456 0a53 07       		.uleb128 0x7
 3457 0a54 AE0E0000 		.4byte	.LASF201
 3458 0a58 07       		.byte	0x7
 3459 0a59 72       		.byte	0x72
 3460 0a5a 81000000 		.4byte	0x81
 3461 0a5e 48       		.byte	0x48
 3462 0a5f 07       		.uleb128 0x7
 3463 0a60 2A050000 		.4byte	.LASF202
 3464 0a64 07       		.byte	0x7
 3465 0a65 73       		.byte	0x73
 3466 0a66 81000000 		.4byte	0x81
 3467 0a6a 49       		.byte	0x49
 3468 0a6b 07       		.uleb128 0x7
 3469 0a6c C70E0000 		.4byte	.LASF203
 3470 0a70 07       		.byte	0x7
 3471 0a71 74       		.byte	0x74
 3472 0a72 81000000 		.4byte	0x81
 3473 0a76 4A       		.byte	0x4a
 3474 0a77 07       		.uleb128 0x7
 3475 0a78 D70E0000 		.4byte	.LASF204
 3476 0a7c 07       		.byte	0x7
 3477 0a7d 75       		.byte	0x75
 3478 0a7e 81000000 		.4byte	0x81
 3479 0a82 4B       		.byte	0x4b
 3480 0a83 07       		.uleb128 0x7
 3481 0a84 E70E0000 		.4byte	.LASF205
 3482 0a88 07       		.byte	0x7
 3483 0a89 76       		.byte	0x76
 3484 0a8a 81000000 		.4byte	0x81
 3485 0a8e 4C       		.byte	0x4c
 3486 0a8f 07       		.uleb128 0x7
 3487 0a90 F70E0000 		.4byte	.LASF206
 3488 0a94 07       		.byte	0x7
 3489 0a95 77       		.byte	0x77
 3490 0a96 81000000 		.4byte	0x81
 3491 0a9a 4D       		.byte	0x4d
 3492 0a9b 07       		.uleb128 0x7
 3493 0a9c 070F0000 		.4byte	.LASF207
 3494 0aa0 07       		.byte	0x7
 3495 0aa1 78       		.byte	0x78
 3496 0aa2 81000000 		.4byte	0x81
 3497 0aa6 4E       		.byte	0x4e
 3498 0aa7 07       		.uleb128 0x7
 3499 0aa8 170F0000 		.4byte	.LASF208
 3500 0aac 07       		.byte	0x7
 3501 0aad 79       		.byte	0x79
 3502 0aae 81000000 		.4byte	0x81
 3503 0ab2 4F       		.byte	0x4f
 3504 0ab3 07       		.uleb128 0x7
 3505 0ab4 85040000 		.4byte	.LASF209
 3506 0ab8 07       		.byte	0x7
 3507 0ab9 7A       		.byte	0x7a
 3508 0aba 81000000 		.4byte	0x81
 3509 0abe 50       		.byte	0x50
ARM GAS  C:\Users\MARTHN~1\AppData\Local\Temp\cc9i6CHj.s 			page 79


 3510 0abf 07       		.uleb128 0x7
 3511 0ac0 35080000 		.4byte	.LASF210
 3512 0ac4 07       		.byte	0x7
 3513 0ac5 7C       		.byte	0x7c
 3514 0ac6 81000000 		.4byte	0x81
 3515 0aca 51       		.byte	0x51
 3516 0acb 07       		.uleb128 0x7
 3517 0acc 46080000 		.4byte	.LASF211
 3518 0ad0 07       		.byte	0x7
 3519 0ad1 7D       		.byte	0x7d
 3520 0ad2 81000000 		.4byte	0x81
 3521 0ad6 52       		.byte	0x52
 3522 0ad7 07       		.uleb128 0x7
 3523 0ad8 57080000 		.4byte	.LASF212
 3524 0adc 07       		.byte	0x7
 3525 0add 7E       		.byte	0x7e
 3526 0ade 81000000 		.4byte	0x81
 3527 0ae2 53       		.byte	0x53
 3528 0ae3 07       		.uleb128 0x7
 3529 0ae4 68080000 		.4byte	.LASF213
 3530 0ae8 07       		.byte	0x7
 3531 0ae9 7F       		.byte	0x7f
 3532 0aea 81000000 		.4byte	0x81
 3533 0aee 54       		.byte	0x54
 3534 0aef 07       		.uleb128 0x7
 3535 0af0 79080000 		.4byte	.LASF214
 3536 0af4 07       		.byte	0x7
 3537 0af5 80       		.byte	0x80
 3538 0af6 81000000 		.4byte	0x81
 3539 0afa 55       		.byte	0x55
 3540 0afb 07       		.uleb128 0x7
 3541 0afc 8A080000 		.4byte	.LASF215
 3542 0b00 07       		.byte	0x7
 3543 0b01 81       		.byte	0x81
 3544 0b02 81000000 		.4byte	0x81
 3545 0b06 56       		.byte	0x56
 3546 0b07 07       		.uleb128 0x7
 3547 0b08 9B080000 		.4byte	.LASF216
 3548 0b0c 07       		.byte	0x7
 3549 0b0d 82       		.byte	0x82
 3550 0b0e 81000000 		.4byte	0x81
 3551 0b12 57       		.byte	0x57
 3552 0b13 07       		.uleb128 0x7
 3553 0b14 AC080000 		.4byte	.LASF217
 3554 0b18 07       		.byte	0x7
 3555 0b19 83       		.byte	0x83
 3556 0b1a 81000000 		.4byte	0x81
 3557 0b1e 58       		.byte	0x58
 3558 0b1f 07       		.uleb128 0x7
 3559 0b20 BD080000 		.4byte	.LASF218
 3560 0b24 07       		.byte	0x7
 3561 0b25 84       		.byte	0x84
 3562 0b26 81000000 		.4byte	0x81
 3563 0b2a 59       		.byte	0x59
 3564 0b2b 07       		.uleb128 0x7
 3565 0b2c 22110000 		.4byte	.LASF219
 3566 0b30 07       		.byte	0x7
ARM GAS  C:\Users\MARTHN~1\AppData\Local\Temp\cc9i6CHj.s 			page 80


 3567 0b31 85       		.byte	0x85
 3568 0b32 81000000 		.4byte	0x81
 3569 0b36 5A       		.byte	0x5a
 3570 0b37 07       		.uleb128 0x7
 3571 0b38 240D0000 		.4byte	.LASF220
 3572 0b3c 07       		.byte	0x7
 3573 0b3d 87       		.byte	0x87
 3574 0b3e 81000000 		.4byte	0x81
 3575 0b42 5B       		.byte	0x5b
 3576 0b43 07       		.uleb128 0x7
 3577 0b44 360D0000 		.4byte	.LASF221
 3578 0b48 07       		.byte	0x7
 3579 0b49 88       		.byte	0x88
 3580 0b4a 81000000 		.4byte	0x81
 3581 0b4e 5C       		.byte	0x5c
 3582 0b4f 07       		.uleb128 0x7
 3583 0b50 480D0000 		.4byte	.LASF222
 3584 0b54 07       		.byte	0x7
 3585 0b55 89       		.byte	0x89
 3586 0b56 81000000 		.4byte	0x81
 3587 0b5a 5D       		.byte	0x5d
 3588 0b5b 07       		.uleb128 0x7
 3589 0b5c 5A0D0000 		.4byte	.LASF223
 3590 0b60 07       		.byte	0x7
 3591 0b61 8A       		.byte	0x8a
 3592 0b62 81000000 		.4byte	0x81
 3593 0b66 5E       		.byte	0x5e
 3594 0b67 07       		.uleb128 0x7
 3595 0b68 6C0D0000 		.4byte	.LASF224
 3596 0b6c 07       		.byte	0x7
 3597 0b6d 8B       		.byte	0x8b
 3598 0b6e 81000000 		.4byte	0x81
 3599 0b72 5F       		.byte	0x5f
 3600 0b73 07       		.uleb128 0x7
 3601 0b74 7E0D0000 		.4byte	.LASF225
 3602 0b78 07       		.byte	0x7
 3603 0b79 8C       		.byte	0x8c
 3604 0b7a 81000000 		.4byte	0x81
 3605 0b7e 60       		.byte	0x60
 3606 0b7f 07       		.uleb128 0x7
 3607 0b80 900D0000 		.4byte	.LASF226
 3608 0b84 07       		.byte	0x7
 3609 0b85 8D       		.byte	0x8d
 3610 0b86 81000000 		.4byte	0x81
 3611 0b8a 61       		.byte	0x61
 3612 0b8b 07       		.uleb128 0x7
 3613 0b8c A20D0000 		.4byte	.LASF227
 3614 0b90 07       		.byte	0x7
 3615 0b91 8E       		.byte	0x8e
 3616 0b92 81000000 		.4byte	0x81
 3617 0b96 62       		.byte	0x62
 3618 0b97 07       		.uleb128 0x7
 3619 0b98 B40D0000 		.4byte	.LASF228
 3620 0b9c 07       		.byte	0x7
 3621 0b9d 8F       		.byte	0x8f
 3622 0b9e 81000000 		.4byte	0x81
 3623 0ba2 63       		.byte	0x63
ARM GAS  C:\Users\MARTHN~1\AppData\Local\Temp\cc9i6CHj.s 			page 81


 3624 0ba3 07       		.uleb128 0x7
 3625 0ba4 46110000 		.4byte	.LASF229
 3626 0ba8 07       		.byte	0x7
 3627 0ba9 90       		.byte	0x90
 3628 0baa 81000000 		.4byte	0x81
 3629 0bae 64       		.byte	0x64
 3630 0baf 07       		.uleb128 0x7
 3631 0bb0 76000000 		.4byte	.LASF230
 3632 0bb4 07       		.byte	0x7
 3633 0bb5 92       		.byte	0x92
 3634 0bb6 81000000 		.4byte	0x81
 3635 0bba 65       		.byte	0x65
 3636 0bbb 07       		.uleb128 0x7
 3637 0bbc 84000000 		.4byte	.LASF231
 3638 0bc0 07       		.byte	0x7
 3639 0bc1 93       		.byte	0x93
 3640 0bc2 81000000 		.4byte	0x81
 3641 0bc6 66       		.byte	0x66
 3642 0bc7 07       		.uleb128 0x7
 3643 0bc8 92000000 		.4byte	.LASF232
 3644 0bcc 07       		.byte	0x7
 3645 0bcd 94       		.byte	0x94
 3646 0bce 81000000 		.4byte	0x81
 3647 0bd2 67       		.byte	0x67
 3648 0bd3 07       		.uleb128 0x7
 3649 0bd4 A0000000 		.4byte	.LASF233
 3650 0bd8 07       		.byte	0x7
 3651 0bd9 95       		.byte	0x95
 3652 0bda 81000000 		.4byte	0x81
 3653 0bde 68       		.byte	0x68
 3654 0bdf 07       		.uleb128 0x7
 3655 0be0 AE000000 		.4byte	.LASF234
 3656 0be4 07       		.byte	0x7
 3657 0be5 96       		.byte	0x96
 3658 0be6 81000000 		.4byte	0x81
 3659 0bea 69       		.byte	0x69
 3660 0beb 07       		.uleb128 0x7
 3661 0bec BC000000 		.4byte	.LASF235
 3662 0bf0 07       		.byte	0x7
 3663 0bf1 97       		.byte	0x97
 3664 0bf2 81000000 		.4byte	0x81
 3665 0bf6 6A       		.byte	0x6a
 3666 0bf7 07       		.uleb128 0x7
 3667 0bf8 CA000000 		.4byte	.LASF236
 3668 0bfc 07       		.byte	0x7
 3669 0bfd 98       		.byte	0x98
 3670 0bfe 81000000 		.4byte	0x81
 3671 0c02 6B       		.byte	0x6b
 3672 0c03 07       		.uleb128 0x7
 3673 0c04 D8000000 		.4byte	.LASF237
 3674 0c08 07       		.byte	0x7
 3675 0c09 99       		.byte	0x99
 3676 0c0a 81000000 		.4byte	0x81
 3677 0c0e 6C       		.byte	0x6c
 3678 0c0f 07       		.uleb128 0x7
 3679 0c10 E6000000 		.4byte	.LASF238
 3680 0c14 07       		.byte	0x7
ARM GAS  C:\Users\MARTHN~1\AppData\Local\Temp\cc9i6CHj.s 			page 82


 3681 0c15 9A       		.byte	0x9a
 3682 0c16 81000000 		.4byte	0x81
 3683 0c1a 6D       		.byte	0x6d
 3684 0c1b 07       		.uleb128 0x7
 3685 0c1c 2B010000 		.4byte	.LASF239
 3686 0c20 07       		.byte	0x7
 3687 0c21 9B       		.byte	0x9b
 3688 0c22 81000000 		.4byte	0x81
 3689 0c26 6E       		.byte	0x6e
 3690 0c27 00       		.byte	0
 3691 0c28 0A       		.uleb128 0xa
 3692 0c29 2D0C0000 		.4byte	.LASF240
 3693 0c2d 6F       		.byte	0x6f
 3694 0c2e 07       		.byte	0x7
 3695 0c2f 1C       		.byte	0x1c
 3696 0c30 4B0C0000 		.4byte	0xc4b
 3697 0c34 0B       		.uleb128 0xb
 3698 0c35 3A050000 		.4byte	.LASF40
 3699 0c39 07       		.byte	0x7
 3700 0c3a 1E       		.byte	0x1e
 3701 0c3b 4B0C0000 		.4byte	0xc4b
 3702 0c3f 0B       		.uleb128 0xb
 3703 0c40 A8040000 		.4byte	.LASF41
 3704 0c44 07       		.byte	0x7
 3705 0c45 9C       		.byte	0x9c
 3706 0c46 E7060000 		.4byte	0x6e7
 3707 0c4a 00       		.byte	0
 3708 0c4b 08       		.uleb128 0x8
 3709 0c4c 81000000 		.4byte	0x81
 3710 0c50 5B0C0000 		.4byte	0xc5b
 3711 0c54 09       		.uleb128 0x9
 3712 0c55 C1000000 		.4byte	0xc1
 3713 0c59 6E       		.byte	0x6e
 3714 0c5a 00       		.byte	0
 3715 0c5b 03       		.uleb128 0x3
 3716 0c5c EF0D0000 		.4byte	.LASF241
 3717 0c60 07       		.byte	0x7
 3718 0c61 9D       		.byte	0x9d
 3719 0c62 280C0000 		.4byte	0xc28
 3720 0c66 11       		.uleb128 0x11
 3721 0c67 3A060000 		.4byte	.LASF244
 3722 0c6b 01       		.byte	0x1
 3723 0c6c 2C000000 		.4byte	0x2c
 3724 0c70 01       		.byte	0x1
 3725 0c71 3E       		.byte	0x3e
 3726 0c72 830C0000 		.4byte	0xc83
 3727 0c76 12       		.uleb128 0x12
 3728 0c77 84110000 		.4byte	.LASF242
 3729 0c7b 00       		.byte	0
 3730 0c7c 12       		.uleb128 0x12
 3731 0c7d F9020000 		.4byte	.LASF243
 3732 0c81 01       		.byte	0x1
 3733 0c82 00       		.byte	0
 3734 0c83 11       		.uleb128 0x11
 3735 0c84 56000000 		.4byte	.LASF245
 3736 0c88 01       		.byte	0x1
 3737 0c89 2C000000 		.4byte	0x2c
ARM GAS  C:\Users\MARTHN~1\AppData\Local\Temp\cc9i6CHj.s 			page 83


 3738 0c8d 01       		.byte	0x1
 3739 0c8e 46       		.byte	0x46
 3740 0c8f D00C0000 		.4byte	0xcd0
 3741 0c93 12       		.uleb128 0x12
 3742 0c94 F00C0000 		.4byte	.LASF246
 3743 0c98 00       		.byte	0
 3744 0c99 12       		.uleb128 0x12
 3745 0c9a 10110000 		.4byte	.LASF247
 3746 0c9e 01       		.byte	0x1
 3747 0c9f 12       		.uleb128 0x12
 3748 0ca0 B8050000 		.4byte	.LASF248
 3749 0ca4 02       		.byte	0x2
 3750 0ca5 12       		.uleb128 0x12
 3751 0ca6 C5050000 		.4byte	.LASF249
 3752 0caa 03       		.byte	0x3
 3753 0cab 12       		.uleb128 0x12
 3754 0cac D2050000 		.4byte	.LASF250
 3755 0cb0 04       		.byte	0x4
 3756 0cb1 12       		.uleb128 0x12
 3757 0cb2 DF050000 		.4byte	.LASF251
 3758 0cb6 05       		.byte	0x5
 3759 0cb7 12       		.uleb128 0x12
 3760 0cb8 EC050000 		.4byte	.LASF252
 3761 0cbc 06       		.byte	0x6
 3762 0cbd 12       		.uleb128 0x12
 3763 0cbe F9050000 		.4byte	.LASF253
 3764 0cc2 07       		.byte	0x7
 3765 0cc3 12       		.uleb128 0x12
 3766 0cc4 06060000 		.4byte	.LASF254
 3767 0cc8 08       		.byte	0x8
 3768 0cc9 12       		.uleb128 0x12
 3769 0cca 13060000 		.4byte	.LASF255
 3770 0cce 09       		.byte	0x9
 3771 0ccf 00       		.byte	0
 3772 0cd0 11       		.uleb128 0x11
 3773 0cd1 030C0000 		.4byte	.LASF256
 3774 0cd5 01       		.byte	0x1
 3775 0cd6 2C000000 		.4byte	0x2c
 3776 0cda 01       		.byte	0x1
 3777 0cdb 56       		.byte	0x56
 3778 0cdc F30C0000 		.4byte	0xcf3
 3779 0ce0 12       		.uleb128 0x12
 3780 0ce1 34030000 		.4byte	.LASF257
 3781 0ce5 00       		.byte	0
 3782 0ce6 12       		.uleb128 0x12
 3783 0ce7 D90A0000 		.4byte	.LASF258
 3784 0ceb 01       		.byte	0x1
 3785 0cec 12       		.uleb128 0x12
 3786 0ced 670B0000 		.4byte	.LASF259
 3787 0cf1 02       		.byte	0x2
 3788 0cf2 00       		.byte	0
 3789 0cf3 11       		.uleb128 0x11
 3790 0cf4 AA110000 		.4byte	.LASF260
 3791 0cf8 01       		.byte	0x1
 3792 0cf9 2C000000 		.4byte	0x2c
 3793 0cfd 01       		.byte	0x1
 3794 0cfe 5D       		.byte	0x5d
ARM GAS  C:\Users\MARTHN~1\AppData\Local\Temp\cc9i6CHj.s 			page 84


 3795 0cff 1C0D0000 		.4byte	0xd1c
 3796 0d03 12       		.uleb128 0x12
 3797 0d04 E5100000 		.4byte	.LASF261
 3798 0d08 00       		.byte	0
 3799 0d09 12       		.uleb128 0x12
 3800 0d0a C10F0000 		.4byte	.LASF262
 3801 0d0e 01       		.byte	0x1
 3802 0d0f 12       		.uleb128 0x12
 3803 0d10 91010000 		.4byte	.LASF263
 3804 0d14 02       		.byte	0x2
 3805 0d15 12       		.uleb128 0x12
 3806 0d16 DA040000 		.4byte	.LASF264
 3807 0d1a 03       		.byte	0x3
 3808 0d1b 00       		.byte	0
 3809 0d1c 11       		.uleb128 0x11
 3810 0d1d 140D0000 		.4byte	.LASF265
 3811 0d21 01       		.byte	0x1
 3812 0d22 2C000000 		.4byte	0x2c
 3813 0d26 01       		.byte	0x1
 3814 0d27 65       		.byte	0x65
 3815 0d28 330D0000 		.4byte	0xd33
 3816 0d2c 12       		.uleb128 0x12
 3817 0d2d CE080000 		.4byte	.LASF266
 3818 0d31 00       		.byte	0
 3819 0d32 00       		.byte	0
 3820 0d33 11       		.uleb128 0x11
 3821 0d34 BC0B0000 		.4byte	.LASF267
 3822 0d38 01       		.byte	0x1
 3823 0d39 2C000000 		.4byte	0x2c
 3824 0d3d 01       		.byte	0x1
 3825 0d3e 69       		.byte	0x69
 3826 0d3f 5C0D0000 		.4byte	0xd5c
 3827 0d43 12       		.uleb128 0x12
 3828 0d44 450F0000 		.4byte	.LASF268
 3829 0d48 00       		.byte	0
 3830 0d49 12       		.uleb128 0x12
 3831 0d4a 520F0000 		.4byte	.LASF269
 3832 0d4e 01       		.byte	0x1
 3833 0d4f 12       		.uleb128 0x12
 3834 0d50 B1090000 		.4byte	.LASF270
 3835 0d54 02       		.byte	0x2
 3836 0d55 12       		.uleb128 0x12
 3837 0d56 880C0000 		.4byte	.LASF271
 3838 0d5a 03       		.byte	0x3
 3839 0d5b 00       		.byte	0
 3840 0d5c 11       		.uleb128 0x11
 3841 0d5d 4F0A0000 		.4byte	.LASF20
 3842 0d61 01       		.byte	0x1
 3843 0d62 2C000000 		.4byte	0x2c
 3844 0d66 01       		.byte	0x1
 3845 0d67 77       		.byte	0x77
 3846 0d68 AF0D0000 		.4byte	0xdaf
 3847 0d6c 12       		.uleb128 0x12
 3848 0d6d 43030000 		.4byte	.LASF272
 3849 0d71 00       		.byte	0
 3850 0d72 12       		.uleb128 0x12
 3851 0d73 DB0C0000 		.4byte	.LASF273
ARM GAS  C:\Users\MARTHN~1\AppData\Local\Temp\cc9i6CHj.s 			page 85


 3852 0d77 01       		.byte	0x1
 3853 0d78 12       		.uleb128 0x12
 3854 0d79 69000000 		.4byte	.LASF274
 3855 0d7d 02       		.byte	0x2
 3856 0d7e 12       		.uleb128 0x12
 3857 0d7f 650F0000 		.4byte	.LASF275
 3858 0d83 03       		.byte	0x3
 3859 0d84 12       		.uleb128 0x12
 3860 0d85 080B0000 		.4byte	.LASF276
 3861 0d89 04       		.byte	0x4
 3862 0d8a 12       		.uleb128 0x12
 3863 0d8b 35120000 		.4byte	.LASF277
 3864 0d8f 05       		.byte	0x5
 3865 0d90 12       		.uleb128 0x12
 3866 0d91 B1050000 		.4byte	.LASF278
 3867 0d95 06       		.byte	0x6
 3868 0d96 12       		.uleb128 0x12
 3869 0d97 580A0000 		.4byte	.LASF279
 3870 0d9b 07       		.byte	0x7
 3871 0d9c 12       		.uleb128 0x12
 3872 0d9d 43010000 		.4byte	.LASF280
 3873 0da1 08       		.byte	0x8
 3874 0da2 13       		.uleb128 0x13
 3875 0da3 47505300 		.ascii	"GPS\000"
 3876 0da7 09       		.byte	0x9
 3877 0da8 12       		.uleb128 0x12
 3878 0da9 7D060000 		.4byte	.LASF281
 3879 0dad 0A       		.byte	0xa
 3880 0dae 00       		.byte	0
 3881 0daf 14       		.uleb128 0x14
 3882 0db0 DB100000 		.4byte	.LASF282
 3883 0db4 01       		.byte	0x1
 3884 0db5 8B       		.byte	0x8b
 3885 0db6 81000000 		.4byte	0x81
 3886 0dba 00000000 		.4byte	.LFB63
 3887 0dbe 88030000 		.4byte	.LFE63-.LFB63
 3888 0dc2 01       		.uleb128 0x1
 3889 0dc3 9C       		.byte	0x9c
 3890 0dc4 140E0000 		.4byte	0xe14
 3891 0dc8 15       		.uleb128 0x15
 3892 0dc9 44000000 		.4byte	.LBB2
 3893 0dcd 1A000000 		.4byte	.LBE2-.LBB2
 3894 0dd1 E20D0000 		.4byte	0xde2
 3895 0dd5 16       		.uleb128 0x16
 3896 0dd6 6900     		.ascii	"i\000"
 3897 0dd8 01       		.byte	0x1
 3898 0dd9 93       		.byte	0x93
 3899 0dda 81000000 		.4byte	0x81
 3900 0dde 02       		.uleb128 0x2
 3901 0ddf 91       		.byte	0x91
 3902 0de0 77       		.sleb128 -9
 3903 0de1 00       		.byte	0
 3904 0de2 15       		.uleb128 0x15
 3905 0de3 7A000000 		.4byte	.LBB3
 3906 0de7 18000000 		.4byte	.LBE3-.LBB3
 3907 0deb FC0D0000 		.4byte	0xdfc
 3908 0def 16       		.uleb128 0x16
ARM GAS  C:\Users\MARTHN~1\AppData\Local\Temp\cc9i6CHj.s 			page 86


 3909 0df0 6900     		.ascii	"i\000"
 3910 0df2 01       		.byte	0x1
 3911 0df3 9A       		.byte	0x9a
 3912 0df4 81000000 		.4byte	0x81
 3913 0df8 02       		.uleb128 0x2
 3914 0df9 91       		.byte	0x91
 3915 0dfa 76       		.sleb128 -10
 3916 0dfb 00       		.byte	0
 3917 0dfc 17       		.uleb128 0x17
 3918 0dfd 18030000 		.4byte	.LBB4
 3919 0e01 2E000000 		.4byte	.LBE4-.LBB4
 3920 0e05 18       		.uleb128 0x18
 3921 0e06 6900     		.ascii	"i\000"
 3922 0e08 01       		.byte	0x1
 3923 0e09 6301     		.2byte	0x163
 3924 0e0b 81000000 		.4byte	0x81
 3925 0e0f 02       		.uleb128 0x2
 3926 0e10 91       		.byte	0x91
 3927 0e11 75       		.sleb128 -11
 3928 0e12 00       		.byte	0
 3929 0e13 00       		.byte	0
 3930 0e14 19       		.uleb128 0x19
 3931 0e15 41100000 		.4byte	.LASF283
 3932 0e19 01       		.byte	0x1
 3933 0e1a 8401     		.2byte	0x184
 3934 0e1c 81000000 		.4byte	0x81
 3935 0e20 00000000 		.4byte	.LFB64
 3936 0e24 66000000 		.4byte	.LFE64-.LFB64
 3937 0e28 01       		.uleb128 0x1
 3938 0e29 9C       		.byte	0x9c
 3939 0e2a 660E0000 		.4byte	0xe66
 3940 0e2e 1A       		.uleb128 0x1a
 3941 0e2f 82060000 		.4byte	.LASF284
 3942 0e33 01       		.byte	0x1
 3943 0e34 8701     		.2byte	0x187
 3944 0e36 99000000 		.4byte	0x99
 3945 0e3a 02       		.uleb128 0x2
 3946 0e3b 91       		.byte	0x91
 3947 0e3c 74       		.sleb128 -12
 3948 0e3d 1A       		.uleb128 0x1a
 3949 0e3e C7030000 		.4byte	.LASF285
 3950 0e42 01       		.byte	0x1
 3951 0e43 8801     		.2byte	0x188
 3952 0e45 99000000 		.4byte	0x99
 3953 0e49 02       		.uleb128 0x2
 3954 0e4a 91       		.byte	0x91
 3955 0e4b 6C       		.sleb128 -20
 3956 0e4c 17       		.uleb128 0x17
 3957 0e4d 14000000 		.4byte	.LBB5
 3958 0e51 36000000 		.4byte	.LBE5-.LBB5
 3959 0e55 1A       		.uleb128 0x1a
 3960 0e56 F9080000 		.4byte	.LASF286
 3961 0e5a 01       		.byte	0x1
 3962 0e5b 8C01     		.2byte	0x18c
 3963 0e5d 81000000 		.4byte	0x81
 3964 0e61 02       		.uleb128 0x2
 3965 0e62 91       		.byte	0x91
ARM GAS  C:\Users\MARTHN~1\AppData\Local\Temp\cc9i6CHj.s 			page 87


 3966 0e63 73       		.sleb128 -13
 3967 0e64 00       		.byte	0
 3968 0e65 00       		.byte	0
 3969 0e66 1B       		.uleb128 0x1b
 3970 0e67 69060000 		.4byte	.LASF288
 3971 0e6b 01       		.byte	0x1
 3972 0e6c A201     		.2byte	0x1a2
 3973 0e6e 81000000 		.4byte	0x81
 3974 0e72 00000000 		.4byte	.LFB65
 3975 0e76 68000000 		.4byte	.LFE65-.LFB65
 3976 0e7a 01       		.uleb128 0x1
 3977 0e7b 9C       		.byte	0x9c
 3978 0e7c 19       		.uleb128 0x19
 3979 0e7d 6A010000 		.4byte	.LASF287
 3980 0e81 01       		.byte	0x1
 3981 0e82 B801     		.2byte	0x1b8
 3982 0e84 81000000 		.4byte	0x81
 3983 0e88 00000000 		.4byte	.LFB66
 3984 0e8c 54000000 		.4byte	.LFE66-.LFB66
 3985 0e90 01       		.uleb128 0x1
 3986 0e91 9C       		.byte	0x9c
 3987 0e92 AE0E0000 		.4byte	0xeae
 3988 0e96 17       		.uleb128 0x17
 3989 0e97 06000000 		.4byte	.LBB6
 3990 0e9b 3A000000 		.4byte	.LBE6-.LBB6
 3991 0e9f 18       		.uleb128 0x18
 3992 0ea0 6900     		.ascii	"i\000"
 3993 0ea2 01       		.byte	0x1
 3994 0ea3 BA01     		.2byte	0x1ba
 3995 0ea5 81000000 		.4byte	0x81
 3996 0ea9 02       		.uleb128 0x2
 3997 0eaa 91       		.byte	0x91
 3998 0eab 77       		.sleb128 -9
 3999 0eac 00       		.byte	0
 4000 0ead 00       		.byte	0
 4001 0eae 1B       		.uleb128 0x1b
 4002 0eaf AB0F0000 		.4byte	.LASF289
 4003 0eb3 01       		.byte	0x1
 4004 0eb4 CB01     		.2byte	0x1cb
 4005 0eb6 81000000 		.4byte	0x81
 4006 0eba 00000000 		.4byte	.LFB67
 4007 0ebe B8000000 		.4byte	.LFE67-.LFB67
 4008 0ec2 01       		.uleb128 0x1
 4009 0ec3 9C       		.byte	0x9c
 4010 0ec4 1B       		.uleb128 0x1b
 4011 0ec5 A1070000 		.4byte	.LASF290
 4012 0ec9 01       		.byte	0x1
 4013 0eca F001     		.2byte	0x1f0
 4014 0ecc 81000000 		.4byte	0x81
 4015 0ed0 00000000 		.4byte	.LFB68
 4016 0ed4 54000000 		.4byte	.LFE68-.LFB68
 4017 0ed8 01       		.uleb128 0x1
 4018 0ed9 9C       		.byte	0x9c
 4019 0eda 19       		.uleb128 0x19
 4020 0edb C80A0000 		.4byte	.LASF291
 4021 0edf 01       		.byte	0x1
 4022 0ee0 1602     		.2byte	0x216
ARM GAS  C:\Users\MARTHN~1\AppData\Local\Temp\cc9i6CHj.s 			page 88


 4023 0ee2 81000000 		.4byte	0x81
 4024 0ee6 00000000 		.4byte	.LFB69
 4025 0eea 40000000 		.4byte	.LFE69-.LFB69
 4026 0eee 01       		.uleb128 0x1
 4027 0eef 9C       		.byte	0x9c
 4028 0ef0 040F0000 		.4byte	0xf04
 4029 0ef4 1A       		.uleb128 0x1a
 4030 0ef5 35000000 		.4byte	.LASF292
 4031 0ef9 01       		.byte	0x1
 4032 0efa 1B02     		.2byte	0x21b
 4033 0efc 81000000 		.4byte	0x81
 4034 0f00 02       		.uleb128 0x2
 4035 0f01 91       		.byte	0x91
 4036 0f02 77       		.sleb128 -9
 4037 0f03 00       		.byte	0
 4038 0f04 19       		.uleb128 0x19
 4039 0f05 FB0C0000 		.4byte	.LASF293
 4040 0f09 01       		.byte	0x1
 4041 0f0a 2A02     		.2byte	0x22a
 4042 0f0c 81000000 		.4byte	0x81
 4043 0f10 00000000 		.4byte	.LFB70
 4044 0f14 7C000000 		.4byte	.LFE70-.LFB70
 4045 0f18 01       		.uleb128 0x1
 4046 0f19 9C       		.byte	0x9c
 4047 0f1a 540F0000 		.4byte	0xf54
 4048 0f1e 1A       		.uleb128 0x1a
 4049 0f1f 8F060000 		.4byte	.LASF294
 4050 0f23 01       		.byte	0x1
 4051 0f24 2D02     		.2byte	0x22d
 4052 0f26 81000000 		.4byte	0x81
 4053 0f2a 02       		.uleb128 0x2
 4054 0f2b 91       		.byte	0x91
 4055 0f2c 77       		.sleb128 -9
 4056 0f2d 1A       		.uleb128 0x1a
 4057 0f2e C60D0000 		.4byte	.LASF295
 4058 0f32 01       		.byte	0x1
 4059 0f33 2E02     		.2byte	0x22e
 4060 0f35 81000000 		.4byte	0x81
 4061 0f39 02       		.uleb128 0x2
 4062 0f3a 91       		.byte	0x91
 4063 0f3b 75       		.sleb128 -11
 4064 0f3c 17       		.uleb128 0x17
 4065 0f3d 2E000000 		.4byte	.LBB7
 4066 0f41 2E000000 		.4byte	.LBE7-.LBB7
 4067 0f45 18       		.uleb128 0x18
 4068 0f46 6900     		.ascii	"i\000"
 4069 0f48 01       		.byte	0x1
 4070 0f49 3602     		.2byte	0x236
 4071 0f4b 81000000 		.4byte	0x81
 4072 0f4f 02       		.uleb128 0x2
 4073 0f50 91       		.byte	0x91
 4074 0f51 76       		.sleb128 -10
 4075 0f52 00       		.byte	0
 4076 0f53 00       		.byte	0
 4077 0f54 1C       		.uleb128 0x1c
 4078 0f55 87100000 		.4byte	.LASF296
 4079 0f59 01       		.byte	0x1
ARM GAS  C:\Users\MARTHN~1\AppData\Local\Temp\cc9i6CHj.s 			page 89


 4080 0f5a 5402     		.2byte	0x254
 4081 0f5c 6A0F0000 		.4byte	0xf6a
 4082 0f60 00000000 		.4byte	.LFB71
 4083 0f64 20000000 		.4byte	.LFE71-.LFB71
 4084 0f68 01       		.uleb128 0x1
 4085 0f69 9C       		.byte	0x9c
 4086 0f6a 1D       		.uleb128 0x1d
 4087 0f6b 04       		.byte	0x4
 4088 0f6c 08020000 		.4byte	0x208
 4089 0f70 1C       		.uleb128 0x1c
 4090 0f71 610E0000 		.4byte	.LASF297
 4091 0f75 01       		.byte	0x1
 4092 0f76 6F02     		.2byte	0x26f
 4093 0f78 860F0000 		.4byte	0xf86
 4094 0f7c 00000000 		.4byte	.LFB72
 4095 0f80 20000000 		.4byte	.LFE72-.LFB72
 4096 0f84 01       		.uleb128 0x1
 4097 0f85 9C       		.byte	0x9c
 4098 0f86 1D       		.uleb128 0x1d
 4099 0f87 04       		.byte	0x4
 4100 0f88 4A060000 		.4byte	0x64a
 4101 0f8c 1C       		.uleb128 0x1c
 4102 0f8d 2A100000 		.4byte	.LASF298
 4103 0f91 01       		.byte	0x1
 4104 0f92 7602     		.2byte	0x276
 4105 0f94 6A0F0000 		.4byte	0xf6a
 4106 0f98 00000000 		.4byte	.LFB73
 4107 0f9c 20000000 		.4byte	.LFE73-.LFB73
 4108 0fa0 01       		.uleb128 0x1
 4109 0fa1 9C       		.byte	0x9c
 4110 0fa2 1C       		.uleb128 0x1c
 4111 0fa3 77040000 		.4byte	.LASF299
 4112 0fa7 01       		.byte	0x1
 4113 0fa8 7E02     		.2byte	0x27e
 4114 0faa B80F0000 		.4byte	0xfb8
 4115 0fae 00000000 		.4byte	.LFB74
 4116 0fb2 20000000 		.4byte	.LFE74-.LFB74
 4117 0fb6 01       		.uleb128 0x1
 4118 0fb7 9C       		.byte	0x9c
 4119 0fb8 1D       		.uleb128 0x1d
 4120 0fb9 04       		.byte	0x4
 4121 0fba DB060000 		.4byte	0x6db
 4122 0fbe 1C       		.uleb128 0x1c
 4123 0fbf BD100000 		.4byte	.LASF300
 4124 0fc3 01       		.byte	0x1
 4125 0fc4 8502     		.2byte	0x285
 4126 0fc6 B80F0000 		.4byte	0xfb8
 4127 0fca 00000000 		.4byte	.LFB75
 4128 0fce 20000000 		.4byte	.LFE75-.LFB75
 4129 0fd2 01       		.uleb128 0x1
 4130 0fd3 9C       		.byte	0x9c
 4131 0fd4 1E       		.uleb128 0x1e
 4132 0fd5 EE0F0000 		.4byte	.LASF307
 4133 0fd9 01       		.byte	0x1
 4134 0fda 9402     		.2byte	0x294
 4135 0fdc 00000000 		.4byte	.LFB76
 4136 0fe0 58000000 		.4byte	.LFE76-.LFB76
ARM GAS  C:\Users\MARTHN~1\AppData\Local\Temp\cc9i6CHj.s 			page 90


 4137 0fe4 01       		.uleb128 0x1
 4138 0fe5 9C       		.byte	0x9c
 4139 0fe6 14100000 		.4byte	0x1014
 4140 0fea 1A       		.uleb128 0x1a
 4141 0feb 13010000 		.4byte	.LASF301
 4142 0fef 01       		.byte	0x1
 4143 0ff0 9702     		.2byte	0x297
 4144 0ff2 14100000 		.4byte	0x1014
 4145 0ff6 05       		.uleb128 0x5
 4146 0ff7 03       		.byte	0x3
 4147 0ff8 18010000 		.4byte	RelayTestStatus_display.7653
 4148 0ffc 17       		.uleb128 0x17
 4149 0ffd 06000000 		.4byte	.LBB8
 4150 1001 2C000000 		.4byte	.LBE8-.LBB8
 4151 1005 18       		.uleb128 0x18
 4152 1006 6900     		.ascii	"i\000"
 4153 1008 01       		.byte	0x1
 4154 1009 9902     		.2byte	0x299
 4155 100b 81000000 		.4byte	0x81
 4156 100f 02       		.uleb128 0x2
 4157 1010 91       		.byte	0x91
 4158 1011 77       		.sleb128 -9
 4159 1012 00       		.byte	0
 4160 1013 00       		.byte	0
 4161 1014 08       		.uleb128 0x8
 4162 1015 81000000 		.4byte	0x81
 4163 1019 24100000 		.4byte	0x1024
 4164 101d 09       		.uleb128 0x9
 4165 101e C1000000 		.4byte	0xc1
 4166 1022 15       		.byte	0x15
 4167 1023 00       		.byte	0
 4168 1024 19       		.uleb128 0x19
 4169 1025 3F0E0000 		.4byte	.LASF302
 4170 1029 01       		.byte	0x1
 4171 102a BD02     		.2byte	0x2bd
 4172 102c 81000000 		.4byte	0x81
 4173 1030 00000000 		.4byte	.LFB77
 4174 1034 7C000000 		.4byte	.LFE77-.LFB77
 4175 1038 01       		.uleb128 0x1
 4176 1039 9C       		.byte	0x9c
 4177 103a 5D100000 		.4byte	0x105d
 4178 103e 1F       		.uleb128 0x1f
 4179 103f B60B0000 		.4byte	.LASF309
 4180 1043 01       		.byte	0x1
 4181 1044 BD02     		.2byte	0x2bd
 4182 1046 81000000 		.4byte	0x81
 4183 104a 02       		.uleb128 0x2
 4184 104b 91       		.byte	0x91
 4185 104c 6F       		.sleb128 -17
 4186 104d 1A       		.uleb128 0x1a
 4187 104e A1090000 		.4byte	.LASF303
 4188 1052 01       		.byte	0x1
 4189 1053 C002     		.2byte	0x2c0
 4190 1055 81000000 		.4byte	0x81
 4191 1059 02       		.uleb128 0x2
 4192 105a 91       		.byte	0x91
 4193 105b 77       		.sleb128 -9
ARM GAS  C:\Users\MARTHN~1\AppData\Local\Temp\cc9i6CHj.s 			page 91


 4194 105c 00       		.byte	0
 4195 105d 20       		.uleb128 0x20
 4196 105e D2110000 		.4byte	.LASF304
 4197 1062 01       		.byte	0x1
 4198 1063 D702     		.2byte	0x2d7
 4199 1065 00000000 		.4byte	.LFB78
 4200 1069 1C000000 		.4byte	.LFE78-.LFB78
 4201 106d 01       		.uleb128 0x1
 4202 106e 9C       		.byte	0x9c
 4203 106f 20       		.uleb128 0x20
 4204 1070 62110000 		.4byte	.LASF305
 4205 1074 01       		.byte	0x1
 4206 1075 E102     		.2byte	0x2e1
 4207 1077 00000000 		.4byte	.LFB79
 4208 107b 84000000 		.4byte	.LFE79-.LFB79
 4209 107f 01       		.uleb128 0x1
 4210 1080 9C       		.byte	0x9c
 4211 1081 20       		.uleb128 0x20
 4212 1082 03100000 		.4byte	.LASF306
 4213 1086 01       		.byte	0x1
 4214 1087 FE02     		.2byte	0x2fe
 4215 1089 00000000 		.4byte	.LFB80
 4216 108d 58000000 		.4byte	.LFE80-.LFB80
 4217 1091 01       		.uleb128 0x1
 4218 1092 9C       		.byte	0x9c
 4219 1093 1E       		.uleb128 0x1e
 4220 1094 30070000 		.4byte	.LASF308
 4221 1098 01       		.byte	0x1
 4222 1099 1803     		.2byte	0x318
 4223 109b 00000000 		.4byte	.LFB81
 4224 109f 78000000 		.4byte	.LFE81-.LFB81
 4225 10a3 01       		.uleb128 0x1
 4226 10a4 9C       		.byte	0x9c
 4227 10a5 B9100000 		.4byte	0x10b9
 4228 10a9 1F       		.uleb128 0x1f
 4229 10aa BA0A0000 		.4byte	.LASF310
 4230 10ae 01       		.byte	0x1
 4231 10af 1803     		.2byte	0x318
 4232 10b1 81000000 		.4byte	0x81
 4233 10b5 02       		.uleb128 0x2
 4234 10b6 91       		.byte	0x91
 4235 10b7 77       		.sleb128 -9
 4236 10b8 00       		.byte	0
 4237 10b9 21       		.uleb128 0x21
 4238 10ba 260E0000 		.4byte	.LASF311
 4239 10be 01       		.byte	0x1
 4240 10bf 3A03     		.2byte	0x33a
 4241 10c1 00000000 		.4byte	.LFB82
 4242 10c5 3C000000 		.4byte	.LFE82-.LFB82
 4243 10c9 01       		.uleb128 0x1
 4244 10ca 9C       		.byte	0x9c
 4245 10cb 21       		.uleb128 0x21
 4246 10cc FB000000 		.4byte	.LASF312
 4247 10d0 01       		.byte	0x1
 4248 10d1 4703     		.2byte	0x347
 4249 10d3 00000000 		.4byte	.LFB83
 4250 10d7 40000000 		.4byte	.LFE83-.LFB83
ARM GAS  C:\Users\MARTHN~1\AppData\Local\Temp\cc9i6CHj.s 			page 92


 4251 10db 01       		.uleb128 0x1
 4252 10dc 9C       		.byte	0x9c
 4253 10dd 1E       		.uleb128 0x1e
 4254 10de A2050000 		.4byte	.LASF313
 4255 10e2 01       		.byte	0x1
 4256 10e3 5503     		.2byte	0x355
 4257 10e5 00000000 		.4byte	.LFB84
 4258 10e9 7A000000 		.4byte	.LFE84-.LFB84
 4259 10ed 01       		.uleb128 0x1
 4260 10ee 9C       		.byte	0x9c
 4261 10ef 03110000 		.4byte	0x1103
 4262 10f3 1F       		.uleb128 0x1f
 4263 10f4 BA0A0000 		.4byte	.LASF310
 4264 10f8 01       		.byte	0x1
 4265 10f9 5503     		.2byte	0x355
 4266 10fb 81000000 		.4byte	0x81
 4267 10ff 02       		.uleb128 0x2
 4268 1100 91       		.byte	0x91
 4269 1101 77       		.sleb128 -9
 4270 1102 00       		.byte	0
 4271 1103 22       		.uleb128 0x22
 4272 1104 C3110000 		.4byte	.LASF314
 4273 1108 01       		.byte	0x1
 4274 1109 1B       		.byte	0x1b
 4275 110a 08020000 		.4byte	0x208
 4276 110e 05       		.uleb128 0x5
 4277 110f 03       		.byte	0x3
 4278 1110 00000000 		.4byte	rxPacket_Relay
 4279 1114 22       		.uleb128 0x22
 4280 1115 09000000 		.4byte	.LASF315
 4281 1119 01       		.byte	0x1
 4282 111a 1C       		.byte	0x1c
 4283 111b 6A0F0000 		.4byte	0xf6a
 4284 111f 05       		.uleb128 0x5
 4285 1120 03       		.byte	0x3
 4286 1121 10000000 		.4byte	pRxPacket_Relay
 4287 1125 22       		.uleb128 0x22
 4288 1126 780E0000 		.4byte	.LASF122
 4289 112a 01       		.byte	0x1
 4290 112b 1D       		.byte	0x1d
 4291 112c 08020000 		.4byte	0x208
 4292 1130 05       		.uleb128 0x5
 4293 1131 03       		.byte	0x3
 4294 1132 14000000 		.4byte	rxPacket_RelaySiren
 4295 1136 22       		.uleb128 0x22
 4296 1137 83070000 		.4byte	.LASF316
 4297 113b 01       		.byte	0x1
 4298 113c 1E       		.byte	0x1e
 4299 113d 6A0F0000 		.4byte	0xf6a
 4300 1141 05       		.uleb128 0x5
 4301 1142 03       		.byte	0x3
 4302 1143 24000000 		.4byte	pRxPacket_RelaySiren
 4303 1147 22       		.uleb128 0x22
 4304 1148 A70C0000 		.4byte	.LASF123
 4305 114c 01       		.byte	0x1
 4306 114d 20       		.byte	0x20
 4307 114e 4A060000 		.4byte	0x64a
ARM GAS  C:\Users\MARTHN~1\AppData\Local\Temp\cc9i6CHj.s 			page 93


 4308 1152 05       		.uleb128 0x5
 4309 1153 03       		.byte	0x3
 4310 1154 28000000 		.4byte	txPacket_RelaySiren
 4311 1158 22       		.uleb128 0x22
 4312 1159 8D050000 		.4byte	.LASF317
 4313 115d 01       		.byte	0x1
 4314 115e 21       		.byte	0x21
 4315 115f 860F0000 		.4byte	0xf86
 4316 1163 05       		.uleb128 0x5
 4317 1164 03       		.byte	0x3
 4318 1165 78000000 		.4byte	pTxPacket_RelaySiren
 4319 1169 22       		.uleb128 0x22
 4320 116a B0040000 		.4byte	.LASF318
 4321 116e 01       		.byte	0x1
 4322 116f 29       		.byte	0x29
 4323 1170 DB060000 		.4byte	0x6db
 4324 1174 05       		.uleb128 0x5
 4325 1175 03       		.byte	0x3
 4326 1176 7C000000 		.4byte	txPacket_H
 4327 117a 22       		.uleb128 0x22
 4328 117b F70B0000 		.4byte	.LASF319
 4329 117f 01       		.byte	0x1
 4330 1180 2A       		.byte	0x2a
 4331 1181 B80F0000 		.4byte	0xfb8
 4332 1185 05       		.uleb128 0x5
 4333 1186 03       		.byte	0x3
 4334 1187 84000000 		.4byte	pTxPacket_H
 4335 118b 22       		.uleb128 0x22
 4336 118c 530B0000 		.4byte	.LASF320
 4337 1190 01       		.byte	0x1
 4338 1191 2C       		.byte	0x2c
 4339 1192 DB060000 		.4byte	0x6db
 4340 1196 05       		.uleb128 0x5
 4341 1197 03       		.byte	0x3
 4342 1198 88000000 		.4byte	rxPacket_H
 4343 119c 22       		.uleb128 0x22
 4344 119d 29000000 		.4byte	.LASF321
 4345 11a1 01       		.byte	0x1
 4346 11a2 2D       		.byte	0x2d
 4347 11a3 B80F0000 		.4byte	0xfb8
 4348 11a7 05       		.uleb128 0x5
 4349 11a8 03       		.byte	0x3
 4350 11a9 90000000 		.4byte	pRxPacket_H
 4351 11ad 22       		.uleb128 0x22
 4352 11ae E00F0000 		.4byte	.LASF322
 4353 11b2 01       		.byte	0x1
 4354 11b3 2F       		.byte	0x2f
 4355 11b4 5B0C0000 		.4byte	0xc5b
 4356 11b8 05       		.uleb128 0x5
 4357 11b9 03       		.byte	0x3
 4358 11ba 94000000 		.4byte	txPacket_Quad
 4359 11be 22       		.uleb128 0x22
 4360 11bf 1B030000 		.4byte	.LASF323
 4361 11c3 01       		.byte	0x1
 4362 11c4 30       		.byte	0x30
 4363 11c5 CF110000 		.4byte	0x11cf
 4364 11c9 05       		.uleb128 0x5
ARM GAS  C:\Users\MARTHN~1\AppData\Local\Temp\cc9i6CHj.s 			page 94


 4365 11ca 03       		.byte	0x3
 4366 11cb 04010000 		.4byte	pTxPacket_Quad
 4367 11cf 1D       		.uleb128 0x1d
 4368 11d0 04       		.byte	0x4
 4369 11d1 5B0C0000 		.4byte	0xc5b
 4370 11d5 22       		.uleb128 0x22
 4371 11d6 960F0000 		.4byte	.LASF324
 4372 11da 01       		.byte	0x1
 4373 11db 38       		.byte	0x38
 4374 11dc 8D000000 		.4byte	0x8d
 4375 11e0 05       		.uleb128 0x5
 4376 11e1 03       		.byte	0x3
 4377 11e2 08010000 		.4byte	RTest_20ms_isr_count
 4378 11e6 22       		.uleb128 0x22
 4379 11e7 34110000 		.4byte	.LASF325
 4380 11eb 01       		.byte	0x1
 4381 11ec 39       		.byte	0x39
 4382 11ed 8D000000 		.4byte	0x8d
 4383 11f1 05       		.uleb128 0x5
 4384 11f2 03       		.byte	0x3
 4385 11f3 0A010000 		.4byte	RTest_20ms_isr_EN
 4386 11f7 08       		.uleb128 0x8
 4387 11f8 8D000000 		.4byte	0x8d
 4388 11fc 07120000 		.4byte	0x1207
 4389 1200 09       		.uleb128 0x9
 4390 1201 C1000000 		.4byte	0xc1
 4391 1205 0A       		.byte	0xa
 4392 1206 00       		.byte	0
 4393 1207 22       		.uleb128 0x22
 4394 1208 0E040000 		.4byte	.LASF326
 4395 120c 01       		.byte	0x1
 4396 120d 73       		.byte	0x73
 4397 120e F7110000 		.4byte	0x11f7
 4398 1212 05       		.uleb128 0x5
 4399 1213 03       		.byte	0x3
 4400 1214 00000000 		.4byte	RTest_TimeoutCount
 4401 1218 08       		.uleb128 0x8
 4402 1219 81000000 		.4byte	0x81
 4403 121d 28120000 		.4byte	0x1228
 4404 1221 09       		.uleb128 0x9
 4405 1222 C1000000 		.4byte	0xc1
 4406 1226 0A       		.byte	0xa
 4407 1227 00       		.byte	0
 4408 1228 22       		.uleb128 0x22
 4409 1229 12100000 		.4byte	.LASF327
 4410 122d 01       		.byte	0x1
 4411 122e 75       		.byte	0x75
 4412 122f 18120000 		.4byte	0x1218
 4413 1233 05       		.uleb128 0x5
 4414 1234 03       		.byte	0x3
 4415 1235 0C010000 		.4byte	RTestStatus
 4416 1239 23       		.uleb128 0x23
 4417 123a F50A0000 		.4byte	.LASF328
 4418 123e 08       		.byte	0x8
 4419 123f 1207     		.2byte	0x712
 4420 1241 45120000 		.4byte	0x1245
 4421 1245 24       		.uleb128 0x24
ARM GAS  C:\Users\MARTHN~1\AppData\Local\Temp\cc9i6CHj.s 			page 95


 4422 1246 76000000 		.4byte	0x76
 4423 124a 25       		.uleb128 0x25
 4424 124b 830C0000 		.4byte	.LASF329
 4425 124f 05       		.byte	0x5
 4426 1250 16       		.byte	0x16
 4427 1251 C8000000 		.4byte	0xc8
 4428 1255 05       		.uleb128 0x5
 4429 1256 03       		.byte	0x3
 4430 1257 00000000 		.4byte	Test
 4431 125b 26       		.uleb128 0x26
 4432 125c 180C0000 		.4byte	.LASF330
 4433 1260 05       		.byte	0x5
 4434 1261 1A       		.byte	0x1a
 4435 1262 F9000000 		.4byte	0xf9
 4436 1266 00       		.byte	0
 4437              		.section	.debug_abbrev,"",%progbits
 4438              	.Ldebug_abbrev0:
 4439 0000 01       		.uleb128 0x1
 4440 0001 11       		.uleb128 0x11
 4441 0002 01       		.byte	0x1
 4442 0003 25       		.uleb128 0x25
 4443 0004 0E       		.uleb128 0xe
 4444 0005 13       		.uleb128 0x13
 4445 0006 0B       		.uleb128 0xb
 4446 0007 03       		.uleb128 0x3
 4447 0008 0E       		.uleb128 0xe
 4448 0009 1B       		.uleb128 0x1b
 4449 000a 0E       		.uleb128 0xe
 4450 000b 55       		.uleb128 0x55
 4451 000c 17       		.uleb128 0x17
 4452 000d 11       		.uleb128 0x11
 4453 000e 01       		.uleb128 0x1
 4454 000f 10       		.uleb128 0x10
 4455 0010 17       		.uleb128 0x17
 4456 0011 00       		.byte	0
 4457 0012 00       		.byte	0
 4458 0013 02       		.uleb128 0x2
 4459 0014 24       		.uleb128 0x24
 4460 0015 00       		.byte	0
 4461 0016 0B       		.uleb128 0xb
 4462 0017 0B       		.uleb128 0xb
 4463 0018 3E       		.uleb128 0x3e
 4464 0019 0B       		.uleb128 0xb
 4465 001a 03       		.uleb128 0x3
 4466 001b 0E       		.uleb128 0xe
 4467 001c 00       		.byte	0
 4468 001d 00       		.byte	0
 4469 001e 03       		.uleb128 0x3
 4470 001f 16       		.uleb128 0x16
 4471 0020 00       		.byte	0
 4472 0021 03       		.uleb128 0x3
 4473 0022 0E       		.uleb128 0xe
 4474 0023 3A       		.uleb128 0x3a
 4475 0024 0B       		.uleb128 0xb
 4476 0025 3B       		.uleb128 0x3b
 4477 0026 0B       		.uleb128 0xb
 4478 0027 49       		.uleb128 0x49
ARM GAS  C:\Users\MARTHN~1\AppData\Local\Temp\cc9i6CHj.s 			page 96


 4479 0028 13       		.uleb128 0x13
 4480 0029 00       		.byte	0
 4481 002a 00       		.byte	0
 4482 002b 04       		.uleb128 0x4
 4483 002c 24       		.uleb128 0x24
 4484 002d 00       		.byte	0
 4485 002e 0B       		.uleb128 0xb
 4486 002f 0B       		.uleb128 0xb
 4487 0030 3E       		.uleb128 0x3e
 4488 0031 0B       		.uleb128 0xb
 4489 0032 03       		.uleb128 0x3
 4490 0033 08       		.uleb128 0x8
 4491 0034 00       		.byte	0
 4492 0035 00       		.byte	0
 4493 0036 05       		.uleb128 0x5
 4494 0037 16       		.uleb128 0x16
 4495 0038 00       		.byte	0
 4496 0039 03       		.uleb128 0x3
 4497 003a 0E       		.uleb128 0xe
 4498 003b 3A       		.uleb128 0x3a
 4499 003c 0B       		.uleb128 0xb
 4500 003d 3B       		.uleb128 0x3b
 4501 003e 05       		.uleb128 0x5
 4502 003f 49       		.uleb128 0x49
 4503 0040 13       		.uleb128 0x13
 4504 0041 00       		.byte	0
 4505 0042 00       		.byte	0
 4506 0043 06       		.uleb128 0x6
 4507 0044 13       		.uleb128 0x13
 4508 0045 01       		.byte	0x1
 4509 0046 03       		.uleb128 0x3
 4510 0047 0E       		.uleb128 0xe
 4511 0048 0B       		.uleb128 0xb
 4512 0049 0B       		.uleb128 0xb
 4513 004a 3A       		.uleb128 0x3a
 4514 004b 0B       		.uleb128 0xb
 4515 004c 3B       		.uleb128 0x3b
 4516 004d 0B       		.uleb128 0xb
 4517 004e 01       		.uleb128 0x1
 4518 004f 13       		.uleb128 0x13
 4519 0050 00       		.byte	0
 4520 0051 00       		.byte	0
 4521 0052 07       		.uleb128 0x7
 4522 0053 0D       		.uleb128 0xd
 4523 0054 00       		.byte	0
 4524 0055 03       		.uleb128 0x3
 4525 0056 0E       		.uleb128 0xe
 4526 0057 3A       		.uleb128 0x3a
 4527 0058 0B       		.uleb128 0xb
 4528 0059 3B       		.uleb128 0x3b
 4529 005a 0B       		.uleb128 0xb
 4530 005b 49       		.uleb128 0x49
 4531 005c 13       		.uleb128 0x13
 4532 005d 38       		.uleb128 0x38
 4533 005e 0B       		.uleb128 0xb
 4534 005f 00       		.byte	0
 4535 0060 00       		.byte	0
ARM GAS  C:\Users\MARTHN~1\AppData\Local\Temp\cc9i6CHj.s 			page 97


 4536 0061 08       		.uleb128 0x8
 4537 0062 01       		.uleb128 0x1
 4538 0063 01       		.byte	0x1
 4539 0064 49       		.uleb128 0x49
 4540 0065 13       		.uleb128 0x13
 4541 0066 01       		.uleb128 0x1
 4542 0067 13       		.uleb128 0x13
 4543 0068 00       		.byte	0
 4544 0069 00       		.byte	0
 4545 006a 09       		.uleb128 0x9
 4546 006b 21       		.uleb128 0x21
 4547 006c 00       		.byte	0
 4548 006d 49       		.uleb128 0x49
 4549 006e 13       		.uleb128 0x13
 4550 006f 2F       		.uleb128 0x2f
 4551 0070 0B       		.uleb128 0xb
 4552 0071 00       		.byte	0
 4553 0072 00       		.byte	0
 4554 0073 0A       		.uleb128 0xa
 4555 0074 17       		.uleb128 0x17
 4556 0075 01       		.byte	0x1
 4557 0076 03       		.uleb128 0x3
 4558 0077 0E       		.uleb128 0xe
 4559 0078 0B       		.uleb128 0xb
 4560 0079 0B       		.uleb128 0xb
 4561 007a 3A       		.uleb128 0x3a
 4562 007b 0B       		.uleb128 0xb
 4563 007c 3B       		.uleb128 0x3b
 4564 007d 0B       		.uleb128 0xb
 4565 007e 01       		.uleb128 0x1
 4566 007f 13       		.uleb128 0x13
 4567 0080 00       		.byte	0
 4568 0081 00       		.byte	0
 4569 0082 0B       		.uleb128 0xb
 4570 0083 0D       		.uleb128 0xd
 4571 0084 00       		.byte	0
 4572 0085 03       		.uleb128 0x3
 4573 0086 0E       		.uleb128 0xe
 4574 0087 3A       		.uleb128 0x3a
 4575 0088 0B       		.uleb128 0xb
 4576 0089 3B       		.uleb128 0x3b
 4577 008a 0B       		.uleb128 0xb
 4578 008b 49       		.uleb128 0x49
 4579 008c 13       		.uleb128 0x13
 4580 008d 00       		.byte	0
 4581 008e 00       		.byte	0
 4582 008f 0C       		.uleb128 0xc
 4583 0090 13       		.uleb128 0x13
 4584 0091 01       		.byte	0x1
 4585 0092 03       		.uleb128 0x3
 4586 0093 0E       		.uleb128 0xe
 4587 0094 0B       		.uleb128 0xb
 4588 0095 0B       		.uleb128 0xb
 4589 0096 3A       		.uleb128 0x3a
 4590 0097 0B       		.uleb128 0xb
 4591 0098 3B       		.uleb128 0x3b
 4592 0099 05       		.uleb128 0x5
ARM GAS  C:\Users\MARTHN~1\AppData\Local\Temp\cc9i6CHj.s 			page 98


 4593 009a 01       		.uleb128 0x1
 4594 009b 13       		.uleb128 0x13
 4595 009c 00       		.byte	0
 4596 009d 00       		.byte	0
 4597 009e 0D       		.uleb128 0xd
 4598 009f 0D       		.uleb128 0xd
 4599 00a0 00       		.byte	0
 4600 00a1 03       		.uleb128 0x3
 4601 00a2 0E       		.uleb128 0xe
 4602 00a3 3A       		.uleb128 0x3a
 4603 00a4 0B       		.uleb128 0xb
 4604 00a5 3B       		.uleb128 0x3b
 4605 00a6 05       		.uleb128 0x5
 4606 00a7 49       		.uleb128 0x49
 4607 00a8 13       		.uleb128 0x13
 4608 00a9 38       		.uleb128 0x38
 4609 00aa 0B       		.uleb128 0xb
 4610 00ab 00       		.byte	0
 4611 00ac 00       		.byte	0
 4612 00ad 0E       		.uleb128 0xe
 4613 00ae 0D       		.uleb128 0xd
 4614 00af 00       		.byte	0
 4615 00b0 03       		.uleb128 0x3
 4616 00b1 08       		.uleb128 0x8
 4617 00b2 3A       		.uleb128 0x3a
 4618 00b3 0B       		.uleb128 0xb
 4619 00b4 3B       		.uleb128 0x3b
 4620 00b5 05       		.uleb128 0x5
 4621 00b6 49       		.uleb128 0x49
 4622 00b7 13       		.uleb128 0x13
 4623 00b8 38       		.uleb128 0x38
 4624 00b9 0B       		.uleb128 0xb
 4625 00ba 00       		.byte	0
 4626 00bb 00       		.byte	0
 4627 00bc 0F       		.uleb128 0xf
 4628 00bd 17       		.uleb128 0x17
 4629 00be 01       		.byte	0x1
 4630 00bf 03       		.uleb128 0x3
 4631 00c0 0E       		.uleb128 0xe
 4632 00c1 0B       		.uleb128 0xb
 4633 00c2 0B       		.uleb128 0xb
 4634 00c3 3A       		.uleb128 0x3a
 4635 00c4 0B       		.uleb128 0xb
 4636 00c5 3B       		.uleb128 0x3b
 4637 00c6 05       		.uleb128 0x5
 4638 00c7 01       		.uleb128 0x1
 4639 00c8 13       		.uleb128 0x13
 4640 00c9 00       		.byte	0
 4641 00ca 00       		.byte	0
 4642 00cb 10       		.uleb128 0x10
 4643 00cc 0D       		.uleb128 0xd
 4644 00cd 00       		.byte	0
 4645 00ce 03       		.uleb128 0x3
 4646 00cf 0E       		.uleb128 0xe
 4647 00d0 3A       		.uleb128 0x3a
 4648 00d1 0B       		.uleb128 0xb
 4649 00d2 3B       		.uleb128 0x3b
ARM GAS  C:\Users\MARTHN~1\AppData\Local\Temp\cc9i6CHj.s 			page 99


 4650 00d3 05       		.uleb128 0x5
 4651 00d4 49       		.uleb128 0x49
 4652 00d5 13       		.uleb128 0x13
 4653 00d6 00       		.byte	0
 4654 00d7 00       		.byte	0
 4655 00d8 11       		.uleb128 0x11
 4656 00d9 04       		.uleb128 0x4
 4657 00da 01       		.byte	0x1
 4658 00db 03       		.uleb128 0x3
 4659 00dc 0E       		.uleb128 0xe
 4660 00dd 0B       		.uleb128 0xb
 4661 00de 0B       		.uleb128 0xb
 4662 00df 49       		.uleb128 0x49
 4663 00e0 13       		.uleb128 0x13
 4664 00e1 3A       		.uleb128 0x3a
 4665 00e2 0B       		.uleb128 0xb
 4666 00e3 3B       		.uleb128 0x3b
 4667 00e4 0B       		.uleb128 0xb
 4668 00e5 01       		.uleb128 0x1
 4669 00e6 13       		.uleb128 0x13
 4670 00e7 00       		.byte	0
 4671 00e8 00       		.byte	0
 4672 00e9 12       		.uleb128 0x12
 4673 00ea 28       		.uleb128 0x28
 4674 00eb 00       		.byte	0
 4675 00ec 03       		.uleb128 0x3
 4676 00ed 0E       		.uleb128 0xe
 4677 00ee 1C       		.uleb128 0x1c
 4678 00ef 0B       		.uleb128 0xb
 4679 00f0 00       		.byte	0
 4680 00f1 00       		.byte	0
 4681 00f2 13       		.uleb128 0x13
 4682 00f3 28       		.uleb128 0x28
 4683 00f4 00       		.byte	0
 4684 00f5 03       		.uleb128 0x3
 4685 00f6 08       		.uleb128 0x8
 4686 00f7 1C       		.uleb128 0x1c
 4687 00f8 0B       		.uleb128 0xb
 4688 00f9 00       		.byte	0
 4689 00fa 00       		.byte	0
 4690 00fb 14       		.uleb128 0x14
 4691 00fc 2E       		.uleb128 0x2e
 4692 00fd 01       		.byte	0x1
 4693 00fe 3F       		.uleb128 0x3f
 4694 00ff 19       		.uleb128 0x19
 4695 0100 03       		.uleb128 0x3
 4696 0101 0E       		.uleb128 0xe
 4697 0102 3A       		.uleb128 0x3a
 4698 0103 0B       		.uleb128 0xb
 4699 0104 3B       		.uleb128 0x3b
 4700 0105 0B       		.uleb128 0xb
 4701 0106 27       		.uleb128 0x27
 4702 0107 19       		.uleb128 0x19
 4703 0108 49       		.uleb128 0x49
 4704 0109 13       		.uleb128 0x13
 4705 010a 11       		.uleb128 0x11
 4706 010b 01       		.uleb128 0x1
ARM GAS  C:\Users\MARTHN~1\AppData\Local\Temp\cc9i6CHj.s 			page 100


 4707 010c 12       		.uleb128 0x12
 4708 010d 06       		.uleb128 0x6
 4709 010e 40       		.uleb128 0x40
 4710 010f 18       		.uleb128 0x18
 4711 0110 9642     		.uleb128 0x2116
 4712 0112 19       		.uleb128 0x19
 4713 0113 01       		.uleb128 0x1
 4714 0114 13       		.uleb128 0x13
 4715 0115 00       		.byte	0
 4716 0116 00       		.byte	0
 4717 0117 15       		.uleb128 0x15
 4718 0118 0B       		.uleb128 0xb
 4719 0119 01       		.byte	0x1
 4720 011a 11       		.uleb128 0x11
 4721 011b 01       		.uleb128 0x1
 4722 011c 12       		.uleb128 0x12
 4723 011d 06       		.uleb128 0x6
 4724 011e 01       		.uleb128 0x1
 4725 011f 13       		.uleb128 0x13
 4726 0120 00       		.byte	0
 4727 0121 00       		.byte	0
 4728 0122 16       		.uleb128 0x16
 4729 0123 34       		.uleb128 0x34
 4730 0124 00       		.byte	0
 4731 0125 03       		.uleb128 0x3
 4732 0126 08       		.uleb128 0x8
 4733 0127 3A       		.uleb128 0x3a
 4734 0128 0B       		.uleb128 0xb
 4735 0129 3B       		.uleb128 0x3b
 4736 012a 0B       		.uleb128 0xb
 4737 012b 49       		.uleb128 0x49
 4738 012c 13       		.uleb128 0x13
 4739 012d 02       		.uleb128 0x2
 4740 012e 18       		.uleb128 0x18
 4741 012f 00       		.byte	0
 4742 0130 00       		.byte	0
 4743 0131 17       		.uleb128 0x17
 4744 0132 0B       		.uleb128 0xb
 4745 0133 01       		.byte	0x1
 4746 0134 11       		.uleb128 0x11
 4747 0135 01       		.uleb128 0x1
 4748 0136 12       		.uleb128 0x12
 4749 0137 06       		.uleb128 0x6
 4750 0138 00       		.byte	0
 4751 0139 00       		.byte	0
 4752 013a 18       		.uleb128 0x18
 4753 013b 34       		.uleb128 0x34
 4754 013c 00       		.byte	0
 4755 013d 03       		.uleb128 0x3
 4756 013e 08       		.uleb128 0x8
 4757 013f 3A       		.uleb128 0x3a
 4758 0140 0B       		.uleb128 0xb
 4759 0141 3B       		.uleb128 0x3b
 4760 0142 05       		.uleb128 0x5
 4761 0143 49       		.uleb128 0x49
 4762 0144 13       		.uleb128 0x13
 4763 0145 02       		.uleb128 0x2
ARM GAS  C:\Users\MARTHN~1\AppData\Local\Temp\cc9i6CHj.s 			page 101


 4764 0146 18       		.uleb128 0x18
 4765 0147 00       		.byte	0
 4766 0148 00       		.byte	0
 4767 0149 19       		.uleb128 0x19
 4768 014a 2E       		.uleb128 0x2e
 4769 014b 01       		.byte	0x1
 4770 014c 3F       		.uleb128 0x3f
 4771 014d 19       		.uleb128 0x19
 4772 014e 03       		.uleb128 0x3
 4773 014f 0E       		.uleb128 0xe
 4774 0150 3A       		.uleb128 0x3a
 4775 0151 0B       		.uleb128 0xb
 4776 0152 3B       		.uleb128 0x3b
 4777 0153 05       		.uleb128 0x5
 4778 0154 27       		.uleb128 0x27
 4779 0155 19       		.uleb128 0x19
 4780 0156 49       		.uleb128 0x49
 4781 0157 13       		.uleb128 0x13
 4782 0158 11       		.uleb128 0x11
 4783 0159 01       		.uleb128 0x1
 4784 015a 12       		.uleb128 0x12
 4785 015b 06       		.uleb128 0x6
 4786 015c 40       		.uleb128 0x40
 4787 015d 18       		.uleb128 0x18
 4788 015e 9642     		.uleb128 0x2116
 4789 0160 19       		.uleb128 0x19
 4790 0161 01       		.uleb128 0x1
 4791 0162 13       		.uleb128 0x13
 4792 0163 00       		.byte	0
 4793 0164 00       		.byte	0
 4794 0165 1A       		.uleb128 0x1a
 4795 0166 34       		.uleb128 0x34
 4796 0167 00       		.byte	0
 4797 0168 03       		.uleb128 0x3
 4798 0169 0E       		.uleb128 0xe
 4799 016a 3A       		.uleb128 0x3a
 4800 016b 0B       		.uleb128 0xb
 4801 016c 3B       		.uleb128 0x3b
 4802 016d 05       		.uleb128 0x5
 4803 016e 49       		.uleb128 0x49
 4804 016f 13       		.uleb128 0x13
 4805 0170 02       		.uleb128 0x2
 4806 0171 18       		.uleb128 0x18
 4807 0172 00       		.byte	0
 4808 0173 00       		.byte	0
 4809 0174 1B       		.uleb128 0x1b
 4810 0175 2E       		.uleb128 0x2e
 4811 0176 00       		.byte	0
 4812 0177 3F       		.uleb128 0x3f
 4813 0178 19       		.uleb128 0x19
 4814 0179 03       		.uleb128 0x3
 4815 017a 0E       		.uleb128 0xe
 4816 017b 3A       		.uleb128 0x3a
 4817 017c 0B       		.uleb128 0xb
 4818 017d 3B       		.uleb128 0x3b
 4819 017e 05       		.uleb128 0x5
 4820 017f 27       		.uleb128 0x27
ARM GAS  C:\Users\MARTHN~1\AppData\Local\Temp\cc9i6CHj.s 			page 102


 4821 0180 19       		.uleb128 0x19
 4822 0181 49       		.uleb128 0x49
 4823 0182 13       		.uleb128 0x13
 4824 0183 11       		.uleb128 0x11
 4825 0184 01       		.uleb128 0x1
 4826 0185 12       		.uleb128 0x12
 4827 0186 06       		.uleb128 0x6
 4828 0187 40       		.uleb128 0x40
 4829 0188 18       		.uleb128 0x18
 4830 0189 9642     		.uleb128 0x2116
 4831 018b 19       		.uleb128 0x19
 4832 018c 00       		.byte	0
 4833 018d 00       		.byte	0
 4834 018e 1C       		.uleb128 0x1c
 4835 018f 2E       		.uleb128 0x2e
 4836 0190 00       		.byte	0
 4837 0191 3F       		.uleb128 0x3f
 4838 0192 19       		.uleb128 0x19
 4839 0193 03       		.uleb128 0x3
 4840 0194 0E       		.uleb128 0xe
 4841 0195 3A       		.uleb128 0x3a
 4842 0196 0B       		.uleb128 0xb
 4843 0197 3B       		.uleb128 0x3b
 4844 0198 05       		.uleb128 0x5
 4845 0199 27       		.uleb128 0x27
 4846 019a 19       		.uleb128 0x19
 4847 019b 49       		.uleb128 0x49
 4848 019c 13       		.uleb128 0x13
 4849 019d 11       		.uleb128 0x11
 4850 019e 01       		.uleb128 0x1
 4851 019f 12       		.uleb128 0x12
 4852 01a0 06       		.uleb128 0x6
 4853 01a1 40       		.uleb128 0x40
 4854 01a2 18       		.uleb128 0x18
 4855 01a3 9742     		.uleb128 0x2117
 4856 01a5 19       		.uleb128 0x19
 4857 01a6 00       		.byte	0
 4858 01a7 00       		.byte	0
 4859 01a8 1D       		.uleb128 0x1d
 4860 01a9 0F       		.uleb128 0xf
 4861 01aa 00       		.byte	0
 4862 01ab 0B       		.uleb128 0xb
 4863 01ac 0B       		.uleb128 0xb
 4864 01ad 49       		.uleb128 0x49
 4865 01ae 13       		.uleb128 0x13
 4866 01af 00       		.byte	0
 4867 01b0 00       		.byte	0
 4868 01b1 1E       		.uleb128 0x1e
 4869 01b2 2E       		.uleb128 0x2e
 4870 01b3 01       		.byte	0x1
 4871 01b4 3F       		.uleb128 0x3f
 4872 01b5 19       		.uleb128 0x19
 4873 01b6 03       		.uleb128 0x3
 4874 01b7 0E       		.uleb128 0xe
 4875 01b8 3A       		.uleb128 0x3a
 4876 01b9 0B       		.uleb128 0xb
 4877 01ba 3B       		.uleb128 0x3b
ARM GAS  C:\Users\MARTHN~1\AppData\Local\Temp\cc9i6CHj.s 			page 103


 4878 01bb 05       		.uleb128 0x5
 4879 01bc 27       		.uleb128 0x27
 4880 01bd 19       		.uleb128 0x19
 4881 01be 11       		.uleb128 0x11
 4882 01bf 01       		.uleb128 0x1
 4883 01c0 12       		.uleb128 0x12
 4884 01c1 06       		.uleb128 0x6
 4885 01c2 40       		.uleb128 0x40
 4886 01c3 18       		.uleb128 0x18
 4887 01c4 9642     		.uleb128 0x2116
 4888 01c6 19       		.uleb128 0x19
 4889 01c7 01       		.uleb128 0x1
 4890 01c8 13       		.uleb128 0x13
 4891 01c9 00       		.byte	0
 4892 01ca 00       		.byte	0
 4893 01cb 1F       		.uleb128 0x1f
 4894 01cc 05       		.uleb128 0x5
 4895 01cd 00       		.byte	0
 4896 01ce 03       		.uleb128 0x3
 4897 01cf 0E       		.uleb128 0xe
 4898 01d0 3A       		.uleb128 0x3a
 4899 01d1 0B       		.uleb128 0xb
 4900 01d2 3B       		.uleb128 0x3b
 4901 01d3 05       		.uleb128 0x5
 4902 01d4 49       		.uleb128 0x49
 4903 01d5 13       		.uleb128 0x13
 4904 01d6 02       		.uleb128 0x2
 4905 01d7 18       		.uleb128 0x18
 4906 01d8 00       		.byte	0
 4907 01d9 00       		.byte	0
 4908 01da 20       		.uleb128 0x20
 4909 01db 2E       		.uleb128 0x2e
 4910 01dc 00       		.byte	0
 4911 01dd 3F       		.uleb128 0x3f
 4912 01de 19       		.uleb128 0x19
 4913 01df 03       		.uleb128 0x3
 4914 01e0 0E       		.uleb128 0xe
 4915 01e1 3A       		.uleb128 0x3a
 4916 01e2 0B       		.uleb128 0xb
 4917 01e3 3B       		.uleb128 0x3b
 4918 01e4 05       		.uleb128 0x5
 4919 01e5 27       		.uleb128 0x27
 4920 01e6 19       		.uleb128 0x19
 4921 01e7 11       		.uleb128 0x11
 4922 01e8 01       		.uleb128 0x1
 4923 01e9 12       		.uleb128 0x12
 4924 01ea 06       		.uleb128 0x6
 4925 01eb 40       		.uleb128 0x40
 4926 01ec 18       		.uleb128 0x18
 4927 01ed 9642     		.uleb128 0x2116
 4928 01ef 19       		.uleb128 0x19
 4929 01f0 00       		.byte	0
 4930 01f1 00       		.byte	0
 4931 01f2 21       		.uleb128 0x21
 4932 01f3 2E       		.uleb128 0x2e
 4933 01f4 00       		.byte	0
 4934 01f5 3F       		.uleb128 0x3f
ARM GAS  C:\Users\MARTHN~1\AppData\Local\Temp\cc9i6CHj.s 			page 104


 4935 01f6 19       		.uleb128 0x19
 4936 01f7 03       		.uleb128 0x3
 4937 01f8 0E       		.uleb128 0xe
 4938 01f9 3A       		.uleb128 0x3a
 4939 01fa 0B       		.uleb128 0xb
 4940 01fb 3B       		.uleb128 0x3b
 4941 01fc 05       		.uleb128 0x5
 4942 01fd 27       		.uleb128 0x27
 4943 01fe 19       		.uleb128 0x19
 4944 01ff 11       		.uleb128 0x11
 4945 0200 01       		.uleb128 0x1
 4946 0201 12       		.uleb128 0x12
 4947 0202 06       		.uleb128 0x6
 4948 0203 40       		.uleb128 0x40
 4949 0204 18       		.uleb128 0x18
 4950 0205 9742     		.uleb128 0x2117
 4951 0207 19       		.uleb128 0x19
 4952 0208 00       		.byte	0
 4953 0209 00       		.byte	0
 4954 020a 22       		.uleb128 0x22
 4955 020b 34       		.uleb128 0x34
 4956 020c 00       		.byte	0
 4957 020d 03       		.uleb128 0x3
 4958 020e 0E       		.uleb128 0xe
 4959 020f 3A       		.uleb128 0x3a
 4960 0210 0B       		.uleb128 0xb
 4961 0211 3B       		.uleb128 0x3b
 4962 0212 0B       		.uleb128 0xb
 4963 0213 49       		.uleb128 0x49
 4964 0214 13       		.uleb128 0x13
 4965 0215 02       		.uleb128 0x2
 4966 0216 18       		.uleb128 0x18
 4967 0217 00       		.byte	0
 4968 0218 00       		.byte	0
 4969 0219 23       		.uleb128 0x23
 4970 021a 34       		.uleb128 0x34
 4971 021b 00       		.byte	0
 4972 021c 03       		.uleb128 0x3
 4973 021d 0E       		.uleb128 0xe
 4974 021e 3A       		.uleb128 0x3a
 4975 021f 0B       		.uleb128 0xb
 4976 0220 3B       		.uleb128 0x3b
 4977 0221 05       		.uleb128 0x5
 4978 0222 49       		.uleb128 0x49
 4979 0223 13       		.uleb128 0x13
 4980 0224 3F       		.uleb128 0x3f
 4981 0225 19       		.uleb128 0x19
 4982 0226 3C       		.uleb128 0x3c
 4983 0227 19       		.uleb128 0x19
 4984 0228 00       		.byte	0
 4985 0229 00       		.byte	0
 4986 022a 24       		.uleb128 0x24
 4987 022b 35       		.uleb128 0x35
 4988 022c 00       		.byte	0
 4989 022d 49       		.uleb128 0x49
 4990 022e 13       		.uleb128 0x13
 4991 022f 00       		.byte	0
ARM GAS  C:\Users\MARTHN~1\AppData\Local\Temp\cc9i6CHj.s 			page 105


 4992 0230 00       		.byte	0
 4993 0231 25       		.uleb128 0x25
 4994 0232 34       		.uleb128 0x34
 4995 0233 00       		.byte	0
 4996 0234 03       		.uleb128 0x3
 4997 0235 0E       		.uleb128 0xe
 4998 0236 3A       		.uleb128 0x3a
 4999 0237 0B       		.uleb128 0xb
 5000 0238 3B       		.uleb128 0x3b
 5001 0239 0B       		.uleb128 0xb
 5002 023a 49       		.uleb128 0x49
 5003 023b 13       		.uleb128 0x13
 5004 023c 3F       		.uleb128 0x3f
 5005 023d 19       		.uleb128 0x19
 5006 023e 02       		.uleb128 0x2
 5007 023f 18       		.uleb128 0x18
 5008 0240 00       		.byte	0
 5009 0241 00       		.byte	0
 5010 0242 26       		.uleb128 0x26
 5011 0243 34       		.uleb128 0x34
 5012 0244 00       		.byte	0
 5013 0245 03       		.uleb128 0x3
 5014 0246 0E       		.uleb128 0xe
 5015 0247 3A       		.uleb128 0x3a
 5016 0248 0B       		.uleb128 0xb
 5017 0249 3B       		.uleb128 0x3b
 5018 024a 0B       		.uleb128 0xb
 5019 024b 49       		.uleb128 0x49
 5020 024c 13       		.uleb128 0x13
 5021 024d 3F       		.uleb128 0x3f
 5022 024e 19       		.uleb128 0x19
 5023 024f 3C       		.uleb128 0x3c
 5024 0250 19       		.uleb128 0x19
 5025 0251 00       		.byte	0
 5026 0252 00       		.byte	0
 5027 0253 00       		.byte	0
 5028              		.section	.debug_aranges,"",%progbits
 5029 0000 C4000000 		.4byte	0xc4
 5030 0004 0200     		.2byte	0x2
 5031 0006 00000000 		.4byte	.Ldebug_info0
 5032 000a 04       		.byte	0x4
 5033 000b 00       		.byte	0
 5034 000c 0000     		.2byte	0
 5035 000e 0000     		.2byte	0
 5036 0010 00000000 		.4byte	.LFB63
 5037 0014 88030000 		.4byte	.LFE63-.LFB63
 5038 0018 00000000 		.4byte	.LFB64
 5039 001c 66000000 		.4byte	.LFE64-.LFB64
 5040 0020 00000000 		.4byte	.LFB65
 5041 0024 68000000 		.4byte	.LFE65-.LFB65
 5042 0028 00000000 		.4byte	.LFB66
 5043 002c 54000000 		.4byte	.LFE66-.LFB66
 5044 0030 00000000 		.4byte	.LFB67
 5045 0034 B8000000 		.4byte	.LFE67-.LFB67
 5046 0038 00000000 		.4byte	.LFB68
 5047 003c 54000000 		.4byte	.LFE68-.LFB68
 5048 0040 00000000 		.4byte	.LFB69
ARM GAS  C:\Users\MARTHN~1\AppData\Local\Temp\cc9i6CHj.s 			page 106


 5049 0044 40000000 		.4byte	.LFE69-.LFB69
 5050 0048 00000000 		.4byte	.LFB70
 5051 004c 7C000000 		.4byte	.LFE70-.LFB70
 5052 0050 00000000 		.4byte	.LFB71
 5053 0054 20000000 		.4byte	.LFE71-.LFB71
 5054 0058 00000000 		.4byte	.LFB72
 5055 005c 20000000 		.4byte	.LFE72-.LFB72
 5056 0060 00000000 		.4byte	.LFB73
 5057 0064 20000000 		.4byte	.LFE73-.LFB73
 5058 0068 00000000 		.4byte	.LFB74
 5059 006c 20000000 		.4byte	.LFE74-.LFB74
 5060 0070 00000000 		.4byte	.LFB75
 5061 0074 20000000 		.4byte	.LFE75-.LFB75
 5062 0078 00000000 		.4byte	.LFB76
 5063 007c 58000000 		.4byte	.LFE76-.LFB76
 5064 0080 00000000 		.4byte	.LFB77
 5065 0084 7C000000 		.4byte	.LFE77-.LFB77
 5066 0088 00000000 		.4byte	.LFB78
 5067 008c 1C000000 		.4byte	.LFE78-.LFB78
 5068 0090 00000000 		.4byte	.LFB79
 5069 0094 84000000 		.4byte	.LFE79-.LFB79
 5070 0098 00000000 		.4byte	.LFB80
 5071 009c 58000000 		.4byte	.LFE80-.LFB80
 5072 00a0 00000000 		.4byte	.LFB81
 5073 00a4 78000000 		.4byte	.LFE81-.LFB81
 5074 00a8 00000000 		.4byte	.LFB82
 5075 00ac 3C000000 		.4byte	.LFE82-.LFB82
 5076 00b0 00000000 		.4byte	.LFB83
 5077 00b4 40000000 		.4byte	.LFE83-.LFB83
 5078 00b8 00000000 		.4byte	.LFB84
 5079 00bc 7A000000 		.4byte	.LFE84-.LFB84
 5080 00c0 00000000 		.4byte	0
 5081 00c4 00000000 		.4byte	0
 5082              		.section	.debug_ranges,"",%progbits
 5083              	.Ldebug_ranges0:
 5084 0000 00000000 		.4byte	.LFB63
 5085 0004 88030000 		.4byte	.LFE63
 5086 0008 00000000 		.4byte	.LFB64
 5087 000c 66000000 		.4byte	.LFE64
 5088 0010 00000000 		.4byte	.LFB65
 5089 0014 68000000 		.4byte	.LFE65
 5090 0018 00000000 		.4byte	.LFB66
 5091 001c 54000000 		.4byte	.LFE66
 5092 0020 00000000 		.4byte	.LFB67
 5093 0024 B8000000 		.4byte	.LFE67
 5094 0028 00000000 		.4byte	.LFB68
 5095 002c 54000000 		.4byte	.LFE68
 5096 0030 00000000 		.4byte	.LFB69
 5097 0034 40000000 		.4byte	.LFE69
 5098 0038 00000000 		.4byte	.LFB70
 5099 003c 7C000000 		.4byte	.LFE70
 5100 0040 00000000 		.4byte	.LFB71
 5101 0044 20000000 		.4byte	.LFE71
 5102 0048 00000000 		.4byte	.LFB72
 5103 004c 20000000 		.4byte	.LFE72
 5104 0050 00000000 		.4byte	.LFB73
 5105 0054 20000000 		.4byte	.LFE73
ARM GAS  C:\Users\MARTHN~1\AppData\Local\Temp\cc9i6CHj.s 			page 107


 5106 0058 00000000 		.4byte	.LFB74
 5107 005c 20000000 		.4byte	.LFE74
 5108 0060 00000000 		.4byte	.LFB75
 5109 0064 20000000 		.4byte	.LFE75
 5110 0068 00000000 		.4byte	.LFB76
 5111 006c 58000000 		.4byte	.LFE76
 5112 0070 00000000 		.4byte	.LFB77
 5113 0074 7C000000 		.4byte	.LFE77
 5114 0078 00000000 		.4byte	.LFB78
 5115 007c 1C000000 		.4byte	.LFE78
 5116 0080 00000000 		.4byte	.LFB79
 5117 0084 84000000 		.4byte	.LFE79
 5118 0088 00000000 		.4byte	.LFB80
 5119 008c 58000000 		.4byte	.LFE80
 5120 0090 00000000 		.4byte	.LFB81
 5121 0094 78000000 		.4byte	.LFE81
 5122 0098 00000000 		.4byte	.LFB82
 5123 009c 3C000000 		.4byte	.LFE82
 5124 00a0 00000000 		.4byte	.LFB83
 5125 00a4 40000000 		.4byte	.LFE83
 5126 00a8 00000000 		.4byte	.LFB84
 5127 00ac 7A000000 		.4byte	.LFE84
 5128 00b0 00000000 		.4byte	0
 5129 00b4 00000000 		.4byte	0
 5130              		.section	.debug_line,"",%progbits
 5131              	.Ldebug_line0:
 5132 0000 73050000 		.section	.debug_str,"MS",%progbits,1
 5132      02009C01 
 5132      00000201 
 5132      FB0E0D00 
 5132      01010101 
 5133              	.LASF93:
 5134 0000 42757A7A 		.ascii	"Buzzer_L\000"
 5134      65725F4C 
 5134      00
 5135              	.LASF315:
 5136 0009 70527850 		.ascii	"pRxPacket_Relay\000"
 5136      61636B65 
 5136      745F5265 
 5136      6C617900 
 5137              	.LASF125:
 5138 0019 44617461 		.ascii	"Data_H\000"
 5138      5F4800
 5139              	.LASF18:
 5140 0020 73697A65 		.ascii	"sizetype\000"
 5140      74797065 
 5140      00
 5141              	.LASF321:
 5142 0029 70527850 		.ascii	"pRxPacket_H\000"
 5142      61636B65 
 5142      745F4800 
 5143              	.LASF292:
 5144 0035 56626174 		.ascii	"Vbatt_Reading\000"
 5144      745F5265 
 5144      6164696E 
 5144      6700
 5145              	.LASF118:
ARM GAS  C:\Users\MARTHN~1\AppData\Local\Temp\cc9i6CHj.s 			page 108


 5146 0043 506F7765 		.ascii	"PowerState\000"
 5146      72537461 
 5146      746500
 5147              	.LASF10:
 5148 004e 696E7433 		.ascii	"int32_t\000"
 5148      325F7400 
 5149              	.LASF245:
 5150 0056 4D55585F 		.ascii	"MUX_460800_CHANNEL\000"
 5150      34363038 
 5150      30305F43 
 5150      48414E4E 
 5150      454C00
 5151              	.LASF274:
 5152 0069 54455354 		.ascii	"TEST_OUTPUTS\000"
 5152      5F4F5554 
 5152      50555453 
 5152      00
 5153              	.LASF230:
 5154 0076 4172726F 		.ascii	"Arrow_Module1\000"
 5154      775F4D6F 
 5154      64756C65 
 5154      3100
 5155              	.LASF231:
 5156 0084 4172726F 		.ascii	"Arrow_Module2\000"
 5156      775F4D6F 
 5156      64756C65 
 5156      3200
 5157              	.LASF232:
 5158 0092 4172726F 		.ascii	"Arrow_Module3\000"
 5158      775F4D6F 
 5158      64756C65 
 5158      3300
 5159              	.LASF233:
 5160 00a0 4172726F 		.ascii	"Arrow_Module4\000"
 5160      775F4D6F 
 5160      64756C65 
 5160      3400
 5161              	.LASF234:
 5162 00ae 4172726F 		.ascii	"Arrow_Module5\000"
 5162      775F4D6F 
 5162      64756C65 
 5162      3500
 5163              	.LASF235:
 5164 00bc 4172726F 		.ascii	"Arrow_Module6\000"
 5164      775F4D6F 
 5164      64756C65 
 5164      3600
 5165              	.LASF236:
 5166 00ca 4172726F 		.ascii	"Arrow_Module7\000"
 5166      775F4D6F 
 5166      64756C65 
 5166      3700
 5167              	.LASF237:
 5168 00d8 4172726F 		.ascii	"Arrow_Module8\000"
 5168      775F4D6F 
 5168      64756C65 
 5168      3800
ARM GAS  C:\Users\MARTHN~1\AppData\Local\Temp\cc9i6CHj.s 			page 109


 5169              	.LASF238:
 5170 00e6 4172726F 		.ascii	"Arrow_Module9\000"
 5170      775F4D6F 
 5170      64756C65 
 5170      3900
 5171              	.LASF13:
 5172 00f4 75696E74 		.ascii	"uint32\000"
 5172      333200
 5173              	.LASF312:
 5174 00fb 52546573 		.ascii	"RTest_StopAutomatedStep\000"
 5174      745F5374 
 5174      6F704175 
 5174      746F6D61 
 5174      74656453 
 5175              	.LASF301:
 5176 0113 52656C61 		.ascii	"RelayTestStatus_display\000"
 5176      79546573 
 5176      74537461 
 5176      7475735F 
 5176      64697370 
 5177              	.LASF239:
 5178 012b 4172726F 		.ascii	"Arrow_Module10\000"
 5178      775F4D6F 
 5178      64756C65 
 5178      313000
 5179              	.LASF59:
 5180 013a 4C45445F 		.ascii	"LED_11_R\000"
 5180      31315F52 
 5180      00
 5181              	.LASF280:
 5182 0143 424C4F43 		.ascii	"BLOCK_CURRENTS\000"
 5182      4B5F4355 
 5182      5252454E 
 5182      545300
 5183              	.LASF87:
 5184 0152 4C45445F 		.ascii	"LED_02_G\000"
 5184      30325F47 
 5184      00
 5185              	.LASF116:
 5186 015b 4F757470 		.ascii	"Outputs_25to32\000"
 5186      7574735F 
 5186      3235746F 
 5186      333200
 5187              	.LASF287:
 5188 016a 52546573 		.ascii	"RTest_Test_QuadPorts\000"
 5188      745F5465 
 5188      73745F51 
 5188      75616450 
 5188      6F727473 
 5189              	.LASF73:
 5190 017f 4C45445F 		.ascii	"LED_07_B\000"
 5190      30375F42 
 5190      00
 5191              	.LASF72:
 5192 0188 4C45445F 		.ascii	"LED_07_G\000"
 5192      30375F47 
 5192      00
ARM GAS  C:\Users\MARTHN~1\AppData\Local\Temp\cc9i6CHj.s 			page 110


 5193              	.LASF263:
 5194 0191 52544553 		.ascii	"RTEST_SIREN\000"
 5194      545F5349 
 5194      52454E00 
 5195              	.LASF71:
 5196 019d 4C45445F 		.ascii	"LED_07_R\000"
 5196      30375F52 
 5196      00
 5197              	.LASF130:
 5198 01a6 464C425F 		.ascii	"FLB_Module1\000"
 5198      4D6F6475 
 5198      6C653100 
 5199              	.LASF131:
 5200 01b2 464C425F 		.ascii	"FLB_Module2\000"
 5200      4D6F6475 
 5200      6C653200 
 5201              	.LASF132:
 5202 01be 464C425F 		.ascii	"FLB_Module3\000"
 5202      4D6F6475 
 5202      6C653300 
 5203              	.LASF95:
 5204 01ca 636F6E74 		.ascii	"controllerSpeakerEnable\000"
 5204      726F6C6C 
 5204      65725370 
 5204      65616B65 
 5204      72456E61 
 5205              	.LASF134:
 5206 01e2 464C425F 		.ascii	"FLB_Module5\000"
 5206      4D6F6475 
 5206      6C653500 
 5207              	.LASF135:
 5208 01ee 464C425F 		.ascii	"FLB_Module6\000"
 5208      4D6F6475 
 5208      6C653600 
 5209              	.LASF136:
 5210 01fa 464C425F 		.ascii	"FLB_Module7\000"
 5210      4D6F6475 
 5210      6C653700 
 5211              	.LASF137:
 5212 0206 464C425F 		.ascii	"FLB_Module8\000"
 5212      4D6F6475 
 5212      6C653800 
 5213              	.LASF138:
 5214 0212 464C425F 		.ascii	"FLB_Module9\000"
 5214      4D6F6475 
 5214      6C653900 
 5215              	.LASF109:
 5216 021e 53746F70 		.ascii	"StopByte1_Siren\000"
 5216      42797465 
 5216      315F5369 
 5216      72656E00 
 5217              	.LASF190:
 5218 022e 4C533830 		.ascii	"LS800_Module1\000"
 5218      305F4D6F 
 5218      64756C65 
 5218      3100
 5219              	.LASF191:
ARM GAS  C:\Users\MARTHN~1\AppData\Local\Temp\cc9i6CHj.s 			page 111


 5220 023c 4C533830 		.ascii	"LS800_Module2\000"
 5220      305F4D6F 
 5220      64756C65 
 5220      3200
 5221              	.LASF192:
 5222 024a 4C533830 		.ascii	"LS800_Module3\000"
 5222      305F4D6F 
 5222      64756C65 
 5222      3300
 5223              	.LASF193:
 5224 0258 4C533830 		.ascii	"LS800_Module4\000"
 5224      305F4D6F 
 5224      64756C65 
 5224      3400
 5225              	.LASF194:
 5226 0266 4C533830 		.ascii	"LS800_Module5\000"
 5226      305F4D6F 
 5226      64756C65 
 5226      3500
 5227              	.LASF195:
 5228 0274 4C533830 		.ascii	"LS800_Module6\000"
 5228      305F4D6F 
 5228      64756C65 
 5228      3600
 5229              	.LASF196:
 5230 0282 4C533830 		.ascii	"LS800_Module7\000"
 5230      305F4D6F 
 5230      64756C65 
 5230      3700
 5231              	.LASF197:
 5232 0290 4C533830 		.ascii	"LS800_Module8\000"
 5232      305F4D6F 
 5232      64756C65 
 5232      3800
 5233              	.LASF198:
 5234 029e 4C533830 		.ascii	"LS800_Module9\000"
 5234      305F4D6F 
 5234      64756C65 
 5234      3900
 5235              	.LASF111:
 5236 02ac 53746172 		.ascii	"StartByte1_Relay\000"
 5236      74427974 
 5236      65315F52 
 5236      656C6179 
 5236      00
 5237              	.LASF25:
 5238 02bd 426C6F63 		.ascii	"BlockCurrent_1\000"
 5238      6B437572 
 5238      72656E74 
 5238      5F3100
 5239              	.LASF26:
 5240 02cc 426C6F63 		.ascii	"BlockCurrent_2\000"
 5240      6B437572 
 5240      72656E74 
 5240      5F3200
 5241              	.LASF27:
 5242 02db 426C6F63 		.ascii	"BlockCurrent_3\000"
ARM GAS  C:\Users\MARTHN~1\AppData\Local\Temp\cc9i6CHj.s 			page 112


 5242      6B437572 
 5242      72656E74 
 5242      5F3300
 5243              	.LASF28:
 5244 02ea 426C6F63 		.ascii	"BlockCurrent_4\000"
 5244      6B437572 
 5244      72656E74 
 5244      5F3400
 5245              	.LASF243:
 5246 02f9 43544553 		.ascii	"CTEST_RTEST_QUAD\000"
 5246      545F5254 
 5246      4553545F 
 5246      51554144 
 5246      00
 5247              	.LASF94:
 5248 030a 53637265 		.ascii	"ScreenBrightness\000"
 5248      656E4272 
 5248      69676874 
 5248      6E657373 
 5248      00
 5249              	.LASF323:
 5250 031b 70547850 		.ascii	"pTxPacket_Quad\000"
 5250      61636B65 
 5250      745F5175 
 5250      616400
 5251              	.LASF108:
 5252 032a 4475616C 		.ascii	"DualDelay\000"
 5252      44656C61 
 5252      7900
 5253              	.LASF257:
 5254 0334 43544553 		.ascii	"CTEST_OBDII_TX\000"
 5254      545F4F42 
 5254      4449495F 
 5254      545800
 5255              	.LASF272:
 5256 0343 494E4954 		.ascii	"INITIALIZE_TEST\000"
 5256      49414C49 
 5256      5A455F54 
 5256      45535400 
 5257              	.LASF80:
 5258 0353 4C45445F 		.ascii	"LED_04_R\000"
 5258      30345F52 
 5258      00
 5259              	.LASF181:
 5260 035c 4C533630 		.ascii	"LS600_Module2\000"
 5260      305F4D6F 
 5260      64756C65 
 5260      3200
 5261              	.LASF182:
 5262 036a 4C533630 		.ascii	"LS600_Module3\000"
 5262      305F4D6F 
 5262      64756C65 
 5262      3300
 5263              	.LASF183:
 5264 0378 4C533630 		.ascii	"LS600_Module4\000"
 5264      305F4D6F 
 5264      64756C65 
ARM GAS  C:\Users\MARTHN~1\AppData\Local\Temp\cc9i6CHj.s 			page 113


 5264      3400
 5265              	.LASF184:
 5266 0386 4C533630 		.ascii	"LS600_Module5\000"
 5266      305F4D6F 
 5266      64756C65 
 5266      3500
 5267              	.LASF4:
 5268 0394 6C6F6E67 		.ascii	"long int\000"
 5268      20696E74 
 5268      00
 5269              	.LASF186:
 5270 039d 4C533630 		.ascii	"LS600_Module7\000"
 5270      305F4D6F 
 5270      64756C65 
 5270      3700
 5271              	.LASF187:
 5272 03ab 4C533630 		.ascii	"LS600_Module8\000"
 5272      305F4D6F 
 5272      64756C65 
 5272      3800
 5273              	.LASF188:
 5274 03b9 4C533630 		.ascii	"LS600_Module9\000"
 5274      305F4D6F 
 5274      64756C65 
 5274      3900
 5275              	.LASF285:
 5276 03c7 74657374 		.ascii	"testval\000"
 5276      76616C00 
 5277              	.LASF99:
 5278 03cf 57697265 		.ascii	"WireActivation1\000"
 5278      41637469 
 5278      76617469 
 5278      6F6E3100 
 5279              	.LASF100:
 5280 03df 57697265 		.ascii	"WireActivation2\000"
 5280      41637469 
 5280      76617469 
 5280      6F6E3200 
 5281              	.LASF101:
 5282 03ef 57697265 		.ascii	"WireActivation3\000"
 5282      41637469 
 5282      76617469 
 5282      6F6E3300 
 5283              	.LASF180:
 5284 03ff 534D5F5A 		.ascii	"SM_ZoneAddress\000"
 5284      6F6E6541 
 5284      64647265 
 5284      737300
 5285              	.LASF326:
 5286 040e 52546573 		.ascii	"RTest_TimeoutCount\000"
 5286      745F5469 
 5286      6D656F75 
 5286      74436F75 
 5286      6E7400
 5287              	.LASF64:
 5288 0421 4C45445F 		.ascii	"LED_10_B\000"
 5288      31305F42 
ARM GAS  C:\Users\MARTHN~1\AppData\Local\Temp\cc9i6CHj.s 			page 114


 5288      00
 5289              	.LASF63:
 5290 042a 4C45445F 		.ascii	"LED_10_G\000"
 5290      31305F47 
 5290      00
 5291              	.LASF49:
 5292 0433 4C45445F 		.ascii	"LED_15_B\000"
 5292      31355F42 
 5292      00
 5293              	.LASF48:
 5294 043c 4C45445F 		.ascii	"LED_15_G\000"
 5294      31355F47 
 5294      00
 5295              	.LASF128:
 5296 0445 72784461 		.ascii	"rxData_Quad\000"
 5296      74615F51 
 5296      75616400 
 5297              	.LASF47:
 5298 0451 4C45445F 		.ascii	"LED_15_R\000"
 5298      31355F52 
 5298      00
 5299              	.LASF112:
 5300 045a 52656C61 		.ascii	"Relay_PacketType\000"
 5300      795F5061 
 5300      636B6574 
 5300      54797065 
 5300      00
 5301              	.LASF0:
 5302 046b 7369676E 		.ascii	"signed char\000"
 5302      65642063 
 5302      68617200 
 5303              	.LASF299:
 5304 0477 67657454 		.ascii	"getTxPacket_H\000"
 5304      78506163 
 5304      6B65745F 
 5304      4800
 5305              	.LASF209:
 5306 0485 52656172 		.ascii	"RearILB_Module10\000"
 5306      494C425F 
 5306      4D6F6475 
 5306      6C653130 
 5306      00
 5307              	.LASF127:
 5308 0496 5061636B 		.ascii	"Packet_H\000"
 5308      65745F48 
 5308      00
 5309              	.LASF39:
 5310 049f 63686563 		.ascii	"checkSum\000"
 5310      6B53756D 
 5310      00
 5311              	.LASF41:
 5312 04a8 5061796C 		.ascii	"Payload\000"
 5312      6F616400 
 5313              	.LASF318:
 5314 04b0 74785061 		.ascii	"txPacket_H\000"
 5314      636B6574 
 5314      5F4800
ARM GAS  C:\Users\MARTHN~1\AppData\Local\Temp\cc9i6CHj.s 			page 115


 5315              	.LASF1:
 5316 04bb 756E7369 		.ascii	"unsigned char\000"
 5316      676E6564 
 5316      20636861 
 5316      7200
 5317              	.LASF105:
 5318 04c9 53697265 		.ascii	"Siren_PacketType\000"
 5318      6E5F5061 
 5318      636B6574 
 5318      54797065 
 5318      00
 5319              	.LASF264:
 5320 04da 53544553 		.ascii	"STEST_RELAY\000"
 5320      545F5245 
 5320      4C415900 
 5321              	.LASF333:
 5322 04e6 433A5C55 		.ascii	"C:\\Users\\marthnick\\Desktop\\firm_F1-TestFixture\\"
 5322      73657273 
 5322      5C6D6172 
 5322      74686E69 
 5322      636B5C44 
 5323 0515 46312D54 		.ascii	"F1-TestFixture.cydsn\000"
 5323      65737446 
 5323      69787475 
 5323      72652E63 
 5323      7964736E 
 5324              	.LASF202:
 5325 052a 52656172 		.ascii	"RearILB_Module3\000"
 5325      494C425F 
 5325      4D6F6475 
 5325      6C653300 
 5326              	.LASF40:
 5327 053a 62797465 		.ascii	"bytes\000"
 5327      7300
 5328              	.LASF16:
 5329 0540 63686172 		.ascii	"char\000"
 5329      00
 5330              	.LASF113:
 5331 0545 4F757470 		.ascii	"Outputs_1to8\000"
 5331      7574735F 
 5331      31746F38 
 5331      00
 5332              	.LASF85:
 5333 0552 4C45445F 		.ascii	"LED_03_B\000"
 5333      30335F42 
 5333      00
 5334              	.LASF84:
 5335 055b 4C45445F 		.ascii	"LED_03_G\000"
 5335      30335F47 
 5335      00
 5336              	.LASF114:
 5337 0564 4F757470 		.ascii	"Outputs_9to16\000"
 5337      7574735F 
 5337      39746F31 
 5337      3600
 5338              	.LASF70:
 5339 0572 4C45445F 		.ascii	"LED_08_B\000"
ARM GAS  C:\Users\MARTHN~1\AppData\Local\Temp\cc9i6CHj.s 			page 116


 5339      30385F42 
 5339      00
 5340              	.LASF69:
 5341 057b 4C45445F 		.ascii	"LED_08_G\000"
 5341      30385F47 
 5341      00
 5342              	.LASF68:
 5343 0584 4C45445F 		.ascii	"LED_08_R\000"
 5343      30385F52 
 5343      00
 5344              	.LASF317:
 5345 058d 70547850 		.ascii	"pTxPacket_RelaySiren\000"
 5345      61636B65 
 5345      745F5265 
 5345      6C617953 
 5345      6972656E 
 5346              	.LASF313:
 5347 05a2 53657452 		.ascii	"SetRelayInputs\000"
 5347      656C6179 
 5347      496E7075 
 5347      747300
 5348              	.LASF278:
 5349 05b1 494E5055 		.ascii	"INPUTS\000"
 5349      545300
 5350              	.LASF248:
 5351 05b8 52544553 		.ascii	"RTEST_QUAD_1\000"
 5351      545F5155 
 5351      41445F31 
 5351      00
 5352              	.LASF249:
 5353 05c5 52544553 		.ascii	"RTEST_QUAD_2\000"
 5353      545F5155 
 5353      41445F32 
 5353      00
 5354              	.LASF250:
 5355 05d2 52544553 		.ascii	"RTEST_QUAD_3\000"
 5355      545F5155 
 5355      41445F33 
 5355      00
 5356              	.LASF251:
 5357 05df 52544553 		.ascii	"RTEST_QUAD_4\000"
 5357      545F5155 
 5357      41445F34 
 5357      00
 5358              	.LASF252:
 5359 05ec 52544553 		.ascii	"RTEST_QUAD_5\000"
 5359      545F5155 
 5359      41445F35 
 5359      00
 5360              	.LASF253:
 5361 05f9 52544553 		.ascii	"RTEST_QUAD_6\000"
 5361      545F5155 
 5361      41445F36 
 5361      00
 5362              	.LASF254:
 5363 0606 52544553 		.ascii	"RTEST_QUAD_7\000"
 5363      545F5155 
ARM GAS  C:\Users\MARTHN~1\AppData\Local\Temp\cc9i6CHj.s 			page 117


 5363      41445F37 
 5363      00
 5364              	.LASF255:
 5365 0613 52544553 		.ascii	"RTEST_QUAD_8\000"
 5365      545F5155 
 5365      41445F38 
 5365      00
 5366              	.LASF104:
 5367 0620 53746172 		.ascii	"StartByte1_Siren\000"
 5367      74427974 
 5367      65315F53 
 5367      6972656E 
 5367      00
 5368              	.LASF88:
 5369 0631 4C45445F 		.ascii	"LED_02_B\000"
 5369      30325F42 
 5369      00
 5370              	.LASF244:
 5371 063a 44415441 		.ascii	"DATA_TYPE_460800\000"
 5371      5F545950 
 5371      455F3436 
 5371      30383030 
 5371      00
 5372              	.LASF30:
 5373 064b 53706561 		.ascii	"Speaker1_Overcurrent\000"
 5373      6B657231 
 5373      5F4F7665 
 5373      72637572 
 5373      72656E74 
 5374              	.LASF86:
 5375 0660 4C45445F 		.ascii	"LED_02_R\000"
 5375      30325F52 
 5375      00
 5376              	.LASF288:
 5377 0669 52546573 		.ascii	"RTest_Test_DataLink\000"
 5377      745F5465 
 5377      73745F44 
 5377      6174614C 
 5377      696E6B00 
 5378              	.LASF281:
 5379 067d 50415353 		.ascii	"PASS\000"
 5379      00
 5380              	.LASF284:
 5381 0682 4F757470 		.ascii	"OutputsState\000"
 5381      75747353 
 5381      74617465 
 5381      00
 5382              	.LASF294:
 5383 068f 426C6F63 		.ascii	"BlockCurrentPass\000"
 5383      6B437572 
 5383      72656E74 
 5383      50617373 
 5383      00
 5384              	.LASF103:
 5385 06a0 53746F70 		.ascii	"StopByte2_FLB\000"
 5385      42797465 
 5385      325F464C 
ARM GAS  C:\Users\MARTHN~1\AppData\Local\Temp\cc9i6CHj.s 			page 118


 5385      4200
 5386              	.LASF139:
 5387 06ae 464C425F 		.ascii	"FLB_Module10\000"
 5387      4D6F6475 
 5387      6C653130 
 5387      00
 5388              	.LASF140:
 5389 06bb 464C425F 		.ascii	"FLB_Module11\000"
 5389      4D6F6475 
 5389      6C653131 
 5389      00
 5390              	.LASF141:
 5391 06c8 464C425F 		.ascii	"FLB_Module12\000"
 5391      4D6F6475 
 5391      6C653132 
 5391      00
 5392              	.LASF142:
 5393 06d5 464C425F 		.ascii	"FLB_Module13\000"
 5393      4D6F6475 
 5393      6C653133 
 5393      00
 5394              	.LASF143:
 5395 06e2 464C425F 		.ascii	"FLB_Module14\000"
 5395      4D6F6475 
 5395      6C653134 
 5395      00
 5396              	.LASF144:
 5397 06ef 464C425F 		.ascii	"FLB_Module15\000"
 5397      4D6F6475 
 5397      6C653135 
 5397      00
 5398              	.LASF145:
 5399 06fc 464C425F 		.ascii	"FLB_Module16\000"
 5399      4D6F6475 
 5399      6C653136 
 5399      00
 5400              	.LASF146:
 5401 0709 464C425F 		.ascii	"FLB_Module17\000"
 5401      4D6F6475 
 5401      6C653137 
 5401      00
 5402              	.LASF147:
 5403 0716 464C425F 		.ascii	"FLB_Module18\000"
 5403      4D6F6475 
 5403      6C653138 
 5403      00
 5404              	.LASF148:
 5405 0723 464C425F 		.ascii	"FLB_Module19\000"
 5405      4D6F6475 
 5405      6C653139 
 5405      00
 5406              	.LASF308:
 5407 0730 53657452 		.ascii	"SetRelayOutputs\000"
 5407      656C6179 
 5407      4F757470 
 5407      75747300 
 5408              	.LASF98:
ARM GAS  C:\Users\MARTHN~1\AppData\Local\Temp\cc9i6CHj.s 			page 119


 5409 0740 464C425F 		.ascii	"FLB_PacketType\000"
 5409      5061636B 
 5409      65745479 
 5409      706500
 5410              	.LASF61:
 5411 074f 4C45445F 		.ascii	"LED_11_B\000"
 5411      31315F42 
 5411      00
 5412              	.LASF110:
 5413 0758 53746F70 		.ascii	"StopByte2_Siren\000"
 5413      42797465 
 5413      325F5369 
 5413      72656E00 
 5414              	.LASF60:
 5415 0768 4C45445F 		.ascii	"LED_11_G\000"
 5415      31315F47 
 5415      00
 5416              	.LASF46:
 5417 0771 4C45445F 		.ascii	"LED_16_B\000"
 5417      31365F42 
 5417      00
 5418              	.LASF45:
 5419 077a 4C45445F 		.ascii	"LED_16_G\000"
 5419      31365F47 
 5419      00
 5420              	.LASF316:
 5421 0783 70527850 		.ascii	"pRxPacket_RelaySiren\000"
 5421      61636B65 
 5421      745F5265 
 5421      6C617953 
 5421      6972656E 
 5422              	.LASF44:
 5423 0798 4C45445F 		.ascii	"LED_16_R\000"
 5423      31365F52 
 5423      00
 5424              	.LASF290:
 5425 07a1 52546573 		.ascii	"RTest_Test_Inputs\000"
 5425      745F5465 
 5425      73745F49 
 5425      6E707574 
 5425      7300
 5426              	.LASF149:
 5427 07b3 464C425F 		.ascii	"FLB_Module20\000"
 5427      4D6F6475 
 5427      6C653230 
 5427      00
 5428              	.LASF150:
 5429 07c0 464C425F 		.ascii	"FLB_Module21\000"
 5429      4D6F6475 
 5429      6C653231 
 5429      00
 5430              	.LASF151:
 5431 07cd 464C425F 		.ascii	"FLB_Module22\000"
 5431      4D6F6475 
 5431      6C653232 
 5431      00
 5432              	.LASF152:
ARM GAS  C:\Users\MARTHN~1\AppData\Local\Temp\cc9i6CHj.s 			page 120


 5433 07da 464C425F 		.ascii	"FLB_Module23\000"
 5433      4D6F6475 
 5433      6C653233 
 5433      00
 5434              	.LASF153:
 5435 07e7 464C425F 		.ascii	"FLB_Module24\000"
 5435      4D6F6475 
 5435      6C653234 
 5435      00
 5436              	.LASF154:
 5437 07f4 464C425F 		.ascii	"FLB_Module25\000"
 5437      4D6F6475 
 5437      6C653235 
 5437      00
 5438              	.LASF155:
 5439 0801 464C425F 		.ascii	"FLB_Module26\000"
 5439      4D6F6475 
 5439      6C653236 
 5439      00
 5440              	.LASF156:
 5441 080e 464C425F 		.ascii	"FLB_Module27\000"
 5441      4D6F6475 
 5441      6C653237 
 5441      00
 5442              	.LASF157:
 5443 081b 464C425F 		.ascii	"FLB_Module28\000"
 5443      4D6F6475 
 5443      6C653238 
 5443      00
 5444              	.LASF158:
 5445 0828 464C425F 		.ascii	"FLB_Module29\000"
 5445      4D6F6475 
 5445      6C653239 
 5445      00
 5446              	.LASF210:
 5447 0835 526F636B 		.ascii	"RockLeft_Module1\000"
 5447      4C656674 
 5447      5F4D6F64 
 5447      756C6531 
 5447      00
 5448              	.LASF211:
 5449 0846 526F636B 		.ascii	"RockLeft_Module2\000"
 5449      4C656674 
 5449      5F4D6F64 
 5449      756C6532 
 5449      00
 5450              	.LASF212:
 5451 0857 526F636B 		.ascii	"RockLeft_Module3\000"
 5451      4C656674 
 5451      5F4D6F64 
 5451      756C6533 
 5451      00
 5452              	.LASF213:
 5453 0868 526F636B 		.ascii	"RockLeft_Module4\000"
 5453      4C656674 
 5453      5F4D6F64 
 5453      756C6534 
ARM GAS  C:\Users\MARTHN~1\AppData\Local\Temp\cc9i6CHj.s 			page 121


 5453      00
 5454              	.LASF214:
 5455 0879 526F636B 		.ascii	"RockLeft_Module5\000"
 5455      4C656674 
 5455      5F4D6F64 
 5455      756C6535 
 5455      00
 5456              	.LASF215:
 5457 088a 526F636B 		.ascii	"RockLeft_Module6\000"
 5457      4C656674 
 5457      5F4D6F64 
 5457      756C6536 
 5457      00
 5458              	.LASF216:
 5459 089b 526F636B 		.ascii	"RockLeft_Module7\000"
 5459      4C656674 
 5459      5F4D6F64 
 5459      756C6537 
 5459      00
 5460              	.LASF217:
 5461 08ac 526F636B 		.ascii	"RockLeft_Module8\000"
 5461      4C656674 
 5461      5F4D6F64 
 5461      756C6538 
 5461      00
 5462              	.LASF218:
 5463 08bd 526F636B 		.ascii	"RockLeft_Module9\000"
 5463      4C656674 
 5463      5F4D6F64 
 5463      756C6539 
 5463      00
 5464              	.LASF266:
 5465 08ce 52544553 		.ascii	"RTEST_DLINK\000"
 5465      545F444C 
 5465      494E4B00 
 5466              	.LASF5:
 5467 08da 6C6F6E67 		.ascii	"long unsigned int\000"
 5467      20756E73 
 5467      69676E65 
 5467      6420696E 
 5467      7400
 5468              	.LASF19:
 5469 08ec 53656C65 		.ascii	"SelectedTest\000"
 5469      63746564 
 5469      54657374 
 5469      00
 5470              	.LASF286:
 5471 08f9 6368616E 		.ascii	"channel\000"
 5471      6E656C00 
 5472              	.LASF159:
 5473 0901 464C425F 		.ascii	"FLB_Module30\000"
 5473      4D6F6475 
 5473      6C653330 
 5473      00
 5474              	.LASF107:
 5475 090e 53697265 		.ascii	"Siren2Tone\000"
 5475      6E32546F 
ARM GAS  C:\Users\MARTHN~1\AppData\Local\Temp\cc9i6CHj.s 			page 122


 5475      6E6500
 5476              	.LASF171:
 5477 0919 46726F6E 		.ascii	"FrontILB_Module2\000"
 5477      74494C42 
 5477      5F4D6F64 
 5477      756C6532 
 5477      00
 5478              	.LASF172:
 5479 092a 46726F6E 		.ascii	"FrontILB_Module3\000"
 5479      74494C42 
 5479      5F4D6F64 
 5479      756C6533 
 5479      00
 5480              	.LASF173:
 5481 093b 46726F6E 		.ascii	"FrontILB_Module4\000"
 5481      74494C42 
 5481      5F4D6F64 
 5481      756C6534 
 5481      00
 5482              	.LASF174:
 5483 094c 46726F6E 		.ascii	"FrontILB_Module5\000"
 5483      74494C42 
 5483      5F4D6F64 
 5483      756C6535 
 5483      00
 5484              	.LASF175:
 5485 095d 46726F6E 		.ascii	"FrontILB_Module6\000"
 5485      74494C42 
 5485      5F4D6F64 
 5485      756C6536 
 5485      00
 5486              	.LASF176:
 5487 096e 46726F6E 		.ascii	"FrontILB_Module7\000"
 5487      74494C42 
 5487      5F4D6F64 
 5487      756C6537 
 5487      00
 5488              	.LASF177:
 5489 097f 46726F6E 		.ascii	"FrontILB_Module8\000"
 5489      74494C42 
 5489      5F4D6F64 
 5489      756C6538 
 5489      00
 5490              	.LASF178:
 5491 0990 46726F6E 		.ascii	"FrontILB_Module9\000"
 5491      74494C42 
 5491      5F4D6F64 
 5491      756C6539 
 5491      00
 5492              	.LASF303:
 5493 09a1 43757272 		.ascii	"Current_Reading\000"
 5493      656E745F 
 5493      52656164 
 5493      696E6700 
 5494              	.LASF270:
 5495 09b1 43544553 		.ascii	"CTEST_USB_DEBUG\000"
 5495      545F5553 
ARM GAS  C:\Users\MARTHN~1\AppData\Local\Temp\cc9i6CHj.s 			page 123


 5495      425F4445 
 5495      42554700 
 5496              	.LASF331:
 5497 09c1 474E5520 		.ascii	"GNU C11 5.4.1 20160609 (release) [ARM/embedded-5-br"
 5497      43313120 
 5497      352E342E 
 5497      31203230 
 5497      31363036 
 5498 09f4 616E6368 		.ascii	"anch revision 237715] -mcpu=cortex-m3 -mthumb -g -O"
 5498      20726576 
 5498      6973696F 
 5498      6E203233 
 5498      37373135 
 5499 0a27 30202D66 		.ascii	"0 -ffunction-sections -ffat-lto-objects\000"
 5499      66756E63 
 5499      74696F6E 
 5499      2D736563 
 5499      74696F6E 
 5500              	.LASF20:
 5501 0a4f 54657374 		.ascii	"TestStep\000"
 5501      53746570 
 5501      00
 5502              	.LASF279:
 5503 0a58 56424154 		.ascii	"VBATT\000"
 5503      5400
 5504              	.LASF82:
 5505 0a5e 4C45445F 		.ascii	"LED_04_B\000"
 5505      30345F42 
 5505      00
 5506              	.LASF21:
 5507 0a67 53746174 		.ascii	"Status\000"
 5507      757300
 5508              	.LASF81:
 5509 0a6e 4C45445F 		.ascii	"LED_04_G\000"
 5509      30345F47 
 5509      00
 5510              	.LASF67:
 5511 0a77 4C45445F 		.ascii	"LED_09_B\000"
 5511      30395F42 
 5511      00
 5512              	.LASF66:
 5513 0a80 4C45445F 		.ascii	"LED_09_G\000"
 5513      30395F47 
 5513      00
 5514              	.LASF6:
 5515 0a89 6C6F6E67 		.ascii	"long long int\000"
 5515      206C6F6E 
 5515      6720696E 
 5515      7400
 5516              	.LASF65:
 5517 0a97 4C45445F 		.ascii	"LED_09_R\000"
 5517      30395F52 
 5517      00
 5518              	.LASF119:
 5519 0aa0 53697265 		.ascii	"SirenEnable\000"
 5519      6E456E61 
 5519      626C6500 
ARM GAS  C:\Users\MARTHN~1\AppData\Local\Temp\cc9i6CHj.s 			page 124


 5520              	.LASF102:
 5521 0aac 53746F70 		.ascii	"StopByte1_FLB\000"
 5521      42797465 
 5521      315F464C 
 5521      4200
 5522              	.LASF310:
 5523 0aba 656E6162 		.ascii	"enable\000"
 5523      6C6500
 5524              	.LASF15:
 5525 0ac1 646F7562 		.ascii	"double\000"
 5525      6C6500
 5526              	.LASF291:
 5527 0ac8 52546573 		.ascii	"RTest_Test_Vbatt\000"
 5527      745F5465 
 5527      73745F56 
 5527      62617474 
 5527      00
 5528              	.LASF258:
 5529 0ad9 52544553 		.ascii	"RTEST_QUAD_TX\000"
 5529      545F5155 
 5529      41445F54 
 5529      5800
 5530              	.LASF185:
 5531 0ae7 4C533630 		.ascii	"LS600_Module6\000"
 5531      305F4D6F 
 5531      64756C65 
 5531      3600
 5532              	.LASF328:
 5533 0af5 49544D5F 		.ascii	"ITM_RxBuffer\000"
 5533      52784275 
 5533      66666572 
 5533      00
 5534              	.LASF14:
 5535 0b02 666C6F61 		.ascii	"float\000"
 5535      7400
 5536              	.LASF276:
 5537 0b08 51554144 		.ascii	"QUAD_PORTS\000"
 5537      5F504F52 
 5537      545300
 5538              	.LASF23:
 5539 0b13 73747275 		.ascii	"structTestInfo\000"
 5539      63745465 
 5539      7374496E 
 5539      666F00
 5540              	.LASF8:
 5541 0b22 756E7369 		.ascii	"unsigned int\000"
 5541      676E6564 
 5541      20696E74 
 5541      00
 5542              	.LASF33:
 5543 0b2f 53697265 		.ascii	"SirenFirm_0\000"
 5543      6E466972 
 5543      6D5F3000 
 5544              	.LASF34:
 5545 0b3b 53697265 		.ascii	"SirenFirm_1\000"
 5545      6E466972 
 5545      6D5F3100 
ARM GAS  C:\Users\MARTHN~1\AppData\Local\Temp\cc9i6CHj.s 			page 125


 5546              	.LASF35:
 5547 0b47 53697265 		.ascii	"SirenFirm_2\000"
 5547      6E466972 
 5547      6D5F3200 
 5548              	.LASF320:
 5549 0b53 72785061 		.ascii	"rxPacket_H\000"
 5549      636B6574 
 5549      5F4800
 5550              	.LASF58:
 5551 0b5e 4C45445F 		.ascii	"LED_12_B\000"
 5551      31325F42 
 5551      00
 5552              	.LASF259:
 5553 0b67 53544553 		.ascii	"STEST_AUDIO_TX\000"
 5553      545F4155 
 5553      44494F5F 
 5553      545800
 5554              	.LASF57:
 5555 0b76 4C45445F 		.ascii	"LED_12_G\000"
 5555      31325F47 
 5555      00
 5556              	.LASF165:
 5557 0b7f 4C533430 		.ascii	"LS400_Module6\000"
 5557      305F4D6F 
 5557      64756C65 
 5557      3600
 5558              	.LASF56:
 5559 0b8d 4C45445F 		.ascii	"LED_12_R\000"
 5559      31325F52 
 5559      00
 5560              	.LASF106:
 5561 0b96 53697265 		.ascii	"Siren1Tone\000"
 5561      6E31546F 
 5561      6E6500
 5562              	.LASF96:
 5563 0ba1 636F6E74 		.ascii	"controllerPowerState\000"
 5563      726F6C6C 
 5563      6572506F 
 5563      77657253 
 5563      74617465 
 5564              	.LASF309:
 5565 0bb6 626C6F63 		.ascii	"block\000"
 5565      6B00
 5566              	.LASF267:
 5567 0bbc 4D55585F 		.ascii	"MUX_115200_CHANNEL\000"
 5567      31313532 
 5567      30305F43 
 5567      48414E4E 
 5567      454C00
 5568              	.LASF29:
 5569 0bcf 566F6C74 		.ascii	"Voltage_BATT\000"
 5569      6167655F 
 5569      42415454 
 5569      00
 5570              	.LASF117:
 5571 0bdc 48694C6F 		.ascii	"HiLoInputLogic\000"
 5571      496E7075 
ARM GAS  C:\Users\MARTHN~1\AppData\Local\Temp\cc9i6CHj.s 			page 126


 5571      744C6F67 
 5571      696300
 5572              	.LASF17:
 5573 0beb 6C6F6E67 		.ascii	"long double\000"
 5573      20646F75 
 5573      626C6500 
 5574              	.LASF319:
 5575 0bf7 70547850 		.ascii	"pTxPacket_H\000"
 5575      61636B65 
 5575      745F4800 
 5576              	.LASF256:
 5577 0c03 44454D55 		.ascii	"DEMUX_460800_CHANNEL\000"
 5577      585F3436 
 5577      30383030 
 5577      5F434841 
 5577      4E4E454C 
 5578              	.LASF330:
 5579 0c18 43757272 		.ascii	"CurrentTest\000"
 5579      656E7454 
 5579      65737400 
 5580              	.LASF62:
 5581 0c24 4C45445F 		.ascii	"LED_10_R\000"
 5581      31305F52 
 5581      00
 5582              	.LASF240:
 5583 0c2d 72785061 		.ascii	"rxPacket_Quad\000"
 5583      636B6574 
 5583      5F517561 
 5583      6400
 5584              	.LASF160:
 5585 0c3b 534D5F5A 		.ascii	"SM_Zone1\000"
 5585      6F6E6531 
 5585      00
 5586              	.LASF161:
 5587 0c44 534D5F5A 		.ascii	"SM_Zone2\000"
 5587      6F6E6532 
 5587      00
 5588              	.LASF162:
 5589 0c4d 534D5F5A 		.ascii	"SM_Zone3\000"
 5589      6F6E6533 
 5589      00
 5590              	.LASF167:
 5591 0c56 534D5F5A 		.ascii	"SM_Zone4\000"
 5591      6F6E6534 
 5591      00
 5592              	.LASF168:
 5593 0c5f 534D5F5A 		.ascii	"SM_Zone5\000"
 5593      6F6E6535 
 5593      00
 5594              	.LASF169:
 5595 0c68 534D5F5A 		.ascii	"SM_Zone6\000"
 5595      6F6E6536 
 5595      00
 5596              	.LASF170:
 5597 0c71 534D5F5A 		.ascii	"SM_Zone7\000"
 5597      6F6E6537 
 5597      00
ARM GAS  C:\Users\MARTHN~1\AppData\Local\Temp\cc9i6CHj.s 			page 127


 5598              	.LASF179:
 5599 0c7a 534D5F5A 		.ascii	"SM_Zone8\000"
 5599      6F6E6538 
 5599      00
 5600              	.LASF329:
 5601 0c83 54657374 		.ascii	"Test\000"
 5601      00
 5602              	.LASF271:
 5603 0c88 44494147 		.ascii	"DIAG_UART_RX\000"
 5603      5F554152 
 5603      545F5258 
 5603      00
 5604              	.LASF79:
 5605 0c95 4C45445F 		.ascii	"LED_05_B\000"
 5605      30355F42 
 5605      00
 5606              	.LASF78:
 5607 0c9e 4C45445F 		.ascii	"LED_05_G\000"
 5607      30355F47 
 5607      00
 5608              	.LASF123:
 5609 0ca7 74785061 		.ascii	"txPacket_RelaySiren\000"
 5609      636B6574 
 5609      5F52656C 
 5609      61795369 
 5609      72656E00 
 5610              	.LASF7:
 5611 0cbb 6C6F6E67 		.ascii	"long long unsigned int\000"
 5611      206C6F6E 
 5611      6720756E 
 5611      7369676E 
 5611      65642069 
 5612              	.LASF77:
 5613 0cd2 4C45445F 		.ascii	"LED_05_R\000"
 5613      30355F52 
 5613      00
 5614              	.LASF273:
 5615 0cdb 53495245 		.ascii	"SIREN_EN\000"
 5615      4E5F454E 
 5615      00
 5616              	.LASF32:
 5617 0ce4 52656C61 		.ascii	"RelayInputs\000"
 5617      79496E70 
 5617      75747300 
 5618              	.LASF246:
 5619 0cf0 43544553 		.ascii	"CTEST_QUAD\000"
 5619      545F5155 
 5619      414400
 5620              	.LASF293:
 5621 0cfb 52546573 		.ascii	"RTest_Test_BlockCurrents\000"
 5621      745F5465 
 5621      73745F42 
 5621      6C6F636B 
 5621      43757272 
 5622              	.LASF265:
 5623 0d14 44415441 		.ascii	"DATATYPE_115200\000"
 5623      54595045 
ARM GAS  C:\Users\MARTHN~1\AppData\Local\Temp\cc9i6CHj.s 			page 128


 5623      5F313135 
 5623      32303000 
 5624              	.LASF220:
 5625 0d24 526F636B 		.ascii	"RockRight_Module1\000"
 5625      52696768 
 5625      745F4D6F 
 5625      64756C65 
 5625      3100
 5626              	.LASF221:
 5627 0d36 526F636B 		.ascii	"RockRight_Module2\000"
 5627      52696768 
 5627      745F4D6F 
 5627      64756C65 
 5627      3200
 5628              	.LASF222:
 5629 0d48 526F636B 		.ascii	"RockRight_Module3\000"
 5629      52696768 
 5629      745F4D6F 
 5629      64756C65 
 5629      3300
 5630              	.LASF223:
 5631 0d5a 526F636B 		.ascii	"RockRight_Module4\000"
 5631      52696768 
 5631      745F4D6F 
 5631      64756C65 
 5631      3400
 5632              	.LASF224:
 5633 0d6c 526F636B 		.ascii	"RockRight_Module5\000"
 5633      52696768 
 5633      745F4D6F 
 5633      64756C65 
 5633      3500
 5634              	.LASF225:
 5635 0d7e 526F636B 		.ascii	"RockRight_Module6\000"
 5635      52696768 
 5635      745F4D6F 
 5635      64756C65 
 5635      3600
 5636              	.LASF226:
 5637 0d90 526F636B 		.ascii	"RockRight_Module7\000"
 5637      52696768 
 5637      745F4D6F 
 5637      64756C65 
 5637      3700
 5638              	.LASF227:
 5639 0da2 526F636B 		.ascii	"RockRight_Module8\000"
 5639      52696768 
 5639      745F4D6F 
 5639      64756C65 
 5639      3800
 5640              	.LASF228:
 5641 0db4 526F636B 		.ascii	"RockRight_Module9\000"
 5641      52696768 
 5641      745F4D6F 
 5641      64756C65 
 5641      3900
 5642              	.LASF295:
ARM GAS  C:\Users\MARTHN~1\AppData\Local\Temp\cc9i6CHj.s 			page 129


 5643 0dc6 426C6F63 		.ascii	"BlockCurrentValue\000"
 5643      6B437572 
 5643      72656E74 
 5643      56616C75 
 5643      6500
 5644              	.LASF83:
 5645 0dd8 4C45445F 		.ascii	"LED_03_R\000"
 5645      30335F52 
 5645      00
 5646              	.LASF129:
 5647 0de1 53697A65 		.ascii	"SizeOfPayload\000"
 5647      4F665061 
 5647      796C6F61 
 5647      6400
 5648              	.LASF241:
 5649 0def 52785061 		.ascii	"RxPacket_Quad\000"
 5649      636B6574 
 5649      5F517561 
 5649      6400
 5650              	.LASF124:
 5651 0dfd 54785061 		.ascii	"TxPacket_RelaySiren\000"
 5651      636B6574 
 5651      5F52656C 
 5651      61795369 
 5651      72656E00 
 5652              	.LASF31:
 5653 0e11 53706561 		.ascii	"Speaker2_Overcurrent\000"
 5653      6B657232 
 5653      5F4F7665 
 5653      72637572 
 5653      72656E74 
 5654              	.LASF311:
 5655 0e26 52546573 		.ascii	"RTest_StartAutomatedStep\000"
 5655      745F5374 
 5655      61727441 
 5655      75746F6D 
 5655      61746564 
 5656              	.LASF302:
 5657 0e3f 52546573 		.ascii	"RTest_BlockCurrent\000"
 5657      745F426C 
 5657      6F636B43 
 5657      75727265 
 5657      6E7400
 5658              	.LASF199:
 5659 0e52 4C533830 		.ascii	"LS800_Module10\000"
 5659      305F4D6F 
 5659      64756C65 
 5659      313000
 5660              	.LASF297:
 5661 0e61 67657454 		.ascii	"getTxPacket_RelaySiren\000"
 5661      78506163 
 5661      6B65745F 
 5661      52656C61 
 5661      79536972 
 5662              	.LASF122:
 5663 0e78 72785061 		.ascii	"rxPacket_RelaySiren\000"
 5663      636B6574 
ARM GAS  C:\Users\MARTHN~1\AppData\Local\Temp\cc9i6CHj.s 			page 130


 5663      5F52656C 
 5663      61795369 
 5663      72656E00 
 5664              	.LASF55:
 5665 0e8c 4C45445F 		.ascii	"LED_13_B\000"
 5665      31335F42 
 5665      00
 5666              	.LASF54:
 5667 0e95 4C45445F 		.ascii	"LED_13_G\000"
 5667      31335F47 
 5667      00
 5668              	.LASF200:
 5669 0e9e 52656172 		.ascii	"RearILB_Module1\000"
 5669      494C425F 
 5669      4D6F6475 
 5669      6C653100 
 5670              	.LASF201:
 5671 0eae 52656172 		.ascii	"RearILB_Module2\000"
 5671      494C425F 
 5671      4D6F6475 
 5671      6C653200 
 5672              	.LASF53:
 5673 0ebe 4C45445F 		.ascii	"LED_13_R\000"
 5673      31335F52 
 5673      00
 5674              	.LASF203:
 5675 0ec7 52656172 		.ascii	"RearILB_Module4\000"
 5675      494C425F 
 5675      4D6F6475 
 5675      6C653400 
 5676              	.LASF204:
 5677 0ed7 52656172 		.ascii	"RearILB_Module5\000"
 5677      494C425F 
 5677      4D6F6475 
 5677      6C653500 
 5678              	.LASF205:
 5679 0ee7 52656172 		.ascii	"RearILB_Module6\000"
 5679      494C425F 
 5679      4D6F6475 
 5679      6C653600 
 5680              	.LASF206:
 5681 0ef7 52656172 		.ascii	"RearILB_Module7\000"
 5681      494C425F 
 5681      4D6F6475 
 5681      6C653700 
 5682              	.LASF207:
 5683 0f07 52656172 		.ascii	"RearILB_Module8\000"
 5683      494C425F 
 5683      4D6F6475 
 5683      6C653800 
 5684              	.LASF208:
 5685 0f17 52656172 		.ascii	"RearILB_Module9\000"
 5685      494C425F 
 5685      4D6F6475 
 5685      6C653900 
 5686              	.LASF22:
 5687 0f27 53747275 		.ascii	"StructTestInfo\000"
ARM GAS  C:\Users\MARTHN~1\AppData\Local\Temp\cc9i6CHj.s 			page 131


 5687      63745465 
 5687      7374496E 
 5687      666F00
 5688              	.LASF115:
 5689 0f36 4F757470 		.ascii	"Outputs_17to24\000"
 5689      7574735F 
 5689      3137746F 
 5689      323400
 5690              	.LASF268:
 5691 0f45 52544553 		.ascii	"RTEST_DLINK1\000"
 5691      545F444C 
 5691      494E4B31 
 5691      00
 5692              	.LASF269:
 5693 0f52 52544553 		.ascii	"RTEST_DLINK2\000"
 5693      545F444C 
 5693      494E4B32 
 5693      00
 5694              	.LASF11:
 5695 0f5f 75696E74 		.ascii	"uint8\000"
 5695      3800
 5696              	.LASF275:
 5697 0f65 44415441 		.ascii	"DATALINK\000"
 5697      4C494E4B 
 5697      00
 5698              	.LASF24:
 5699 0f6e 72784461 		.ascii	"rxData_RelaySiren\000"
 5699      74615F52 
 5699      656C6179 
 5699      53697265 
 5699      6E00
 5700              	.LASF133:
 5701 0f80 464C425F 		.ascii	"FLB_Module4\000"
 5701      4D6F6475 
 5701      6C653400 
 5702              	.LASF2:
 5703 0f8c 73686F72 		.ascii	"short int\000"
 5703      7420696E 
 5703      7400
 5704              	.LASF324:
 5705 0f96 52546573 		.ascii	"RTest_20ms_isr_count\000"
 5705      745F3230 
 5705      6D735F69 
 5705      73725F63 
 5705      6F756E74 
 5706              	.LASF289:
 5707 0fab 52546573 		.ascii	"RTest_Test_UART_Siren\000"
 5707      745F5465 
 5707      73745F55 
 5707      4152545F 
 5707      53697265 
 5708              	.LASF262:
 5709 0fc1 52544553 		.ascii	"RTEST_CONT\000"
 5709      545F434F 
 5709      4E5400
 5710              	.LASF42:
 5711 0fcc 52785061 		.ascii	"RxPacket_RelaySiren\000"
ARM GAS  C:\Users\MARTHN~1\AppData\Local\Temp\cc9i6CHj.s 			page 132


 5711      636B6574 
 5711      5F52656C 
 5711      61795369 
 5711      72656E00 
 5712              	.LASF322:
 5713 0fe0 74785061 		.ascii	"txPacket_Quad\000"
 5713      636B6574 
 5713      5F517561 
 5713      6400
 5714              	.LASF307:
 5715 0fee 52546573 		.ascii	"RTest_sendDiagPacket\000"
 5715      745F7365 
 5715      6E644469 
 5715      61675061 
 5715      636B6574 
 5716              	.LASF306:
 5717 1003 52546573 		.ascii	"RTest_50ms_isr\000"
 5717      745F3530 
 5717      6D735F69 
 5717      737200
 5718              	.LASF327:
 5719 1012 52546573 		.ascii	"RTestStatus\000"
 5719      74537461 
 5719      74757300 
 5720              	.LASF332:
 5721 101e 52656C61 		.ascii	"RelayTest.c\000"
 5721      79546573 
 5721      742E6300 
 5722              	.LASF298:
 5723 102a 67657452 		.ascii	"getRxPacket_RelaySiren\000"
 5723      78506163 
 5723      6B65745F 
 5723      52656C61 
 5723      79536972 
 5724              	.LASF283:
 5725 1041 52546573 		.ascii	"RTest_Test_Outputs\000"
 5725      745F5465 
 5725      73745F4F 
 5725      75747075 
 5725      747300
 5726              	.LASF163:
 5727 1054 4C533430 		.ascii	"LS400_Module4\000"
 5727      305F4D6F 
 5727      64756C65 
 5727      3400
 5728              	.LASF164:
 5729 1062 4C533430 		.ascii	"LS400_Module5\000"
 5729      305F4D6F 
 5729      64756C65 
 5729      3500
 5730              	.LASF126:
 5731 1070 7061636B 		.ascii	"packet_H\000"
 5731      65745F48 
 5731      00
 5732              	.LASF166:
 5733 1079 4C533430 		.ascii	"LS400_Module7\000"
 5733      305F4D6F 
ARM GAS  C:\Users\MARTHN~1\AppData\Local\Temp\cc9i6CHj.s 			page 133


 5733      64756C65 
 5733      3700
 5734              	.LASF296:
 5735 1087 67657452 		.ascii	"getRxPacket_Relay\000"
 5735      78506163 
 5735      6B65745F 
 5735      52656C61 
 5735      7900
 5736              	.LASF91:
 5737 1099 4C45445F 		.ascii	"LED_01_B\000"
 5737      30315F42 
 5737      00
 5738              	.LASF90:
 5739 10a2 4C45445F 		.ascii	"LED_01_G\000"
 5739      30315F47 
 5739      00
 5740              	.LASF76:
 5741 10ab 4C45445F 		.ascii	"LED_06_B\000"
 5741      30365F42 
 5741      00
 5742              	.LASF75:
 5743 10b4 4C45445F 		.ascii	"LED_06_G\000"
 5743      30365F47 
 5743      00
 5744              	.LASF300:
 5745 10bd 67657452 		.ascii	"getRxPacket_H\000"
 5745      78506163 
 5745      6B65745F 
 5745      4800
 5746              	.LASF74:
 5747 10cb 4C45445F 		.ascii	"LED_06_R\000"
 5747      30365F52 
 5747      00
 5748              	.LASF43:
 5749 10d4 74784461 		.ascii	"txData\000"
 5749      746100
 5750              	.LASF282:
 5751 10db 52656C61 		.ascii	"RelayTest\000"
 5751      79546573 
 5751      7400
 5752              	.LASF261:
 5753 10e5 43544553 		.ascii	"CTEST_RELAY\000"
 5753      545F5245 
 5753      4C415900 
 5754              	.LASF189:
 5755 10f1 4C533630 		.ascii	"LS600_Module10\000"
 5755      305F4D6F 
 5755      64756C65 
 5755      313000
 5756              	.LASF120:
 5757 1100 53746F70 		.ascii	"StopByte1_Relay\000"
 5757      42797465 
 5757      315F5265 
 5757      6C617900 
 5758              	.LASF247:
 5759 1110 43544553 		.ascii	"CTEST_AUDIOSTREAM\000"
 5759      545F4155 
ARM GAS  C:\Users\MARTHN~1\AppData\Local\Temp\cc9i6CHj.s 			page 134


 5759      44494F53 
 5759      54524541 
 5759      4D00
 5760              	.LASF219:
 5761 1122 526F636B 		.ascii	"RockLeft_Module10\000"
 5761      4C656674 
 5761      5F4D6F64 
 5761      756C6531 
 5761      3000
 5762              	.LASF325:
 5763 1134 52546573 		.ascii	"RTest_20ms_isr_EN\000"
 5763      745F3230 
 5763      6D735F69 
 5763      73725F45 
 5763      4E00
 5764              	.LASF229:
 5765 1146 526F636B 		.ascii	"RockRight_Module10\000"
 5765      52696768 
 5765      745F4D6F 
 5765      64756C65 
 5765      313000
 5766              	.LASF89:
 5767 1159 4C45445F 		.ascii	"LED_01_R\000"
 5767      30315F52 
 5767      00
 5768              	.LASF305:
 5769 1162 52546573 		.ascii	"RTest_20ms_isr\000"
 5769      745F3230 
 5769      6D735F69 
 5769      737200
 5770              	.LASF3:
 5771 1171 73686F72 		.ascii	"short unsigned int\000"
 5771      7420756E 
 5771      7369676E 
 5771      65642069 
 5771      6E7400
 5772              	.LASF242:
 5773 1184 43544553 		.ascii	"CTEST_AUDIO\000"
 5773      545F4155 
 5773      44494F00 
 5774              	.LASF9:
 5775 1190 5F5F696E 		.ascii	"__int32_t\000"
 5775      7433325F 
 5775      7400
 5776              	.LASF121:
 5777 119a 53746F70 		.ascii	"StopByte2_Relay\000"
 5777      42797465 
 5777      325F5265 
 5777      6C617900 
 5778              	.LASF260:
 5779 11aa 4D55585F 		.ascii	"MUX_DEMUX_230400_CHANNEL\000"
 5779      44454D55 
 5779      585F3233 
 5779      30343030 
 5779      5F434841 
 5780              	.LASF314:
 5781 11c3 72785061 		.ascii	"rxPacket_Relay\000"
ARM GAS  C:\Users\MARTHN~1\AppData\Local\Temp\cc9i6CHj.s 			page 135


 5781      636B6574 
 5781      5F52656C 
 5781      617900
 5782              	.LASF304:
 5783 11d2 52546573 		.ascii	"RTest_10ms_isr\000"
 5783      745F3130 
 5783      6D735F69 
 5783      737200
 5784              	.LASF97:
 5785 11e1 53746172 		.ascii	"StartByte_FLB\000"
 5785      74427974 
 5785      655F464C 
 5785      4200
 5786              	.LASF36:
 5787 11ef 52656C61 		.ascii	"RelayFirm_0\000"
 5787      79466972 
 5787      6D5F3000 
 5788              	.LASF37:
 5789 11fb 52656C61 		.ascii	"RelayFirm_1\000"
 5789      79466972 
 5789      6D5F3100 
 5790              	.LASF38:
 5791 1207 52656C61 		.ascii	"RelayFirm_2\000"
 5791      79466972 
 5791      6D5F3200 
 5792              	.LASF12:
 5793 1213 75696E74 		.ascii	"uint16\000"
 5793      313600
 5794              	.LASF52:
 5795 121a 4C45445F 		.ascii	"LED_14_B\000"
 5795      31345F42 
 5795      00
 5796              	.LASF51:
 5797 1223 4C45445F 		.ascii	"LED_14_G\000"
 5797      31345F47 
 5797      00
 5798              	.LASF50:
 5799 122c 4C45445F 		.ascii	"LED_14_R\000"
 5799      31345F52 
 5799      00
 5800              	.LASF277:
 5801 1235 55415254 		.ascii	"UART_SIREN\000"
 5801      5F534952 
 5801      454E00
 5802              	.LASF92:
 5803 1240 42757A7A 		.ascii	"Buzzer_H\000"
 5803      65725F48 
 5803      00
 5804              		.ident	"GCC: (GNU Tools for ARM Embedded Processors) 5.4.1 20160609 (release) [ARM/embedded-5-bran
