ARM GAS  C:\Users\MARTHN~1\AppData\Local\Temp\ccYtCv5j.s 			page 1


   1              		.syntax unified
   2              		.cpu cortex-m3
   3              		.fpu softvfp
   4              		.eabi_attribute 20, 1
   5              		.eabi_attribute 21, 1
   6              		.eabi_attribute 23, 3
   7              		.eabi_attribute 24, 1
   8              		.eabi_attribute 25, 1
   9              		.eabi_attribute 26, 1
  10              		.eabi_attribute 30, 6
  11              		.eabi_attribute 34, 1
  12              		.eabi_attribute 18, 4
  13              		.thumb
  14              		.syntax unified
  15              		.file	"RelayTest.c"
  16              		.text
  17              	.Ltext0:
  18              		.cfi_sections	.debug_frame
  19              		.comm	Test,3,4
  20              		.bss
  21              		.align	2
  22              	rxPacket_Relay:
  23 0000 00000000 		.space	15
  23      00000000 
  23      00000000 
  23      000000
  24 000f 00       		.align	2
  25              	pRxPacket_Relay:
  26 0010 00000000 		.space	4
  27              		.align	2
  28              	rxPacket_RelaySiren:
  29 0014 00000000 		.space	15
  29      00000000 
  29      00000000 
  29      000000
  30 0023 00       		.align	2
  31              	pRxPacket_RelaySiren:
  32 0024 00000000 		.space	4
  33              		.align	2
  34              	txPacket_RelaySiren:
  35 0028 00000000 		.space	79
  35      00000000 
  35      00000000 
  35      00000000 
  35      00000000 
  36 0077 00       		.align	2
  37              	pTxPacket_RelaySiren:
  38 0078 00000000 		.space	4
  39              		.align	2
  40              	txPacket_H:
  41 007c 00000000 		.space	5
  41      00
  42 0081 000000   		.align	2
  43              	pTxPacket_H:
  44 0084 00000000 		.space	4
  45              		.align	2
  46              	rxPacket_H:
ARM GAS  C:\Users\MARTHN~1\AppData\Local\Temp\ccYtCv5j.s 			page 2


  47 0088 00000000 		.space	5
  47      00
  48 008d 000000   		.align	2
  49              	pRxPacket_H:
  50 0090 00000000 		.space	4
  51              		.align	2
  52              	txPacket_Quad:
  53 0094 00000000 		.space	111
  53      00000000 
  53      00000000 
  53      00000000 
  53      00000000 
  54 0103 00       		.align	2
  55              	pTxPacket_Quad:
  56 0104 00000000 		.space	4
  57              		.align	1
  58              	RTest_20ms_isr_count:
  59 0108 0000     		.space	2
  60              		.align	1
  61              	RTest_20ms_isr_EN:
  62 010a 0000     		.space	2
  63              		.align	2
  64              	RTestStatus:
  65 010c 00000000 		.space	18
  65      00000000 
  65      00000000 
  65      00000000 
  65      0000
  66              		.section	.text.RelayTest,"ax",%progbits
  67              		.align	2
  68              		.global	RelayTest
  69              		.thumb
  70              		.thumb_func
  71              		.type	RelayTest, %function
  72              	RelayTest:
  73              	.LFB63:
  74              		.file 1 "RelayTest.c"
   1:RelayTest.c   **** /* ========================================
   2:RelayTest.c   ****  *
   3:RelayTest.c   ****  * Copyright YOUR COMPANY, THE YEAR
   4:RelayTest.c   ****  * All Rights Reserved
   5:RelayTest.c   ****  * UNPUBLISHED, LICENSED SOFTWARE.
   6:RelayTest.c   ****  *
   7:RelayTest.c   ****  * CONFIDENTIAL AND PROPRIETARY INFORMATION
   8:RelayTest.c   ****  * WHICH IS THE PROPERTY OF your company.
   9:RelayTest.c   ****  *
  10:RelayTest.c   ****  * ========================================
  11:RelayTest.c   **** */
  12:RelayTest.c   **** 
  13:RelayTest.c   **** #include <project.h>
  14:RelayTest.c   **** #include "CommonVariables.h"
  15:RelayTest.c   **** #include "RelayTest.h"
  16:RelayTest.c   **** #include "UART_115200_Functions.h"
  17:RelayTest.c   **** #include "UART_230400_Functions.h"
  18:RelayTest.c   **** #include "UART_460800_Functions.h"
  19:RelayTest.c   **** #include "CD4051BPW_Driver.h"
  20:RelayTest.c   **** 
ARM GAS  C:\Users\MARTHN~1\AppData\Local\Temp\ccYtCv5j.s 			page 3


  21:RelayTest.c   **** #define VOLTAGE_SYSTEM      120             // (Voltage * 10)
  22:RelayTest.c   **** #define TOLERANCE_VOLTAGE   5  
  23:RelayTest.c   **** #define CURRENT_LOAD        9              // (ohms)
  24:RelayTest.c   **** #define TOLERANCE_CURRENT   2 
  25:RelayTest.c   **** #define TIMEOUT_FAIL        50              // Number of 20msec counts before failure timeout
  26:RelayTest.c   **** 
  27:RelayTest.c   **** static RxPacket_RelaySiren rxPacket_Relay;          // Inputs - 'D' relay to controller
  28:RelayTest.c   **** static RxPacket_RelaySiren * pRxPacket_Relay;       // UART_SIREN
  29:RelayTest.c   **** static RxPacket_RelaySiren rxPacket_RelaySiren;     // *** these are redundant 'D' packets 
  30:RelayTest.c   **** static RxPacket_RelaySiren * pRxPacket_RelaySiren;  // OVERLOAD
  31:RelayTest.c   **** 
  32:RelayTest.c   **** static TxPacket_RelaySiren txPacket_RelaySiren;         // SetRelayOutputs - 'I' (also 3,S,P) contr
  33:RelayTest.c   **** static TxPacket_RelaySiren * pTxPacket_RelaySiren;      // 
  34:RelayTest.c   **** 
  35:RelayTest.c   **** //static TxPacket_Relay txPacket_Relay;            
  36:RelayTest.c   **** //static TxPacket_Relay * pTxPacket_Relay;
  37:RelayTest.c   **** 
  38:RelayTest.c   **** //static RxPacket_Siren rxPacket_Siren;             // 'S' relay to siren
  39:RelayTest.c   **** //static RxPacket_Siren * pRxPacket_Siren;  
  40:RelayTest.c   **** 
  41:RelayTest.c   **** static Packet_H txPacket_H;          //     Packet 'H'
  42:RelayTest.c   **** static Packet_H * pTxPacket_H;      //
  43:RelayTest.c   **** 
  44:RelayTest.c   **** static Packet_H rxPacket_H;          //     Packet 'H'
  45:RelayTest.c   **** static Packet_H * pRxPacket_H;      //
  46:RelayTest.c   **** 
  47:RelayTest.c   **** static RxPacket_Quad txPacket_Quad;          //*** 
  48:RelayTest.c   **** static RxPacket_Quad * pTxPacket_Quad;      //***
  49:RelayTest.c   **** //RxPacket_Quad * getRxPacket_Quad(void);
  50:RelayTest.c   **** 
  51:RelayTest.c   **** //------------GLOABAL variables--------------------
  52:RelayTest.c   **** 
  53:RelayTest.c   **** //extern uint16 _100ms_flag;
  54:RelayTest.c   **** //uint16 _100ms_flag = 0;
  55:RelayTest.c   **** //uint16 isr_count;
  56:RelayTest.c   **** 
  57:RelayTest.c   **** static uint16 RTest_20ms_isr_count = 0;
  58:RelayTest.c   **** static uint16 RTest_20ms_isr_EN = 0;
  59:RelayTest.c   **** 
  60:RelayTest.c   **** void StartTimeout(void);
  61:RelayTest.c   **** void StopTimeout(void);
  62:RelayTest.c   **** 
  63:RelayTest.c   **** enum DATA_TYPE_460800
  64:RelayTest.c   **** { 
  65:RelayTest.c   ****     CTEST_AUDIO,        // This is for both cont and relay tests
  66:RelayTest.c   ****     CTEST_RTEST_QUAD,   // CTest/RTest - quad normal - (controller to relay, relay to quad)
  67:RelayTest.c   **** //    CTEST_A,            //*** needs to  (*** not used - only need to look for 'L' packet)
  68:RelayTest.c   **** //    QTEST_QUAD          // (*** not used - Quad-Controller packets - type 'C')
  69:RelayTest.c   **** };
  70:RelayTest.c   **** 
  71:RelayTest.c   **** enum MUX_460800_CHANNEL
  72:RelayTest.c   **** { 
  73:RelayTest.c   ****     CTEST_QUAD,       
  74:RelayTest.c   ****     CTEST_AUDIOSTREAM,
  75:RelayTest.c   ****     RTEST_QUAD_1,    
  76:RelayTest.c   ****     RTEST_QUAD_2,
  77:RelayTest.c   ****     RTEST_QUAD_3,
ARM GAS  C:\Users\MARTHN~1\AppData\Local\Temp\ccYtCv5j.s 			page 4


  78:RelayTest.c   ****     RTEST_QUAD_4,
  79:RelayTest.c   ****     RTEST_QUAD_5,
  80:RelayTest.c   ****     RTEST_QUAD_6,
  81:RelayTest.c   ****     RTEST_QUAD_7,
  82:RelayTest.c   ****     RTEST_QUAD_8            
  83:RelayTest.c   **** };
  84:RelayTest.c   **** 
  85:RelayTest.c   **** 
  86:RelayTest.c   **** 
  87:RelayTest.c   **** enum DEMUX_460800_CHANNEL
  88:RelayTest.c   **** { 
  89:RelayTest.c   ****     CTEST_OBDII_TX,         // 
  90:RelayTest.c   ****     RTEST_QUAD_TX,          // 
  91:RelayTest.c   ****     STEST_AUDIO_TX,
  92:RelayTest.c   **** };
  93:RelayTest.c   **** 
  94:RelayTest.c   **** enum MUX_DEMUX_230400_CHANNEL              
  95:RelayTest.c   **** { 
  96:RelayTest.c   ****     CTEST_RELAY, 
  97:RelayTest.c   ****     RTEST_CONT,
  98:RelayTest.c   ****     RTEST_SIREN,
  99:RelayTest.c   ****     STEST_RELAY            
 100:RelayTest.c   **** };
 101:RelayTest.c   **** 
 102:RelayTest.c   **** enum MUX_115200_CHANNEL      
 103:RelayTest.c   **** { 
 104:RelayTest.c   ****     RTEST_DLINK1,    
 105:RelayTest.c   ****     RTEST_DLINK2,    
 106:RelayTest.c   ****     CTEST_USB_DEBUG,
 107:RelayTest.c   ****     DIAG_UART_RX        
 108:RelayTest.c   **** };
 109:RelayTest.c   **** 
 110:RelayTest.c   **** // --------------Test steps---------------
 111:RelayTest.c   **** #define NUMBER_TEST_STEPS   18
 112:RelayTest.c   **** 
 113:RelayTest.c   **** enum TestStep               // *** Need to get muxes setup permanently, 
 114:RelayTest.c   **** { 
 115:RelayTest.c   ****     INITIALIZE_TEST, 
 116:RelayTest.c   ****     SIREN_EN,               // (Implemented - need hardware to test)
 117:RelayTest.c   ****     TEST_OUTPUTS,           // ---------------------- 230400 TX TESTED      - (needs hardware)
 118:RelayTest.c   ****     DATALINK,               // (***115200 rx tested)
 119:RelayTest.c   ****     //QUAD_PORTS,             // (460800 rx_tested, with 'C' packet, need to test for 'Y' and 'L') 
 120:RelayTest.c   ****         QUAD_PORT_1,
 121:RelayTest.c   ****         QUAD_PORT_2,
 122:RelayTest.c   ****         QUAD_PORT_3,
 123:RelayTest.c   ****         QUAD_PORT_4,
 124:RelayTest.c   ****         QUAD_PORT_5,
 125:RelayTest.c   ****         QUAD_PORT_6,
 126:RelayTest.c   ****         QUAD_PORT_7,
 127:RelayTest.c   ****         QUAD_PORT_8,
 128:RelayTest.c   ****     UART_SIREN,             // 230400 RX_TESTED     - 230400 TX TESTED      - 
 129:RelayTest.c   ****     INPUTS,                 // 230400 RX_TESTED     - 230400 TX TESTED      - (needs hardware)
 130:RelayTest.c   ****     VBATT,                  // 230400 RX_TESTED                             - COMPLETE
 131:RelayTest.c   ****     BLOCK_CURRENTS,         // 230400 RX_TESTED     - 230400 TX TESTED      - COMPLETE
 132:RelayTest.c   ****     GPS,                    // (230400 rx tested)
 133:RelayTest.c   ****     FAIL
 134:RelayTest.c   **** };
ARM GAS  C:\Users\MARTHN~1\AppData\Local\Temp\ccYtCv5j.s 			page 5


 135:RelayTest.c   **** 
 136:RelayTest.c   **** static uint8 RTestStatus[NUMBER_TEST_STEPS];
 137:RelayTest.c   **** 
 138:RelayTest.c   **** //----------------------------------------
 139:RelayTest.c   **** // Main state machine for F1-Relay Test
 140:RelayTest.c   **** //----------------------------------------
 141:RelayTest.c   **** uint8 RelayTest(void)
 142:RelayTest.c   **** {
  75              		.loc 1 142 0
  76              		.cfi_startproc
  77              		@ args = 0, pretend = 0, frame = 8
  78              		@ frame_needed = 1, uses_anonymous_args = 0
  79 0000 80B5     		push	{r7, lr}
  80              		.cfi_def_cfa_offset 8
  81              		.cfi_offset 7, -8
  82              		.cfi_offset 14, -4
  83 0002 82B0     		sub	sp, sp, #8
  84              		.cfi_def_cfa_offset 16
  85 0004 00AF     		add	r7, sp, #0
  86              		.cfi_def_cfa_register 7
 143:RelayTest.c   ****     //TestState = VBATT;                  //*** Comment this out
 144:RelayTest.c   ****     
 145:RelayTest.c   ****     switch(CurrentTest.TestStep)
  87              		.loc 1 145 0
  88 0006 AF4B     		ldr	r3, .L52
  89 0008 5B78     		ldrb	r3, [r3, #1]	@ zero_extendqisi2
  90 000a 112B     		cmp	r3, #17
  91 000c 00F25382 		bhi	.L2
  92 0010 01A2     		adr	r2, .L4
  93 0012 52F823F0 		ldr	pc, [r2, r3, lsl #2]
  94 0016 00BF     		.p2align 2
  95              	.L4:
  96 0018 61000000 		.word	.L3+1
  97 001c 1D010000 		.word	.L5+1
  98 0020 5D010000 		.word	.L6+1
  99 0024 C3010000 		.word	.L7+1
 100 0028 1D020000 		.word	.L8+1
 101 002c 55020000 		.word	.L9+1
 102 0030 8D020000 		.word	.L10+1
 103 0034 D9020000 		.word	.L11+1
 104 0038 B7040000 		.word	.L2+1
 105 003c B7040000 		.word	.L2+1
 106 0040 B7040000 		.word	.L2+1
 107 0044 B7040000 		.word	.L2+1
 108 0048 11030000 		.word	.L12+1
 109 004c 3B030000 		.word	.L13+1
 110 0050 95030000 		.word	.L14+1
 111 0054 EF030000 		.word	.L15+1
 112 0058 55040000 		.word	.L16+1
 113 005c B7040000 		.word	.L2+1
 114              		.p2align 1
 115              	.L3:
 116              	.LBB2:
 146:RelayTest.c   ****     {   
 147:RelayTest.c   ****                
 148:RelayTest.c   ****         case INITIALIZE_TEST:
 149:RelayTest.c   ****         
ARM GAS  C:\Users\MARTHN~1\AppData\Local\Temp\ccYtCv5j.s 			page 6


 150:RelayTest.c   ****             //isr_count = 0;
 151:RelayTest.c   ****         
 152:RelayTest.c   **** //            if(_100ms_flag == 1)
 153:RelayTest.c   **** //                LED_EN_Write(0);
 154:RelayTest.c   **** //        
 155:RelayTest.c   **** //            else if(_100ms_flag == 0)
 156:RelayTest.c   **** //                LED_EN_Write(0);
 157:RelayTest.c   ****                 
 158:RelayTest.c   ****             //CyDelay(1000);                      // Pause before next test
 159:RelayTest.c   ****         
 160:RelayTest.c   ****             for (uint8 i=0;i<NUMBER_TEST_STEPS;i++)            // Reset Status of aall test steps t
 117              		.loc 1 160 0
 118 0060 0023     		movs	r3, #0
 119 0062 FB71     		strb	r3, [r7, #7]
 120 0064 06E0     		b	.L18
 121              	.L19:
 161:RelayTest.c   ****                 RTestStatus[i] = '_';
 122              		.loc 1 161 0 discriminator 3
 123 0066 FB79     		ldrb	r3, [r7, #7]	@ zero_extendqisi2
 124 0068 974A     		ldr	r2, .L52+4
 125 006a 5F21     		movs	r1, #95
 126 006c D154     		strb	r1, [r2, r3]
 160:RelayTest.c   ****                 RTestStatus[i] = '_';
 127              		.loc 1 160 0 discriminator 3
 128 006e FB79     		ldrb	r3, [r7, #7]	@ zero_extendqisi2
 129 0070 0133     		adds	r3, r3, #1
 130 0072 FB71     		strb	r3, [r7, #7]
 131              	.L18:
 160:RelayTest.c   ****                 RTestStatus[i] = '_';
 132              		.loc 1 160 0 is_stmt 0 discriminator 1
 133 0074 FB79     		ldrb	r3, [r7, #7]	@ zero_extendqisi2
 134 0076 112B     		cmp	r3, #17
 135 0078 F5D9     		bls	.L19
 136              	.LBE2:
 162:RelayTest.c   ****    
 163:RelayTest.c   ****             // Initialize TX_RelaySiren packet
 164:RelayTest.c   ****             pTxPacket_RelaySiren = getTxPacket_RelaySiren();              // Tx - Get pointers to p
 137              		.loc 1 164 0 is_stmt 1
 138 007a FFF7FEFF 		bl	getTxPacket_RelaySiren
 139 007e 0246     		mov	r2, r0
 140 0080 924B     		ldr	r3, .L52+8
 141 0082 1A60     		str	r2, [r3]
 142              	.LBB3:
 165:RelayTest.c   ****             for(uint8 i;i<79;i++)
 143              		.loc 1 165 0
 144 0084 07E0     		b	.L20
 145              	.L21:
 166:RelayTest.c   ****                 pTxPacket_RelaySiren->bytes[i] = i;
 146              		.loc 1 166 0 discriminator 2
 147 0086 914B     		ldr	r3, .L52+8
 148 0088 1A68     		ldr	r2, [r3]
 149 008a BB79     		ldrb	r3, [r7, #6]	@ zero_extendqisi2
 150 008c B979     		ldrb	r1, [r7, #6]
 151 008e D154     		strb	r1, [r2, r3]
 165:RelayTest.c   ****             for(uint8 i;i<79;i++)
 152              		.loc 1 165 0 discriminator 2
 153 0090 BB79     		ldrb	r3, [r7, #6]	@ zero_extendqisi2
ARM GAS  C:\Users\MARTHN~1\AppData\Local\Temp\ccYtCv5j.s 			page 7


 154 0092 0133     		adds	r3, r3, #1
 155 0094 BB71     		strb	r3, [r7, #6]
 156              	.L20:
 165:RelayTest.c   ****             for(uint8 i;i<79;i++)
 157              		.loc 1 165 0 is_stmt 0 discriminator 1
 158 0096 BB79     		ldrb	r3, [r7, #6]	@ zero_extendqisi2
 159 0098 4E2B     		cmp	r3, #78
 160 009a F4D9     		bls	.L21
 161              	.LBE3:
 167:RelayTest.c   **** 
 168:RelayTest.c   ****             pTxPacket_RelaySiren->Payload.StartByte_FLB = '~';
 162              		.loc 1 168 0 is_stmt 1
 163 009c 8B4B     		ldr	r3, .L52+8
 164 009e 1B68     		ldr	r3, [r3]
 165 00a0 7E22     		movs	r2, #126
 166 00a2 83F83520 		strb	r2, [r3, #53]
 169:RelayTest.c   ****             pTxPacket_RelaySiren->Payload.FLB_PacketType = '3';
 167              		.loc 1 169 0
 168 00a6 894B     		ldr	r3, .L52+8
 169 00a8 1B68     		ldr	r3, [r3]
 170 00aa 3322     		movs	r2, #51
 171 00ac 83F83620 		strb	r2, [r3, #54]
 170:RelayTest.c   ****             pTxPacket_RelaySiren->Payload.StopByte1_FLB = 0x0D;
 172              		.loc 1 170 0
 173 00b0 864B     		ldr	r3, .L52+8
 174 00b2 1B68     		ldr	r3, [r3]
 175 00b4 0D22     		movs	r2, #13
 176 00b6 83F83A20 		strb	r2, [r3, #58]
 171:RelayTest.c   ****             pTxPacket_RelaySiren->Payload.StopByte2_FLB = 0x0A;    
 177              		.loc 1 171 0
 178 00ba 844B     		ldr	r3, .L52+8
 179 00bc 1B68     		ldr	r3, [r3]
 180 00be 0A22     		movs	r2, #10
 181 00c0 83F83B20 		strb	r2, [r3, #59]
 172:RelayTest.c   ****             pTxPacket_RelaySiren->Payload.StartByte1_Siren = '~';    
 182              		.loc 1 172 0
 183 00c4 814B     		ldr	r3, .L52+8
 184 00c6 1B68     		ldr	r3, [r3]
 185 00c8 7E22     		movs	r2, #126
 186 00ca 83F83C20 		strb	r2, [r3, #60]
 173:RelayTest.c   ****             pTxPacket_RelaySiren->Payload.Siren_PacketType = 'S';
 187              		.loc 1 173 0
 188 00ce 7F4B     		ldr	r3, .L52+8
 189 00d0 1B68     		ldr	r3, [r3]
 190 00d2 5322     		movs	r2, #83
 191 00d4 83F83D20 		strb	r2, [r3, #61]
 174:RelayTest.c   ****             pTxPacket_RelaySiren->Payload.StopByte1_Siren = 0x0D;
 192              		.loc 1 174 0
 193 00d8 7C4B     		ldr	r3, .L52+8
 194 00da 1B68     		ldr	r3, [r3]
 195 00dc 0D22     		movs	r2, #13
 196 00de 83F84120 		strb	r2, [r3, #65]
 175:RelayTest.c   ****             pTxPacket_RelaySiren->Payload.StopByte2_Siren = 0x0A;                       
 197              		.loc 1 175 0
 198 00e2 7A4B     		ldr	r3, .L52+8
 199 00e4 1B68     		ldr	r3, [r3]
 200 00e6 0A22     		movs	r2, #10
ARM GAS  C:\Users\MARTHN~1\AppData\Local\Temp\ccYtCv5j.s 			page 8


 201 00e8 83F84220 		strb	r2, [r3, #66]
 176:RelayTest.c   ****             pTxPacket_RelaySiren->Payload.StartByte1_Relay = '~';
 202              		.loc 1 176 0
 203 00ec 774B     		ldr	r3, .L52+8
 204 00ee 1B68     		ldr	r3, [r3]
 205 00f0 7E22     		movs	r2, #126
 206 00f2 83F84320 		strb	r2, [r3, #67]
 177:RelayTest.c   ****             pTxPacket_RelaySiren->Payload.Relay_PacketType = 'P';
 207              		.loc 1 177 0
 208 00f6 754B     		ldr	r3, .L52+8
 209 00f8 1B68     		ldr	r3, [r3]
 210 00fa 5022     		movs	r2, #80
 211 00fc 83F84420 		strb	r2, [r3, #68]
 178:RelayTest.c   ****             pTxPacket_RelaySiren->Payload.StopByte1_Relay = 0x0D;
 212              		.loc 1 178 0
 213 0100 724B     		ldr	r3, .L52+8
 214 0102 1B68     		ldr	r3, [r3]
 215 0104 0D22     		movs	r2, #13
 216 0106 83F84D20 		strb	r2, [r3, #77]
 179:RelayTest.c   ****             pTxPacket_RelaySiren->Payload.StopByte2_Relay = 0x0A;                    
 217              		.loc 1 179 0
 218 010a 704B     		ldr	r3, .L52+8
 219 010c 1B68     		ldr	r3, [r3]
 220 010e 0A22     		movs	r2, #10
 221 0110 83F84E20 		strb	r2, [r3, #78]
 180:RelayTest.c   ****             
 181:RelayTest.c   ****                 
 182:RelayTest.c   ****                 
 183:RelayTest.c   ****             // Deactivate each input
 184:RelayTest.c   ****             // RTest_HSide1_Write(0);
 185:RelayTest.c   ****             // RTest_HSide2_Write(0);
 186:RelayTest.c   ****             // RTest_HSide3_Write(0);
 187:RelayTest.c   ****             // RTest_HSide4_Write(0);
 188:RelayTest.c   ****             // RTest_HSide5_Write(0);
 189:RelayTest.c   ****             // RTest_HSide6_Write(0);
 190:RelayTest.c   ****             // RTest_HSide7_Write(0);
 191:RelayTest.c   ****             // RTest_HSide8_Write(0);
 192:RelayTest.c   ****             
 193:RelayTest.c   ****             //CurrentTest.TestStep = UART_SIREN; 
 194:RelayTest.c   ****             CurrentTest.TestStep = QUAD_PORT_1;
 222              		.loc 1 194 0
 223 0114 6B4B     		ldr	r3, .L52
 224 0116 0422     		movs	r2, #4
 225 0118 5A70     		strb	r2, [r3, #1]
 195:RelayTest.c   ****                    
 196:RelayTest.c   ****         break;
 226              		.loc 1 196 0
 227 011a CCE1     		b	.L2
 228              	.L5:
 197:RelayTest.c   ****              
 198:RelayTest.c   ****         case SIREN_EN:
 199:RelayTest.c   ****                 
 200:RelayTest.c   ****             RTestStatus[CurrentTest.TestStep] = 'B';
 229              		.loc 1 200 0
 230 011c 694B     		ldr	r3, .L52
 231 011e 5B78     		ldrb	r3, [r3, #1]	@ zero_extendqisi2
 232 0120 1A46     		mov	r2, r3
ARM GAS  C:\Users\MARTHN~1\AppData\Local\Temp\ccYtCv5j.s 			page 9


 233 0122 694B     		ldr	r3, .L52+4
 234 0124 4221     		movs	r1, #66
 235 0126 9954     		strb	r1, [r3, r2]
 201:RelayTest.c   **** 
 202:RelayTest.c   ****             RTest_20ms_isr_count = 0;
 236              		.loc 1 202 0
 237 0128 694B     		ldr	r3, .L52+12
 238 012a 0022     		movs	r2, #0
 239 012c 1A80     		strh	r2, [r3]	@ movhi
 203:RelayTest.c   ****             RTest_20ms_isr_EN = 1;
 240              		.loc 1 203 0
 241 012e 694B     		ldr	r3, .L52+16
 242 0130 0122     		movs	r2, #1
 243 0132 1A80     		strh	r2, [r3]	@ movhi
 204:RelayTest.c   ****              
 205:RelayTest.c   ****             //while(1);
 206:RelayTest.c   ****             //while( (!RTest_SIREN_EN_Read()) && (RelayTestStatus[TestState] != 'F') )             
 207:RelayTest.c   ****             {} 
 208:RelayTest.c   ****             
 209:RelayTest.c   ****             RTest_20ms_isr_EN = 0;
 244              		.loc 1 209 0
 245 0134 674B     		ldr	r3, .L52+16
 246 0136 0022     		movs	r2, #0
 247 0138 1A80     		strh	r2, [r3]	@ movhi
 210:RelayTest.c   ****             
 211:RelayTest.c   ****             if(RTestStatus[CurrentTest.TestStep] != 'F')       // If not failed, then pass
 248              		.loc 1 211 0
 249 013a 624B     		ldr	r3, .L52
 250 013c 5B78     		ldrb	r3, [r3, #1]	@ zero_extendqisi2
 251 013e 1A46     		mov	r2, r3
 252 0140 614B     		ldr	r3, .L52+4
 253 0142 9B5C     		ldrb	r3, [r3, r2]	@ zero_extendqisi2
 254 0144 462B     		cmp	r3, #70
 255 0146 05D0     		beq	.L22
 212:RelayTest.c   ****                 RTestStatus[CurrentTest.TestStep] = 'P';
 256              		.loc 1 212 0
 257 0148 5E4B     		ldr	r3, .L52
 258 014a 5B78     		ldrb	r3, [r3, #1]	@ zero_extendqisi2
 259 014c 1A46     		mov	r2, r3
 260 014e 5E4B     		ldr	r3, .L52+4
 261 0150 5021     		movs	r1, #80
 262 0152 9954     		strb	r1, [r3, r2]
 263              	.L22:
 213:RelayTest.c   **** 
 214:RelayTest.c   ****             CurrentTest.TestStep = TEST_OUTPUTS;        
 264              		.loc 1 214 0
 265 0154 5B4B     		ldr	r3, .L52
 266 0156 0222     		movs	r2, #2
 267 0158 5A70     		strb	r2, [r3, #1]
 215:RelayTest.c   ****         break;    
 268              		.loc 1 215 0
 269 015a ACE1     		b	.L2
 270              	.L6:
 216:RelayTest.c   ****               
 217:RelayTest.c   ****         case TEST_OUTPUTS:  
 218:RelayTest.c   ****                 
 219:RelayTest.c   ****             SetRelayOutputs(1);                         // Send command to turn on relay outputs
ARM GAS  C:\Users\MARTHN~1\AppData\Local\Temp\ccYtCv5j.s 			page 10


 271              		.loc 1 219 0
 272 015c 0120     		movs	r0, #1
 273 015e FFF7FEFF 		bl	SetRelayOutputs
 220:RelayTest.c   ****                 
 221:RelayTest.c   ****             RTestStatus[CurrentTest.TestStep] = 'B';
 274              		.loc 1 221 0
 275 0162 584B     		ldr	r3, .L52
 276 0164 5B78     		ldrb	r3, [r3, #1]	@ zero_extendqisi2
 277 0166 1A46     		mov	r2, r3
 278 0168 574B     		ldr	r3, .L52+4
 279 016a 4221     		movs	r1, #66
 280 016c 9954     		strb	r1, [r3, r2]
 222:RelayTest.c   **** 
 223:RelayTest.c   ****             RTest_20ms_isr_count = 0;
 281              		.loc 1 223 0
 282 016e 584B     		ldr	r3, .L52+12
 283 0170 0022     		movs	r2, #0
 284 0172 1A80     		strh	r2, [r3]	@ movhi
 224:RelayTest.c   ****             RTest_20ms_isr_EN = 1;
 285              		.loc 1 224 0
 286 0174 574B     		ldr	r3, .L52+16
 287 0176 0122     		movs	r2, #1
 288 0178 1A80     		strh	r2, [r3]	@ movhi
 225:RelayTest.c   ****              
 226:RelayTest.c   ****             while( (!RTest_Test_Outputs()) && (RTestStatus[CurrentTest.TestStep] != 'F') )    // Wa
 289              		.loc 1 226 0
 290 017a 00BF     		nop
 291              	.L24:
 292              		.loc 1 226 0 is_stmt 0 discriminator 2
 293 017c FFF7FEFF 		bl	RTest_Test_Outputs
 294 0180 0346     		mov	r3, r0
 295 0182 002B     		cmp	r3, #0
 296 0184 06D1     		bne	.L23
 297              		.loc 1 226 0 discriminator 1
 298 0186 4F4B     		ldr	r3, .L52
 299 0188 5B78     		ldrb	r3, [r3, #1]	@ zero_extendqisi2
 300 018a 1A46     		mov	r2, r3
 301 018c 4E4B     		ldr	r3, .L52+4
 302 018e 9B5C     		ldrb	r3, [r3, r2]	@ zero_extendqisi2
 303 0190 462B     		cmp	r3, #70
 304 0192 F3D1     		bne	.L24
 305              	.L23:
 227:RelayTest.c   ****             {}   
 228:RelayTest.c   ****             
 229:RelayTest.c   ****             RTest_20ms_isr_EN = 0;
 306              		.loc 1 229 0 is_stmt 1
 307 0194 4F4B     		ldr	r3, .L52+16
 308 0196 0022     		movs	r2, #0
 309 0198 1A80     		strh	r2, [r3]	@ movhi
 230:RelayTest.c   ****             
 231:RelayTest.c   ****             SetRelayOutputs(0);                         // Send command to turn off relay outputs
 310              		.loc 1 231 0
 311 019a 0020     		movs	r0, #0
 312 019c FFF7FEFF 		bl	SetRelayOutputs
 232:RelayTest.c   ****             
 233:RelayTest.c   ****             if(RTestStatus[CurrentTest.TestStep] != 'F')       // If not failed, then pass
 313              		.loc 1 233 0
ARM GAS  C:\Users\MARTHN~1\AppData\Local\Temp\ccYtCv5j.s 			page 11


 314 01a0 484B     		ldr	r3, .L52
 315 01a2 5B78     		ldrb	r3, [r3, #1]	@ zero_extendqisi2
 316 01a4 1A46     		mov	r2, r3
 317 01a6 484B     		ldr	r3, .L52+4
 318 01a8 9B5C     		ldrb	r3, [r3, r2]	@ zero_extendqisi2
 319 01aa 462B     		cmp	r3, #70
 320 01ac 05D0     		beq	.L25
 234:RelayTest.c   ****                 RTestStatus[CurrentTest.TestStep] = 'P';
 321              		.loc 1 234 0
 322 01ae 454B     		ldr	r3, .L52
 323 01b0 5B78     		ldrb	r3, [r3, #1]	@ zero_extendqisi2
 324 01b2 1A46     		mov	r2, r3
 325 01b4 444B     		ldr	r3, .L52+4
 326 01b6 5021     		movs	r1, #80
 327 01b8 9954     		strb	r1, [r3, r2]
 328              	.L25:
 235:RelayTest.c   **** 
 236:RelayTest.c   ****             CurrentTest.TestStep = DATALINK;        
 329              		.loc 1 236 0
 330 01ba 424B     		ldr	r3, .L52
 331 01bc 0322     		movs	r2, #3
 332 01be 5A70     		strb	r2, [r3, #1]
 237:RelayTest.c   ****         break;        
 333              		.loc 1 237 0
 334 01c0 79E1     		b	.L2
 335              	.L7:
 238:RelayTest.c   ****               
 239:RelayTest.c   ****         case DATALINK: 
 240:RelayTest.c   ****                 
 241:RelayTest.c   ****             RTestStatus[CurrentTest.TestStep] = 'B';
 336              		.loc 1 241 0
 337 01c2 404B     		ldr	r3, .L52
 338 01c4 5B78     		ldrb	r3, [r3, #1]	@ zero_extendqisi2
 339 01c6 1A46     		mov	r2, r3
 340 01c8 3F4B     		ldr	r3, .L52+4
 341 01ca 4221     		movs	r1, #66
 342 01cc 9954     		strb	r1, [r3, r2]
 242:RelayTest.c   **** 
 243:RelayTest.c   ****             RTest_20ms_isr_count = 0;
 343              		.loc 1 243 0
 344 01ce 404B     		ldr	r3, .L52+12
 345 01d0 0022     		movs	r2, #0
 346 01d2 1A80     		strh	r2, [r3]	@ movhi
 244:RelayTest.c   ****             RTest_20ms_isr_EN = 1;            
 347              		.loc 1 244 0
 348 01d4 3F4B     		ldr	r3, .L52+16
 349 01d6 0122     		movs	r2, #1
 350 01d8 1A80     		strh	r2, [r3]	@ movhi
 245:RelayTest.c   ****              
 246:RelayTest.c   ****             while( (!RTest_Test_DataLink()) && (RTestStatus[CurrentTest.TestStep] != 'F') )    // W
 351              		.loc 1 246 0
 352 01da 00BF     		nop
 353              	.L27:
 354              		.loc 1 246 0 is_stmt 0 discriminator 2
 355 01dc FFF7FEFF 		bl	RTest_Test_DataLink
 356 01e0 0346     		mov	r3, r0
 357 01e2 002B     		cmp	r3, #0
ARM GAS  C:\Users\MARTHN~1\AppData\Local\Temp\ccYtCv5j.s 			page 12


 358 01e4 06D1     		bne	.L26
 359              		.loc 1 246 0 discriminator 1
 360 01e6 374B     		ldr	r3, .L52
 361 01e8 5B78     		ldrb	r3, [r3, #1]	@ zero_extendqisi2
 362 01ea 1A46     		mov	r2, r3
 363 01ec 364B     		ldr	r3, .L52+4
 364 01ee 9B5C     		ldrb	r3, [r3, r2]	@ zero_extendqisi2
 365 01f0 462B     		cmp	r3, #70
 366 01f2 F3D1     		bne	.L27
 367              	.L26:
 247:RelayTest.c   ****             {}  
 248:RelayTest.c   ****             
 249:RelayTest.c   ****             RTest_20ms_isr_EN = 0;
 368              		.loc 1 249 0 is_stmt 1
 369 01f4 374B     		ldr	r3, .L52+16
 370 01f6 0022     		movs	r2, #0
 371 01f8 1A80     		strh	r2, [r3]	@ movhi
 250:RelayTest.c   ****             
 251:RelayTest.c   ****             if(RTestStatus[CurrentTest.TestStep] != 'F')       // If not failed, then pass
 372              		.loc 1 251 0
 373 01fa 324B     		ldr	r3, .L52
 374 01fc 5B78     		ldrb	r3, [r3, #1]	@ zero_extendqisi2
 375 01fe 1A46     		mov	r2, r3
 376 0200 314B     		ldr	r3, .L52+4
 377 0202 9B5C     		ldrb	r3, [r3, r2]	@ zero_extendqisi2
 378 0204 462B     		cmp	r3, #70
 379 0206 05D0     		beq	.L28
 252:RelayTest.c   ****                 RTestStatus[CurrentTest.TestStep] = 'P';
 380              		.loc 1 252 0
 381 0208 2E4B     		ldr	r3, .L52
 382 020a 5B78     		ldrb	r3, [r3, #1]	@ zero_extendqisi2
 383 020c 1A46     		mov	r2, r3
 384 020e 2E4B     		ldr	r3, .L52+4
 385 0210 5021     		movs	r1, #80
 386 0212 9954     		strb	r1, [r3, r2]
 387              	.L28:
 253:RelayTest.c   ****             
 254:RelayTest.c   ****             CurrentTest.TestStep = QUAD_PORT_1;        
 388              		.loc 1 254 0
 389 0214 2B4B     		ldr	r3, .L52
 390 0216 0422     		movs	r2, #4
 391 0218 5A70     		strb	r2, [r3, #1]
 255:RelayTest.c   ****         break;  
 392              		.loc 1 255 0
 393 021a 4CE1     		b	.L2
 394              	.L8:
 256:RelayTest.c   ****               
 257:RelayTest.c   ****         case QUAD_PORT_1: 
 258:RelayTest.c   ****                 
 259:RelayTest.c   ****             RTest_StartAutomatedStep();  
 395              		.loc 1 259 0
 396 021c FFF7FEFF 		bl	RTest_StartAutomatedStep
 260:RelayTest.c   ****                 
 261:RelayTest.c   ****             DEMUX_CTRL_460800_Write(RTEST_QUAD_TX);             // Select TX xhannel
 397              		.loc 1 261 0
 398 0220 0120     		movs	r0, #1
 399 0222 FFF7FEFF 		bl	DEMUX_CTRL_460800_Write
ARM GAS  C:\Users\MARTHN~1\AppData\Local\Temp\ccYtCv5j.s 			page 13


 262:RelayTest.c   ****             MUX_CTRL_460800_Write(RTEST_QUAD_1);                // Select RX channel
 400              		.loc 1 262 0
 401 0226 0220     		movs	r0, #2
 402 0228 FFF7FEFF 		bl	MUX_CTRL_460800_Write
 263:RelayTest.c   ****                       
 264:RelayTest.c   ****             while( (!VerifyPacket_460800(CTEST_RTEST_QUAD)) && (RTestStatus[CurrentTest.TestStep] !
 403              		.loc 1 264 0
 404 022c 00BF     		nop
 405              	.L30:
 406              		.loc 1 264 0 is_stmt 0 discriminator 2
 407 022e 0120     		movs	r0, #1
 408 0230 FFF7FEFF 		bl	VerifyPacket_460800
 409 0234 0346     		mov	r3, r0
 410 0236 002B     		cmp	r3, #0
 411 0238 06D1     		bne	.L29
 412              		.loc 1 264 0 discriminator 1
 413 023a 224B     		ldr	r3, .L52
 414 023c 5B78     		ldrb	r3, [r3, #1]	@ zero_extendqisi2
 415 023e 1A46     		mov	r2, r3
 416 0240 214B     		ldr	r3, .L52+4
 417 0242 9B5C     		ldrb	r3, [r3, r2]	@ zero_extendqisi2
 418 0244 462B     		cmp	r3, #70
 419 0246 F2D1     		bne	.L30
 420              	.L29:
 265:RelayTest.c   ****             {}    
 266:RelayTest.c   ****             
 267:RelayTest.c   ****             RTest_StopAutomatedStep();
 421              		.loc 1 267 0 is_stmt 1
 422 0248 FFF7FEFF 		bl	RTest_StopAutomatedStep
 268:RelayTest.c   ****                   
 269:RelayTest.c   ****             CurrentTest.TestStep = QUAD_PORT_2;      
 423              		.loc 1 269 0
 424 024c 1D4B     		ldr	r3, .L52
 425 024e 0522     		movs	r2, #5
 426 0250 5A70     		strb	r2, [r3, #1]
 270:RelayTest.c   ****         break;  
 427              		.loc 1 270 0
 428 0252 30E1     		b	.L2
 429              	.L9:
 271:RelayTest.c   ****             
 272:RelayTest.c   ****         case QUAD_PORT_2: 
 273:RelayTest.c   ****                 
 274:RelayTest.c   ****             RTest_StartAutomatedStep();  
 430              		.loc 1 274 0
 431 0254 FFF7FEFF 		bl	RTest_StartAutomatedStep
 275:RelayTest.c   ****                 
 276:RelayTest.c   ****             DEMUX_CTRL_460800_Write(RTEST_QUAD_TX);             // Select TX xhannel
 432              		.loc 1 276 0
 433 0258 0120     		movs	r0, #1
 434 025a FFF7FEFF 		bl	DEMUX_CTRL_460800_Write
 277:RelayTest.c   ****             MUX_CTRL_460800_Write(RTEST_QUAD_2);                // Select RX channel
 435              		.loc 1 277 0
 436 025e 0320     		movs	r0, #3
 437 0260 FFF7FEFF 		bl	MUX_CTRL_460800_Write
 278:RelayTest.c   ****                       
 279:RelayTest.c   ****             while( (!VerifyPacket_460800(CTEST_RTEST_QUAD)) && (RTestStatus[CurrentTest.TestStep] !
 438              		.loc 1 279 0
ARM GAS  C:\Users\MARTHN~1\AppData\Local\Temp\ccYtCv5j.s 			page 14


 439 0264 00BF     		nop
 440              	.L32:
 441              		.loc 1 279 0 is_stmt 0 discriminator 2
 442 0266 0120     		movs	r0, #1
 443 0268 FFF7FEFF 		bl	VerifyPacket_460800
 444 026c 0346     		mov	r3, r0
 445 026e 002B     		cmp	r3, #0
 446 0270 06D1     		bne	.L31
 447              		.loc 1 279 0 discriminator 1
 448 0272 144B     		ldr	r3, .L52
 449 0274 5B78     		ldrb	r3, [r3, #1]	@ zero_extendqisi2
 450 0276 1A46     		mov	r2, r3
 451 0278 134B     		ldr	r3, .L52+4
 452 027a 9B5C     		ldrb	r3, [r3, r2]	@ zero_extendqisi2
 453 027c 462B     		cmp	r3, #70
 454 027e F2D1     		bne	.L32
 455              	.L31:
 280:RelayTest.c   ****             {}    
 281:RelayTest.c   ****             
 282:RelayTest.c   ****             RTest_StopAutomatedStep();
 456              		.loc 1 282 0 is_stmt 1
 457 0280 FFF7FEFF 		bl	RTest_StopAutomatedStep
 283:RelayTest.c   ****                   
 284:RelayTest.c   ****             CurrentTest.TestStep = QUAD_PORT_3;      
 458              		.loc 1 284 0
 459 0284 0F4B     		ldr	r3, .L52
 460 0286 0622     		movs	r2, #6
 461 0288 5A70     		strb	r2, [r3, #1]
 285:RelayTest.c   ****         break;  
 462              		.loc 1 285 0
 463 028a 14E1     		b	.L2
 464              	.L10:
 286:RelayTest.c   ****             
 287:RelayTest.c   ****         case QUAD_PORT_3: 
 288:RelayTest.c   ****                 
 289:RelayTest.c   ****             RTest_StartAutomatedStep();  
 465              		.loc 1 289 0
 466 028c FFF7FEFF 		bl	RTest_StartAutomatedStep
 290:RelayTest.c   ****                 
 291:RelayTest.c   ****             DEMUX_CTRL_460800_Write(RTEST_QUAD_TX);             // Select TX xhannel
 467              		.loc 1 291 0
 468 0290 0120     		movs	r0, #1
 469 0292 FFF7FEFF 		bl	DEMUX_CTRL_460800_Write
 292:RelayTest.c   ****             MUX_CTRL_460800_Write(RTEST_QUAD_3);                // Select RX channel
 470              		.loc 1 292 0
 471 0296 0420     		movs	r0, #4
 472 0298 FFF7FEFF 		bl	MUX_CTRL_460800_Write
 293:RelayTest.c   ****                       
 294:RelayTest.c   ****             while( (!VerifyPacket_460800(CTEST_RTEST_QUAD)) && (RTestStatus[CurrentTest.TestStep] !
 473              		.loc 1 294 0
 474 029c 00BF     		nop
 475              	.L34:
 476              		.loc 1 294 0 is_stmt 0 discriminator 2
 477 029e 0120     		movs	r0, #1
 478 02a0 FFF7FEFF 		bl	VerifyPacket_460800
 479 02a4 0346     		mov	r3, r0
 480 02a6 002B     		cmp	r3, #0
ARM GAS  C:\Users\MARTHN~1\AppData\Local\Temp\ccYtCv5j.s 			page 15


 481 02a8 06D1     		bne	.L33
 482              		.loc 1 294 0 discriminator 1
 483 02aa 064B     		ldr	r3, .L52
 484 02ac 5B78     		ldrb	r3, [r3, #1]	@ zero_extendqisi2
 485 02ae 1A46     		mov	r2, r3
 486 02b0 054B     		ldr	r3, .L52+4
 487 02b2 9B5C     		ldrb	r3, [r3, r2]	@ zero_extendqisi2
 488 02b4 462B     		cmp	r3, #70
 489 02b6 F2D1     		bne	.L34
 490              	.L33:
 295:RelayTest.c   ****             {}    
 296:RelayTest.c   ****             
 297:RelayTest.c   ****             RTest_StopAutomatedStep();
 491              		.loc 1 297 0 is_stmt 1
 492 02b8 FFF7FEFF 		bl	RTest_StopAutomatedStep
 298:RelayTest.c   ****                   
 299:RelayTest.c   ****             CurrentTest.TestStep = QUAD_PORT_4;      
 493              		.loc 1 299 0
 494 02bc 014B     		ldr	r3, .L52
 495 02be 0722     		movs	r2, #7
 496 02c0 5A70     		strb	r2, [r3, #1]
 300:RelayTest.c   ****         break;  
 497              		.loc 1 300 0
 498 02c2 F8E0     		b	.L2
 499              	.L53:
 500              		.align	2
 501              	.L52:
 502 02c4 00000000 		.word	CurrentTest
 503 02c8 0C010000 		.word	RTestStatus
 504 02cc 78000000 		.word	pTxPacket_RelaySiren
 505 02d0 08010000 		.word	RTest_20ms_isr_count
 506 02d4 0A010000 		.word	RTest_20ms_isr_EN
 507              	.L11:
 301:RelayTest.c   ****             
 302:RelayTest.c   ****         case QUAD_PORT_4: 
 303:RelayTest.c   ****                 
 304:RelayTest.c   ****             RTest_StartAutomatedStep();  
 508              		.loc 1 304 0
 509 02d8 FFF7FEFF 		bl	RTest_StartAutomatedStep
 305:RelayTest.c   ****                 
 306:RelayTest.c   ****             DEMUX_CTRL_460800_Write(RTEST_QUAD_TX);             // Select TX xhannel
 510              		.loc 1 306 0
 511 02dc 0120     		movs	r0, #1
 512 02de FFF7FEFF 		bl	DEMUX_CTRL_460800_Write
 307:RelayTest.c   ****             MUX_CTRL_460800_Write(RTEST_QUAD_4);                // Select RX channel
 513              		.loc 1 307 0
 514 02e2 0520     		movs	r0, #5
 515 02e4 FFF7FEFF 		bl	MUX_CTRL_460800_Write
 308:RelayTest.c   ****                       
 309:RelayTest.c   ****             while( (!VerifyPacket_460800(CTEST_RTEST_QUAD)) && (RTestStatus[CurrentTest.TestStep] !
 516              		.loc 1 309 0
 517 02e8 00BF     		nop
 518              	.L36:
 519              		.loc 1 309 0 is_stmt 0 discriminator 2
 520 02ea 0120     		movs	r0, #1
 521 02ec FFF7FEFF 		bl	VerifyPacket_460800
 522 02f0 0346     		mov	r3, r0
ARM GAS  C:\Users\MARTHN~1\AppData\Local\Temp\ccYtCv5j.s 			page 16


 523 02f2 002B     		cmp	r3, #0
 524 02f4 06D1     		bne	.L35
 525              		.loc 1 309 0 discriminator 1
 526 02f6 724B     		ldr	r3, .L54
 527 02f8 5B78     		ldrb	r3, [r3, #1]	@ zero_extendqisi2
 528 02fa 1A46     		mov	r2, r3
 529 02fc 714B     		ldr	r3, .L54+4
 530 02fe 9B5C     		ldrb	r3, [r3, r2]	@ zero_extendqisi2
 531 0300 462B     		cmp	r3, #70
 532 0302 F2D1     		bne	.L36
 533              	.L35:
 310:RelayTest.c   ****             {}    
 311:RelayTest.c   ****             
 312:RelayTest.c   ****             RTest_StopAutomatedStep();
 534              		.loc 1 312 0 is_stmt 1
 535 0304 FFF7FEFF 		bl	RTest_StopAutomatedStep
 313:RelayTest.c   ****                   
 314:RelayTest.c   ****             //CurrentTest.TestStep = QUAD_PORT_5; 
 315:RelayTest.c   ****             CurrentTest.TestStep = INITIALIZE_TEST;
 536              		.loc 1 315 0
 537 0308 6D4B     		ldr	r3, .L54
 538 030a 0022     		movs	r2, #0
 539 030c 5A70     		strb	r2, [r3, #1]
 316:RelayTest.c   ****         break;  
 540              		.loc 1 316 0
 541 030e D2E0     		b	.L2
 542              	.L12:
 317:RelayTest.c   ****                 
 318:RelayTest.c   ****         case UART_SIREN: 
 319:RelayTest.c   ****                 
 320:RelayTest.c   **** //            RTestStatus[CurrentTest.TestStep] = 'B';
 321:RelayTest.c   **** //
 322:RelayTest.c   **** //            RTest_20ms_isr_count = 0;
 323:RelayTest.c   **** //            RTest_20ms_isr_EN = 1;       
 324:RelayTest.c   ****             
 325:RelayTest.c   ****             RTest_StartAutomatedStep();
 543              		.loc 1 325 0
 544 0310 FFF7FEFF 		bl	RTest_StartAutomatedStep
 326:RelayTest.c   ****                 
 327:RelayTest.c   ****             while( (!RTest_Test_UART_Siren()) && (RTestStatus[CurrentTest.TestStep] != 'F') )
 545              		.loc 1 327 0
 546 0314 00BF     		nop
 547              	.L38:
 548              		.loc 1 327 0 is_stmt 0 discriminator 2
 549 0316 FFF7FEFF 		bl	RTest_Test_UART_Siren
 550 031a 0346     		mov	r3, r0
 551 031c 002B     		cmp	r3, #0
 552 031e 06D1     		bne	.L37
 553              		.loc 1 327 0 discriminator 1
 554 0320 674B     		ldr	r3, .L54
 555 0322 5B78     		ldrb	r3, [r3, #1]	@ zero_extendqisi2
 556 0324 1A46     		mov	r2, r3
 557 0326 674B     		ldr	r3, .L54+4
 558 0328 9B5C     		ldrb	r3, [r3, r2]	@ zero_extendqisi2
 559 032a 462B     		cmp	r3, #70
 560 032c F3D1     		bne	.L38
 561              	.L37:
ARM GAS  C:\Users\MARTHN~1\AppData\Local\Temp\ccYtCv5j.s 			page 17


 328:RelayTest.c   ****             {}    
 329:RelayTest.c   ****             
 330:RelayTest.c   ****             RTest_StopAutomatedStep();
 562              		.loc 1 330 0 is_stmt 1
 563 032e FFF7FEFF 		bl	RTest_StopAutomatedStep
 331:RelayTest.c   ****             
 332:RelayTest.c   **** //            RTest_20ms_isr_EN = 0;
 333:RelayTest.c   **** //            
 334:RelayTest.c   **** //            if(RTestStatus[CurrentTest.TestStep] != 'F')                                   // If 
 335:RelayTest.c   **** //                RTestStatus[CurrentTest.TestStep] = 'P';
 336:RelayTest.c   ****                 
 337:RelayTest.c   ****             CurrentTest.TestStep = INITIALIZE_TEST;  
 564              		.loc 1 337 0
 565 0332 634B     		ldr	r3, .L54
 566 0334 0022     		movs	r2, #0
 567 0336 5A70     		strb	r2, [r3, #1]
 338:RelayTest.c   ****             //TestState = INPUTS;                
 339:RelayTest.c   ****         break;  
 568              		.loc 1 339 0
 569 0338 BDE0     		b	.L2
 570              	.L13:
 340:RelayTest.c   ****               
 341:RelayTest.c   ****         case INPUTS:          
 342:RelayTest.c   ****                 
 343:RelayTest.c   ****             RTestStatus[CurrentTest.TestStep] = 'B';
 571              		.loc 1 343 0
 572 033a 614B     		ldr	r3, .L54
 573 033c 5B78     		ldrb	r3, [r3, #1]	@ zero_extendqisi2
 574 033e 1A46     		mov	r2, r3
 575 0340 604B     		ldr	r3, .L54+4
 576 0342 4221     		movs	r1, #66
 577 0344 9954     		strb	r1, [r3, r2]
 344:RelayTest.c   **** 
 345:RelayTest.c   ****             RTest_20ms_isr_count = 0;
 578              		.loc 1 345 0
 579 0346 604B     		ldr	r3, .L54+8
 580 0348 0022     		movs	r2, #0
 581 034a 1A80     		strh	r2, [r3]	@ movhi
 346:RelayTest.c   ****             RTest_20ms_isr_EN = 1;            
 582              		.loc 1 346 0
 583 034c 5F4B     		ldr	r3, .L54+12
 584 034e 0122     		movs	r2, #1
 585 0350 1A80     		strh	r2, [r3]	@ movhi
 347:RelayTest.c   ****                 
 348:RelayTest.c   ****             while( (!RTest_Test_Inputs()) && (RTestStatus[CurrentTest.TestStep] != 'F') )
 586              		.loc 1 348 0
 587 0352 00BF     		nop
 588              	.L40:
 589              		.loc 1 348 0 is_stmt 0 discriminator 2
 590 0354 FFF7FEFF 		bl	RTest_Test_Inputs
 591 0358 0346     		mov	r3, r0
 592 035a 002B     		cmp	r3, #0
 593 035c 06D1     		bne	.L39
 594              		.loc 1 348 0 discriminator 1
 595 035e 584B     		ldr	r3, .L54
 596 0360 5B78     		ldrb	r3, [r3, #1]	@ zero_extendqisi2
 597 0362 1A46     		mov	r2, r3
ARM GAS  C:\Users\MARTHN~1\AppData\Local\Temp\ccYtCv5j.s 			page 18


 598 0364 574B     		ldr	r3, .L54+4
 599 0366 9B5C     		ldrb	r3, [r3, r2]	@ zero_extendqisi2
 600 0368 462B     		cmp	r3, #70
 601 036a F3D1     		bne	.L40
 602              	.L39:
 349:RelayTest.c   ****             {}   
 350:RelayTest.c   ****             
 351:RelayTest.c   ****             RTest_20ms_isr_EN = 0;
 603              		.loc 1 351 0 is_stmt 1
 604 036c 574B     		ldr	r3, .L54+12
 605 036e 0022     		movs	r2, #0
 606 0370 1A80     		strh	r2, [r3]	@ movhi
 352:RelayTest.c   ****             
 353:RelayTest.c   ****             if(RTestStatus[CurrentTest.TestStep] != 'F')                                   // If no
 607              		.loc 1 353 0
 608 0372 534B     		ldr	r3, .L54
 609 0374 5B78     		ldrb	r3, [r3, #1]	@ zero_extendqisi2
 610 0376 1A46     		mov	r2, r3
 611 0378 524B     		ldr	r3, .L54+4
 612 037a 9B5C     		ldrb	r3, [r3, r2]	@ zero_extendqisi2
 613 037c 462B     		cmp	r3, #70
 614 037e 05D0     		beq	.L41
 354:RelayTest.c   ****                 RTestStatus[CurrentTest.TestStep] = 'P';
 615              		.loc 1 354 0
 616 0380 4F4B     		ldr	r3, .L54
 617 0382 5B78     		ldrb	r3, [r3, #1]	@ zero_extendqisi2
 618 0384 1A46     		mov	r2, r3
 619 0386 4F4B     		ldr	r3, .L54+4
 620 0388 5021     		movs	r1, #80
 621 038a 9954     		strb	r1, [r3, r2]
 622              	.L41:
 355:RelayTest.c   ****                 
 356:RelayTest.c   ****             CurrentTest.TestStep = VBATT;                
 623              		.loc 1 356 0
 624 038c 4C4B     		ldr	r3, .L54
 625 038e 0E22     		movs	r2, #14
 626 0390 5A70     		strb	r2, [r3, #1]
 357:RelayTest.c   ****         break;          
 627              		.loc 1 357 0
 628 0392 90E0     		b	.L2
 629              	.L14:
 358:RelayTest.c   **** 
 359:RelayTest.c   ****         case VBATT:                                     // Tested and working
 360:RelayTest.c   ****                 
 361:RelayTest.c   ****             RTestStatus[CurrentTest.TestStep] = 'B';
 630              		.loc 1 361 0
 631 0394 4A4B     		ldr	r3, .L54
 632 0396 5B78     		ldrb	r3, [r3, #1]	@ zero_extendqisi2
 633 0398 1A46     		mov	r2, r3
 634 039a 4A4B     		ldr	r3, .L54+4
 635 039c 4221     		movs	r1, #66
 636 039e 9954     		strb	r1, [r3, r2]
 362:RelayTest.c   **** 
 363:RelayTest.c   ****             RTest_20ms_isr_count = 0;
 637              		.loc 1 363 0
 638 03a0 494B     		ldr	r3, .L54+8
 639 03a2 0022     		movs	r2, #0
ARM GAS  C:\Users\MARTHN~1\AppData\Local\Temp\ccYtCv5j.s 			page 19


 640 03a4 1A80     		strh	r2, [r3]	@ movhi
 364:RelayTest.c   ****             RTest_20ms_isr_EN = 1;            
 641              		.loc 1 364 0
 642 03a6 494B     		ldr	r3, .L54+12
 643 03a8 0122     		movs	r2, #1
 644 03aa 1A80     		strh	r2, [r3]	@ movhi
 365:RelayTest.c   ****                 
 366:RelayTest.c   ****             while( (!RTest_Test_Vbatt()) && (RTestStatus[CurrentTest.TestStep] != 'F') )
 645              		.loc 1 366 0
 646 03ac 00BF     		nop
 647              	.L43:
 648              		.loc 1 366 0 is_stmt 0 discriminator 2
 649 03ae FFF7FEFF 		bl	RTest_Test_Vbatt
 650 03b2 0346     		mov	r3, r0
 651 03b4 002B     		cmp	r3, #0
 652 03b6 06D1     		bne	.L42
 653              		.loc 1 366 0 discriminator 1
 654 03b8 414B     		ldr	r3, .L54
 655 03ba 5B78     		ldrb	r3, [r3, #1]	@ zero_extendqisi2
 656 03bc 1A46     		mov	r2, r3
 657 03be 414B     		ldr	r3, .L54+4
 658 03c0 9B5C     		ldrb	r3, [r3, r2]	@ zero_extendqisi2
 659 03c2 462B     		cmp	r3, #70
 660 03c4 F3D1     		bne	.L43
 661              	.L42:
 367:RelayTest.c   ****             {}    
 368:RelayTest.c   ****             
 369:RelayTest.c   ****             RTest_20ms_isr_EN = 0;
 662              		.loc 1 369 0 is_stmt 1
 663 03c6 414B     		ldr	r3, .L54+12
 664 03c8 0022     		movs	r2, #0
 665 03ca 1A80     		strh	r2, [r3]	@ movhi
 370:RelayTest.c   ****             
 371:RelayTest.c   ****             if(RTestStatus[CurrentTest.TestStep] != 'F')                                   // If no
 666              		.loc 1 371 0
 667 03cc 3C4B     		ldr	r3, .L54
 668 03ce 5B78     		ldrb	r3, [r3, #1]	@ zero_extendqisi2
 669 03d0 1A46     		mov	r2, r3
 670 03d2 3C4B     		ldr	r3, .L54+4
 671 03d4 9B5C     		ldrb	r3, [r3, r2]	@ zero_extendqisi2
 672 03d6 462B     		cmp	r3, #70
 673 03d8 05D0     		beq	.L44
 372:RelayTest.c   ****                 RTestStatus[CurrentTest.TestStep] = 'P';
 674              		.loc 1 372 0
 675 03da 394B     		ldr	r3, .L54
 676 03dc 5B78     		ldrb	r3, [r3, #1]	@ zero_extendqisi2
 677 03de 1A46     		mov	r2, r3
 678 03e0 384B     		ldr	r3, .L54+4
 679 03e2 5021     		movs	r1, #80
 680 03e4 9954     		strb	r1, [r3, r2]
 681              	.L44:
 373:RelayTest.c   ****             
 374:RelayTest.c   ****             CurrentTest.TestStep = BLOCK_CURRENTS;                
 682              		.loc 1 374 0
 683 03e6 364B     		ldr	r3, .L54
 684 03e8 0F22     		movs	r2, #15
 685 03ea 5A70     		strb	r2, [r3, #1]
ARM GAS  C:\Users\MARTHN~1\AppData\Local\Temp\ccYtCv5j.s 			page 20


 375:RelayTest.c   ****         break; 
 686              		.loc 1 375 0
 687 03ec 63E0     		b	.L2
 688              	.L15:
 376:RelayTest.c   ****          
 377:RelayTest.c   ****         case BLOCK_CURRENTS:                            //*** Tested and working
 378:RelayTest.c   ****             
 379:RelayTest.c   ****             SetRelayOutputs(1);                         // Send command to turn on relay outputs
 689              		.loc 1 379 0
 690 03ee 0120     		movs	r0, #1
 691 03f0 FFF7FEFF 		bl	SetRelayOutputs
 380:RelayTest.c   ****                 
 381:RelayTest.c   ****             RTestStatus[CurrentTest.TestStep] = 'B';
 692              		.loc 1 381 0
 693 03f4 324B     		ldr	r3, .L54
 694 03f6 5B78     		ldrb	r3, [r3, #1]	@ zero_extendqisi2
 695 03f8 1A46     		mov	r2, r3
 696 03fa 324B     		ldr	r3, .L54+4
 697 03fc 4221     		movs	r1, #66
 698 03fe 9954     		strb	r1, [r3, r2]
 382:RelayTest.c   **** 
 383:RelayTest.c   ****             RTest_20ms_isr_count = 0;                   // Start timeout
 699              		.loc 1 383 0
 700 0400 314B     		ldr	r3, .L54+8
 701 0402 0022     		movs	r2, #0
 702 0404 1A80     		strh	r2, [r3]	@ movhi
 384:RelayTest.c   ****             RTest_20ms_isr_EN = 1;            
 703              		.loc 1 384 0
 704 0406 314B     		ldr	r3, .L54+12
 705 0408 0122     		movs	r2, #1
 706 040a 1A80     		strh	r2, [r3]	@ movhi
 385:RelayTest.c   ****             
 386:RelayTest.c   ****             while( (!RTest_Test_BlockCurrents()) && (RTestStatus[CurrentTest.TestStep] != 'F') )
 707              		.loc 1 386 0
 708 040c 00BF     		nop
 709              	.L46:
 710              		.loc 1 386 0 is_stmt 0 discriminator 2
 711 040e FFF7FEFF 		bl	RTest_Test_BlockCurrents
 712 0412 0346     		mov	r3, r0
 713 0414 002B     		cmp	r3, #0
 714 0416 06D1     		bne	.L45
 715              		.loc 1 386 0 discriminator 1
 716 0418 294B     		ldr	r3, .L54
 717 041a 5B78     		ldrb	r3, [r3, #1]	@ zero_extendqisi2
 718 041c 1A46     		mov	r2, r3
 719 041e 294B     		ldr	r3, .L54+4
 720 0420 9B5C     		ldrb	r3, [r3, r2]	@ zero_extendqisi2
 721 0422 462B     		cmp	r3, #70
 722 0424 F3D1     		bne	.L46
 723              	.L45:
 387:RelayTest.c   ****             {} 
 388:RelayTest.c   ****             
 389:RelayTest.c   ****             RTest_20ms_isr_EN = 0;                      // Stop timeout
 724              		.loc 1 389 0 is_stmt 1
 725 0426 294B     		ldr	r3, .L54+12
 726 0428 0022     		movs	r2, #0
 727 042a 1A80     		strh	r2, [r3]	@ movhi
ARM GAS  C:\Users\MARTHN~1\AppData\Local\Temp\ccYtCv5j.s 			page 21


 390:RelayTest.c   ****             
 391:RelayTest.c   ****             SetRelayOutputs(0);                         // Send command to turn off relay outputs
 728              		.loc 1 391 0
 729 042c 0020     		movs	r0, #0
 730 042e FFF7FEFF 		bl	SetRelayOutputs
 392:RelayTest.c   ****             
 393:RelayTest.c   ****             if(RTestStatus[CurrentTest.TestStep] != 'F')       // If not failed, then pass
 731              		.loc 1 393 0
 732 0432 234B     		ldr	r3, .L54
 733 0434 5B78     		ldrb	r3, [r3, #1]	@ zero_extendqisi2
 734 0436 1A46     		mov	r2, r3
 735 0438 224B     		ldr	r3, .L54+4
 736 043a 9B5C     		ldrb	r3, [r3, r2]	@ zero_extendqisi2
 737 043c 462B     		cmp	r3, #70
 738 043e 05D0     		beq	.L47
 394:RelayTest.c   ****                 RTestStatus[CurrentTest.TestStep] = 'P';
 739              		.loc 1 394 0
 740 0440 1F4B     		ldr	r3, .L54
 741 0442 5B78     		ldrb	r3, [r3, #1]	@ zero_extendqisi2
 742 0444 1A46     		mov	r2, r3
 743 0446 1F4B     		ldr	r3, .L54+4
 744 0448 5021     		movs	r1, #80
 745 044a 9954     		strb	r1, [r3, r2]
 746              	.L47:
 395:RelayTest.c   ****                 
 396:RelayTest.c   ****             //TestState = INITIALIZE_TEST;
 397:RelayTest.c   ****             CurrentTest.TestStep = GPS;  
 747              		.loc 1 397 0
 748 044c 1C4B     		ldr	r3, .L54
 749 044e 1022     		movs	r2, #16
 750 0450 5A70     		strb	r2, [r3, #1]
 398:RelayTest.c   ****         break; 
 751              		.loc 1 398 0
 752 0452 30E0     		b	.L2
 753              	.L16:
 399:RelayTest.c   ****     //---------------------------------------------------------------------------------------------
 400:RelayTest.c   ****         case GPS:         
 401:RelayTest.c   ****                 
 402:RelayTest.c   ****             RTestStatus[CurrentTest.TestStep] = 'B';
 754              		.loc 1 402 0
 755 0454 1A4B     		ldr	r3, .L54
 756 0456 5B78     		ldrb	r3, [r3, #1]	@ zero_extendqisi2
 757 0458 1A46     		mov	r2, r3
 758 045a 1A4B     		ldr	r3, .L54+4
 759 045c 4221     		movs	r1, #66
 760 045e 9954     		strb	r1, [r3, r2]
 403:RelayTest.c   **** 
 404:RelayTest.c   ****             RTest_20ms_isr_count = 0;
 761              		.loc 1 404 0
 762 0460 194B     		ldr	r3, .L54+8
 763 0462 0022     		movs	r2, #0
 764 0464 1A80     		strh	r2, [r3]	@ movhi
 405:RelayTest.c   ****             RTest_20ms_isr_EN = 1;            
 765              		.loc 1 405 0
 766 0466 194B     		ldr	r3, .L54+12
 767 0468 0122     		movs	r2, #1
 768 046a 1A80     		strh	r2, [r3]	@ movhi
ARM GAS  C:\Users\MARTHN~1\AppData\Local\Temp\ccYtCv5j.s 			page 22


 406:RelayTest.c   ****                 
 407:RelayTest.c   ****             while( (!RTest_Test_GPS()) && (RTestStatus[CurrentTest.TestStep] != 'F') )
 769              		.loc 1 407 0
 770 046c 00BF     		nop
 771              	.L49:
 772              		.loc 1 407 0 is_stmt 0 discriminator 2
 773 046e FFF7FEFF 		bl	RTest_Test_GPS
 774 0472 0346     		mov	r3, r0
 775 0474 002B     		cmp	r3, #0
 776 0476 06D1     		bne	.L48
 777              		.loc 1 407 0 discriminator 1
 778 0478 114B     		ldr	r3, .L54
 779 047a 5B78     		ldrb	r3, [r3, #1]	@ zero_extendqisi2
 780 047c 1A46     		mov	r2, r3
 781 047e 114B     		ldr	r3, .L54+4
 782 0480 9B5C     		ldrb	r3, [r3, r2]	@ zero_extendqisi2
 783 0482 462B     		cmp	r3, #70
 784 0484 F3D1     		bne	.L49
 785              	.L48:
 408:RelayTest.c   ****             {}        
 409:RelayTest.c   ****             
 410:RelayTest.c   ****             RTest_20ms_isr_EN = 0;
 786              		.loc 1 410 0 is_stmt 1
 787 0486 114B     		ldr	r3, .L54+12
 788 0488 0022     		movs	r2, #0
 789 048a 1A80     		strh	r2, [r3]	@ movhi
 411:RelayTest.c   ****             
 412:RelayTest.c   ****             if(RTestStatus[CurrentTest.TestStep] != 'F')                                   // If no
 790              		.loc 1 412 0
 791 048c 0C4B     		ldr	r3, .L54
 792 048e 5B78     		ldrb	r3, [r3, #1]	@ zero_extendqisi2
 793 0490 1A46     		mov	r2, r3
 794 0492 0C4B     		ldr	r3, .L54+4
 795 0494 9B5C     		ldrb	r3, [r3, r2]	@ zero_extendqisi2
 796 0496 462B     		cmp	r3, #70
 797 0498 05D0     		beq	.L50
 413:RelayTest.c   ****                 RTestStatus[CurrentTest.TestStep] = 'P';
 798              		.loc 1 413 0
 799 049a 094B     		ldr	r3, .L54
 800 049c 5B78     		ldrb	r3, [r3, #1]	@ zero_extendqisi2
 801 049e 1A46     		mov	r2, r3
 802 04a0 084B     		ldr	r3, .L54+4
 803 04a2 5021     		movs	r1, #80
 804 04a4 9954     		strb	r1, [r3, r2]
 805              	.L50:
 414:RelayTest.c   ****             
 415:RelayTest.c   ****             CyDelay(1000);
 806              		.loc 1 415 0
 807 04a6 4FF47A70 		mov	r0, #1000
 808 04aa FFF7FEFF 		bl	CyDelay
 416:RelayTest.c   ****             CurrentTest.TestStep = INITIALIZE_TEST;                
 809              		.loc 1 416 0
 810 04ae 044B     		ldr	r3, .L54
 811 04b0 0022     		movs	r2, #0
 812 04b2 5A70     		strb	r2, [r3, #1]
 417:RelayTest.c   ****         break;   
 813              		.loc 1 417 0
ARM GAS  C:\Users\MARTHN~1\AppData\Local\Temp\ccYtCv5j.s 			page 23


 814 04b4 00BF     		nop
 815              	.L2:
 418:RelayTest.c   ****             
 419:RelayTest.c   ****         case FAIL:  
 420:RelayTest.c   ****         
 421:RelayTest.c   ****         break;          
 422:RelayTest.c   ****            
 423:RelayTest.c   ****     }
 424:RelayTest.c   ****       
 425:RelayTest.c   ****     return(0);
 816              		.loc 1 425 0
 817 04b6 0023     		movs	r3, #0
 426:RelayTest.c   ****     
 427:RelayTest.c   **** }
 818              		.loc 1 427 0
 819 04b8 1846     		mov	r0, r3
 820 04ba 0837     		adds	r7, r7, #8
 821              		.cfi_def_cfa_offset 8
 822 04bc BD46     		mov	sp, r7
 823              		.cfi_def_cfa_register 13
 824              		@ sp needed
 825 04be 80BD     		pop	{r7, pc}
 826              	.L55:
 827              		.align	2
 828              	.L54:
 829 04c0 00000000 		.word	CurrentTest
 830 04c4 0C010000 		.word	RTestStatus
 831 04c8 08010000 		.word	RTest_20ms_isr_count
 832 04cc 0A010000 		.word	RTest_20ms_isr_EN
 833              		.cfi_endproc
 834              	.LFE63:
 835              		.size	RelayTest, .-RelayTest
 836              		.section	.text.RTest_Test_Outputs,"ax",%progbits
 837              		.align	2
 838              		.global	RTest_Test_Outputs
 839              		.thumb
 840              		.thumb_func
 841              		.type	RTest_Test_Outputs, %function
 842              	RTest_Test_Outputs:
 843              	.LFB64:
 428:RelayTest.c   **** 
 429:RelayTest.c   **** /* 230400bps ********************************************************************************
 430:RelayTest.c   **** *  Send 'P' packet (or 'I' packet)   (controller to relay)  - turn on all relay outputs
 431:RelayTest.c   **** *  Read Hardware                            - read each input, verify all are active
 432:RelayTest.c   **** *  Return: Pass/Fail
 433:RelayTest.c   **** *********************************************************************************************/
 434:RelayTest.c   **** uint8 RTest_Test_Outputs(void)
 435:RelayTest.c   **** {
 844              		.loc 1 435 0
 845              		.cfi_startproc
 846              		@ args = 0, pretend = 0, frame = 8
 847              		@ frame_needed = 1, uses_anonymous_args = 0
 848 0000 80B5     		push	{r7, lr}
 849              		.cfi_def_cfa_offset 8
 850              		.cfi_offset 7, -8
 851              		.cfi_offset 14, -4
 852 0002 82B0     		sub	sp, sp, #8
ARM GAS  C:\Users\MARTHN~1\AppData\Local\Temp\ccYtCv5j.s 			page 24


 853              		.cfi_def_cfa_offset 16
 854 0004 00AF     		add	r7, sp, #0
 855              		.cfi_def_cfa_register 7
 436:RelayTest.c   **** 
 437:RelayTest.c   ****     //DEMUX_CTRL_230400_Write(RTEST_CONT);                // Tx - Select the demux channel
 438:RelayTest.c   ****     pTxPacket_RelaySiren = getTxPacket_RelaySiren();              // Tx - Get pointers to packet   
 856              		.loc 1 438 0
 857 0006 FFF7FEFF 		bl	getTxPacket_RelaySiren
 858 000a 0246     		mov	r2, r0
 859 000c 204B     		ldr	r3, .L61
 860 000e 1A60     		str	r2, [r3]
 439:RelayTest.c   ****     
 440:RelayTest.c   ****     pTxPacket_RelaySiren->Payload.Outputs_1to8 = 0xFF;       // Turn on all outputs
 861              		.loc 1 440 0
 862 0010 1F4B     		ldr	r3, .L61
 863 0012 1B68     		ldr	r3, [r3]
 864 0014 FF22     		movs	r2, #255
 865 0016 83F84520 		strb	r2, [r3, #69]
 441:RelayTest.c   ****     pTxPacket_RelaySiren->Payload.Outputs_25to32 = 0xFF; 
 866              		.loc 1 441 0
 867 001a 1D4B     		ldr	r3, .L61
 868 001c 1B68     		ldr	r3, [r3]
 869 001e FF22     		movs	r2, #255
 870 0020 83F84820 		strb	r2, [r3, #72]
 442:RelayTest.c   ****     pTxPacket_RelaySiren->Payload.Outputs_9to16 = 0xFF;
 871              		.loc 1 442 0
 872 0024 1A4B     		ldr	r3, .L61
 873 0026 1B68     		ldr	r3, [r3]
 874 0028 FF22     		movs	r2, #255
 875 002a 83F84620 		strb	r2, [r3, #70]
 443:RelayTest.c   ****     pTxPacket_RelaySiren->Payload.Outputs_17to24 = 0xFF;
 876              		.loc 1 443 0
 877 002e 184B     		ldr	r3, .L61
 878 0030 1B68     		ldr	r3, [r3]
 879 0032 FF22     		movs	r2, #255
 880 0034 83F84720 		strb	r2, [r3, #71]
 444:RelayTest.c   ****     
 445:RelayTest.c   ****     //while(1);
 446:RelayTest.c   ****     
 447:RelayTest.c   ****     uint32 OutputsState = 0;
 881              		.loc 1 447 0
 882 0038 0023     		movs	r3, #0
 883 003a 3B60     		str	r3, [r7]
 884              	.LBB4:
 448:RelayTest.c   ****     static uint32 channel = 0;
 449:RelayTest.c   ****     
 450:RelayTest.c   ****     //*** Address channel 'channel 0-31' in hardware
 451:RelayTest.c   ****     //selectADCChannelMux(0);                           //*** This needs to be fleshed out when har
 452:RelayTest.c   ****     
 453:RelayTest.c   ****     for (uint8 channel=0; channel<32; channel++)
 885              		.loc 1 453 0
 886 003c 0023     		movs	r3, #0
 887 003e FB71     		strb	r3, [r7, #7]
 888 0040 02E0     		b	.L57
 889              	.L58:
 890              		.loc 1 453 0 is_stmt 0 discriminator 3
 891 0042 FB79     		ldrb	r3, [r7, #7]	@ zero_extendqisi2
ARM GAS  C:\Users\MARTHN~1\AppData\Local\Temp\ccYtCv5j.s 			page 25


 892 0044 0133     		adds	r3, r3, #1
 893 0046 FB71     		strb	r3, [r7, #7]
 894              	.L57:
 895              		.loc 1 453 0 discriminator 1
 896 0048 FB79     		ldrb	r3, [r7, #7]	@ zero_extendqisi2
 897 004a 1F2B     		cmp	r3, #31
 898 004c F9D9     		bls	.L58
 899              	.LBE4:
 454:RelayTest.c   ****     {
 455:RelayTest.c   ****         //*** Address channel 'channel'
 456:RelayTest.c   ****         // OutputsState = ( RTest_INPUT_DEMUX | (RTest_INPUT_DEMUX << channel) )    // Read RTest_I
 457:RelayTest.c   ****     }
 458:RelayTest.c   ****     
 459:RelayTest.c   ****     pTxPacket_RelaySiren->Payload.Outputs_1to8 = 0x00;       // Turn off all Relay outputs
 900              		.loc 1 459 0 is_stmt 1
 901 004e 104B     		ldr	r3, .L61
 902 0050 1B68     		ldr	r3, [r3]
 903 0052 0022     		movs	r2, #0
 904 0054 83F84520 		strb	r2, [r3, #69]
 460:RelayTest.c   ****     pTxPacket_RelaySiren->Payload.Outputs_9to16 = 0x00;
 905              		.loc 1 460 0
 906 0058 0D4B     		ldr	r3, .L61
 907 005a 1B68     		ldr	r3, [r3]
 908 005c 0022     		movs	r2, #0
 909 005e 83F84620 		strb	r2, [r3, #70]
 461:RelayTest.c   ****     pTxPacket_RelaySiren->Payload.Outputs_17to24 = 0x00;
 910              		.loc 1 461 0
 911 0062 0B4B     		ldr	r3, .L61
 912 0064 1B68     		ldr	r3, [r3]
 913 0066 0022     		movs	r2, #0
 914 0068 83F84720 		strb	r2, [r3, #71]
 462:RelayTest.c   ****     pTxPacket_RelaySiren->Payload.Outputs_25to32 = 0x00;
 915              		.loc 1 462 0
 916 006c 084B     		ldr	r3, .L61
 917 006e 1B68     		ldr	r3, [r3]
 918 0070 0022     		movs	r2, #0
 919 0072 83F84820 		strb	r2, [r3, #72]
 463:RelayTest.c   ****     
 464:RelayTest.c   ****     if(OutputsState == 0xFFFFFF)
 920              		.loc 1 464 0
 921 0076 3B68     		ldr	r3, [r7]
 922 0078 6FF07F42 		mvn	r2, #-16777216
 923 007c 9342     		cmp	r3, r2
 924 007e 01D1     		bne	.L59
 465:RelayTest.c   ****         return(1);                                      // If all outputs are turned on, then retur
 925              		.loc 1 465 0
 926 0080 0123     		movs	r3, #1
 927 0082 00E0     		b	.L60
 928              	.L59:
 466:RelayTest.c   ****     else
 467:RelayTest.c   ****         return(0);                                      // If not pass, then return fail
 929              		.loc 1 467 0
 930 0084 0023     		movs	r3, #0
 931              	.L60:
 468:RelayTest.c   **** }
 932              		.loc 1 468 0
 933 0086 1846     		mov	r0, r3
ARM GAS  C:\Users\MARTHN~1\AppData\Local\Temp\ccYtCv5j.s 			page 26


 934 0088 0837     		adds	r7, r7, #8
 935              		.cfi_def_cfa_offset 8
 936 008a BD46     		mov	sp, r7
 937              		.cfi_def_cfa_register 13
 938              		@ sp needed
 939 008c 80BD     		pop	{r7, pc}
 940              	.L62:
 941 008e 00BF     		.align	2
 942              	.L61:
 943 0090 78000000 		.word	pTxPacket_RelaySiren
 944              		.cfi_endproc
 945              	.LFE64:
 946              		.size	RTest_Test_Outputs, .-RTest_Test_Outputs
 947              		.section	.text.RTest_Test_DataLink,"ax",%progbits
 948              		.align	2
 949              		.global	RTest_Test_DataLink
 950              		.thumb
 951              		.thumb_func
 952              		.type	RTest_Test_DataLink, %function
 953              	RTest_Test_DataLink:
 954              	.LFB65:
 469:RelayTest.c   **** 
 470:RelayTest.c   **** /* 230400/115200bps **************************************************************************
 471:RelayTest.c   **** *  230400 - Tx - Send 'S' packet   (controller to relay/siren)    - turn on all relay outputs
 472:RelayTest.c   **** *  115200 - Rx - Read 'S' packet   (relay to datalink device)     - verify successful packet recept
 473:RelayTest.c   **** *  Return: Pass/Fail
 474:RelayTest.c   **** *********************************************************************************************/
 475:RelayTest.c   **** uint8 RTest_Test_DataLink(void)
 476:RelayTest.c   **** {
 955              		.loc 1 476 0
 956              		.cfi_startproc
 957              		@ args = 0, pretend = 0, frame = 0
 958              		@ frame_needed = 1, uses_anonymous_args = 0
 959              		@ link register save eliminated.
 960 0000 80B4     		push	{r7}
 961              		.cfi_def_cfa_offset 4
 962              		.cfi_offset 7, -4
 963 0002 00AF     		add	r7, sp, #0
 964              		.cfi_def_cfa_register 7
 477:RelayTest.c   ****     
 478:RelayTest.c   **** //    //*** 230400bps - Send simulated controller packet - (siren packet)
 479:RelayTest.c   **** //    //  (I think this packet should be sent all the time)
 480:RelayTest.c   **** //        pTxPacket_Relay->Payload.Siren1Tone;
 481:RelayTest.c   **** //        pTxPacket_Relay->Payload.Siren2Tone;
 482:RelayTest.c   **** //        pTxPacket_Relay->Payload.SirenEnable;
 483:RelayTest.c   ****     
 484:RelayTest.c   **** //    //MUX_CTRL_115200_Write(RTEST_DLINK1);            //Select the RTest_RS485_DLink1_RX channel 
 485:RelayTest.c   **** //    while( !VerifyPacket_115200(RTEST_DLINK1) )     //Read and verify datalink packet
 486:RelayTest.c   **** //    {}
 487:RelayTest.c   **** //    //MUX_CTRL_115200_Write(RTEST_DLINK2);            //Select the RTest_RS485_DLink1_RX channel 
 488:RelayTest.c   **** //    while( !VerifyPacket_115200(RTEST_DLINK2) )     //Read and verify datalink packet
 489:RelayTest.c   **** //    {}
 490:RelayTest.c   ****     
 491:RelayTest.c   ****     return(1);                                      // If both packets get verified, then return pa
 965              		.loc 1 491 0
 966 0004 0123     		movs	r3, #1
 492:RelayTest.c   **** }
ARM GAS  C:\Users\MARTHN~1\AppData\Local\Temp\ccYtCv5j.s 			page 27


 967              		.loc 1 492 0
 968 0006 1846     		mov	r0, r3
 969 0008 BD46     		mov	sp, r7
 970              		.cfi_def_cfa_register 13
 971              		@ sp needed
 972 000a 80BC     		pop	{r7}
 973              		.cfi_restore 7
 974              		.cfi_def_cfa_offset 0
 975 000c 7047     		bx	lr
 976              		.cfi_endproc
 977              	.LFE65:
 978              		.size	RTest_Test_DataLink, .-RTest_Test_DataLink
 979 000e 00BF     		.section	.text.RTest_Test_UART_Siren,"ax",%progbits
 980              		.align	2
 981              		.global	RTest_Test_UART_Siren
 982              		.thumb
 983              		.thumb_func
 984              		.type	RTest_Test_UART_Siren, %function
 985              	RTest_Test_UART_Siren:
 986              	.LFB66:
 493:RelayTest.c   **** 
 494:RelayTest.c   **** /* 460800bps ********************************************************************************
 495:RelayTest.c   **** *  Send 'L' packet   (controller to relay)
 496:RelayTest.c   **** *  Read 'L' packet   (relay to quad device)  - verify successful packet reception
 497:RelayTest.c   **** *  Return: Pass/Fail
 498:RelayTest.c   **** *********************************************************************************************/
 499:RelayTest.c   **** //uint8 RTest_Test_QuadPorts(uint8 muxchannel)
 500:RelayTest.c   **** //{
 501:RelayTest.c   **** //    //static uint8 muxchannelsuccess[8] = {0,0,0,0,0,0,0,0};
 502:RelayTest.c   **** //    //uint8 muxchannel = 0;
 503:RelayTest.c   **** //
 504:RelayTest.c   **** //    DEMUX_CTRL_460800_Write(RTEST_QUAD_TX);             // Tx - Select Quad_Tx demux channel
 505:RelayTest.c   **** //    //DEMUX_CTRL_460800_Write(RTEST_QUAD_TX);             // Tx - Select Quad_Tx demux channel
 506:RelayTest.c   **** //    
 507:RelayTest.c   **** ////    //*** Select the mux channel to test - need to do all of them sequentially
 508:RelayTest.c   **** ////    //MUX_CTRL_460800_Write(0);           // *** just for test
 509:RelayTest.c   **** //////    MUX_CTRL_460800_Write(muxchannel);
 510:RelayTest.c   **** //////    
 511:RelayTest.c   **** //////    if( VerifyPacket_460800(CTEST_RTEST_QUAD) )
 512:RelayTest.c   **** //////            muxchannelsuccess[muxchannel]++;
 513:RelayTest.c   **** ////    
 514:RelayTest.c   **** ////    for(uint8 muxchannel = 0; muxchannel < 8; muxchannel++)
 515:RelayTest.c   **** ////    {
 516:RelayTest.c   **** ////        MUX_CTRL_460800_Write(muxchannel);
 517:RelayTest.c   **** ////        
 518:RelayTest.c   **** ////        RTest_StartAutomatedStep();
 519:RelayTest.c   **** ////        
 520:RelayTest.c   **** //////        if( VerifyPacket_460800(CTEST_RTEST_QUAD) )
 521:RelayTest.c   **** //////            muxchannelsuccess[muxchannel]++;
 522:RelayTest.c   **** ////            
 523:RelayTest.c   **** //////        if( muxchannelsuccess[muxchannel] > 10)
 524:RelayTest.c   **** //////            muxchannelsuccess[muxchannel] = 0;
 525:RelayTest.c   **** ////
 526:RelayTest.c   **** ////        
 527:RelayTest.c   **** ////        while( !VerifyPacket_460800(CTEST_RTEST_QUAD) )
 528:RelayTest.c   **** ////        {}
 529:RelayTest.c   **** ////        LED_EN_Write(0);
ARM GAS  C:\Users\MARTHN~1\AppData\Local\Temp\ccYtCv5j.s 			page 28


 530:RelayTest.c   **** ////        
 531:RelayTest.c   **** ////        RTest_StopAutomatedStep();
 532:RelayTest.c   **** ////        
 533:RelayTest.c   **** ////        //if(CurrentTest.TestStep =
 534:RelayTest.c   **** //        
 535:RelayTest.c   **** ////    }
 536:RelayTest.c   **** ////    
 537:RelayTest.c   **** ////
 538:RelayTest.c   **** ////    
 539:RelayTest.c   **** //////    if(muxchannelsuccess[muxchannel] == )
 540:RelayTest.c   **** ////
 541:RelayTest.c   **** ////    //return(1);          // If pass return a 1
 542:RelayTest.c   **** ////    return(0);          // else
 543:RelayTest.c   **** //    
 544:RelayTest.c   **** //    return( VerifyPacket_460800(CTEST_RTEST_QUAD) );
 545:RelayTest.c   **** //    return( VerifyPacket_460800(CTEST_RTEST_QUAD) );
 546:RelayTest.c   **** //}
 547:RelayTest.c   **** 
 548:RelayTest.c   **** //*** This needs some work
 549:RelayTest.c   **** /* 230400bps ********************************************************************************
 550:RelayTest.c   **** *  ***Send 'H' packet   (siren to relay)
 551:RelayTest.c   **** *  ***Read 'D' packet   (relay to controller)   - verify successful packet reception
 552:RelayTest.c   **** *  Return: Pass/Fail
 553:RelayTest.c   **** *********************************************************************************************/
 554:RelayTest.c   **** uint8 RTest_Test_UART_Siren(void)
 555:RelayTest.c   **** {
 987              		.loc 1 555 0
 988              		.cfi_startproc
 989              		@ args = 0, pretend = 0, frame = 0
 990              		@ frame_needed = 1, uses_anonymous_args = 0
 991 0000 80B5     		push	{r7, lr}
 992              		.cfi_def_cfa_offset 8
 993              		.cfi_offset 7, -8
 994              		.cfi_offset 14, -4
 995 0002 00AF     		add	r7, sp, #0
 996              		.cfi_def_cfa_register 7
 556:RelayTest.c   **** // We need to send a Siren packet (through relay to controller) - ***passes through the micro
 557:RelayTest.c   **** // Then check that the packet going from the relay to the controller    
 558:RelayTest.c   ****    
 559:RelayTest.c   ****     // test receive from siren
 560:RelayTest.c   ****     //DEMUX_CTRL_230400_Write(RTEST_SIREN);                  // Rx - Select the demux channel
 561:RelayTest.c   **** 
 562:RelayTest.c   ****     pTxPacket_H = getTxPacket_H();                          // Load the packet with data to check f
 997              		.loc 1 562 0
 998 0004 FFF7FEFF 		bl	getTxPacket_H
 999 0008 0246     		mov	r2, r0
 1000 000a 0E4B     		ldr	r3, .L67
 1001 000c 1A60     		str	r2, [r3]
 563:RelayTest.c   ****     pTxPacket_H->Payload.SirenFirm_0 = 's';
 1002              		.loc 1 563 0
 1003 000e 0D4B     		ldr	r3, .L67
 1004 0010 1B68     		ldr	r3, [r3]
 1005 0012 7322     		movs	r2, #115
 1006 0014 1A70     		strb	r2, [r3]
 564:RelayTest.c   ****     pTxPacket_H->Payload.SirenFirm_1 = 's';
 1007              		.loc 1 564 0
 1008 0016 0B4B     		ldr	r3, .L67
ARM GAS  C:\Users\MARTHN~1\AppData\Local\Temp\ccYtCv5j.s 			page 29


 1009 0018 1B68     		ldr	r3, [r3]
 1010 001a 7322     		movs	r2, #115
 1011 001c 5A70     		strb	r2, [r3, #1]
 565:RelayTest.c   ****     pTxPacket_H->Payload.SirenFirm_2 = 's';
 1012              		.loc 1 565 0
 1013 001e 094B     		ldr	r3, .L67
 1014 0020 1B68     		ldr	r3, [r3]
 1015 0022 7322     		movs	r2, #115
 1016 0024 9A70     		strb	r2, [r3, #2]
 566:RelayTest.c   ****     pTxPacket_H->Payload.Speaker1_Overcurrent = 's';
 1017              		.loc 1 566 0
 1018 0026 074B     		ldr	r3, .L67
 1019 0028 1B68     		ldr	r3, [r3]
 1020 002a 7322     		movs	r2, #115
 1021 002c DA70     		strb	r2, [r3, #3]
 567:RelayTest.c   ****     pTxPacket_H->Payload.Speaker2_Overcurrent = 's';
 1022              		.loc 1 567 0
 1023 002e 054B     		ldr	r3, .L67
 1024 0030 1B68     		ldr	r3, [r3]
 1025 0032 7322     		movs	r2, #115
 1026 0034 1A71     		strb	r2, [r3, #4]
 568:RelayTest.c   **** 
 569:RelayTest.c   ****     
 570:RelayTest.c   ****     // test transmit to controller ***need tx wires on relay to test
 571:RelayTest.c   ****     MUX_CTRL_230400_Write(RTEST_CONT);                                  // Rx - Select the mux chan
 1027              		.loc 1 571 0
 1028 0036 0120     		movs	r0, #1
 1029 0038 FFF7FEFF 		bl	MUX_CTRL_230400_Write
 572:RelayTest.c   ****     
 573:RelayTest.c   **** //    pRxPacket_Relay = getRxPacket_Relay();                              // Rx - Get pointers to p
 574:RelayTest.c   **** //    while(  (pRxPacket_Relay->Payload.SirenFirm_0 != 's' ) &&           // Wait for the packet to
 575:RelayTest.c   **** //            (pRxPacket_Relay->Payload.SirenFirm_1 != 's' ) &&
 576:RelayTest.c   **** //            (pRxPacket_Relay->Payload.SirenFirm_2 != 's' ) &&
 577:RelayTest.c   **** //            (pRxPacket_Relay->Payload.Speaker1_Overcurrent != 's' ) &&
 578:RelayTest.c   **** //            (pRxPacket_Relay->Payload.Speaker2_Overcurrent != 's' ) )
 579:RelayTest.c   **** //    {}
 580:RelayTest.c   **** //          
 581:RelayTest.c   **** //    LED_EN_Write(1);
 582:RelayTest.c   **** //----------------------------------------------------------------------------------------------
 583:RelayTest.c   ****     
 584:RelayTest.c   **** // ***We need to detect a packet going (from the relay to the siren)
 585:RelayTest.c   **** // Send a 'S' packet (from controller to relay/siren)
 586:RelayTest.c   **** // Read and verify 'S' packets (from relay to siren)
 587:RelayTest.c   ****     
 588:RelayTest.c   ****     //DEMUX_CTRL_230400_Write(RTEST_CONT);                // Tx - Select the demux channel
 589:RelayTest.c   ****     //(no need to load the packet)
 590:RelayTest.c   ****     //CyDelay(100);
 591:RelayTest.c   ****     
 592:RelayTest.c   **** //////    pTxPacket_Relay = getTxPacket_Relay();              // Tx - Get pointers to packet
 593:RelayTest.c   **** //////    pTxPacket_Relay->Payload.SirenFirm_0 = 0;          // Tx - Setup packet with test data
 594:RelayTest.c   **** //////    pTxPacket_Relay->Payload.SirenFirm_1 = 1;
 595:RelayTest.c   **** //////    pTxPacket_Relay->Payload.SirenFirm_2 = 2;
 596:RelayTest.c   **** //////    pTxPacket_Relay->Payload.Speaker1_Overcurrent = 1;
 597:RelayTest.c   **** //////    pTxPacket_Relay->Payload.Speaker2_Overcurrent = 1;
 598:RelayTest.c   ****     
 599:RelayTest.c   ****     //MUX_CTRL_230400_Write(RTEST_SIREN);                                  // Rx - Select the mux c
 600:RelayTest.c   ****     //CyDelay(100);
ARM GAS  C:\Users\MARTHN~1\AppData\Local\Temp\ccYtCv5j.s 			page 30


 601:RelayTest.c   ****     //return( VerifyPacket_230400(STEST_RELAY) );          // Rx - When packet has been verified, r
 602:RelayTest.c   **** 
 603:RelayTest.c   ****     return(0);
 1030              		.loc 1 603 0
 1031 003c 0023     		movs	r3, #0
 604:RelayTest.c   **** }
 1032              		.loc 1 604 0
 1033 003e 1846     		mov	r0, r3
 1034 0040 80BD     		pop	{r7, pc}
 1035              	.L68:
 1036 0042 00BF     		.align	2
 1037              	.L67:
 1038 0044 84000000 		.word	pTxPacket_H
 1039              		.cfi_endproc
 1040              	.LFE66:
 1041              		.size	RTest_Test_UART_Siren, .-RTest_Test_UART_Siren
 1042              		.section	.text.RTest_Test_Inputs,"ax",%progbits
 1043              		.align	2
 1044              		.global	RTest_Test_Inputs
 1045              		.thumb
 1046              		.thumb_func
 1047              		.type	RTest_Test_Inputs, %function
 1048              	RTest_Test_Inputs:
 1049              	.LFB67:
 605:RelayTest.c   **** 
 606:RelayTest.c   **** 
 607:RelayTest.c   **** /* 230400bps *****************************************************************************
 608:RelayTest.c   **** *  Send 'P' packet (controller to relay) - set input logic  
 609:RelayTest.c   **** *  Read 'D' packet (relay to controller) - verify the 'RelayInputs' byte 
 610:RelayTest.c   **** *  Return: Pass/Fail
 611:RelayTest.c   **** ******************************************************************************************/
 612:RelayTest.c   **** uint8 RTest_Test_Inputs(void)
 613:RelayTest.c   **** {
 1050              		.loc 1 613 0
 1051              		.cfi_startproc
 1052              		@ args = 0, pretend = 0, frame = 0
 1053              		@ frame_needed = 1, uses_anonymous_args = 0
 1054 0000 80B5     		push	{r7, lr}
 1055              		.cfi_def_cfa_offset 8
 1056              		.cfi_offset 7, -8
 1057              		.cfi_offset 14, -4
 1058 0002 00AF     		add	r7, sp, #0
 1059              		.cfi_def_cfa_register 7
 614:RelayTest.c   ****     
 615:RelayTest.c   ****     //MUX_CTRL_230400_Write(RTEST_CONT);                  // Rx - Select the mux channel
 616:RelayTest.c   ****     pRxPacket_Relay = getRxPacket_Relay();              // Rx - Get pointers to packet
 1060              		.loc 1 616 0
 1061 0004 FFF7FEFF 		bl	getRxPacket_Relay
 1062 0008 0246     		mov	r2, r0
 1063 000a 0D4B     		ldr	r3, .L72
 1064 000c 1A60     		str	r2, [r3]
 617:RelayTest.c   ****     
 618:RelayTest.c   ****     //DEMUX_CTRL_230400_Write(RTEST_CONT);                // Tx - Select the demux channel
 619:RelayTest.c   ****     pTxPacket_RelaySiren = getTxPacket_RelaySiren();              // Tx - Get pointers to packet
 1065              		.loc 1 619 0
 1066 000e FFF7FEFF 		bl	getTxPacket_RelaySiren
 1067 0012 0246     		mov	r2, r0
ARM GAS  C:\Users\MARTHN~1\AppData\Local\Temp\ccYtCv5j.s 			page 31


 1068 0014 0B4B     		ldr	r3, .L72+4
 1069 0016 1A60     		str	r2, [r3]
 620:RelayTest.c   ****     
 621:RelayTest.c   ****     // RTest_HSide1_Write(0);                           // Deactivate all inputs
 622:RelayTest.c   ****     // RTest_HSide2_Write(0);
 623:RelayTest.c   ****     // RTest_HSide3_Write(0);
 624:RelayTest.c   ****     // RTest_HSide4_Write(0);
 625:RelayTest.c   ****     // RTest_HSide5_Write(0);
 626:RelayTest.c   ****     // RTest_HSide6_Write(0);
 627:RelayTest.c   ****     // RTest_HSide7_Write(0);
 628:RelayTest.c   ****     // RTest_HSide8_Write(0);
 629:RelayTest.c   ****     
 630:RelayTest.c   ****     pTxPacket_RelaySiren->Payload.HiLoInputLogic = 0x00;     // Set the input logic to be all low
 1070              		.loc 1 630 0
 1071 0018 0A4B     		ldr	r3, .L72+4
 1072 001a 1B68     		ldr	r3, [r3]
 1073 001c 0022     		movs	r2, #0
 1074 001e 83F84920 		strb	r2, [r3, #73]
 631:RelayTest.c   ****     
 632:RelayTest.c   ****     //while(1);
 633:RelayTest.c   ****     
 634:RelayTest.c   **** //    if(pRxPacket_Relay->Payload.RelayInputs != 0x00)    // Verify all inputs are deactivated, if 
 635:RelayTest.c   **** //        return(0);
 636:RelayTest.c   ****     
 637:RelayTest.c   ****     pTxPacket_RelaySiren->Payload.HiLoInputLogic = 0xFF;     // Set the input logic to be all hi
 1075              		.loc 1 637 0
 1076 0022 084B     		ldr	r3, .L72+4
 1077 0024 1B68     		ldr	r3, [r3]
 1078 0026 FF22     		movs	r2, #255
 1079 0028 83F84920 		strb	r2, [r3, #73]
 638:RelayTest.c   ****     
 639:RelayTest.c   ****     
 640:RelayTest.c   ****     
 641:RelayTest.c   **** //    if(pRxPacket_Relay->Payload.RelayInputs != 0x00)    // Verify all inputs are deactivated, if 
 642:RelayTest.c   **** //        return(0);
 643:RelayTest.c   ****     
 644:RelayTest.c   ****     // RTest_HSide1_Write(1);                           // Activate all inputs
 645:RelayTest.c   ****     // RTest_HSide2_Write(1);
 646:RelayTest.c   ****     // RTest_HSide3_Write(1);
 647:RelayTest.c   ****     // RTest_HSide4_Write(1);
 648:RelayTest.c   ****     // RTest_HSide5_Write(1);
 649:RelayTest.c   ****     // RTest_HSide6_Write(1);
 650:RelayTest.c   ****     // RTest_HSide7_Write(1);
 651:RelayTest.c   ****     // RTest_HSide8_Write(1);
 652:RelayTest.c   ****     
 653:RelayTest.c   ****     if(pRxPacket_Relay->Payload.RelayInputs != 0xFF)    // Verify all inputs are activated, if not 
 1080              		.loc 1 653 0
 1081 002c 044B     		ldr	r3, .L72
 1082 002e 1B68     		ldr	r3, [r3]
 1083 0030 DB79     		ldrb	r3, [r3, #7]	@ zero_extendqisi2
 1084 0032 FF2B     		cmp	r3, #255
 1085 0034 01D0     		beq	.L70
 654:RelayTest.c   ****         return(0);
 1086              		.loc 1 654 0
 1087 0036 0023     		movs	r3, #0
 1088 0038 00E0     		b	.L71
 1089              	.L70:
ARM GAS  C:\Users\MARTHN~1\AppData\Local\Temp\ccYtCv5j.s 			page 32


 655:RelayTest.c   ****     
 656:RelayTest.c   ****     return(1);                                          // If this step was not failed, return pass
 1090              		.loc 1 656 0
 1091 003a 0123     		movs	r3, #1
 1092              	.L71:
 657:RelayTest.c   **** }
 1093              		.loc 1 657 0
 1094 003c 1846     		mov	r0, r3
 1095 003e 80BD     		pop	{r7, pc}
 1096              	.L73:
 1097              		.align	2
 1098              	.L72:
 1099 0040 10000000 		.word	pRxPacket_Relay
 1100 0044 78000000 		.word	pTxPacket_RelaySiren
 1101              		.cfi_endproc
 1102              	.LFE67:
 1103              		.size	RTest_Test_Inputs, .-RTest_Test_Inputs
 1104              		.section	.text.RTest_Test_Vbatt,"ax",%progbits
 1105              		.align	2
 1106              		.global	RTest_Test_Vbatt
 1107              		.thumb
 1108              		.thumb_func
 1109              		.type	RTest_Test_Vbatt, %function
 1110              	RTest_Test_Vbatt:
 1111              	.LFB68:
 658:RelayTest.c   **** 
 659:RelayTest.c   **** 
 660:RelayTest.c   **** /* 230400bps *****************************************************************************
 661:RelayTest.c   **** *  Read a 'D' packet (relay to controller)  - verify the 'Voltage_BATT' byte
 662:RelayTest.c   **** *  Return: Pass/Fail
 663:RelayTest.c   **** ******************************************************************************************/
 664:RelayTest.c   **** uint8 RTest_Test_Vbatt(void)
 665:RelayTest.c   **** {
 1112              		.loc 1 665 0
 1113              		.cfi_startproc
 1114              		@ args = 0, pretend = 0, frame = 8
 1115              		@ frame_needed = 1, uses_anonymous_args = 0
 1116 0000 80B5     		push	{r7, lr}
 1117              		.cfi_def_cfa_offset 8
 1118              		.cfi_offset 7, -8
 1119              		.cfi_offset 14, -4
 1120 0002 82B0     		sub	sp, sp, #8
 1121              		.cfi_def_cfa_offset 16
 1122 0004 00AF     		add	r7, sp, #0
 1123              		.cfi_def_cfa_register 7
 666:RelayTest.c   **** //    MUX_CTRL_230400_Write(RTEST_CONT);                              // Rx - Select the mux channe
 667:RelayTest.c   ****     pRxPacket_Relay = getRxPacket_Relay();                          // Rx - Get pointers to packet
 1124              		.loc 1 667 0
 1125 0006 FFF7FEFF 		bl	getRxPacket_Relay
 1126 000a 0246     		mov	r2, r0
 1127 000c 0A4B     		ldr	r3, .L77
 1128 000e 1A60     		str	r2, [r3]
 668:RelayTest.c   ****     
 669:RelayTest.c   ****     uint8 Vbatt_Reading = 0;
 1129              		.loc 1 669 0
 1130 0010 0023     		movs	r3, #0
 1131 0012 FB71     		strb	r3, [r7, #7]
ARM GAS  C:\Users\MARTHN~1\AppData\Local\Temp\ccYtCv5j.s 			page 33


 670:RelayTest.c   ****     
 671:RelayTest.c   ****     Vbatt_Reading = pRxPacket_Relay->Payload.Voltage_BATT;          // Read Vbatt value
 1132              		.loc 1 671 0
 1133 0014 084B     		ldr	r3, .L77
 1134 0016 1B68     		ldr	r3, [r3]
 1135 0018 1B79     		ldrb	r3, [r3, #4]
 1136 001a FB71     		strb	r3, [r7, #7]
 672:RelayTest.c   ****     
 673:RelayTest.c   ****     if( (Vbatt_Reading < (VOLTAGE_SYSTEM + TOLERANCE_VOLTAGE) ) &&
 1137              		.loc 1 673 0
 1138 001c FB79     		ldrb	r3, [r7, #7]	@ zero_extendqisi2
 1139 001e 7C2B     		cmp	r3, #124
 1140 0020 04D8     		bhi	.L75
 1141              		.loc 1 673 0 is_stmt 0 discriminator 1
 1142 0022 FB79     		ldrb	r3, [r7, #7]	@ zero_extendqisi2
 1143 0024 732B     		cmp	r3, #115
 1144 0026 01D9     		bls	.L75
 674:RelayTest.c   ****         (Vbatt_Reading > (VOLTAGE_SYSTEM - TOLERANCE_VOLTAGE) ) )
 675:RelayTest.c   ****         return(1);                                                  // If Vbatt is within TOLERANCE
 1145              		.loc 1 675 0 is_stmt 1
 1146 0028 0123     		movs	r3, #1
 1147 002a 00E0     		b	.L76
 1148              	.L75:
 676:RelayTest.c   ****     else
 677:RelayTest.c   ****         return(0);                                                  // If not pass, then return fai
 1149              		.loc 1 677 0
 1150 002c 0023     		movs	r3, #0
 1151              	.L76:
 678:RelayTest.c   **** }
 1152              		.loc 1 678 0
 1153 002e 1846     		mov	r0, r3
 1154 0030 0837     		adds	r7, r7, #8
 1155              		.cfi_def_cfa_offset 8
 1156 0032 BD46     		mov	sp, r7
 1157              		.cfi_def_cfa_register 13
 1158              		@ sp needed
 1159 0034 80BD     		pop	{r7, pc}
 1160              	.L78:
 1161 0036 00BF     		.align	2
 1162              	.L77:
 1163 0038 10000000 		.word	pRxPacket_Relay
 1164              		.cfi_endproc
 1165              	.LFE68:
 1166              		.size	RTest_Test_Vbatt, .-RTest_Test_Vbatt
 1167              		.section	.text.RTest_Test_BlockCurrents,"ax",%progbits
 1168              		.align	2
 1169              		.global	RTest_Test_BlockCurrents
 1170              		.thumb
 1171              		.thumb_func
 1172              		.type	RTest_Test_BlockCurrents, %function
 1173              	RTest_Test_BlockCurrents:
 1174              	.LFB69:
 679:RelayTest.c   **** 
 680:RelayTest.c   **** /* 230400bps ***************************************************************
 681:RelayTest.c   **** *  Send a 'P'/'I' packet (controller to relay)  - Controller packet to turn on all the Relay output
 682:RelayTest.c   **** *  Read a 'D' packet (relay to controller)  - verify block currents are within a tolerance
 683:RelayTest.c   **** ****************************************************************************/
ARM GAS  C:\Users\MARTHN~1\AppData\Local\Temp\ccYtCv5j.s 			page 34


 684:RelayTest.c   **** uint8 RTest_Test_BlockCurrents(void)
 685:RelayTest.c   **** {
 1175              		.loc 1 685 0
 1176              		.cfi_startproc
 1177              		@ args = 0, pretend = 0, frame = 8
 1178              		@ frame_needed = 1, uses_anonymous_args = 0
 1179 0000 80B5     		push	{r7, lr}
 1180              		.cfi_def_cfa_offset 8
 1181              		.cfi_offset 7, -8
 1182              		.cfi_offset 14, -4
 1183 0002 82B0     		sub	sp, sp, #8
 1184              		.cfi_def_cfa_offset 16
 1185 0004 00AF     		add	r7, sp, #0
 1186              		.cfi_def_cfa_register 7
 686:RelayTest.c   ****     
 687:RelayTest.c   ****     uint8 BlockCurrentPass = 0x00;
 1187              		.loc 1 687 0
 1188 0006 0023     		movs	r3, #0
 1189 0008 FB71     		strb	r3, [r7, #7]
 688:RelayTest.c   ****     uint8 BlockCurrentValue = 0x00;
 1190              		.loc 1 688 0
 1191 000a 0023     		movs	r3, #0
 1192 000c 7B71     		strb	r3, [r7, #5]
 689:RelayTest.c   ****     
 690:RelayTest.c   **** //    MUX_CTRL_230400_Write(RTEST_CONT);                  // Rx - Select the mux channel 
 691:RelayTest.c   ****     pRxPacket_Relay = getRxPacket_Relay();              // Rx - Get pointers to packet
 1193              		.loc 1 691 0
 1194 000e FFF7FEFF 		bl	getRxPacket_Relay
 1195 0012 0246     		mov	r2, r0
 1196 0014 144B     		ldr	r3, .L84
 1197 0016 1A60     		str	r2, [r3]
 692:RelayTest.c   ****     
 693:RelayTest.c   ****     //DEMUX_CTRL_230400_Write(RTEST_CONT);                // Tx - Select the demux channel
 694:RelayTest.c   ****     pTxPacket_RelaySiren = getTxPacket_RelaySiren();              // Tx - Get pointers to packet
 1198              		.loc 1 694 0
 1199 0018 FFF7FEFF 		bl	getTxPacket_RelaySiren
 1200 001c 0246     		mov	r2, r0
 1201 001e 134B     		ldr	r3, .L84+4
 1202 0020 1A60     		str	r2, [r3]
 1203              	.LBB5:
 695:RelayTest.c   ****     
 696:RelayTest.c   ****     for(uint8 i=0;i<4;i++)                              // Save pass/fail for each block channel
 1204              		.loc 1 696 0
 1205 0022 0023     		movs	r3, #0
 1206 0024 BB71     		strb	r3, [r7, #6]
 1207 0026 10E0     		b	.L80
 1208              	.L81:
 697:RelayTest.c   ****     {
 698:RelayTest.c   ****         BlockCurrentValue = RTest_BlockCurrent(i);
 1209              		.loc 1 698 0 discriminator 3
 1210 0028 BB79     		ldrb	r3, [r7, #6]	@ zero_extendqisi2
 1211 002a 1846     		mov	r0, r3
 1212 002c FFF7FEFF 		bl	RTest_BlockCurrent
 1213 0030 0346     		mov	r3, r0
 1214 0032 7B71     		strb	r3, [r7, #5]
 699:RelayTest.c   ****         BlockCurrentPass = (BlockCurrentPass << 1) | BlockCurrentValue;
 1215              		.loc 1 699 0 discriminator 3
ARM GAS  C:\Users\MARTHN~1\AppData\Local\Temp\ccYtCv5j.s 			page 35


 1216 0034 FB79     		ldrb	r3, [r7, #7]	@ zero_extendqisi2
 1217 0036 5B00     		lsls	r3, r3, #1
 1218 0038 5AB2     		sxtb	r2, r3
 1219 003a 97F90530 		ldrsb	r3, [r7, #5]
 1220 003e 1343     		orrs	r3, r3, r2
 1221 0040 5BB2     		sxtb	r3, r3
 1222 0042 FB71     		strb	r3, [r7, #7]
 696:RelayTest.c   ****     {
 1223              		.loc 1 696 0 discriminator 3
 1224 0044 BB79     		ldrb	r3, [r7, #6]	@ zero_extendqisi2
 1225 0046 0133     		adds	r3, r3, #1
 1226 0048 BB71     		strb	r3, [r7, #6]
 1227              	.L80:
 696:RelayTest.c   ****     {
 1228              		.loc 1 696 0 is_stmt 0 discriminator 1
 1229 004a BB79     		ldrb	r3, [r7, #6]	@ zero_extendqisi2
 1230 004c 032B     		cmp	r3, #3
 1231 004e EBD9     		bls	.L81
 1232              	.LBE5:
 700:RelayTest.c   ****     }
 701:RelayTest.c   ****     
 702:RelayTest.c   ****     if( (BlockCurrentPass & 0x0F) == 0x0F)
 1233              		.loc 1 702 0 is_stmt 1
 1234 0050 FB79     		ldrb	r3, [r7, #7]	@ zero_extendqisi2
 1235 0052 03F00F03 		and	r3, r3, #15
 1236 0056 0F2B     		cmp	r3, #15
 1237 0058 01D1     		bne	.L82
 703:RelayTest.c   ****         return(1);                                      // If all block currents are within TOLERAN
 1238              		.loc 1 703 0
 1239 005a 0123     		movs	r3, #1
 1240 005c 00E0     		b	.L83
 1241              	.L82:
 704:RelayTest.c   ****     else
 705:RelayTest.c   ****         return(0);                                      // If not pass, then return fail
 1242              		.loc 1 705 0
 1243 005e 0023     		movs	r3, #0
 1244              	.L83:
 706:RelayTest.c   **** 
 707:RelayTest.c   **** }
 1245              		.loc 1 707 0
 1246 0060 1846     		mov	r0, r3
 1247 0062 0837     		adds	r7, r7, #8
 1248              		.cfi_def_cfa_offset 8
 1249 0064 BD46     		mov	sp, r7
 1250              		.cfi_def_cfa_register 13
 1251              		@ sp needed
 1252 0066 80BD     		pop	{r7, pc}
 1253              	.L85:
 1254              		.align	2
 1255              	.L84:
 1256 0068 10000000 		.word	pRxPacket_Relay
 1257 006c 78000000 		.word	pTxPacket_RelaySiren
 1258              		.cfi_endproc
 1259              	.LFE69:
 1260              		.size	RTest_Test_BlockCurrents, .-RTest_Test_BlockCurrents
 1261              		.section	.text.RTest_Test_GPS,"ax",%progbits
 1262              		.align	2
ARM GAS  C:\Users\MARTHN~1\AppData\Local\Temp\ccYtCv5j.s 			page 36


 1263              		.global	RTest_Test_GPS
 1264              		.thumb
 1265              		.thumb_func
 1266              		.type	RTest_Test_GPS, %function
 1267              	RTest_Test_GPS:
 1268              	.LFB70:
 708:RelayTest.c   **** 
 709:RelayTest.c   **** /* 230400bps ****************************************************
 710:RelayTest.c   **** *   (wait for the GPS hardware to acquire a signal)
 711:RelayTest.c   **** *   Read the GPS packet - search for the GPS formated data
 712:RelayTest.c   **** *****************************************************************/
 713:RelayTest.c   **** uint8 RTest_Test_GPS(void)
 714:RelayTest.c   **** {
 1269              		.loc 1 714 0
 1270              		.cfi_startproc
 1271              		@ args = 0, pretend = 0, frame = 0
 1272              		@ frame_needed = 1, uses_anonymous_args = 0
 1273              		@ link register save eliminated.
 1274 0000 80B4     		push	{r7}
 1275              		.cfi_def_cfa_offset 4
 1276              		.cfi_offset 7, -4
 1277 0002 00AF     		add	r7, sp, #0
 1278              		.cfi_def_cfa_register 7
 715:RelayTest.c   ****     
 716:RelayTest.c   ****     static uint8 targetstring[6] = {'$','G','P','M','R','C'};
 717:RelayTest.c   **** 
 718:RelayTest.c   ****     //uint8 findpacket(uint8 dataByte) - this should pass the target string
 719:RelayTest.c   ****     //processByteReceivedHandler_230400(&targetstring);
 720:RelayTest.c   **** 
 721:RelayTest.c   ****     
 722:RelayTest.c   ****     
 723:RelayTest.c   ****     return(0);
 1279              		.loc 1 723 0
 1280 0004 0023     		movs	r3, #0
 724:RelayTest.c   **** }
 1281              		.loc 1 724 0
 1282 0006 1846     		mov	r0, r3
 1283 0008 BD46     		mov	sp, r7
 1284              		.cfi_def_cfa_register 13
 1285              		@ sp needed
 1286 000a 80BC     		pop	{r7}
 1287              		.cfi_restore 7
 1288              		.cfi_def_cfa_offset 0
 1289 000c 7047     		bx	lr
 1290              		.cfi_endproc
 1291              	.LFE70:
 1292              		.size	RTest_Test_GPS, .-RTest_Test_GPS
 1293 000e 00BF     		.section	.text.getRxPacket_Relay,"ax",%progbits
 1294              		.align	2
 1295              		.global	getRxPacket_Relay
 1296              		.thumb
 1297              		.thumb_func
 1298              		.type	getRxPacket_Relay, %function
 1299              	getRxPacket_Relay:
 1300              	.LFB71:
 725:RelayTest.c   **** 
 726:RelayTest.c   **** RxPacket_RelaySiren * getRxPacket_Relay(void)
ARM GAS  C:\Users\MARTHN~1\AppData\Local\Temp\ccYtCv5j.s 			page 37


 727:RelayTest.c   **** {
 1301              		.loc 1 727 0
 1302              		.cfi_startproc
 1303              		@ args = 0, pretend = 0, frame = 0
 1304              		@ frame_needed = 1, uses_anonymous_args = 0
 1305              		@ link register save eliminated.
 1306 0000 80B4     		push	{r7}
 1307              		.cfi_def_cfa_offset 4
 1308              		.cfi_offset 7, -4
 1309 0002 00AF     		add	r7, sp, #0
 1310              		.cfi_def_cfa_register 7
 728:RelayTest.c   ****     pRxPacket_Relay = &rxPacket_Relay;
 1311              		.loc 1 728 0
 1312 0004 044B     		ldr	r3, .L90
 1313 0006 054A     		ldr	r2, .L90+4
 1314 0008 1A60     		str	r2, [r3]
 729:RelayTest.c   ****     
 730:RelayTest.c   ****     return pRxPacket_Relay;
 1315              		.loc 1 730 0
 1316 000a 034B     		ldr	r3, .L90
 1317 000c 1B68     		ldr	r3, [r3]
 731:RelayTest.c   **** }
 1318              		.loc 1 731 0
 1319 000e 1846     		mov	r0, r3
 1320 0010 BD46     		mov	sp, r7
 1321              		.cfi_def_cfa_register 13
 1322              		@ sp needed
 1323 0012 80BC     		pop	{r7}
 1324              		.cfi_restore 7
 1325              		.cfi_def_cfa_offset 0
 1326 0014 7047     		bx	lr
 1327              	.L91:
 1328 0016 00BF     		.align	2
 1329              	.L90:
 1330 0018 10000000 		.word	pRxPacket_Relay
 1331 001c 00000000 		.word	rxPacket_Relay
 1332              		.cfi_endproc
 1333              	.LFE71:
 1334              		.size	getRxPacket_Relay, .-getRxPacket_Relay
 1335              		.section	.text.getTxPacket_RelaySiren,"ax",%progbits
 1336              		.align	2
 1337              		.global	getTxPacket_RelaySiren
 1338              		.thumb
 1339              		.thumb_func
 1340              		.type	getTxPacket_RelaySiren, %function
 1341              	getTxPacket_RelaySiren:
 1342              	.LFB72:
 732:RelayTest.c   **** 
 733:RelayTest.c   **** //RxPacket_RelaySiren * getRxPacket_RelayS(void)
 734:RelayTest.c   **** //{
 735:RelayTest.c   **** //    pRxPacket_Relay = &rxPacket_Relay;
 736:RelayTest.c   **** //    
 737:RelayTest.c   **** //    return pRxPacket_Relay;
 738:RelayTest.c   **** 
 739:RelayTest.c   **** //TxPacket_Relay * getTxPacket_Relay()
 740:RelayTest.c   **** //{
 741:RelayTest.c   **** //    pTxPacket_Relay = &txPacket_Relay;
ARM GAS  C:\Users\MARTHN~1\AppData\Local\Temp\ccYtCv5j.s 			page 38


 742:RelayTest.c   **** //    
 743:RelayTest.c   **** //    return pTxPacket_Relay;
 744:RelayTest.c   **** //}
 745:RelayTest.c   **** 
 746:RelayTest.c   **** //RxPacket_Siren * getRxPacket_Siren()
 747:RelayTest.c   **** //{
 748:RelayTest.c   **** //    pRxPacket_Siren = &rxPacket_Siren;
 749:RelayTest.c   **** //    
 750:RelayTest.c   **** //    return pRxPacket_Siren;
 751:RelayTest.c   **** //}
 752:RelayTest.c   **** 
 753:RelayTest.c   **** TxPacket_RelaySiren * getTxPacket_RelaySiren()          // STest Tx - 'I' packet sent to relay and 
 754:RelayTest.c   **** {
 1343              		.loc 1 754 0
 1344              		.cfi_startproc
 1345              		@ args = 0, pretend = 0, frame = 0
 1346              		@ frame_needed = 1, uses_anonymous_args = 0
 1347              		@ link register save eliminated.
 1348 0000 80B4     		push	{r7}
 1349              		.cfi_def_cfa_offset 4
 1350              		.cfi_offset 7, -4
 1351 0002 00AF     		add	r7, sp, #0
 1352              		.cfi_def_cfa_register 7
 755:RelayTest.c   ****     pTxPacket_RelaySiren = &txPacket_RelaySiren;
 1353              		.loc 1 755 0
 1354 0004 044B     		ldr	r3, .L94
 1355 0006 054A     		ldr	r2, .L94+4
 1356 0008 1A60     		str	r2, [r3]
 756:RelayTest.c   ****     
 757:RelayTest.c   ****     return pTxPacket_RelaySiren;
 1357              		.loc 1 757 0
 1358 000a 034B     		ldr	r3, .L94
 1359 000c 1B68     		ldr	r3, [r3]
 758:RelayTest.c   **** }
 1360              		.loc 1 758 0
 1361 000e 1846     		mov	r0, r3
 1362 0010 BD46     		mov	sp, r7
 1363              		.cfi_def_cfa_register 13
 1364              		@ sp needed
 1365 0012 80BC     		pop	{r7}
 1366              		.cfi_restore 7
 1367              		.cfi_def_cfa_offset 0
 1368 0014 7047     		bx	lr
 1369              	.L95:
 1370 0016 00BF     		.align	2
 1371              	.L94:
 1372 0018 78000000 		.word	pTxPacket_RelaySiren
 1373 001c 28000000 		.word	txPacket_RelaySiren
 1374              		.cfi_endproc
 1375              	.LFE72:
 1376              		.size	getTxPacket_RelaySiren, .-getTxPacket_RelaySiren
 1377              		.section	.text.getRxPacket_RelaySiren,"ax",%progbits
 1378              		.align	2
 1379              		.global	getRxPacket_RelaySiren
 1380              		.thumb
 1381              		.thumb_func
 1382              		.type	getRxPacket_RelaySiren, %function
ARM GAS  C:\Users\MARTHN~1\AppData\Local\Temp\ccYtCv5j.s 			page 39


 1383              	getRxPacket_RelaySiren:
 1384              	.LFB73:
 759:RelayTest.c   **** 
 760:RelayTest.c   **** RxPacket_RelaySiren * getRxPacket_RelaySiren()          // STest - 'D' packet sent to controller fr
 761:RelayTest.c   **** {
 1385              		.loc 1 761 0
 1386              		.cfi_startproc
 1387              		@ args = 0, pretend = 0, frame = 0
 1388              		@ frame_needed = 1, uses_anonymous_args = 0
 1389              		@ link register save eliminated.
 1390 0000 80B4     		push	{r7}
 1391              		.cfi_def_cfa_offset 4
 1392              		.cfi_offset 7, -4
 1393 0002 00AF     		add	r7, sp, #0
 1394              		.cfi_def_cfa_register 7
 762:RelayTest.c   ****     pRxPacket_RelaySiren = &rxPacket_RelaySiren;
 1395              		.loc 1 762 0
 1396 0004 044B     		ldr	r3, .L98
 1397 0006 054A     		ldr	r2, .L98+4
 1398 0008 1A60     		str	r2, [r3]
 763:RelayTest.c   ****     
 764:RelayTest.c   ****     return pRxPacket_RelaySiren;
 1399              		.loc 1 764 0
 1400 000a 034B     		ldr	r3, .L98
 1401 000c 1B68     		ldr	r3, [r3]
 765:RelayTest.c   **** }
 1402              		.loc 1 765 0
 1403 000e 1846     		mov	r0, r3
 1404 0010 BD46     		mov	sp, r7
 1405              		.cfi_def_cfa_register 13
 1406              		@ sp needed
 1407 0012 80BC     		pop	{r7}
 1408              		.cfi_restore 7
 1409              		.cfi_def_cfa_offset 0
 1410 0014 7047     		bx	lr
 1411              	.L99:
 1412 0016 00BF     		.align	2
 1413              	.L98:
 1414 0018 24000000 		.word	pRxPacket_RelaySiren
 1415 001c 14000000 		.word	rxPacket_RelaySiren
 1416              		.cfi_endproc
 1417              	.LFE73:
 1418              		.size	getRxPacket_RelaySiren, .-getRxPacket_RelaySiren
 1419              		.section	.text.getTxPacket_H,"ax",%progbits
 1420              		.align	2
 1421              		.global	getTxPacket_H
 1422              		.thumb
 1423              		.thumb_func
 1424              		.type	getTxPacket_H, %function
 1425              	getTxPacket_H:
 1426              	.LFB74:
 766:RelayTest.c   **** 
 767:RelayTest.c   **** //Packet_H * getPacket_H(void);
 768:RelayTest.c   **** Packet_H * getTxPacket_H()
 769:RelayTest.c   **** {
 1427              		.loc 1 769 0
 1428              		.cfi_startproc
ARM GAS  C:\Users\MARTHN~1\AppData\Local\Temp\ccYtCv5j.s 			page 40


 1429              		@ args = 0, pretend = 0, frame = 0
 1430              		@ frame_needed = 1, uses_anonymous_args = 0
 1431              		@ link register save eliminated.
 1432 0000 80B4     		push	{r7}
 1433              		.cfi_def_cfa_offset 4
 1434              		.cfi_offset 7, -4
 1435 0002 00AF     		add	r7, sp, #0
 1436              		.cfi_def_cfa_register 7
 770:RelayTest.c   ****     pTxPacket_H = &txPacket_H;
 1437              		.loc 1 770 0
 1438 0004 044B     		ldr	r3, .L102
 1439 0006 054A     		ldr	r2, .L102+4
 1440 0008 1A60     		str	r2, [r3]
 771:RelayTest.c   ****     
 772:RelayTest.c   ****     return pTxPacket_H;
 1441              		.loc 1 772 0
 1442 000a 034B     		ldr	r3, .L102
 1443 000c 1B68     		ldr	r3, [r3]
 773:RelayTest.c   **** }
 1444              		.loc 1 773 0
 1445 000e 1846     		mov	r0, r3
 1446 0010 BD46     		mov	sp, r7
 1447              		.cfi_def_cfa_register 13
 1448              		@ sp needed
 1449 0012 80BC     		pop	{r7}
 1450              		.cfi_restore 7
 1451              		.cfi_def_cfa_offset 0
 1452 0014 7047     		bx	lr
 1453              	.L103:
 1454 0016 00BF     		.align	2
 1455              	.L102:
 1456 0018 84000000 		.word	pTxPacket_H
 1457 001c 7C000000 		.word	txPacket_H
 1458              		.cfi_endproc
 1459              	.LFE74:
 1460              		.size	getTxPacket_H, .-getTxPacket_H
 1461              		.section	.text.getRxPacket_H,"ax",%progbits
 1462              		.align	2
 1463              		.global	getRxPacket_H
 1464              		.thumb
 1465              		.thumb_func
 1466              		.type	getRxPacket_H, %function
 1467              	getRxPacket_H:
 1468              	.LFB75:
 774:RelayTest.c   **** 
 775:RelayTest.c   **** Packet_H * getRxPacket_H()
 776:RelayTest.c   **** {
 1469              		.loc 1 776 0
 1470              		.cfi_startproc
 1471              		@ args = 0, pretend = 0, frame = 0
 1472              		@ frame_needed = 1, uses_anonymous_args = 0
 1473              		@ link register save eliminated.
 1474 0000 80B4     		push	{r7}
 1475              		.cfi_def_cfa_offset 4
 1476              		.cfi_offset 7, -4
 1477 0002 00AF     		add	r7, sp, #0
 1478              		.cfi_def_cfa_register 7
ARM GAS  C:\Users\MARTHN~1\AppData\Local\Temp\ccYtCv5j.s 			page 41


 777:RelayTest.c   ****     pRxPacket_H = &rxPacket_H;
 1479              		.loc 1 777 0
 1480 0004 044B     		ldr	r3, .L106
 1481 0006 054A     		ldr	r2, .L106+4
 1482 0008 1A60     		str	r2, [r3]
 778:RelayTest.c   ****     
 779:RelayTest.c   ****     return pRxPacket_H;
 1483              		.loc 1 779 0
 1484 000a 034B     		ldr	r3, .L106
 1485 000c 1B68     		ldr	r3, [r3]
 780:RelayTest.c   **** }
 1486              		.loc 1 780 0
 1487 000e 1846     		mov	r0, r3
 1488 0010 BD46     		mov	sp, r7
 1489              		.cfi_def_cfa_register 13
 1490              		@ sp needed
 1491 0012 80BC     		pop	{r7}
 1492              		.cfi_restore 7
 1493              		.cfi_def_cfa_offset 0
 1494 0014 7047     		bx	lr
 1495              	.L107:
 1496 0016 00BF     		.align	2
 1497              	.L106:
 1498 0018 90000000 		.word	pRxPacket_H
 1499 001c 88000000 		.word	rxPacket_H
 1500              		.cfi_endproc
 1501              	.LFE75:
 1502              		.size	getRxPacket_H, .-getRxPacket_H
 1503              		.section	.text.RTest_sendDiagPacket,"ax",%progbits
 1504              		.align	2
 1505              		.global	RTest_sendDiagPacket
 1506              		.thumb
 1507              		.thumb_func
 1508              		.type	RTest_sendDiagPacket, %function
 1509              	RTest_sendDiagPacket:
 1510              	.LFB76:
 781:RelayTest.c   **** 
 782:RelayTest.c   **** 
 783:RelayTest.c   **** //RxPacket_Quad * getTxPacket_Quad()              //***
 784:RelayTest.c   **** //{
 785:RelayTest.c   **** //    pTxPacket_Quad = &txPacket_Quad;
 786:RelayTest.c   **** //    
 787:RelayTest.c   **** //    return pTxPacket_Quad;
 788:RelayTest.c   **** //}
 789:RelayTest.c   **** 
 790:RelayTest.c   **** void RTest_sendDiagPacket(void)
 791:RelayTest.c   **** {
 1511              		.loc 1 791 0
 1512              		.cfi_startproc
 1513              		@ args = 0, pretend = 0, frame = 8
 1514              		@ frame_needed = 1, uses_anonymous_args = 0
 1515 0000 80B5     		push	{r7, lr}
 1516              		.cfi_def_cfa_offset 8
 1517              		.cfi_offset 7, -8
 1518              		.cfi_offset 14, -4
 1519 0002 82B0     		sub	sp, sp, #8
 1520              		.cfi_def_cfa_offset 16
ARM GAS  C:\Users\MARTHN~1\AppData\Local\Temp\ccYtCv5j.s 			page 42


 1521 0004 00AF     		add	r7, sp, #0
 1522              		.cfi_def_cfa_register 7
 1523              	.LBB6:
 792:RelayTest.c   **** 
 793:RelayTest.c   ****     static uint8 RelayTestStatus_display[ (NUMBER_TEST_STEPS*2) ];
 794:RelayTest.c   ****     
 795:RelayTest.c   ****     for(uint8 i=0;i<NUMBER_TEST_STEPS;i++)
 1524              		.loc 1 795 0
 1525 0006 0023     		movs	r3, #0
 1526 0008 FB71     		strb	r3, [r7, #7]
 1527 000a 0FE0     		b	.L109
 1528              	.L110:
 796:RelayTest.c   ****     {
 797:RelayTest.c   ****         RelayTestStatus_display[i*2] = RTestStatus[i];
 1529              		.loc 1 797 0 discriminator 3
 1530 000c FB79     		ldrb	r3, [r7, #7]	@ zero_extendqisi2
 1531 000e 5B00     		lsls	r3, r3, #1
 1532 0010 FA79     		ldrb	r2, [r7, #7]	@ zero_extendqisi2
 1533 0012 1049     		ldr	r1, .L112
 1534 0014 895C     		ldrb	r1, [r1, r2]	@ zero_extendqisi2
 1535 0016 104A     		ldr	r2, .L112+4
 1536 0018 D154     		strb	r1, [r2, r3]
 798:RelayTest.c   ****         RelayTestStatus_display[(i*2) + 1] = ' ';
 1537              		.loc 1 798 0 discriminator 3
 1538 001a FB79     		ldrb	r3, [r7, #7]	@ zero_extendqisi2
 1539 001c 5B00     		lsls	r3, r3, #1
 1540 001e 0133     		adds	r3, r3, #1
 1541 0020 0D4A     		ldr	r2, .L112+4
 1542 0022 2021     		movs	r1, #32
 1543 0024 D154     		strb	r1, [r2, r3]
 795:RelayTest.c   ****     {
 1544              		.loc 1 795 0 discriminator 3
 1545 0026 FB79     		ldrb	r3, [r7, #7]	@ zero_extendqisi2
 1546 0028 0133     		adds	r3, r3, #1
 1547 002a FB71     		strb	r3, [r7, #7]
 1548              	.L109:
 795:RelayTest.c   ****     {
 1549              		.loc 1 795 0 is_stmt 0 discriminator 1
 1550 002c FB79     		ldrb	r3, [r7, #7]	@ zero_extendqisi2
 1551 002e 112B     		cmp	r3, #17
 1552 0030 ECD9     		bls	.L110
 1553              	.LBE6:
 799:RelayTest.c   ****     }
 800:RelayTest.c   ****     
 801:RelayTest.c   ****     DEMUX_CTRL_230400_Write(RTEST_SIREN);
 1554              		.loc 1 801 0 is_stmt 1
 1555 0032 0220     		movs	r0, #2
 1556 0034 FFF7FEFF 		bl	DEMUX_CTRL_230400_Write
 802:RelayTest.c   ****     
 803:RelayTest.c   ****     UART_230400_PutArray(RelayTestStatus_display, (NUMBER_TEST_STEPS*2) );
 1557              		.loc 1 803 0
 1558 0038 2421     		movs	r1, #36
 1559 003a 0748     		ldr	r0, .L112+4
 1560 003c FFF7FEFF 		bl	UART_230400_PutArray
 804:RelayTest.c   ****     
 805:RelayTest.c   ****     UART_230400_PutChar('\r');
 1561              		.loc 1 805 0
ARM GAS  C:\Users\MARTHN~1\AppData\Local\Temp\ccYtCv5j.s 			page 43


 1562 0040 0D20     		movs	r0, #13
 1563 0042 FFF7FEFF 		bl	UART_230400_PutChar
 806:RelayTest.c   ****     UART_230400_PutChar('\n');
 1564              		.loc 1 806 0
 1565 0046 0A20     		movs	r0, #10
 1566 0048 FFF7FEFF 		bl	UART_230400_PutChar
 807:RelayTest.c   ****     
 808:RelayTest.c   ****     return;
 1567              		.loc 1 808 0
 1568 004c 00BF     		nop
 809:RelayTest.c   **** }
 1569              		.loc 1 809 0
 1570 004e 0837     		adds	r7, r7, #8
 1571              		.cfi_def_cfa_offset 8
 1572 0050 BD46     		mov	sp, r7
 1573              		.cfi_def_cfa_register 13
 1574              		@ sp needed
 1575 0052 80BD     		pop	{r7, pc}
 1576              	.L113:
 1577              		.align	2
 1578              	.L112:
 1579 0054 0C010000 		.word	RTestStatus
 1580 0058 24010000 		.word	RelayTestStatus_display.7016
 1581              		.cfi_endproc
 1582              	.LFE76:
 1583              		.size	RTest_sendDiagPacket, .-RTest_sendDiagPacket
 1584              		.section	.text.RTest_BlockCurrent,"ax",%progbits
 1585              		.align	2
 1586              		.global	RTest_BlockCurrent
 1587              		.thumb
 1588              		.thumb_func
 1589              		.type	RTest_BlockCurrent, %function
 1590              	RTest_BlockCurrent:
 1591              	.LFB77:
 810:RelayTest.c   **** 
 811:RelayTest.c   **** //void ProcessFailure(void)
 812:RelayTest.c   **** //{
 813:RelayTest.c   **** ////    
 814:RelayTest.c   **** ////    RelayTestStatus[TestState] = 'F';
 815:RelayTest.c   **** ////    //RelayTestStatus[TestState] = 'B';                   // *** dont fail the unit, keep tryin
 816:RelayTest.c   **** ////    
 817:RelayTest.c   **** //////    TestState++;
 818:RelayTest.c   **** //////    if(TestState >=10)
 819:RelayTest.c   **** //////        TestState = 0;
 820:RelayTest.c   **** ////    
 821:RelayTest.c   **** ////    LED_EN_Write(1);
 822:RelayTest.c   **** ////    
 823:RelayTest.c   **** ////    return;
 824:RelayTest.c   **** //}
 825:RelayTest.c   **** 
 826:RelayTest.c   **** /**********************************************************************
 827:RelayTest.c   **** *   230400bps
 828:RelayTest.c   **** *   - Read (the output bytes) and see that they are within TOLERANCE_CURRENT
 829:RelayTest.c   **** *   - Return: pass/fail
 830:RelayTest.c   **** **********************************************************************/
 831:RelayTest.c   **** uint8 RTest_BlockCurrent(uint8 block)
 832:RelayTest.c   **** {
ARM GAS  C:\Users\MARTHN~1\AppData\Local\Temp\ccYtCv5j.s 			page 44


 1592              		.loc 1 832 0
 1593              		.cfi_startproc
 1594              		@ args = 0, pretend = 0, frame = 16
 1595              		@ frame_needed = 1, uses_anonymous_args = 0
 1596 0000 80B5     		push	{r7, lr}
 1597              		.cfi_def_cfa_offset 8
 1598              		.cfi_offset 7, -8
 1599              		.cfi_offset 14, -4
 1600 0002 84B0     		sub	sp, sp, #16
 1601              		.cfi_def_cfa_offset 24
 1602 0004 00AF     		add	r7, sp, #0
 1603              		.cfi_def_cfa_register 7
 1604 0006 0346     		mov	r3, r0
 1605 0008 FB71     		strb	r3, [r7, #7]
 833:RelayTest.c   ****     
 834:RelayTest.c   ****     uint8 Current_Reading = 0;
 1606              		.loc 1 834 0
 1607 000a 0023     		movs	r3, #0
 1608 000c FB73     		strb	r3, [r7, #15]
 835:RelayTest.c   ****     
 836:RelayTest.c   ****     pRxPacket_Relay = getRxPacket_Relay();
 1609              		.loc 1 836 0
 1610 000e FFF7FEFF 		bl	getRxPacket_Relay
 1611 0012 0246     		mov	r2, r0
 1612 0014 184B     		ldr	r3, .L122
 1613 0016 1A60     		str	r2, [r3]
 837:RelayTest.c   ****     
 838:RelayTest.c   ****     if(block == 0)
 1614              		.loc 1 838 0
 1615 0018 FB79     		ldrb	r3, [r7, #7]	@ zero_extendqisi2
 1616 001a 002B     		cmp	r3, #0
 1617 001c 04D1     		bne	.L115
 839:RelayTest.c   ****         Current_Reading = pRxPacket_Relay->Payload.BlockCurrent_1;
 1618              		.loc 1 839 0
 1619 001e 164B     		ldr	r3, .L122
 1620 0020 1B68     		ldr	r3, [r3]
 1621 0022 1B78     		ldrb	r3, [r3]
 1622 0024 FB73     		strb	r3, [r7, #15]
 1623 0026 19E0     		b	.L116
 1624              	.L115:
 840:RelayTest.c   ****     else if(block == 1)
 1625              		.loc 1 840 0
 1626 0028 FB79     		ldrb	r3, [r7, #7]	@ zero_extendqisi2
 1627 002a 012B     		cmp	r3, #1
 1628 002c 04D1     		bne	.L117
 841:RelayTest.c   ****         Current_Reading = pRxPacket_Relay->Payload.BlockCurrent_2;
 1629              		.loc 1 841 0
 1630 002e 124B     		ldr	r3, .L122
 1631 0030 1B68     		ldr	r3, [r3]
 1632 0032 5B78     		ldrb	r3, [r3, #1]
 1633 0034 FB73     		strb	r3, [r7, #15]
 1634 0036 11E0     		b	.L116
 1635              	.L117:
 842:RelayTest.c   ****     else if(block == 2)
 1636              		.loc 1 842 0
 1637 0038 FB79     		ldrb	r3, [r7, #7]	@ zero_extendqisi2
 1638 003a 022B     		cmp	r3, #2
ARM GAS  C:\Users\MARTHN~1\AppData\Local\Temp\ccYtCv5j.s 			page 45


 1639 003c 04D1     		bne	.L118
 843:RelayTest.c   ****         Current_Reading = pRxPacket_Relay->Payload.BlockCurrent_3;
 1640              		.loc 1 843 0
 1641 003e 0E4B     		ldr	r3, .L122
 1642 0040 1B68     		ldr	r3, [r3]
 1643 0042 9B78     		ldrb	r3, [r3, #2]
 1644 0044 FB73     		strb	r3, [r7, #15]
 1645 0046 09E0     		b	.L116
 1646              	.L118:
 844:RelayTest.c   ****     else if(block == 3)
 1647              		.loc 1 844 0
 1648 0048 FB79     		ldrb	r3, [r7, #7]	@ zero_extendqisi2
 1649 004a 032B     		cmp	r3, #3
 1650 004c 04D1     		bne	.L119
 845:RelayTest.c   ****         Current_Reading = pRxPacket_Relay->Payload.BlockCurrent_4;
 1651              		.loc 1 845 0
 1652 004e 0A4B     		ldr	r3, .L122
 1653 0050 1B68     		ldr	r3, [r3]
 1654 0052 DB78     		ldrb	r3, [r3, #3]
 1655 0054 FB73     		strb	r3, [r7, #15]
 1656 0056 01E0     		b	.L116
 1657              	.L119:
 846:RelayTest.c   ****     else 
 847:RelayTest.c   ****         return(0);
 1658              		.loc 1 847 0
 1659 0058 0023     		movs	r3, #0
 1660 005a 08E0     		b	.L120
 1661              	.L116:
 848:RelayTest.c   ****     
 849:RelayTest.c   ****     if( (Current_Reading < (CURRENT_LOAD + TOLERANCE_CURRENT) ) &&
 1662              		.loc 1 849 0
 1663 005c FB7B     		ldrb	r3, [r7, #15]	@ zero_extendqisi2
 1664 005e 0A2B     		cmp	r3, #10
 1665 0060 04D8     		bhi	.L121
 1666              		.loc 1 849 0 is_stmt 0 discriminator 1
 1667 0062 FB7B     		ldrb	r3, [r7, #15]	@ zero_extendqisi2
 1668 0064 072B     		cmp	r3, #7
 1669 0066 01D9     		bls	.L121
 850:RelayTest.c   ****         (Current_Reading > (CURRENT_LOAD - TOLERANCE_CURRENT) ) )
 851:RelayTest.c   ****         return(1);
 1670              		.loc 1 851 0 is_stmt 1
 1671 0068 0123     		movs	r3, #1
 1672 006a 00E0     		b	.L120
 1673              	.L121:
 852:RelayTest.c   ****     else
 853:RelayTest.c   ****         return(0);
 1674              		.loc 1 853 0
 1675 006c 0023     		movs	r3, #0
 1676              	.L120:
 854:RelayTest.c   ****         
 855:RelayTest.c   **** }
 1677              		.loc 1 855 0
 1678 006e 1846     		mov	r0, r3
 1679 0070 1037     		adds	r7, r7, #16
 1680              		.cfi_def_cfa_offset 8
 1681 0072 BD46     		mov	sp, r7
 1682              		.cfi_def_cfa_register 13
ARM GAS  C:\Users\MARTHN~1\AppData\Local\Temp\ccYtCv5j.s 			page 46


 1683              		@ sp needed
 1684 0074 80BD     		pop	{r7, pc}
 1685              	.L123:
 1686 0076 00BF     		.align	2
 1687              	.L122:
 1688 0078 10000000 		.word	pRxPacket_Relay
 1689              		.cfi_endproc
 1690              	.LFE77:
 1691              		.size	RTest_BlockCurrent, .-RTest_BlockCurrent
 1692              		.section	.text.RTest_10ms_isr,"ax",%progbits
 1693              		.align	2
 1694              		.global	RTest_10ms_isr
 1695              		.thumb
 1696              		.thumb_func
 1697              		.type	RTest_10ms_isr, %function
 1698              	RTest_10ms_isr:
 1699              	.LFB78:
 856:RelayTest.c   **** 
 857:RelayTest.c   **** void RTest_10ms_isr(void)                       // Times Quad and Audio packets
 858:RelayTest.c   **** {
 1700              		.loc 1 858 0
 1701              		.cfi_startproc
 1702              		@ args = 0, pretend = 0, frame = 0
 1703              		@ frame_needed = 1, uses_anonymous_args = 0
 1704              		@ link register save eliminated.
 1705 0000 80B4     		push	{r7}
 1706              		.cfi_def_cfa_offset 4
 1707              		.cfi_offset 7, -4
 1708 0002 00AF     		add	r7, sp, #0
 1709              		.cfi_def_cfa_register 7
 859:RelayTest.c   **** 
 860:RelayTest.c   **** //    if(CurrentTest.TestStep == QUAD_PORTS)        // *** moved to 20ms  
 861:RelayTest.c   **** //        sendPacketToRelay_Quad();
 862:RelayTest.c   **** 
 863:RelayTest.c   ****     return;
 1710              		.loc 1 863 0
 1711 0004 00BF     		nop
 864:RelayTest.c   ****     
 865:RelayTest.c   **** }
 1712              		.loc 1 865 0
 1713 0006 BD46     		mov	sp, r7
 1714              		.cfi_def_cfa_register 13
 1715              		@ sp needed
 1716 0008 80BC     		pop	{r7}
 1717              		.cfi_restore 7
 1718              		.cfi_def_cfa_offset 0
 1719 000a 7047     		bx	lr
 1720              		.cfi_endproc
 1721              	.LFE78:
 1722              		.size	RTest_10ms_isr, .-RTest_10ms_isr
 1723              		.section	.text.RTest_20ms_isr,"ax",%progbits
 1724              		.align	2
 1725              		.global	RTest_20ms_isr
 1726              		.thumb
 1727              		.thumb_func
 1728              		.type	RTest_20ms_isr, %function
 1729              	RTest_20ms_isr:
ARM GAS  C:\Users\MARTHN~1\AppData\Local\Temp\ccYtCv5j.s 			page 47


 1730              	.LFB79:
 866:RelayTest.c   **** 
 867:RelayTest.c   **** void RTest_20ms_isr(void)                       // Manage Timeout for failure
 868:RelayTest.c   **** {
 1731              		.loc 1 868 0
 1732              		.cfi_startproc
 1733              		@ args = 0, pretend = 0, frame = 0
 1734              		@ frame_needed = 1, uses_anonymous_args = 0
 1735 0000 80B5     		push	{r7, lr}
 1736              		.cfi_def_cfa_offset 8
 1737              		.cfi_offset 7, -8
 1738              		.cfi_offset 14, -4
 1739 0002 00AF     		add	r7, sp, #0
 1740              		.cfi_def_cfa_register 7
 869:RelayTest.c   ****         if( (CurrentTest.TestStep == QUAD_PORT_1) ||        // *** send quad packet if needed 
 1741              		.loc 1 869 0
 1742 0004 244B     		ldr	r3, .L135
 1743 0006 5B78     		ldrb	r3, [r3, #1]	@ zero_extendqisi2
 1744 0008 042B     		cmp	r3, #4
 1745 000a 1BD0     		beq	.L127
 870:RelayTest.c   ****             (CurrentTest.TestStep == QUAD_PORT_2) ||
 1746              		.loc 1 870 0 discriminator 1
 1747 000c 224B     		ldr	r3, .L135
 1748 000e 5B78     		ldrb	r3, [r3, #1]	@ zero_extendqisi2
 869:RelayTest.c   ****         if( (CurrentTest.TestStep == QUAD_PORT_1) ||        // *** send quad packet if needed 
 1749              		.loc 1 869 0 discriminator 1
 1750 0010 052B     		cmp	r3, #5
 1751 0012 17D0     		beq	.L127
 871:RelayTest.c   ****             (CurrentTest.TestStep == QUAD_PORT_3) ||
 1752              		.loc 1 871 0
 1753 0014 204B     		ldr	r3, .L135
 1754 0016 5B78     		ldrb	r3, [r3, #1]	@ zero_extendqisi2
 870:RelayTest.c   ****             (CurrentTest.TestStep == QUAD_PORT_2) ||
 1755              		.loc 1 870 0
 1756 0018 062B     		cmp	r3, #6
 1757 001a 13D0     		beq	.L127
 872:RelayTest.c   ****             (CurrentTest.TestStep == QUAD_PORT_4) ||
 1758              		.loc 1 872 0
 1759 001c 1E4B     		ldr	r3, .L135
 1760 001e 5B78     		ldrb	r3, [r3, #1]	@ zero_extendqisi2
 871:RelayTest.c   ****             (CurrentTest.TestStep == QUAD_PORT_3) ||
 1761              		.loc 1 871 0
 1762 0020 072B     		cmp	r3, #7
 1763 0022 0FD0     		beq	.L127
 873:RelayTest.c   ****             (CurrentTest.TestStep == QUAD_PORT_5) ||
 1764              		.loc 1 873 0
 1765 0024 1C4B     		ldr	r3, .L135
 1766 0026 5B78     		ldrb	r3, [r3, #1]	@ zero_extendqisi2
 872:RelayTest.c   ****             (CurrentTest.TestStep == QUAD_PORT_4) ||
 1767              		.loc 1 872 0
 1768 0028 082B     		cmp	r3, #8
 1769 002a 0BD0     		beq	.L127
 874:RelayTest.c   ****             (CurrentTest.TestStep == QUAD_PORT_6) ||
 1770              		.loc 1 874 0
 1771 002c 1A4B     		ldr	r3, .L135
 1772 002e 5B78     		ldrb	r3, [r3, #1]	@ zero_extendqisi2
 873:RelayTest.c   ****             (CurrentTest.TestStep == QUAD_PORT_5) ||
ARM GAS  C:\Users\MARTHN~1\AppData\Local\Temp\ccYtCv5j.s 			page 48


 1773              		.loc 1 873 0
 1774 0030 092B     		cmp	r3, #9
 1775 0032 07D0     		beq	.L127
 875:RelayTest.c   ****             (CurrentTest.TestStep == QUAD_PORT_7) ||
 1776              		.loc 1 875 0
 1777 0034 184B     		ldr	r3, .L135
 1778 0036 5B78     		ldrb	r3, [r3, #1]	@ zero_extendqisi2
 874:RelayTest.c   ****             (CurrentTest.TestStep == QUAD_PORT_6) ||
 1779              		.loc 1 874 0
 1780 0038 0A2B     		cmp	r3, #10
 1781 003a 03D0     		beq	.L127
 876:RelayTest.c   ****             (CurrentTest.TestStep == QUAD_PORT_8) )
 1782              		.loc 1 876 0
 1783 003c 164B     		ldr	r3, .L135
 1784 003e 5B78     		ldrb	r3, [r3, #1]	@ zero_extendqisi2
 875:RelayTest.c   ****             (CurrentTest.TestStep == QUAD_PORT_7) ||
 1785              		.loc 1 875 0
 1786 0040 0B2B     		cmp	r3, #11
 1787 0042 01D1     		bne	.L128
 1788              	.L127:
 877:RelayTest.c   ****         {
 878:RelayTest.c   ****             sendPacketToRelay_Quad();
 1789              		.loc 1 878 0
 1790 0044 FFF7FEFF 		bl	sendPacketToRelay_Quad
 1791              	.L128:
 879:RelayTest.c   ****         }
 880:RelayTest.c   ****     
 881:RelayTest.c   ****     RTest_20ms_isr_count++;
 1792              		.loc 1 881 0
 1793 0048 144B     		ldr	r3, .L135+4
 1794 004a 1B88     		ldrh	r3, [r3]
 1795 004c 0133     		adds	r3, r3, #1
 1796 004e 9AB2     		uxth	r2, r3
 1797 0050 124B     		ldr	r3, .L135+4
 1798 0052 1A80     		strh	r2, [r3]	@ movhi
 882:RelayTest.c   ****     if(RTest_20ms_isr_count > TIMEOUT_FAIL)
 1799              		.loc 1 882 0
 1800 0054 114B     		ldr	r3, .L135+4
 1801 0056 1B88     		ldrh	r3, [r3]
 1802 0058 322B     		cmp	r3, #50
 1803 005a 0DD9     		bls	.L129
 883:RelayTest.c   ****     {
 884:RelayTest.c   ****         RTest_20ms_isr_count = 0;
 1804              		.loc 1 884 0
 1805 005c 0F4B     		ldr	r3, .L135+4
 1806 005e 0022     		movs	r2, #0
 1807 0060 1A80     		strh	r2, [r3]	@ movhi
 885:RelayTest.c   ****         
 886:RelayTest.c   ****         if(RTest_20ms_isr_EN == 1)
 1808              		.loc 1 886 0
 1809 0062 0F4B     		ldr	r3, .L135+8
 1810 0064 1B88     		ldrh	r3, [r3]
 1811 0066 012B     		cmp	r3, #1
 1812 0068 11D1     		bne	.L133
 887:RelayTest.c   ****             RTestStatus[CurrentTest.TestStep] = 'F';
 1813              		.loc 1 887 0
 1814 006a 0B4B     		ldr	r3, .L135
ARM GAS  C:\Users\MARTHN~1\AppData\Local\Temp\ccYtCv5j.s 			page 49


 1815 006c 5B78     		ldrb	r3, [r3, #1]	@ zero_extendqisi2
 1816 006e 1A46     		mov	r2, r3
 1817 0070 0C4B     		ldr	r3, .L135+12
 1818 0072 4621     		movs	r1, #70
 1819 0074 9954     		strb	r1, [r3, r2]
 888:RelayTest.c   ****             
 889:RelayTest.c   ****         return;
 1820              		.loc 1 889 0
 1821 0076 0AE0     		b	.L133
 1822              	.L129:
 890:RelayTest.c   ****     }
 891:RelayTest.c   ****     
 892:RelayTest.c   ****     if(RTest_20ms_isr_count > 65000)
 1823              		.loc 1 892 0
 1824 0078 084B     		ldr	r3, .L135+4
 1825 007a 1B88     		ldrh	r3, [r3]
 1826 007c 4FF6E852 		movw	r2, #65000
 1827 0080 9342     		cmp	r3, r2
 1828 0082 06D9     		bls	.L134
 893:RelayTest.c   ****         RTest_20ms_isr_count = 0;
 1829              		.loc 1 893 0
 1830 0084 054B     		ldr	r3, .L135+4
 1831 0086 0022     		movs	r2, #0
 1832 0088 1A80     		strh	r2, [r3]	@ movhi
 894:RelayTest.c   ****     
 895:RelayTest.c   ****     return;
 1833              		.loc 1 895 0
 1834 008a 00BF     		nop
 1835 008c 01E0     		b	.L134
 1836              	.L133:
 889:RelayTest.c   ****     }
 1837              		.loc 1 889 0
 1838 008e 00BF     		nop
 1839 0090 00E0     		b	.L126
 1840              	.L134:
 1841              		.loc 1 895 0
 1842 0092 00BF     		nop
 1843              	.L126:
 896:RelayTest.c   ****     
 897:RelayTest.c   **** }
 1844              		.loc 1 897 0
 1845 0094 80BD     		pop	{r7, pc}
 1846              	.L136:
 1847 0096 00BF     		.align	2
 1848              	.L135:
 1849 0098 00000000 		.word	CurrentTest
 1850 009c 08010000 		.word	RTest_20ms_isr_count
 1851 00a0 0A010000 		.word	RTest_20ms_isr_EN
 1852 00a4 0C010000 		.word	RTestStatus
 1853              		.cfi_endproc
 1854              	.LFE79:
 1855              		.size	RTest_20ms_isr, .-RTest_20ms_isr
 1856              		.section	.text.RTest_50ms_isr,"ax",%progbits
 1857              		.align	2
 1858              		.global	RTest_50ms_isr
 1859              		.thumb
 1860              		.thumb_func
ARM GAS  C:\Users\MARTHN~1\AppData\Local\Temp\ccYtCv5j.s 			page 50


 1861              		.type	RTest_50ms_isr, %function
 1862              	RTest_50ms_isr:
 1863              	.LFB80:
 898:RelayTest.c   **** 
 899:RelayTest.c   **** void RTest_50ms_isr(void)                       // Times interboard comms, and serial diagnostics
 900:RelayTest.c   **** {
 1864              		.loc 1 900 0
 1865              		.cfi_startproc
 1866              		@ args = 0, pretend = 0, frame = 0
 1867              		@ frame_needed = 1, uses_anonymous_args = 0
 1868 0000 80B5     		push	{r7, lr}
 1869              		.cfi_def_cfa_offset 8
 1870              		.cfi_offset 7, -8
 1871              		.cfi_offset 14, -4
 1872 0002 00AF     		add	r7, sp, #0
 1873              		.cfi_def_cfa_register 7
 901:RelayTest.c   ****     
 902:RelayTest.c   ****     //RTest_sendDiagPacket();
 903:RelayTest.c   ****     
 904:RelayTest.c   ****     //if(isr_count > 5)
 905:RelayTest.c   ****         
 906:RelayTest.c   **** //    if( (isr_count % 5) == 0 )
 907:RelayTest.c   **** //    {
 908:RelayTest.c   ****         if( (CurrentTest.TestStep == TEST_OUTPUTS) ||
 1874              		.loc 1 908 0
 1875 0004 0F4B     		ldr	r3, .L143
 1876 0006 5B78     		ldrb	r3, [r3, #1]	@ zero_extendqisi2
 1877 0008 022B     		cmp	r3, #2
 1878 000a 0FD0     		beq	.L138
 909:RelayTest.c   ****             (CurrentTest.TestStep == DATALINK) ||
 1879              		.loc 1 909 0 discriminator 1
 1880 000c 0D4B     		ldr	r3, .L143
 1881 000e 5B78     		ldrb	r3, [r3, #1]	@ zero_extendqisi2
 908:RelayTest.c   ****             (CurrentTest.TestStep == DATALINK) ||
 1882              		.loc 1 908 0 discriminator 1
 1883 0010 032B     		cmp	r3, #3
 1884 0012 0BD0     		beq	.L138
 910:RelayTest.c   ****             (CurrentTest.TestStep == UART_SIREN) ||
 1885              		.loc 1 910 0
 1886 0014 0B4B     		ldr	r3, .L143
 1887 0016 5B78     		ldrb	r3, [r3, #1]	@ zero_extendqisi2
 909:RelayTest.c   ****             (CurrentTest.TestStep == DATALINK) ||
 1888              		.loc 1 909 0
 1889 0018 0C2B     		cmp	r3, #12
 1890 001a 07D0     		beq	.L138
 911:RelayTest.c   ****             (CurrentTest.TestStep == INPUTS) ||
 1891              		.loc 1 911 0
 1892 001c 094B     		ldr	r3, .L143
 1893 001e 5B78     		ldrb	r3, [r3, #1]	@ zero_extendqisi2
 910:RelayTest.c   ****             (CurrentTest.TestStep == UART_SIREN) ||
 1894              		.loc 1 910 0
 1895 0020 0D2B     		cmp	r3, #13
 1896 0022 03D0     		beq	.L138
 912:RelayTest.c   ****             (CurrentTest.TestStep == BLOCK_CURRENTS) )
 1897              		.loc 1 912 0
 1898 0024 074B     		ldr	r3, .L143
 1899 0026 5B78     		ldrb	r3, [r3, #1]	@ zero_extendqisi2
ARM GAS  C:\Users\MARTHN~1\AppData\Local\Temp\ccYtCv5j.s 			page 51


 911:RelayTest.c   ****             (CurrentTest.TestStep == INPUTS) ||
 1900              		.loc 1 911 0
 1901 0028 0F2B     		cmp	r3, #15
 1902 002a 01D1     		bne	.L139
 1903              	.L138:
 913:RelayTest.c   ****         {      
 914:RelayTest.c   ****             sendPacketToRelaySiren();               //*** used for UART_SIREN
 1904              		.loc 1 914 0
 1905 002c FFF7FEFF 		bl	sendPacketToRelaySiren
 1906              	.L139:
 915:RelayTest.c   ****         }
 916:RelayTest.c   ****             
 917:RelayTest.c   ****         if( CurrentTest.TestStep == UART_SIREN )
 1907              		.loc 1 917 0
 1908 0030 044B     		ldr	r3, .L143
 1909 0032 5B78     		ldrb	r3, [r3, #1]	@ zero_extendqisi2
 1910 0034 0C2B     		cmp	r3, #12
 1911 0036 02D1     		bne	.L142
 918:RelayTest.c   ****         {   
 919:RelayTest.c   ****             sendPacket_SirenToRelay();              //*** used for UART_SIREN
 1912              		.loc 1 919 0
 1913 0038 FFF7FEFF 		bl	sendPacket_SirenToRelay
 920:RelayTest.c   ****         }
 921:RelayTest.c   **** //    }
 922:RelayTest.c   ****     
 923:RelayTest.c   ****     return;
 1914              		.loc 1 923 0
 1915 003c 00BF     		nop
 1916              	.L142:
 1917 003e 00BF     		nop
 924:RelayTest.c   ****     
 925:RelayTest.c   **** }
 1918              		.loc 1 925 0
 1919 0040 80BD     		pop	{r7, pc}
 1920              	.L144:
 1921 0042 00BF     		.align	2
 1922              	.L143:
 1923 0044 00000000 		.word	CurrentTest
 1924              		.cfi_endproc
 1925              	.LFE80:
 1926              		.size	RTest_50ms_isr, .-RTest_50ms_isr
 1927              		.section	.text.SetRelayOutputs,"ax",%progbits
 1928              		.align	2
 1929              		.global	SetRelayOutputs
 1930              		.thumb
 1931              		.thumb_func
 1932              		.type	SetRelayOutputs, %function
 1933              	SetRelayOutputs:
 1934              	.LFB81:
 926:RelayTest.c   **** 
 927:RelayTest.c   **** void SetRelayOutputs(uint8 enable)
 928:RelayTest.c   **** {
 1935              		.loc 1 928 0
 1936              		.cfi_startproc
 1937              		@ args = 0, pretend = 0, frame = 8
 1938              		@ frame_needed = 1, uses_anonymous_args = 0
 1939              		@ link register save eliminated.
ARM GAS  C:\Users\MARTHN~1\AppData\Local\Temp\ccYtCv5j.s 			page 52


 1940 0000 80B4     		push	{r7}
 1941              		.cfi_def_cfa_offset 4
 1942              		.cfi_offset 7, -4
 1943 0002 83B0     		sub	sp, sp, #12
 1944              		.cfi_def_cfa_offset 16
 1945 0004 00AF     		add	r7, sp, #0
 1946              		.cfi_def_cfa_register 7
 1947 0006 0346     		mov	r3, r0
 1948 0008 FB71     		strb	r3, [r7, #7]
 929:RelayTest.c   ****     if(enable == 1)
 1949              		.loc 1 929 0
 1950 000a FB79     		ldrb	r3, [r7, #7]	@ zero_extendqisi2
 1951 000c 012B     		cmp	r3, #1
 1952 000e 14D1     		bne	.L146
 930:RelayTest.c   ****     {
 931:RelayTest.c   ****         pTxPacket_RelaySiren->Payload.Outputs_1to8 = 0xFF;       // Turn on all Relay outputs
 1953              		.loc 1 931 0
 1954 0010 164B     		ldr	r3, .L149
 1955 0012 1B68     		ldr	r3, [r3]
 1956 0014 FF22     		movs	r2, #255
 1957 0016 83F84520 		strb	r2, [r3, #69]
 932:RelayTest.c   ****         pTxPacket_RelaySiren->Payload.Outputs_9to16 = 0xFF;
 1958              		.loc 1 932 0
 1959 001a 144B     		ldr	r3, .L149
 1960 001c 1B68     		ldr	r3, [r3]
 1961 001e FF22     		movs	r2, #255
 1962 0020 83F84620 		strb	r2, [r3, #70]
 933:RelayTest.c   ****         pTxPacket_RelaySiren->Payload.Outputs_17to24 = 0xFF;
 1963              		.loc 1 933 0
 1964 0024 114B     		ldr	r3, .L149
 1965 0026 1B68     		ldr	r3, [r3]
 1966 0028 FF22     		movs	r2, #255
 1967 002a 83F84720 		strb	r2, [r3, #71]
 934:RelayTest.c   ****         pTxPacket_RelaySiren->Payload.Outputs_25to32 = 0xFF;
 1968              		.loc 1 934 0
 1969 002e 0F4B     		ldr	r3, .L149
 1970 0030 1B68     		ldr	r3, [r3]
 1971 0032 FF22     		movs	r2, #255
 1972 0034 83F84820 		strb	r2, [r3, #72]
 935:RelayTest.c   ****     }
 936:RelayTest.c   ****     else
 937:RelayTest.c   ****     {
 938:RelayTest.c   ****         pTxPacket_RelaySiren->Payload.Outputs_1to8 = 0x00;       // Turn off all Relay outputs
 939:RelayTest.c   ****         pTxPacket_RelaySiren->Payload.Outputs_9to16 = 0x00;
 940:RelayTest.c   ****         pTxPacket_RelaySiren->Payload.Outputs_17to24 = 0x00;
 941:RelayTest.c   ****         pTxPacket_RelaySiren->Payload.Outputs_25to32 = 0x00;
 942:RelayTest.c   ****     }
 943:RelayTest.c   ****         
 944:RelayTest.c   ****     return;
 1973              		.loc 1 944 0
 1974 0038 14E0     		b	.L145
 1975              	.L146:
 938:RelayTest.c   ****         pTxPacket_RelaySiren->Payload.Outputs_9to16 = 0x00;
 1976              		.loc 1 938 0
 1977 003a 0C4B     		ldr	r3, .L149
 1978 003c 1B68     		ldr	r3, [r3]
 1979 003e 0022     		movs	r2, #0
ARM GAS  C:\Users\MARTHN~1\AppData\Local\Temp\ccYtCv5j.s 			page 53


 1980 0040 83F84520 		strb	r2, [r3, #69]
 939:RelayTest.c   ****         pTxPacket_RelaySiren->Payload.Outputs_17to24 = 0x00;
 1981              		.loc 1 939 0
 1982 0044 094B     		ldr	r3, .L149
 1983 0046 1B68     		ldr	r3, [r3]
 1984 0048 0022     		movs	r2, #0
 1985 004a 83F84620 		strb	r2, [r3, #70]
 940:RelayTest.c   ****         pTxPacket_RelaySiren->Payload.Outputs_25to32 = 0x00;
 1986              		.loc 1 940 0
 1987 004e 074B     		ldr	r3, .L149
 1988 0050 1B68     		ldr	r3, [r3]
 1989 0052 0022     		movs	r2, #0
 1990 0054 83F84720 		strb	r2, [r3, #71]
 941:RelayTest.c   ****     }
 1991              		.loc 1 941 0
 1992 0058 044B     		ldr	r3, .L149
 1993 005a 1B68     		ldr	r3, [r3]
 1994 005c 0022     		movs	r2, #0
 1995 005e 83F84820 		strb	r2, [r3, #72]
 1996              		.loc 1 944 0
 1997 0062 00BF     		nop
 1998              	.L145:
 945:RelayTest.c   ****     
 946:RelayTest.c   **** }
 1999              		.loc 1 946 0
 2000 0064 0C37     		adds	r7, r7, #12
 2001              		.cfi_def_cfa_offset 4
 2002 0066 BD46     		mov	sp, r7
 2003              		.cfi_def_cfa_register 13
 2004              		@ sp needed
 2005 0068 80BC     		pop	{r7}
 2006              		.cfi_restore 7
 2007              		.cfi_def_cfa_offset 0
 2008 006a 7047     		bx	lr
 2009              	.L150:
 2010              		.align	2
 2011              	.L149:
 2012 006c 78000000 		.word	pTxPacket_RelaySiren
 2013              		.cfi_endproc
 2014              	.LFE81:
 2015              		.size	SetRelayOutputs, .-SetRelayOutputs
 2016              		.section	.text.RTest_StartAutomatedStep,"ax",%progbits
 2017              		.align	2
 2018              		.global	RTest_StartAutomatedStep
 2019              		.thumb
 2020              		.thumb_func
 2021              		.type	RTest_StartAutomatedStep, %function
 2022              	RTest_StartAutomatedStep:
 2023              	.LFB82:
 947:RelayTest.c   **** 
 948:RelayTest.c   **** //void RTest_20ms_isr_start(void)
 949:RelayTest.c   **** //{
 950:RelayTest.c   **** //    
 951:RelayTest.c   **** //    RTest_20ms_isr_count = 0;
 952:RelayTest.c   **** //    
 953:RelayTest.c   **** //    return;
 954:RelayTest.c   **** //    
ARM GAS  C:\Users\MARTHN~1\AppData\Local\Temp\ccYtCv5j.s 			page 54


 955:RelayTest.c   **** //}
 956:RelayTest.c   **** 
 957:RelayTest.c   **** void RTest_StartAutomatedStep(void)
 958:RelayTest.c   **** {
 2024              		.loc 1 958 0
 2025              		.cfi_startproc
 2026              		@ args = 0, pretend = 0, frame = 0
 2027              		@ frame_needed = 1, uses_anonymous_args = 0
 2028              		@ link register save eliminated.
 2029 0000 80B4     		push	{r7}
 2030              		.cfi_def_cfa_offset 4
 2031              		.cfi_offset 7, -4
 2032 0002 00AF     		add	r7, sp, #0
 2033              		.cfi_def_cfa_register 7
 959:RelayTest.c   ****     
 960:RelayTest.c   ****     RTestStatus[CurrentTest.TestStep] = 'B';
 2034              		.loc 1 960 0
 2035 0004 074B     		ldr	r3, .L153
 2036 0006 5B78     		ldrb	r3, [r3, #1]	@ zero_extendqisi2
 2037 0008 1A46     		mov	r2, r3
 2038 000a 074B     		ldr	r3, .L153+4
 2039 000c 4221     		movs	r1, #66
 2040 000e 9954     		strb	r1, [r3, r2]
 961:RelayTest.c   ****     RTest_20ms_isr_count = 0;
 2041              		.loc 1 961 0
 2042 0010 064B     		ldr	r3, .L153+8
 2043 0012 0022     		movs	r2, #0
 2044 0014 1A80     		strh	r2, [r3]	@ movhi
 962:RelayTest.c   ****     RTest_20ms_isr_EN = 1;
 2045              		.loc 1 962 0
 2046 0016 064B     		ldr	r3, .L153+12
 2047 0018 0122     		movs	r2, #1
 2048 001a 1A80     		strh	r2, [r3]	@ movhi
 963:RelayTest.c   ****     
 964:RelayTest.c   ****     return;
 2049              		.loc 1 964 0
 2050 001c 00BF     		nop
 965:RelayTest.c   ****     
 966:RelayTest.c   **** }
 2051              		.loc 1 966 0
 2052 001e BD46     		mov	sp, r7
 2053              		.cfi_def_cfa_register 13
 2054              		@ sp needed
 2055 0020 80BC     		pop	{r7}
 2056              		.cfi_restore 7
 2057              		.cfi_def_cfa_offset 0
 2058 0022 7047     		bx	lr
 2059              	.L154:
 2060              		.align	2
 2061              	.L153:
 2062 0024 00000000 		.word	CurrentTest
 2063 0028 0C010000 		.word	RTestStatus
 2064 002c 08010000 		.word	RTest_20ms_isr_count
 2065 0030 0A010000 		.word	RTest_20ms_isr_EN
 2066              		.cfi_endproc
 2067              	.LFE82:
 2068              		.size	RTest_StartAutomatedStep, .-RTest_StartAutomatedStep
ARM GAS  C:\Users\MARTHN~1\AppData\Local\Temp\ccYtCv5j.s 			page 55


 2069              		.section	.text.RTest_StopAutomatedStep,"ax",%progbits
 2070              		.align	2
 2071              		.global	RTest_StopAutomatedStep
 2072              		.thumb
 2073              		.thumb_func
 2074              		.type	RTest_StopAutomatedStep, %function
 2075              	RTest_StopAutomatedStep:
 2076              	.LFB83:
 967:RelayTest.c   **** 
 968:RelayTest.c   **** void RTest_StopAutomatedStep(void)
 969:RelayTest.c   **** {
 2077              		.loc 1 969 0
 2078              		.cfi_startproc
 2079              		@ args = 0, pretend = 0, frame = 0
 2080              		@ frame_needed = 1, uses_anonymous_args = 0
 2081              		@ link register save eliminated.
 2082 0000 80B4     		push	{r7}
 2083              		.cfi_def_cfa_offset 4
 2084              		.cfi_offset 7, -4
 2085 0002 00AF     		add	r7, sp, #0
 2086              		.cfi_def_cfa_register 7
 970:RelayTest.c   ****     
 971:RelayTest.c   ****     RTest_20ms_isr_EN = 0;
 2087              		.loc 1 971 0
 2088 0004 0A4B     		ldr	r3, .L159
 2089 0006 0022     		movs	r2, #0
 2090 0008 1A80     		strh	r2, [r3]	@ movhi
 972:RelayTest.c   ****     if(RTestStatus[CurrentTest.TestStep] != 'F')       // If not failed, then pass
 2091              		.loc 1 972 0
 2092 000a 0A4B     		ldr	r3, .L159+4
 2093 000c 5B78     		ldrb	r3, [r3, #1]	@ zero_extendqisi2
 2094 000e 1A46     		mov	r2, r3
 2095 0010 094B     		ldr	r3, .L159+8
 2096 0012 9B5C     		ldrb	r3, [r3, r2]	@ zero_extendqisi2
 2097 0014 462B     		cmp	r3, #70
 2098 0016 06D0     		beq	.L158
 973:RelayTest.c   ****         RTestStatus[CurrentTest.TestStep] = 'P';
 2099              		.loc 1 973 0
 2100 0018 064B     		ldr	r3, .L159+4
 2101 001a 5B78     		ldrb	r3, [r3, #1]	@ zero_extendqisi2
 2102 001c 1A46     		mov	r2, r3
 2103 001e 064B     		ldr	r3, .L159+8
 2104 0020 5021     		movs	r1, #80
 2105 0022 9954     		strb	r1, [r3, r2]
 974:RelayTest.c   ****     
 975:RelayTest.c   ****     return;
 2106              		.loc 1 975 0
 2107 0024 00BF     		nop
 2108              	.L158:
 2109 0026 00BF     		nop
 976:RelayTest.c   ****     
 977:RelayTest.c   **** }
 2110              		.loc 1 977 0
 2111 0028 BD46     		mov	sp, r7
 2112              		.cfi_def_cfa_register 13
 2113              		@ sp needed
 2114 002a 80BC     		pop	{r7}
ARM GAS  C:\Users\MARTHN~1\AppData\Local\Temp\ccYtCv5j.s 			page 56


 2115              		.cfi_restore 7
 2116              		.cfi_def_cfa_offset 0
 2117 002c 7047     		bx	lr
 2118              	.L160:
 2119 002e 00BF     		.align	2
 2120              	.L159:
 2121 0030 0A010000 		.word	RTest_20ms_isr_EN
 2122 0034 00000000 		.word	CurrentTest
 2123 0038 0C010000 		.word	RTestStatus
 2124              		.cfi_endproc
 2125              	.LFE83:
 2126              		.size	RTest_StopAutomatedStep, .-RTest_StopAutomatedStep
 2127              		.bss
 2128 011e 0000     		.align	2
 2129              	channel.6971:
 2130 0120 00000000 		.space	4
 2131              		.data
 2132              		.align	2
 2133              		.type	targetstring.7001, %object
 2134              		.size	targetstring.7001, 6
 2135              	targetstring.7001:
 2136 0000 24       		.byte	36
 2137 0001 47       		.byte	71
 2138 0002 50       		.byte	80
 2139 0003 4D       		.byte	77
 2140 0004 52       		.byte	82
 2141 0005 43       		.byte	67
 2142              		.bss
 2143              		.align	2
 2144              	RelayTestStatus_display.7016:
 2145 0124 00000000 		.space	36
 2145      00000000 
 2145      00000000 
 2145      00000000 
 2145      00000000 
 2146              		.text
 2147              	.Letext0:
 2148              		.file 2 "c:\\program files (x86)\\cypress\\psoc creator\\4.3\\psoc creator\\import\\gnu\\arm\\5.4.
 2149              		.file 3 "c:\\program files (x86)\\cypress\\psoc creator\\4.3\\psoc creator\\import\\gnu\\arm\\5.4.
 2150              		.file 4 "Generated_Source\\PSoC5/cytypes.h"
 2151              		.file 5 "CommonVariables.h"
 2152              		.file 6 "UART_230400_Functions.h"
 2153              		.file 7 "UART_460800_Functions.h"
 2154              		.file 8 "Generated_Source\\PSoC5/core_cm3.h"
 2155              		.section	.debug_info,"",%progbits
 2156              	.Ldebug_info0:
 2157 0000 9E110000 		.4byte	0x119e
 2158 0004 0400     		.2byte	0x4
 2159 0006 00000000 		.4byte	.Ldebug_abbrev0
 2160 000a 04       		.byte	0x4
 2161 000b 01       		.uleb128 0x1
 2162 000c C2090000 		.4byte	.LASF329
 2163 0010 0C       		.byte	0xc
 2164 0011 E70F0000 		.4byte	.LASF330
 2165 0015 C3040000 		.4byte	.LASF331
 2166 0019 00000000 		.4byte	.Ldebug_ranges0+0
 2167 001d 00000000 		.4byte	0
ARM GAS  C:\Users\MARTHN~1\AppData\Local\Temp\ccYtCv5j.s 			page 57


 2168 0021 00000000 		.4byte	.Ldebug_line0
 2169 0025 02       		.uleb128 0x2
 2170 0026 01       		.byte	0x1
 2171 0027 06       		.byte	0x6
 2172 0028 3B040000 		.4byte	.LASF0
 2173 002c 02       		.uleb128 0x2
 2174 002d 01       		.byte	0x1
 2175 002e 08       		.byte	0x8
 2176 002f 98040000 		.4byte	.LASF1
 2177 0033 02       		.uleb128 0x2
 2178 0034 02       		.byte	0x2
 2179 0035 05       		.byte	0x5
 2180 0036 550F0000 		.4byte	.LASF2
 2181 003a 02       		.uleb128 0x2
 2182 003b 02       		.byte	0x2
 2183 003c 07       		.byte	0x7
 2184 003d 3A110000 		.4byte	.LASF3
 2185 0041 03       		.uleb128 0x3
 2186 0042 5E110000 		.4byte	.LASF9
 2187 0046 02       		.byte	0x2
 2188 0047 3F       		.byte	0x3f
 2189 0048 4C000000 		.4byte	0x4c
 2190 004c 02       		.uleb128 0x2
 2191 004d 04       		.byte	0x4
 2192 004e 05       		.byte	0x5
 2193 004f 7F030000 		.4byte	.LASF4
 2194 0053 02       		.uleb128 0x2
 2195 0054 04       		.byte	0x4
 2196 0055 07       		.byte	0x7
 2197 0056 EB080000 		.4byte	.LASF5
 2198 005a 02       		.uleb128 0x2
 2199 005b 08       		.byte	0x8
 2200 005c 05       		.byte	0x5
 2201 005d 830A0000 		.4byte	.LASF6
 2202 0061 02       		.uleb128 0x2
 2203 0062 08       		.byte	0x8
 2204 0063 07       		.byte	0x7
 2205 0064 AE0C0000 		.4byte	.LASF7
 2206 0068 04       		.uleb128 0x4
 2207 0069 04       		.byte	0x4
 2208 006a 05       		.byte	0x5
 2209 006b 696E7400 		.ascii	"int\000"
 2210 006f 02       		.uleb128 0x2
 2211 0070 04       		.byte	0x4
 2212 0071 07       		.byte	0x7
 2213 0072 1D0B0000 		.4byte	.LASF8
 2214 0076 03       		.uleb128 0x3
 2215 0077 4E000000 		.4byte	.LASF10
 2216 007b 03       		.byte	0x3
 2217 007c 2C       		.byte	0x2c
 2218 007d 41000000 		.4byte	0x41
 2219 0081 05       		.uleb128 0x5
 2220 0082 280F0000 		.4byte	.LASF11
 2221 0086 04       		.byte	0x4
 2222 0087 E401     		.2byte	0x1e4
 2223 0089 2C000000 		.4byte	0x2c
 2224 008d 05       		.uleb128 0x5
ARM GAS  C:\Users\MARTHN~1\AppData\Local\Temp\ccYtCv5j.s 			page 58


 2225 008e E1110000 		.4byte	.LASF12
 2226 0092 04       		.byte	0x4
 2227 0093 E501     		.2byte	0x1e5
 2228 0095 3A000000 		.4byte	0x3a
 2229 0099 05       		.uleb128 0x5
 2230 009a F4000000 		.4byte	.LASF13
 2231 009e 04       		.byte	0x4
 2232 009f E601     		.2byte	0x1e6
 2233 00a1 53000000 		.4byte	0x53
 2234 00a5 02       		.uleb128 0x2
 2235 00a6 04       		.byte	0x4
 2236 00a7 04       		.byte	0x4
 2237 00a8 080B0000 		.4byte	.LASF14
 2238 00ac 02       		.uleb128 0x2
 2239 00ad 08       		.byte	0x8
 2240 00ae 04       		.byte	0x4
 2241 00af BB0A0000 		.4byte	.LASF15
 2242 00b3 02       		.uleb128 0x2
 2243 00b4 01       		.byte	0x1
 2244 00b5 08       		.byte	0x8
 2245 00b6 1D050000 		.4byte	.LASF16
 2246 00ba 02       		.uleb128 0x2
 2247 00bb 08       		.byte	0x8
 2248 00bc 04       		.byte	0x4
 2249 00bd EB0B0000 		.4byte	.LASF17
 2250 00c1 02       		.uleb128 0x2
 2251 00c2 04       		.byte	0x4
 2252 00c3 07       		.byte	0x7
 2253 00c4 20000000 		.4byte	.LASF18
 2254 00c8 06       		.uleb128 0x6
 2255 00c9 0E0B0000 		.4byte	.LASF23
 2256 00cd 03       		.byte	0x3
 2257 00ce 05       		.byte	0x5
 2258 00cf 10       		.byte	0x10
 2259 00d0 F9000000 		.4byte	0xf9
 2260 00d4 07       		.uleb128 0x7
 2261 00d5 FD080000 		.4byte	.LASF19
 2262 00d9 05       		.byte	0x5
 2263 00da 12       		.byte	0x12
 2264 00db 81000000 		.4byte	0x81
 2265 00df 00       		.byte	0
 2266 00e0 07       		.uleb128 0x7
 2267 00e1 500A0000 		.4byte	.LASF20
 2268 00e5 05       		.byte	0x5
 2269 00e6 13       		.byte	0x13
 2270 00e7 81000000 		.4byte	0x81
 2271 00eb 01       		.byte	0x1
 2272 00ec 07       		.uleb128 0x7
 2273 00ed B10B0000 		.4byte	.LASF21
 2274 00f1 05       		.byte	0x5
 2275 00f2 14       		.byte	0x14
 2276 00f3 81000000 		.4byte	0x81
 2277 00f7 02       		.byte	0x2
 2278 00f8 00       		.byte	0
 2279 00f9 03       		.uleb128 0x3
 2280 00fa 0A0F0000 		.4byte	.LASF22
 2281 00fe 05       		.byte	0x5
ARM GAS  C:\Users\MARTHN~1\AppData\Local\Temp\ccYtCv5j.s 			page 59


 2282 00ff 17       		.byte	0x17
 2283 0100 C8000000 		.4byte	0xc8
 2284 0104 08       		.uleb128 0x8
 2285 0105 81000000 		.4byte	0x81
 2286 0109 14010000 		.4byte	0x114
 2287 010d 09       		.uleb128 0x9
 2288 010e C1000000 		.4byte	0xc1
 2289 0112 0E       		.byte	0xe
 2290 0113 00       		.byte	0
 2291 0114 06       		.uleb128 0x6
 2292 0115 370F0000 		.4byte	.LASF24
 2293 0119 0F       		.byte	0xf
 2294 011a 06       		.byte	0x6
 2295 011b 62       		.byte	0x62
 2296 011c D5010000 		.4byte	0x1d5
 2297 0120 07       		.uleb128 0x7
 2298 0121 A8020000 		.4byte	.LASF25
 2299 0125 06       		.byte	0x6
 2300 0126 64       		.byte	0x64
 2301 0127 81000000 		.4byte	0x81
 2302 012b 00       		.byte	0
 2303 012c 07       		.uleb128 0x7
 2304 012d B7020000 		.4byte	.LASF26
 2305 0131 06       		.byte	0x6
 2306 0132 65       		.byte	0x65
 2307 0133 81000000 		.4byte	0x81
 2308 0137 01       		.byte	0x1
 2309 0138 07       		.uleb128 0x7
 2310 0139 C6020000 		.4byte	.LASF27
 2311 013d 06       		.byte	0x6
 2312 013e 66       		.byte	0x66
 2313 013f 81000000 		.4byte	0x81
 2314 0143 02       		.byte	0x2
 2315 0144 07       		.uleb128 0x7
 2316 0145 D5020000 		.4byte	.LASF28
 2317 0149 06       		.byte	0x6
 2318 014a 67       		.byte	0x67
 2319 014b 81000000 		.4byte	0x81
 2320 014f 03       		.byte	0x3
 2321 0150 07       		.uleb128 0x7
 2322 0151 C00B0000 		.4byte	.LASF29
 2323 0155 06       		.byte	0x6
 2324 0156 68       		.byte	0x68
 2325 0157 81000000 		.4byte	0x81
 2326 015b 04       		.byte	0x4
 2327 015c 07       		.uleb128 0x7
 2328 015d 6D060000 		.4byte	.LASF30
 2329 0161 06       		.byte	0x6
 2330 0162 69       		.byte	0x69
 2331 0163 81000000 		.4byte	0x81
 2332 0167 05       		.byte	0x5
 2333 0168 07       		.uleb128 0x7
 2334 0169 F40D0000 		.4byte	.LASF31
 2335 016d 06       		.byte	0x6
 2336 016e 6A       		.byte	0x6a
 2337 016f 81000000 		.4byte	0x81
 2338 0173 06       		.byte	0x6
ARM GAS  C:\Users\MARTHN~1\AppData\Local\Temp\ccYtCv5j.s 			page 60


 2339 0174 07       		.uleb128 0x7
 2340 0175 D70C0000 		.4byte	.LASF32
 2341 0179 06       		.byte	0x6
 2342 017a 6B       		.byte	0x6b
 2343 017b 81000000 		.4byte	0x81
 2344 017f 07       		.byte	0x7
 2345 0180 07       		.uleb128 0x7
 2346 0181 2A0B0000 		.4byte	.LASF33
 2347 0185 06       		.byte	0x6
 2348 0186 6C       		.byte	0x6c
 2349 0187 81000000 		.4byte	0x81
 2350 018b 08       		.byte	0x8
 2351 018c 07       		.uleb128 0x7
 2352 018d 360B0000 		.4byte	.LASF34
 2353 0191 06       		.byte	0x6
 2354 0192 6D       		.byte	0x6d
 2355 0193 81000000 		.4byte	0x81
 2356 0197 09       		.byte	0x9
 2357 0198 07       		.uleb128 0x7
 2358 0199 420B0000 		.4byte	.LASF35
 2359 019d 06       		.byte	0x6
 2360 019e 6E       		.byte	0x6e
 2361 019f 81000000 		.4byte	0x81
 2362 01a3 0A       		.byte	0xa
 2363 01a4 07       		.uleb128 0x7
 2364 01a5 BD110000 		.4byte	.LASF36
 2365 01a9 06       		.byte	0x6
 2366 01aa 6F       		.byte	0x6f
 2367 01ab 81000000 		.4byte	0x81
 2368 01af 0B       		.byte	0xb
 2369 01b0 07       		.uleb128 0x7
 2370 01b1 C9110000 		.4byte	.LASF37
 2371 01b5 06       		.byte	0x6
 2372 01b6 70       		.byte	0x70
 2373 01b7 81000000 		.4byte	0x81
 2374 01bb 0C       		.byte	0xc
 2375 01bc 07       		.uleb128 0x7
 2376 01bd D5110000 		.4byte	.LASF38
 2377 01c1 06       		.byte	0x6
 2378 01c2 71       		.byte	0x71
 2379 01c3 81000000 		.4byte	0x81
 2380 01c7 0D       		.byte	0xd
 2381 01c8 07       		.uleb128 0x7
 2382 01c9 6F040000 		.4byte	.LASF39
 2383 01cd 06       		.byte	0x6
 2384 01ce 72       		.byte	0x72
 2385 01cf 81000000 		.4byte	0x81
 2386 01d3 0E       		.byte	0xe
 2387 01d4 00       		.byte	0
 2388 01d5 0A       		.uleb128 0xa
 2389 01d6 5B0E0000 		.4byte	.LASF122
 2390 01da 0F       		.byte	0xf
 2391 01db 06       		.byte	0x6
 2392 01dc 5E       		.byte	0x5e
 2393 01dd F8010000 		.4byte	0x1f8
 2394 01e1 0B       		.uleb128 0xb
 2395 01e2 17050000 		.4byte	.LASF40
ARM GAS  C:\Users\MARTHN~1\AppData\Local\Temp\ccYtCv5j.s 			page 61


 2396 01e6 06       		.byte	0x6
 2397 01e7 60       		.byte	0x60
 2398 01e8 04010000 		.4byte	0x104
 2399 01ec 0B       		.uleb128 0xb
 2400 01ed 78040000 		.4byte	.LASF41
 2401 01f1 06       		.byte	0x6
 2402 01f2 73       		.byte	0x73
 2403 01f3 14010000 		.4byte	0x114
 2404 01f7 00       		.byte	0
 2405 01f8 03       		.uleb128 0x3
 2406 01f9 950F0000 		.4byte	.LASF42
 2407 01fd 06       		.byte	0x6
 2408 01fe 74       		.byte	0x74
 2409 01ff D5010000 		.4byte	0x1d5
 2410 0203 06       		.uleb128 0x6
 2411 0204 9D100000 		.4byte	.LASF43
 2412 0208 4F       		.byte	0x4f
 2413 0209 06       		.byte	0x6
 2414 020a 8F       		.byte	0x8f
 2415 020b C4050000 		.4byte	0x5c4
 2416 020f 07       		.uleb128 0x7
 2417 0210 B5070000 		.4byte	.LASF44
 2418 0214 06       		.byte	0x6
 2419 0215 91       		.byte	0x91
 2420 0216 81000000 		.4byte	0x81
 2421 021a 00       		.byte	0
 2422 021b 07       		.uleb128 0x7
 2423 021c 97070000 		.4byte	.LASF45
 2424 0220 06       		.byte	0x6
 2425 0221 92       		.byte	0x92
 2426 0222 81000000 		.4byte	0x81
 2427 0226 01       		.byte	0x1
 2428 0227 07       		.uleb128 0x7
 2429 0228 8E070000 		.4byte	.LASF46
 2430 022c 06       		.byte	0x6
 2431 022d 93       		.byte	0x93
 2432 022e 81000000 		.4byte	0x81
 2433 0232 02       		.byte	0x2
 2434 0233 07       		.uleb128 0x7
 2435 0234 21040000 		.4byte	.LASF47
 2436 0238 06       		.byte	0x6
 2437 0239 94       		.byte	0x94
 2438 023a 81000000 		.4byte	0x81
 2439 023e 03       		.byte	0x3
 2440 023f 07       		.uleb128 0x7
 2441 0240 0C040000 		.4byte	.LASF48
 2442 0244 06       		.byte	0x6
 2443 0245 95       		.byte	0x95
 2444 0246 81000000 		.4byte	0x81
 2445 024a 04       		.byte	0x4
 2446 024b 07       		.uleb128 0x7
 2447 024c 03040000 		.4byte	.LASF49
 2448 0250 06       		.byte	0x6
 2449 0251 96       		.byte	0x96
 2450 0252 81000000 		.4byte	0x81
 2451 0256 05       		.byte	0x5
 2452 0257 07       		.uleb128 0x7
ARM GAS  C:\Users\MARTHN~1\AppData\Local\Temp\ccYtCv5j.s 			page 62


 2453 0258 FA110000 		.4byte	.LASF50
 2454 025c 06       		.byte	0x6
 2455 025d 97       		.byte	0x97
 2456 025e 81000000 		.4byte	0x81
 2457 0262 06       		.byte	0x6
 2458 0263 07       		.uleb128 0x7
 2459 0264 F1110000 		.4byte	.LASF51
 2460 0268 06       		.byte	0x6
 2461 0269 98       		.byte	0x98
 2462 026a 81000000 		.4byte	0x81
 2463 026e 07       		.byte	0x7
 2464 026f 07       		.uleb128 0x7
 2465 0270 E8110000 		.4byte	.LASF52
 2466 0274 06       		.byte	0x6
 2467 0275 99       		.byte	0x99
 2468 0276 81000000 		.4byte	0x81
 2469 027a 08       		.byte	0x8
 2470 027b 07       		.uleb128 0x7
 2471 027c A10E0000 		.4byte	.LASF53
 2472 0280 06       		.byte	0x6
 2473 0281 9A       		.byte	0x9a
 2474 0282 81000000 		.4byte	0x81
 2475 0286 09       		.byte	0x9
 2476 0287 07       		.uleb128 0x7
 2477 0288 780E0000 		.4byte	.LASF54
 2478 028c 06       		.byte	0x6
 2479 028d 9B       		.byte	0x9b
 2480 028e 81000000 		.4byte	0x81
 2481 0292 0A       		.byte	0xa
 2482 0293 07       		.uleb128 0x7
 2483 0294 6F0E0000 		.4byte	.LASF55
 2484 0298 06       		.byte	0x6
 2485 0299 9C       		.byte	0x9c
 2486 029a 81000000 		.4byte	0x81
 2487 029e 0B       		.byte	0xb
 2488 029f 07       		.uleb128 0x7
 2489 02a0 880B0000 		.4byte	.LASF56
 2490 02a4 06       		.byte	0x6
 2491 02a5 9D       		.byte	0x9d
 2492 02a6 81000000 		.4byte	0x81
 2493 02aa 0C       		.byte	0xc
 2494 02ab 07       		.uleb128 0x7
 2495 02ac 710B0000 		.4byte	.LASF57
 2496 02b0 06       		.byte	0x6
 2497 02b1 9E       		.byte	0x9e
 2498 02b2 81000000 		.4byte	0x81
 2499 02b6 0D       		.byte	0xd
 2500 02b7 07       		.uleb128 0x7
 2501 02b8 590B0000 		.4byte	.LASF58
 2502 02bc 06       		.byte	0x6
 2503 02bd 9F       		.byte	0x9f
 2504 02be 81000000 		.4byte	0x81
 2505 02c2 0E       		.byte	0xe
 2506 02c3 07       		.uleb128 0x7
 2507 02c4 3A010000 		.4byte	.LASF59
 2508 02c8 06       		.byte	0x6
 2509 02c9 A0       		.byte	0xa0
ARM GAS  C:\Users\MARTHN~1\AppData\Local\Temp\ccYtCv5j.s 			page 63


 2510 02ca 81000000 		.4byte	0x81
 2511 02ce 0F       		.byte	0xf
 2512 02cf 07       		.uleb128 0x7
 2513 02d0 85070000 		.4byte	.LASF60
 2514 02d4 06       		.byte	0x6
 2515 02d5 A1       		.byte	0xa1
 2516 02d6 81000000 		.4byte	0x81
 2517 02da 10       		.byte	0x10
 2518 02db 07       		.uleb128 0x7
 2519 02dc 6C070000 		.4byte	.LASF61
 2520 02e0 06       		.byte	0x6
 2521 02e1 A2       		.byte	0xa2
 2522 02e2 81000000 		.4byte	0x81
 2523 02e6 11       		.byte	0x11
 2524 02e7 07       		.uleb128 0x7
 2525 02e8 240C0000 		.4byte	.LASF62
 2526 02ec 06       		.byte	0x6
 2527 02ed A3       		.byte	0xa3
 2528 02ee 81000000 		.4byte	0x81
 2529 02f2 12       		.byte	0x12
 2530 02f3 07       		.uleb128 0x7
 2531 02f4 FA030000 		.4byte	.LASF63
 2532 02f8 06       		.byte	0x6
 2533 02f9 A4       		.byte	0xa4
 2534 02fa 81000000 		.4byte	0x81
 2535 02fe 13       		.byte	0x13
 2536 02ff 07       		.uleb128 0x7
 2537 0300 F1030000 		.4byte	.LASF64
 2538 0304 06       		.byte	0x6
 2539 0305 A5       		.byte	0xa5
 2540 0306 81000000 		.4byte	0x81
 2541 030a 14       		.byte	0x14
 2542 030b 07       		.uleb128 0x7
 2543 030c 910A0000 		.4byte	.LASF65
 2544 0310 06       		.byte	0x6
 2545 0311 A6       		.byte	0xa6
 2546 0312 81000000 		.4byte	0x81
 2547 0316 15       		.byte	0x15
 2548 0317 07       		.uleb128 0x7
 2549 0318 7A0A0000 		.4byte	.LASF66
 2550 031c 06       		.byte	0x6
 2551 031d A7       		.byte	0xa7
 2552 031e 81000000 		.4byte	0x81
 2553 0322 16       		.byte	0x16
 2554 0323 07       		.uleb128 0x7
 2555 0324 710A0000 		.4byte	.LASF67
 2556 0328 06       		.byte	0x6
 2557 0329 A8       		.byte	0xa8
 2558 032a 81000000 		.4byte	0x81
 2559 032e 17       		.byte	0x17
 2560 032f 07       		.uleb128 0x7
 2561 0330 B5050000 		.4byte	.LASF68
 2562 0334 06       		.byte	0x6
 2563 0335 A9       		.byte	0xa9
 2564 0336 81000000 		.4byte	0x81
 2565 033a 18       		.byte	0x18
 2566 033b 07       		.uleb128 0x7
ARM GAS  C:\Users\MARTHN~1\AppData\Local\Temp\ccYtCv5j.s 			page 64


 2567 033c AC050000 		.4byte	.LASF69
 2568 0340 06       		.byte	0x6
 2569 0341 AA       		.byte	0xaa
 2570 0342 81000000 		.4byte	0x81
 2571 0346 19       		.byte	0x19
 2572 0347 07       		.uleb128 0x7
 2573 0348 A3050000 		.4byte	.LASF70
 2574 034c 06       		.byte	0x6
 2575 034d AB       		.byte	0xab
 2576 034e 81000000 		.4byte	0x81
 2577 0352 1A       		.byte	0x1a
 2578 0353 07       		.uleb128 0x7
 2579 0354 88010000 		.4byte	.LASF71
 2580 0358 06       		.byte	0x6
 2581 0359 AC       		.byte	0xac
 2582 035a 81000000 		.4byte	0x81
 2583 035e 1B       		.byte	0x1b
 2584 035f 07       		.uleb128 0x7
 2585 0360 73010000 		.4byte	.LASF72
 2586 0364 06       		.byte	0x6
 2587 0365 AD       		.byte	0xad
 2588 0366 81000000 		.4byte	0x81
 2589 036a 1C       		.byte	0x1c
 2590 036b 07       		.uleb128 0x7
 2591 036c 6A010000 		.4byte	.LASF73
 2592 0370 06       		.byte	0x6
 2593 0371 AE       		.byte	0xae
 2594 0372 81000000 		.4byte	0x81
 2595 0376 1D       		.byte	0x1d
 2596 0377 07       		.uleb128 0x7
 2597 0378 94100000 		.4byte	.LASF74
 2598 037c 06       		.byte	0x6
 2599 037d AF       		.byte	0xaf
 2600 037e 81000000 		.4byte	0x81
 2601 0382 1E       		.byte	0x1e
 2602 0383 07       		.uleb128 0x7
 2603 0384 7D100000 		.4byte	.LASF75
 2604 0388 06       		.byte	0x6
 2605 0389 B0       		.byte	0xb0
 2606 038a 81000000 		.4byte	0x81
 2607 038e 1F       		.byte	0x1f
 2608 038f 07       		.uleb128 0x7
 2609 0390 74100000 		.4byte	.LASF76
 2610 0394 06       		.byte	0x6
 2611 0395 B1       		.byte	0xb1
 2612 0396 81000000 		.4byte	0x81
 2613 039a 20       		.byte	0x20
 2614 039b 07       		.uleb128 0x7
 2615 039c C50C0000 		.4byte	.LASF77
 2616 03a0 06       		.byte	0x6
 2617 03a1 B2       		.byte	0xb2
 2618 03a2 81000000 		.4byte	0x81
 2619 03a6 21       		.byte	0x21
 2620 03a7 07       		.uleb128 0x7
 2621 03a8 910C0000 		.4byte	.LASF78
 2622 03ac 06       		.byte	0x6
 2623 03ad B3       		.byte	0xb3
ARM GAS  C:\Users\MARTHN~1\AppData\Local\Temp\ccYtCv5j.s 			page 65


 2624 03ae 81000000 		.4byte	0x81
 2625 03b2 22       		.byte	0x22
 2626 03b3 07       		.uleb128 0x7
 2627 03b4 880C0000 		.4byte	.LASF79
 2628 03b8 06       		.byte	0x6
 2629 03b9 B4       		.byte	0xb4
 2630 03ba 81000000 		.4byte	0x81
 2631 03be 23       		.byte	0x23
 2632 03bf 07       		.uleb128 0x7
 2633 03c0 3E030000 		.4byte	.LASF80
 2634 03c4 06       		.byte	0x6
 2635 03c5 B5       		.byte	0xb5
 2636 03c6 81000000 		.4byte	0x81
 2637 03ca 24       		.byte	0x24
 2638 03cb 07       		.uleb128 0x7
 2639 03cc 680A0000 		.4byte	.LASF81
 2640 03d0 06       		.byte	0x6
 2641 03d1 B6       		.byte	0xb6
 2642 03d2 81000000 		.4byte	0x81
 2643 03d6 25       		.byte	0x25
 2644 03d7 07       		.uleb128 0x7
 2645 03d8 5F0A0000 		.4byte	.LASF82
 2646 03dc 06       		.byte	0x6
 2647 03dd B7       		.byte	0xb7
 2648 03de 81000000 		.4byte	0x81
 2649 03e2 26       		.byte	0x26
 2650 03e3 07       		.uleb128 0x7
 2651 03e4 BB0D0000 		.4byte	.LASF83
 2652 03e8 06       		.byte	0x6
 2653 03e9 B8       		.byte	0xb8
 2654 03ea 81000000 		.4byte	0x81
 2655 03ee 27       		.byte	0x27
 2656 03ef 07       		.uleb128 0x7
 2657 03f0 38050000 		.4byte	.LASF84
 2658 03f4 06       		.byte	0x6
 2659 03f5 B9       		.byte	0xb9
 2660 03f6 81000000 		.4byte	0x81
 2661 03fa 28       		.byte	0x28
 2662 03fb 07       		.uleb128 0x7
 2663 03fc 2F050000 		.4byte	.LASF85
 2664 0400 06       		.byte	0x6
 2665 0401 BA       		.byte	0xba
 2666 0402 81000000 		.4byte	0x81
 2667 0406 29       		.byte	0x29
 2668 0407 07       		.uleb128 0x7
 2669 0408 82060000 		.4byte	.LASF86
 2670 040c 06       		.byte	0x6
 2671 040d BB       		.byte	0xbb
 2672 040e 81000000 		.4byte	0x81
 2673 0412 2A       		.byte	0x2a
 2674 0413 07       		.uleb128 0x7
 2675 0414 52010000 		.4byte	.LASF87
 2676 0418 06       		.byte	0x6
 2677 0419 BC       		.byte	0xbc
 2678 041a 81000000 		.4byte	0x81
 2679 041e 2B       		.byte	0x2b
 2680 041f 07       		.uleb128 0x7
ARM GAS  C:\Users\MARTHN~1\AppData\Local\Temp\ccYtCv5j.s 			page 66


 2681 0420 53060000 		.4byte	.LASF88
 2682 0424 06       		.byte	0x6
 2683 0425 BD       		.byte	0xbd
 2684 0426 81000000 		.4byte	0x81
 2685 042a 2C       		.byte	0x2c
 2686 042b 07       		.uleb128 0x7
 2687 042c 22110000 		.4byte	.LASF89
 2688 0430 06       		.byte	0x6
 2689 0431 BE       		.byte	0xbe
 2690 0432 81000000 		.4byte	0x81
 2691 0436 2D       		.byte	0x2d
 2692 0437 07       		.uleb128 0x7
 2693 0438 6B100000 		.4byte	.LASF90
 2694 043c 06       		.byte	0x6
 2695 043d BF       		.byte	0xbf
 2696 043e 81000000 		.4byte	0x81
 2697 0442 2E       		.byte	0x2e
 2698 0443 07       		.uleb128 0x7
 2699 0444 62100000 		.4byte	.LASF91
 2700 0448 06       		.byte	0x6
 2701 0449 C0       		.byte	0xc0
 2702 044a 81000000 		.4byte	0x81
 2703 044e 2F       		.byte	0x2f
 2704 044f 07       		.uleb128 0x7
 2705 0450 0E120000 		.4byte	.LASF92
 2706 0454 06       		.byte	0x6
 2707 0455 C1       		.byte	0xc1
 2708 0456 81000000 		.4byte	0x81
 2709 045a 30       		.byte	0x30
 2710 045b 07       		.uleb128 0x7
 2711 045c 00000000 		.4byte	.LASF93
 2712 0460 06       		.byte	0x6
 2713 0461 C2       		.byte	0xc2
 2714 0462 81000000 		.4byte	0x81
 2715 0466 31       		.byte	0x31
 2716 0467 07       		.uleb128 0x7
 2717 0468 F5020000 		.4byte	.LASF94
 2718 046c 06       		.byte	0x6
 2719 046d C3       		.byte	0xc3
 2720 046e 81000000 		.4byte	0x81
 2721 0472 32       		.byte	0x32
 2722 0473 07       		.uleb128 0x7
 2723 0474 B5010000 		.4byte	.LASF95
 2724 0478 06       		.byte	0x6
 2725 0479 C4       		.byte	0xc4
 2726 047a 81000000 		.4byte	0x81
 2727 047e 33       		.byte	0x33
 2728 047f 07       		.uleb128 0x7
 2729 0480 9C0B0000 		.4byte	.LASF96
 2730 0484 06       		.byte	0x6
 2731 0485 C5       		.byte	0xc5
 2732 0486 81000000 		.4byte	0x81
 2733 048a 34       		.byte	0x34
 2734 048b 07       		.uleb128 0x7
 2735 048c AF110000 		.4byte	.LASF97
 2736 0490 06       		.byte	0x6
 2737 0491 C6       		.byte	0xc6
ARM GAS  C:\Users\MARTHN~1\AppData\Local\Temp\ccYtCv5j.s 			page 67


 2738 0492 81000000 		.4byte	0x81
 2739 0496 35       		.byte	0x35
 2740 0497 07       		.uleb128 0x7
 2741 0498 5D070000 		.4byte	.LASF98
 2742 049c 06       		.byte	0x6
 2743 049d C7       		.byte	0xc7
 2744 049e 81000000 		.4byte	0x81
 2745 04a2 36       		.byte	0x36
 2746 04a3 07       		.uleb128 0x7
 2747 04a4 B2030000 		.4byte	.LASF99
 2748 04a8 06       		.byte	0x6
 2749 04a9 C8       		.byte	0xc8
 2750 04aa 81000000 		.4byte	0x81
 2751 04ae 37       		.byte	0x37
 2752 04af 07       		.uleb128 0x7
 2753 04b0 C2030000 		.4byte	.LASF100
 2754 04b4 06       		.byte	0x6
 2755 04b5 C9       		.byte	0xc9
 2756 04b6 81000000 		.4byte	0x81
 2757 04ba 38       		.byte	0x38
 2758 04bb 07       		.uleb128 0x7
 2759 04bc D2030000 		.4byte	.LASF101
 2760 04c0 06       		.byte	0x6
 2761 04c1 CA       		.byte	0xca
 2762 04c2 81000000 		.4byte	0x81
 2763 04c6 39       		.byte	0x39
 2764 04c7 07       		.uleb128 0x7
 2765 04c8 A60A0000 		.4byte	.LASF102
 2766 04cc 06       		.byte	0x6
 2767 04cd CB       		.byte	0xcb
 2768 04ce 81000000 		.4byte	0x81
 2769 04d2 3A       		.byte	0x3a
 2770 04d3 07       		.uleb128 0x7
 2771 04d4 BD060000 		.4byte	.LASF103
 2772 04d8 06       		.byte	0x6
 2773 04d9 CC       		.byte	0xcc
 2774 04da 81000000 		.4byte	0x81
 2775 04de 3B       		.byte	0x3b
 2776 04df 07       		.uleb128 0x7
 2777 04e0 42060000 		.4byte	.LASF104
 2778 04e4 06       		.byte	0x6
 2779 04e5 CD       		.byte	0xcd
 2780 04e6 81000000 		.4byte	0x81
 2781 04ea 3C       		.byte	0x3c
 2782 04eb 07       		.uleb128 0x7
 2783 04ec A6040000 		.4byte	.LASF105
 2784 04f0 06       		.byte	0x6
 2785 04f1 CE       		.byte	0xce
 2786 04f2 81000000 		.4byte	0x81
 2787 04f6 3D       		.byte	0x3d
 2788 04f7 07       		.uleb128 0x7
 2789 04f8 910B0000 		.4byte	.LASF106
 2790 04fc 06       		.byte	0x6
 2791 04fd CF       		.byte	0xcf
 2792 04fe 81000000 		.4byte	0x81
 2793 0502 3E       		.byte	0x3e
 2794 0503 07       		.uleb128 0x7
ARM GAS  C:\Users\MARTHN~1\AppData\Local\Temp\ccYtCv5j.s 			page 68


 2795 0504 1F090000 		.4byte	.LASF107
 2796 0508 06       		.byte	0x6
 2797 0509 D0       		.byte	0xd0
 2798 050a 81000000 		.4byte	0x81
 2799 050e 3F       		.byte	0x3f
 2800 050f 07       		.uleb128 0x7
 2801 0510 15030000 		.4byte	.LASF108
 2802 0514 06       		.byte	0x6
 2803 0515 D1       		.byte	0xd1
 2804 0516 81000000 		.4byte	0x81
 2805 051a 40       		.byte	0x40
 2806 051b 07       		.uleb128 0x7
 2807 051c 09020000 		.4byte	.LASF109
 2808 0520 06       		.byte	0x6
 2809 0521 D2       		.byte	0xd2
 2810 0522 81000000 		.4byte	0x81
 2811 0526 41       		.byte	0x41
 2812 0527 07       		.uleb128 0x7
 2813 0528 75070000 		.4byte	.LASF110
 2814 052c 06       		.byte	0x6
 2815 052d D3       		.byte	0xd3
 2816 052e 81000000 		.4byte	0x81
 2817 0532 42       		.byte	0x42
 2818 0533 07       		.uleb128 0x7
 2819 0534 97020000 		.4byte	.LASF111
 2820 0538 06       		.byte	0x6
 2821 0539 D4       		.byte	0xd4
 2822 053a 81000000 		.4byte	0x81
 2823 053e 43       		.byte	0x43
 2824 053f 07       		.uleb128 0x7
 2825 0540 2A040000 		.4byte	.LASF112
 2826 0544 06       		.byte	0x6
 2827 0545 D5       		.byte	0xd5
 2828 0546 81000000 		.4byte	0x81
 2829 054a 44       		.byte	0x44
 2830 054b 07       		.uleb128 0x7
 2831 054c 22050000 		.4byte	.LASF113
 2832 0550 06       		.byte	0x6
 2833 0551 D6       		.byte	0xd6
 2834 0552 81000000 		.4byte	0x81
 2835 0556 45       		.byte	0x45
 2836 0557 07       		.uleb128 0x7
 2837 0558 41050000 		.4byte	.LASF114
 2838 055c 06       		.byte	0x6
 2839 055d D7       		.byte	0xd7
 2840 055e 81000000 		.4byte	0x81
 2841 0562 46       		.byte	0x46
 2842 0563 07       		.uleb128 0x7
 2843 0564 190F0000 		.4byte	.LASF115
 2844 0568 06       		.byte	0x6
 2845 0569 D8       		.byte	0xd8
 2846 056a 81000000 		.4byte	0x81
 2847 056e 47       		.byte	0x47
 2848 056f 07       		.uleb128 0x7
 2849 0570 5B010000 		.4byte	.LASF116
 2850 0574 06       		.byte	0x6
 2851 0575 D9       		.byte	0xd9
ARM GAS  C:\Users\MARTHN~1\AppData\Local\Temp\ccYtCv5j.s 			page 69


 2852 0576 81000000 		.4byte	0x81
 2853 057a 48       		.byte	0x48
 2854 057b 07       		.uleb128 0x7
 2855 057c CD0B0000 		.4byte	.LASF117
 2856 0580 06       		.byte	0x6
 2857 0581 DA       		.byte	0xda
 2858 0582 81000000 		.4byte	0x81
 2859 0586 49       		.byte	0x49
 2860 0587 07       		.uleb128 0x7
 2861 0588 43000000 		.4byte	.LASF118
 2862 058c 06       		.byte	0x6
 2863 058d DB       		.byte	0xdb
 2864 058e 81000000 		.4byte	0x81
 2865 0592 4A       		.byte	0x4a
 2866 0593 0C       		.uleb128 0xc
 2867 0594 52524200 		.ascii	"RRB\000"
 2868 0598 06       		.byte	0x6
 2869 0599 DC       		.byte	0xdc
 2870 059a 81000000 		.4byte	0x81
 2871 059e 4B       		.byte	0x4b
 2872 059f 07       		.uleb128 0x7
 2873 05a0 9A0A0000 		.4byte	.LASF119
 2874 05a4 06       		.byte	0x6
 2875 05a5 DD       		.byte	0xdd
 2876 05a6 81000000 		.4byte	0x81
 2877 05aa 4C       		.byte	0x4c
 2878 05ab 07       		.uleb128 0x7
 2879 05ac C9100000 		.4byte	.LASF120
 2880 05b0 06       		.byte	0x6
 2881 05b1 DE       		.byte	0xde
 2882 05b2 81000000 		.4byte	0x81
 2883 05b6 4D       		.byte	0x4d
 2884 05b7 07       		.uleb128 0x7
 2885 05b8 68110000 		.4byte	.LASF121
 2886 05bc 06       		.byte	0x6
 2887 05bd DF       		.byte	0xdf
 2888 05be 81000000 		.4byte	0x81
 2889 05c2 4E       		.byte	0x4e
 2890 05c3 00       		.byte	0
 2891 05c4 0A       		.uleb128 0xa
 2892 05c5 9A0C0000 		.4byte	.LASF123
 2893 05c9 4F       		.byte	0x4f
 2894 05ca 06       		.byte	0x6
 2895 05cb 8B       		.byte	0x8b
 2896 05cc E7050000 		.4byte	0x5e7
 2897 05d0 0B       		.uleb128 0xb
 2898 05d1 17050000 		.4byte	.LASF40
 2899 05d5 06       		.byte	0x6
 2900 05d6 8D       		.byte	0x8d
 2901 05d7 E7050000 		.4byte	0x5e7
 2902 05db 0B       		.uleb128 0xb
 2903 05dc 78040000 		.4byte	.LASF41
 2904 05e0 06       		.byte	0x6
 2905 05e1 E0       		.byte	0xe0
 2906 05e2 03020000 		.4byte	0x203
 2907 05e6 00       		.byte	0
 2908 05e7 08       		.uleb128 0x8
ARM GAS  C:\Users\MARTHN~1\AppData\Local\Temp\ccYtCv5j.s 			page 70


 2909 05e8 81000000 		.4byte	0x81
 2910 05ec F7050000 		.4byte	0x5f7
 2911 05f0 09       		.uleb128 0x9
 2912 05f1 C1000000 		.4byte	0xc1
 2913 05f5 4E       		.byte	0x4e
 2914 05f6 00       		.byte	0
 2915 05f7 03       		.uleb128 0x3
 2916 05f8 E00D0000 		.4byte	.LASF124
 2917 05fc 06       		.byte	0x6
 2918 05fd E1       		.byte	0xe1
 2919 05fe C4050000 		.4byte	0x5c4
 2920 0602 06       		.uleb128 0x6
 2921 0603 19000000 		.4byte	.LASF125
 2922 0607 05       		.byte	0x5
 2923 0608 06       		.byte	0x6
 2924 0609 F9       		.byte	0xf9
 2925 060a 4C060000 		.4byte	0x64c
 2926 060e 07       		.uleb128 0x7
 2927 060f 2A0B0000 		.4byte	.LASF33
 2928 0613 06       		.byte	0x6
 2929 0614 FC       		.byte	0xfc
 2930 0615 81000000 		.4byte	0x81
 2931 0619 00       		.byte	0
 2932 061a 07       		.uleb128 0x7
 2933 061b 360B0000 		.4byte	.LASF34
 2934 061f 06       		.byte	0x6
 2935 0620 FD       		.byte	0xfd
 2936 0621 81000000 		.4byte	0x81
 2937 0625 01       		.byte	0x1
 2938 0626 07       		.uleb128 0x7
 2939 0627 420B0000 		.4byte	.LASF35
 2940 062b 06       		.byte	0x6
 2941 062c FE       		.byte	0xfe
 2942 062d 81000000 		.4byte	0x81
 2943 0631 02       		.byte	0x2
 2944 0632 07       		.uleb128 0x7
 2945 0633 6D060000 		.4byte	.LASF30
 2946 0637 06       		.byte	0x6
 2947 0638 FF       		.byte	0xff
 2948 0639 81000000 		.4byte	0x81
 2949 063d 03       		.byte	0x3
 2950 063e 0D       		.uleb128 0xd
 2951 063f F40D0000 		.4byte	.LASF31
 2952 0643 06       		.byte	0x6
 2953 0644 0001     		.2byte	0x100
 2954 0646 81000000 		.4byte	0x81
 2955 064a 04       		.byte	0x4
 2956 064b 00       		.byte	0
 2957 064c 0A       		.uleb128 0xa
 2958 064d 39100000 		.4byte	.LASF126
 2959 0651 05       		.byte	0x5
 2960 0652 06       		.byte	0x6
 2961 0653 F5       		.byte	0xf5
 2962 0654 70060000 		.4byte	0x670
 2963 0658 0B       		.uleb128 0xb
 2964 0659 17050000 		.4byte	.LASF40
 2965 065d 06       		.byte	0x6
ARM GAS  C:\Users\MARTHN~1\AppData\Local\Temp\ccYtCv5j.s 			page 71


 2966 065e F7       		.byte	0xf7
 2967 065f 70060000 		.4byte	0x670
 2968 0663 0E       		.uleb128 0xe
 2969 0664 78040000 		.4byte	.LASF41
 2970 0668 06       		.byte	0x6
 2971 0669 0201     		.2byte	0x102
 2972 066b 02060000 		.4byte	0x602
 2973 066f 00       		.byte	0
 2974 0670 08       		.uleb128 0x8
 2975 0671 81000000 		.4byte	0x81
 2976 0675 80060000 		.4byte	0x680
 2977 0679 09       		.uleb128 0x9
 2978 067a C1000000 		.4byte	0xc1
 2979 067e 04       		.byte	0x4
 2980 067f 00       		.byte	0
 2981 0680 05       		.uleb128 0x5
 2982 0681 66040000 		.4byte	.LASF127
 2983 0685 06       		.byte	0x6
 2984 0686 0301     		.2byte	0x103
 2985 0688 4C060000 		.4byte	0x64c
 2986 068c 06       		.uleb128 0x6
 2987 068d 15040000 		.4byte	.LASF128
 2988 0691 6F       		.byte	0x6f
 2989 0692 07       		.byte	0x7
 2990 0693 20       		.byte	0x20
 2991 0694 CD0B0000 		.4byte	0xbcd
 2992 0698 07       		.uleb128 0x7
 2993 0699 C40D0000 		.4byte	.LASF129
 2994 069d 07       		.byte	0x7
 2995 069e 22       		.byte	0x22
 2996 069f 81000000 		.4byte	0x81
 2997 06a3 00       		.byte	0
 2998 06a4 07       		.uleb128 0x7
 2999 06a5 91010000 		.4byte	.LASF130
 3000 06a9 07       		.byte	0x7
 3001 06aa 23       		.byte	0x23
 3002 06ab 81000000 		.4byte	0x81
 3003 06af 01       		.byte	0x1
 3004 06b0 07       		.uleb128 0x7
 3005 06b1 9D010000 		.4byte	.LASF131
 3006 06b5 07       		.byte	0x7
 3007 06b6 24       		.byte	0x24
 3008 06b7 81000000 		.4byte	0x81
 3009 06bb 02       		.byte	0x2
 3010 06bc 07       		.uleb128 0x7
 3011 06bd A9010000 		.4byte	.LASF132
 3012 06c1 07       		.byte	0x7
 3013 06c2 25       		.byte	0x25
 3014 06c3 81000000 		.4byte	0x81
 3015 06c7 03       		.byte	0x3
 3016 06c8 07       		.uleb128 0x7
 3017 06c9 490F0000 		.4byte	.LASF133
 3018 06cd 07       		.byte	0x7
 3019 06ce 26       		.byte	0x26
 3020 06cf 81000000 		.4byte	0x81
 3021 06d3 04       		.byte	0x4
 3022 06d4 07       		.uleb128 0x7
ARM GAS  C:\Users\MARTHN~1\AppData\Local\Temp\ccYtCv5j.s 			page 72


 3023 06d5 CD010000 		.4byte	.LASF134
 3024 06d9 07       		.byte	0x7
 3025 06da 27       		.byte	0x27
 3026 06db 81000000 		.4byte	0x81
 3027 06df 05       		.byte	0x5
 3028 06e0 07       		.uleb128 0x7
 3029 06e1 D9010000 		.4byte	.LASF135
 3030 06e5 07       		.byte	0x7
 3031 06e6 28       		.byte	0x28
 3032 06e7 81000000 		.4byte	0x81
 3033 06eb 06       		.byte	0x6
 3034 06ec 07       		.uleb128 0x7
 3035 06ed E5010000 		.4byte	.LASF136
 3036 06f1 07       		.byte	0x7
 3037 06f2 29       		.byte	0x29
 3038 06f3 81000000 		.4byte	0x81
 3039 06f7 07       		.byte	0x7
 3040 06f8 07       		.uleb128 0x7
 3041 06f9 F1010000 		.4byte	.LASF137
 3042 06fd 07       		.byte	0x7
 3043 06fe 2A       		.byte	0x2a
 3044 06ff 81000000 		.4byte	0x81
 3045 0703 08       		.byte	0x8
 3046 0704 07       		.uleb128 0x7
 3047 0705 FD010000 		.4byte	.LASF138
 3048 0709 07       		.byte	0x7
 3049 070a 2B       		.byte	0x2b
 3050 070b 81000000 		.4byte	0x81
 3051 070f 09       		.byte	0x9
 3052 0710 07       		.uleb128 0x7
 3053 0711 CB060000 		.4byte	.LASF139
 3054 0715 07       		.byte	0x7
 3055 0716 2C       		.byte	0x2c
 3056 0717 81000000 		.4byte	0x81
 3057 071b 0A       		.byte	0xa
 3058 071c 07       		.uleb128 0x7
 3059 071d D8060000 		.4byte	.LASF140
 3060 0721 07       		.byte	0x7
 3061 0722 2D       		.byte	0x2d
 3062 0723 81000000 		.4byte	0x81
 3063 0727 0B       		.byte	0xb
 3064 0728 07       		.uleb128 0x7
 3065 0729 E5060000 		.4byte	.LASF141
 3066 072d 07       		.byte	0x7
 3067 072e 2E       		.byte	0x2e
 3068 072f 81000000 		.4byte	0x81
 3069 0733 0C       		.byte	0xc
 3070 0734 07       		.uleb128 0x7
 3071 0735 F2060000 		.4byte	.LASF142
 3072 0739 07       		.byte	0x7
 3073 073a 2F       		.byte	0x2f
 3074 073b 81000000 		.4byte	0x81
 3075 073f 0D       		.byte	0xd
 3076 0740 07       		.uleb128 0x7
 3077 0741 FF060000 		.4byte	.LASF143
 3078 0745 07       		.byte	0x7
 3079 0746 30       		.byte	0x30
ARM GAS  C:\Users\MARTHN~1\AppData\Local\Temp\ccYtCv5j.s 			page 73


 3080 0747 81000000 		.4byte	0x81
 3081 074b 0E       		.byte	0xe
 3082 074c 07       		.uleb128 0x7
 3083 074d 0C070000 		.4byte	.LASF144
 3084 0751 07       		.byte	0x7
 3085 0752 31       		.byte	0x31
 3086 0753 81000000 		.4byte	0x81
 3087 0757 0F       		.byte	0xf
 3088 0758 07       		.uleb128 0x7
 3089 0759 19070000 		.4byte	.LASF145
 3090 075d 07       		.byte	0x7
 3091 075e 32       		.byte	0x32
 3092 075f 81000000 		.4byte	0x81
 3093 0763 10       		.byte	0x10
 3094 0764 07       		.uleb128 0x7
 3095 0765 26070000 		.4byte	.LASF146
 3096 0769 07       		.byte	0x7
 3097 076a 33       		.byte	0x33
 3098 076b 81000000 		.4byte	0x81
 3099 076f 11       		.byte	0x11
 3100 0770 07       		.uleb128 0x7
 3101 0771 33070000 		.4byte	.LASF147
 3102 0775 07       		.byte	0x7
 3103 0776 34       		.byte	0x34
 3104 0777 81000000 		.4byte	0x81
 3105 077b 12       		.byte	0x12
 3106 077c 07       		.uleb128 0x7
 3107 077d 40070000 		.4byte	.LASF148
 3108 0781 07       		.byte	0x7
 3109 0782 35       		.byte	0x35
 3110 0783 81000000 		.4byte	0x81
 3111 0787 13       		.byte	0x13
 3112 0788 07       		.uleb128 0x7
 3113 0789 D0070000 		.4byte	.LASF149
 3114 078d 07       		.byte	0x7
 3115 078e 36       		.byte	0x36
 3116 078f 81000000 		.4byte	0x81
 3117 0793 14       		.byte	0x14
 3118 0794 07       		.uleb128 0x7
 3119 0795 DD070000 		.4byte	.LASF150
 3120 0799 07       		.byte	0x7
 3121 079a 37       		.byte	0x37
 3122 079b 81000000 		.4byte	0x81
 3123 079f 15       		.byte	0x15
 3124 07a0 07       		.uleb128 0x7
 3125 07a1 EA070000 		.4byte	.LASF151
 3126 07a5 07       		.byte	0x7
 3127 07a6 38       		.byte	0x38
 3128 07a7 81000000 		.4byte	0x81
 3129 07ab 16       		.byte	0x16
 3130 07ac 07       		.uleb128 0x7
 3131 07ad F7070000 		.4byte	.LASF152
 3132 07b1 07       		.byte	0x7
 3133 07b2 39       		.byte	0x39
 3134 07b3 81000000 		.4byte	0x81
 3135 07b7 17       		.byte	0x17
 3136 07b8 07       		.uleb128 0x7
ARM GAS  C:\Users\MARTHN~1\AppData\Local\Temp\ccYtCv5j.s 			page 74


 3137 07b9 04080000 		.4byte	.LASF153
 3138 07bd 07       		.byte	0x7
 3139 07be 3A       		.byte	0x3a
 3140 07bf 81000000 		.4byte	0x81
 3141 07c3 18       		.byte	0x18
 3142 07c4 07       		.uleb128 0x7
 3143 07c5 11080000 		.4byte	.LASF154
 3144 07c9 07       		.byte	0x7
 3145 07ca 3B       		.byte	0x3b
 3146 07cb 81000000 		.4byte	0x81
 3147 07cf 19       		.byte	0x19
 3148 07d0 07       		.uleb128 0x7
 3149 07d1 1E080000 		.4byte	.LASF155
 3150 07d5 07       		.byte	0x7
 3151 07d6 3C       		.byte	0x3c
 3152 07d7 81000000 		.4byte	0x81
 3153 07db 1A       		.byte	0x1a
 3154 07dc 07       		.uleb128 0x7
 3155 07dd 2B080000 		.4byte	.LASF156
 3156 07e1 07       		.byte	0x7
 3157 07e2 3D       		.byte	0x3d
 3158 07e3 81000000 		.4byte	0x81
 3159 07e7 1B       		.byte	0x1b
 3160 07e8 07       		.uleb128 0x7
 3161 07e9 38080000 		.4byte	.LASF157
 3162 07ed 07       		.byte	0x7
 3163 07ee 3E       		.byte	0x3e
 3164 07ef 81000000 		.4byte	0x81
 3165 07f3 1C       		.byte	0x1c
 3166 07f4 07       		.uleb128 0x7
 3167 07f5 45080000 		.4byte	.LASF158
 3168 07f9 07       		.byte	0x7
 3169 07fa 3F       		.byte	0x3f
 3170 07fb 81000000 		.4byte	0x81
 3171 07ff 1D       		.byte	0x1d
 3172 0800 07       		.uleb128 0x7
 3173 0801 12090000 		.4byte	.LASF159
 3174 0805 07       		.byte	0x7
 3175 0806 40       		.byte	0x40
 3176 0807 81000000 		.4byte	0x81
 3177 080b 1E       		.byte	0x1e
 3178 080c 07       		.uleb128 0x7
 3179 080d 3B0C0000 		.4byte	.LASF160
 3180 0811 07       		.byte	0x7
 3181 0812 42       		.byte	0x42
 3182 0813 81000000 		.4byte	0x81
 3183 0817 1F       		.byte	0x1f
 3184 0818 07       		.uleb128 0x7
 3185 0819 440C0000 		.4byte	.LASF161
 3186 081d 07       		.byte	0x7
 3187 081e 43       		.byte	0x43
 3188 081f 81000000 		.4byte	0x81
 3189 0823 20       		.byte	0x20
 3190 0824 07       		.uleb128 0x7
 3191 0825 4D0C0000 		.4byte	.LASF162
 3192 0829 07       		.byte	0x7
 3193 082a 44       		.byte	0x44
ARM GAS  C:\Users\MARTHN~1\AppData\Local\Temp\ccYtCv5j.s 			page 75


 3194 082b 81000000 		.4byte	0x81
 3195 082f 21       		.byte	0x21
 3196 0830 07       		.uleb128 0x7
 3197 0831 1D100000 		.4byte	.LASF163
 3198 0835 07       		.byte	0x7
 3199 0836 46       		.byte	0x46
 3200 0837 81000000 		.4byte	0x81
 3201 083b 22       		.byte	0x22
 3202 083c 07       		.uleb128 0x7
 3203 083d 2B100000 		.4byte	.LASF164
 3204 0841 07       		.byte	0x7
 3205 0842 47       		.byte	0x47
 3206 0843 81000000 		.4byte	0x81
 3207 0847 23       		.byte	0x23
 3208 0848 07       		.uleb128 0x7
 3209 0849 7A0B0000 		.4byte	.LASF165
 3210 084d 07       		.byte	0x7
 3211 084e 48       		.byte	0x48
 3212 084f 81000000 		.4byte	0x81
 3213 0853 24       		.byte	0x24
 3214 0854 07       		.uleb128 0x7
 3215 0855 42100000 		.4byte	.LASF166
 3216 0859 07       		.byte	0x7
 3217 085a 49       		.byte	0x49
 3218 085b 81000000 		.4byte	0x81
 3219 085f 25       		.byte	0x25
 3220 0860 07       		.uleb128 0x7
 3221 0861 560C0000 		.4byte	.LASF167
 3222 0865 07       		.byte	0x7
 3223 0866 4B       		.byte	0x4b
 3224 0867 81000000 		.4byte	0x81
 3225 086b 26       		.byte	0x26
 3226 086c 07       		.uleb128 0x7
 3227 086d 5F0C0000 		.4byte	.LASF168
 3228 0871 07       		.byte	0x7
 3229 0872 4C       		.byte	0x4c
 3230 0873 81000000 		.4byte	0x81
 3231 0877 27       		.byte	0x27
 3232 0878 07       		.uleb128 0x7
 3233 0879 680C0000 		.4byte	.LASF169
 3234 087d 07       		.byte	0x7
 3235 087e 4D       		.byte	0x4d
 3236 087f 81000000 		.4byte	0x81
 3237 0883 28       		.byte	0x28
 3238 0884 07       		.uleb128 0x7
 3239 0885 710C0000 		.4byte	.LASF170
 3240 0889 07       		.byte	0x7
 3241 088a 4E       		.byte	0x4e
 3242 088b 81000000 		.4byte	0x81
 3243 088f 29       		.byte	0x29
 3244 0890 07       		.uleb128 0x7
 3245 0891 2A090000 		.4byte	.LASF171
 3246 0895 07       		.byte	0x7
 3247 0896 50       		.byte	0x50
 3248 0897 81000000 		.4byte	0x81
 3249 089b 2A       		.byte	0x2a
 3250 089c 07       		.uleb128 0x7
ARM GAS  C:\Users\MARTHN~1\AppData\Local\Temp\ccYtCv5j.s 			page 76


 3251 089d 3B090000 		.4byte	.LASF172
 3252 08a1 07       		.byte	0x7
 3253 08a2 51       		.byte	0x51
 3254 08a3 81000000 		.4byte	0x81
 3255 08a7 2B       		.byte	0x2b
 3256 08a8 07       		.uleb128 0x7
 3257 08a9 4C090000 		.4byte	.LASF173
 3258 08ad 07       		.byte	0x7
 3259 08ae 52       		.byte	0x52
 3260 08af 81000000 		.4byte	0x81
 3261 08b3 2C       		.byte	0x2c
 3262 08b4 07       		.uleb128 0x7
 3263 08b5 5D090000 		.4byte	.LASF174
 3264 08b9 07       		.byte	0x7
 3265 08ba 53       		.byte	0x53
 3266 08bb 81000000 		.4byte	0x81
 3267 08bf 2D       		.byte	0x2d
 3268 08c0 07       		.uleb128 0x7
 3269 08c1 6E090000 		.4byte	.LASF175
 3270 08c5 07       		.byte	0x7
 3271 08c6 54       		.byte	0x54
 3272 08c7 81000000 		.4byte	0x81
 3273 08cb 2E       		.byte	0x2e
 3274 08cc 07       		.uleb128 0x7
 3275 08cd 7F090000 		.4byte	.LASF176
 3276 08d1 07       		.byte	0x7
 3277 08d2 55       		.byte	0x55
 3278 08d3 81000000 		.4byte	0x81
 3279 08d7 2F       		.byte	0x2f
 3280 08d8 07       		.uleb128 0x7
 3281 08d9 90090000 		.4byte	.LASF177
 3282 08dd 07       		.byte	0x7
 3283 08de 56       		.byte	0x56
 3284 08df 81000000 		.4byte	0x81
 3285 08e3 30       		.byte	0x30
 3286 08e4 07       		.uleb128 0x7
 3287 08e5 A1090000 		.4byte	.LASF178
 3288 08e9 07       		.byte	0x7
 3289 08ea 57       		.byte	0x57
 3290 08eb 81000000 		.4byte	0x81
 3291 08ef 31       		.byte	0x31
 3292 08f0 07       		.uleb128 0x7
 3293 08f1 7A0C0000 		.4byte	.LASF179
 3294 08f5 07       		.byte	0x7
 3295 08f6 59       		.byte	0x59
 3296 08f7 81000000 		.4byte	0x81
 3297 08fb 32       		.byte	0x32
 3298 08fc 07       		.uleb128 0x7
 3299 08fd E2030000 		.4byte	.LASF180
 3300 0901 07       		.byte	0x7
 3301 0902 5A       		.byte	0x5a
 3302 0903 81000000 		.4byte	0x81
 3303 0907 33       		.byte	0x33
 3304 0908 07       		.uleb128 0x7
 3305 0909 47030000 		.4byte	.LASF181
 3306 090d 07       		.byte	0x7
 3307 090e 5C       		.byte	0x5c
ARM GAS  C:\Users\MARTHN~1\AppData\Local\Temp\ccYtCv5j.s 			page 77


 3308 090f 81000000 		.4byte	0x81
 3309 0913 34       		.byte	0x34
 3310 0914 07       		.uleb128 0x7
 3311 0915 55030000 		.4byte	.LASF182
 3312 0919 07       		.byte	0x7
 3313 091a 5D       		.byte	0x5d
 3314 091b 81000000 		.4byte	0x81
 3315 091f 35       		.byte	0x35
 3316 0920 07       		.uleb128 0x7
 3317 0921 63030000 		.4byte	.LASF183
 3318 0925 07       		.byte	0x7
 3319 0926 5E       		.byte	0x5e
 3320 0927 81000000 		.4byte	0x81
 3321 092b 36       		.byte	0x36
 3322 092c 07       		.uleb128 0x7
 3323 092d 71030000 		.4byte	.LASF184
 3324 0931 07       		.byte	0x7
 3325 0932 5F       		.byte	0x5f
 3326 0933 81000000 		.4byte	0x81
 3327 0937 37       		.byte	0x37
 3328 0938 07       		.uleb128 0x7
 3329 0939 E10A0000 		.4byte	.LASF185
 3330 093d 07       		.byte	0x7
 3331 093e 60       		.byte	0x60
 3332 093f 81000000 		.4byte	0x81
 3333 0943 38       		.byte	0x38
 3334 0944 07       		.uleb128 0x7
 3335 0945 88030000 		.4byte	.LASF186
 3336 0949 07       		.byte	0x7
 3337 094a 61       		.byte	0x61
 3338 094b 81000000 		.4byte	0x81
 3339 094f 39       		.byte	0x39
 3340 0950 07       		.uleb128 0x7
 3341 0951 96030000 		.4byte	.LASF187
 3342 0955 07       		.byte	0x7
 3343 0956 62       		.byte	0x62
 3344 0957 81000000 		.4byte	0x81
 3345 095b 3A       		.byte	0x3a
 3346 095c 07       		.uleb128 0x7
 3347 095d A4030000 		.4byte	.LASF188
 3348 0961 07       		.byte	0x7
 3349 0962 63       		.byte	0x63
 3350 0963 81000000 		.4byte	0x81
 3351 0967 3B       		.byte	0x3b
 3352 0968 07       		.uleb128 0x7
 3353 0969 BA100000 		.4byte	.LASF189
 3354 096d 07       		.byte	0x7
 3355 096e 64       		.byte	0x64
 3356 096f 81000000 		.4byte	0x81
 3357 0973 3C       		.byte	0x3c
 3358 0974 07       		.uleb128 0x7
 3359 0975 19020000 		.4byte	.LASF190
 3360 0979 07       		.byte	0x7
 3361 097a 66       		.byte	0x66
 3362 097b 81000000 		.4byte	0x81
 3363 097f 3D       		.byte	0x3d
 3364 0980 07       		.uleb128 0x7
ARM GAS  C:\Users\MARTHN~1\AppData\Local\Temp\ccYtCv5j.s 			page 78


 3365 0981 27020000 		.4byte	.LASF191
 3366 0985 07       		.byte	0x7
 3367 0986 67       		.byte	0x67
 3368 0987 81000000 		.4byte	0x81
 3369 098b 3E       		.byte	0x3e
 3370 098c 07       		.uleb128 0x7
 3371 098d 35020000 		.4byte	.LASF192
 3372 0991 07       		.byte	0x7
 3373 0992 68       		.byte	0x68
 3374 0993 81000000 		.4byte	0x81
 3375 0997 3F       		.byte	0x3f
 3376 0998 07       		.uleb128 0x7
 3377 0999 43020000 		.4byte	.LASF193
 3378 099d 07       		.byte	0x7
 3379 099e 69       		.byte	0x69
 3380 099f 81000000 		.4byte	0x81
 3381 09a3 40       		.byte	0x40
 3382 09a4 07       		.uleb128 0x7
 3383 09a5 51020000 		.4byte	.LASF194
 3384 09a9 07       		.byte	0x7
 3385 09aa 6A       		.byte	0x6a
 3386 09ab 81000000 		.4byte	0x81
 3387 09af 41       		.byte	0x41
 3388 09b0 07       		.uleb128 0x7
 3389 09b1 5F020000 		.4byte	.LASF195
 3390 09b5 07       		.byte	0x7
 3391 09b6 6B       		.byte	0x6b
 3392 09b7 81000000 		.4byte	0x81
 3393 09bb 42       		.byte	0x42
 3394 09bc 07       		.uleb128 0x7
 3395 09bd 6D020000 		.4byte	.LASF196
 3396 09c1 07       		.byte	0x7
 3397 09c2 6C       		.byte	0x6c
 3398 09c3 81000000 		.4byte	0x81
 3399 09c7 43       		.byte	0x43
 3400 09c8 07       		.uleb128 0x7
 3401 09c9 7B020000 		.4byte	.LASF197
 3402 09cd 07       		.byte	0x7
 3403 09ce 6D       		.byte	0x6d
 3404 09cf 81000000 		.4byte	0x81
 3405 09d3 44       		.byte	0x44
 3406 09d4 07       		.uleb128 0x7
 3407 09d5 89020000 		.4byte	.LASF198
 3408 09d9 07       		.byte	0x7
 3409 09da 6E       		.byte	0x6e
 3410 09db 81000000 		.4byte	0x81
 3411 09df 45       		.byte	0x45
 3412 09e0 07       		.uleb128 0x7
 3413 09e1 350E0000 		.4byte	.LASF199
 3414 09e5 07       		.byte	0x7
 3415 09e6 6F       		.byte	0x6f
 3416 09e7 81000000 		.4byte	0x81
 3417 09eb 46       		.byte	0x46
 3418 09ec 07       		.uleb128 0x7
 3419 09ed 810E0000 		.4byte	.LASF200
 3420 09f1 07       		.byte	0x7
 3421 09f2 71       		.byte	0x71
ARM GAS  C:\Users\MARTHN~1\AppData\Local\Temp\ccYtCv5j.s 			page 79


 3422 09f3 81000000 		.4byte	0x81
 3423 09f7 47       		.byte	0x47
 3424 09f8 07       		.uleb128 0x7
 3425 09f9 910E0000 		.4byte	.LASF201
 3426 09fd 07       		.byte	0x7
 3427 09fe 72       		.byte	0x72
 3428 09ff 81000000 		.4byte	0x81
 3429 0a03 48       		.byte	0x48
 3430 0a04 07       		.uleb128 0x7
 3431 0a05 07050000 		.4byte	.LASF202
 3432 0a09 07       		.byte	0x7
 3433 0a0a 73       		.byte	0x73
 3434 0a0b 81000000 		.4byte	0x81
 3435 0a0f 49       		.byte	0x49
 3436 0a10 07       		.uleb128 0x7
 3437 0a11 AA0E0000 		.4byte	.LASF203
 3438 0a15 07       		.byte	0x7
 3439 0a16 74       		.byte	0x74
 3440 0a17 81000000 		.4byte	0x81
 3441 0a1b 4A       		.byte	0x4a
 3442 0a1c 07       		.uleb128 0x7
 3443 0a1d BA0E0000 		.4byte	.LASF204
 3444 0a21 07       		.byte	0x7
 3445 0a22 75       		.byte	0x75
 3446 0a23 81000000 		.4byte	0x81
 3447 0a27 4B       		.byte	0x4b
 3448 0a28 07       		.uleb128 0x7
 3449 0a29 CA0E0000 		.4byte	.LASF205
 3450 0a2d 07       		.byte	0x7
 3451 0a2e 76       		.byte	0x76
 3452 0a2f 81000000 		.4byte	0x81
 3453 0a33 4C       		.byte	0x4c
 3454 0a34 07       		.uleb128 0x7
 3455 0a35 DA0E0000 		.4byte	.LASF206
 3456 0a39 07       		.byte	0x7
 3457 0a3a 77       		.byte	0x77
 3458 0a3b 81000000 		.4byte	0x81
 3459 0a3f 4D       		.byte	0x4d
 3460 0a40 07       		.uleb128 0x7
 3461 0a41 EA0E0000 		.4byte	.LASF207
 3462 0a45 07       		.byte	0x7
 3463 0a46 78       		.byte	0x78
 3464 0a47 81000000 		.4byte	0x81
 3465 0a4b 4E       		.byte	0x4e
 3466 0a4c 07       		.uleb128 0x7
 3467 0a4d FA0E0000 		.4byte	.LASF208
 3468 0a51 07       		.byte	0x7
 3469 0a52 79       		.byte	0x79
 3470 0a53 81000000 		.4byte	0x81
 3471 0a57 4F       		.byte	0x4f
 3472 0a58 07       		.uleb128 0x7
 3473 0a59 55040000 		.4byte	.LASF209
 3474 0a5d 07       		.byte	0x7
 3475 0a5e 7A       		.byte	0x7a
 3476 0a5f 81000000 		.4byte	0x81
 3477 0a63 50       		.byte	0x50
 3478 0a64 07       		.uleb128 0x7
ARM GAS  C:\Users\MARTHN~1\AppData\Local\Temp\ccYtCv5j.s 			page 80


 3479 0a65 52080000 		.4byte	.LASF210
 3480 0a69 07       		.byte	0x7
 3481 0a6a 7C       		.byte	0x7c
 3482 0a6b 81000000 		.4byte	0x81
 3483 0a6f 51       		.byte	0x51
 3484 0a70 07       		.uleb128 0x7
 3485 0a71 63080000 		.4byte	.LASF211
 3486 0a75 07       		.byte	0x7
 3487 0a76 7D       		.byte	0x7d
 3488 0a77 81000000 		.4byte	0x81
 3489 0a7b 52       		.byte	0x52
 3490 0a7c 07       		.uleb128 0x7
 3491 0a7d 74080000 		.4byte	.LASF212
 3492 0a81 07       		.byte	0x7
 3493 0a82 7E       		.byte	0x7e
 3494 0a83 81000000 		.4byte	0x81
 3495 0a87 53       		.byte	0x53
 3496 0a88 07       		.uleb128 0x7
 3497 0a89 85080000 		.4byte	.LASF213
 3498 0a8d 07       		.byte	0x7
 3499 0a8e 7F       		.byte	0x7f
 3500 0a8f 81000000 		.4byte	0x81
 3501 0a93 54       		.byte	0x54
 3502 0a94 07       		.uleb128 0x7
 3503 0a95 96080000 		.4byte	.LASF214
 3504 0a99 07       		.byte	0x7
 3505 0a9a 80       		.byte	0x80
 3506 0a9b 81000000 		.4byte	0x81
 3507 0a9f 55       		.byte	0x55
 3508 0aa0 07       		.uleb128 0x7
 3509 0aa1 A7080000 		.4byte	.LASF215
 3510 0aa5 07       		.byte	0x7
 3511 0aa6 81       		.byte	0x81
 3512 0aa7 81000000 		.4byte	0x81
 3513 0aab 56       		.byte	0x56
 3514 0aac 07       		.uleb128 0x7
 3515 0aad B8080000 		.4byte	.LASF216
 3516 0ab1 07       		.byte	0x7
 3517 0ab2 82       		.byte	0x82
 3518 0ab3 81000000 		.4byte	0x81
 3519 0ab7 57       		.byte	0x57
 3520 0ab8 07       		.uleb128 0x7
 3521 0ab9 C9080000 		.4byte	.LASF217
 3522 0abd 07       		.byte	0x7
 3523 0abe 83       		.byte	0x83
 3524 0abf 81000000 		.4byte	0x81
 3525 0ac3 58       		.byte	0x58
 3526 0ac4 07       		.uleb128 0x7
 3527 0ac5 DA080000 		.4byte	.LASF218
 3528 0ac9 07       		.byte	0x7
 3529 0aca 84       		.byte	0x84
 3530 0acb 81000000 		.4byte	0x81
 3531 0acf 59       		.byte	0x59
 3532 0ad0 07       		.uleb128 0x7
 3533 0ad1 EB100000 		.4byte	.LASF219
 3534 0ad5 07       		.byte	0x7
 3535 0ad6 85       		.byte	0x85
ARM GAS  C:\Users\MARTHN~1\AppData\Local\Temp\ccYtCv5j.s 			page 81


 3536 0ad7 81000000 		.4byte	0x81
 3537 0adb 5A       		.byte	0x5a
 3538 0adc 07       		.uleb128 0x7
 3539 0add 070D0000 		.4byte	.LASF220
 3540 0ae1 07       		.byte	0x7
 3541 0ae2 87       		.byte	0x87
 3542 0ae3 81000000 		.4byte	0x81
 3543 0ae7 5B       		.byte	0x5b
 3544 0ae8 07       		.uleb128 0x7
 3545 0ae9 190D0000 		.4byte	.LASF221
 3546 0aed 07       		.byte	0x7
 3547 0aee 88       		.byte	0x88
 3548 0aef 81000000 		.4byte	0x81
 3549 0af3 5C       		.byte	0x5c
 3550 0af4 07       		.uleb128 0x7
 3551 0af5 2B0D0000 		.4byte	.LASF222
 3552 0af9 07       		.byte	0x7
 3553 0afa 89       		.byte	0x89
 3554 0afb 81000000 		.4byte	0x81
 3555 0aff 5D       		.byte	0x5d
 3556 0b00 07       		.uleb128 0x7
 3557 0b01 3D0D0000 		.4byte	.LASF223
 3558 0b05 07       		.byte	0x7
 3559 0b06 8A       		.byte	0x8a
 3560 0b07 81000000 		.4byte	0x81
 3561 0b0b 5E       		.byte	0x5e
 3562 0b0c 07       		.uleb128 0x7
 3563 0b0d 4F0D0000 		.4byte	.LASF224
 3564 0b11 07       		.byte	0x7
 3565 0b12 8B       		.byte	0x8b
 3566 0b13 81000000 		.4byte	0x81
 3567 0b17 5F       		.byte	0x5f
 3568 0b18 07       		.uleb128 0x7
 3569 0b19 610D0000 		.4byte	.LASF225
 3570 0b1d 07       		.byte	0x7
 3571 0b1e 8C       		.byte	0x8c
 3572 0b1f 81000000 		.4byte	0x81
 3573 0b23 60       		.byte	0x60
 3574 0b24 07       		.uleb128 0x7
 3575 0b25 730D0000 		.4byte	.LASF226
 3576 0b29 07       		.byte	0x7
 3577 0b2a 8D       		.byte	0x8d
 3578 0b2b 81000000 		.4byte	0x81
 3579 0b2f 61       		.byte	0x61
 3580 0b30 07       		.uleb128 0x7
 3581 0b31 850D0000 		.4byte	.LASF227
 3582 0b35 07       		.byte	0x7
 3583 0b36 8E       		.byte	0x8e
 3584 0b37 81000000 		.4byte	0x81
 3585 0b3b 62       		.byte	0x62
 3586 0b3c 07       		.uleb128 0x7
 3587 0b3d 970D0000 		.4byte	.LASF228
 3588 0b41 07       		.byte	0x7
 3589 0b42 8F       		.byte	0x8f
 3590 0b43 81000000 		.4byte	0x81
 3591 0b47 63       		.byte	0x63
 3592 0b48 07       		.uleb128 0x7
ARM GAS  C:\Users\MARTHN~1\AppData\Local\Temp\ccYtCv5j.s 			page 82


 3593 0b49 0F110000 		.4byte	.LASF229
 3594 0b4d 07       		.byte	0x7
 3595 0b4e 90       		.byte	0x90
 3596 0b4f 81000000 		.4byte	0x81
 3597 0b53 64       		.byte	0x64
 3598 0b54 07       		.uleb128 0x7
 3599 0b55 76000000 		.4byte	.LASF230
 3600 0b59 07       		.byte	0x7
 3601 0b5a 92       		.byte	0x92
 3602 0b5b 81000000 		.4byte	0x81
 3603 0b5f 65       		.byte	0x65
 3604 0b60 07       		.uleb128 0x7
 3605 0b61 84000000 		.4byte	.LASF231
 3606 0b65 07       		.byte	0x7
 3607 0b66 93       		.byte	0x93
 3608 0b67 81000000 		.4byte	0x81
 3609 0b6b 66       		.byte	0x66
 3610 0b6c 07       		.uleb128 0x7
 3611 0b6d 92000000 		.4byte	.LASF232
 3612 0b71 07       		.byte	0x7
 3613 0b72 94       		.byte	0x94
 3614 0b73 81000000 		.4byte	0x81
 3615 0b77 67       		.byte	0x67
 3616 0b78 07       		.uleb128 0x7
 3617 0b79 A0000000 		.4byte	.LASF233
 3618 0b7d 07       		.byte	0x7
 3619 0b7e 95       		.byte	0x95
 3620 0b7f 81000000 		.4byte	0x81
 3621 0b83 68       		.byte	0x68
 3622 0b84 07       		.uleb128 0x7
 3623 0b85 AE000000 		.4byte	.LASF234
 3624 0b89 07       		.byte	0x7
 3625 0b8a 96       		.byte	0x96
 3626 0b8b 81000000 		.4byte	0x81
 3627 0b8f 69       		.byte	0x69
 3628 0b90 07       		.uleb128 0x7
 3629 0b91 BC000000 		.4byte	.LASF235
 3630 0b95 07       		.byte	0x7
 3631 0b96 97       		.byte	0x97
 3632 0b97 81000000 		.4byte	0x81
 3633 0b9b 6A       		.byte	0x6a
 3634 0b9c 07       		.uleb128 0x7
 3635 0b9d CA000000 		.4byte	.LASF236
 3636 0ba1 07       		.byte	0x7
 3637 0ba2 98       		.byte	0x98
 3638 0ba3 81000000 		.4byte	0x81
 3639 0ba7 6B       		.byte	0x6b
 3640 0ba8 07       		.uleb128 0x7
 3641 0ba9 D8000000 		.4byte	.LASF237
 3642 0bad 07       		.byte	0x7
 3643 0bae 99       		.byte	0x99
 3644 0baf 81000000 		.4byte	0x81
 3645 0bb3 6C       		.byte	0x6c
 3646 0bb4 07       		.uleb128 0x7
 3647 0bb5 E6000000 		.4byte	.LASF238
 3648 0bb9 07       		.byte	0x7
 3649 0bba 9A       		.byte	0x9a
ARM GAS  C:\Users\MARTHN~1\AppData\Local\Temp\ccYtCv5j.s 			page 83


 3650 0bbb 81000000 		.4byte	0x81
 3651 0bbf 6D       		.byte	0x6d
 3652 0bc0 07       		.uleb128 0x7
 3653 0bc1 2B010000 		.4byte	.LASF239
 3654 0bc5 07       		.byte	0x7
 3655 0bc6 9B       		.byte	0x9b
 3656 0bc7 81000000 		.4byte	0x81
 3657 0bcb 6E       		.byte	0x6e
 3658 0bcc 00       		.byte	0
 3659 0bcd 0A       		.uleb128 0xa
 3660 0bce 2D0C0000 		.4byte	.LASF240
 3661 0bd2 6F       		.byte	0x6f
 3662 0bd3 07       		.byte	0x7
 3663 0bd4 1C       		.byte	0x1c
 3664 0bd5 F00B0000 		.4byte	0xbf0
 3665 0bd9 0B       		.uleb128 0xb
 3666 0bda 17050000 		.4byte	.LASF40
 3667 0bde 07       		.byte	0x7
 3668 0bdf 1E       		.byte	0x1e
 3669 0be0 F00B0000 		.4byte	0xbf0
 3670 0be4 0B       		.uleb128 0xb
 3671 0be5 78040000 		.4byte	.LASF41
 3672 0be9 07       		.byte	0x7
 3673 0bea 9C       		.byte	0x9c
 3674 0beb 8C060000 		.4byte	0x68c
 3675 0bef 00       		.byte	0
 3676 0bf0 08       		.uleb128 0x8
 3677 0bf1 81000000 		.4byte	0x81
 3678 0bf5 000C0000 		.4byte	0xc00
 3679 0bf9 09       		.uleb128 0x9
 3680 0bfa C1000000 		.4byte	0xc1
 3681 0bfe 6E       		.byte	0x6e
 3682 0bff 00       		.byte	0
 3683 0c00 03       		.uleb128 0x3
 3684 0c01 D20D0000 		.4byte	.LASF241
 3685 0c05 07       		.byte	0x7
 3686 0c06 9D       		.byte	0x9d
 3687 0c07 CD0B0000 		.4byte	0xbcd
 3688 0c0b 0F       		.uleb128 0xf
 3689 0c0c 5C060000 		.4byte	.LASF244
 3690 0c10 01       		.byte	0x1
 3691 0c11 2C000000 		.4byte	0x2c
 3692 0c15 01       		.byte	0x1
 3693 0c16 3F       		.byte	0x3f
 3694 0c17 280C0000 		.4byte	0xc28
 3695 0c1b 10       		.uleb128 0x10
 3696 0c1c 4D110000 		.4byte	.LASF242
 3697 0c20 00       		.byte	0
 3698 0c21 10       		.uleb128 0x10
 3699 0c22 E4020000 		.4byte	.LASF243
 3700 0c26 01       		.byte	0x1
 3701 0c27 00       		.byte	0
 3702 0c28 0F       		.uleb128 0xf
 3703 0c29 56000000 		.4byte	.LASF245
 3704 0c2d 01       		.byte	0x1
 3705 0c2e 2C000000 		.4byte	0x2c
 3706 0c32 01       		.byte	0x1
ARM GAS  C:\Users\MARTHN~1\AppData\Local\Temp\ccYtCv5j.s 			page 84


 3707 0c33 47       		.byte	0x47
 3708 0c34 750C0000 		.4byte	0xc75
 3709 0c38 10       		.uleb128 0x10
 3710 0c39 E30C0000 		.4byte	.LASF246
 3711 0c3d 00       		.byte	0
 3712 0c3e 10       		.uleb128 0x10
 3713 0c3f D9100000 		.4byte	.LASF247
 3714 0c43 01       		.byte	0x1
 3715 0c44 10       		.uleb128 0x10
 3716 0c45 DA050000 		.4byte	.LASF248
 3717 0c49 02       		.byte	0x2
 3718 0c4a 10       		.uleb128 0x10
 3719 0c4b E7050000 		.4byte	.LASF249
 3720 0c4f 03       		.byte	0x3
 3721 0c50 10       		.uleb128 0x10
 3722 0c51 F4050000 		.4byte	.LASF250
 3723 0c55 04       		.byte	0x4
 3724 0c56 10       		.uleb128 0x10
 3725 0c57 01060000 		.4byte	.LASF251
 3726 0c5b 05       		.byte	0x5
 3727 0c5c 10       		.uleb128 0x10
 3728 0c5d 0E060000 		.4byte	.LASF252
 3729 0c61 06       		.byte	0x6
 3730 0c62 10       		.uleb128 0x10
 3731 0c63 1B060000 		.4byte	.LASF253
 3732 0c67 07       		.byte	0x7
 3733 0c68 10       		.uleb128 0x10
 3734 0c69 28060000 		.4byte	.LASF254
 3735 0c6d 08       		.byte	0x8
 3736 0c6e 10       		.uleb128 0x10
 3737 0c6f 35060000 		.4byte	.LASF255
 3738 0c73 09       		.byte	0x9
 3739 0c74 00       		.byte	0
 3740 0c75 0F       		.uleb128 0xf
 3741 0c76 030C0000 		.4byte	.LASF256
 3742 0c7a 01       		.byte	0x1
 3743 0c7b 2C000000 		.4byte	0x2c
 3744 0c7f 01       		.byte	0x1
 3745 0c80 57       		.byte	0x57
 3746 0c81 980C0000 		.4byte	0xc98
 3747 0c85 10       		.uleb128 0x10
 3748 0c86 1F030000 		.4byte	.LASF257
 3749 0c8a 00       		.byte	0
 3750 0c8b 10       		.uleb128 0x10
 3751 0c8c D30A0000 		.4byte	.LASF258
 3752 0c90 01       		.byte	0x1
 3753 0c91 10       		.uleb128 0x10
 3754 0c92 620B0000 		.4byte	.LASF259
 3755 0c96 02       		.byte	0x2
 3756 0c97 00       		.byte	0
 3757 0c98 0F       		.uleb128 0xf
 3758 0c99 78110000 		.4byte	.LASF260
 3759 0c9d 01       		.byte	0x1
 3760 0c9e 2C000000 		.4byte	0x2c
 3761 0ca2 01       		.byte	0x1
 3762 0ca3 5E       		.byte	0x5e
 3763 0ca4 C10C0000 		.4byte	0xcc1
ARM GAS  C:\Users\MARTHN~1\AppData\Local\Temp\ccYtCv5j.s 			page 85


 3764 0ca8 10       		.uleb128 0x10
 3765 0ca9 AE100000 		.4byte	.LASF261
 3766 0cad 00       		.byte	0
 3767 0cae 10       		.uleb128 0x10
 3768 0caf 8A0F0000 		.4byte	.LASF262
 3769 0cb3 01       		.byte	0x1
 3770 0cb4 10       		.uleb128 0x10
 3771 0cb5 7C010000 		.4byte	.LASF263
 3772 0cb9 02       		.byte	0x2
 3773 0cba 10       		.uleb128 0x10
 3774 0cbb B7040000 		.4byte	.LASF264
 3775 0cbf 03       		.byte	0x3
 3776 0cc0 00       		.byte	0
 3777 0cc1 0F       		.uleb128 0xf
 3778 0cc2 500A0000 		.4byte	.LASF20
 3779 0cc6 01       		.byte	0x1
 3780 0cc7 2C000000 		.4byte	0x2c
 3781 0ccb 01       		.byte	0x1
 3782 0ccc 71       		.byte	0x71
 3783 0ccd 3E0D0000 		.4byte	0xd3e
 3784 0cd1 10       		.uleb128 0x10
 3785 0cd2 2E030000 		.4byte	.LASF265
 3786 0cd6 00       		.byte	0
 3787 0cd7 10       		.uleb128 0x10
 3788 0cd8 CE0C0000 		.4byte	.LASF266
 3789 0cdc 01       		.byte	0x1
 3790 0cdd 10       		.uleb128 0x10
 3791 0cde 69000000 		.4byte	.LASF267
 3792 0ce2 02       		.byte	0x2
 3793 0ce3 10       		.uleb128 0x10
 3794 0ce4 2E0F0000 		.4byte	.LASF268
 3795 0ce8 03       		.byte	0x3
 3796 0ce9 10       		.uleb128 0x10
 3797 0cea 4F050000 		.4byte	.LASF269
 3798 0cee 04       		.byte	0x4
 3799 0cef 10       		.uleb128 0x10
 3800 0cf0 5B050000 		.4byte	.LASF270
 3801 0cf4 05       		.byte	0x5
 3802 0cf5 10       		.uleb128 0x10
 3803 0cf6 67050000 		.4byte	.LASF271
 3804 0cfa 06       		.byte	0x6
 3805 0cfb 10       		.uleb128 0x10
 3806 0cfc 73050000 		.4byte	.LASF272
 3807 0d00 07       		.byte	0x7
 3808 0d01 10       		.uleb128 0x10
 3809 0d02 7F050000 		.4byte	.LASF273
 3810 0d06 08       		.byte	0x8
 3811 0d07 10       		.uleb128 0x10
 3812 0d08 8B050000 		.4byte	.LASF274
 3813 0d0c 09       		.byte	0x9
 3814 0d0d 10       		.uleb128 0x10
 3815 0d0e 97050000 		.4byte	.LASF275
 3816 0d12 0A       		.byte	0xa
 3817 0d13 10       		.uleb128 0x10
 3818 0d14 FC0A0000 		.4byte	.LASF276
 3819 0d18 0B       		.byte	0xb
 3820 0d19 10       		.uleb128 0x10
ARM GAS  C:\Users\MARTHN~1\AppData\Local\Temp\ccYtCv5j.s 			page 86


 3821 0d1a 03120000 		.4byte	.LASF277
 3822 0d1e 0C       		.byte	0xc
 3823 0d1f 10       		.uleb128 0x10
 3824 0d20 D3050000 		.4byte	.LASF278
 3825 0d24 0D       		.byte	0xd
 3826 0d25 10       		.uleb128 0x10
 3827 0d26 590A0000 		.4byte	.LASF279
 3828 0d2a 0E       		.byte	0xe
 3829 0d2b 10       		.uleb128 0x10
 3830 0d2c 43010000 		.4byte	.LASF280
 3831 0d30 0F       		.byte	0xf
 3832 0d31 11       		.uleb128 0x11
 3833 0d32 47505300 		.ascii	"GPS\000"
 3834 0d36 10       		.byte	0x10
 3835 0d37 10       		.uleb128 0x10
 3836 0d38 59110000 		.4byte	.LASF281
 3837 0d3c 11       		.byte	0x11
 3838 0d3d 00       		.byte	0
 3839 0d3e 12       		.uleb128 0x12
 3840 0d3f A4100000 		.4byte	.LASF282
 3841 0d43 01       		.byte	0x1
 3842 0d44 8D       		.byte	0x8d
 3843 0d45 81000000 		.4byte	0x81
 3844 0d49 00000000 		.4byte	.LFB63
 3845 0d4d D0040000 		.4byte	.LFE63-.LFB63
 3846 0d51 01       		.uleb128 0x1
 3847 0d52 9C       		.byte	0x9c
 3848 0d53 880D0000 		.4byte	0xd88
 3849 0d57 13       		.uleb128 0x13
 3850 0d58 60000000 		.4byte	.LBB2
 3851 0d5c 1A000000 		.4byte	.LBE2-.LBB2
 3852 0d60 710D0000 		.4byte	0xd71
 3853 0d64 14       		.uleb128 0x14
 3854 0d65 6900     		.ascii	"i\000"
 3855 0d67 01       		.byte	0x1
 3856 0d68 A0       		.byte	0xa0
 3857 0d69 81000000 		.4byte	0x81
 3858 0d6d 02       		.uleb128 0x2
 3859 0d6e 91       		.byte	0x91
 3860 0d6f 77       		.sleb128 -9
 3861 0d70 00       		.byte	0
 3862 0d71 15       		.uleb128 0x15
 3863 0d72 84000000 		.4byte	.LBB3
 3864 0d76 18000000 		.4byte	.LBE3-.LBB3
 3865 0d7a 14       		.uleb128 0x14
 3866 0d7b 6900     		.ascii	"i\000"
 3867 0d7d 01       		.byte	0x1
 3868 0d7e A5       		.byte	0xa5
 3869 0d7f 81000000 		.4byte	0x81
 3870 0d83 02       		.uleb128 0x2
 3871 0d84 91       		.byte	0x91
 3872 0d85 76       		.sleb128 -10
 3873 0d86 00       		.byte	0
 3874 0d87 00       		.byte	0
 3875 0d88 16       		.uleb128 0x16
 3876 0d89 0A100000 		.4byte	.LASF283
 3877 0d8d 01       		.byte	0x1
ARM GAS  C:\Users\MARTHN~1\AppData\Local\Temp\ccYtCv5j.s 			page 87


 3878 0d8e B201     		.2byte	0x1b2
 3879 0d90 81000000 		.4byte	0x81
 3880 0d94 00000000 		.4byte	.LFB64
 3881 0d98 94000000 		.4byte	.LFE64-.LFB64
 3882 0d9c 01       		.uleb128 0x1
 3883 0d9d 9C       		.byte	0x9c
 3884 0d9e DD0D0000 		.4byte	0xddd
 3885 0da2 17       		.uleb128 0x17
 3886 0da3 9F060000 		.4byte	.LASF284
 3887 0da7 01       		.byte	0x1
 3888 0da8 BF01     		.2byte	0x1bf
 3889 0daa 99000000 		.4byte	0x99
 3890 0dae 02       		.uleb128 0x2
 3891 0daf 91       		.byte	0x91
 3892 0db0 70       		.sleb128 -16
 3893 0db1 17       		.uleb128 0x17
 3894 0db2 0A090000 		.4byte	.LASF285
 3895 0db6 01       		.byte	0x1
 3896 0db7 C001     		.2byte	0x1c0
 3897 0db9 99000000 		.4byte	0x99
 3898 0dbd 05       		.uleb128 0x5
 3899 0dbe 03       		.byte	0x3
 3900 0dbf 20010000 		.4byte	channel.6971
 3901 0dc3 15       		.uleb128 0x15
 3902 0dc4 3C000000 		.4byte	.LBB4
 3903 0dc8 12000000 		.4byte	.LBE4-.LBB4
 3904 0dcc 17       		.uleb128 0x17
 3905 0dcd 0A090000 		.4byte	.LASF285
 3906 0dd1 01       		.byte	0x1
 3907 0dd2 C501     		.2byte	0x1c5
 3908 0dd4 81000000 		.4byte	0x81
 3909 0dd8 02       		.uleb128 0x2
 3910 0dd9 91       		.byte	0x91
 3911 0dda 77       		.sleb128 -9
 3912 0ddb 00       		.byte	0
 3913 0ddc 00       		.byte	0
 3914 0ddd 18       		.uleb128 0x18
 3915 0dde 8B060000 		.4byte	.LASF286
 3916 0de2 01       		.byte	0x1
 3917 0de3 DB01     		.2byte	0x1db
 3918 0de5 81000000 		.4byte	0x81
 3919 0de9 00000000 		.4byte	.LFB65
 3920 0ded 0E000000 		.4byte	.LFE65-.LFB65
 3921 0df1 01       		.uleb128 0x1
 3922 0df2 9C       		.byte	0x9c
 3923 0df3 19       		.uleb128 0x19
 3924 0df4 740F0000 		.4byte	.LASF287
 3925 0df8 01       		.byte	0x1
 3926 0df9 2A02     		.2byte	0x22a
 3927 0dfb 81000000 		.4byte	0x81
 3928 0dff 00000000 		.4byte	.LFB66
 3929 0e03 48000000 		.4byte	.LFE66-.LFB66
 3930 0e07 01       		.uleb128 0x1
 3931 0e08 9C       		.byte	0x9c
 3932 0e09 19       		.uleb128 0x19
 3933 0e0a BE070000 		.4byte	.LASF288
 3934 0e0e 01       		.byte	0x1
ARM GAS  C:\Users\MARTHN~1\AppData\Local\Temp\ccYtCv5j.s 			page 88


 3935 0e0f 6402     		.2byte	0x264
 3936 0e11 81000000 		.4byte	0x81
 3937 0e15 00000000 		.4byte	.LFB67
 3938 0e19 48000000 		.4byte	.LFE67-.LFB67
 3939 0e1d 01       		.uleb128 0x1
 3940 0e1e 9C       		.byte	0x9c
 3941 0e1f 16       		.uleb128 0x16
 3942 0e20 C20A0000 		.4byte	.LASF289
 3943 0e24 01       		.byte	0x1
 3944 0e25 9802     		.2byte	0x298
 3945 0e27 81000000 		.4byte	0x81
 3946 0e2b 00000000 		.4byte	.LFB68
 3947 0e2f 3C000000 		.4byte	.LFE68-.LFB68
 3948 0e33 01       		.uleb128 0x1
 3949 0e34 9C       		.byte	0x9c
 3950 0e35 490E0000 		.4byte	0xe49
 3951 0e39 17       		.uleb128 0x17
 3952 0e3a 35000000 		.4byte	.LASF290
 3953 0e3e 01       		.byte	0x1
 3954 0e3f 9D02     		.2byte	0x29d
 3955 0e41 81000000 		.4byte	0x81
 3956 0e45 02       		.uleb128 0x2
 3957 0e46 91       		.byte	0x91
 3958 0e47 77       		.sleb128 -9
 3959 0e48 00       		.byte	0
 3960 0e49 16       		.uleb128 0x16
 3961 0e4a EE0C0000 		.4byte	.LASF291
 3962 0e4e 01       		.byte	0x1
 3963 0e4f AC02     		.2byte	0x2ac
 3964 0e51 81000000 		.4byte	0x81
 3965 0e55 00000000 		.4byte	.LFB69
 3966 0e59 70000000 		.4byte	.LFE69-.LFB69
 3967 0e5d 01       		.uleb128 0x1
 3968 0e5e 9C       		.byte	0x9c
 3969 0e5f 990E0000 		.4byte	0xe99
 3970 0e63 17       		.uleb128 0x17
 3971 0e64 AC060000 		.4byte	.LASF292
 3972 0e68 01       		.byte	0x1
 3973 0e69 AF02     		.2byte	0x2af
 3974 0e6b 81000000 		.4byte	0x81
 3975 0e6f 02       		.uleb128 0x2
 3976 0e70 91       		.byte	0x91
 3977 0e71 77       		.sleb128 -9
 3978 0e72 17       		.uleb128 0x17
 3979 0e73 A90D0000 		.4byte	.LASF293
 3980 0e77 01       		.byte	0x1
 3981 0e78 B002     		.2byte	0x2b0
 3982 0e7a 81000000 		.4byte	0x81
 3983 0e7e 02       		.uleb128 0x2
 3984 0e7f 91       		.byte	0x91
 3985 0e80 75       		.sleb128 -11
 3986 0e81 15       		.uleb128 0x15
 3987 0e82 22000000 		.4byte	.LBB5
 3988 0e86 2E000000 		.4byte	.LBE5-.LBB5
 3989 0e8a 1A       		.uleb128 0x1a
 3990 0e8b 6900     		.ascii	"i\000"
 3991 0e8d 01       		.byte	0x1
ARM GAS  C:\Users\MARTHN~1\AppData\Local\Temp\ccYtCv5j.s 			page 89


 3992 0e8e B802     		.2byte	0x2b8
 3993 0e90 81000000 		.4byte	0x81
 3994 0e94 02       		.uleb128 0x2
 3995 0e95 91       		.byte	0x91
 3996 0e96 76       		.sleb128 -10
 3997 0e97 00       		.byte	0
 3998 0e98 00       		.byte	0
 3999 0e99 1B       		.uleb128 0x1b
 4000 0e9a DC0B0000 		.4byte	.LASF294
 4001 0e9e 01       		.byte	0x1
 4002 0e9f C902     		.2byte	0x2c9
 4003 0ea1 81000000 		.4byte	0x81
 4004 0ea5 00000000 		.4byte	.LFB70
 4005 0ea9 0E000000 		.4byte	.LFE70-.LFB70
 4006 0ead 01       		.uleb128 0x1
 4007 0eae 9C       		.byte	0x9c
 4008 0eaf C60E0000 		.4byte	0xec6
 4009 0eb3 17       		.uleb128 0x17
 4010 0eb4 80040000 		.4byte	.LASF295
 4011 0eb8 01       		.byte	0x1
 4012 0eb9 CC02     		.2byte	0x2cc
 4013 0ebb C60E0000 		.4byte	0xec6
 4014 0ebf 05       		.uleb128 0x5
 4015 0ec0 03       		.byte	0x3
 4016 0ec1 00000000 		.4byte	targetstring.7001
 4017 0ec5 00       		.byte	0
 4018 0ec6 08       		.uleb128 0x8
 4019 0ec7 81000000 		.4byte	0x81
 4020 0ecb D60E0000 		.4byte	0xed6
 4021 0ecf 09       		.uleb128 0x9
 4022 0ed0 C1000000 		.4byte	0xc1
 4023 0ed4 05       		.byte	0x5
 4024 0ed5 00       		.byte	0
 4025 0ed6 18       		.uleb128 0x18
 4026 0ed7 50100000 		.4byte	.LASF296
 4027 0edb 01       		.byte	0x1
 4028 0edc D602     		.2byte	0x2d6
 4029 0ede EC0E0000 		.4byte	0xeec
 4030 0ee2 00000000 		.4byte	.LFB71
 4031 0ee6 20000000 		.4byte	.LFE71-.LFB71
 4032 0eea 01       		.uleb128 0x1
 4033 0eeb 9C       		.byte	0x9c
 4034 0eec 1C       		.uleb128 0x1c
 4035 0eed 04       		.byte	0x4
 4036 0eee F8010000 		.4byte	0x1f8
 4037 0ef2 18       		.uleb128 0x18
 4038 0ef3 440E0000 		.4byte	.LASF297
 4039 0ef7 01       		.byte	0x1
 4040 0ef8 F102     		.2byte	0x2f1
 4041 0efa 080F0000 		.4byte	0xf08
 4042 0efe 00000000 		.4byte	.LFB72
 4043 0f02 20000000 		.4byte	.LFE72-.LFB72
 4044 0f06 01       		.uleb128 0x1
 4045 0f07 9C       		.byte	0x9c
 4046 0f08 1C       		.uleb128 0x1c
 4047 0f09 04       		.byte	0x4
 4048 0f0a F7050000 		.4byte	0x5f7
ARM GAS  C:\Users\MARTHN~1\AppData\Local\Temp\ccYtCv5j.s 			page 90


 4049 0f0e 18       		.uleb128 0x18
 4050 0f0f F30F0000 		.4byte	.LASF298
 4051 0f13 01       		.byte	0x1
 4052 0f14 F802     		.2byte	0x2f8
 4053 0f16 EC0E0000 		.4byte	0xeec
 4054 0f1a 00000000 		.4byte	.LFB73
 4055 0f1e 20000000 		.4byte	.LFE73-.LFB73
 4056 0f22 01       		.uleb128 0x1
 4057 0f23 9C       		.byte	0x9c
 4058 0f24 18       		.uleb128 0x18
 4059 0f25 47040000 		.4byte	.LASF299
 4060 0f29 01       		.byte	0x1
 4061 0f2a 0003     		.2byte	0x300
 4062 0f2c 3A0F0000 		.4byte	0xf3a
 4063 0f30 00000000 		.4byte	.LFB74
 4064 0f34 20000000 		.4byte	.LFE74-.LFB74
 4065 0f38 01       		.uleb128 0x1
 4066 0f39 9C       		.byte	0x9c
 4067 0f3a 1C       		.uleb128 0x1c
 4068 0f3b 04       		.byte	0x4
 4069 0f3c 80060000 		.4byte	0x680
 4070 0f40 18       		.uleb128 0x18
 4071 0f41 86100000 		.4byte	.LASF300
 4072 0f45 01       		.byte	0x1
 4073 0f46 0703     		.2byte	0x307
 4074 0f48 3A0F0000 		.4byte	0xf3a
 4075 0f4c 00000000 		.4byte	.LFB75
 4076 0f50 20000000 		.4byte	.LFE75-.LFB75
 4077 0f54 01       		.uleb128 0x1
 4078 0f55 9C       		.byte	0x9c
 4079 0f56 1D       		.uleb128 0x1d
 4080 0f57 B70F0000 		.4byte	.LASF307
 4081 0f5b 01       		.byte	0x1
 4082 0f5c 1603     		.2byte	0x316
 4083 0f5e 00000000 		.4byte	.LFB76
 4084 0f62 5C000000 		.4byte	.LFE76-.LFB76
 4085 0f66 01       		.uleb128 0x1
 4086 0f67 9C       		.byte	0x9c
 4087 0f68 960F0000 		.4byte	0xf96
 4088 0f6c 17       		.uleb128 0x17
 4089 0f6d 13010000 		.4byte	.LASF301
 4090 0f71 01       		.byte	0x1
 4091 0f72 1903     		.2byte	0x319
 4092 0f74 960F0000 		.4byte	0xf96
 4093 0f78 05       		.uleb128 0x5
 4094 0f79 03       		.byte	0x3
 4095 0f7a 24010000 		.4byte	RelayTestStatus_display.7016
 4096 0f7e 15       		.uleb128 0x15
 4097 0f7f 06000000 		.4byte	.LBB6
 4098 0f83 2C000000 		.4byte	.LBE6-.LBB6
 4099 0f87 1A       		.uleb128 0x1a
 4100 0f88 6900     		.ascii	"i\000"
 4101 0f8a 01       		.byte	0x1
 4102 0f8b 1B03     		.2byte	0x31b
 4103 0f8d 81000000 		.4byte	0x81
 4104 0f91 02       		.uleb128 0x2
 4105 0f92 91       		.byte	0x91
ARM GAS  C:\Users\MARTHN~1\AppData\Local\Temp\ccYtCv5j.s 			page 91


 4106 0f93 77       		.sleb128 -9
 4107 0f94 00       		.byte	0
 4108 0f95 00       		.byte	0
 4109 0f96 08       		.uleb128 0x8
 4110 0f97 81000000 		.4byte	0x81
 4111 0f9b A60F0000 		.4byte	0xfa6
 4112 0f9f 09       		.uleb128 0x9
 4113 0fa0 C1000000 		.4byte	0xc1
 4114 0fa4 23       		.byte	0x23
 4115 0fa5 00       		.byte	0
 4116 0fa6 16       		.uleb128 0x16
 4117 0fa7 220E0000 		.4byte	.LASF302
 4118 0fab 01       		.byte	0x1
 4119 0fac 3F03     		.2byte	0x33f
 4120 0fae 81000000 		.4byte	0x81
 4121 0fb2 00000000 		.4byte	.LFB77
 4122 0fb6 7C000000 		.4byte	.LFE77-.LFB77
 4123 0fba 01       		.uleb128 0x1
 4124 0fbb 9C       		.byte	0x9c
 4125 0fbc DF0F0000 		.4byte	0xfdf
 4126 0fc0 1E       		.uleb128 0x1e
 4127 0fc1 BA0B0000 		.4byte	.LASF309
 4128 0fc5 01       		.byte	0x1
 4129 0fc6 3F03     		.2byte	0x33f
 4130 0fc8 81000000 		.4byte	0x81
 4131 0fcc 02       		.uleb128 0x2
 4132 0fcd 91       		.byte	0x91
 4133 0fce 6F       		.sleb128 -17
 4134 0fcf 17       		.uleb128 0x17
 4135 0fd0 B2090000 		.4byte	.LASF303
 4136 0fd4 01       		.byte	0x1
 4137 0fd5 4203     		.2byte	0x342
 4138 0fd7 81000000 		.4byte	0x81
 4139 0fdb 02       		.uleb128 0x2
 4140 0fdc 91       		.byte	0x91
 4141 0fdd 77       		.sleb128 -9
 4142 0fde 00       		.byte	0
 4143 0fdf 1F       		.uleb128 0x1f
 4144 0fe0 A0110000 		.4byte	.LASF304
 4145 0fe4 01       		.byte	0x1
 4146 0fe5 5903     		.2byte	0x359
 4147 0fe7 00000000 		.4byte	.LFB78
 4148 0feb 0C000000 		.4byte	.LFE78-.LFB78
 4149 0fef 01       		.uleb128 0x1
 4150 0ff0 9C       		.byte	0x9c
 4151 0ff1 20       		.uleb128 0x20
 4152 0ff2 2B110000 		.4byte	.LASF305
 4153 0ff6 01       		.byte	0x1
 4154 0ff7 6303     		.2byte	0x363
 4155 0ff9 00000000 		.4byte	.LFB79
 4156 0ffd A8000000 		.4byte	.LFE79-.LFB79
 4157 1001 01       		.uleb128 0x1
 4158 1002 9C       		.byte	0x9c
 4159 1003 20       		.uleb128 0x20
 4160 1004 CC0F0000 		.4byte	.LASF306
 4161 1008 01       		.byte	0x1
 4162 1009 8303     		.2byte	0x383
ARM GAS  C:\Users\MARTHN~1\AppData\Local\Temp\ccYtCv5j.s 			page 92


 4163 100b 00000000 		.4byte	.LFB80
 4164 100f 48000000 		.4byte	.LFE80-.LFB80
 4165 1013 01       		.uleb128 0x1
 4166 1014 9C       		.byte	0x9c
 4167 1015 21       		.uleb128 0x21
 4168 1016 4D070000 		.4byte	.LASF308
 4169 101a 01       		.byte	0x1
 4170 101b 9F03     		.2byte	0x39f
 4171 101d 00000000 		.4byte	.LFB81
 4172 1021 70000000 		.4byte	.LFE81-.LFB81
 4173 1025 01       		.uleb128 0x1
 4174 1026 9C       		.byte	0x9c
 4175 1027 3B100000 		.4byte	0x103b
 4176 102b 1E       		.uleb128 0x1e
 4177 102c B40A0000 		.4byte	.LASF310
 4178 1030 01       		.byte	0x1
 4179 1031 9F03     		.2byte	0x39f
 4180 1033 81000000 		.4byte	0x81
 4181 1037 02       		.uleb128 0x2
 4182 1038 91       		.byte	0x91
 4183 1039 77       		.sleb128 -9
 4184 103a 00       		.byte	0
 4185 103b 1F       		.uleb128 0x1f
 4186 103c 090E0000 		.4byte	.LASF311
 4187 1040 01       		.byte	0x1
 4188 1041 BD03     		.2byte	0x3bd
 4189 1043 00000000 		.4byte	.LFB82
 4190 1047 34000000 		.4byte	.LFE82-.LFB82
 4191 104b 01       		.uleb128 0x1
 4192 104c 9C       		.byte	0x9c
 4193 104d 1F       		.uleb128 0x1f
 4194 104e FB000000 		.4byte	.LASF312
 4195 1052 01       		.byte	0x1
 4196 1053 C803     		.2byte	0x3c8
 4197 1055 00000000 		.4byte	.LFB83
 4198 1059 3C000000 		.4byte	.LFE83-.LFB83
 4199 105d 01       		.uleb128 0x1
 4200 105e 9C       		.byte	0x9c
 4201 105f 22       		.uleb128 0x22
 4202 1060 91110000 		.4byte	.LASF313
 4203 1064 01       		.byte	0x1
 4204 1065 1B       		.byte	0x1b
 4205 1066 F8010000 		.4byte	0x1f8
 4206 106a 05       		.uleb128 0x5
 4207 106b 03       		.byte	0x3
 4208 106c 00000000 		.4byte	rxPacket_Relay
 4209 1070 22       		.uleb128 0x22
 4210 1071 09000000 		.4byte	.LASF314
 4211 1075 01       		.byte	0x1
 4212 1076 1C       		.byte	0x1c
 4213 1077 EC0E0000 		.4byte	0xeec
 4214 107b 05       		.uleb128 0x5
 4215 107c 03       		.byte	0x3
 4216 107d 10000000 		.4byte	pRxPacket_Relay
 4217 1081 22       		.uleb128 0x22
 4218 1082 5B0E0000 		.4byte	.LASF122
 4219 1086 01       		.byte	0x1
ARM GAS  C:\Users\MARTHN~1\AppData\Local\Temp\ccYtCv5j.s 			page 93


 4220 1087 1D       		.byte	0x1d
 4221 1088 F8010000 		.4byte	0x1f8
 4222 108c 05       		.uleb128 0x5
 4223 108d 03       		.byte	0x3
 4224 108e 14000000 		.4byte	rxPacket_RelaySiren
 4225 1092 22       		.uleb128 0x22
 4226 1093 A0070000 		.4byte	.LASF315
 4227 1097 01       		.byte	0x1
 4228 1098 1E       		.byte	0x1e
 4229 1099 EC0E0000 		.4byte	0xeec
 4230 109d 05       		.uleb128 0x5
 4231 109e 03       		.byte	0x3
 4232 109f 24000000 		.4byte	pRxPacket_RelaySiren
 4233 10a3 22       		.uleb128 0x22
 4234 10a4 9A0C0000 		.4byte	.LASF123
 4235 10a8 01       		.byte	0x1
 4236 10a9 20       		.byte	0x20
 4237 10aa F7050000 		.4byte	0x5f7
 4238 10ae 05       		.uleb128 0x5
 4239 10af 03       		.byte	0x3
 4240 10b0 28000000 		.4byte	txPacket_RelaySiren
 4241 10b4 22       		.uleb128 0x22
 4242 10b5 BE050000 		.4byte	.LASF316
 4243 10b9 01       		.byte	0x1
 4244 10ba 21       		.byte	0x21
 4245 10bb 080F0000 		.4byte	0xf08
 4246 10bf 05       		.uleb128 0x5
 4247 10c0 03       		.byte	0x3
 4248 10c1 78000000 		.4byte	pTxPacket_RelaySiren
 4249 10c5 22       		.uleb128 0x22
 4250 10c6 8D040000 		.4byte	.LASF317
 4251 10ca 01       		.byte	0x1
 4252 10cb 29       		.byte	0x29
 4253 10cc 80060000 		.4byte	0x680
 4254 10d0 05       		.uleb128 0x5
 4255 10d1 03       		.byte	0x3
 4256 10d2 7C000000 		.4byte	txPacket_H
 4257 10d6 22       		.uleb128 0x22
 4258 10d7 F70B0000 		.4byte	.LASF318
 4259 10db 01       		.byte	0x1
 4260 10dc 2A       		.byte	0x2a
 4261 10dd 3A0F0000 		.4byte	0xf3a
 4262 10e1 05       		.uleb128 0x5
 4263 10e2 03       		.byte	0x3
 4264 10e3 84000000 		.4byte	pTxPacket_H
 4265 10e7 22       		.uleb128 0x22
 4266 10e8 4E0B0000 		.4byte	.LASF319
 4267 10ec 01       		.byte	0x1
 4268 10ed 2C       		.byte	0x2c
 4269 10ee 80060000 		.4byte	0x680
 4270 10f2 05       		.uleb128 0x5
 4271 10f3 03       		.byte	0x3
 4272 10f4 88000000 		.4byte	rxPacket_H
 4273 10f8 22       		.uleb128 0x22
 4274 10f9 29000000 		.4byte	.LASF320
 4275 10fd 01       		.byte	0x1
 4276 10fe 2D       		.byte	0x2d
ARM GAS  C:\Users\MARTHN~1\AppData\Local\Temp\ccYtCv5j.s 			page 94


 4277 10ff 3A0F0000 		.4byte	0xf3a
 4278 1103 05       		.uleb128 0x5
 4279 1104 03       		.byte	0x3
 4280 1105 90000000 		.4byte	pRxPacket_H
 4281 1109 22       		.uleb128 0x22
 4282 110a A90F0000 		.4byte	.LASF321
 4283 110e 01       		.byte	0x1
 4284 110f 2F       		.byte	0x2f
 4285 1110 000C0000 		.4byte	0xc00
 4286 1114 05       		.uleb128 0x5
 4287 1115 03       		.byte	0x3
 4288 1116 94000000 		.4byte	txPacket_Quad
 4289 111a 22       		.uleb128 0x22
 4290 111b 06030000 		.4byte	.LASF322
 4291 111f 01       		.byte	0x1
 4292 1120 30       		.byte	0x30
 4293 1121 2B110000 		.4byte	0x112b
 4294 1125 05       		.uleb128 0x5
 4295 1126 03       		.byte	0x3
 4296 1127 04010000 		.4byte	pTxPacket_Quad
 4297 112b 1C       		.uleb128 0x1c
 4298 112c 04       		.byte	0x4
 4299 112d 000C0000 		.4byte	0xc00
 4300 1131 22       		.uleb128 0x22
 4301 1132 5F0F0000 		.4byte	.LASF323
 4302 1136 01       		.byte	0x1
 4303 1137 39       		.byte	0x39
 4304 1138 8D000000 		.4byte	0x8d
 4305 113c 05       		.uleb128 0x5
 4306 113d 03       		.byte	0x3
 4307 113e 08010000 		.4byte	RTest_20ms_isr_count
 4308 1142 22       		.uleb128 0x22
 4309 1143 FD100000 		.4byte	.LASF324
 4310 1147 01       		.byte	0x1
 4311 1148 3A       		.byte	0x3a
 4312 1149 8D000000 		.4byte	0x8d
 4313 114d 05       		.uleb128 0x5
 4314 114e 03       		.byte	0x3
 4315 114f 0A010000 		.4byte	RTest_20ms_isr_EN
 4316 1153 08       		.uleb128 0x8
 4317 1154 81000000 		.4byte	0x81
 4318 1158 63110000 		.4byte	0x1163
 4319 115c 09       		.uleb128 0x9
 4320 115d C1000000 		.4byte	0xc1
 4321 1161 11       		.byte	0x11
 4322 1162 00       		.byte	0
 4323 1163 22       		.uleb128 0x22
 4324 1164 DB0F0000 		.4byte	.LASF325
 4325 1168 01       		.byte	0x1
 4326 1169 88       		.byte	0x88
 4327 116a 53110000 		.4byte	0x1153
 4328 116e 05       		.uleb128 0x5
 4329 116f 03       		.byte	0x3
 4330 1170 0C010000 		.4byte	RTestStatus
 4331 1174 23       		.uleb128 0x23
 4332 1175 EF0A0000 		.4byte	.LASF326
 4333 1179 08       		.byte	0x8
ARM GAS  C:\Users\MARTHN~1\AppData\Local\Temp\ccYtCv5j.s 			page 95


 4334 117a 1207     		.2byte	0x712
 4335 117c 80110000 		.4byte	0x1180
 4336 1180 24       		.uleb128 0x24
 4337 1181 76000000 		.4byte	0x76
 4338 1185 25       		.uleb128 0x25
 4339 1186 830C0000 		.4byte	.LASF327
 4340 118a 05       		.byte	0x5
 4341 118b 15       		.byte	0x15
 4342 118c C8000000 		.4byte	0xc8
 4343 1190 05       		.uleb128 0x5
 4344 1191 03       		.byte	0x3
 4345 1192 00000000 		.4byte	Test
 4346 1196 26       		.uleb128 0x26
 4347 1197 180C0000 		.4byte	.LASF328
 4348 119b 05       		.byte	0x5
 4349 119c 19       		.byte	0x19
 4350 119d F9000000 		.4byte	0xf9
 4351 11a1 00       		.byte	0
 4352              		.section	.debug_abbrev,"",%progbits
 4353              	.Ldebug_abbrev0:
 4354 0000 01       		.uleb128 0x1
 4355 0001 11       		.uleb128 0x11
 4356 0002 01       		.byte	0x1
 4357 0003 25       		.uleb128 0x25
 4358 0004 0E       		.uleb128 0xe
 4359 0005 13       		.uleb128 0x13
 4360 0006 0B       		.uleb128 0xb
 4361 0007 03       		.uleb128 0x3
 4362 0008 0E       		.uleb128 0xe
 4363 0009 1B       		.uleb128 0x1b
 4364 000a 0E       		.uleb128 0xe
 4365 000b 55       		.uleb128 0x55
 4366 000c 17       		.uleb128 0x17
 4367 000d 11       		.uleb128 0x11
 4368 000e 01       		.uleb128 0x1
 4369 000f 10       		.uleb128 0x10
 4370 0010 17       		.uleb128 0x17
 4371 0011 00       		.byte	0
 4372 0012 00       		.byte	0
 4373 0013 02       		.uleb128 0x2
 4374 0014 24       		.uleb128 0x24
 4375 0015 00       		.byte	0
 4376 0016 0B       		.uleb128 0xb
 4377 0017 0B       		.uleb128 0xb
 4378 0018 3E       		.uleb128 0x3e
 4379 0019 0B       		.uleb128 0xb
 4380 001a 03       		.uleb128 0x3
 4381 001b 0E       		.uleb128 0xe
 4382 001c 00       		.byte	0
 4383 001d 00       		.byte	0
 4384 001e 03       		.uleb128 0x3
 4385 001f 16       		.uleb128 0x16
 4386 0020 00       		.byte	0
 4387 0021 03       		.uleb128 0x3
 4388 0022 0E       		.uleb128 0xe
 4389 0023 3A       		.uleb128 0x3a
 4390 0024 0B       		.uleb128 0xb
ARM GAS  C:\Users\MARTHN~1\AppData\Local\Temp\ccYtCv5j.s 			page 96


 4391 0025 3B       		.uleb128 0x3b
 4392 0026 0B       		.uleb128 0xb
 4393 0027 49       		.uleb128 0x49
 4394 0028 13       		.uleb128 0x13
 4395 0029 00       		.byte	0
 4396 002a 00       		.byte	0
 4397 002b 04       		.uleb128 0x4
 4398 002c 24       		.uleb128 0x24
 4399 002d 00       		.byte	0
 4400 002e 0B       		.uleb128 0xb
 4401 002f 0B       		.uleb128 0xb
 4402 0030 3E       		.uleb128 0x3e
 4403 0031 0B       		.uleb128 0xb
 4404 0032 03       		.uleb128 0x3
 4405 0033 08       		.uleb128 0x8
 4406 0034 00       		.byte	0
 4407 0035 00       		.byte	0
 4408 0036 05       		.uleb128 0x5
 4409 0037 16       		.uleb128 0x16
 4410 0038 00       		.byte	0
 4411 0039 03       		.uleb128 0x3
 4412 003a 0E       		.uleb128 0xe
 4413 003b 3A       		.uleb128 0x3a
 4414 003c 0B       		.uleb128 0xb
 4415 003d 3B       		.uleb128 0x3b
 4416 003e 05       		.uleb128 0x5
 4417 003f 49       		.uleb128 0x49
 4418 0040 13       		.uleb128 0x13
 4419 0041 00       		.byte	0
 4420 0042 00       		.byte	0
 4421 0043 06       		.uleb128 0x6
 4422 0044 13       		.uleb128 0x13
 4423 0045 01       		.byte	0x1
 4424 0046 03       		.uleb128 0x3
 4425 0047 0E       		.uleb128 0xe
 4426 0048 0B       		.uleb128 0xb
 4427 0049 0B       		.uleb128 0xb
 4428 004a 3A       		.uleb128 0x3a
 4429 004b 0B       		.uleb128 0xb
 4430 004c 3B       		.uleb128 0x3b
 4431 004d 0B       		.uleb128 0xb
 4432 004e 01       		.uleb128 0x1
 4433 004f 13       		.uleb128 0x13
 4434 0050 00       		.byte	0
 4435 0051 00       		.byte	0
 4436 0052 07       		.uleb128 0x7
 4437 0053 0D       		.uleb128 0xd
 4438 0054 00       		.byte	0
 4439 0055 03       		.uleb128 0x3
 4440 0056 0E       		.uleb128 0xe
 4441 0057 3A       		.uleb128 0x3a
 4442 0058 0B       		.uleb128 0xb
 4443 0059 3B       		.uleb128 0x3b
 4444 005a 0B       		.uleb128 0xb
 4445 005b 49       		.uleb128 0x49
 4446 005c 13       		.uleb128 0x13
 4447 005d 38       		.uleb128 0x38
ARM GAS  C:\Users\MARTHN~1\AppData\Local\Temp\ccYtCv5j.s 			page 97


 4448 005e 0B       		.uleb128 0xb
 4449 005f 00       		.byte	0
 4450 0060 00       		.byte	0
 4451 0061 08       		.uleb128 0x8
 4452 0062 01       		.uleb128 0x1
 4453 0063 01       		.byte	0x1
 4454 0064 49       		.uleb128 0x49
 4455 0065 13       		.uleb128 0x13
 4456 0066 01       		.uleb128 0x1
 4457 0067 13       		.uleb128 0x13
 4458 0068 00       		.byte	0
 4459 0069 00       		.byte	0
 4460 006a 09       		.uleb128 0x9
 4461 006b 21       		.uleb128 0x21
 4462 006c 00       		.byte	0
 4463 006d 49       		.uleb128 0x49
 4464 006e 13       		.uleb128 0x13
 4465 006f 2F       		.uleb128 0x2f
 4466 0070 0B       		.uleb128 0xb
 4467 0071 00       		.byte	0
 4468 0072 00       		.byte	0
 4469 0073 0A       		.uleb128 0xa
 4470 0074 17       		.uleb128 0x17
 4471 0075 01       		.byte	0x1
 4472 0076 03       		.uleb128 0x3
 4473 0077 0E       		.uleb128 0xe
 4474 0078 0B       		.uleb128 0xb
 4475 0079 0B       		.uleb128 0xb
 4476 007a 3A       		.uleb128 0x3a
 4477 007b 0B       		.uleb128 0xb
 4478 007c 3B       		.uleb128 0x3b
 4479 007d 0B       		.uleb128 0xb
 4480 007e 01       		.uleb128 0x1
 4481 007f 13       		.uleb128 0x13
 4482 0080 00       		.byte	0
 4483 0081 00       		.byte	0
 4484 0082 0B       		.uleb128 0xb
 4485 0083 0D       		.uleb128 0xd
 4486 0084 00       		.byte	0
 4487 0085 03       		.uleb128 0x3
 4488 0086 0E       		.uleb128 0xe
 4489 0087 3A       		.uleb128 0x3a
 4490 0088 0B       		.uleb128 0xb
 4491 0089 3B       		.uleb128 0x3b
 4492 008a 0B       		.uleb128 0xb
 4493 008b 49       		.uleb128 0x49
 4494 008c 13       		.uleb128 0x13
 4495 008d 00       		.byte	0
 4496 008e 00       		.byte	0
 4497 008f 0C       		.uleb128 0xc
 4498 0090 0D       		.uleb128 0xd
 4499 0091 00       		.byte	0
 4500 0092 03       		.uleb128 0x3
 4501 0093 08       		.uleb128 0x8
 4502 0094 3A       		.uleb128 0x3a
 4503 0095 0B       		.uleb128 0xb
 4504 0096 3B       		.uleb128 0x3b
ARM GAS  C:\Users\MARTHN~1\AppData\Local\Temp\ccYtCv5j.s 			page 98


 4505 0097 0B       		.uleb128 0xb
 4506 0098 49       		.uleb128 0x49
 4507 0099 13       		.uleb128 0x13
 4508 009a 38       		.uleb128 0x38
 4509 009b 0B       		.uleb128 0xb
 4510 009c 00       		.byte	0
 4511 009d 00       		.byte	0
 4512 009e 0D       		.uleb128 0xd
 4513 009f 0D       		.uleb128 0xd
 4514 00a0 00       		.byte	0
 4515 00a1 03       		.uleb128 0x3
 4516 00a2 0E       		.uleb128 0xe
 4517 00a3 3A       		.uleb128 0x3a
 4518 00a4 0B       		.uleb128 0xb
 4519 00a5 3B       		.uleb128 0x3b
 4520 00a6 05       		.uleb128 0x5
 4521 00a7 49       		.uleb128 0x49
 4522 00a8 13       		.uleb128 0x13
 4523 00a9 38       		.uleb128 0x38
 4524 00aa 0B       		.uleb128 0xb
 4525 00ab 00       		.byte	0
 4526 00ac 00       		.byte	0
 4527 00ad 0E       		.uleb128 0xe
 4528 00ae 0D       		.uleb128 0xd
 4529 00af 00       		.byte	0
 4530 00b0 03       		.uleb128 0x3
 4531 00b1 0E       		.uleb128 0xe
 4532 00b2 3A       		.uleb128 0x3a
 4533 00b3 0B       		.uleb128 0xb
 4534 00b4 3B       		.uleb128 0x3b
 4535 00b5 05       		.uleb128 0x5
 4536 00b6 49       		.uleb128 0x49
 4537 00b7 13       		.uleb128 0x13
 4538 00b8 00       		.byte	0
 4539 00b9 00       		.byte	0
 4540 00ba 0F       		.uleb128 0xf
 4541 00bb 04       		.uleb128 0x4
 4542 00bc 01       		.byte	0x1
 4543 00bd 03       		.uleb128 0x3
 4544 00be 0E       		.uleb128 0xe
 4545 00bf 0B       		.uleb128 0xb
 4546 00c0 0B       		.uleb128 0xb
 4547 00c1 49       		.uleb128 0x49
 4548 00c2 13       		.uleb128 0x13
 4549 00c3 3A       		.uleb128 0x3a
 4550 00c4 0B       		.uleb128 0xb
 4551 00c5 3B       		.uleb128 0x3b
 4552 00c6 0B       		.uleb128 0xb
 4553 00c7 01       		.uleb128 0x1
 4554 00c8 13       		.uleb128 0x13
 4555 00c9 00       		.byte	0
 4556 00ca 00       		.byte	0
 4557 00cb 10       		.uleb128 0x10
 4558 00cc 28       		.uleb128 0x28
 4559 00cd 00       		.byte	0
 4560 00ce 03       		.uleb128 0x3
 4561 00cf 0E       		.uleb128 0xe
ARM GAS  C:\Users\MARTHN~1\AppData\Local\Temp\ccYtCv5j.s 			page 99


 4562 00d0 1C       		.uleb128 0x1c
 4563 00d1 0B       		.uleb128 0xb
 4564 00d2 00       		.byte	0
 4565 00d3 00       		.byte	0
 4566 00d4 11       		.uleb128 0x11
 4567 00d5 28       		.uleb128 0x28
 4568 00d6 00       		.byte	0
 4569 00d7 03       		.uleb128 0x3
 4570 00d8 08       		.uleb128 0x8
 4571 00d9 1C       		.uleb128 0x1c
 4572 00da 0B       		.uleb128 0xb
 4573 00db 00       		.byte	0
 4574 00dc 00       		.byte	0
 4575 00dd 12       		.uleb128 0x12
 4576 00de 2E       		.uleb128 0x2e
 4577 00df 01       		.byte	0x1
 4578 00e0 3F       		.uleb128 0x3f
 4579 00e1 19       		.uleb128 0x19
 4580 00e2 03       		.uleb128 0x3
 4581 00e3 0E       		.uleb128 0xe
 4582 00e4 3A       		.uleb128 0x3a
 4583 00e5 0B       		.uleb128 0xb
 4584 00e6 3B       		.uleb128 0x3b
 4585 00e7 0B       		.uleb128 0xb
 4586 00e8 27       		.uleb128 0x27
 4587 00e9 19       		.uleb128 0x19
 4588 00ea 49       		.uleb128 0x49
 4589 00eb 13       		.uleb128 0x13
 4590 00ec 11       		.uleb128 0x11
 4591 00ed 01       		.uleb128 0x1
 4592 00ee 12       		.uleb128 0x12
 4593 00ef 06       		.uleb128 0x6
 4594 00f0 40       		.uleb128 0x40
 4595 00f1 18       		.uleb128 0x18
 4596 00f2 9642     		.uleb128 0x2116
 4597 00f4 19       		.uleb128 0x19
 4598 00f5 01       		.uleb128 0x1
 4599 00f6 13       		.uleb128 0x13
 4600 00f7 00       		.byte	0
 4601 00f8 00       		.byte	0
 4602 00f9 13       		.uleb128 0x13
 4603 00fa 0B       		.uleb128 0xb
 4604 00fb 01       		.byte	0x1
 4605 00fc 11       		.uleb128 0x11
 4606 00fd 01       		.uleb128 0x1
 4607 00fe 12       		.uleb128 0x12
 4608 00ff 06       		.uleb128 0x6
 4609 0100 01       		.uleb128 0x1
 4610 0101 13       		.uleb128 0x13
 4611 0102 00       		.byte	0
 4612 0103 00       		.byte	0
 4613 0104 14       		.uleb128 0x14
 4614 0105 34       		.uleb128 0x34
 4615 0106 00       		.byte	0
 4616 0107 03       		.uleb128 0x3
 4617 0108 08       		.uleb128 0x8
 4618 0109 3A       		.uleb128 0x3a
ARM GAS  C:\Users\MARTHN~1\AppData\Local\Temp\ccYtCv5j.s 			page 100


 4619 010a 0B       		.uleb128 0xb
 4620 010b 3B       		.uleb128 0x3b
 4621 010c 0B       		.uleb128 0xb
 4622 010d 49       		.uleb128 0x49
 4623 010e 13       		.uleb128 0x13
 4624 010f 02       		.uleb128 0x2
 4625 0110 18       		.uleb128 0x18
 4626 0111 00       		.byte	0
 4627 0112 00       		.byte	0
 4628 0113 15       		.uleb128 0x15
 4629 0114 0B       		.uleb128 0xb
 4630 0115 01       		.byte	0x1
 4631 0116 11       		.uleb128 0x11
 4632 0117 01       		.uleb128 0x1
 4633 0118 12       		.uleb128 0x12
 4634 0119 06       		.uleb128 0x6
 4635 011a 00       		.byte	0
 4636 011b 00       		.byte	0
 4637 011c 16       		.uleb128 0x16
 4638 011d 2E       		.uleb128 0x2e
 4639 011e 01       		.byte	0x1
 4640 011f 3F       		.uleb128 0x3f
 4641 0120 19       		.uleb128 0x19
 4642 0121 03       		.uleb128 0x3
 4643 0122 0E       		.uleb128 0xe
 4644 0123 3A       		.uleb128 0x3a
 4645 0124 0B       		.uleb128 0xb
 4646 0125 3B       		.uleb128 0x3b
 4647 0126 05       		.uleb128 0x5
 4648 0127 27       		.uleb128 0x27
 4649 0128 19       		.uleb128 0x19
 4650 0129 49       		.uleb128 0x49
 4651 012a 13       		.uleb128 0x13
 4652 012b 11       		.uleb128 0x11
 4653 012c 01       		.uleb128 0x1
 4654 012d 12       		.uleb128 0x12
 4655 012e 06       		.uleb128 0x6
 4656 012f 40       		.uleb128 0x40
 4657 0130 18       		.uleb128 0x18
 4658 0131 9642     		.uleb128 0x2116
 4659 0133 19       		.uleb128 0x19
 4660 0134 01       		.uleb128 0x1
 4661 0135 13       		.uleb128 0x13
 4662 0136 00       		.byte	0
 4663 0137 00       		.byte	0
 4664 0138 17       		.uleb128 0x17
 4665 0139 34       		.uleb128 0x34
 4666 013a 00       		.byte	0
 4667 013b 03       		.uleb128 0x3
 4668 013c 0E       		.uleb128 0xe
 4669 013d 3A       		.uleb128 0x3a
 4670 013e 0B       		.uleb128 0xb
 4671 013f 3B       		.uleb128 0x3b
 4672 0140 05       		.uleb128 0x5
 4673 0141 49       		.uleb128 0x49
 4674 0142 13       		.uleb128 0x13
 4675 0143 02       		.uleb128 0x2
ARM GAS  C:\Users\MARTHN~1\AppData\Local\Temp\ccYtCv5j.s 			page 101


 4676 0144 18       		.uleb128 0x18
 4677 0145 00       		.byte	0
 4678 0146 00       		.byte	0
 4679 0147 18       		.uleb128 0x18
 4680 0148 2E       		.uleb128 0x2e
 4681 0149 00       		.byte	0
 4682 014a 3F       		.uleb128 0x3f
 4683 014b 19       		.uleb128 0x19
 4684 014c 03       		.uleb128 0x3
 4685 014d 0E       		.uleb128 0xe
 4686 014e 3A       		.uleb128 0x3a
 4687 014f 0B       		.uleb128 0xb
 4688 0150 3B       		.uleb128 0x3b
 4689 0151 05       		.uleb128 0x5
 4690 0152 27       		.uleb128 0x27
 4691 0153 19       		.uleb128 0x19
 4692 0154 49       		.uleb128 0x49
 4693 0155 13       		.uleb128 0x13
 4694 0156 11       		.uleb128 0x11
 4695 0157 01       		.uleb128 0x1
 4696 0158 12       		.uleb128 0x12
 4697 0159 06       		.uleb128 0x6
 4698 015a 40       		.uleb128 0x40
 4699 015b 18       		.uleb128 0x18
 4700 015c 9742     		.uleb128 0x2117
 4701 015e 19       		.uleb128 0x19
 4702 015f 00       		.byte	0
 4703 0160 00       		.byte	0
 4704 0161 19       		.uleb128 0x19
 4705 0162 2E       		.uleb128 0x2e
 4706 0163 00       		.byte	0
 4707 0164 3F       		.uleb128 0x3f
 4708 0165 19       		.uleb128 0x19
 4709 0166 03       		.uleb128 0x3
 4710 0167 0E       		.uleb128 0xe
 4711 0168 3A       		.uleb128 0x3a
 4712 0169 0B       		.uleb128 0xb
 4713 016a 3B       		.uleb128 0x3b
 4714 016b 05       		.uleb128 0x5
 4715 016c 27       		.uleb128 0x27
 4716 016d 19       		.uleb128 0x19
 4717 016e 49       		.uleb128 0x49
 4718 016f 13       		.uleb128 0x13
 4719 0170 11       		.uleb128 0x11
 4720 0171 01       		.uleb128 0x1
 4721 0172 12       		.uleb128 0x12
 4722 0173 06       		.uleb128 0x6
 4723 0174 40       		.uleb128 0x40
 4724 0175 18       		.uleb128 0x18
 4725 0176 9642     		.uleb128 0x2116
 4726 0178 19       		.uleb128 0x19
 4727 0179 00       		.byte	0
 4728 017a 00       		.byte	0
 4729 017b 1A       		.uleb128 0x1a
 4730 017c 34       		.uleb128 0x34
 4731 017d 00       		.byte	0
 4732 017e 03       		.uleb128 0x3
ARM GAS  C:\Users\MARTHN~1\AppData\Local\Temp\ccYtCv5j.s 			page 102


 4733 017f 08       		.uleb128 0x8
 4734 0180 3A       		.uleb128 0x3a
 4735 0181 0B       		.uleb128 0xb
 4736 0182 3B       		.uleb128 0x3b
 4737 0183 05       		.uleb128 0x5
 4738 0184 49       		.uleb128 0x49
 4739 0185 13       		.uleb128 0x13
 4740 0186 02       		.uleb128 0x2
 4741 0187 18       		.uleb128 0x18
 4742 0188 00       		.byte	0
 4743 0189 00       		.byte	0
 4744 018a 1B       		.uleb128 0x1b
 4745 018b 2E       		.uleb128 0x2e
 4746 018c 01       		.byte	0x1
 4747 018d 3F       		.uleb128 0x3f
 4748 018e 19       		.uleb128 0x19
 4749 018f 03       		.uleb128 0x3
 4750 0190 0E       		.uleb128 0xe
 4751 0191 3A       		.uleb128 0x3a
 4752 0192 0B       		.uleb128 0xb
 4753 0193 3B       		.uleb128 0x3b
 4754 0194 05       		.uleb128 0x5
 4755 0195 27       		.uleb128 0x27
 4756 0196 19       		.uleb128 0x19
 4757 0197 49       		.uleb128 0x49
 4758 0198 13       		.uleb128 0x13
 4759 0199 11       		.uleb128 0x11
 4760 019a 01       		.uleb128 0x1
 4761 019b 12       		.uleb128 0x12
 4762 019c 06       		.uleb128 0x6
 4763 019d 40       		.uleb128 0x40
 4764 019e 18       		.uleb128 0x18
 4765 019f 9742     		.uleb128 0x2117
 4766 01a1 19       		.uleb128 0x19
 4767 01a2 01       		.uleb128 0x1
 4768 01a3 13       		.uleb128 0x13
 4769 01a4 00       		.byte	0
 4770 01a5 00       		.byte	0
 4771 01a6 1C       		.uleb128 0x1c
 4772 01a7 0F       		.uleb128 0xf
 4773 01a8 00       		.byte	0
 4774 01a9 0B       		.uleb128 0xb
 4775 01aa 0B       		.uleb128 0xb
 4776 01ab 49       		.uleb128 0x49
 4777 01ac 13       		.uleb128 0x13
 4778 01ad 00       		.byte	0
 4779 01ae 00       		.byte	0
 4780 01af 1D       		.uleb128 0x1d
 4781 01b0 2E       		.uleb128 0x2e
 4782 01b1 01       		.byte	0x1
 4783 01b2 3F       		.uleb128 0x3f
 4784 01b3 19       		.uleb128 0x19
 4785 01b4 03       		.uleb128 0x3
 4786 01b5 0E       		.uleb128 0xe
 4787 01b6 3A       		.uleb128 0x3a
 4788 01b7 0B       		.uleb128 0xb
 4789 01b8 3B       		.uleb128 0x3b
ARM GAS  C:\Users\MARTHN~1\AppData\Local\Temp\ccYtCv5j.s 			page 103


 4790 01b9 05       		.uleb128 0x5
 4791 01ba 27       		.uleb128 0x27
 4792 01bb 19       		.uleb128 0x19
 4793 01bc 11       		.uleb128 0x11
 4794 01bd 01       		.uleb128 0x1
 4795 01be 12       		.uleb128 0x12
 4796 01bf 06       		.uleb128 0x6
 4797 01c0 40       		.uleb128 0x40
 4798 01c1 18       		.uleb128 0x18
 4799 01c2 9642     		.uleb128 0x2116
 4800 01c4 19       		.uleb128 0x19
 4801 01c5 01       		.uleb128 0x1
 4802 01c6 13       		.uleb128 0x13
 4803 01c7 00       		.byte	0
 4804 01c8 00       		.byte	0
 4805 01c9 1E       		.uleb128 0x1e
 4806 01ca 05       		.uleb128 0x5
 4807 01cb 00       		.byte	0
 4808 01cc 03       		.uleb128 0x3
 4809 01cd 0E       		.uleb128 0xe
 4810 01ce 3A       		.uleb128 0x3a
 4811 01cf 0B       		.uleb128 0xb
 4812 01d0 3B       		.uleb128 0x3b
 4813 01d1 05       		.uleb128 0x5
 4814 01d2 49       		.uleb128 0x49
 4815 01d3 13       		.uleb128 0x13
 4816 01d4 02       		.uleb128 0x2
 4817 01d5 18       		.uleb128 0x18
 4818 01d6 00       		.byte	0
 4819 01d7 00       		.byte	0
 4820 01d8 1F       		.uleb128 0x1f
 4821 01d9 2E       		.uleb128 0x2e
 4822 01da 00       		.byte	0
 4823 01db 3F       		.uleb128 0x3f
 4824 01dc 19       		.uleb128 0x19
 4825 01dd 03       		.uleb128 0x3
 4826 01de 0E       		.uleb128 0xe
 4827 01df 3A       		.uleb128 0x3a
 4828 01e0 0B       		.uleb128 0xb
 4829 01e1 3B       		.uleb128 0x3b
 4830 01e2 05       		.uleb128 0x5
 4831 01e3 27       		.uleb128 0x27
 4832 01e4 19       		.uleb128 0x19
 4833 01e5 11       		.uleb128 0x11
 4834 01e6 01       		.uleb128 0x1
 4835 01e7 12       		.uleb128 0x12
 4836 01e8 06       		.uleb128 0x6
 4837 01e9 40       		.uleb128 0x40
 4838 01ea 18       		.uleb128 0x18
 4839 01eb 9742     		.uleb128 0x2117
 4840 01ed 19       		.uleb128 0x19
 4841 01ee 00       		.byte	0
 4842 01ef 00       		.byte	0
 4843 01f0 20       		.uleb128 0x20
 4844 01f1 2E       		.uleb128 0x2e
 4845 01f2 00       		.byte	0
 4846 01f3 3F       		.uleb128 0x3f
ARM GAS  C:\Users\MARTHN~1\AppData\Local\Temp\ccYtCv5j.s 			page 104


 4847 01f4 19       		.uleb128 0x19
 4848 01f5 03       		.uleb128 0x3
 4849 01f6 0E       		.uleb128 0xe
 4850 01f7 3A       		.uleb128 0x3a
 4851 01f8 0B       		.uleb128 0xb
 4852 01f9 3B       		.uleb128 0x3b
 4853 01fa 05       		.uleb128 0x5
 4854 01fb 27       		.uleb128 0x27
 4855 01fc 19       		.uleb128 0x19
 4856 01fd 11       		.uleb128 0x11
 4857 01fe 01       		.uleb128 0x1
 4858 01ff 12       		.uleb128 0x12
 4859 0200 06       		.uleb128 0x6
 4860 0201 40       		.uleb128 0x40
 4861 0202 18       		.uleb128 0x18
 4862 0203 9642     		.uleb128 0x2116
 4863 0205 19       		.uleb128 0x19
 4864 0206 00       		.byte	0
 4865 0207 00       		.byte	0
 4866 0208 21       		.uleb128 0x21
 4867 0209 2E       		.uleb128 0x2e
 4868 020a 01       		.byte	0x1
 4869 020b 3F       		.uleb128 0x3f
 4870 020c 19       		.uleb128 0x19
 4871 020d 03       		.uleb128 0x3
 4872 020e 0E       		.uleb128 0xe
 4873 020f 3A       		.uleb128 0x3a
 4874 0210 0B       		.uleb128 0xb
 4875 0211 3B       		.uleb128 0x3b
 4876 0212 05       		.uleb128 0x5
 4877 0213 27       		.uleb128 0x27
 4878 0214 19       		.uleb128 0x19
 4879 0215 11       		.uleb128 0x11
 4880 0216 01       		.uleb128 0x1
 4881 0217 12       		.uleb128 0x12
 4882 0218 06       		.uleb128 0x6
 4883 0219 40       		.uleb128 0x40
 4884 021a 18       		.uleb128 0x18
 4885 021b 9742     		.uleb128 0x2117
 4886 021d 19       		.uleb128 0x19
 4887 021e 01       		.uleb128 0x1
 4888 021f 13       		.uleb128 0x13
 4889 0220 00       		.byte	0
 4890 0221 00       		.byte	0
 4891 0222 22       		.uleb128 0x22
 4892 0223 34       		.uleb128 0x34
 4893 0224 00       		.byte	0
 4894 0225 03       		.uleb128 0x3
 4895 0226 0E       		.uleb128 0xe
 4896 0227 3A       		.uleb128 0x3a
 4897 0228 0B       		.uleb128 0xb
 4898 0229 3B       		.uleb128 0x3b
 4899 022a 0B       		.uleb128 0xb
 4900 022b 49       		.uleb128 0x49
 4901 022c 13       		.uleb128 0x13
 4902 022d 02       		.uleb128 0x2
 4903 022e 18       		.uleb128 0x18
ARM GAS  C:\Users\MARTHN~1\AppData\Local\Temp\ccYtCv5j.s 			page 105


 4904 022f 00       		.byte	0
 4905 0230 00       		.byte	0
 4906 0231 23       		.uleb128 0x23
 4907 0232 34       		.uleb128 0x34
 4908 0233 00       		.byte	0
 4909 0234 03       		.uleb128 0x3
 4910 0235 0E       		.uleb128 0xe
 4911 0236 3A       		.uleb128 0x3a
 4912 0237 0B       		.uleb128 0xb
 4913 0238 3B       		.uleb128 0x3b
 4914 0239 05       		.uleb128 0x5
 4915 023a 49       		.uleb128 0x49
 4916 023b 13       		.uleb128 0x13
 4917 023c 3F       		.uleb128 0x3f
 4918 023d 19       		.uleb128 0x19
 4919 023e 3C       		.uleb128 0x3c
 4920 023f 19       		.uleb128 0x19
 4921 0240 00       		.byte	0
 4922 0241 00       		.byte	0
 4923 0242 24       		.uleb128 0x24
 4924 0243 35       		.uleb128 0x35
 4925 0244 00       		.byte	0
 4926 0245 49       		.uleb128 0x49
 4927 0246 13       		.uleb128 0x13
 4928 0247 00       		.byte	0
 4929 0248 00       		.byte	0
 4930 0249 25       		.uleb128 0x25
 4931 024a 34       		.uleb128 0x34
 4932 024b 00       		.byte	0
 4933 024c 03       		.uleb128 0x3
 4934 024d 0E       		.uleb128 0xe
 4935 024e 3A       		.uleb128 0x3a
 4936 024f 0B       		.uleb128 0xb
 4937 0250 3B       		.uleb128 0x3b
 4938 0251 0B       		.uleb128 0xb
 4939 0252 49       		.uleb128 0x49
 4940 0253 13       		.uleb128 0x13
 4941 0254 3F       		.uleb128 0x3f
 4942 0255 19       		.uleb128 0x19
 4943 0256 02       		.uleb128 0x2
 4944 0257 18       		.uleb128 0x18
 4945 0258 00       		.byte	0
 4946 0259 00       		.byte	0
 4947 025a 26       		.uleb128 0x26
 4948 025b 34       		.uleb128 0x34
 4949 025c 00       		.byte	0
 4950 025d 03       		.uleb128 0x3
 4951 025e 0E       		.uleb128 0xe
 4952 025f 3A       		.uleb128 0x3a
 4953 0260 0B       		.uleb128 0xb
 4954 0261 3B       		.uleb128 0x3b
 4955 0262 0B       		.uleb128 0xb
 4956 0263 49       		.uleb128 0x49
 4957 0264 13       		.uleb128 0x13
 4958 0265 3F       		.uleb128 0x3f
 4959 0266 19       		.uleb128 0x19
 4960 0267 3C       		.uleb128 0x3c
ARM GAS  C:\Users\MARTHN~1\AppData\Local\Temp\ccYtCv5j.s 			page 106


 4961 0268 19       		.uleb128 0x19
 4962 0269 00       		.byte	0
 4963 026a 00       		.byte	0
 4964 026b 00       		.byte	0
 4965              		.section	.debug_aranges,"",%progbits
 4966 0000 BC000000 		.4byte	0xbc
 4967 0004 0200     		.2byte	0x2
 4968 0006 00000000 		.4byte	.Ldebug_info0
 4969 000a 04       		.byte	0x4
 4970 000b 00       		.byte	0
 4971 000c 0000     		.2byte	0
 4972 000e 0000     		.2byte	0
 4973 0010 00000000 		.4byte	.LFB63
 4974 0014 D0040000 		.4byte	.LFE63-.LFB63
 4975 0018 00000000 		.4byte	.LFB64
 4976 001c 94000000 		.4byte	.LFE64-.LFB64
 4977 0020 00000000 		.4byte	.LFB65
 4978 0024 0E000000 		.4byte	.LFE65-.LFB65
 4979 0028 00000000 		.4byte	.LFB66
 4980 002c 48000000 		.4byte	.LFE66-.LFB66
 4981 0030 00000000 		.4byte	.LFB67
 4982 0034 48000000 		.4byte	.LFE67-.LFB67
 4983 0038 00000000 		.4byte	.LFB68
 4984 003c 3C000000 		.4byte	.LFE68-.LFB68
 4985 0040 00000000 		.4byte	.LFB69
 4986 0044 70000000 		.4byte	.LFE69-.LFB69
 4987 0048 00000000 		.4byte	.LFB70
 4988 004c 0E000000 		.4byte	.LFE70-.LFB70
 4989 0050 00000000 		.4byte	.LFB71
 4990 0054 20000000 		.4byte	.LFE71-.LFB71
 4991 0058 00000000 		.4byte	.LFB72
 4992 005c 20000000 		.4byte	.LFE72-.LFB72
 4993 0060 00000000 		.4byte	.LFB73
 4994 0064 20000000 		.4byte	.LFE73-.LFB73
 4995 0068 00000000 		.4byte	.LFB74
 4996 006c 20000000 		.4byte	.LFE74-.LFB74
 4997 0070 00000000 		.4byte	.LFB75
 4998 0074 20000000 		.4byte	.LFE75-.LFB75
 4999 0078 00000000 		.4byte	.LFB76
 5000 007c 5C000000 		.4byte	.LFE76-.LFB76
 5001 0080 00000000 		.4byte	.LFB77
 5002 0084 7C000000 		.4byte	.LFE77-.LFB77
 5003 0088 00000000 		.4byte	.LFB78
 5004 008c 0C000000 		.4byte	.LFE78-.LFB78
 5005 0090 00000000 		.4byte	.LFB79
 5006 0094 A8000000 		.4byte	.LFE79-.LFB79
 5007 0098 00000000 		.4byte	.LFB80
 5008 009c 48000000 		.4byte	.LFE80-.LFB80
 5009 00a0 00000000 		.4byte	.LFB81
 5010 00a4 70000000 		.4byte	.LFE81-.LFB81
 5011 00a8 00000000 		.4byte	.LFB82
 5012 00ac 34000000 		.4byte	.LFE82-.LFB82
 5013 00b0 00000000 		.4byte	.LFB83
 5014 00b4 3C000000 		.4byte	.LFE83-.LFB83
 5015 00b8 00000000 		.4byte	0
 5016 00bc 00000000 		.4byte	0
 5017              		.section	.debug_ranges,"",%progbits
ARM GAS  C:\Users\MARTHN~1\AppData\Local\Temp\ccYtCv5j.s 			page 107


 5018              	.Ldebug_ranges0:
 5019 0000 00000000 		.4byte	.LFB63
 5020 0004 D0040000 		.4byte	.LFE63
 5021 0008 00000000 		.4byte	.LFB64
 5022 000c 94000000 		.4byte	.LFE64
 5023 0010 00000000 		.4byte	.LFB65
 5024 0014 0E000000 		.4byte	.LFE65
 5025 0018 00000000 		.4byte	.LFB66
 5026 001c 48000000 		.4byte	.LFE66
 5027 0020 00000000 		.4byte	.LFB67
 5028 0024 48000000 		.4byte	.LFE67
 5029 0028 00000000 		.4byte	.LFB68
 5030 002c 3C000000 		.4byte	.LFE68
 5031 0030 00000000 		.4byte	.LFB69
 5032 0034 70000000 		.4byte	.LFE69
 5033 0038 00000000 		.4byte	.LFB70
 5034 003c 0E000000 		.4byte	.LFE70
 5035 0040 00000000 		.4byte	.LFB71
 5036 0044 20000000 		.4byte	.LFE71
 5037 0048 00000000 		.4byte	.LFB72
 5038 004c 20000000 		.4byte	.LFE72
 5039 0050 00000000 		.4byte	.LFB73
 5040 0054 20000000 		.4byte	.LFE73
 5041 0058 00000000 		.4byte	.LFB74
 5042 005c 20000000 		.4byte	.LFE74
 5043 0060 00000000 		.4byte	.LFB75
 5044 0064 20000000 		.4byte	.LFE75
 5045 0068 00000000 		.4byte	.LFB76
 5046 006c 5C000000 		.4byte	.LFE76
 5047 0070 00000000 		.4byte	.LFB77
 5048 0074 7C000000 		.4byte	.LFE77
 5049 0078 00000000 		.4byte	.LFB78
 5050 007c 0C000000 		.4byte	.LFE78
 5051 0080 00000000 		.4byte	.LFB79
 5052 0084 A8000000 		.4byte	.LFE79
 5053 0088 00000000 		.4byte	.LFB80
 5054 008c 48000000 		.4byte	.LFE80
 5055 0090 00000000 		.4byte	.LFB81
 5056 0094 70000000 		.4byte	.LFE81
 5057 0098 00000000 		.4byte	.LFB82
 5058 009c 34000000 		.4byte	.LFE82
 5059 00a0 00000000 		.4byte	.LFB83
 5060 00a4 3C000000 		.4byte	.LFE83
 5061 00a8 00000000 		.4byte	0
 5062 00ac 00000000 		.4byte	0
 5063              		.section	.debug_line,"",%progbits
 5064              	.Ldebug_line0:
 5065 0000 19050000 		.section	.debug_str,"MS",%progbits,1
 5065      02009C01 
 5065      00000201 
 5065      FB0E0D00 
 5065      01010101 
 5066              	.LASF93:
 5067 0000 42757A7A 		.ascii	"Buzzer_L\000"
 5067      65725F4C 
 5067      00
 5068              	.LASF314:
ARM GAS  C:\Users\MARTHN~1\AppData\Local\Temp\ccYtCv5j.s 			page 108


 5069 0009 70527850 		.ascii	"pRxPacket_Relay\000"
 5069      61636B65 
 5069      745F5265 
 5069      6C617900 
 5070              	.LASF125:
 5071 0019 44617461 		.ascii	"Data_H\000"
 5071      5F4800
 5072              	.LASF18:
 5073 0020 73697A65 		.ascii	"sizetype\000"
 5073      74797065 
 5073      00
 5074              	.LASF320:
 5075 0029 70527850 		.ascii	"pRxPacket_H\000"
 5075      61636B65 
 5075      745F4800 
 5076              	.LASF290:
 5077 0035 56626174 		.ascii	"Vbatt_Reading\000"
 5077      745F5265 
 5077      6164696E 
 5077      6700
 5078              	.LASF118:
 5079 0043 506F7765 		.ascii	"PowerState\000"
 5079      72537461 
 5079      746500
 5080              	.LASF10:
 5081 004e 696E7433 		.ascii	"int32_t\000"
 5081      325F7400 
 5082              	.LASF245:
 5083 0056 4D55585F 		.ascii	"MUX_460800_CHANNEL\000"
 5083      34363038 
 5083      30305F43 
 5083      48414E4E 
 5083      454C00
 5084              	.LASF267:
 5085 0069 54455354 		.ascii	"TEST_OUTPUTS\000"
 5085      5F4F5554 
 5085      50555453 
 5085      00
 5086              	.LASF230:
 5087 0076 4172726F 		.ascii	"Arrow_Module1\000"
 5087      775F4D6F 
 5087      64756C65 
 5087      3100
 5088              	.LASF231:
 5089 0084 4172726F 		.ascii	"Arrow_Module2\000"
 5089      775F4D6F 
 5089      64756C65 
 5089      3200
 5090              	.LASF232:
 5091 0092 4172726F 		.ascii	"Arrow_Module3\000"
 5091      775F4D6F 
 5091      64756C65 
 5091      3300
 5092              	.LASF233:
 5093 00a0 4172726F 		.ascii	"Arrow_Module4\000"
 5093      775F4D6F 
 5093      64756C65 
ARM GAS  C:\Users\MARTHN~1\AppData\Local\Temp\ccYtCv5j.s 			page 109


 5093      3400
 5094              	.LASF234:
 5095 00ae 4172726F 		.ascii	"Arrow_Module5\000"
 5095      775F4D6F 
 5095      64756C65 
 5095      3500
 5096              	.LASF235:
 5097 00bc 4172726F 		.ascii	"Arrow_Module6\000"
 5097      775F4D6F 
 5097      64756C65 
 5097      3600
 5098              	.LASF236:
 5099 00ca 4172726F 		.ascii	"Arrow_Module7\000"
 5099      775F4D6F 
 5099      64756C65 
 5099      3700
 5100              	.LASF237:
 5101 00d8 4172726F 		.ascii	"Arrow_Module8\000"
 5101      775F4D6F 
 5101      64756C65 
 5101      3800
 5102              	.LASF238:
 5103 00e6 4172726F 		.ascii	"Arrow_Module9\000"
 5103      775F4D6F 
 5103      64756C65 
 5103      3900
 5104              	.LASF13:
 5105 00f4 75696E74 		.ascii	"uint32\000"
 5105      333200
 5106              	.LASF312:
 5107 00fb 52546573 		.ascii	"RTest_StopAutomatedStep\000"
 5107      745F5374 
 5107      6F704175 
 5107      746F6D61 
 5107      74656453 
 5108              	.LASF301:
 5109 0113 52656C61 		.ascii	"RelayTestStatus_display\000"
 5109      79546573 
 5109      74537461 
 5109      7475735F 
 5109      64697370 
 5110              	.LASF239:
 5111 012b 4172726F 		.ascii	"Arrow_Module10\000"
 5111      775F4D6F 
 5111      64756C65 
 5111      313000
 5112              	.LASF59:
 5113 013a 4C45445F 		.ascii	"LED_11_R\000"
 5113      31315F52 
 5113      00
 5114              	.LASF280:
 5115 0143 424C4F43 		.ascii	"BLOCK_CURRENTS\000"
 5115      4B5F4355 
 5115      5252454E 
 5115      545300
 5116              	.LASF87:
 5117 0152 4C45445F 		.ascii	"LED_02_G\000"
ARM GAS  C:\Users\MARTHN~1\AppData\Local\Temp\ccYtCv5j.s 			page 110


 5117      30325F47 
 5117      00
 5118              	.LASF116:
 5119 015b 4F757470 		.ascii	"Outputs_25to32\000"
 5119      7574735F 
 5119      3235746F 
 5119      333200
 5120              	.LASF73:
 5121 016a 4C45445F 		.ascii	"LED_07_B\000"
 5121      30375F42 
 5121      00
 5122              	.LASF72:
 5123 0173 4C45445F 		.ascii	"LED_07_G\000"
 5123      30375F47 
 5123      00
 5124              	.LASF263:
 5125 017c 52544553 		.ascii	"RTEST_SIREN\000"
 5125      545F5349 
 5125      52454E00 
 5126              	.LASF71:
 5127 0188 4C45445F 		.ascii	"LED_07_R\000"
 5127      30375F52 
 5127      00
 5128              	.LASF130:
 5129 0191 464C425F 		.ascii	"FLB_Module1\000"
 5129      4D6F6475 
 5129      6C653100 
 5130              	.LASF131:
 5131 019d 464C425F 		.ascii	"FLB_Module2\000"
 5131      4D6F6475 
 5131      6C653200 
 5132              	.LASF132:
 5133 01a9 464C425F 		.ascii	"FLB_Module3\000"
 5133      4D6F6475 
 5133      6C653300 
 5134              	.LASF95:
 5135 01b5 636F6E74 		.ascii	"controllerSpeakerEnable\000"
 5135      726F6C6C 
 5135      65725370 
 5135      65616B65 
 5135      72456E61 
 5136              	.LASF134:
 5137 01cd 464C425F 		.ascii	"FLB_Module5\000"
 5137      4D6F6475 
 5137      6C653500 
 5138              	.LASF135:
 5139 01d9 464C425F 		.ascii	"FLB_Module6\000"
 5139      4D6F6475 
 5139      6C653600 
 5140              	.LASF136:
 5141 01e5 464C425F 		.ascii	"FLB_Module7\000"
 5141      4D6F6475 
 5141      6C653700 
 5142              	.LASF137:
 5143 01f1 464C425F 		.ascii	"FLB_Module8\000"
 5143      4D6F6475 
 5143      6C653800 
ARM GAS  C:\Users\MARTHN~1\AppData\Local\Temp\ccYtCv5j.s 			page 111


 5144              	.LASF138:
 5145 01fd 464C425F 		.ascii	"FLB_Module9\000"
 5145      4D6F6475 
 5145      6C653900 
 5146              	.LASF109:
 5147 0209 53746F70 		.ascii	"StopByte1_Siren\000"
 5147      42797465 
 5147      315F5369 
 5147      72656E00 
 5148              	.LASF190:
 5149 0219 4C533830 		.ascii	"LS800_Module1\000"
 5149      305F4D6F 
 5149      64756C65 
 5149      3100
 5150              	.LASF191:
 5151 0227 4C533830 		.ascii	"LS800_Module2\000"
 5151      305F4D6F 
 5151      64756C65 
 5151      3200
 5152              	.LASF192:
 5153 0235 4C533830 		.ascii	"LS800_Module3\000"
 5153      305F4D6F 
 5153      64756C65 
 5153      3300
 5154              	.LASF193:
 5155 0243 4C533830 		.ascii	"LS800_Module4\000"
 5155      305F4D6F 
 5155      64756C65 
 5155      3400
 5156              	.LASF194:
 5157 0251 4C533830 		.ascii	"LS800_Module5\000"
 5157      305F4D6F 
 5157      64756C65 
 5157      3500
 5158              	.LASF195:
 5159 025f 4C533830 		.ascii	"LS800_Module6\000"
 5159      305F4D6F 
 5159      64756C65 
 5159      3600
 5160              	.LASF196:
 5161 026d 4C533830 		.ascii	"LS800_Module7\000"
 5161      305F4D6F 
 5161      64756C65 
 5161      3700
 5162              	.LASF197:
 5163 027b 4C533830 		.ascii	"LS800_Module8\000"
 5163      305F4D6F 
 5163      64756C65 
 5163      3800
 5164              	.LASF198:
 5165 0289 4C533830 		.ascii	"LS800_Module9\000"
 5165      305F4D6F 
 5165      64756C65 
 5165      3900
 5166              	.LASF111:
 5167 0297 53746172 		.ascii	"StartByte1_Relay\000"
 5167      74427974 
ARM GAS  C:\Users\MARTHN~1\AppData\Local\Temp\ccYtCv5j.s 			page 112


 5167      65315F52 
 5167      656C6179 
 5167      00
 5168              	.LASF25:
 5169 02a8 426C6F63 		.ascii	"BlockCurrent_1\000"
 5169      6B437572 
 5169      72656E74 
 5169      5F3100
 5170              	.LASF26:
 5171 02b7 426C6F63 		.ascii	"BlockCurrent_2\000"
 5171      6B437572 
 5171      72656E74 
 5171      5F3200
 5172              	.LASF27:
 5173 02c6 426C6F63 		.ascii	"BlockCurrent_3\000"
 5173      6B437572 
 5173      72656E74 
 5173      5F3300
 5174              	.LASF28:
 5175 02d5 426C6F63 		.ascii	"BlockCurrent_4\000"
 5175      6B437572 
 5175      72656E74 
 5175      5F3400
 5176              	.LASF243:
 5177 02e4 43544553 		.ascii	"CTEST_RTEST_QUAD\000"
 5177      545F5254 
 5177      4553545F 
 5177      51554144 
 5177      00
 5178              	.LASF94:
 5179 02f5 53637265 		.ascii	"ScreenBrightness\000"
 5179      656E4272 
 5179      69676874 
 5179      6E657373 
 5179      00
 5180              	.LASF322:
 5181 0306 70547850 		.ascii	"pTxPacket_Quad\000"
 5181      61636B65 
 5181      745F5175 
 5181      616400
 5182              	.LASF108:
 5183 0315 4475616C 		.ascii	"DualDelay\000"
 5183      44656C61 
 5183      7900
 5184              	.LASF257:
 5185 031f 43544553 		.ascii	"CTEST_OBDII_TX\000"
 5185      545F4F42 
 5185      4449495F 
 5185      545800
 5186              	.LASF265:
 5187 032e 494E4954 		.ascii	"INITIALIZE_TEST\000"
 5187      49414C49 
 5187      5A455F54 
 5187      45535400 
 5188              	.LASF80:
 5189 033e 4C45445F 		.ascii	"LED_04_R\000"
 5189      30345F52 
ARM GAS  C:\Users\MARTHN~1\AppData\Local\Temp\ccYtCv5j.s 			page 113


 5189      00
 5190              	.LASF181:
 5191 0347 4C533630 		.ascii	"LS600_Module2\000"
 5191      305F4D6F 
 5191      64756C65 
 5191      3200
 5192              	.LASF182:
 5193 0355 4C533630 		.ascii	"LS600_Module3\000"
 5193      305F4D6F 
 5193      64756C65 
 5193      3300
 5194              	.LASF183:
 5195 0363 4C533630 		.ascii	"LS600_Module4\000"
 5195      305F4D6F 
 5195      64756C65 
 5195      3400
 5196              	.LASF184:
 5197 0371 4C533630 		.ascii	"LS600_Module5\000"
 5197      305F4D6F 
 5197      64756C65 
 5197      3500
 5198              	.LASF4:
 5199 037f 6C6F6E67 		.ascii	"long int\000"
 5199      20696E74 
 5199      00
 5200              	.LASF186:
 5201 0388 4C533630 		.ascii	"LS600_Module7\000"
 5201      305F4D6F 
 5201      64756C65 
 5201      3700
 5202              	.LASF187:
 5203 0396 4C533630 		.ascii	"LS600_Module8\000"
 5203      305F4D6F 
 5203      64756C65 
 5203      3800
 5204              	.LASF188:
 5205 03a4 4C533630 		.ascii	"LS600_Module9\000"
 5205      305F4D6F 
 5205      64756C65 
 5205      3900
 5206              	.LASF99:
 5207 03b2 57697265 		.ascii	"WireActivation1\000"
 5207      41637469 
 5207      76617469 
 5207      6F6E3100 
 5208              	.LASF100:
 5209 03c2 57697265 		.ascii	"WireActivation2\000"
 5209      41637469 
 5209      76617469 
 5209      6F6E3200 
 5210              	.LASF101:
 5211 03d2 57697265 		.ascii	"WireActivation3\000"
 5211      41637469 
 5211      76617469 
 5211      6F6E3300 
 5212              	.LASF180:
 5213 03e2 534D5F5A 		.ascii	"SM_ZoneAddress\000"
ARM GAS  C:\Users\MARTHN~1\AppData\Local\Temp\ccYtCv5j.s 			page 114


 5213      6F6E6541 
 5213      64647265 
 5213      737300
 5214              	.LASF64:
 5215 03f1 4C45445F 		.ascii	"LED_10_B\000"
 5215      31305F42 
 5215      00
 5216              	.LASF63:
 5217 03fa 4C45445F 		.ascii	"LED_10_G\000"
 5217      31305F47 
 5217      00
 5218              	.LASF49:
 5219 0403 4C45445F 		.ascii	"LED_15_B\000"
 5219      31355F42 
 5219      00
 5220              	.LASF48:
 5221 040c 4C45445F 		.ascii	"LED_15_G\000"
 5221      31355F47 
 5221      00
 5222              	.LASF128:
 5223 0415 72784461 		.ascii	"rxData_Quad\000"
 5223      74615F51 
 5223      75616400 
 5224              	.LASF47:
 5225 0421 4C45445F 		.ascii	"LED_15_R\000"
 5225      31355F52 
 5225      00
 5226              	.LASF112:
 5227 042a 52656C61 		.ascii	"Relay_PacketType\000"
 5227      795F5061 
 5227      636B6574 
 5227      54797065 
 5227      00
 5228              	.LASF0:
 5229 043b 7369676E 		.ascii	"signed char\000"
 5229      65642063 
 5229      68617200 
 5230              	.LASF299:
 5231 0447 67657454 		.ascii	"getTxPacket_H\000"
 5231      78506163 
 5231      6B65745F 
 5231      4800
 5232              	.LASF209:
 5233 0455 52656172 		.ascii	"RearILB_Module10\000"
 5233      494C425F 
 5233      4D6F6475 
 5233      6C653130 
 5233      00
 5234              	.LASF127:
 5235 0466 5061636B 		.ascii	"Packet_H\000"
 5235      65745F48 
 5235      00
 5236              	.LASF39:
 5237 046f 63686563 		.ascii	"checkSum\000"
 5237      6B53756D 
 5237      00
 5238              	.LASF41:
ARM GAS  C:\Users\MARTHN~1\AppData\Local\Temp\ccYtCv5j.s 			page 115


 5239 0478 5061796C 		.ascii	"Payload\000"
 5239      6F616400 
 5240              	.LASF295:
 5241 0480 74617267 		.ascii	"targetstring\000"
 5241      65747374 
 5241      72696E67 
 5241      00
 5242              	.LASF317:
 5243 048d 74785061 		.ascii	"txPacket_H\000"
 5243      636B6574 
 5243      5F4800
 5244              	.LASF1:
 5245 0498 756E7369 		.ascii	"unsigned char\000"
 5245      676E6564 
 5245      20636861 
 5245      7200
 5246              	.LASF105:
 5247 04a6 53697265 		.ascii	"Siren_PacketType\000"
 5247      6E5F5061 
 5247      636B6574 
 5247      54797065 
 5247      00
 5248              	.LASF264:
 5249 04b7 53544553 		.ascii	"STEST_RELAY\000"
 5249      545F5245 
 5249      4C415900 
 5250              	.LASF331:
 5251 04c3 433A5C55 		.ascii	"C:\\Users\\marthnick\\Desktop\\firm_F1-TestFixture\\"
 5251      73657273 
 5251      5C6D6172 
 5251      74686E69 
 5251      636B5C44 
 5252 04f2 46312D54 		.ascii	"F1-TestFixture.cydsn\000"
 5252      65737446 
 5252      69787475 
 5252      72652E63 
 5252      7964736E 
 5253              	.LASF202:
 5254 0507 52656172 		.ascii	"RearILB_Module3\000"
 5254      494C425F 
 5254      4D6F6475 
 5254      6C653300 
 5255              	.LASF40:
 5256 0517 62797465 		.ascii	"bytes\000"
 5256      7300
 5257              	.LASF16:
 5258 051d 63686172 		.ascii	"char\000"
 5258      00
 5259              	.LASF113:
 5260 0522 4F757470 		.ascii	"Outputs_1to8\000"
 5260      7574735F 
 5260      31746F38 
 5260      00
 5261              	.LASF85:
 5262 052f 4C45445F 		.ascii	"LED_03_B\000"
 5262      30335F42 
 5262      00
ARM GAS  C:\Users\MARTHN~1\AppData\Local\Temp\ccYtCv5j.s 			page 116


 5263              	.LASF84:
 5264 0538 4C45445F 		.ascii	"LED_03_G\000"
 5264      30335F47 
 5264      00
 5265              	.LASF114:
 5266 0541 4F757470 		.ascii	"Outputs_9to16\000"
 5266      7574735F 
 5266      39746F31 
 5266      3600
 5267              	.LASF269:
 5268 054f 51554144 		.ascii	"QUAD_PORT_1\000"
 5268      5F504F52 
 5268      545F3100 
 5269              	.LASF270:
 5270 055b 51554144 		.ascii	"QUAD_PORT_2\000"
 5270      5F504F52 
 5270      545F3200 
 5271              	.LASF271:
 5272 0567 51554144 		.ascii	"QUAD_PORT_3\000"
 5272      5F504F52 
 5272      545F3300 
 5273              	.LASF272:
 5274 0573 51554144 		.ascii	"QUAD_PORT_4\000"
 5274      5F504F52 
 5274      545F3400 
 5275              	.LASF273:
 5276 057f 51554144 		.ascii	"QUAD_PORT_5\000"
 5276      5F504F52 
 5276      545F3500 
 5277              	.LASF274:
 5278 058b 51554144 		.ascii	"QUAD_PORT_6\000"
 5278      5F504F52 
 5278      545F3600 
 5279              	.LASF275:
 5280 0597 51554144 		.ascii	"QUAD_PORT_7\000"
 5280      5F504F52 
 5280      545F3700 
 5281              	.LASF70:
 5282 05a3 4C45445F 		.ascii	"LED_08_B\000"
 5282      30385F42 
 5282      00
 5283              	.LASF69:
 5284 05ac 4C45445F 		.ascii	"LED_08_G\000"
 5284      30385F47 
 5284      00
 5285              	.LASF68:
 5286 05b5 4C45445F 		.ascii	"LED_08_R\000"
 5286      30385F52 
 5286      00
 5287              	.LASF316:
 5288 05be 70547850 		.ascii	"pTxPacket_RelaySiren\000"
 5288      61636B65 
 5288      745F5265 
 5288      6C617953 
 5288      6972656E 
 5289              	.LASF278:
 5290 05d3 494E5055 		.ascii	"INPUTS\000"
ARM GAS  C:\Users\MARTHN~1\AppData\Local\Temp\ccYtCv5j.s 			page 117


 5290      545300
 5291              	.LASF248:
 5292 05da 52544553 		.ascii	"RTEST_QUAD_1\000"
 5292      545F5155 
 5292      41445F31 
 5292      00
 5293              	.LASF249:
 5294 05e7 52544553 		.ascii	"RTEST_QUAD_2\000"
 5294      545F5155 
 5294      41445F32 
 5294      00
 5295              	.LASF250:
 5296 05f4 52544553 		.ascii	"RTEST_QUAD_3\000"
 5296      545F5155 
 5296      41445F33 
 5296      00
 5297              	.LASF251:
 5298 0601 52544553 		.ascii	"RTEST_QUAD_4\000"
 5298      545F5155 
 5298      41445F34 
 5298      00
 5299              	.LASF252:
 5300 060e 52544553 		.ascii	"RTEST_QUAD_5\000"
 5300      545F5155 
 5300      41445F35 
 5300      00
 5301              	.LASF253:
 5302 061b 52544553 		.ascii	"RTEST_QUAD_6\000"
 5302      545F5155 
 5302      41445F36 
 5302      00
 5303              	.LASF254:
 5304 0628 52544553 		.ascii	"RTEST_QUAD_7\000"
 5304      545F5155 
 5304      41445F37 
 5304      00
 5305              	.LASF255:
 5306 0635 52544553 		.ascii	"RTEST_QUAD_8\000"
 5306      545F5155 
 5306      41445F38 
 5306      00
 5307              	.LASF104:
 5308 0642 53746172 		.ascii	"StartByte1_Siren\000"
 5308      74427974 
 5308      65315F53 
 5308      6972656E 
 5308      00
 5309              	.LASF88:
 5310 0653 4C45445F 		.ascii	"LED_02_B\000"
 5310      30325F42 
 5310      00
 5311              	.LASF244:
 5312 065c 44415441 		.ascii	"DATA_TYPE_460800\000"
 5312      5F545950 
 5312      455F3436 
 5312      30383030 
 5312      00
ARM GAS  C:\Users\MARTHN~1\AppData\Local\Temp\ccYtCv5j.s 			page 118


 5313              	.LASF30:
 5314 066d 53706561 		.ascii	"Speaker1_Overcurrent\000"
 5314      6B657231 
 5314      5F4F7665 
 5314      72637572 
 5314      72656E74 
 5315              	.LASF86:
 5316 0682 4C45445F 		.ascii	"LED_02_R\000"
 5316      30325F52 
 5316      00
 5317              	.LASF286:
 5318 068b 52546573 		.ascii	"RTest_Test_DataLink\000"
 5318      745F5465 
 5318      73745F44 
 5318      6174614C 
 5318      696E6B00 
 5319              	.LASF284:
 5320 069f 4F757470 		.ascii	"OutputsState\000"
 5320      75747353 
 5320      74617465 
 5320      00
 5321              	.LASF292:
 5322 06ac 426C6F63 		.ascii	"BlockCurrentPass\000"
 5322      6B437572 
 5322      72656E74 
 5322      50617373 
 5322      00
 5323              	.LASF103:
 5324 06bd 53746F70 		.ascii	"StopByte2_FLB\000"
 5324      42797465 
 5324      325F464C 
 5324      4200
 5325              	.LASF139:
 5326 06cb 464C425F 		.ascii	"FLB_Module10\000"
 5326      4D6F6475 
 5326      6C653130 
 5326      00
 5327              	.LASF140:
 5328 06d8 464C425F 		.ascii	"FLB_Module11\000"
 5328      4D6F6475 
 5328      6C653131 
 5328      00
 5329              	.LASF141:
 5330 06e5 464C425F 		.ascii	"FLB_Module12\000"
 5330      4D6F6475 
 5330      6C653132 
 5330      00
 5331              	.LASF142:
 5332 06f2 464C425F 		.ascii	"FLB_Module13\000"
 5332      4D6F6475 
 5332      6C653133 
 5332      00
 5333              	.LASF143:
 5334 06ff 464C425F 		.ascii	"FLB_Module14\000"
 5334      4D6F6475 
 5334      6C653134 
 5334      00
ARM GAS  C:\Users\MARTHN~1\AppData\Local\Temp\ccYtCv5j.s 			page 119


 5335              	.LASF144:
 5336 070c 464C425F 		.ascii	"FLB_Module15\000"
 5336      4D6F6475 
 5336      6C653135 
 5336      00
 5337              	.LASF145:
 5338 0719 464C425F 		.ascii	"FLB_Module16\000"
 5338      4D6F6475 
 5338      6C653136 
 5338      00
 5339              	.LASF146:
 5340 0726 464C425F 		.ascii	"FLB_Module17\000"
 5340      4D6F6475 
 5340      6C653137 
 5340      00
 5341              	.LASF147:
 5342 0733 464C425F 		.ascii	"FLB_Module18\000"
 5342      4D6F6475 
 5342      6C653138 
 5342      00
 5343              	.LASF148:
 5344 0740 464C425F 		.ascii	"FLB_Module19\000"
 5344      4D6F6475 
 5344      6C653139 
 5344      00
 5345              	.LASF308:
 5346 074d 53657452 		.ascii	"SetRelayOutputs\000"
 5346      656C6179 
 5346      4F757470 
 5346      75747300 
 5347              	.LASF98:
 5348 075d 464C425F 		.ascii	"FLB_PacketType\000"
 5348      5061636B 
 5348      65745479 
 5348      706500
 5349              	.LASF61:
 5350 076c 4C45445F 		.ascii	"LED_11_B\000"
 5350      31315F42 
 5350      00
 5351              	.LASF110:
 5352 0775 53746F70 		.ascii	"StopByte2_Siren\000"
 5352      42797465 
 5352      325F5369 
 5352      72656E00 
 5353              	.LASF60:
 5354 0785 4C45445F 		.ascii	"LED_11_G\000"
 5354      31315F47 
 5354      00
 5355              	.LASF46:
 5356 078e 4C45445F 		.ascii	"LED_16_B\000"
 5356      31365F42 
 5356      00
 5357              	.LASF45:
 5358 0797 4C45445F 		.ascii	"LED_16_G\000"
 5358      31365F47 
 5358      00
 5359              	.LASF315:
ARM GAS  C:\Users\MARTHN~1\AppData\Local\Temp\ccYtCv5j.s 			page 120


 5360 07a0 70527850 		.ascii	"pRxPacket_RelaySiren\000"
 5360      61636B65 
 5360      745F5265 
 5360      6C617953 
 5360      6972656E 
 5361              	.LASF44:
 5362 07b5 4C45445F 		.ascii	"LED_16_R\000"
 5362      31365F52 
 5362      00
 5363              	.LASF288:
 5364 07be 52546573 		.ascii	"RTest_Test_Inputs\000"
 5364      745F5465 
 5364      73745F49 
 5364      6E707574 
 5364      7300
 5365              	.LASF149:
 5366 07d0 464C425F 		.ascii	"FLB_Module20\000"
 5366      4D6F6475 
 5366      6C653230 
 5366      00
 5367              	.LASF150:
 5368 07dd 464C425F 		.ascii	"FLB_Module21\000"
 5368      4D6F6475 
 5368      6C653231 
 5368      00
 5369              	.LASF151:
 5370 07ea 464C425F 		.ascii	"FLB_Module22\000"
 5370      4D6F6475 
 5370      6C653232 
 5370      00
 5371              	.LASF152:
 5372 07f7 464C425F 		.ascii	"FLB_Module23\000"
 5372      4D6F6475 
 5372      6C653233 
 5372      00
 5373              	.LASF153:
 5374 0804 464C425F 		.ascii	"FLB_Module24\000"
 5374      4D6F6475 
 5374      6C653234 
 5374      00
 5375              	.LASF154:
 5376 0811 464C425F 		.ascii	"FLB_Module25\000"
 5376      4D6F6475 
 5376      6C653235 
 5376      00
 5377              	.LASF155:
 5378 081e 464C425F 		.ascii	"FLB_Module26\000"
 5378      4D6F6475 
 5378      6C653236 
 5378      00
 5379              	.LASF156:
 5380 082b 464C425F 		.ascii	"FLB_Module27\000"
 5380      4D6F6475 
 5380      6C653237 
 5380      00
 5381              	.LASF157:
 5382 0838 464C425F 		.ascii	"FLB_Module28\000"
ARM GAS  C:\Users\MARTHN~1\AppData\Local\Temp\ccYtCv5j.s 			page 121


 5382      4D6F6475 
 5382      6C653238 
 5382      00
 5383              	.LASF158:
 5384 0845 464C425F 		.ascii	"FLB_Module29\000"
 5384      4D6F6475 
 5384      6C653239 
 5384      00
 5385              	.LASF210:
 5386 0852 526F636B 		.ascii	"RockLeft_Module1\000"
 5386      4C656674 
 5386      5F4D6F64 
 5386      756C6531 
 5386      00
 5387              	.LASF211:
 5388 0863 526F636B 		.ascii	"RockLeft_Module2\000"
 5388      4C656674 
 5388      5F4D6F64 
 5388      756C6532 
 5388      00
 5389              	.LASF212:
 5390 0874 526F636B 		.ascii	"RockLeft_Module3\000"
 5390      4C656674 
 5390      5F4D6F64 
 5390      756C6533 
 5390      00
 5391              	.LASF213:
 5392 0885 526F636B 		.ascii	"RockLeft_Module4\000"
 5392      4C656674 
 5392      5F4D6F64 
 5392      756C6534 
 5392      00
 5393              	.LASF214:
 5394 0896 526F636B 		.ascii	"RockLeft_Module5\000"
 5394      4C656674 
 5394      5F4D6F64 
 5394      756C6535 
 5394      00
 5395              	.LASF215:
 5396 08a7 526F636B 		.ascii	"RockLeft_Module6\000"
 5396      4C656674 
 5396      5F4D6F64 
 5396      756C6536 
 5396      00
 5397              	.LASF216:
 5398 08b8 526F636B 		.ascii	"RockLeft_Module7\000"
 5398      4C656674 
 5398      5F4D6F64 
 5398      756C6537 
 5398      00
 5399              	.LASF217:
 5400 08c9 526F636B 		.ascii	"RockLeft_Module8\000"
 5400      4C656674 
 5400      5F4D6F64 
 5400      756C6538 
 5400      00
 5401              	.LASF218:
ARM GAS  C:\Users\MARTHN~1\AppData\Local\Temp\ccYtCv5j.s 			page 122


 5402 08da 526F636B 		.ascii	"RockLeft_Module9\000"
 5402      4C656674 
 5402      5F4D6F64 
 5402      756C6539 
 5402      00
 5403              	.LASF5:
 5404 08eb 6C6F6E67 		.ascii	"long unsigned int\000"
 5404      20756E73 
 5404      69676E65 
 5404      6420696E 
 5404      7400
 5405              	.LASF19:
 5406 08fd 53656C65 		.ascii	"SelectedTest\000"
 5406      63746564 
 5406      54657374 
 5406      00
 5407              	.LASF285:
 5408 090a 6368616E 		.ascii	"channel\000"
 5408      6E656C00 
 5409              	.LASF159:
 5410 0912 464C425F 		.ascii	"FLB_Module30\000"
 5410      4D6F6475 
 5410      6C653330 
 5410      00
 5411              	.LASF107:
 5412 091f 53697265 		.ascii	"Siren2Tone\000"
 5412      6E32546F 
 5412      6E6500
 5413              	.LASF171:
 5414 092a 46726F6E 		.ascii	"FrontILB_Module2\000"
 5414      74494C42 
 5414      5F4D6F64 
 5414      756C6532 
 5414      00
 5415              	.LASF172:
 5416 093b 46726F6E 		.ascii	"FrontILB_Module3\000"
 5416      74494C42 
 5416      5F4D6F64 
 5416      756C6533 
 5416      00
 5417              	.LASF173:
 5418 094c 46726F6E 		.ascii	"FrontILB_Module4\000"
 5418      74494C42 
 5418      5F4D6F64 
 5418      756C6534 
 5418      00
 5419              	.LASF174:
 5420 095d 46726F6E 		.ascii	"FrontILB_Module5\000"
 5420      74494C42 
 5420      5F4D6F64 
 5420      756C6535 
 5420      00
 5421              	.LASF175:
 5422 096e 46726F6E 		.ascii	"FrontILB_Module6\000"
 5422      74494C42 
 5422      5F4D6F64 
 5422      756C6536 
ARM GAS  C:\Users\MARTHN~1\AppData\Local\Temp\ccYtCv5j.s 			page 123


 5422      00
 5423              	.LASF176:
 5424 097f 46726F6E 		.ascii	"FrontILB_Module7\000"
 5424      74494C42 
 5424      5F4D6F64 
 5424      756C6537 
 5424      00
 5425              	.LASF177:
 5426 0990 46726F6E 		.ascii	"FrontILB_Module8\000"
 5426      74494C42 
 5426      5F4D6F64 
 5426      756C6538 
 5426      00
 5427              	.LASF178:
 5428 09a1 46726F6E 		.ascii	"FrontILB_Module9\000"
 5428      74494C42 
 5428      5F4D6F64 
 5428      756C6539 
 5428      00
 5429              	.LASF303:
 5430 09b2 43757272 		.ascii	"Current_Reading\000"
 5430      656E745F 
 5430      52656164 
 5430      696E6700 
 5431              	.LASF329:
 5432 09c2 474E5520 		.ascii	"GNU C11 5.4.1 20160609 (release) [ARM/embedded-5-br"
 5432      43313120 
 5432      352E342E 
 5432      31203230 
 5432      31363036 
 5433 09f5 616E6368 		.ascii	"anch revision 237715] -mcpu=cortex-m3 -mthumb -g -O"
 5433      20726576 
 5433      6973696F 
 5433      6E203233 
 5433      37373135 
 5434 0a28 30202D66 		.ascii	"0 -ffunction-sections -ffat-lto-objects\000"
 5434      66756E63 
 5434      74696F6E 
 5434      2D736563 
 5434      74696F6E 
 5435              	.LASF20:
 5436 0a50 54657374 		.ascii	"TestStep\000"
 5436      53746570 
 5436      00
 5437              	.LASF279:
 5438 0a59 56424154 		.ascii	"VBATT\000"
 5438      5400
 5439              	.LASF82:
 5440 0a5f 4C45445F 		.ascii	"LED_04_B\000"
 5440      30345F42 
 5440      00
 5441              	.LASF81:
 5442 0a68 4C45445F 		.ascii	"LED_04_G\000"
 5442      30345F47 
 5442      00
 5443              	.LASF67:
 5444 0a71 4C45445F 		.ascii	"LED_09_B\000"
ARM GAS  C:\Users\MARTHN~1\AppData\Local\Temp\ccYtCv5j.s 			page 124


 5444      30395F42 
 5444      00
 5445              	.LASF66:
 5446 0a7a 4C45445F 		.ascii	"LED_09_G\000"
 5446      30395F47 
 5446      00
 5447              	.LASF6:
 5448 0a83 6C6F6E67 		.ascii	"long long int\000"
 5448      206C6F6E 
 5448      6720696E 
 5448      7400
 5449              	.LASF65:
 5450 0a91 4C45445F 		.ascii	"LED_09_R\000"
 5450      30395F52 
 5450      00
 5451              	.LASF119:
 5452 0a9a 53697265 		.ascii	"SirenEnable\000"
 5452      6E456E61 
 5452      626C6500 
 5453              	.LASF102:
 5454 0aa6 53746F70 		.ascii	"StopByte1_FLB\000"
 5454      42797465 
 5454      315F464C 
 5454      4200
 5455              	.LASF310:
 5456 0ab4 656E6162 		.ascii	"enable\000"
 5456      6C6500
 5457              	.LASF15:
 5458 0abb 646F7562 		.ascii	"double\000"
 5458      6C6500
 5459              	.LASF289:
 5460 0ac2 52546573 		.ascii	"RTest_Test_Vbatt\000"
 5460      745F5465 
 5460      73745F56 
 5460      62617474 
 5460      00
 5461              	.LASF258:
 5462 0ad3 52544553 		.ascii	"RTEST_QUAD_TX\000"
 5462      545F5155 
 5462      41445F54 
 5462      5800
 5463              	.LASF185:
 5464 0ae1 4C533630 		.ascii	"LS600_Module6\000"
 5464      305F4D6F 
 5464      64756C65 
 5464      3600
 5465              	.LASF326:
 5466 0aef 49544D5F 		.ascii	"ITM_RxBuffer\000"
 5466      52784275 
 5466      66666572 
 5466      00
 5467              	.LASF276:
 5468 0afc 51554144 		.ascii	"QUAD_PORT_8\000"
 5468      5F504F52 
 5468      545F3800 
 5469              	.LASF14:
 5470 0b08 666C6F61 		.ascii	"float\000"
ARM GAS  C:\Users\MARTHN~1\AppData\Local\Temp\ccYtCv5j.s 			page 125


 5470      7400
 5471              	.LASF23:
 5472 0b0e 73747275 		.ascii	"structTestInfo\000"
 5472      63745465 
 5472      7374496E 
 5472      666F00
 5473              	.LASF8:
 5474 0b1d 756E7369 		.ascii	"unsigned int\000"
 5474      676E6564 
 5474      20696E74 
 5474      00
 5475              	.LASF33:
 5476 0b2a 53697265 		.ascii	"SirenFirm_0\000"
 5476      6E466972 
 5476      6D5F3000 
 5477              	.LASF34:
 5478 0b36 53697265 		.ascii	"SirenFirm_1\000"
 5478      6E466972 
 5478      6D5F3100 
 5479              	.LASF35:
 5480 0b42 53697265 		.ascii	"SirenFirm_2\000"
 5480      6E466972 
 5480      6D5F3200 
 5481              	.LASF319:
 5482 0b4e 72785061 		.ascii	"rxPacket_H\000"
 5482      636B6574 
 5482      5F4800
 5483              	.LASF58:
 5484 0b59 4C45445F 		.ascii	"LED_12_B\000"
 5484      31325F42 
 5484      00
 5485              	.LASF259:
 5486 0b62 53544553 		.ascii	"STEST_AUDIO_TX\000"
 5486      545F4155 
 5486      44494F5F 
 5486      545800
 5487              	.LASF57:
 5488 0b71 4C45445F 		.ascii	"LED_12_G\000"
 5488      31325F47 
 5488      00
 5489              	.LASF165:
 5490 0b7a 4C533430 		.ascii	"LS400_Module6\000"
 5490      305F4D6F 
 5490      64756C65 
 5490      3600
 5491              	.LASF56:
 5492 0b88 4C45445F 		.ascii	"LED_12_R\000"
 5492      31325F52 
 5492      00
 5493              	.LASF106:
 5494 0b91 53697265 		.ascii	"Siren1Tone\000"
 5494      6E31546F 
 5494      6E6500
 5495              	.LASF96:
 5496 0b9c 636F6E74 		.ascii	"controllerPowerState\000"
 5496      726F6C6C 
 5496      6572506F 
ARM GAS  C:\Users\MARTHN~1\AppData\Local\Temp\ccYtCv5j.s 			page 126


 5496      77657253 
 5496      74617465 
 5497              	.LASF21:
 5498 0bb1 4661696C 		.ascii	"Failures\000"
 5498      75726573 
 5498      00
 5499              	.LASF309:
 5500 0bba 626C6F63 		.ascii	"block\000"
 5500      6B00
 5501              	.LASF29:
 5502 0bc0 566F6C74 		.ascii	"Voltage_BATT\000"
 5502      6167655F 
 5502      42415454 
 5502      00
 5503              	.LASF117:
 5504 0bcd 48694C6F 		.ascii	"HiLoInputLogic\000"
 5504      496E7075 
 5504      744C6F67 
 5504      696300
 5505              	.LASF294:
 5506 0bdc 52546573 		.ascii	"RTest_Test_GPS\000"
 5506      745F5465 
 5506      73745F47 
 5506      505300
 5507              	.LASF17:
 5508 0beb 6C6F6E67 		.ascii	"long double\000"
 5508      20646F75 
 5508      626C6500 
 5509              	.LASF318:
 5510 0bf7 70547850 		.ascii	"pTxPacket_H\000"
 5510      61636B65 
 5510      745F4800 
 5511              	.LASF256:
 5512 0c03 44454D55 		.ascii	"DEMUX_460800_CHANNEL\000"
 5512      585F3436 
 5512      30383030 
 5512      5F434841 
 5512      4E4E454C 
 5513              	.LASF328:
 5514 0c18 43757272 		.ascii	"CurrentTest\000"
 5514      656E7454 
 5514      65737400 
 5515              	.LASF62:
 5516 0c24 4C45445F 		.ascii	"LED_10_R\000"
 5516      31305F52 
 5516      00
 5517              	.LASF240:
 5518 0c2d 72785061 		.ascii	"rxPacket_Quad\000"
 5518      636B6574 
 5518      5F517561 
 5518      6400
 5519              	.LASF160:
 5520 0c3b 534D5F5A 		.ascii	"SM_Zone1\000"
 5520      6F6E6531 
 5520      00
 5521              	.LASF161:
 5522 0c44 534D5F5A 		.ascii	"SM_Zone2\000"
ARM GAS  C:\Users\MARTHN~1\AppData\Local\Temp\ccYtCv5j.s 			page 127


 5522      6F6E6532 
 5522      00
 5523              	.LASF162:
 5524 0c4d 534D5F5A 		.ascii	"SM_Zone3\000"
 5524      6F6E6533 
 5524      00
 5525              	.LASF167:
 5526 0c56 534D5F5A 		.ascii	"SM_Zone4\000"
 5526      6F6E6534 
 5526      00
 5527              	.LASF168:
 5528 0c5f 534D5F5A 		.ascii	"SM_Zone5\000"
 5528      6F6E6535 
 5528      00
 5529              	.LASF169:
 5530 0c68 534D5F5A 		.ascii	"SM_Zone6\000"
 5530      6F6E6536 
 5530      00
 5531              	.LASF170:
 5532 0c71 534D5F5A 		.ascii	"SM_Zone7\000"
 5532      6F6E6537 
 5532      00
 5533              	.LASF179:
 5534 0c7a 534D5F5A 		.ascii	"SM_Zone8\000"
 5534      6F6E6538 
 5534      00
 5535              	.LASF327:
 5536 0c83 54657374 		.ascii	"Test\000"
 5536      00
 5537              	.LASF79:
 5538 0c88 4C45445F 		.ascii	"LED_05_B\000"
 5538      30355F42 
 5538      00
 5539              	.LASF78:
 5540 0c91 4C45445F 		.ascii	"LED_05_G\000"
 5540      30355F47 
 5540      00
 5541              	.LASF123:
 5542 0c9a 74785061 		.ascii	"txPacket_RelaySiren\000"
 5542      636B6574 
 5542      5F52656C 
 5542      61795369 
 5542      72656E00 
 5543              	.LASF7:
 5544 0cae 6C6F6E67 		.ascii	"long long unsigned int\000"
 5544      206C6F6E 
 5544      6720756E 
 5544      7369676E 
 5544      65642069 
 5545              	.LASF77:
 5546 0cc5 4C45445F 		.ascii	"LED_05_R\000"
 5546      30355F52 
 5546      00
 5547              	.LASF266:
 5548 0cce 53495245 		.ascii	"SIREN_EN\000"
 5548      4E5F454E 
 5548      00
ARM GAS  C:\Users\MARTHN~1\AppData\Local\Temp\ccYtCv5j.s 			page 128


 5549              	.LASF32:
 5550 0cd7 52656C61 		.ascii	"RelayInputs\000"
 5550      79496E70 
 5550      75747300 
 5551              	.LASF246:
 5552 0ce3 43544553 		.ascii	"CTEST_QUAD\000"
 5552      545F5155 
 5552      414400
 5553              	.LASF291:
 5554 0cee 52546573 		.ascii	"RTest_Test_BlockCurrents\000"
 5554      745F5465 
 5554      73745F42 
 5554      6C6F636B 
 5554      43757272 
 5555              	.LASF220:
 5556 0d07 526F636B 		.ascii	"RockRight_Module1\000"
 5556      52696768 
 5556      745F4D6F 
 5556      64756C65 
 5556      3100
 5557              	.LASF221:
 5558 0d19 526F636B 		.ascii	"RockRight_Module2\000"
 5558      52696768 
 5558      745F4D6F 
 5558      64756C65 
 5558      3200
 5559              	.LASF222:
 5560 0d2b 526F636B 		.ascii	"RockRight_Module3\000"
 5560      52696768 
 5560      745F4D6F 
 5560      64756C65 
 5560      3300
 5561              	.LASF223:
 5562 0d3d 526F636B 		.ascii	"RockRight_Module4\000"
 5562      52696768 
 5562      745F4D6F 
 5562      64756C65 
 5562      3400
 5563              	.LASF224:
 5564 0d4f 526F636B 		.ascii	"RockRight_Module5\000"
 5564      52696768 
 5564      745F4D6F 
 5564      64756C65 
 5564      3500
 5565              	.LASF225:
 5566 0d61 526F636B 		.ascii	"RockRight_Module6\000"
 5566      52696768 
 5566      745F4D6F 
 5566      64756C65 
 5566      3600
 5567              	.LASF226:
 5568 0d73 526F636B 		.ascii	"RockRight_Module7\000"
 5568      52696768 
 5568      745F4D6F 
 5568      64756C65 
 5568      3700
 5569              	.LASF227:
ARM GAS  C:\Users\MARTHN~1\AppData\Local\Temp\ccYtCv5j.s 			page 129


 5570 0d85 526F636B 		.ascii	"RockRight_Module8\000"
 5570      52696768 
 5570      745F4D6F 
 5570      64756C65 
 5570      3800
 5571              	.LASF228:
 5572 0d97 526F636B 		.ascii	"RockRight_Module9\000"
 5572      52696768 
 5572      745F4D6F 
 5572      64756C65 
 5572      3900
 5573              	.LASF293:
 5574 0da9 426C6F63 		.ascii	"BlockCurrentValue\000"
 5574      6B437572 
 5574      72656E74 
 5574      56616C75 
 5574      6500
 5575              	.LASF83:
 5576 0dbb 4C45445F 		.ascii	"LED_03_R\000"
 5576      30335F52 
 5576      00
 5577              	.LASF129:
 5578 0dc4 53697A65 		.ascii	"SizeOfPayload\000"
 5578      4F665061 
 5578      796C6F61 
 5578      6400
 5579              	.LASF241:
 5580 0dd2 52785061 		.ascii	"RxPacket_Quad\000"
 5580      636B6574 
 5580      5F517561 
 5580      6400
 5581              	.LASF124:
 5582 0de0 54785061 		.ascii	"TxPacket_RelaySiren\000"
 5582      636B6574 
 5582      5F52656C 
 5582      61795369 
 5582      72656E00 
 5583              	.LASF31:
 5584 0df4 53706561 		.ascii	"Speaker2_Overcurrent\000"
 5584      6B657232 
 5584      5F4F7665 
 5584      72637572 
 5584      72656E74 
 5585              	.LASF311:
 5586 0e09 52546573 		.ascii	"RTest_StartAutomatedStep\000"
 5586      745F5374 
 5586      61727441 
 5586      75746F6D 
 5586      61746564 
 5587              	.LASF302:
 5588 0e22 52546573 		.ascii	"RTest_BlockCurrent\000"
 5588      745F426C 
 5588      6F636B43 
 5588      75727265 
 5588      6E7400
 5589              	.LASF199:
 5590 0e35 4C533830 		.ascii	"LS800_Module10\000"
ARM GAS  C:\Users\MARTHN~1\AppData\Local\Temp\ccYtCv5j.s 			page 130


 5590      305F4D6F 
 5590      64756C65 
 5590      313000
 5591              	.LASF297:
 5592 0e44 67657454 		.ascii	"getTxPacket_RelaySiren\000"
 5592      78506163 
 5592      6B65745F 
 5592      52656C61 
 5592      79536972 
 5593              	.LASF122:
 5594 0e5b 72785061 		.ascii	"rxPacket_RelaySiren\000"
 5594      636B6574 
 5594      5F52656C 
 5594      61795369 
 5594      72656E00 
 5595              	.LASF55:
 5596 0e6f 4C45445F 		.ascii	"LED_13_B\000"
 5596      31335F42 
 5596      00
 5597              	.LASF54:
 5598 0e78 4C45445F 		.ascii	"LED_13_G\000"
 5598      31335F47 
 5598      00
 5599              	.LASF200:
 5600 0e81 52656172 		.ascii	"RearILB_Module1\000"
 5600      494C425F 
 5600      4D6F6475 
 5600      6C653100 
 5601              	.LASF201:
 5602 0e91 52656172 		.ascii	"RearILB_Module2\000"
 5602      494C425F 
 5602      4D6F6475 
 5602      6C653200 
 5603              	.LASF53:
 5604 0ea1 4C45445F 		.ascii	"LED_13_R\000"
 5604      31335F52 
 5604      00
 5605              	.LASF203:
 5606 0eaa 52656172 		.ascii	"RearILB_Module4\000"
 5606      494C425F 
 5606      4D6F6475 
 5606      6C653400 
 5607              	.LASF204:
 5608 0eba 52656172 		.ascii	"RearILB_Module5\000"
 5608      494C425F 
 5608      4D6F6475 
 5608      6C653500 
 5609              	.LASF205:
 5610 0eca 52656172 		.ascii	"RearILB_Module6\000"
 5610      494C425F 
 5610      4D6F6475 
 5610      6C653600 
 5611              	.LASF206:
 5612 0eda 52656172 		.ascii	"RearILB_Module7\000"
 5612      494C425F 
 5612      4D6F6475 
 5612      6C653700 
ARM GAS  C:\Users\MARTHN~1\AppData\Local\Temp\ccYtCv5j.s 			page 131


 5613              	.LASF207:
 5614 0eea 52656172 		.ascii	"RearILB_Module8\000"
 5614      494C425F 
 5614      4D6F6475 
 5614      6C653800 
 5615              	.LASF208:
 5616 0efa 52656172 		.ascii	"RearILB_Module9\000"
 5616      494C425F 
 5616      4D6F6475 
 5616      6C653900 
 5617              	.LASF22:
 5618 0f0a 53747275 		.ascii	"StructTestInfo\000"
 5618      63745465 
 5618      7374496E 
 5618      666F00
 5619              	.LASF115:
 5620 0f19 4F757470 		.ascii	"Outputs_17to24\000"
 5620      7574735F 
 5620      3137746F 
 5620      323400
 5621              	.LASF11:
 5622 0f28 75696E74 		.ascii	"uint8\000"
 5622      3800
 5623              	.LASF268:
 5624 0f2e 44415441 		.ascii	"DATALINK\000"
 5624      4C494E4B 
 5624      00
 5625              	.LASF24:
 5626 0f37 72784461 		.ascii	"rxData_RelaySiren\000"
 5626      74615F52 
 5626      656C6179 
 5626      53697265 
 5626      6E00
 5627              	.LASF133:
 5628 0f49 464C425F 		.ascii	"FLB_Module4\000"
 5628      4D6F6475 
 5628      6C653400 
 5629              	.LASF2:
 5630 0f55 73686F72 		.ascii	"short int\000"
 5630      7420696E 
 5630      7400
 5631              	.LASF323:
 5632 0f5f 52546573 		.ascii	"RTest_20ms_isr_count\000"
 5632      745F3230 
 5632      6D735F69 
 5632      73725F63 
 5632      6F756E74 
 5633              	.LASF287:
 5634 0f74 52546573 		.ascii	"RTest_Test_UART_Siren\000"
 5634      745F5465 
 5634      73745F55 
 5634      4152545F 
 5634      53697265 
 5635              	.LASF262:
 5636 0f8a 52544553 		.ascii	"RTEST_CONT\000"
 5636      545F434F 
 5636      4E5400
ARM GAS  C:\Users\MARTHN~1\AppData\Local\Temp\ccYtCv5j.s 			page 132


 5637              	.LASF42:
 5638 0f95 52785061 		.ascii	"RxPacket_RelaySiren\000"
 5638      636B6574 
 5638      5F52656C 
 5638      61795369 
 5638      72656E00 
 5639              	.LASF321:
 5640 0fa9 74785061 		.ascii	"txPacket_Quad\000"
 5640      636B6574 
 5640      5F517561 
 5640      6400
 5641              	.LASF307:
 5642 0fb7 52546573 		.ascii	"RTest_sendDiagPacket\000"
 5642      745F7365 
 5642      6E644469 
 5642      61675061 
 5642      636B6574 
 5643              	.LASF306:
 5644 0fcc 52546573 		.ascii	"RTest_50ms_isr\000"
 5644      745F3530 
 5644      6D735F69 
 5644      737200
 5645              	.LASF325:
 5646 0fdb 52546573 		.ascii	"RTestStatus\000"
 5646      74537461 
 5646      74757300 
 5647              	.LASF330:
 5648 0fe7 52656C61 		.ascii	"RelayTest.c\000"
 5648      79546573 
 5648      742E6300 
 5649              	.LASF298:
 5650 0ff3 67657452 		.ascii	"getRxPacket_RelaySiren\000"
 5650      78506163 
 5650      6B65745F 
 5650      52656C61 
 5650      79536972 
 5651              	.LASF283:
 5652 100a 52546573 		.ascii	"RTest_Test_Outputs\000"
 5652      745F5465 
 5652      73745F4F 
 5652      75747075 
 5652      747300
 5653              	.LASF163:
 5654 101d 4C533430 		.ascii	"LS400_Module4\000"
 5654      305F4D6F 
 5654      64756C65 
 5654      3400
 5655              	.LASF164:
 5656 102b 4C533430 		.ascii	"LS400_Module5\000"
 5656      305F4D6F 
 5656      64756C65 
 5656      3500
 5657              	.LASF126:
 5658 1039 7061636B 		.ascii	"packet_H\000"
 5658      65745F48 
 5658      00
 5659              	.LASF166:
ARM GAS  C:\Users\MARTHN~1\AppData\Local\Temp\ccYtCv5j.s 			page 133


 5660 1042 4C533430 		.ascii	"LS400_Module7\000"
 5660      305F4D6F 
 5660      64756C65 
 5660      3700
 5661              	.LASF296:
 5662 1050 67657452 		.ascii	"getRxPacket_Relay\000"
 5662      78506163 
 5662      6B65745F 
 5662      52656C61 
 5662      7900
 5663              	.LASF91:
 5664 1062 4C45445F 		.ascii	"LED_01_B\000"
 5664      30315F42 
 5664      00
 5665              	.LASF90:
 5666 106b 4C45445F 		.ascii	"LED_01_G\000"
 5666      30315F47 
 5666      00
 5667              	.LASF76:
 5668 1074 4C45445F 		.ascii	"LED_06_B\000"
 5668      30365F42 
 5668      00
 5669              	.LASF75:
 5670 107d 4C45445F 		.ascii	"LED_06_G\000"
 5670      30365F47 
 5670      00
 5671              	.LASF300:
 5672 1086 67657452 		.ascii	"getRxPacket_H\000"
 5672      78506163 
 5672      6B65745F 
 5672      4800
 5673              	.LASF74:
 5674 1094 4C45445F 		.ascii	"LED_06_R\000"
 5674      30365F52 
 5674      00
 5675              	.LASF43:
 5676 109d 74784461 		.ascii	"txData\000"
 5676      746100
 5677              	.LASF282:
 5678 10a4 52656C61 		.ascii	"RelayTest\000"
 5678      79546573 
 5678      7400
 5679              	.LASF261:
 5680 10ae 43544553 		.ascii	"CTEST_RELAY\000"
 5680      545F5245 
 5680      4C415900 
 5681              	.LASF189:
 5682 10ba 4C533630 		.ascii	"LS600_Module10\000"
 5682      305F4D6F 
 5682      64756C65 
 5682      313000
 5683              	.LASF120:
 5684 10c9 53746F70 		.ascii	"StopByte1_Relay\000"
 5684      42797465 
 5684      315F5265 
 5684      6C617900 
 5685              	.LASF247:
ARM GAS  C:\Users\MARTHN~1\AppData\Local\Temp\ccYtCv5j.s 			page 134


 5686 10d9 43544553 		.ascii	"CTEST_AUDIOSTREAM\000"
 5686      545F4155 
 5686      44494F53 
 5686      54524541 
 5686      4D00
 5687              	.LASF219:
 5688 10eb 526F636B 		.ascii	"RockLeft_Module10\000"
 5688      4C656674 
 5688      5F4D6F64 
 5688      756C6531 
 5688      3000
 5689              	.LASF324:
 5690 10fd 52546573 		.ascii	"RTest_20ms_isr_EN\000"
 5690      745F3230 
 5690      6D735F69 
 5690      73725F45 
 5690      4E00
 5691              	.LASF229:
 5692 110f 526F636B 		.ascii	"RockRight_Module10\000"
 5692      52696768 
 5692      745F4D6F 
 5692      64756C65 
 5692      313000
 5693              	.LASF89:
 5694 1122 4C45445F 		.ascii	"LED_01_R\000"
 5694      30315F52 
 5694      00
 5695              	.LASF305:
 5696 112b 52546573 		.ascii	"RTest_20ms_isr\000"
 5696      745F3230 
 5696      6D735F69 
 5696      737200
 5697              	.LASF3:
 5698 113a 73686F72 		.ascii	"short unsigned int\000"
 5698      7420756E 
 5698      7369676E 
 5698      65642069 
 5698      6E7400
 5699              	.LASF242:
 5700 114d 43544553 		.ascii	"CTEST_AUDIO\000"
 5700      545F4155 
 5700      44494F00 
 5701              	.LASF281:
 5702 1159 4641494C 		.ascii	"FAIL\000"
 5702      00
 5703              	.LASF9:
 5704 115e 5F5F696E 		.ascii	"__int32_t\000"
 5704      7433325F 
 5704      7400
 5705              	.LASF121:
 5706 1168 53746F70 		.ascii	"StopByte2_Relay\000"
 5706      42797465 
 5706      325F5265 
 5706      6C617900 
 5707              	.LASF260:
 5708 1178 4D55585F 		.ascii	"MUX_DEMUX_230400_CHANNEL\000"
 5708      44454D55 
ARM GAS  C:\Users\MARTHN~1\AppData\Local\Temp\ccYtCv5j.s 			page 135


 5708      585F3233 
 5708      30343030 
 5708      5F434841 
 5709              	.LASF313:
 5710 1191 72785061 		.ascii	"rxPacket_Relay\000"
 5710      636B6574 
 5710      5F52656C 
 5710      617900
 5711              	.LASF304:
 5712 11a0 52546573 		.ascii	"RTest_10ms_isr\000"
 5712      745F3130 
 5712      6D735F69 
 5712      737200
 5713              	.LASF97:
 5714 11af 53746172 		.ascii	"StartByte_FLB\000"
 5714      74427974 
 5714      655F464C 
 5714      4200
 5715              	.LASF36:
 5716 11bd 52656C61 		.ascii	"RelayFirm_0\000"
 5716      79466972 
 5716      6D5F3000 
 5717              	.LASF37:
 5718 11c9 52656C61 		.ascii	"RelayFirm_1\000"
 5718      79466972 
 5718      6D5F3100 
 5719              	.LASF38:
 5720 11d5 52656C61 		.ascii	"RelayFirm_2\000"
 5720      79466972 
 5720      6D5F3200 
 5721              	.LASF12:
 5722 11e1 75696E74 		.ascii	"uint16\000"
 5722      313600
 5723              	.LASF52:
 5724 11e8 4C45445F 		.ascii	"LED_14_B\000"
 5724      31345F42 
 5724      00
 5725              	.LASF51:
 5726 11f1 4C45445F 		.ascii	"LED_14_G\000"
 5726      31345F47 
 5726      00
 5727              	.LASF50:
 5728 11fa 4C45445F 		.ascii	"LED_14_R\000"
 5728      31345F52 
 5728      00
 5729              	.LASF277:
 5730 1203 55415254 		.ascii	"UART_SIREN\000"
 5730      5F534952 
 5730      454E00
 5731              	.LASF92:
 5732 120e 42757A7A 		.ascii	"Buzzer_H\000"
 5732      65725F48 
 5732      00
 5733              		.ident	"GCC: (GNU Tools for ARM Embedded Processors) 5.4.1 20160609 (release) [ARM/embedded-5-bran
