ARM GAS  C:\Users\MARTHN~1\AppData\Local\Temp\cc63NoI7.s 			page 1


   1              		.syntax unified
   2              		.cpu cortex-m3
   3              		.fpu softvfp
   4              		.eabi_attribute 20, 1
   5              		.eabi_attribute 21, 1
   6              		.eabi_attribute 23, 3
   7              		.eabi_attribute 24, 1
   8              		.eabi_attribute 25, 1
   9              		.eabi_attribute 26, 1
  10              		.eabi_attribute 30, 6
  11              		.eabi_attribute 34, 1
  12              		.eabi_attribute 18, 4
  13              		.thumb
  14              		.syntax unified
  15              		.file	"RelayTest.c"
  16              		.text
  17              	.Ltext0:
  18              		.cfi_sections	.debug_frame
  19              		.comm	Test,3,4
  20              		.bss
  21              		.align	2
  22              	rxPacket_Relay:
  23 0000 00000000 		.space	15
  23      00000000 
  23      00000000 
  23      000000
  24 000f 00       		.align	2
  25              	pRxPacket_Relay:
  26 0010 00000000 		.space	4
  27              		.align	2
  28              	rxPacket_RelaySiren:
  29 0014 00000000 		.space	15
  29      00000000 
  29      00000000 
  29      000000
  30 0023 00       		.align	2
  31              	pRxPacket_RelaySiren:
  32 0024 00000000 		.space	4
  33              		.align	2
  34              	txPacket_RelaySiren:
  35 0028 00000000 		.space	80
  35      00000000 
  35      00000000 
  35      00000000 
  35      00000000 
  36              		.align	2
  37              	pTxPacket_RelaySiren:
  38 0078 00000000 		.space	4
  39              		.align	2
  40              	txPacket_H:
  41 007c 00000000 		.space	5
  41      00
  42 0081 000000   		.align	2
  43              	pTxPacket_H:
  44 0084 00000000 		.space	4
  45              		.align	2
  46              	rxPacket_H:
ARM GAS  C:\Users\MARTHN~1\AppData\Local\Temp\cc63NoI7.s 			page 2


  47 0088 00000000 		.space	5
  47      00
  48 008d 000000   		.align	2
  49              	pRxPacket_H:
  50 0090 00000000 		.space	4
  51              		.align	2
  52              	txPacket_Quad:
  53 0094 00000000 		.space	111
  53      00000000 
  53      00000000 
  53      00000000 
  53      00000000 
  54 0103 00       		.align	2
  55              	pTxPacket_Quad:
  56 0104 00000000 		.space	4
  57              		.align	1
  58              	RTest_20ms_isr_count:
  59 0108 0000     		.space	2
  60              		.align	1
  61              	RTest_20ms_isr_EN:
  62 010a 0000     		.space	2
  63              		.data
  64              		.align	2
  65              		.type	RTest_TimeoutCount, %object
  66              		.size	RTest_TimeoutCount, 22
  67              	RTest_TimeoutCount:
  68 0000 3200     		.short	50
  69 0002 C800     		.short	200
  70 0004 6400     		.short	100
  71 0006 C800     		.short	200
  72 0008 3200     		.short	50
  73 000a 6400     		.short	100
  74 000c 6400     		.short	100
  75 000e 3200     		.short	50
  76 0010 6400     		.short	100
  77 0012 983A     		.short	15000
  78 0014 3200     		.short	50
  79              		.bss
  80              		.align	2
  81              	RTestStatus:
  82 010c 00000000 		.space	11
  82      00000000 
  82      000000
  83              		.section	.text.RelayTest,"ax",%progbits
  84              		.align	2
  85              		.global	RelayTest
  86              		.thumb
  87              		.thumb_func
  88              		.type	RelayTest, %function
  89              	RelayTest:
  90              	.LFB63:
  91              		.file 1 "RelayTest.c"
   1:RelayTest.c   **** /* ========================================
   2:RelayTest.c   ****  *
   3:RelayTest.c   ****  * Copyright YOUR COMPANY, THE YEAR
   4:RelayTest.c   ****  * All Rights Reserved
   5:RelayTest.c   ****  * UNPUBLISHED, LICENSED SOFTWARE.
ARM GAS  C:\Users\MARTHN~1\AppData\Local\Temp\cc63NoI7.s 			page 3


   6:RelayTest.c   ****  *
   7:RelayTest.c   ****  * CONFIDENTIAL AND PROPRIETARY INFORMATION
   8:RelayTest.c   ****  * WHICH IS THE PROPERTY OF your company.
   9:RelayTest.c   ****  *
  10:RelayTest.c   ****  * ========================================
  11:RelayTest.c   **** */
  12:RelayTest.c   **** 
  13:RelayTest.c   **** #include <project.h>
  14:RelayTest.c   **** #include "CommonVariables.h"
  15:RelayTest.c   **** #include "RelayTest.h"
  16:RelayTest.c   **** #include "UART_115200_Functions.h"
  17:RelayTest.c   **** #include "UART_230400_Functions.h"
  18:RelayTest.c   **** #include "UART_460800_Functions.h"
  19:RelayTest.c   **** #include "CD4051BPW_Driver.h"
  20:RelayTest.c   **** 
  21:RelayTest.c   **** #define VOLTAGE_SYSTEM      120             // (Voltage * 10)
  22:RelayTest.c   **** #define TOLERANCE_VOLTAGE   6               // How many 0.1V off a reading can be and still be good
  23:RelayTest.c   **** #define CURRENT_LOAD        9              // (ohms)
  24:RelayTest.c   **** #define TOLERANCE_CURRENT   2 
  25:RelayTest.c   **** #define CONFIRM_TIME        100            // How many msec to show pass/fail for each step
  26:RelayTest.c   **** 
  27:RelayTest.c   **** static RxPacket_RelaySiren rxPacket_Relay;          // Inputs - 'D' relay to controller
  28:RelayTest.c   **** static RxPacket_RelaySiren * pRxPacket_Relay;       // UART_SIREN
  29:RelayTest.c   **** static RxPacket_RelaySiren rxPacket_RelaySiren;     // *** these are redundant 'D' packets 
  30:RelayTest.c   **** static RxPacket_RelaySiren * pRxPacket_RelaySiren;  // OVERLOAD
  31:RelayTest.c   **** 
  32:RelayTest.c   **** static TxPacket_RelaySiren txPacket_RelaySiren;         // SetRelayOutputs - 'I' (also 3,S,P) contr
  33:RelayTest.c   **** static TxPacket_RelaySiren * pTxPacket_RelaySiren;      // 
  34:RelayTest.c   **** 
  35:RelayTest.c   **** //static TxPacket_Relay txPacket_Relay;            
  36:RelayTest.c   **** //static TxPacket_Relay * pTxPacket_Relay;
  37:RelayTest.c   **** 
  38:RelayTest.c   **** //static RxPacket_Siren rxPacket_Siren;             // 'S' relay to siren
  39:RelayTest.c   **** //static RxPacket_Siren * pRxPacket_Siren;  
  40:RelayTest.c   **** 
  41:RelayTest.c   **** static Packet_H txPacket_H;          //     Packet 'H'
  42:RelayTest.c   **** static Packet_H * pTxPacket_H;      //
  43:RelayTest.c   **** 
  44:RelayTest.c   **** static Packet_H rxPacket_H;          //     Packet 'H'
  45:RelayTest.c   **** static Packet_H * pRxPacket_H;      //
  46:RelayTest.c   **** 
  47:RelayTest.c   **** static RxPacket_Quad txPacket_Quad;          //*** 
  48:RelayTest.c   **** static RxPacket_Quad * pTxPacket_Quad;      //***
  49:RelayTest.c   **** //RxPacket_Quad * getRxPacket_Quad(void);
  50:RelayTest.c   **** 
  51:RelayTest.c   **** //static RxPacket_RelaySiren rxPacket_Relay;          //     Packet 'D'
  52:RelayTest.c   **** //static RxPacket_RelaySiren * pRxPacket_Relay;      //
  53:RelayTest.c   **** 
  54:RelayTest.c   **** //------------GLOABAL variables--------------------
  55:RelayTest.c   **** 
  56:RelayTest.c   **** static uint16 RTest_20ms_isr_count = 0;
  57:RelayTest.c   **** static uint16 RTest_20ms_isr_EN = 0;
  58:RelayTest.c   **** 
  59:RelayTest.c   **** void StartTimeout(void);
  60:RelayTest.c   **** void StopTimeout(void);
  61:RelayTest.c   **** 
  62:RelayTest.c   **** enum DATA_TYPE_460800
ARM GAS  C:\Users\MARTHN~1\AppData\Local\Temp\cc63NoI7.s 			page 4


  63:RelayTest.c   **** { 
  64:RelayTest.c   ****     CTEST_AUDIO,        // This is for both cont and relay tests
  65:RelayTest.c   ****     CTEST_RTEST_QUAD,   // CTest/RTest - quad normal - (controller to relay, relay to quad)
  66:RelayTest.c   **** //    CTEST_A,            //*** needs to  (*** not used - only need to look for 'L' packet)
  67:RelayTest.c   **** //    QTEST_QUAD          // (*** not used - Quad-Controller packets - type 'C')
  68:RelayTest.c   **** };
  69:RelayTest.c   **** 
  70:RelayTest.c   **** enum MUX_460800_CHANNEL
  71:RelayTest.c   **** { 
  72:RelayTest.c   ****     CTEST_QUAD,       
  73:RelayTest.c   ****     CTEST_AUDIOSTREAM,
  74:RelayTest.c   ****     RTEST_QUAD_1,    
  75:RelayTest.c   ****     RTEST_QUAD_2,
  76:RelayTest.c   ****     RTEST_QUAD_3,
  77:RelayTest.c   ****     RTEST_QUAD_4,
  78:RelayTest.c   ****     RTEST_QUAD_5,
  79:RelayTest.c   ****     RTEST_QUAD_6,
  80:RelayTest.c   ****     RTEST_QUAD_7,
  81:RelayTest.c   ****     RTEST_QUAD_8            
  82:RelayTest.c   **** };
  83:RelayTest.c   **** 
  84:RelayTest.c   **** enum DEMUX_460800_CHANNEL
  85:RelayTest.c   **** { 
  86:RelayTest.c   ****     CTEST_OBDII_TX,     
  87:RelayTest.c   ****     RTEST_QUAD_TX,        
  88:RelayTest.c   ****     STEST_AUDIO_TX,
  89:RelayTest.c   **** };
  90:RelayTest.c   **** 
  91:RelayTest.c   **** enum MUX_DEMUX_230400_CHANNEL              
  92:RelayTest.c   **** { 
  93:RelayTest.c   ****     CTEST_RELAY, 
  94:RelayTest.c   ****     RTEST_CONT,
  95:RelayTest.c   ****     RTEST_SIREN,
  96:RelayTest.c   ****     STEST_RELAY            
  97:RelayTest.c   **** };
  98:RelayTest.c   **** 
  99:RelayTest.c   **** enum DATATYPE_115200         
 100:RelayTest.c   **** { 
 101:RelayTest.c   ****     RTEST_DLINK
 102:RelayTest.c   **** };
 103:RelayTest.c   **** enum MUX_115200_CHANNEL      
 104:RelayTest.c   **** { 
 105:RelayTest.c   ****     RTEST_DLINK1,    
 106:RelayTest.c   ****     RTEST_DLINK2,    
 107:RelayTest.c   ****     CTEST_USB_DEBUG,
 108:RelayTest.c   ****     DIAG_UART_RX        
 109:RelayTest.c   **** };
 110:RelayTest.c   **** 
 111:RelayTest.c   **** // --------------Test steps---------------
 112:RelayTest.c   **** #define NUMBER_TEST_STEPS   11
 113:RelayTest.c   **** static uint16 RTest_TimeoutCount[NUMBER_TEST_STEPS] = {50,200,100,200,50,100,100,50,100,15000,50}; 
 114:RelayTest.c   **** 
 115:RelayTest.c   **** static uint8 RTestStatus[NUMBER_TEST_STEPS];
 116:RelayTest.c   **** 
 117:RelayTest.c   **** enum TestStep               // *** (relay firmware needs the 'H' packet payload count updated)
 118:RelayTest.c   **** { 
 119:RelayTest.c   ****     INITIALIZE_TEST,    // COMPLETE
ARM GAS  C:\Users\MARTHN~1\AppData\Local\Temp\cc63NoI7.s 			page 5


 120:RelayTest.c   ****     SIREN_EN,           // COMPLETE
 121:RelayTest.c   ****     TEST_OUTPUTS,       // COMPLETE
 122:RelayTest.c   ****     DATALINK,           // COMPLETE
 123:RelayTest.c   ****     QUAD_PORTS,         // COMPLETE
 124:RelayTest.c   ****     UART_SIREN,         // COMPLETE
 125:RelayTest.c   ****     INPUTS,             // COMPLETE
 126:RelayTest.c   ****     VBATT,              // COMPLETE
 127:RelayTest.c   ****     BLOCK_CURRENTS,     // COMPLETE
 128:RelayTest.c   ****     GPS,                // (unused)(passing when disconnected right now)
 129:RelayTest.c   ****     PASS                // COMPLETE 
 130:RelayTest.c   **** };
 131:RelayTest.c   **** 
 132:RelayTest.c   **** 
 133:RelayTest.c   **** 
 134:RelayTest.c   **** //----------------------------------------
 135:RelayTest.c   **** // Main state machine for F1-Relay Test
 136:RelayTest.c   **** //----------------------------------------
 137:RelayTest.c   **** uint8 RelayTest(void)
 138:RelayTest.c   **** {
  92              		.loc 1 138 0
  93              		.cfi_startproc
  94              		@ args = 0, pretend = 0, frame = 8
  95              		@ frame_needed = 1, uses_anonymous_args = 0
  96 0000 80B5     		push	{r7, lr}
  97              		.cfi_def_cfa_offset 8
  98              		.cfi_offset 7, -8
  99              		.cfi_offset 14, -4
 100 0002 82B0     		sub	sp, sp, #8
 101              		.cfi_def_cfa_offset 16
 102 0004 00AF     		add	r7, sp, #0
 103              		.cfi_def_cfa_register 7
 139:RelayTest.c   ****     
 140:RelayTest.c   ****     switch(CurrentTest.TestStep)
 104              		.loc 1 140 0
 105 0006 B34B     		ldr	r3, .L60
 106 0008 5B78     		ldrb	r3, [r3, #1]	@ zero_extendqisi2
 107 000a 0A2B     		cmp	r3, #10
 108 000c 00F20882 		bhi	.L2
 109 0010 01A2     		adr	r2, .L4
 110 0012 52F823F0 		ldr	pc, [r2, r3, lsl #2]
 111 0016 00BF     		.p2align 2
 112              	.L4:
 113 0018 45000000 		.word	.L3+1
 114 001c 2B010000 		.word	.L5+1
 115 0020 71010000 		.word	.L6+1
 116 0024 B7010000 		.word	.L7+1
 117 0028 FD010000 		.word	.L8+1
 118 002c 49020000 		.word	.L9+1
 119 0030 8F020000 		.word	.L10+1
 120 0034 E1020000 		.word	.L11+1
 121 0038 27030000 		.word	.L12+1
 122 003c 85030000 		.word	.L13+1
 123 0040 D1030000 		.word	.L14+1
 124              		.p2align 1
 125              	.L3:
 126              	.LBB2:
 141:RelayTest.c   ****     {   
ARM GAS  C:\Users\MARTHN~1\AppData\Local\Temp\cc63NoI7.s 			page 6


 142:RelayTest.c   ****                
 143:RelayTest.c   ****         case INITIALIZE_TEST:
 144:RelayTest.c   **** 
 145:RelayTest.c   ****             for (uint8 i=0;i<NUMBER_TEST_STEPS;i++)                 // Reset Status of aall test st
 127              		.loc 1 145 0
 128 0044 0023     		movs	r3, #0
 129 0046 FB71     		strb	r3, [r7, #7]
 130 0048 06E0     		b	.L15
 131              	.L16:
 146:RelayTest.c   ****                 RTestStatus[i] = '_';
 132              		.loc 1 146 0 discriminator 3
 133 004a FB79     		ldrb	r3, [r7, #7]	@ zero_extendqisi2
 134 004c A24A     		ldr	r2, .L60+4
 135 004e 5F21     		movs	r1, #95
 136 0050 D154     		strb	r1, [r2, r3]
 145:RelayTest.c   ****                 RTestStatus[i] = '_';
 137              		.loc 1 145 0 discriminator 3
 138 0052 FB79     		ldrb	r3, [r7, #7]	@ zero_extendqisi2
 139 0054 0133     		adds	r3, r3, #1
 140 0056 FB71     		strb	r3, [r7, #7]
 141              	.L15:
 145:RelayTest.c   ****                 RTestStatus[i] = '_';
 142              		.loc 1 145 0 is_stmt 0 discriminator 1
 143 0058 FB79     		ldrb	r3, [r7, #7]	@ zero_extendqisi2
 144 005a 0A2B     		cmp	r3, #10
 145 005c F5D9     		bls	.L16
 146              	.LBE2:
 147:RelayTest.c   ****                 
 148:RelayTest.c   ****             RTestStatus[CurrentTest.TestStep] = 'I';
 147              		.loc 1 148 0 is_stmt 1
 148 005e 9D4B     		ldr	r3, .L60
 149 0060 5B78     		ldrb	r3, [r3, #1]	@ zero_extendqisi2
 150 0062 1A46     		mov	r2, r3
 151 0064 9C4B     		ldr	r3, .L60+4
 152 0066 4921     		movs	r1, #73
 153 0068 9954     		strb	r1, [r3, r2]
 149:RelayTest.c   ****             CurrentTest.Status = 'I'; 
 154              		.loc 1 149 0
 155 006a 9A4B     		ldr	r3, .L60
 156 006c 4922     		movs	r2, #73
 157 006e 9A70     		strb	r2, [r3, #2]
 150:RelayTest.c   **** 
 151:RelayTest.c   ****             pTxPacket_RelaySiren = getTxPacket_RelaySiren();        // Tx - Initialize TX_RelaySire
 158              		.loc 1 151 0
 159 0070 FFF7FEFF 		bl	getTxPacket_RelaySiren
 160 0074 0246     		mov	r2, r0
 161 0076 994B     		ldr	r3, .L60+8
 162 0078 1A60     		str	r2, [r3]
 163              	.LBB3:
 152:RelayTest.c   ****             for(uint8 i;i<79;i++)
 164              		.loc 1 152 0
 165 007a 07E0     		b	.L17
 166              	.L18:
 153:RelayTest.c   ****                 pTxPacket_RelaySiren->bytes[i] = 0;
 167              		.loc 1 153 0 discriminator 2
 168 007c 974B     		ldr	r3, .L60+8
 169 007e 1A68     		ldr	r2, [r3]
ARM GAS  C:\Users\MARTHN~1\AppData\Local\Temp\cc63NoI7.s 			page 7


 170 0080 BB79     		ldrb	r3, [r7, #6]	@ zero_extendqisi2
 171 0082 0021     		movs	r1, #0
 172 0084 D154     		strb	r1, [r2, r3]
 152:RelayTest.c   ****             for(uint8 i;i<79;i++)
 173              		.loc 1 152 0 discriminator 2
 174 0086 BB79     		ldrb	r3, [r7, #6]	@ zero_extendqisi2
 175 0088 0133     		adds	r3, r3, #1
 176 008a BB71     		strb	r3, [r7, #6]
 177              	.L17:
 152:RelayTest.c   ****             for(uint8 i;i<79;i++)
 178              		.loc 1 152 0 is_stmt 0 discriminator 1
 179 008c BB79     		ldrb	r3, [r7, #6]	@ zero_extendqisi2
 180 008e 4E2B     		cmp	r3, #78
 181 0090 F4D9     		bls	.L18
 182              	.LBE3:
 154:RelayTest.c   **** 
 155:RelayTest.c   ****             pTxPacket_RelaySiren->Payload.StartByte_FLB = '~';
 183              		.loc 1 155 0 is_stmt 1
 184 0092 924B     		ldr	r3, .L60+8
 185 0094 1B68     		ldr	r3, [r3]
 186 0096 7E22     		movs	r2, #126
 187 0098 83F83520 		strb	r2, [r3, #53]
 156:RelayTest.c   ****             pTxPacket_RelaySiren->Payload.FLB_PacketType = '3';
 188              		.loc 1 156 0
 189 009c 8F4B     		ldr	r3, .L60+8
 190 009e 1B68     		ldr	r3, [r3]
 191 00a0 3322     		movs	r2, #51
 192 00a2 83F83620 		strb	r2, [r3, #54]
 157:RelayTest.c   ****             pTxPacket_RelaySiren->Payload.StopByte1_FLB = 0x0D;
 193              		.loc 1 157 0
 194 00a6 8D4B     		ldr	r3, .L60+8
 195 00a8 1B68     		ldr	r3, [r3]
 196 00aa 0D22     		movs	r2, #13
 197 00ac 83F83A20 		strb	r2, [r3, #58]
 158:RelayTest.c   ****             pTxPacket_RelaySiren->Payload.StopByte2_FLB = 0x0A;    
 198              		.loc 1 158 0
 199 00b0 8A4B     		ldr	r3, .L60+8
 200 00b2 1B68     		ldr	r3, [r3]
 201 00b4 0A22     		movs	r2, #10
 202 00b6 83F83B20 		strb	r2, [r3, #59]
 159:RelayTest.c   ****             pTxPacket_RelaySiren->Payload.StartByte1_Siren = '~';    
 203              		.loc 1 159 0
 204 00ba 884B     		ldr	r3, .L60+8
 205 00bc 1B68     		ldr	r3, [r3]
 206 00be 7E22     		movs	r2, #126
 207 00c0 83F83C20 		strb	r2, [r3, #60]
 160:RelayTest.c   ****             pTxPacket_RelaySiren->Payload.Siren_PacketType = 'S';
 208              		.loc 1 160 0
 209 00c4 854B     		ldr	r3, .L60+8
 210 00c6 1B68     		ldr	r3, [r3]
 211 00c8 5322     		movs	r2, #83
 212 00ca 83F83D20 		strb	r2, [r3, #61]
 161:RelayTest.c   ****             pTxPacket_RelaySiren->Payload.StopByte1_Siren = 0x0D;
 213              		.loc 1 161 0
 214 00ce 834B     		ldr	r3, .L60+8
 215 00d0 1B68     		ldr	r3, [r3]
 216 00d2 0D22     		movs	r2, #13
ARM GAS  C:\Users\MARTHN~1\AppData\Local\Temp\cc63NoI7.s 			page 8


 217 00d4 83F84120 		strb	r2, [r3, #65]
 162:RelayTest.c   ****             pTxPacket_RelaySiren->Payload.StopByte2_Siren = 0x0A;                       
 218              		.loc 1 162 0
 219 00d8 804B     		ldr	r3, .L60+8
 220 00da 1B68     		ldr	r3, [r3]
 221 00dc 0A22     		movs	r2, #10
 222 00de 83F84220 		strb	r2, [r3, #66]
 163:RelayTest.c   ****             pTxPacket_RelaySiren->Payload.StartByte1_Relay = '~';
 223              		.loc 1 163 0
 224 00e2 7E4B     		ldr	r3, .L60+8
 225 00e4 1B68     		ldr	r3, [r3]
 226 00e6 7E22     		movs	r2, #126
 227 00e8 83F84320 		strb	r2, [r3, #67]
 164:RelayTest.c   ****             pTxPacket_RelaySiren->Payload.Relay_PacketType = 'P';
 228              		.loc 1 164 0
 229 00ec 7B4B     		ldr	r3, .L60+8
 230 00ee 1B68     		ldr	r3, [r3]
 231 00f0 5022     		movs	r2, #80
 232 00f2 83F84420 		strb	r2, [r3, #68]
 165:RelayTest.c   ****             pTxPacket_RelaySiren->Payload.StopByte1_Relay = 0x0D;
 233              		.loc 1 165 0
 234 00f6 794B     		ldr	r3, .L60+8
 235 00f8 1B68     		ldr	r3, [r3]
 236 00fa 0D22     		movs	r2, #13
 237 00fc 83F84D20 		strb	r2, [r3, #77]
 166:RelayTest.c   ****             pTxPacket_RelaySiren->Payload.StopByte2_Relay = 0x0A;                    
 238              		.loc 1 166 0
 239 0100 764B     		ldr	r3, .L60+8
 240 0102 1B68     		ldr	r3, [r3]
 241 0104 0A22     		movs	r2, #10
 242 0106 83F84E20 		strb	r2, [r3, #78]
 167:RelayTest.c   ****             
 168:RelayTest.c   ****                 
 169:RelayTest.c   ****                 
 170:RelayTest.c   ****             // Deactivate each input
 171:RelayTest.c   ****             // RTest_HSide1_Write(0);
 172:RelayTest.c   ****             // RTest_HSide2_Write(0);
 173:RelayTest.c   ****             // RTest_HSide3_Write(0);
 174:RelayTest.c   ****             // RTest_HSide4_Write(0);
 175:RelayTest.c   ****             // RTest_HSide5_Write(0);
 176:RelayTest.c   ****             // RTest_HSide6_Write(0);
 177:RelayTest.c   ****             // RTest_HSide7_Write(0);
 178:RelayTest.c   ****             // RTest_HSide8_Write(0);
 179:RelayTest.c   ****                 
 180:RelayTest.c   ****             RTestStatus[CurrentTest.TestStep] = 'P';
 243              		.loc 1 180 0
 244 010a 724B     		ldr	r3, .L60
 245 010c 5B78     		ldrb	r3, [r3, #1]	@ zero_extendqisi2
 246 010e 1A46     		mov	r2, r3
 247 0110 714B     		ldr	r3, .L60+4
 248 0112 5021     		movs	r1, #80
 249 0114 9954     		strb	r1, [r3, r2]
 181:RelayTest.c   ****             CurrentTest.Status = 'P'; 
 250              		.loc 1 181 0
 251 0116 6F4B     		ldr	r3, .L60
 252 0118 5022     		movs	r2, #80
 253 011a 9A70     		strb	r2, [r3, #2]
ARM GAS  C:\Users\MARTHN~1\AppData\Local\Temp\cc63NoI7.s 			page 9


 182:RelayTest.c   ****                     
 183:RelayTest.c   ****             CyDelay(CONFIRM_TIME);
 254              		.loc 1 183 0
 255 011c 6420     		movs	r0, #100
 256 011e FFF7FEFF 		bl	CyDelay
 184:RelayTest.c   ****             
 185:RelayTest.c   ****             //CurrentTest.TestStep = INITIALIZE_TEST;
 186:RelayTest.c   ****             CurrentTest.TestStep = SIREN_EN;
 257              		.loc 1 186 0
 258 0122 6C4B     		ldr	r3, .L60
 259 0124 0122     		movs	r2, #1
 260 0126 5A70     		strb	r2, [r3, #1]
 187:RelayTest.c   ****             //CurrentTest.TestStep = TEST_OUTPUTS;
 188:RelayTest.c   ****             //CurrentTest.TestStep = DATALINK;
 189:RelayTest.c   ****             //CurrentTest.TestStep = QUAD_PORTS;
 190:RelayTest.c   ****             //CurrentTest.TestStep = UART_SIREN;
 191:RelayTest.c   ****             //CurrentTest.TestStep = INPUTS;
 192:RelayTest.c   ****             //CurrentTest.TestStep = VBATT; 
 193:RelayTest.c   ****             //CurrentTest.TestStep = BLOCK_CURRENTS; 
 194:RelayTest.c   ****             //CurrentTest.TestStep = GPS; 
 195:RelayTest.c   ****                    
 196:RelayTest.c   ****         break;
 261              		.loc 1 196 0
 262 0128 7AE1     		b	.L2
 263              	.L5:
 197:RelayTest.c   ****              
 198:RelayTest.c   ****         case SIREN_EN:
 199:RelayTest.c   ****                        
 200:RelayTest.c   ****             RTest_StartAutomatedStep(); 
 264              		.loc 1 200 0
 265 012a FFF7FEFF 		bl	RTest_StartAutomatedStep
 201:RelayTest.c   ****              
 202:RelayTest.c   ****             while( (!RTest_SIREN_EN_Read()) && (RTestStatus[CurrentTest.TestStep] != 'F') )        
 266              		.loc 1 202 0
 267 012e 00BF     		nop
 268              	.L20:
 269              		.loc 1 202 0 is_stmt 0 discriminator 2
 270 0130 FFF7FEFF 		bl	RTest_SIREN_EN_Read
 271 0134 0346     		mov	r3, r0
 272 0136 002B     		cmp	r3, #0
 273 0138 06D1     		bne	.L19
 274              		.loc 1 202 0 discriminator 1
 275 013a 664B     		ldr	r3, .L60
 276 013c 5B78     		ldrb	r3, [r3, #1]	@ zero_extendqisi2
 277 013e 1A46     		mov	r2, r3
 278 0140 654B     		ldr	r3, .L60+4
 279 0142 9B5C     		ldrb	r3, [r3, r2]	@ zero_extendqisi2
 280 0144 462B     		cmp	r3, #70
 281 0146 F3D1     		bne	.L20
 282              	.L19:
 203:RelayTest.c   ****             {} 
 204:RelayTest.c   **** 
 205:RelayTest.c   ****             RTest_StopAutomatedStep();
 283              		.loc 1 205 0 is_stmt 1
 284 0148 FFF7FEFF 		bl	RTest_StopAutomatedStep
 206:RelayTest.c   ****             
 207:RelayTest.c   ****             CyDelay(CONFIRM_TIME);
ARM GAS  C:\Users\MARTHN~1\AppData\Local\Temp\cc63NoI7.s 			page 10


 285              		.loc 1 207 0
 286 014c 6420     		movs	r0, #100
 287 014e FFF7FEFF 		bl	CyDelay
 208:RelayTest.c   ****             
 209:RelayTest.c   ****             if(RTestStatus[CurrentTest.TestStep] == 'F')
 288              		.loc 1 209 0
 289 0152 604B     		ldr	r3, .L60
 290 0154 5B78     		ldrb	r3, [r3, #1]	@ zero_extendqisi2
 291 0156 1A46     		mov	r2, r3
 292 0158 5F4B     		ldr	r3, .L60+4
 293 015a 9B5C     		ldrb	r3, [r3, r2]	@ zero_extendqisi2
 294 015c 462B     		cmp	r3, #70
 295 015e 03D1     		bne	.L21
 210:RelayTest.c   ****             {
 211:RelayTest.c   ****                 CurrentTest.TestStep = PASS;
 296              		.loc 1 211 0
 297 0160 5C4B     		ldr	r3, .L60
 298 0162 0A22     		movs	r2, #10
 299 0164 5A70     		strb	r2, [r3, #1]
 212:RelayTest.c   ****             }
 213:RelayTest.c   ****             else
 214:RelayTest.c   ****             {
 215:RelayTest.c   ****                 //CurrentTest.TestStep = INITIALIZE_TEST;
 216:RelayTest.c   ****                 CurrentTest.TestStep = TEST_OUTPUTS;   
 217:RelayTest.c   ****             }
 218:RelayTest.c   ****             
 219:RelayTest.c   ****         break;    
 300              		.loc 1 219 0
 301 0166 5BE1     		b	.L2
 302              	.L21:
 216:RelayTest.c   ****             }
 303              		.loc 1 216 0
 304 0168 5A4B     		ldr	r3, .L60
 305 016a 0222     		movs	r2, #2
 306 016c 5A70     		strb	r2, [r3, #1]
 307              		.loc 1 219 0
 308 016e 57E1     		b	.L2
 309              	.L6:
 220:RelayTest.c   ****               
 221:RelayTest.c   ****         case TEST_OUTPUTS:  
 222:RelayTest.c   ****                 
 223:RelayTest.c   ****             RTest_StartAutomatedStep(); 
 310              		.loc 1 223 0
 311 0170 FFF7FEFF 		bl	RTest_StartAutomatedStep
 224:RelayTest.c   ****             
 225:RelayTest.c   ****             while( (!RTest_Test_Outputs()) && (RTestStatus[CurrentTest.TestStep] != 'F') )    // Wa
 312              		.loc 1 225 0
 313 0174 00BF     		nop
 314              	.L24:
 315              		.loc 1 225 0 is_stmt 0 discriminator 2
 316 0176 FFF7FEFF 		bl	RTest_Test_Outputs
 317 017a 0346     		mov	r3, r0
 318 017c 002B     		cmp	r3, #0
 319 017e 06D1     		bne	.L23
 320              		.loc 1 225 0 discriminator 1
 321 0180 544B     		ldr	r3, .L60
 322 0182 5B78     		ldrb	r3, [r3, #1]	@ zero_extendqisi2
ARM GAS  C:\Users\MARTHN~1\AppData\Local\Temp\cc63NoI7.s 			page 11


 323 0184 1A46     		mov	r2, r3
 324 0186 544B     		ldr	r3, .L60+4
 325 0188 9B5C     		ldrb	r3, [r3, r2]	@ zero_extendqisi2
 326 018a 462B     		cmp	r3, #70
 327 018c F3D1     		bne	.L24
 328              	.L23:
 226:RelayTest.c   ****             {}  
 227:RelayTest.c   ****             
 228:RelayTest.c   ****             RTest_StopAutomatedStep();
 329              		.loc 1 228 0 is_stmt 1
 330 018e FFF7FEFF 		bl	RTest_StopAutomatedStep
 229:RelayTest.c   ****             
 230:RelayTest.c   ****             CyDelay(CONFIRM_TIME);
 331              		.loc 1 230 0
 332 0192 6420     		movs	r0, #100
 333 0194 FFF7FEFF 		bl	CyDelay
 231:RelayTest.c   ****             
 232:RelayTest.c   ****             if(RTestStatus[CurrentTest.TestStep] == 'F')
 334              		.loc 1 232 0
 335 0198 4E4B     		ldr	r3, .L60
 336 019a 5B78     		ldrb	r3, [r3, #1]	@ zero_extendqisi2
 337 019c 1A46     		mov	r2, r3
 338 019e 4E4B     		ldr	r3, .L60+4
 339 01a0 9B5C     		ldrb	r3, [r3, r2]	@ zero_extendqisi2
 340 01a2 462B     		cmp	r3, #70
 341 01a4 03D1     		bne	.L25
 233:RelayTest.c   ****             {
 234:RelayTest.c   ****                 CurrentTest.TestStep = PASS;
 342              		.loc 1 234 0
 343 01a6 4B4B     		ldr	r3, .L60
 344 01a8 0A22     		movs	r2, #10
 345 01aa 5A70     		strb	r2, [r3, #1]
 235:RelayTest.c   ****             }
 236:RelayTest.c   ****             else
 237:RelayTest.c   ****             {
 238:RelayTest.c   ****                 //CurrentTest.TestStep = INITIALIZE_TEST;
 239:RelayTest.c   ****                 //CurrentTest.TestStep = TEST_OUTPUTS;
 240:RelayTest.c   ****                 CurrentTest.TestStep = DATALINK;    
 241:RelayTest.c   ****             }
 242:RelayTest.c   ****             
 243:RelayTest.c   ****         break;        
 346              		.loc 1 243 0
 347 01ac 38E1     		b	.L2
 348              	.L25:
 240:RelayTest.c   ****             }
 349              		.loc 1 240 0
 350 01ae 494B     		ldr	r3, .L60
 351 01b0 0322     		movs	r2, #3
 352 01b2 5A70     		strb	r2, [r3, #1]
 353              		.loc 1 243 0
 354 01b4 34E1     		b	.L2
 355              	.L7:
 244:RelayTest.c   ****               
 245:RelayTest.c   ****         case DATALINK: 
 246:RelayTest.c   **** 
 247:RelayTest.c   ****             RTest_StartAutomatedStep();
 356              		.loc 1 247 0
ARM GAS  C:\Users\MARTHN~1\AppData\Local\Temp\cc63NoI7.s 			page 12


 357 01b6 FFF7FEFF 		bl	RTest_StartAutomatedStep
 248:RelayTest.c   ****             
 249:RelayTest.c   ****             while( (!RTest_Test_DataLink()) && (RTestStatus[CurrentTest.TestStep] != 'F') )    // W
 358              		.loc 1 249 0
 359 01ba 00BF     		nop
 360              	.L28:
 361              		.loc 1 249 0 is_stmt 0 discriminator 2
 362 01bc FFF7FEFF 		bl	RTest_Test_DataLink
 363 01c0 0346     		mov	r3, r0
 364 01c2 002B     		cmp	r3, #0
 365 01c4 06D1     		bne	.L27
 366              		.loc 1 249 0 discriminator 1
 367 01c6 434B     		ldr	r3, .L60
 368 01c8 5B78     		ldrb	r3, [r3, #1]	@ zero_extendqisi2
 369 01ca 1A46     		mov	r2, r3
 370 01cc 424B     		ldr	r3, .L60+4
 371 01ce 9B5C     		ldrb	r3, [r3, r2]	@ zero_extendqisi2
 372 01d0 462B     		cmp	r3, #70
 373 01d2 F3D1     		bne	.L28
 374              	.L27:
 250:RelayTest.c   ****             {}          
 251:RelayTest.c   ****  
 252:RelayTest.c   ****             RTest_StopAutomatedStep();
 375              		.loc 1 252 0 is_stmt 1
 376 01d4 FFF7FEFF 		bl	RTest_StopAutomatedStep
 253:RelayTest.c   ****             
 254:RelayTest.c   ****             CyDelay(CONFIRM_TIME);
 377              		.loc 1 254 0
 378 01d8 6420     		movs	r0, #100
 379 01da FFF7FEFF 		bl	CyDelay
 255:RelayTest.c   ****             
 256:RelayTest.c   ****             if(RTestStatus[CurrentTest.TestStep] == 'F')
 380              		.loc 1 256 0
 381 01de 3D4B     		ldr	r3, .L60
 382 01e0 5B78     		ldrb	r3, [r3, #1]	@ zero_extendqisi2
 383 01e2 1A46     		mov	r2, r3
 384 01e4 3C4B     		ldr	r3, .L60+4
 385 01e6 9B5C     		ldrb	r3, [r3, r2]	@ zero_extendqisi2
 386 01e8 462B     		cmp	r3, #70
 387 01ea 03D1     		bne	.L29
 257:RelayTest.c   ****             {
 258:RelayTest.c   ****                 CurrentTest.TestStep = PASS;
 388              		.loc 1 258 0
 389 01ec 394B     		ldr	r3, .L60
 390 01ee 0A22     		movs	r2, #10
 391 01f0 5A70     		strb	r2, [r3, #1]
 259:RelayTest.c   ****             }
 260:RelayTest.c   ****             else
 261:RelayTest.c   ****             {
 262:RelayTest.c   ****                 //CurrentTest.TestStep = INITIALIZE_TEST;
 263:RelayTest.c   ****                 CurrentTest.TestStep = QUAD_PORTS; 
 264:RelayTest.c   ****             }
 265:RelayTest.c   ****             
 266:RelayTest.c   ****         break;  
 392              		.loc 1 266 0
 393 01f2 15E1     		b	.L2
 394              	.L29:
ARM GAS  C:\Users\MARTHN~1\AppData\Local\Temp\cc63NoI7.s 			page 13


 263:RelayTest.c   ****             }
 395              		.loc 1 263 0
 396 01f4 374B     		ldr	r3, .L60
 397 01f6 0422     		movs	r2, #4
 398 01f8 5A70     		strb	r2, [r3, #1]
 399              		.loc 1 266 0
 400 01fa 11E1     		b	.L2
 401              	.L8:
 267:RelayTest.c   ****             
 268:RelayTest.c   ****         case QUAD_PORTS: 
 269:RelayTest.c   ****                 
 270:RelayTest.c   ****             RTest_StartAutomatedStep();  
 402              		.loc 1 270 0
 403 01fc FFF7FEFF 		bl	RTest_StartAutomatedStep
 271:RelayTest.c   ****                 
 272:RelayTest.c   ****             DEMUX_CTRL_460800_Write(RTEST_QUAD_TX);             // Select TX xhannel
 404              		.loc 1 272 0
 405 0200 0120     		movs	r0, #1
 406 0202 FFF7FEFF 		bl	DEMUX_CTRL_460800_Write
 273:RelayTest.c   ****                       
 274:RelayTest.c   ****             while( (!RTest_Test_QuadPorts()) && (RTestStatus[CurrentTest.TestStep] != 'F') )    // 
 407              		.loc 1 274 0
 408 0206 00BF     		nop
 409              	.L32:
 410              		.loc 1 274 0 is_stmt 0 discriminator 2
 411 0208 FFF7FEFF 		bl	RTest_Test_QuadPorts
 412 020c 0346     		mov	r3, r0
 413 020e 002B     		cmp	r3, #0
 414 0210 06D1     		bne	.L31
 415              		.loc 1 274 0 discriminator 1
 416 0212 304B     		ldr	r3, .L60
 417 0214 5B78     		ldrb	r3, [r3, #1]	@ zero_extendqisi2
 418 0216 1A46     		mov	r2, r3
 419 0218 2F4B     		ldr	r3, .L60+4
 420 021a 9B5C     		ldrb	r3, [r3, r2]	@ zero_extendqisi2
 421 021c 462B     		cmp	r3, #70
 422 021e F3D1     		bne	.L32
 423              	.L31:
 275:RelayTest.c   ****             {}    
 276:RelayTest.c   ****             
 277:RelayTest.c   ****             RTest_StopAutomatedStep();
 424              		.loc 1 277 0 is_stmt 1
 425 0220 FFF7FEFF 		bl	RTest_StopAutomatedStep
 278:RelayTest.c   ****             
 279:RelayTest.c   ****             CyDelay(CONFIRM_TIME);
 426              		.loc 1 279 0
 427 0224 6420     		movs	r0, #100
 428 0226 FFF7FEFF 		bl	CyDelay
 280:RelayTest.c   ****                   
 281:RelayTest.c   ****             if(RTestStatus[CurrentTest.TestStep] == 'F')
 429              		.loc 1 281 0
 430 022a 2A4B     		ldr	r3, .L60
 431 022c 5B78     		ldrb	r3, [r3, #1]	@ zero_extendqisi2
 432 022e 1A46     		mov	r2, r3
 433 0230 294B     		ldr	r3, .L60+4
 434 0232 9B5C     		ldrb	r3, [r3, r2]	@ zero_extendqisi2
 435 0234 462B     		cmp	r3, #70
ARM GAS  C:\Users\MARTHN~1\AppData\Local\Temp\cc63NoI7.s 			page 14


 436 0236 03D1     		bne	.L33
 282:RelayTest.c   ****             {
 283:RelayTest.c   ****                 CurrentTest.TestStep = PASS;
 437              		.loc 1 283 0
 438 0238 264B     		ldr	r3, .L60
 439 023a 0A22     		movs	r2, #10
 440 023c 5A70     		strb	r2, [r3, #1]
 284:RelayTest.c   ****             }
 285:RelayTest.c   ****             else
 286:RelayTest.c   ****             {
 287:RelayTest.c   ****                 //CurrentTest.TestStep = INITIALIZE_TEST;
 288:RelayTest.c   ****                 CurrentTest.TestStep = UART_SIREN;   
 289:RelayTest.c   ****             }
 290:RelayTest.c   ****             
 291:RelayTest.c   ****         break;  
 441              		.loc 1 291 0
 442 023e EFE0     		b	.L2
 443              	.L33:
 288:RelayTest.c   ****             }
 444              		.loc 1 288 0
 445 0240 244B     		ldr	r3, .L60
 446 0242 0522     		movs	r2, #5
 447 0244 5A70     		strb	r2, [r3, #1]
 448              		.loc 1 291 0
 449 0246 EBE0     		b	.L2
 450              	.L9:
 292:RelayTest.c   ****                
 293:RelayTest.c   ****                 
 294:RelayTest.c   ****         case UART_SIREN: 
 295:RelayTest.c   ****                 
 296:RelayTest.c   ****             RTest_StartAutomatedStep();
 451              		.loc 1 296 0
 452 0248 FFF7FEFF 		bl	RTest_StartAutomatedStep
 297:RelayTest.c   ****                 
 298:RelayTest.c   ****             while( (!RTest_Test_UART_Siren()) && (RTestStatus[CurrentTest.TestStep] != 'F') )
 453              		.loc 1 298 0
 454 024c 00BF     		nop
 455              	.L36:
 456              		.loc 1 298 0 is_stmt 0 discriminator 2
 457 024e FFF7FEFF 		bl	RTest_Test_UART_Siren
 458 0252 0346     		mov	r3, r0
 459 0254 002B     		cmp	r3, #0
 460 0256 06D1     		bne	.L35
 461              		.loc 1 298 0 discriminator 1
 462 0258 1E4B     		ldr	r3, .L60
 463 025a 5B78     		ldrb	r3, [r3, #1]	@ zero_extendqisi2
 464 025c 1A46     		mov	r2, r3
 465 025e 1E4B     		ldr	r3, .L60+4
 466 0260 9B5C     		ldrb	r3, [r3, r2]	@ zero_extendqisi2
 467 0262 462B     		cmp	r3, #70
 468 0264 F3D1     		bne	.L36
 469              	.L35:
 299:RelayTest.c   ****             {}    
 300:RelayTest.c   ****             
 301:RelayTest.c   ****             RTest_StopAutomatedStep();
 470              		.loc 1 301 0 is_stmt 1
 471 0266 FFF7FEFF 		bl	RTest_StopAutomatedStep
ARM GAS  C:\Users\MARTHN~1\AppData\Local\Temp\cc63NoI7.s 			page 15


 302:RelayTest.c   ****             
 303:RelayTest.c   ****             CyDelay(CONFIRM_TIME);
 472              		.loc 1 303 0
 473 026a 6420     		movs	r0, #100
 474 026c FFF7FEFF 		bl	CyDelay
 304:RelayTest.c   ****  
 305:RelayTest.c   ****             if(RTestStatus[CurrentTest.TestStep] == 'F')
 475              		.loc 1 305 0
 476 0270 184B     		ldr	r3, .L60
 477 0272 5B78     		ldrb	r3, [r3, #1]	@ zero_extendqisi2
 478 0274 1A46     		mov	r2, r3
 479 0276 184B     		ldr	r3, .L60+4
 480 0278 9B5C     		ldrb	r3, [r3, r2]	@ zero_extendqisi2
 481 027a 462B     		cmp	r3, #70
 482 027c 03D1     		bne	.L37
 306:RelayTest.c   ****             {
 307:RelayTest.c   ****                 CurrentTest.TestStep = PASS;
 483              		.loc 1 307 0
 484 027e 154B     		ldr	r3, .L60
 485 0280 0A22     		movs	r2, #10
 486 0282 5A70     		strb	r2, [r3, #1]
 308:RelayTest.c   ****             }
 309:RelayTest.c   ****             else
 310:RelayTest.c   ****             {
 311:RelayTest.c   ****                 //CurrentTest.TestStep = INITIALIZE_TEST;  
 312:RelayTest.c   ****                 CurrentTest.TestStep = INPUTS;    
 313:RelayTest.c   ****                 //CurrentTest.TestStep = UART_SIREN;  
 314:RelayTest.c   ****             }
 315:RelayTest.c   ****             
 316:RelayTest.c   ****         break;  
 487              		.loc 1 316 0
 488 0284 CCE0     		b	.L2
 489              	.L37:
 312:RelayTest.c   ****                 //CurrentTest.TestStep = UART_SIREN;  
 490              		.loc 1 312 0
 491 0286 134B     		ldr	r3, .L60
 492 0288 0622     		movs	r2, #6
 493 028a 5A70     		strb	r2, [r3, #1]
 494              		.loc 1 316 0
 495 028c C8E0     		b	.L2
 496              	.L10:
 317:RelayTest.c   ****               
 318:RelayTest.c   ****         case INPUTS:          
 319:RelayTest.c   ****                 
 320:RelayTest.c   ****             RTest_StartAutomatedStep();          
 497              		.loc 1 320 0
 498 028e FFF7FEFF 		bl	RTest_StartAutomatedStep
 321:RelayTest.c   ****                 
 322:RelayTest.c   ****             while( (!RTest_Test_Inputs()) && (RTestStatus[CurrentTest.TestStep] != 'F') )
 499              		.loc 1 322 0
 500 0292 00BF     		nop
 501              	.L40:
 502              		.loc 1 322 0 is_stmt 0 discriminator 2
 503 0294 FFF7FEFF 		bl	RTest_Test_Inputs
 504 0298 0346     		mov	r3, r0
 505 029a 002B     		cmp	r3, #0
 506 029c 06D1     		bne	.L39
ARM GAS  C:\Users\MARTHN~1\AppData\Local\Temp\cc63NoI7.s 			page 16


 507              		.loc 1 322 0 discriminator 1
 508 029e 0D4B     		ldr	r3, .L60
 509 02a0 5B78     		ldrb	r3, [r3, #1]	@ zero_extendqisi2
 510 02a2 1A46     		mov	r2, r3
 511 02a4 0C4B     		ldr	r3, .L60+4
 512 02a6 9B5C     		ldrb	r3, [r3, r2]	@ zero_extendqisi2
 513 02a8 462B     		cmp	r3, #70
 514 02aa F3D1     		bne	.L40
 515              	.L39:
 323:RelayTest.c   ****             {}   
 324:RelayTest.c   ****             
 325:RelayTest.c   ****             RTest_StopAutomatedStep();
 516              		.loc 1 325 0 is_stmt 1
 517 02ac FFF7FEFF 		bl	RTest_StopAutomatedStep
 326:RelayTest.c   ****             
 327:RelayTest.c   ****             CyDelay(CONFIRM_TIME);
 518              		.loc 1 327 0
 519 02b0 6420     		movs	r0, #100
 520 02b2 FFF7FEFF 		bl	CyDelay
 328:RelayTest.c   ****              
 329:RelayTest.c   ****             if(RTestStatus[CurrentTest.TestStep] == 'F')
 521              		.loc 1 329 0
 522 02b6 074B     		ldr	r3, .L60
 523 02b8 5B78     		ldrb	r3, [r3, #1]	@ zero_extendqisi2
 524 02ba 1A46     		mov	r2, r3
 525 02bc 064B     		ldr	r3, .L60+4
 526 02be 9B5C     		ldrb	r3, [r3, r2]	@ zero_extendqisi2
 527 02c0 462B     		cmp	r3, #70
 528 02c2 03D1     		bne	.L41
 330:RelayTest.c   ****             {
 331:RelayTest.c   ****                 CurrentTest.TestStep = PASS;
 529              		.loc 1 331 0
 530 02c4 034B     		ldr	r3, .L60
 531 02c6 0A22     		movs	r2, #10
 532 02c8 5A70     		strb	r2, [r3, #1]
 332:RelayTest.c   ****             }
 333:RelayTest.c   ****             else
 334:RelayTest.c   ****             {
 335:RelayTest.c   ****                 //CurrentTest.TestStep = INITIALIZE_TEST;  
 336:RelayTest.c   ****                 CurrentTest.TestStep = VBATT;  
 337:RelayTest.c   ****             }
 338:RelayTest.c   ****             
 339:RelayTest.c   ****         break;          
 533              		.loc 1 339 0
 534 02ca A9E0     		b	.L2
 535              	.L41:
 336:RelayTest.c   ****             }
 536              		.loc 1 336 0
 537 02cc 014B     		ldr	r3, .L60
 538 02ce 0722     		movs	r2, #7
 539 02d0 5A70     		strb	r2, [r3, #1]
 540              		.loc 1 339 0
 541 02d2 A5E0     		b	.L2
 542              	.L61:
 543              		.align	2
 544              	.L60:
 545 02d4 00000000 		.word	CurrentTest
ARM GAS  C:\Users\MARTHN~1\AppData\Local\Temp\cc63NoI7.s 			page 17


 546 02d8 0C010000 		.word	RTestStatus
 547 02dc 78000000 		.word	pTxPacket_RelaySiren
 548              	.L11:
 340:RelayTest.c   **** 
 341:RelayTest.c   ****         case VBATT:                                     // Tested and working
 342:RelayTest.c   ****                 
 343:RelayTest.c   ****             RTest_StartAutomatedStep();
 549              		.loc 1 343 0
 550 02e0 FFF7FEFF 		bl	RTest_StartAutomatedStep
 344:RelayTest.c   ****                 
 345:RelayTest.c   ****             while( (!RTest_Test_Vbatt()) && (RTestStatus[CurrentTest.TestStep] != 'F') )
 551              		.loc 1 345 0
 552 02e4 00BF     		nop
 553              	.L44:
 554              		.loc 1 345 0 is_stmt 0 discriminator 2
 555 02e6 FFF7FEFF 		bl	RTest_Test_Vbatt
 556 02ea 0346     		mov	r3, r0
 557 02ec 002B     		cmp	r3, #0
 558 02ee 06D1     		bne	.L43
 559              		.loc 1 345 0 discriminator 1
 560 02f0 4E4B     		ldr	r3, .L62
 561 02f2 5B78     		ldrb	r3, [r3, #1]	@ zero_extendqisi2
 562 02f4 1A46     		mov	r2, r3
 563 02f6 4E4B     		ldr	r3, .L62+4
 564 02f8 9B5C     		ldrb	r3, [r3, r2]	@ zero_extendqisi2
 565 02fa 462B     		cmp	r3, #70
 566 02fc F3D1     		bne	.L44
 567              	.L43:
 346:RelayTest.c   ****             {}    
 347:RelayTest.c   ****             
 348:RelayTest.c   ****             RTest_StopAutomatedStep();
 568              		.loc 1 348 0 is_stmt 1
 569 02fe FFF7FEFF 		bl	RTest_StopAutomatedStep
 349:RelayTest.c   ****             
 350:RelayTest.c   ****             CyDelay(CONFIRM_TIME);
 570              		.loc 1 350 0
 571 0302 6420     		movs	r0, #100
 572 0304 FFF7FEFF 		bl	CyDelay
 351:RelayTest.c   ****              
 352:RelayTest.c   ****             if(RTestStatus[CurrentTest.TestStep] == 'F')
 573              		.loc 1 352 0
 574 0308 484B     		ldr	r3, .L62
 575 030a 5B78     		ldrb	r3, [r3, #1]	@ zero_extendqisi2
 576 030c 1A46     		mov	r2, r3
 577 030e 484B     		ldr	r3, .L62+4
 578 0310 9B5C     		ldrb	r3, [r3, r2]	@ zero_extendqisi2
 579 0312 462B     		cmp	r3, #70
 580 0314 03D1     		bne	.L45
 353:RelayTest.c   ****             {
 354:RelayTest.c   ****                 CurrentTest.TestStep = PASS;
 581              		.loc 1 354 0
 582 0316 454B     		ldr	r3, .L62
 583 0318 0A22     		movs	r2, #10
 584 031a 5A70     		strb	r2, [r3, #1]
 355:RelayTest.c   ****             }
 356:RelayTest.c   ****             else
 357:RelayTest.c   ****             {
ARM GAS  C:\Users\MARTHN~1\AppData\Local\Temp\cc63NoI7.s 			page 18


 358:RelayTest.c   ****                 //CurrentTest.TestStep = INITIALIZE_TEST; 
 359:RelayTest.c   ****                 CurrentTest.TestStep = BLOCK_CURRENTS; 
 360:RelayTest.c   ****             }
 361:RelayTest.c   ****             
 362:RelayTest.c   ****         break; 
 585              		.loc 1 362 0
 586 031c 80E0     		b	.L2
 587              	.L45:
 359:RelayTest.c   ****             }
 588              		.loc 1 359 0
 589 031e 434B     		ldr	r3, .L62
 590 0320 0822     		movs	r2, #8
 591 0322 5A70     		strb	r2, [r3, #1]
 592              		.loc 1 362 0
 593 0324 7CE0     		b	.L2
 594              	.L12:
 363:RelayTest.c   ****          
 364:RelayTest.c   ****         case BLOCK_CURRENTS:                            //*** Tested and working
 365:RelayTest.c   ****             
 366:RelayTest.c   ****             SetRelayOutputs(1);                         // Send command to turn on relay outputs
 595              		.loc 1 366 0
 596 0326 0120     		movs	r0, #1
 597 0328 FFF7FEFF 		bl	SetRelayOutputs
 367:RelayTest.c   ****                 
 368:RelayTest.c   ****             CyDelay(100);
 598              		.loc 1 368 0
 599 032c 6420     		movs	r0, #100
 600 032e FFF7FEFF 		bl	CyDelay
 369:RelayTest.c   ****             
 370:RelayTest.c   ****             RTest_StartAutomatedStep();
 601              		.loc 1 370 0
 602 0332 FFF7FEFF 		bl	RTest_StartAutomatedStep
 371:RelayTest.c   ****              
 372:RelayTest.c   ****             while( (!RTest_Test_BlockCurrents()) && (RTestStatus[CurrentTest.TestStep] != 'F') )
 603              		.loc 1 372 0
 604 0336 00BF     		nop
 605              	.L48:
 606              		.loc 1 372 0 is_stmt 0 discriminator 2
 607 0338 FFF7FEFF 		bl	RTest_Test_BlockCurrents
 608 033c 0346     		mov	r3, r0
 609 033e 002B     		cmp	r3, #0
 610 0340 06D1     		bne	.L47
 611              		.loc 1 372 0 discriminator 1
 612 0342 3A4B     		ldr	r3, .L62
 613 0344 5B78     		ldrb	r3, [r3, #1]	@ zero_extendqisi2
 614 0346 1A46     		mov	r2, r3
 615 0348 394B     		ldr	r3, .L62+4
 616 034a 9B5C     		ldrb	r3, [r3, r2]	@ zero_extendqisi2
 617 034c 462B     		cmp	r3, #70
 618 034e F3D1     		bne	.L48
 619              	.L47:
 373:RelayTest.c   ****             {} 
 374:RelayTest.c   ****             
 375:RelayTest.c   ****             RTest_StopAutomatedStep();
 620              		.loc 1 375 0 is_stmt 1
 621 0350 FFF7FEFF 		bl	RTest_StopAutomatedStep
 376:RelayTest.c   ****             
ARM GAS  C:\Users\MARTHN~1\AppData\Local\Temp\cc63NoI7.s 			page 19


 377:RelayTest.c   ****             SetRelayOutputs(0);                         // Send command to turn off relay outputs
 622              		.loc 1 377 0
 623 0354 0020     		movs	r0, #0
 624 0356 FFF7FEFF 		bl	SetRelayOutputs
 378:RelayTest.c   ****             CyDelay(100);
 625              		.loc 1 378 0
 626 035a 6420     		movs	r0, #100
 627 035c FFF7FEFF 		bl	CyDelay
 379:RelayTest.c   ****             CyDelay(CONFIRM_TIME);
 628              		.loc 1 379 0
 629 0360 6420     		movs	r0, #100
 630 0362 FFF7FEFF 		bl	CyDelay
 380:RelayTest.c   ****              
 381:RelayTest.c   ****             if(RTestStatus[CurrentTest.TestStep] == 'F')
 631              		.loc 1 381 0
 632 0366 314B     		ldr	r3, .L62
 633 0368 5B78     		ldrb	r3, [r3, #1]	@ zero_extendqisi2
 634 036a 1A46     		mov	r2, r3
 635 036c 304B     		ldr	r3, .L62+4
 636 036e 9B5C     		ldrb	r3, [r3, r2]	@ zero_extendqisi2
 637 0370 462B     		cmp	r3, #70
 638 0372 03D1     		bne	.L49
 382:RelayTest.c   ****             {
 383:RelayTest.c   ****                 CurrentTest.TestStep = PASS;
 639              		.loc 1 383 0
 640 0374 2D4B     		ldr	r3, .L62
 641 0376 0A22     		movs	r2, #10
 642 0378 5A70     		strb	r2, [r3, #1]
 384:RelayTest.c   ****             }
 385:RelayTest.c   ****             else
 386:RelayTest.c   ****             {
 387:RelayTest.c   ****                 //CurrentTest.TestStep = INITIALIZE_TEST;
 388:RelayTest.c   ****                 //CurrentTest.TestStep = GPS;
 389:RelayTest.c   ****                 CurrentTest.TestStep = PASS;
 390:RelayTest.c   ****             }
 391:RelayTest.c   ****             
 392:RelayTest.c   ****         break; 
 643              		.loc 1 392 0
 644 037a 51E0     		b	.L2
 645              	.L49:
 389:RelayTest.c   ****             }
 646              		.loc 1 389 0
 647 037c 2B4B     		ldr	r3, .L62
 648 037e 0A22     		movs	r2, #10
 649 0380 5A70     		strb	r2, [r3, #1]
 650              		.loc 1 392 0
 651 0382 4DE0     		b	.L2
 652              	.L13:
 393:RelayTest.c   ****           
 394:RelayTest.c   ****         case GPS:         
 395:RelayTest.c   ****                 
 396:RelayTest.c   ****             RTest_StartAutomatedStep();
 653              		.loc 1 396 0
 654 0384 FFF7FEFF 		bl	RTest_StartAutomatedStep
 397:RelayTest.c   **** //            RTestStatus[CurrentTest.TestStep] = 'B';
 398:RelayTest.c   **** //            CurrentTest.Status = 'B';
 399:RelayTest.c   ****             
ARM GAS  C:\Users\MARTHN~1\AppData\Local\Temp\cc63NoI7.s 			page 20


 400:RelayTest.c   ****             MUX_CTRL_230400_Write(RTEST_CONT);
 655              		.loc 1 400 0
 656 0388 0120     		movs	r0, #1
 657 038a FFF7FEFF 		bl	MUX_CTRL_230400_Write
 401:RelayTest.c   ****                
 402:RelayTest.c   ****             while( (!VerifyPacket_GPS()) && (RTestStatus[CurrentTest.TestStep] != 'F') )
 658              		.loc 1 402 0
 659 038e 00BF     		nop
 660              	.L52:
 661              		.loc 1 402 0 is_stmt 0 discriminator 2
 662 0390 FFF7FEFF 		bl	VerifyPacket_GPS
 663 0394 0346     		mov	r3, r0
 664 0396 002B     		cmp	r3, #0
 665 0398 06D1     		bne	.L51
 666              		.loc 1 402 0 discriminator 1
 667 039a 244B     		ldr	r3, .L62
 668 039c 5B78     		ldrb	r3, [r3, #1]	@ zero_extendqisi2
 669 039e 1A46     		mov	r2, r3
 670 03a0 234B     		ldr	r3, .L62+4
 671 03a2 9B5C     		ldrb	r3, [r3, r2]	@ zero_extendqisi2
 672 03a4 462B     		cmp	r3, #70
 673 03a6 F3D1     		bne	.L52
 674              	.L51:
 403:RelayTest.c   ****             {}        
 404:RelayTest.c   ****             
 405:RelayTest.c   ****             RTest_StopAutomatedStep();
 675              		.loc 1 405 0 is_stmt 1
 676 03a8 FFF7FEFF 		bl	RTest_StopAutomatedStep
 406:RelayTest.c   **** //            if(RTestStatus[CurrentTest.TestStep] != 'F')       // If not failed, then pass
 407:RelayTest.c   **** //            {
 408:RelayTest.c   **** //                RTestStatus[CurrentTest.TestStep] = 'P';
 409:RelayTest.c   **** //                CurrentTest.Status = 'P';
 410:RelayTest.c   **** //            }
 411:RelayTest.c   ****             
 412:RelayTest.c   ****             CyDelay(CONFIRM_TIME);
 677              		.loc 1 412 0
 678 03ac 6420     		movs	r0, #100
 679 03ae FFF7FEFF 		bl	CyDelay
 413:RelayTest.c   ****              
 414:RelayTest.c   ****             if(RTestStatus[CurrentTest.TestStep] == 'F')
 680              		.loc 1 414 0
 681 03b2 1E4B     		ldr	r3, .L62
 682 03b4 5B78     		ldrb	r3, [r3, #1]	@ zero_extendqisi2
 683 03b6 1A46     		mov	r2, r3
 684 03b8 1D4B     		ldr	r3, .L62+4
 685 03ba 9B5C     		ldrb	r3, [r3, r2]	@ zero_extendqisi2
 686 03bc 462B     		cmp	r3, #70
 687 03be 03D1     		bne	.L53
 415:RelayTest.c   ****             {
 416:RelayTest.c   ****                 CurrentTest.TestStep = PASS;
 688              		.loc 1 416 0
 689 03c0 1A4B     		ldr	r3, .L62
 690 03c2 0A22     		movs	r2, #10
 691 03c4 5A70     		strb	r2, [r3, #1]
 417:RelayTest.c   ****             }
 418:RelayTest.c   ****             else
 419:RelayTest.c   ****             {
ARM GAS  C:\Users\MARTHN~1\AppData\Local\Temp\cc63NoI7.s 			page 21


 420:RelayTest.c   ****                 //CurrentTest.TestStep = INITIALIZE_TEST; 
 421:RelayTest.c   ****                 CurrentTest.TestStep = PASS;
 422:RelayTest.c   ****             }
 423:RelayTest.c   ****             
 424:RelayTest.c   ****         break;   
 692              		.loc 1 424 0
 693 03c6 2BE0     		b	.L2
 694              	.L53:
 421:RelayTest.c   ****             }
 695              		.loc 1 421 0
 696 03c8 184B     		ldr	r3, .L62
 697 03ca 0A22     		movs	r2, #10
 698 03cc 5A70     		strb	r2, [r3, #1]
 699              		.loc 1 424 0
 700 03ce 27E0     		b	.L2
 701              	.L14:
 702              	.LBB4:
 425:RelayTest.c   ****             
 426:RelayTest.c   ****         case PASS:  
 427:RelayTest.c   ****             
 428:RelayTest.c   ****             for(uint8 i=0;i<(NUMBER_TEST_STEPS-2);i++)
 703              		.loc 1 428 0
 704 03d0 0023     		movs	r3, #0
 705 03d2 7B71     		strb	r3, [r7, #5]
 706 03d4 10E0     		b	.L55
 707              	.L57:
 429:RelayTest.c   ****             {
 430:RelayTest.c   ****                 if(RTestStatus[i] != 'P')
 708              		.loc 1 430 0
 709 03d6 7B79     		ldrb	r3, [r7, #5]	@ zero_extendqisi2
 710 03d8 154A     		ldr	r2, .L62+4
 711 03da D35C     		ldrb	r3, [r2, r3]	@ zero_extendqisi2
 712 03dc 502B     		cmp	r3, #80
 713 03de 08D0     		beq	.L56
 431:RelayTest.c   ****                 {
 432:RelayTest.c   ****                     RTestStatus[CurrentTest.TestStep] = 'f';
 714              		.loc 1 432 0
 715 03e0 124B     		ldr	r3, .L62
 716 03e2 5B78     		ldrb	r3, [r3, #1]	@ zero_extendqisi2
 717 03e4 1A46     		mov	r2, r3
 718 03e6 124B     		ldr	r3, .L62+4
 719 03e8 6621     		movs	r1, #102
 720 03ea 9954     		strb	r1, [r3, r2]
 433:RelayTest.c   ****                     CurrentTest.Status = 'f';                      
 721              		.loc 1 433 0
 722 03ec 0F4B     		ldr	r3, .L62
 723 03ee 6622     		movs	r2, #102
 724 03f0 9A70     		strb	r2, [r3, #2]
 725              	.L56:
 428:RelayTest.c   ****             {
 726              		.loc 1 428 0 discriminator 2
 727 03f2 7B79     		ldrb	r3, [r7, #5]	@ zero_extendqisi2
 728 03f4 0133     		adds	r3, r3, #1
 729 03f6 7B71     		strb	r3, [r7, #5]
 730              	.L55:
 428:RelayTest.c   ****             {
 731              		.loc 1 428 0 is_stmt 0 discriminator 1
ARM GAS  C:\Users\MARTHN~1\AppData\Local\Temp\cc63NoI7.s 			page 22


 732 03f8 7B79     		ldrb	r3, [r7, #5]	@ zero_extendqisi2
 733 03fa 082B     		cmp	r3, #8
 734 03fc EBD9     		bls	.L57
 735              	.LBE4:
 434:RelayTest.c   ****                 }    
 435:RelayTest.c   ****             }
 436:RelayTest.c   ****  
 437:RelayTest.c   ****             if(RTestStatus[CurrentTest.TestStep] != 'f')
 736              		.loc 1 437 0 is_stmt 1
 737 03fe 0B4B     		ldr	r3, .L62
 738 0400 5B78     		ldrb	r3, [r3, #1]	@ zero_extendqisi2
 739 0402 1A46     		mov	r2, r3
 740 0404 0A4B     		ldr	r3, .L62+4
 741 0406 9B5C     		ldrb	r3, [r3, r2]	@ zero_extendqisi2
 742 0408 662B     		cmp	r3, #102
 743 040a 08D0     		beq	.L58
 438:RelayTest.c   ****             {
 439:RelayTest.c   ****                 RTestStatus[CurrentTest.TestStep] = 'p';
 744              		.loc 1 439 0
 745 040c 074B     		ldr	r3, .L62
 746 040e 5B78     		ldrb	r3, [r3, #1]	@ zero_extendqisi2
 747 0410 1A46     		mov	r2, r3
 748 0412 074B     		ldr	r3, .L62+4
 749 0414 7021     		movs	r1, #112
 750 0416 9954     		strb	r1, [r3, r2]
 440:RelayTest.c   ****                 CurrentTest.Status = 'p'; 
 751              		.loc 1 440 0
 752 0418 044B     		ldr	r3, .L62
 753 041a 7022     		movs	r2, #112
 754 041c 9A70     		strb	r2, [r3, #2]
 755              	.L58:
 441:RelayTest.c   ****             }
 442:RelayTest.c   ****             
 443:RelayTest.c   ****             while(1);            
 756              		.loc 1 443 0 discriminator 1
 757 041e FEE7     		b	.L58
 758              	.L2:
 444:RelayTest.c   **** //            while(PB_NextAction_Read() != 1){};
 445:RelayTest.c   **** //            RTestStatus[CurrentTest.TestStep] = 'r';
 446:RelayTest.c   **** //            CurrentTest.Status = 'r'; 
 447:RelayTest.c   **** //            CyDelay(1000);
 448:RelayTest.c   **** //            CurrentTest.TestStep = INITIALIZE_TEST;
 449:RelayTest.c   **** 
 450:RelayTest.c   ****         break;          
 451:RelayTest.c   ****            
 452:RelayTest.c   ****     }
 453:RelayTest.c   ****       
 454:RelayTest.c   ****     return(0);
 759              		.loc 1 454 0
 760 0420 0023     		movs	r3, #0
 455:RelayTest.c   ****     
 456:RelayTest.c   **** }
 761              		.loc 1 456 0
 762 0422 1846     		mov	r0, r3
 763 0424 0837     		adds	r7, r7, #8
 764              		.cfi_def_cfa_offset 8
 765 0426 BD46     		mov	sp, r7
ARM GAS  C:\Users\MARTHN~1\AppData\Local\Temp\cc63NoI7.s 			page 23


 766              		.cfi_def_cfa_register 13
 767              		@ sp needed
 768 0428 80BD     		pop	{r7, pc}
 769              	.L63:
 770 042a 00BF     		.align	2
 771              	.L62:
 772 042c 00000000 		.word	CurrentTest
 773 0430 0C010000 		.word	RTestStatus
 774              		.cfi_endproc
 775              	.LFE63:
 776              		.size	RelayTest, .-RelayTest
 777              		.section	.text.RTest_Test_Outputs,"ax",%progbits
 778              		.align	2
 779              		.global	RTest_Test_Outputs
 780              		.thumb
 781              		.thumb_func
 782              		.type	RTest_Test_Outputs, %function
 783              	RTest_Test_Outputs:
 784              	.LFB64:
 457:RelayTest.c   **** 
 458:RelayTest.c   **** /* 230400bps ********************************************************************************
 459:RelayTest.c   **** *  Send 'P' packet (or 'I' packet)   (controller to relay)  - turn on all relay outputs
 460:RelayTest.c   **** *  Read Hardware                            - read each input, verify all are active
 461:RelayTest.c   **** *  Return: Pass/Fail
 462:RelayTest.c   **** *********************************************************************************************/
 463:RelayTest.c   **** uint8 RTest_Test_Outputs(void)
 464:RelayTest.c   **** {
 785              		.loc 1 464 0
 786              		.cfi_startproc
 787              		@ args = 0, pretend = 0, frame = 16
 788              		@ frame_needed = 1, uses_anonymous_args = 0
 789 0000 80B5     		push	{r7, lr}
 790              		.cfi_def_cfa_offset 8
 791              		.cfi_offset 7, -8
 792              		.cfi_offset 14, -4
 793 0002 84B0     		sub	sp, sp, #16
 794              		.cfi_def_cfa_offset 24
 795 0004 00AF     		add	r7, sp, #0
 796              		.cfi_def_cfa_register 7
 465:RelayTest.c   **** 
 466:RelayTest.c   ****     uint32 OutputsState = 0;
 797              		.loc 1 466 0
 798 0006 0023     		movs	r3, #0
 799 0008 FB60     		str	r3, [r7, #12]
 467:RelayTest.c   ****     uint32 testval = 0;
 800              		.loc 1 467 0
 801 000a 0023     		movs	r3, #0
 802 000c 7B60     		str	r3, [r7, #4]
 468:RelayTest.c   ****     
 469:RelayTest.c   ****     SetRelayOutputs(1);                                                     // Send command to turn
 803              		.loc 1 469 0
 804 000e 0120     		movs	r0, #1
 805 0010 FFF7FEFF 		bl	SetRelayOutputs
 806              	.LBB5:
 470:RelayTest.c   ****     //while(1);
 471:RelayTest.c   ****     for (uint8 channel=0; channel<32; channel++)                            // Address and read cha
 807              		.loc 1 471 0
ARM GAS  C:\Users\MARTHN~1\AppData\Local\Temp\cc63NoI7.s 			page 24


 808 0014 0023     		movs	r3, #0
 809 0016 FB72     		strb	r3, [r7, #11]
 810 0018 14E0     		b	.L65
 811              	.L66:
 472:RelayTest.c   ****     {
 473:RelayTest.c   ****         selectADCChannelMux(channel);                                       //*** This needs to be 
 812              		.loc 1 473 0 discriminator 3
 813 001a FB7A     		ldrb	r3, [r7, #11]	@ zero_extendqisi2
 814 001c 1846     		mov	r0, r3
 815 001e FFF7FEFF 		bl	selectADCChannelMux
 474:RelayTest.c   ****         CyDelay(1);
 816              		.loc 1 474 0 discriminator 3
 817 0022 0120     		movs	r0, #1
 818 0024 FFF7FEFF 		bl	CyDelay
 475:RelayTest.c   ****         testval = RTest_DEMUX_COM_Read();
 819              		.loc 1 475 0 discriminator 3
 820 0028 FFF7FEFF 		bl	RTest_DEMUX_COM_Read
 821 002c 0346     		mov	r3, r0
 822 002e 7B60     		str	r3, [r7, #4]
 476:RelayTest.c   **** 
 477:RelayTest.c   ****         OutputsState = ( OutputsState | (testval << channel) );             // Read RTest_INPUT_DEM
 823              		.loc 1 477 0 discriminator 3
 824 0030 FB7A     		ldrb	r3, [r7, #11]	@ zero_extendqisi2
 825 0032 7A68     		ldr	r2, [r7, #4]
 826 0034 02FA03F3 		lsl	r3, r2, r3
 827 0038 FA68     		ldr	r2, [r7, #12]
 828 003a 1343     		orrs	r3, r3, r2
 829 003c FB60     		str	r3, [r7, #12]
 471:RelayTest.c   ****     {
 830              		.loc 1 471 0 discriminator 3
 831 003e FB7A     		ldrb	r3, [r7, #11]	@ zero_extendqisi2
 832 0040 0133     		adds	r3, r3, #1
 833 0042 FB72     		strb	r3, [r7, #11]
 834              	.L65:
 471:RelayTest.c   ****     {
 835              		.loc 1 471 0 is_stmt 0 discriminator 1
 836 0044 FB7A     		ldrb	r3, [r7, #11]	@ zero_extendqisi2
 837 0046 1F2B     		cmp	r3, #31
 838 0048 E7D9     		bls	.L66
 839              	.LBE5:
 478:RelayTest.c   ****     }
 479:RelayTest.c   ****     
 480:RelayTest.c   ****     SetRelayOutputs(0);                                                     // Send command to turn
 840              		.loc 1 480 0 is_stmt 1
 841 004a 0020     		movs	r0, #0
 842 004c FFF7FEFF 		bl	SetRelayOutputs
 481:RelayTest.c   ****     
 482:RelayTest.c   ****     if(OutputsState == 0xFFFFFFFF)
 843              		.loc 1 482 0
 844 0050 FB68     		ldr	r3, [r7, #12]
 845 0052 B3F1FF3F 		cmp	r3, #-1
 846 0056 01D1     		bne	.L67
 483:RelayTest.c   ****         return(1);                                                          // If all outputs are t
 847              		.loc 1 483 0
 848 0058 0123     		movs	r3, #1
 849 005a 00E0     		b	.L68
 850              	.L67:
ARM GAS  C:\Users\MARTHN~1\AppData\Local\Temp\cc63NoI7.s 			page 25


 484:RelayTest.c   ****     else
 485:RelayTest.c   ****         return(0);                                                          // If not pass, then re
 851              		.loc 1 485 0
 852 005c 0023     		movs	r3, #0
 853              	.L68:
 486:RelayTest.c   **** }
 854              		.loc 1 486 0
 855 005e 1846     		mov	r0, r3
 856 0060 1037     		adds	r7, r7, #16
 857              		.cfi_def_cfa_offset 8
 858 0062 BD46     		mov	sp, r7
 859              		.cfi_def_cfa_register 13
 860              		@ sp needed
 861 0064 80BD     		pop	{r7, pc}
 862              		.cfi_endproc
 863              	.LFE64:
 864              		.size	RTest_Test_Outputs, .-RTest_Test_Outputs
 865 0066 00BF     		.section	.text.RTest_Test_DataLink,"ax",%progbits
 866              		.align	2
 867              		.global	RTest_Test_DataLink
 868              		.thumb
 869              		.thumb_func
 870              		.type	RTest_Test_DataLink, %function
 871              	RTest_Test_DataLink:
 872              	.LFB65:
 487:RelayTest.c   **** 
 488:RelayTest.c   **** /* 230400/115200bps **************************************************************************
 489:RelayTest.c   **** *  230400 - Tx - Send 'S' packet   (controller to relay/siren)    - turn on all relay outputs
 490:RelayTest.c   **** *  115200 - Rx - Read 'S' packet   (relay to datalink device)     - verify successful packet recept
 491:RelayTest.c   **** *  Return: Pass/Fail
 492:RelayTest.c   **** *********************************************************************************************/
 493:RelayTest.c   **** uint8 RTest_Test_DataLink(void)
 494:RelayTest.c   **** {
 873              		.loc 1 494 0
 874              		.cfi_startproc
 875              		@ args = 0, pretend = 0, frame = 0
 876              		@ frame_needed = 1, uses_anonymous_args = 0
 877 0000 80B5     		push	{r7, lr}
 878              		.cfi_def_cfa_offset 8
 879              		.cfi_offset 7, -8
 880              		.cfi_offset 14, -4
 881 0002 00AF     		add	r7, sp, #0
 882              		.cfi_def_cfa_register 7
 495:RelayTest.c   ****     
 496:RelayTest.c   ****     MUX_CTRL_115200_Write(RTEST_DLINK1);            //Select the RTest_RS485_DLink1_RX channel 
 883              		.loc 1 496 0
 884 0004 0020     		movs	r0, #0
 885 0006 FFF7FEFF 		bl	MUX_CTRL_115200_Write
 497:RelayTest.c   ****     while( (!VerifyPacket_115200(RTEST_DLINK)) && (RTestStatus[CurrentTest.TestStep] != 'F') )    /
 886              		.loc 1 497 0
 887 000a 00BF     		nop
 888              	.L71:
 889              		.loc 1 497 0 is_stmt 0 discriminator 2
 890 000c 0020     		movs	r0, #0
 891 000e FFF7FEFF 		bl	VerifyPacket_115200
 892 0012 0346     		mov	r3, r0
 893 0014 002B     		cmp	r3, #0
ARM GAS  C:\Users\MARTHN~1\AppData\Local\Temp\cc63NoI7.s 			page 26


 894 0016 06D1     		bne	.L70
 895              		.loc 1 497 0 discriminator 1
 896 0018 114B     		ldr	r3, .L76
 897 001a 5B78     		ldrb	r3, [r3, #1]	@ zero_extendqisi2
 898 001c 1A46     		mov	r2, r3
 899 001e 114B     		ldr	r3, .L76+4
 900 0020 9B5C     		ldrb	r3, [r3, r2]	@ zero_extendqisi2
 901 0022 462B     		cmp	r3, #70
 902 0024 F2D1     		bne	.L71
 903              	.L70:
 498:RelayTest.c   ****     {}  
 499:RelayTest.c   ****     
 500:RelayTest.c   ****     MUX_CTRL_115200_Write(RTEST_DLINK2);            //Select the RTest_RS485_DLink2_RX channel     
 904              		.loc 1 500 0 is_stmt 1
 905 0026 0120     		movs	r0, #1
 906 0028 FFF7FEFF 		bl	MUX_CTRL_115200_Write
 501:RelayTest.c   ****     while( (!VerifyPacket_115200(RTEST_DLINK)) && (RTestStatus[CurrentTest.TestStep] != 'F') )    /
 907              		.loc 1 501 0
 908 002c 00BF     		nop
 909              	.L73:
 910              		.loc 1 501 0 is_stmt 0 discriminator 2
 911 002e 0020     		movs	r0, #0
 912 0030 FFF7FEFF 		bl	VerifyPacket_115200
 913 0034 0346     		mov	r3, r0
 914 0036 002B     		cmp	r3, #0
 915 0038 06D1     		bne	.L72
 916              		.loc 1 501 0 discriminator 1
 917 003a 094B     		ldr	r3, .L76
 918 003c 5B78     		ldrb	r3, [r3, #1]	@ zero_extendqisi2
 919 003e 1A46     		mov	r2, r3
 920 0040 084B     		ldr	r3, .L76+4
 921 0042 9B5C     		ldrb	r3, [r3, r2]	@ zero_extendqisi2
 922 0044 462B     		cmp	r3, #70
 923 0046 F2D1     		bne	.L73
 924              	.L72:
 502:RelayTest.c   ****     {} 
 503:RelayTest.c   ****     
 504:RelayTest.c   ****     if(RTestStatus[CurrentTest.TestStep] != 'F')
 925              		.loc 1 504 0 is_stmt 1
 926 0048 054B     		ldr	r3, .L76
 927 004a 5B78     		ldrb	r3, [r3, #1]	@ zero_extendqisi2
 928 004c 1A46     		mov	r2, r3
 929 004e 054B     		ldr	r3, .L76+4
 930 0050 9B5C     		ldrb	r3, [r3, r2]	@ zero_extendqisi2
 931 0052 462B     		cmp	r3, #70
 932 0054 01D0     		beq	.L74
 505:RelayTest.c   ****         return(1);                                      // If both packets get verified, then retur
 933              		.loc 1 505 0
 934 0056 0123     		movs	r3, #1
 935 0058 00E0     		b	.L75
 936              	.L74:
 506:RelayTest.c   ****     else
 507:RelayTest.c   ****         return(0); 
 937              		.loc 1 507 0
 938 005a 0023     		movs	r3, #0
 939              	.L75:
 508:RelayTest.c   **** }
ARM GAS  C:\Users\MARTHN~1\AppData\Local\Temp\cc63NoI7.s 			page 27


 940              		.loc 1 508 0
 941 005c 1846     		mov	r0, r3
 942 005e 80BD     		pop	{r7, pc}
 943              	.L77:
 944              		.align	2
 945              	.L76:
 946 0060 00000000 		.word	CurrentTest
 947 0064 0C010000 		.word	RTestStatus
 948              		.cfi_endproc
 949              	.LFE65:
 950              		.size	RTest_Test_DataLink, .-RTest_Test_DataLink
 951              		.section	.text.RTest_Test_QuadPorts,"ax",%progbits
 952              		.align	2
 953              		.global	RTest_Test_QuadPorts
 954              		.thumb
 955              		.thumb_func
 956              		.type	RTest_Test_QuadPorts, %function
 957              	RTest_Test_QuadPorts:
 958              	.LFB66:
 509:RelayTest.c   **** 
 510:RelayTest.c   **** /* 460800bps ********************************************************************************
 511:RelayTest.c   **** *  Send 'L' packet   (controller to relay)
 512:RelayTest.c   **** *  Read 'L' packet   (relay to quad device)  - verify successful packet reception
 513:RelayTest.c   **** *  Return: Pass/Fail
 514:RelayTest.c   **** *********************************************************************************************/
 515:RelayTest.c   **** uint8 RTest_Test_QuadPorts(void)
 516:RelayTest.c   **** {
 959              		.loc 1 516 0
 960              		.cfi_startproc
 961              		@ args = 0, pretend = 0, frame = 8
 962              		@ frame_needed = 1, uses_anonymous_args = 0
 963 0000 80B5     		push	{r7, lr}
 964              		.cfi_def_cfa_offset 8
 965              		.cfi_offset 7, -8
 966              		.cfi_offset 14, -4
 967 0002 82B0     		sub	sp, sp, #8
 968              		.cfi_def_cfa_offset 16
 969 0004 00AF     		add	r7, sp, #0
 970              		.cfi_def_cfa_register 7
 971              	.LBB6:
 517:RelayTest.c   ****     for(uint8 i=0;i<8;i++)
 972              		.loc 1 517 0
 973 0006 0023     		movs	r3, #0
 974 0008 FB71     		strb	r3, [r7, #7]
 975 000a 16E0     		b	.L79
 976              	.L82:
 518:RelayTest.c   ****     {
 519:RelayTest.c   ****         MUX_CTRL_460800_Write(RTEST_QUAD_1 + i);                // Select RX channel         
 977              		.loc 1 519 0
 978 000c FB79     		ldrb	r3, [r7, #7]
 979 000e 0233     		adds	r3, r3, #2
 980 0010 DBB2     		uxtb	r3, r3
 981 0012 1846     		mov	r0, r3
 982 0014 FFF7FEFF 		bl	MUX_CTRL_460800_Write
 520:RelayTest.c   ****         while( (!VerifyPacket_460800(CTEST_RTEST_QUAD)) && (RTestStatus[CurrentTest.TestStep] != 'F
 983              		.loc 1 520 0
 984 0018 00BF     		nop
ARM GAS  C:\Users\MARTHN~1\AppData\Local\Temp\cc63NoI7.s 			page 28


 985              	.L81:
 986              		.loc 1 520 0 is_stmt 0 discriminator 2
 987 001a 0120     		movs	r0, #1
 988 001c FFF7FEFF 		bl	VerifyPacket_460800
 989 0020 0346     		mov	r3, r0
 990 0022 002B     		cmp	r3, #0
 991 0024 06D1     		bne	.L80
 992              		.loc 1 520 0 discriminator 1
 993 0026 094B     		ldr	r3, .L84
 994 0028 5B78     		ldrb	r3, [r3, #1]	@ zero_extendqisi2
 995 002a 1A46     		mov	r2, r3
 996 002c 084B     		ldr	r3, .L84+4
 997 002e 9B5C     		ldrb	r3, [r3, r2]	@ zero_extendqisi2
 998 0030 462B     		cmp	r3, #70
 999 0032 F2D1     		bne	.L81
 1000              	.L80:
 517:RelayTest.c   ****     for(uint8 i=0;i<8;i++)
 1001              		.loc 1 517 0 is_stmt 1 discriminator 2
 1002 0034 FB79     		ldrb	r3, [r7, #7]	@ zero_extendqisi2
 1003 0036 0133     		adds	r3, r3, #1
 1004 0038 FB71     		strb	r3, [r7, #7]
 1005              	.L79:
 517:RelayTest.c   ****     for(uint8 i=0;i<8;i++)
 1006              		.loc 1 517 0 is_stmt 0 discriminator 1
 1007 003a FB79     		ldrb	r3, [r7, #7]	@ zero_extendqisi2
 1008 003c 072B     		cmp	r3, #7
 1009 003e E5D9     		bls	.L82
 1010              	.LBE6:
 521:RelayTest.c   ****         {}
 522:RelayTest.c   ****     }
 523:RelayTest.c   ****     
 524:RelayTest.c   ****     return(1);
 1011              		.loc 1 524 0 is_stmt 1
 1012 0040 0123     		movs	r3, #1
 525:RelayTest.c   **** 
 526:RelayTest.c   **** }
 1013              		.loc 1 526 0
 1014 0042 1846     		mov	r0, r3
 1015 0044 0837     		adds	r7, r7, #8
 1016              		.cfi_def_cfa_offset 8
 1017 0046 BD46     		mov	sp, r7
 1018              		.cfi_def_cfa_register 13
 1019              		@ sp needed
 1020 0048 80BD     		pop	{r7, pc}
 1021              	.L85:
 1022 004a 00BF     		.align	2
 1023              	.L84:
 1024 004c 00000000 		.word	CurrentTest
 1025 0050 0C010000 		.word	RTestStatus
 1026              		.cfi_endproc
 1027              	.LFE66:
 1028              		.size	RTest_Test_QuadPorts, .-RTest_Test_QuadPorts
 1029              		.section	.text.RTest_Test_UART_Siren,"ax",%progbits
 1030              		.align	2
 1031              		.global	RTest_Test_UART_Siren
 1032              		.thumb
 1033              		.thumb_func
ARM GAS  C:\Users\MARTHN~1\AppData\Local\Temp\cc63NoI7.s 			page 29


 1034              		.type	RTest_Test_UART_Siren, %function
 1035              	RTest_Test_UART_Siren:
 1036              	.LFB67:
 527:RelayTest.c   **** 
 528:RelayTest.c   **** //*** This needs some work
 529:RelayTest.c   **** /* 230400bps ********************************************************************************
 530:RelayTest.c   **** *  ***Send 'H' packet   (siren to relay)
 531:RelayTest.c   **** *  ***Read 'D' packet   (relay to controller)   - verify successful packet reception
 532:RelayTest.c   **** *  Return: Pass/Fail
 533:RelayTest.c   **** *********************************************************************************************/
 534:RelayTest.c   **** uint8 RTest_Test_UART_Siren(void)
 535:RelayTest.c   **** {
 1037              		.loc 1 535 0
 1038              		.cfi_startproc
 1039              		@ args = 0, pretend = 0, frame = 0
 1040              		@ frame_needed = 1, uses_anonymous_args = 0
 1041 0000 80B5     		push	{r7, lr}
 1042              		.cfi_def_cfa_offset 8
 1043              		.cfi_offset 7, -8
 1044              		.cfi_offset 14, -4
 1045 0002 00AF     		add	r7, sp, #0
 1046              		.cfi_def_cfa_register 7
 536:RelayTest.c   ****            
 537:RelayTest.c   ****     pTxPacket_H = getTxPacket_H();                          // Tx - Send a 'H' packet from siren to
 1047              		.loc 1 537 0
 1048 0004 FFF7FEFF 		bl	getTxPacket_H
 1049 0008 0246     		mov	r2, r0
 1050 000a 1C4B     		ldr	r3, .L90
 1051 000c 1A60     		str	r2, [r3]
 538:RelayTest.c   ****     pTxPacket_H->Payload.SirenFirm_0 = 's';
 1052              		.loc 1 538 0
 1053 000e 1B4B     		ldr	r3, .L90
 1054 0010 1B68     		ldr	r3, [r3]
 1055 0012 7322     		movs	r2, #115
 1056 0014 1A70     		strb	r2, [r3]
 539:RelayTest.c   ****     pTxPacket_H->Payload.SirenFirm_1 = 's';
 1057              		.loc 1 539 0
 1058 0016 194B     		ldr	r3, .L90
 1059 0018 1B68     		ldr	r3, [r3]
 1060 001a 7322     		movs	r2, #115
 1061 001c 5A70     		strb	r2, [r3, #1]
 540:RelayTest.c   ****     pTxPacket_H->Payload.SirenFirm_2 = 's';
 1062              		.loc 1 540 0
 1063 001e 174B     		ldr	r3, .L90
 1064 0020 1B68     		ldr	r3, [r3]
 1065 0022 7322     		movs	r2, #115
 1066 0024 9A70     		strb	r2, [r3, #2]
 541:RelayTest.c   ****     pTxPacket_H->Payload.Speaker1_Overcurrent = 's';
 1067              		.loc 1 541 0
 1068 0026 154B     		ldr	r3, .L90
 1069 0028 1B68     		ldr	r3, [r3]
 1070 002a 7322     		movs	r2, #115
 1071 002c DA70     		strb	r2, [r3, #3]
 542:RelayTest.c   ****     pTxPacket_H->Payload.Speaker2_Overcurrent = 's';
 1072              		.loc 1 542 0
 1073 002e 134B     		ldr	r3, .L90
 1074 0030 1B68     		ldr	r3, [r3]
ARM GAS  C:\Users\MARTHN~1\AppData\Local\Temp\cc63NoI7.s 			page 30


 1075 0032 7322     		movs	r2, #115
 1076 0034 1A71     		strb	r2, [r3, #4]
 543:RelayTest.c   **** 
 544:RelayTest.c   ****     MUX_CTRL_230400_Write(RTEST_CONT);                      // Rx - Verify data sent from relay to 
 1077              		.loc 1 544 0
 1078 0036 0120     		movs	r0, #1
 1079 0038 FFF7FEFF 		bl	MUX_CTRL_230400_Write
 545:RelayTest.c   ****     
 546:RelayTest.c   ****     pRxPacket_Relay = getRxPacket_RelaySiren();                              // Rx - Get pointers t
 1080              		.loc 1 546 0
 1081 003c FFF7FEFF 		bl	getRxPacket_RelaySiren
 1082 0040 0246     		mov	r2, r0
 1083 0042 0F4B     		ldr	r3, .L90+4
 1084 0044 1A60     		str	r2, [r3]
 547:RelayTest.c   ****     while(  ( (pRxPacket_RelaySiren->Payload.SirenFirm_0 != 's' ) &&           // Wait for the pack
 1085              		.loc 1 547 0
 1086 0046 00BF     		nop
 1087              	.L88:
 1088 0048 0E4B     		ldr	r3, .L90+8
 1089 004a 1B68     		ldr	r3, [r3]
 1090 004c 1B7A     		ldrb	r3, [r3, #8]	@ zero_extendqisi2
 1091 004e 732B     		cmp	r3, #115
 1092 0050 10D0     		beq	.L87
 548:RelayTest.c   ****             (pRxPacket_RelaySiren->Payload.SirenFirm_1 != 's' ) &&
 1093              		.loc 1 548 0 discriminator 1
 1094 0052 0C4B     		ldr	r3, .L90+8
 1095 0054 1B68     		ldr	r3, [r3]
 1096 0056 5B7A     		ldrb	r3, [r3, #9]	@ zero_extendqisi2
 547:RelayTest.c   ****     while(  ( (pRxPacket_RelaySiren->Payload.SirenFirm_0 != 's' ) &&           // Wait for the pack
 1097              		.loc 1 547 0 discriminator 1
 1098 0058 732B     		cmp	r3, #115
 1099 005a 0BD0     		beq	.L87
 549:RelayTest.c   ****             (pRxPacket_RelaySiren->Payload.SirenFirm_2 != 's' ) //&&
 1100              		.loc 1 549 0
 1101 005c 094B     		ldr	r3, .L90+8
 1102 005e 1B68     		ldr	r3, [r3]
 1103 0060 9B7A     		ldrb	r3, [r3, #10]	@ zero_extendqisi2
 548:RelayTest.c   ****             (pRxPacket_RelaySiren->Payload.SirenFirm_1 != 's' ) &&
 1104              		.loc 1 548 0
 1105 0062 732B     		cmp	r3, #115
 1106 0064 06D0     		beq	.L87
 550:RelayTest.c   ****             //(pRxPacket_RelaySiren->Payload.Speaker1_Overcurrent != 's' ) &&
 551:RelayTest.c   ****             //(pRxPacket_RelaySiren->Payload.Speaker2_Overcurrent != 's' )
 552:RelayTest.c   ****             ) && (RTestStatus[CurrentTest.TestStep] != 'F') )
 1107              		.loc 1 552 0
 1108 0066 084B     		ldr	r3, .L90+12
 1109 0068 5B78     		ldrb	r3, [r3, #1]	@ zero_extendqisi2
 1110 006a 1A46     		mov	r2, r3
 1111 006c 074B     		ldr	r3, .L90+16
 1112 006e 9B5C     		ldrb	r3, [r3, r2]	@ zero_extendqisi2
 1113 0070 462B     		cmp	r3, #70
 1114 0072 E9D1     		bne	.L88
 1115              	.L87:
 553:RelayTest.c   ****     {}
 554:RelayTest.c   ****           
 555:RelayTest.c   **** 
 556:RelayTest.c   ****     //DEMUX_CTRL_230400_Write(RTEST_CONT);                            // Tx - Send a 'S' packet to 
ARM GAS  C:\Users\MARTHN~1\AppData\Local\Temp\cc63NoI7.s 			page 31


 557:RelayTest.c   ****     
 558:RelayTest.c   **** //    MUX_CTRL_230400_Write(RTEST_SIREN);                             // Rx - Verify a 'S' packet i
 559:RelayTest.c   **** //    while( (!VerifyPacket_230400(STEST_RELAY)) && (RTestStatus[CurrentTest.TestStep] != 'F') )
 560:RelayTest.c   **** //    {}
 561:RelayTest.c   **** 
 562:RelayTest.c   ****     return(1);
 1116              		.loc 1 562 0
 1117 0074 0123     		movs	r3, #1
 563:RelayTest.c   **** }
 1118              		.loc 1 563 0
 1119 0076 1846     		mov	r0, r3
 1120 0078 80BD     		pop	{r7, pc}
 1121              	.L91:
 1122 007a 00BF     		.align	2
 1123              	.L90:
 1124 007c 84000000 		.word	pTxPacket_H
 1125 0080 10000000 		.word	pRxPacket_Relay
 1126 0084 24000000 		.word	pRxPacket_RelaySiren
 1127 0088 00000000 		.word	CurrentTest
 1128 008c 0C010000 		.word	RTestStatus
 1129              		.cfi_endproc
 1130              	.LFE67:
 1131              		.size	RTest_Test_UART_Siren, .-RTest_Test_UART_Siren
 1132              		.section	.text.RTest_Test_Inputs,"ax",%progbits
 1133              		.align	2
 1134              		.global	RTest_Test_Inputs
 1135              		.thumb
 1136              		.thumb_func
 1137              		.type	RTest_Test_Inputs, %function
 1138              	RTest_Test_Inputs:
 1139              	.LFB68:
 564:RelayTest.c   **** 
 565:RelayTest.c   **** 
 566:RelayTest.c   **** /* 230400bps *****************************************************************************
 567:RelayTest.c   **** *  Send 'P' packet (controller to relay) - set input logic  
 568:RelayTest.c   **** *  Read 'D' packet (relay to controller) - verify the 'RelayInputs' byte 
 569:RelayTest.c   **** *  Return: Pass/Fail
 570:RelayTest.c   **** ******************************************************************************************/
 571:RelayTest.c   **** uint8 RTest_Test_Inputs(void)
 572:RelayTest.c   **** {
 1140              		.loc 1 572 0
 1141              		.cfi_startproc
 1142              		@ args = 0, pretend = 0, frame = 0
 1143              		@ frame_needed = 1, uses_anonymous_args = 0
 1144 0000 80B5     		push	{r7, lr}
 1145              		.cfi_def_cfa_offset 8
 1146              		.cfi_offset 7, -8
 1147              		.cfi_offset 14, -4
 1148 0002 00AF     		add	r7, sp, #0
 1149              		.cfi_def_cfa_register 7
 573:RelayTest.c   ****     
 574:RelayTest.c   **** //    DEMUX_CTRL_230400_Write(RTEST_CONT);                // Tx - Send a 'P' packet to set input lo
 575:RelayTest.c   **** //    pTxPacket_RelaySiren = getTxPacket_RelaySiren();   
 576:RelayTest.c   **** //    pTxPacket_RelaySiren->Payload.HiLoInputLogic = 0x00; 
 577:RelayTest.c   **** //    
 578:RelayTest.c   **** //    SetRelayInputs(0);
 579:RelayTest.c   **** //    
ARM GAS  C:\Users\MARTHN~1\AppData\Local\Temp\cc63NoI7.s 			page 32


 580:RelayTest.c   **** //    MUX_CTRL_230400_Write(RTEST_CONT);                  // Rx - Verify all inputs are deactivated
 581:RelayTest.c   **** //    pRxPacket_Relay = getRxPacket_Relay();              
 582:RelayTest.c   **** //    if(pRxPacket_Relay->Payload.RelayInputs != 0x00) 
 583:RelayTest.c   **** //        return(0);
 584:RelayTest.c   ****     
 585:RelayTest.c   ****     DEMUX_CTRL_230400_Write(RTEST_CONT);                // Tx - Send a 'P' packet to set input logi
 1150              		.loc 1 585 0
 1151 0004 0120     		movs	r0, #1
 1152 0006 FFF7FEFF 		bl	DEMUX_CTRL_230400_Write
 586:RelayTest.c   ****     pTxPacket_RelaySiren = getTxPacket_RelaySiren();  
 1153              		.loc 1 586 0
 1154 000a FFF7FEFF 		bl	getTxPacket_RelaySiren
 1155 000e 0246     		mov	r2, r0
 1156 0010 0D4B     		ldr	r3, .L95
 1157 0012 1A60     		str	r2, [r3]
 587:RelayTest.c   ****     pTxPacket_RelaySiren->Payload.HiLoInputLogic = 0xFF; 
 1158              		.loc 1 587 0
 1159 0014 0C4B     		ldr	r3, .L95
 1160 0016 1B68     		ldr	r3, [r3]
 1161 0018 FF22     		movs	r2, #255
 1162 001a 83F84920 		strb	r2, [r3, #73]
 588:RelayTest.c   **** 
 589:RelayTest.c   **** //    MUX_CTRL_230400_Write(RTEST_CONT);                  // Rx - Verify all inputs are deactivated
 590:RelayTest.c   **** //    pRxPacket_Relay = getRxPacket_Relay();              
 591:RelayTest.c   **** //    if(pRxPacket_Relay->Payload.RelayInputs != 0x00) 
 592:RelayTest.c   **** //        return(0);
 593:RelayTest.c   ****     
 594:RelayTest.c   ****     SetRelayInputs(1);
 1163              		.loc 1 594 0
 1164 001e 0120     		movs	r0, #1
 1165 0020 FFF7FEFF 		bl	SetRelayInputs
 595:RelayTest.c   **** 
 596:RelayTest.c   ****     MUX_CTRL_230400_Write(RTEST_CONT);                  // Rx - Verify all inputs are deactivated, 
 1166              		.loc 1 596 0
 1167 0024 0120     		movs	r0, #1
 1168 0026 FFF7FEFF 		bl	MUX_CTRL_230400_Write
 597:RelayTest.c   ****     pRxPacket_Relay = getRxPacket_Relay();  
 1169              		.loc 1 597 0
 1170 002a FFF7FEFF 		bl	getRxPacket_Relay
 1171 002e 0246     		mov	r2, r0
 1172 0030 064B     		ldr	r3, .L95+4
 1173 0032 1A60     		str	r2, [r3]
 598:RelayTest.c   ****     if(pRxPacket_RelaySiren->Payload.RelayInputs == 0xFF)    // Verify all inputs are activated, if
 1174              		.loc 1 598 0
 1175 0034 064B     		ldr	r3, .L95+8
 1176 0036 1B68     		ldr	r3, [r3]
 1177 0038 DB79     		ldrb	r3, [r3, #7]	@ zero_extendqisi2
 1178 003a FF2B     		cmp	r3, #255
 1179 003c 01D1     		bne	.L93
 599:RelayTest.c   ****         return(1);
 1180              		.loc 1 599 0
 1181 003e 0123     		movs	r3, #1
 1182 0040 00E0     		b	.L94
 1183              	.L93:
 600:RelayTest.c   ****     
 601:RelayTest.c   ****     return(0);                                          // If this step was not failed, return pass
 1184              		.loc 1 601 0
ARM GAS  C:\Users\MARTHN~1\AppData\Local\Temp\cc63NoI7.s 			page 33


 1185 0042 0023     		movs	r3, #0
 1186              	.L94:
 602:RelayTest.c   **** }
 1187              		.loc 1 602 0
 1188 0044 1846     		mov	r0, r3
 1189 0046 80BD     		pop	{r7, pc}
 1190              	.L96:
 1191              		.align	2
 1192              	.L95:
 1193 0048 78000000 		.word	pTxPacket_RelaySiren
 1194 004c 10000000 		.word	pRxPacket_Relay
 1195 0050 24000000 		.word	pRxPacket_RelaySiren
 1196              		.cfi_endproc
 1197              	.LFE68:
 1198              		.size	RTest_Test_Inputs, .-RTest_Test_Inputs
 1199              		.section	.text.RTest_Test_Vbatt,"ax",%progbits
 1200              		.align	2
 1201              		.global	RTest_Test_Vbatt
 1202              		.thumb
 1203              		.thumb_func
 1204              		.type	RTest_Test_Vbatt, %function
 1205              	RTest_Test_Vbatt:
 1206              	.LFB69:
 603:RelayTest.c   **** 
 604:RelayTest.c   **** 
 605:RelayTest.c   **** /* 230400bps *****************************************************************************
 606:RelayTest.c   **** *  Read a 'D' packet (relay to controller)  - verify the 'Voltage_BATT' byte
 607:RelayTest.c   **** *  Return: Pass/Fail
 608:RelayTest.c   **** ******************************************************************************************/
 609:RelayTest.c   **** uint8 RTest_Test_Vbatt(void)
 610:RelayTest.c   **** {
 1207              		.loc 1 610 0
 1208              		.cfi_startproc
 1209              		@ args = 0, pretend = 0, frame = 8
 1210              		@ frame_needed = 1, uses_anonymous_args = 0
 1211 0000 80B5     		push	{r7, lr}
 1212              		.cfi_def_cfa_offset 8
 1213              		.cfi_offset 7, -8
 1214              		.cfi_offset 14, -4
 1215 0002 82B0     		sub	sp, sp, #8
 1216              		.cfi_def_cfa_offset 16
 1217 0004 00AF     		add	r7, sp, #0
 1218              		.cfi_def_cfa_register 7
 611:RelayTest.c   ****     MUX_CTRL_230400_Write(RTEST_CONT);                              // Rx - Select the mux channel
 1219              		.loc 1 611 0
 1220 0006 0120     		movs	r0, #1
 1221 0008 FFF7FEFF 		bl	MUX_CTRL_230400_Write
 612:RelayTest.c   ****     pRxPacket_RelaySiren = getRxPacket_RelaySiren();                          // Rx - Get pointers 
 1222              		.loc 1 612 0
 1223 000c FFF7FEFF 		bl	getRxPacket_RelaySiren
 1224 0010 0246     		mov	r2, r0
 1225 0012 0A4B     		ldr	r3, .L100
 1226 0014 1A60     		str	r2, [r3]
 613:RelayTest.c   ****     
 614:RelayTest.c   ****     uint8 Vbatt_Reading = 0;
 1227              		.loc 1 614 0
 1228 0016 0023     		movs	r3, #0
ARM GAS  C:\Users\MARTHN~1\AppData\Local\Temp\cc63NoI7.s 			page 34


 1229 0018 FB71     		strb	r3, [r7, #7]
 615:RelayTest.c   ****     
 616:RelayTest.c   ****     Vbatt_Reading = pRxPacket_RelaySiren->Payload.Voltage_BATT;          // Read Vbatt value
 1230              		.loc 1 616 0
 1231 001a 084B     		ldr	r3, .L100
 1232 001c 1B68     		ldr	r3, [r3]
 1233 001e 1B79     		ldrb	r3, [r3, #4]
 1234 0020 FB71     		strb	r3, [r7, #7]
 617:RelayTest.c   ****     
 618:RelayTest.c   ****     if( (Vbatt_Reading < (VOLTAGE_SYSTEM + TOLERANCE_VOLTAGE) ) &&
 1235              		.loc 1 618 0
 1236 0022 FB79     		ldrb	r3, [r7, #7]	@ zero_extendqisi2
 1237 0024 7D2B     		cmp	r3, #125
 1238 0026 04D8     		bhi	.L98
 1239              		.loc 1 618 0 is_stmt 0 discriminator 1
 1240 0028 FB79     		ldrb	r3, [r7, #7]	@ zero_extendqisi2
 1241 002a 722B     		cmp	r3, #114
 1242 002c 01D9     		bls	.L98
 619:RelayTest.c   ****         (Vbatt_Reading > (VOLTAGE_SYSTEM - TOLERANCE_VOLTAGE) ) )
 620:RelayTest.c   ****         return(1);                                                  // If Vbatt is within TOLERANCE
 1243              		.loc 1 620 0 is_stmt 1
 1244 002e 0123     		movs	r3, #1
 1245 0030 00E0     		b	.L99
 1246              	.L98:
 621:RelayTest.c   ****     else
 622:RelayTest.c   ****         return(0);                                                  // If not pass, then return fai
 1247              		.loc 1 622 0
 1248 0032 0023     		movs	r3, #0
 1249              	.L99:
 623:RelayTest.c   **** }
 1250              		.loc 1 623 0
 1251 0034 1846     		mov	r0, r3
 1252 0036 0837     		adds	r7, r7, #8
 1253              		.cfi_def_cfa_offset 8
 1254 0038 BD46     		mov	sp, r7
 1255              		.cfi_def_cfa_register 13
 1256              		@ sp needed
 1257 003a 80BD     		pop	{r7, pc}
 1258              	.L101:
 1259              		.align	2
 1260              	.L100:
 1261 003c 24000000 		.word	pRxPacket_RelaySiren
 1262              		.cfi_endproc
 1263              	.LFE69:
 1264              		.size	RTest_Test_Vbatt, .-RTest_Test_Vbatt
 1265              		.section	.text.RTest_Test_BlockCurrents,"ax",%progbits
 1266              		.align	2
 1267              		.global	RTest_Test_BlockCurrents
 1268              		.thumb
 1269              		.thumb_func
 1270              		.type	RTest_Test_BlockCurrents, %function
 1271              	RTest_Test_BlockCurrents:
 1272              	.LFB70:
 624:RelayTest.c   **** 
 625:RelayTest.c   **** /* 230400bps ***************************************************************
 626:RelayTest.c   **** *  Send a 'P'/'I' packet (controller to relay)  - Controller packet to turn on all the Relay output
 627:RelayTest.c   **** *  Read a 'D' packet (relay to controller)  - verify block currents are within a tolerance
ARM GAS  C:\Users\MARTHN~1\AppData\Local\Temp\cc63NoI7.s 			page 35


 628:RelayTest.c   **** ****************************************************************************/
 629:RelayTest.c   **** uint8 RTest_Test_BlockCurrents(void)
 630:RelayTest.c   **** {
 1273              		.loc 1 630 0
 1274              		.cfi_startproc
 1275              		@ args = 0, pretend = 0, frame = 8
 1276              		@ frame_needed = 1, uses_anonymous_args = 0
 1277 0000 80B5     		push	{r7, lr}
 1278              		.cfi_def_cfa_offset 8
 1279              		.cfi_offset 7, -8
 1280              		.cfi_offset 14, -4
 1281 0002 82B0     		sub	sp, sp, #8
 1282              		.cfi_def_cfa_offset 16
 1283 0004 00AF     		add	r7, sp, #0
 1284              		.cfi_def_cfa_register 7
 631:RelayTest.c   ****     
 632:RelayTest.c   ****     uint8 BlockCurrentPass = 0x00;
 1285              		.loc 1 632 0
 1286 0006 0023     		movs	r3, #0
 1287 0008 FB71     		strb	r3, [r7, #7]
 633:RelayTest.c   ****     uint8 BlockCurrentValue = 0x00;
 1288              		.loc 1 633 0
 1289 000a 0023     		movs	r3, #0
 1290 000c 7B71     		strb	r3, [r7, #5]
 634:RelayTest.c   ****     
 635:RelayTest.c   ****     MUX_CTRL_230400_Write(RTEST_CONT);                  // Rx - Select the mux channel 
 1291              		.loc 1 635 0
 1292 000e 0120     		movs	r0, #1
 1293 0010 FFF7FEFF 		bl	MUX_CTRL_230400_Write
 636:RelayTest.c   ****     pRxPacket_RelaySiren = getRxPacket_RelaySiren();              // Rx - Get pointers to packet
 1294              		.loc 1 636 0
 1295 0014 FFF7FEFF 		bl	getRxPacket_RelaySiren
 1296 0018 0246     		mov	r2, r0
 1297 001a 164B     		ldr	r3, .L107
 1298 001c 1A60     		str	r2, [r3]
 637:RelayTest.c   ****     
 638:RelayTest.c   ****     DEMUX_CTRL_230400_Write(RTEST_CONT);                // Tx - Select the demux channel
 1299              		.loc 1 638 0
 1300 001e 0120     		movs	r0, #1
 1301 0020 FFF7FEFF 		bl	DEMUX_CTRL_230400_Write
 639:RelayTest.c   ****     pTxPacket_RelaySiren = getTxPacket_RelaySiren();              // Tx - Get pointers to packet
 1302              		.loc 1 639 0
 1303 0024 FFF7FEFF 		bl	getTxPacket_RelaySiren
 1304 0028 0246     		mov	r2, r0
 1305 002a 134B     		ldr	r3, .L107+4
 1306 002c 1A60     		str	r2, [r3]
 1307              	.LBB7:
 640:RelayTest.c   ****     
 641:RelayTest.c   ****     for(uint8 i=0;i<4;i++)                              // Save pass/fail for each block channel
 1308              		.loc 1 641 0
 1309 002e 0023     		movs	r3, #0
 1310 0030 BB71     		strb	r3, [r7, #6]
 1311 0032 10E0     		b	.L103
 1312              	.L104:
 642:RelayTest.c   ****     {
 643:RelayTest.c   ****         BlockCurrentValue = RTest_BlockCurrent(i);
 1313              		.loc 1 643 0 discriminator 3
ARM GAS  C:\Users\MARTHN~1\AppData\Local\Temp\cc63NoI7.s 			page 36


 1314 0034 BB79     		ldrb	r3, [r7, #6]	@ zero_extendqisi2
 1315 0036 1846     		mov	r0, r3
 1316 0038 FFF7FEFF 		bl	RTest_BlockCurrent
 1317 003c 0346     		mov	r3, r0
 1318 003e 7B71     		strb	r3, [r7, #5]
 644:RelayTest.c   ****         BlockCurrentPass = (BlockCurrentPass << 1) | BlockCurrentValue;
 1319              		.loc 1 644 0 discriminator 3
 1320 0040 FB79     		ldrb	r3, [r7, #7]	@ zero_extendqisi2
 1321 0042 5B00     		lsls	r3, r3, #1
 1322 0044 5AB2     		sxtb	r2, r3
 1323 0046 97F90530 		ldrsb	r3, [r7, #5]
 1324 004a 1343     		orrs	r3, r3, r2
 1325 004c 5BB2     		sxtb	r3, r3
 1326 004e FB71     		strb	r3, [r7, #7]
 641:RelayTest.c   ****     {
 1327              		.loc 1 641 0 discriminator 3
 1328 0050 BB79     		ldrb	r3, [r7, #6]	@ zero_extendqisi2
 1329 0052 0133     		adds	r3, r3, #1
 1330 0054 BB71     		strb	r3, [r7, #6]
 1331              	.L103:
 641:RelayTest.c   ****     {
 1332              		.loc 1 641 0 is_stmt 0 discriminator 1
 1333 0056 BB79     		ldrb	r3, [r7, #6]	@ zero_extendqisi2
 1334 0058 032B     		cmp	r3, #3
 1335 005a EBD9     		bls	.L104
 1336              	.LBE7:
 645:RelayTest.c   ****     }
 646:RelayTest.c   ****     
 647:RelayTest.c   ****     if( (BlockCurrentPass & 0x0F) == 0x0F)
 1337              		.loc 1 647 0 is_stmt 1
 1338 005c FB79     		ldrb	r3, [r7, #7]	@ zero_extendqisi2
 1339 005e 03F00F03 		and	r3, r3, #15
 1340 0062 0F2B     		cmp	r3, #15
 1341 0064 01D1     		bne	.L105
 648:RelayTest.c   ****         return(1);                                      // If all block currents are within TOLERAN
 1342              		.loc 1 648 0
 1343 0066 0123     		movs	r3, #1
 1344 0068 00E0     		b	.L106
 1345              	.L105:
 649:RelayTest.c   ****     else
 650:RelayTest.c   ****         return(0);                                      // If not pass, then return fail
 1346              		.loc 1 650 0
 1347 006a 0023     		movs	r3, #0
 1348              	.L106:
 651:RelayTest.c   **** 
 652:RelayTest.c   **** }
 1349              		.loc 1 652 0
 1350 006c 1846     		mov	r0, r3
 1351 006e 0837     		adds	r7, r7, #8
 1352              		.cfi_def_cfa_offset 8
 1353 0070 BD46     		mov	sp, r7
 1354              		.cfi_def_cfa_register 13
 1355              		@ sp needed
 1356 0072 80BD     		pop	{r7, pc}
 1357              	.L108:
 1358              		.align	2
 1359              	.L107:
ARM GAS  C:\Users\MARTHN~1\AppData\Local\Temp\cc63NoI7.s 			page 37


 1360 0074 24000000 		.word	pRxPacket_RelaySiren
 1361 0078 78000000 		.word	pTxPacket_RelaySiren
 1362              		.cfi_endproc
 1363              	.LFE70:
 1364              		.size	RTest_Test_BlockCurrents, .-RTest_Test_BlockCurrents
 1365              		.section	.text.getRxPacket_Relay,"ax",%progbits
 1366              		.align	2
 1367              		.global	getRxPacket_Relay
 1368              		.thumb
 1369              		.thumb_func
 1370              		.type	getRxPacket_Relay, %function
 1371              	getRxPacket_Relay:
 1372              	.LFB71:
 653:RelayTest.c   **** 
 654:RelayTest.c   **** ///* 230400bps ****************************************************
 655:RelayTest.c   **** //*   (wait for the GPS hardware to acquire a signal)
 656:RelayTest.c   **** //*   Read the GPS packet - search for the GPS formated data
 657:RelayTest.c   **** //*****************************************************************/
 658:RelayTest.c   **** //uint8 RTest_Test_GPS(void)
 659:RelayTest.c   **** //{
 660:RelayTest.c   **** //    
 661:RelayTest.c   **** //    //static uint8 targetstring[6] = {'$','G','P','M','R','C'};
 662:RelayTest.c   **** //
 663:RelayTest.c   **** //    uint8 findpacket(uint8 dataByte);  // - this should pass the target string
 664:RelayTest.c   **** //    //processByteReceivedHandler_230400(&targetstring);
 665:RelayTest.c   **** //
 666:RelayTest.c   **** //    
 667:RelayTest.c   **** //    
 668:RelayTest.c   **** //    return(0);
 669:RelayTest.c   **** //}
 670:RelayTest.c   **** 
 671:RelayTest.c   **** RxPacket_RelaySiren * getRxPacket_Relay(void)
 672:RelayTest.c   **** {
 1373              		.loc 1 672 0
 1374              		.cfi_startproc
 1375              		@ args = 0, pretend = 0, frame = 0
 1376              		@ frame_needed = 1, uses_anonymous_args = 0
 1377              		@ link register save eliminated.
 1378 0000 80B4     		push	{r7}
 1379              		.cfi_def_cfa_offset 4
 1380              		.cfi_offset 7, -4
 1381 0002 00AF     		add	r7, sp, #0
 1382              		.cfi_def_cfa_register 7
 673:RelayTest.c   ****     pRxPacket_Relay = &rxPacket_Relay;
 1383              		.loc 1 673 0
 1384 0004 044B     		ldr	r3, .L111
 1385 0006 054A     		ldr	r2, .L111+4
 1386 0008 1A60     		str	r2, [r3]
 674:RelayTest.c   ****     
 675:RelayTest.c   ****     return pRxPacket_Relay;
 1387              		.loc 1 675 0
 1388 000a 034B     		ldr	r3, .L111
 1389 000c 1B68     		ldr	r3, [r3]
 676:RelayTest.c   **** }
 1390              		.loc 1 676 0
 1391 000e 1846     		mov	r0, r3
 1392 0010 BD46     		mov	sp, r7
ARM GAS  C:\Users\MARTHN~1\AppData\Local\Temp\cc63NoI7.s 			page 38


 1393              		.cfi_def_cfa_register 13
 1394              		@ sp needed
 1395 0012 80BC     		pop	{r7}
 1396              		.cfi_restore 7
 1397              		.cfi_def_cfa_offset 0
 1398 0014 7047     		bx	lr
 1399              	.L112:
 1400 0016 00BF     		.align	2
 1401              	.L111:
 1402 0018 10000000 		.word	pRxPacket_Relay
 1403 001c 00000000 		.word	rxPacket_Relay
 1404              		.cfi_endproc
 1405              	.LFE71:
 1406              		.size	getRxPacket_Relay, .-getRxPacket_Relay
 1407              		.section	.text.getTxPacket_RelaySiren,"ax",%progbits
 1408              		.align	2
 1409              		.global	getTxPacket_RelaySiren
 1410              		.thumb
 1411              		.thumb_func
 1412              		.type	getTxPacket_RelaySiren, %function
 1413              	getTxPacket_RelaySiren:
 1414              	.LFB72:
 677:RelayTest.c   **** 
 678:RelayTest.c   **** //RxPacket_RelaySiren * getRxPacket_RelayS(void)
 679:RelayTest.c   **** //{
 680:RelayTest.c   **** //    pRxPacket_Relay = &rxPacket_Relay;
 681:RelayTest.c   **** //    
 682:RelayTest.c   **** //    return pRxPacket_Relay;
 683:RelayTest.c   **** 
 684:RelayTest.c   **** //TxPacket_Relay * getTxPacket_Relay()
 685:RelayTest.c   **** //{
 686:RelayTest.c   **** //    pTxPacket_Relay = &txPacket_Relay;
 687:RelayTest.c   **** //    
 688:RelayTest.c   **** //    return pTxPacket_Relay;
 689:RelayTest.c   **** //}
 690:RelayTest.c   **** 
 691:RelayTest.c   **** //RxPacket_Siren * getRxPacket_Siren()
 692:RelayTest.c   **** //{
 693:RelayTest.c   **** //    pRxPacket_Siren = &rxPacket_Siren;
 694:RelayTest.c   **** //    
 695:RelayTest.c   **** //    return pRxPacket_Siren;
 696:RelayTest.c   **** //}
 697:RelayTest.c   **** 
 698:RelayTest.c   **** TxPacket_RelaySiren * getTxPacket_RelaySiren()          // STest Tx - 'I' packet sent to relay and 
 699:RelayTest.c   **** {
 1415              		.loc 1 699 0
 1416              		.cfi_startproc
 1417              		@ args = 0, pretend = 0, frame = 0
 1418              		@ frame_needed = 1, uses_anonymous_args = 0
 1419              		@ link register save eliminated.
 1420 0000 80B4     		push	{r7}
 1421              		.cfi_def_cfa_offset 4
 1422              		.cfi_offset 7, -4
 1423 0002 00AF     		add	r7, sp, #0
 1424              		.cfi_def_cfa_register 7
 700:RelayTest.c   ****     pTxPacket_RelaySiren = &txPacket_RelaySiren;
 1425              		.loc 1 700 0
ARM GAS  C:\Users\MARTHN~1\AppData\Local\Temp\cc63NoI7.s 			page 39


 1426 0004 044B     		ldr	r3, .L115
 1427 0006 054A     		ldr	r2, .L115+4
 1428 0008 1A60     		str	r2, [r3]
 701:RelayTest.c   ****     
 702:RelayTest.c   ****     return pTxPacket_RelaySiren;
 1429              		.loc 1 702 0
 1430 000a 034B     		ldr	r3, .L115
 1431 000c 1B68     		ldr	r3, [r3]
 703:RelayTest.c   **** }
 1432              		.loc 1 703 0
 1433 000e 1846     		mov	r0, r3
 1434 0010 BD46     		mov	sp, r7
 1435              		.cfi_def_cfa_register 13
 1436              		@ sp needed
 1437 0012 80BC     		pop	{r7}
 1438              		.cfi_restore 7
 1439              		.cfi_def_cfa_offset 0
 1440 0014 7047     		bx	lr
 1441              	.L116:
 1442 0016 00BF     		.align	2
 1443              	.L115:
 1444 0018 78000000 		.word	pTxPacket_RelaySiren
 1445 001c 28000000 		.word	txPacket_RelaySiren
 1446              		.cfi_endproc
 1447              	.LFE72:
 1448              		.size	getTxPacket_RelaySiren, .-getTxPacket_RelaySiren
 1449              		.section	.text.getRxPacket_RelaySiren,"ax",%progbits
 1450              		.align	2
 1451              		.global	getRxPacket_RelaySiren
 1452              		.thumb
 1453              		.thumb_func
 1454              		.type	getRxPacket_RelaySiren, %function
 1455              	getRxPacket_RelaySiren:
 1456              	.LFB73:
 704:RelayTest.c   **** 
 705:RelayTest.c   **** RxPacket_RelaySiren * getRxPacket_RelaySiren()          // STest - 'D' packet sent to controller fr
 706:RelayTest.c   **** {
 1457              		.loc 1 706 0
 1458              		.cfi_startproc
 1459              		@ args = 0, pretend = 0, frame = 0
 1460              		@ frame_needed = 1, uses_anonymous_args = 0
 1461              		@ link register save eliminated.
 1462 0000 80B4     		push	{r7}
 1463              		.cfi_def_cfa_offset 4
 1464              		.cfi_offset 7, -4
 1465 0002 00AF     		add	r7, sp, #0
 1466              		.cfi_def_cfa_register 7
 707:RelayTest.c   ****     pRxPacket_RelaySiren = &rxPacket_RelaySiren;
 1467              		.loc 1 707 0
 1468 0004 044B     		ldr	r3, .L119
 1469 0006 054A     		ldr	r2, .L119+4
 1470 0008 1A60     		str	r2, [r3]
 708:RelayTest.c   ****     
 709:RelayTest.c   ****     return pRxPacket_RelaySiren;
 1471              		.loc 1 709 0
 1472 000a 034B     		ldr	r3, .L119
 1473 000c 1B68     		ldr	r3, [r3]
ARM GAS  C:\Users\MARTHN~1\AppData\Local\Temp\cc63NoI7.s 			page 40


 710:RelayTest.c   **** }
 1474              		.loc 1 710 0
 1475 000e 1846     		mov	r0, r3
 1476 0010 BD46     		mov	sp, r7
 1477              		.cfi_def_cfa_register 13
 1478              		@ sp needed
 1479 0012 80BC     		pop	{r7}
 1480              		.cfi_restore 7
 1481              		.cfi_def_cfa_offset 0
 1482 0014 7047     		bx	lr
 1483              	.L120:
 1484 0016 00BF     		.align	2
 1485              	.L119:
 1486 0018 24000000 		.word	pRxPacket_RelaySiren
 1487 001c 14000000 		.word	rxPacket_RelaySiren
 1488              		.cfi_endproc
 1489              	.LFE73:
 1490              		.size	getRxPacket_RelaySiren, .-getRxPacket_RelaySiren
 1491              		.section	.text.getTxPacket_H,"ax",%progbits
 1492              		.align	2
 1493              		.global	getTxPacket_H
 1494              		.thumb
 1495              		.thumb_func
 1496              		.type	getTxPacket_H, %function
 1497              	getTxPacket_H:
 1498              	.LFB74:
 711:RelayTest.c   **** 
 712:RelayTest.c   **** //Packet_H * getPacket_H(void);
 713:RelayTest.c   **** Packet_H * getTxPacket_H()
 714:RelayTest.c   **** {
 1499              		.loc 1 714 0
 1500              		.cfi_startproc
 1501              		@ args = 0, pretend = 0, frame = 0
 1502              		@ frame_needed = 1, uses_anonymous_args = 0
 1503              		@ link register save eliminated.
 1504 0000 80B4     		push	{r7}
 1505              		.cfi_def_cfa_offset 4
 1506              		.cfi_offset 7, -4
 1507 0002 00AF     		add	r7, sp, #0
 1508              		.cfi_def_cfa_register 7
 715:RelayTest.c   ****     pTxPacket_H = &txPacket_H;
 1509              		.loc 1 715 0
 1510 0004 044B     		ldr	r3, .L123
 1511 0006 054A     		ldr	r2, .L123+4
 1512 0008 1A60     		str	r2, [r3]
 716:RelayTest.c   ****     
 717:RelayTest.c   ****     return pTxPacket_H;
 1513              		.loc 1 717 0
 1514 000a 034B     		ldr	r3, .L123
 1515 000c 1B68     		ldr	r3, [r3]
 718:RelayTest.c   **** }
 1516              		.loc 1 718 0
 1517 000e 1846     		mov	r0, r3
 1518 0010 BD46     		mov	sp, r7
 1519              		.cfi_def_cfa_register 13
 1520              		@ sp needed
 1521 0012 80BC     		pop	{r7}
ARM GAS  C:\Users\MARTHN~1\AppData\Local\Temp\cc63NoI7.s 			page 41


 1522              		.cfi_restore 7
 1523              		.cfi_def_cfa_offset 0
 1524 0014 7047     		bx	lr
 1525              	.L124:
 1526 0016 00BF     		.align	2
 1527              	.L123:
 1528 0018 84000000 		.word	pTxPacket_H
 1529 001c 7C000000 		.word	txPacket_H
 1530              		.cfi_endproc
 1531              	.LFE74:
 1532              		.size	getTxPacket_H, .-getTxPacket_H
 1533              		.section	.text.getRxPacket_H,"ax",%progbits
 1534              		.align	2
 1535              		.global	getRxPacket_H
 1536              		.thumb
 1537              		.thumb_func
 1538              		.type	getRxPacket_H, %function
 1539              	getRxPacket_H:
 1540              	.LFB75:
 719:RelayTest.c   **** 
 720:RelayTest.c   **** Packet_H * getRxPacket_H()
 721:RelayTest.c   **** {
 1541              		.loc 1 721 0
 1542              		.cfi_startproc
 1543              		@ args = 0, pretend = 0, frame = 0
 1544              		@ frame_needed = 1, uses_anonymous_args = 0
 1545              		@ link register save eliminated.
 1546 0000 80B4     		push	{r7}
 1547              		.cfi_def_cfa_offset 4
 1548              		.cfi_offset 7, -4
 1549 0002 00AF     		add	r7, sp, #0
 1550              		.cfi_def_cfa_register 7
 722:RelayTest.c   ****     pRxPacket_H = &rxPacket_H;
 1551              		.loc 1 722 0
 1552 0004 044B     		ldr	r3, .L127
 1553 0006 054A     		ldr	r2, .L127+4
 1554 0008 1A60     		str	r2, [r3]
 723:RelayTest.c   ****     
 724:RelayTest.c   ****     return pRxPacket_H;
 1555              		.loc 1 724 0
 1556 000a 034B     		ldr	r3, .L127
 1557 000c 1B68     		ldr	r3, [r3]
 725:RelayTest.c   **** }
 1558              		.loc 1 725 0
 1559 000e 1846     		mov	r0, r3
 1560 0010 BD46     		mov	sp, r7
 1561              		.cfi_def_cfa_register 13
 1562              		@ sp needed
 1563 0012 80BC     		pop	{r7}
 1564              		.cfi_restore 7
 1565              		.cfi_def_cfa_offset 0
 1566 0014 7047     		bx	lr
 1567              	.L128:
 1568 0016 00BF     		.align	2
 1569              	.L127:
 1570 0018 90000000 		.word	pRxPacket_H
 1571 001c 88000000 		.word	rxPacket_H
ARM GAS  C:\Users\MARTHN~1\AppData\Local\Temp\cc63NoI7.s 			page 42


 1572              		.cfi_endproc
 1573              	.LFE75:
 1574              		.size	getRxPacket_H, .-getRxPacket_H
 1575              		.section	.text.RTest_sendDiagPacket,"ax",%progbits
 1576              		.align	2
 1577              		.global	RTest_sendDiagPacket
 1578              		.thumb
 1579              		.thumb_func
 1580              		.type	RTest_sendDiagPacket, %function
 1581              	RTest_sendDiagPacket:
 1582              	.LFB76:
 726:RelayTest.c   **** 
 727:RelayTest.c   **** 
 728:RelayTest.c   **** //RxPacket_Quad * getTxPacket_Quad()              //***
 729:RelayTest.c   **** //{
 730:RelayTest.c   **** //    pTxPacket_Quad = &txPacket_Quad;
 731:RelayTest.c   **** //    
 732:RelayTest.c   **** //    return pTxPacket_Quad;
 733:RelayTest.c   **** //}
 734:RelayTest.c   **** 
 735:RelayTest.c   **** void RTest_sendDiagPacket(void)
 736:RelayTest.c   **** {
 1583              		.loc 1 736 0
 1584              		.cfi_startproc
 1585              		@ args = 0, pretend = 0, frame = 8
 1586              		@ frame_needed = 1, uses_anonymous_args = 0
 1587 0000 80B5     		push	{r7, lr}
 1588              		.cfi_def_cfa_offset 8
 1589              		.cfi_offset 7, -8
 1590              		.cfi_offset 14, -4
 1591 0002 82B0     		sub	sp, sp, #8
 1592              		.cfi_def_cfa_offset 16
 1593 0004 00AF     		add	r7, sp, #0
 1594              		.cfi_def_cfa_register 7
 1595              	.LBB8:
 737:RelayTest.c   **** 
 738:RelayTest.c   ****     static uint8 RelayTestStatus_display[ (NUMBER_TEST_STEPS*2) ];
 739:RelayTest.c   ****     
 740:RelayTest.c   ****     for(uint8 i=0;i<NUMBER_TEST_STEPS;i++)
 1596              		.loc 1 740 0
 1597 0006 0023     		movs	r3, #0
 1598 0008 FB71     		strb	r3, [r7, #7]
 1599 000a 0FE0     		b	.L130
 1600              	.L131:
 741:RelayTest.c   ****     {
 742:RelayTest.c   ****         RelayTestStatus_display[i*2] = RTestStatus[i];
 1601              		.loc 1 742 0 discriminator 3
 1602 000c FB79     		ldrb	r3, [r7, #7]	@ zero_extendqisi2
 1603 000e 5B00     		lsls	r3, r3, #1
 1604 0010 FA79     		ldrb	r2, [r7, #7]	@ zero_extendqisi2
 1605 0012 0F49     		ldr	r1, .L133
 1606 0014 895C     		ldrb	r1, [r1, r2]	@ zero_extendqisi2
 1607 0016 0F4A     		ldr	r2, .L133+4
 1608 0018 D154     		strb	r1, [r2, r3]
 743:RelayTest.c   ****         RelayTestStatus_display[(i*2) + 1] = ' ';
 1609              		.loc 1 743 0 discriminator 3
 1610 001a FB79     		ldrb	r3, [r7, #7]	@ zero_extendqisi2
ARM GAS  C:\Users\MARTHN~1\AppData\Local\Temp\cc63NoI7.s 			page 43


 1611 001c 5B00     		lsls	r3, r3, #1
 1612 001e 0133     		adds	r3, r3, #1
 1613 0020 0C4A     		ldr	r2, .L133+4
 1614 0022 2021     		movs	r1, #32
 1615 0024 D154     		strb	r1, [r2, r3]
 740:RelayTest.c   ****     {
 1616              		.loc 1 740 0 discriminator 3
 1617 0026 FB79     		ldrb	r3, [r7, #7]	@ zero_extendqisi2
 1618 0028 0133     		adds	r3, r3, #1
 1619 002a FB71     		strb	r3, [r7, #7]
 1620              	.L130:
 740:RelayTest.c   ****     {
 1621              		.loc 1 740 0 is_stmt 0 discriminator 1
 1622 002c FB79     		ldrb	r3, [r7, #7]	@ zero_extendqisi2
 1623 002e 0A2B     		cmp	r3, #10
 1624 0030 ECD9     		bls	.L131
 1625              	.LBE8:
 744:RelayTest.c   ****     }
 745:RelayTest.c   ****     
 746:RelayTest.c   ****     //DEMUX_CTRL_115200_Write(RTEST_SIREN);
 747:RelayTest.c   ****     
 748:RelayTest.c   ****     UART_115200_PutArray(RelayTestStatus_display, (NUMBER_TEST_STEPS*2) );
 1626              		.loc 1 748 0 is_stmt 1
 1627 0032 1621     		movs	r1, #22
 1628 0034 0748     		ldr	r0, .L133+4
 1629 0036 FFF7FEFF 		bl	UART_115200_PutArray
 749:RelayTest.c   ****     
 750:RelayTest.c   ****     UART_115200_PutChar('\r');
 1630              		.loc 1 750 0
 1631 003a 0D20     		movs	r0, #13
 1632 003c FFF7FEFF 		bl	UART_115200_PutChar
 751:RelayTest.c   ****     UART_115200_PutChar('\n');
 1633              		.loc 1 751 0
 1634 0040 0A20     		movs	r0, #10
 1635 0042 FFF7FEFF 		bl	UART_115200_PutChar
 752:RelayTest.c   ****     
 753:RelayTest.c   ****     return;
 1636              		.loc 1 753 0
 1637 0046 00BF     		nop
 754:RelayTest.c   **** }
 1638              		.loc 1 754 0
 1639 0048 0837     		adds	r7, r7, #8
 1640              		.cfi_def_cfa_offset 8
 1641 004a BD46     		mov	sp, r7
 1642              		.cfi_def_cfa_register 13
 1643              		@ sp needed
 1644 004c 80BD     		pop	{r7, pc}
 1645              	.L134:
 1646 004e 00BF     		.align	2
 1647              	.L133:
 1648 0050 0C010000 		.word	RTestStatus
 1649 0054 18010000 		.word	RelayTestStatus_display.7579
 1650              		.cfi_endproc
 1651              	.LFE76:
 1652              		.size	RTest_sendDiagPacket, .-RTest_sendDiagPacket
 1653              		.section	.text.RTest_BlockCurrent,"ax",%progbits
 1654              		.align	2
ARM GAS  C:\Users\MARTHN~1\AppData\Local\Temp\cc63NoI7.s 			page 44


 1655              		.global	RTest_BlockCurrent
 1656              		.thumb
 1657              		.thumb_func
 1658              		.type	RTest_BlockCurrent, %function
 1659              	RTest_BlockCurrent:
 1660              	.LFB77:
 755:RelayTest.c   **** 
 756:RelayTest.c   **** //void ProcessFailure(void)
 757:RelayTest.c   **** //{
 758:RelayTest.c   **** ////    
 759:RelayTest.c   **** ////    RelayTestStatus[TestState] = 'F';
 760:RelayTest.c   **** ////    //RelayTestStatus[TestState] = 'B';                   // *** dont fail the unit, keep tryin
 761:RelayTest.c   **** ////    
 762:RelayTest.c   **** //////    TestState++;
 763:RelayTest.c   **** //////    if(TestState >=10)
 764:RelayTest.c   **** //////        TestState = 0;
 765:RelayTest.c   **** ////    
 766:RelayTest.c   **** ////    LED_EN_Write(1);
 767:RelayTest.c   **** ////    
 768:RelayTest.c   **** ////    return;
 769:RelayTest.c   **** //}
 770:RelayTest.c   **** 
 771:RelayTest.c   **** /**********************************************************************
 772:RelayTest.c   **** *   230400bps
 773:RelayTest.c   **** *   - Read (the output bytes) and see that they are within TOLERANCE_CURRENT
 774:RelayTest.c   **** *   - Return: pass/fail
 775:RelayTest.c   **** **********************************************************************/
 776:RelayTest.c   **** uint8 RTest_BlockCurrent(uint8 block)
 777:RelayTest.c   **** {
 1661              		.loc 1 777 0
 1662              		.cfi_startproc
 1663              		@ args = 0, pretend = 0, frame = 16
 1664              		@ frame_needed = 1, uses_anonymous_args = 0
 1665 0000 80B5     		push	{r7, lr}
 1666              		.cfi_def_cfa_offset 8
 1667              		.cfi_offset 7, -8
 1668              		.cfi_offset 14, -4
 1669 0002 84B0     		sub	sp, sp, #16
 1670              		.cfi_def_cfa_offset 24
 1671 0004 00AF     		add	r7, sp, #0
 1672              		.cfi_def_cfa_register 7
 1673 0006 0346     		mov	r3, r0
 1674 0008 FB71     		strb	r3, [r7, #7]
 778:RelayTest.c   ****     
 779:RelayTest.c   ****     uint8 Current_Reading = 0;
 1675              		.loc 1 779 0
 1676 000a 0023     		movs	r3, #0
 1677 000c FB73     		strb	r3, [r7, #15]
 780:RelayTest.c   ****     
 781:RelayTest.c   ****     pRxPacket_RelaySiren = getRxPacket_RelaySiren();
 1678              		.loc 1 781 0
 1679 000e FFF7FEFF 		bl	getRxPacket_RelaySiren
 1680 0012 0246     		mov	r2, r0
 1681 0014 184B     		ldr	r3, .L143
 1682 0016 1A60     		str	r2, [r3]
 782:RelayTest.c   ****     
 783:RelayTest.c   ****     if(block == 0)
ARM GAS  C:\Users\MARTHN~1\AppData\Local\Temp\cc63NoI7.s 			page 45


 1683              		.loc 1 783 0
 1684 0018 FB79     		ldrb	r3, [r7, #7]	@ zero_extendqisi2
 1685 001a 002B     		cmp	r3, #0
 1686 001c 04D1     		bne	.L136
 784:RelayTest.c   ****         Current_Reading = pRxPacket_RelaySiren->Payload.BlockCurrent_1;
 1687              		.loc 1 784 0
 1688 001e 164B     		ldr	r3, .L143
 1689 0020 1B68     		ldr	r3, [r3]
 1690 0022 1B78     		ldrb	r3, [r3]
 1691 0024 FB73     		strb	r3, [r7, #15]
 1692 0026 19E0     		b	.L137
 1693              	.L136:
 785:RelayTest.c   ****     else if(block == 1)
 1694              		.loc 1 785 0
 1695 0028 FB79     		ldrb	r3, [r7, #7]	@ zero_extendqisi2
 1696 002a 012B     		cmp	r3, #1
 1697 002c 04D1     		bne	.L138
 786:RelayTest.c   ****         Current_Reading = pRxPacket_RelaySiren->Payload.BlockCurrent_2;
 1698              		.loc 1 786 0
 1699 002e 124B     		ldr	r3, .L143
 1700 0030 1B68     		ldr	r3, [r3]
 1701 0032 5B78     		ldrb	r3, [r3, #1]
 1702 0034 FB73     		strb	r3, [r7, #15]
 1703 0036 11E0     		b	.L137
 1704              	.L138:
 787:RelayTest.c   ****     else if(block == 2)
 1705              		.loc 1 787 0
 1706 0038 FB79     		ldrb	r3, [r7, #7]	@ zero_extendqisi2
 1707 003a 022B     		cmp	r3, #2
 1708 003c 04D1     		bne	.L139
 788:RelayTest.c   ****         Current_Reading = pRxPacket_RelaySiren->Payload.BlockCurrent_3;
 1709              		.loc 1 788 0
 1710 003e 0E4B     		ldr	r3, .L143
 1711 0040 1B68     		ldr	r3, [r3]
 1712 0042 9B78     		ldrb	r3, [r3, #2]
 1713 0044 FB73     		strb	r3, [r7, #15]
 1714 0046 09E0     		b	.L137
 1715              	.L139:
 789:RelayTest.c   ****     else if(block == 3)
 1716              		.loc 1 789 0
 1717 0048 FB79     		ldrb	r3, [r7, #7]	@ zero_extendqisi2
 1718 004a 032B     		cmp	r3, #3
 1719 004c 04D1     		bne	.L140
 790:RelayTest.c   ****         Current_Reading = pRxPacket_RelaySiren->Payload.BlockCurrent_4;
 1720              		.loc 1 790 0
 1721 004e 0A4B     		ldr	r3, .L143
 1722 0050 1B68     		ldr	r3, [r3]
 1723 0052 DB78     		ldrb	r3, [r3, #3]
 1724 0054 FB73     		strb	r3, [r7, #15]
 1725 0056 01E0     		b	.L137
 1726              	.L140:
 791:RelayTest.c   ****     else 
 792:RelayTest.c   ****         return(0);
 1727              		.loc 1 792 0
 1728 0058 0023     		movs	r3, #0
 1729 005a 08E0     		b	.L141
 1730              	.L137:
ARM GAS  C:\Users\MARTHN~1\AppData\Local\Temp\cc63NoI7.s 			page 46


 793:RelayTest.c   ****     
 794:RelayTest.c   ****     if( (Current_Reading < (CURRENT_LOAD + TOLERANCE_CURRENT) ) &&
 1731              		.loc 1 794 0
 1732 005c FB7B     		ldrb	r3, [r7, #15]	@ zero_extendqisi2
 1733 005e 0A2B     		cmp	r3, #10
 1734 0060 04D8     		bhi	.L142
 1735              		.loc 1 794 0 is_stmt 0 discriminator 1
 1736 0062 FB7B     		ldrb	r3, [r7, #15]	@ zero_extendqisi2
 1737 0064 072B     		cmp	r3, #7
 1738 0066 01D9     		bls	.L142
 795:RelayTest.c   ****         (Current_Reading > (CURRENT_LOAD - TOLERANCE_CURRENT) ) )
 796:RelayTest.c   ****         return(1);
 1739              		.loc 1 796 0 is_stmt 1
 1740 0068 0123     		movs	r3, #1
 1741 006a 00E0     		b	.L141
 1742              	.L142:
 797:RelayTest.c   ****     else
 798:RelayTest.c   ****         return(0);
 1743              		.loc 1 798 0
 1744 006c 0023     		movs	r3, #0
 1745              	.L141:
 799:RelayTest.c   ****         
 800:RelayTest.c   **** }
 1746              		.loc 1 800 0
 1747 006e 1846     		mov	r0, r3
 1748 0070 1037     		adds	r7, r7, #16
 1749              		.cfi_def_cfa_offset 8
 1750 0072 BD46     		mov	sp, r7
 1751              		.cfi_def_cfa_register 13
 1752              		@ sp needed
 1753 0074 80BD     		pop	{r7, pc}
 1754              	.L144:
 1755 0076 00BF     		.align	2
 1756              	.L143:
 1757 0078 24000000 		.word	pRxPacket_RelaySiren
 1758              		.cfi_endproc
 1759              	.LFE77:
 1760              		.size	RTest_BlockCurrent, .-RTest_BlockCurrent
 1761              		.section	.text.RTest_10ms_isr,"ax",%progbits
 1762              		.align	2
 1763              		.global	RTest_10ms_isr
 1764              		.thumb
 1765              		.thumb_func
 1766              		.type	RTest_10ms_isr, %function
 1767              	RTest_10ms_isr:
 1768              	.LFB78:
 801:RelayTest.c   **** 
 802:RelayTest.c   **** void RTest_10ms_isr(void)                       // Times Quad and Audio packets
 803:RelayTest.c   **** {
 1769              		.loc 1 803 0
 1770              		.cfi_startproc
 1771              		@ args = 0, pretend = 0, frame = 0
 1772              		@ frame_needed = 1, uses_anonymous_args = 0
 1773 0000 80B5     		push	{r7, lr}
 1774              		.cfi_def_cfa_offset 8
 1775              		.cfi_offset 7, -8
 1776              		.cfi_offset 14, -4
ARM GAS  C:\Users\MARTHN~1\AppData\Local\Temp\cc63NoI7.s 			page 47


 1777 0002 00AF     		add	r7, sp, #0
 1778              		.cfi_def_cfa_register 7
 804:RelayTest.c   **** 
 805:RelayTest.c   ****     if(CurrentTest.TestStep == QUAD_PORTS)        // *** moved to 20ms  
 1779              		.loc 1 805 0
 1780 0004 044B     		ldr	r3, .L149
 1781 0006 5B78     		ldrb	r3, [r3, #1]	@ zero_extendqisi2
 1782 0008 042B     		cmp	r3, #4
 1783 000a 02D1     		bne	.L148
 806:RelayTest.c   ****         sendPacketToRelay_Quad();
 1784              		.loc 1 806 0
 1785 000c FFF7FEFF 		bl	sendPacketToRelay_Quad
 807:RelayTest.c   **** 
 808:RelayTest.c   ****     return;
 1786              		.loc 1 808 0
 1787 0010 00BF     		nop
 1788              	.L148:
 1789 0012 00BF     		nop
 809:RelayTest.c   ****     
 810:RelayTest.c   **** }
 1790              		.loc 1 810 0
 1791 0014 80BD     		pop	{r7, pc}
 1792              	.L150:
 1793 0016 00BF     		.align	2
 1794              	.L149:
 1795 0018 00000000 		.word	CurrentTest
 1796              		.cfi_endproc
 1797              	.LFE78:
 1798              		.size	RTest_10ms_isr, .-RTest_10ms_isr
 1799              		.section	.text.RTest_20ms_isr,"ax",%progbits
 1800              		.align	2
 1801              		.global	RTest_20ms_isr
 1802              		.thumb
 1803              		.thumb_func
 1804              		.type	RTest_20ms_isr, %function
 1805              	RTest_20ms_isr:
 1806              	.LFB79:
 811:RelayTest.c   **** 
 812:RelayTest.c   **** void RTest_20ms_isr(void)                       // Manage Timeout for failure
 813:RelayTest.c   **** {
 1807              		.loc 1 813 0
 1808              		.cfi_startproc
 1809              		@ args = 0, pretend = 0, frame = 0
 1810              		@ frame_needed = 1, uses_anonymous_args = 0
 1811 0000 80B5     		push	{r7, lr}
 1812              		.cfi_def_cfa_offset 8
 1813              		.cfi_offset 7, -8
 1814              		.cfi_offset 14, -4
 1815 0002 00AF     		add	r7, sp, #0
 1816              		.cfi_def_cfa_register 7
 814:RelayTest.c   ****     if(CurrentTest.TestStep == QUAD_PORTS)       // *** send quad packet if needed 
 1817              		.loc 1 814 0
 1818 0004 1A4B     		ldr	r3, .L159
 1819 0006 5B78     		ldrb	r3, [r3, #1]	@ zero_extendqisi2
 1820 0008 042B     		cmp	r3, #4
 1821 000a 01D1     		bne	.L152
 815:RelayTest.c   ****     {
ARM GAS  C:\Users\MARTHN~1\AppData\Local\Temp\cc63NoI7.s 			page 48


 816:RelayTest.c   ****         sendPacketToRelay_Quad();
 1822              		.loc 1 816 0
 1823 000c FFF7FEFF 		bl	sendPacketToRelay_Quad
 1824              	.L152:
 817:RelayTest.c   ****     }
 818:RelayTest.c   ****     
 819:RelayTest.c   ****     RTest_20ms_isr_count++;                                         // 
 1825              		.loc 1 819 0
 1826 0010 184B     		ldr	r3, .L159+4
 1827 0012 1B88     		ldrh	r3, [r3]
 1828 0014 0133     		adds	r3, r3, #1
 1829 0016 9AB2     		uxth	r2, r3
 1830 0018 164B     		ldr	r3, .L159+4
 1831 001a 1A80     		strh	r2, [r3]	@ movhi
 820:RelayTest.c   **** 
 821:RelayTest.c   ****     if(RTest_20ms_isr_count > RTest_TimeoutCount[CurrentTest.TestStep])
 1832              		.loc 1 821 0
 1833 001c 144B     		ldr	r3, .L159
 1834 001e 5B78     		ldrb	r3, [r3, #1]	@ zero_extendqisi2
 1835 0020 1A46     		mov	r2, r3
 1836 0022 154B     		ldr	r3, .L159+8
 1837 0024 33F81220 		ldrh	r2, [r3, r2, lsl #1]
 1838 0028 124B     		ldr	r3, .L159+4
 1839 002a 1B88     		ldrh	r3, [r3]
 1840 002c 9A42     		cmp	r2, r3
 1841 002e 10D2     		bcs	.L153
 822:RelayTest.c   ****     {
 823:RelayTest.c   ****         RTest_20ms_isr_count = 0;
 1842              		.loc 1 823 0
 1843 0030 104B     		ldr	r3, .L159+4
 1844 0032 0022     		movs	r2, #0
 1845 0034 1A80     		strh	r2, [r3]	@ movhi
 824:RelayTest.c   ****         
 825:RelayTest.c   ****         if(RTest_20ms_isr_EN == 1)
 1846              		.loc 1 825 0
 1847 0036 114B     		ldr	r3, .L159+12
 1848 0038 1B88     		ldrh	r3, [r3]
 1849 003a 012B     		cmp	r3, #1
 1850 003c 14D1     		bne	.L157
 826:RelayTest.c   ****         {
 827:RelayTest.c   ****             RTestStatus[CurrentTest.TestStep] = 'F';
 1851              		.loc 1 827 0
 1852 003e 0C4B     		ldr	r3, .L159
 1853 0040 5B78     		ldrb	r3, [r3, #1]	@ zero_extendqisi2
 1854 0042 1A46     		mov	r2, r3
 1855 0044 0E4B     		ldr	r3, .L159+16
 1856 0046 4621     		movs	r1, #70
 1857 0048 9954     		strb	r1, [r3, r2]
 828:RelayTest.c   ****             CurrentTest.Status = 'F';
 1858              		.loc 1 828 0
 1859 004a 094B     		ldr	r3, .L159
 1860 004c 4622     		movs	r2, #70
 1861 004e 9A70     		strb	r2, [r3, #2]
 829:RelayTest.c   ****         }
 830:RelayTest.c   ****             
 831:RelayTest.c   ****         return;
 1862              		.loc 1 831 0
ARM GAS  C:\Users\MARTHN~1\AppData\Local\Temp\cc63NoI7.s 			page 49


 1863 0050 0AE0     		b	.L157
 1864              	.L153:
 832:RelayTest.c   ****     }
 833:RelayTest.c   ****     
 834:RelayTest.c   ****     if(RTest_20ms_isr_count > 65000)
 1865              		.loc 1 834 0
 1866 0052 084B     		ldr	r3, .L159+4
 1867 0054 1B88     		ldrh	r3, [r3]
 1868 0056 4FF6E852 		movw	r2, #65000
 1869 005a 9342     		cmp	r3, r2
 1870 005c 06D9     		bls	.L158
 835:RelayTest.c   ****         RTest_20ms_isr_count = 0;
 1871              		.loc 1 835 0
 1872 005e 054B     		ldr	r3, .L159+4
 1873 0060 0022     		movs	r2, #0
 1874 0062 1A80     		strh	r2, [r3]	@ movhi
 836:RelayTest.c   ****     
 837:RelayTest.c   ****     return;
 1875              		.loc 1 837 0
 1876 0064 00BF     		nop
 1877 0066 01E0     		b	.L158
 1878              	.L157:
 831:RelayTest.c   ****     }
 1879              		.loc 1 831 0
 1880 0068 00BF     		nop
 1881 006a 00E0     		b	.L151
 1882              	.L158:
 1883              		.loc 1 837 0
 1884 006c 00BF     		nop
 1885              	.L151:
 838:RelayTest.c   ****     
 839:RelayTest.c   **** }
 1886              		.loc 1 839 0
 1887 006e 80BD     		pop	{r7, pc}
 1888              	.L160:
 1889              		.align	2
 1890              	.L159:
 1891 0070 00000000 		.word	CurrentTest
 1892 0074 08010000 		.word	RTest_20ms_isr_count
 1893 0078 00000000 		.word	RTest_TimeoutCount
 1894 007c 0A010000 		.word	RTest_20ms_isr_EN
 1895 0080 0C010000 		.word	RTestStatus
 1896              		.cfi_endproc
 1897              	.LFE79:
 1898              		.size	RTest_20ms_isr, .-RTest_20ms_isr
 1899              		.section	.text.RTest_50ms_isr,"ax",%progbits
 1900              		.align	2
 1901              		.global	RTest_50ms_isr
 1902              		.thumb
 1903              		.thumb_func
 1904              		.type	RTest_50ms_isr, %function
 1905              	RTest_50ms_isr:
 1906              	.LFB80:
 840:RelayTest.c   **** 
 841:RelayTest.c   **** void RTest_50ms_isr(void)                       // Times interboard comms, and serial diagnostics
 842:RelayTest.c   **** {
 1907              		.loc 1 842 0
ARM GAS  C:\Users\MARTHN~1\AppData\Local\Temp\cc63NoI7.s 			page 50


 1908              		.cfi_startproc
 1909              		@ args = 0, pretend = 0, frame = 0
 1910              		@ frame_needed = 1, uses_anonymous_args = 0
 1911 0000 80B5     		push	{r7, lr}
 1912              		.cfi_def_cfa_offset 8
 1913              		.cfi_offset 7, -8
 1914              		.cfi_offset 14, -4
 1915 0002 00AF     		add	r7, sp, #0
 1916              		.cfi_def_cfa_register 7
 843:RelayTest.c   ****     
 844:RelayTest.c   ****     RTest_sendDiagPacket();
 1917              		.loc 1 844 0
 1918 0004 FFF7FEFF 		bl	RTest_sendDiagPacket
 845:RelayTest.c   ****     
 846:RelayTest.c   ****     if( (CurrentTest.TestStep == INITIALIZE_TEST) ||
 1919              		.loc 1 846 0
 1920 0008 124B     		ldr	r3, .L167
 1921 000a 5B78     		ldrb	r3, [r3, #1]	@ zero_extendqisi2
 1922 000c 002B     		cmp	r3, #0
 1923 000e 13D0     		beq	.L162
 847:RelayTest.c   ****         (CurrentTest.TestStep == TEST_OUTPUTS) ||
 1924              		.loc 1 847 0 discriminator 1
 1925 0010 104B     		ldr	r3, .L167
 1926 0012 5B78     		ldrb	r3, [r3, #1]	@ zero_extendqisi2
 846:RelayTest.c   ****         (CurrentTest.TestStep == TEST_OUTPUTS) ||
 1927              		.loc 1 846 0 discriminator 1
 1928 0014 022B     		cmp	r3, #2
 1929 0016 0FD0     		beq	.L162
 848:RelayTest.c   ****         (CurrentTest.TestStep == DATALINK) ||
 1930              		.loc 1 848 0
 1931 0018 0E4B     		ldr	r3, .L167
 1932 001a 5B78     		ldrb	r3, [r3, #1]	@ zero_extendqisi2
 847:RelayTest.c   ****         (CurrentTest.TestStep == TEST_OUTPUTS) ||
 1933              		.loc 1 847 0
 1934 001c 032B     		cmp	r3, #3
 1935 001e 0BD0     		beq	.L162
 849:RelayTest.c   ****         (CurrentTest.TestStep == UART_SIREN) ||
 1936              		.loc 1 849 0
 1937 0020 0C4B     		ldr	r3, .L167
 1938 0022 5B78     		ldrb	r3, [r3, #1]	@ zero_extendqisi2
 848:RelayTest.c   ****         (CurrentTest.TestStep == DATALINK) ||
 1939              		.loc 1 848 0
 1940 0024 052B     		cmp	r3, #5
 1941 0026 07D0     		beq	.L162
 850:RelayTest.c   ****         (CurrentTest.TestStep == INPUTS) ||
 1942              		.loc 1 850 0
 1943 0028 0A4B     		ldr	r3, .L167
 1944 002a 5B78     		ldrb	r3, [r3, #1]	@ zero_extendqisi2
 849:RelayTest.c   ****         (CurrentTest.TestStep == UART_SIREN) ||
 1945              		.loc 1 849 0
 1946 002c 062B     		cmp	r3, #6
 1947 002e 03D0     		beq	.L162
 851:RelayTest.c   ****         (CurrentTest.TestStep == BLOCK_CURRENTS) )
 1948              		.loc 1 851 0
 1949 0030 084B     		ldr	r3, .L167
 1950 0032 5B78     		ldrb	r3, [r3, #1]	@ zero_extendqisi2
 850:RelayTest.c   ****         (CurrentTest.TestStep == INPUTS) ||
ARM GAS  C:\Users\MARTHN~1\AppData\Local\Temp\cc63NoI7.s 			page 51


 1951              		.loc 1 850 0
 1952 0034 082B     		cmp	r3, #8
 1953 0036 01D1     		bne	.L163
 1954              	.L162:
 852:RelayTest.c   ****     {      
 853:RelayTest.c   ****         sendPacketToRelaySiren();               //*** used for UART_SIREN
 1955              		.loc 1 853 0
 1956 0038 FFF7FEFF 		bl	sendPacketToRelaySiren
 1957              	.L163:
 854:RelayTest.c   ****     }
 855:RelayTest.c   ****         
 856:RelayTest.c   ****     CyDelay(5);                                 // *** Give some time for first transmit to finish 
 1958              		.loc 1 856 0
 1959 003c 0520     		movs	r0, #5
 1960 003e FFF7FEFF 		bl	CyDelay
 857:RelayTest.c   ****     
 858:RelayTest.c   ****     if( CurrentTest.TestStep == UART_SIREN )
 1961              		.loc 1 858 0
 1962 0042 044B     		ldr	r3, .L167
 1963 0044 5B78     		ldrb	r3, [r3, #1]	@ zero_extendqisi2
 1964 0046 052B     		cmp	r3, #5
 1965 0048 02D1     		bne	.L166
 859:RelayTest.c   ****     {   
 860:RelayTest.c   ****         sendPacket_SirenToRelay();              //*** used for UART_SIREN
 1966              		.loc 1 860 0
 1967 004a FFF7FEFF 		bl	sendPacket_SirenToRelay
 861:RelayTest.c   ****     }
 862:RelayTest.c   ****     
 863:RelayTest.c   ****     return;
 1968              		.loc 1 863 0
 1969 004e 00BF     		nop
 1970              	.L166:
 1971 0050 00BF     		nop
 864:RelayTest.c   ****     
 865:RelayTest.c   **** }
 1972              		.loc 1 865 0
 1973 0052 80BD     		pop	{r7, pc}
 1974              	.L168:
 1975              		.align	2
 1976              	.L167:
 1977 0054 00000000 		.word	CurrentTest
 1978              		.cfi_endproc
 1979              	.LFE80:
 1980              		.size	RTest_50ms_isr, .-RTest_50ms_isr
 1981              		.section	.text.SetRelayOutputs,"ax",%progbits
 1982              		.align	2
 1983              		.global	SetRelayOutputs
 1984              		.thumb
 1985              		.thumb_func
 1986              		.type	SetRelayOutputs, %function
 1987              	SetRelayOutputs:
 1988              	.LFB81:
 866:RelayTest.c   **** 
 867:RelayTest.c   **** void SetRelayOutputs(uint8 enable)
 868:RelayTest.c   **** {
 1989              		.loc 1 868 0
 1990              		.cfi_startproc
ARM GAS  C:\Users\MARTHN~1\AppData\Local\Temp\cc63NoI7.s 			page 52


 1991              		@ args = 0, pretend = 0, frame = 8
 1992              		@ frame_needed = 1, uses_anonymous_args = 0
 1993 0000 80B5     		push	{r7, lr}
 1994              		.cfi_def_cfa_offset 8
 1995              		.cfi_offset 7, -8
 1996              		.cfi_offset 14, -4
 1997 0002 82B0     		sub	sp, sp, #8
 1998              		.cfi_def_cfa_offset 16
 1999 0004 00AF     		add	r7, sp, #0
 2000              		.cfi_def_cfa_register 7
 2001 0006 0346     		mov	r3, r0
 2002 0008 FB71     		strb	r3, [r7, #7]
 869:RelayTest.c   ****     
 870:RelayTest.c   ****     DEMUX_CTRL_230400_Write(RTEST_CONT);                        // Tx - Select the demux channel
 2003              		.loc 1 870 0
 2004 000a 0120     		movs	r0, #1
 2005 000c FFF7FEFF 		bl	DEMUX_CTRL_230400_Write
 871:RelayTest.c   ****     pTxPacket_RelaySiren = getTxPacket_RelaySiren();            // Tx - Get pointers to packet   
 2006              		.loc 1 871 0
 2007 0010 FFF7FEFF 		bl	getTxPacket_RelaySiren
 2008 0014 0246     		mov	r2, r0
 2009 0016 194B     		ldr	r3, .L173
 2010 0018 1A60     		str	r2, [r3]
 872:RelayTest.c   ****     
 873:RelayTest.c   ****     if(enable == 1)
 2011              		.loc 1 873 0
 2012 001a FB79     		ldrb	r3, [r7, #7]	@ zero_extendqisi2
 2013 001c 012B     		cmp	r3, #1
 2014 001e 14D1     		bne	.L170
 874:RelayTest.c   ****     {
 875:RelayTest.c   ****         pTxPacket_RelaySiren->Payload.Outputs_1to8 = 0xFF;       // Turn on all Relay outputs
 2015              		.loc 1 875 0
 2016 0020 164B     		ldr	r3, .L173
 2017 0022 1B68     		ldr	r3, [r3]
 2018 0024 FF22     		movs	r2, #255
 2019 0026 83F84520 		strb	r2, [r3, #69]
 876:RelayTest.c   ****         pTxPacket_RelaySiren->Payload.Outputs_9to16 = 0xFF;
 2020              		.loc 1 876 0
 2021 002a 144B     		ldr	r3, .L173
 2022 002c 1B68     		ldr	r3, [r3]
 2023 002e FF22     		movs	r2, #255
 2024 0030 83F84620 		strb	r2, [r3, #70]
 877:RelayTest.c   ****         pTxPacket_RelaySiren->Payload.Outputs_17to24 = 0xFF;
 2025              		.loc 1 877 0
 2026 0034 114B     		ldr	r3, .L173
 2027 0036 1B68     		ldr	r3, [r3]
 2028 0038 FF22     		movs	r2, #255
 2029 003a 83F84720 		strb	r2, [r3, #71]
 878:RelayTest.c   ****         pTxPacket_RelaySiren->Payload.Outputs_25to32 = 0xFF;
 2030              		.loc 1 878 0
 2031 003e 0F4B     		ldr	r3, .L173
 2032 0040 1B68     		ldr	r3, [r3]
 2033 0042 FF22     		movs	r2, #255
 2034 0044 83F84820 		strb	r2, [r3, #72]
 879:RelayTest.c   ****     }
 880:RelayTest.c   ****     else
 881:RelayTest.c   ****     {
ARM GAS  C:\Users\MARTHN~1\AppData\Local\Temp\cc63NoI7.s 			page 53


 882:RelayTest.c   ****         pTxPacket_RelaySiren->Payload.Outputs_1to8 = 0x00;       // Turn off all Relay outputs
 883:RelayTest.c   ****         pTxPacket_RelaySiren->Payload.Outputs_9to16 = 0x00;
 884:RelayTest.c   ****         pTxPacket_RelaySiren->Payload.Outputs_17to24 = 0x00;
 885:RelayTest.c   ****         pTxPacket_RelaySiren->Payload.Outputs_25to32 = 0x00;
 886:RelayTest.c   ****     }
 887:RelayTest.c   ****         
 888:RelayTest.c   ****     return;
 2035              		.loc 1 888 0
 2036 0048 14E0     		b	.L169
 2037              	.L170:
 882:RelayTest.c   ****         pTxPacket_RelaySiren->Payload.Outputs_9to16 = 0x00;
 2038              		.loc 1 882 0
 2039 004a 0C4B     		ldr	r3, .L173
 2040 004c 1B68     		ldr	r3, [r3]
 2041 004e 0022     		movs	r2, #0
 2042 0050 83F84520 		strb	r2, [r3, #69]
 883:RelayTest.c   ****         pTxPacket_RelaySiren->Payload.Outputs_17to24 = 0x00;
 2043              		.loc 1 883 0
 2044 0054 094B     		ldr	r3, .L173
 2045 0056 1B68     		ldr	r3, [r3]
 2046 0058 0022     		movs	r2, #0
 2047 005a 83F84620 		strb	r2, [r3, #70]
 884:RelayTest.c   ****         pTxPacket_RelaySiren->Payload.Outputs_25to32 = 0x00;
 2048              		.loc 1 884 0
 2049 005e 074B     		ldr	r3, .L173
 2050 0060 1B68     		ldr	r3, [r3]
 2051 0062 0022     		movs	r2, #0
 2052 0064 83F84720 		strb	r2, [r3, #71]
 885:RelayTest.c   ****     }
 2053              		.loc 1 885 0
 2054 0068 044B     		ldr	r3, .L173
 2055 006a 1B68     		ldr	r3, [r3]
 2056 006c 0022     		movs	r2, #0
 2057 006e 83F84820 		strb	r2, [r3, #72]
 2058              		.loc 1 888 0
 2059 0072 00BF     		nop
 2060              	.L169:
 889:RelayTest.c   ****     
 890:RelayTest.c   **** }
 2061              		.loc 1 890 0
 2062 0074 0837     		adds	r7, r7, #8
 2063              		.cfi_def_cfa_offset 8
 2064 0076 BD46     		mov	sp, r7
 2065              		.cfi_def_cfa_register 13
 2066              		@ sp needed
 2067 0078 80BD     		pop	{r7, pc}
 2068              	.L174:
 2069 007a 00BF     		.align	2
 2070              	.L173:
 2071 007c 78000000 		.word	pTxPacket_RelaySiren
 2072              		.cfi_endproc
 2073              	.LFE81:
 2074              		.size	SetRelayOutputs, .-SetRelayOutputs
 2075              		.section	.text.RTest_StartAutomatedStep,"ax",%progbits
 2076              		.align	2
 2077              		.global	RTest_StartAutomatedStep
 2078              		.thumb
ARM GAS  C:\Users\MARTHN~1\AppData\Local\Temp\cc63NoI7.s 			page 54


 2079              		.thumb_func
 2080              		.type	RTest_StartAutomatedStep, %function
 2081              	RTest_StartAutomatedStep:
 2082              	.LFB82:
 891:RelayTest.c   **** 
 892:RelayTest.c   **** //void RTest_20ms_isr_start(void)
 893:RelayTest.c   **** //{
 894:RelayTest.c   **** //    
 895:RelayTest.c   **** //    RTest_20ms_isr_count = 0;
 896:RelayTest.c   **** //    
 897:RelayTest.c   **** //    return;
 898:RelayTest.c   **** //    
 899:RelayTest.c   **** //}
 900:RelayTest.c   **** 
 901:RelayTest.c   **** void RTest_StartAutomatedStep(void)
 902:RelayTest.c   **** {
 2083              		.loc 1 902 0
 2084              		.cfi_startproc
 2085              		@ args = 0, pretend = 0, frame = 0
 2086              		@ frame_needed = 1, uses_anonymous_args = 0
 2087              		@ link register save eliminated.
 2088 0000 80B4     		push	{r7}
 2089              		.cfi_def_cfa_offset 4
 2090              		.cfi_offset 7, -4
 2091 0002 00AF     		add	r7, sp, #0
 2092              		.cfi_def_cfa_register 7
 903:RelayTest.c   ****     
 904:RelayTest.c   ****     RTestStatus[CurrentTest.TestStep] = 'B';
 2093              		.loc 1 904 0
 2094 0004 094B     		ldr	r3, .L177
 2095 0006 5B78     		ldrb	r3, [r3, #1]	@ zero_extendqisi2
 2096 0008 1A46     		mov	r2, r3
 2097 000a 094B     		ldr	r3, .L177+4
 2098 000c 4221     		movs	r1, #66
 2099 000e 9954     		strb	r1, [r3, r2]
 905:RelayTest.c   ****     CurrentTest.Status = 'B';
 2100              		.loc 1 905 0
 2101 0010 064B     		ldr	r3, .L177
 2102 0012 4222     		movs	r2, #66
 2103 0014 9A70     		strb	r2, [r3, #2]
 906:RelayTest.c   ****     
 907:RelayTest.c   ****     RTest_20ms_isr_count = 0;
 2104              		.loc 1 907 0
 2105 0016 074B     		ldr	r3, .L177+8
 2106 0018 0022     		movs	r2, #0
 2107 001a 1A80     		strh	r2, [r3]	@ movhi
 908:RelayTest.c   ****     RTest_20ms_isr_EN = 1;
 2108              		.loc 1 908 0
 2109 001c 064B     		ldr	r3, .L177+12
 2110 001e 0122     		movs	r2, #1
 2111 0020 1A80     		strh	r2, [r3]	@ movhi
 909:RelayTest.c   ****     
 910:RelayTest.c   ****     return;
 2112              		.loc 1 910 0
 2113 0022 00BF     		nop
 911:RelayTest.c   ****     
 912:RelayTest.c   **** }
ARM GAS  C:\Users\MARTHN~1\AppData\Local\Temp\cc63NoI7.s 			page 55


 2114              		.loc 1 912 0
 2115 0024 BD46     		mov	sp, r7
 2116              		.cfi_def_cfa_register 13
 2117              		@ sp needed
 2118 0026 80BC     		pop	{r7}
 2119              		.cfi_restore 7
 2120              		.cfi_def_cfa_offset 0
 2121 0028 7047     		bx	lr
 2122              	.L178:
 2123 002a 00BF     		.align	2
 2124              	.L177:
 2125 002c 00000000 		.word	CurrentTest
 2126 0030 0C010000 		.word	RTestStatus
 2127 0034 08010000 		.word	RTest_20ms_isr_count
 2128 0038 0A010000 		.word	RTest_20ms_isr_EN
 2129              		.cfi_endproc
 2130              	.LFE82:
 2131              		.size	RTest_StartAutomatedStep, .-RTest_StartAutomatedStep
 2132              		.section	.text.RTest_StopAutomatedStep,"ax",%progbits
 2133              		.align	2
 2134              		.global	RTest_StopAutomatedStep
 2135              		.thumb
 2136              		.thumb_func
 2137              		.type	RTest_StopAutomatedStep, %function
 2138              	RTest_StopAutomatedStep:
 2139              	.LFB83:
 913:RelayTest.c   **** 
 914:RelayTest.c   **** void RTest_StopAutomatedStep(void)
 915:RelayTest.c   **** {
 2140              		.loc 1 915 0
 2141              		.cfi_startproc
 2142              		@ args = 0, pretend = 0, frame = 0
 2143              		@ frame_needed = 1, uses_anonymous_args = 0
 2144              		@ link register save eliminated.
 2145 0000 80B4     		push	{r7}
 2146              		.cfi_def_cfa_offset 4
 2147              		.cfi_offset 7, -4
 2148 0002 00AF     		add	r7, sp, #0
 2149              		.cfi_def_cfa_register 7
 916:RelayTest.c   ****     
 917:RelayTest.c   ****     RTest_20ms_isr_EN = 0;
 2150              		.loc 1 917 0
 2151 0004 0B4B     		ldr	r3, .L183
 2152 0006 0022     		movs	r2, #0
 2153 0008 1A80     		strh	r2, [r3]	@ movhi
 918:RelayTest.c   ****     if(RTestStatus[CurrentTest.TestStep] != 'F')       // If not failed, then pass
 2154              		.loc 1 918 0
 2155 000a 0B4B     		ldr	r3, .L183+4
 2156 000c 5B78     		ldrb	r3, [r3, #1]	@ zero_extendqisi2
 2157 000e 1A46     		mov	r2, r3
 2158 0010 0A4B     		ldr	r3, .L183+8
 2159 0012 9B5C     		ldrb	r3, [r3, r2]	@ zero_extendqisi2
 2160 0014 462B     		cmp	r3, #70
 2161 0016 09D0     		beq	.L182
 919:RelayTest.c   ****     {
 920:RelayTest.c   ****         RTestStatus[CurrentTest.TestStep] = 'P';
 2162              		.loc 1 920 0
ARM GAS  C:\Users\MARTHN~1\AppData\Local\Temp\cc63NoI7.s 			page 56


 2163 0018 074B     		ldr	r3, .L183+4
 2164 001a 5B78     		ldrb	r3, [r3, #1]	@ zero_extendqisi2
 2165 001c 1A46     		mov	r2, r3
 2166 001e 074B     		ldr	r3, .L183+8
 2167 0020 5021     		movs	r1, #80
 2168 0022 9954     		strb	r1, [r3, r2]
 921:RelayTest.c   ****         CurrentTest.Status = 'P';
 2169              		.loc 1 921 0
 2170 0024 044B     		ldr	r3, .L183+4
 2171 0026 5022     		movs	r2, #80
 2172 0028 9A70     		strb	r2, [r3, #2]
 922:RelayTest.c   ****     }
 923:RelayTest.c   ****     
 924:RelayTest.c   ****     return;
 2173              		.loc 1 924 0
 2174 002a 00BF     		nop
 2175              	.L182:
 2176 002c 00BF     		nop
 925:RelayTest.c   ****     
 926:RelayTest.c   **** }
 2177              		.loc 1 926 0
 2178 002e BD46     		mov	sp, r7
 2179              		.cfi_def_cfa_register 13
 2180              		@ sp needed
 2181 0030 80BC     		pop	{r7}
 2182              		.cfi_restore 7
 2183              		.cfi_def_cfa_offset 0
 2184 0032 7047     		bx	lr
 2185              	.L184:
 2186              		.align	2
 2187              	.L183:
 2188 0034 0A010000 		.word	RTest_20ms_isr_EN
 2189 0038 00000000 		.word	CurrentTest
 2190 003c 0C010000 		.word	RTestStatus
 2191              		.cfi_endproc
 2192              	.LFE83:
 2193              		.size	RTest_StopAutomatedStep, .-RTest_StopAutomatedStep
 2194              		.section	.text.SetRelayInputs,"ax",%progbits
 2195              		.align	2
 2196              		.global	SetRelayInputs
 2197              		.thumb
 2198              		.thumb_func
 2199              		.type	SetRelayInputs, %function
 2200              	SetRelayInputs:
 2201              	.LFB84:
 927:RelayTest.c   **** 
 928:RelayTest.c   **** void SetRelayInputs(uint8 enable)
 929:RelayTest.c   **** {
 2202              		.loc 1 929 0
 2203              		.cfi_startproc
 2204              		@ args = 0, pretend = 0, frame = 8
 2205              		@ frame_needed = 1, uses_anonymous_args = 0
 2206 0000 80B5     		push	{r7, lr}
 2207              		.cfi_def_cfa_offset 8
 2208              		.cfi_offset 7, -8
 2209              		.cfi_offset 14, -4
 2210 0002 82B0     		sub	sp, sp, #8
ARM GAS  C:\Users\MARTHN~1\AppData\Local\Temp\cc63NoI7.s 			page 57


 2211              		.cfi_def_cfa_offset 16
 2212 0004 00AF     		add	r7, sp, #0
 2213              		.cfi_def_cfa_register 7
 2214 0006 0346     		mov	r3, r0
 2215 0008 FB71     		strb	r3, [r7, #7]
 930:RelayTest.c   ****     
 931:RelayTest.c   ****     if(enable == 1)
 2216              		.loc 1 931 0
 2217 000a FB79     		ldrb	r3, [r7, #7]	@ zero_extendqisi2
 2218 000c 012B     		cmp	r3, #1
 2219 000e 18D1     		bne	.L186
 932:RelayTest.c   ****     {
 933:RelayTest.c   ****         RTest_HSide1_Write(1);       // Activate all inputs
 2220              		.loc 1 933 0
 2221 0010 0120     		movs	r0, #1
 2222 0012 FFF7FEFF 		bl	RTest_HSide1_Write
 934:RelayTest.c   ****         RTest_HSide2_Write(1);
 2223              		.loc 1 934 0
 2224 0016 0120     		movs	r0, #1
 2225 0018 FFF7FEFF 		bl	RTest_HSide2_Write
 935:RelayTest.c   ****         RTest_HSide3_Write(1);
 2226              		.loc 1 935 0
 2227 001c 0120     		movs	r0, #1
 2228 001e FFF7FEFF 		bl	RTest_HSide3_Write
 936:RelayTest.c   ****         RTest_HSide4_Write(1);
 2229              		.loc 1 936 0
 2230 0022 0120     		movs	r0, #1
 2231 0024 FFF7FEFF 		bl	RTest_HSide4_Write
 937:RelayTest.c   ****         RTest_HSide5_Write(1);
 2232              		.loc 1 937 0
 2233 0028 0120     		movs	r0, #1
 2234 002a FFF7FEFF 		bl	RTest_HSide5_Write
 938:RelayTest.c   ****         RTest_HSide6_Write(1);
 2235              		.loc 1 938 0
 2236 002e 0120     		movs	r0, #1
 2237 0030 FFF7FEFF 		bl	RTest_HSide6_Write
 939:RelayTest.c   ****         RTest_HSide7_Write(1);
 2238              		.loc 1 939 0
 2239 0034 0120     		movs	r0, #1
 2240 0036 FFF7FEFF 		bl	RTest_HSide7_Write
 940:RelayTest.c   ****         RTest_HSide8_Write(1);
 2241              		.loc 1 940 0
 2242 003a 0120     		movs	r0, #1
 2243 003c FFF7FEFF 		bl	RTest_HSide8_Write
 941:RelayTest.c   ****     }
 942:RelayTest.c   ****     
 943:RelayTest.c   ****     else
 944:RelayTest.c   ****     {
 945:RelayTest.c   ****         RTest_HSide1_Write(0);      // Deactivate all inputs
 946:RelayTest.c   ****         RTest_HSide2_Write(0);
 947:RelayTest.c   ****         RTest_HSide3_Write(0);
 948:RelayTest.c   ****         RTest_HSide4_Write(0);
 949:RelayTest.c   ****         RTest_HSide5_Write(0);
 950:RelayTest.c   ****         RTest_HSide6_Write(0);
 951:RelayTest.c   ****         RTest_HSide7_Write(0);
 952:RelayTest.c   ****         RTest_HSide8_Write(0);   
 953:RelayTest.c   ****     }
ARM GAS  C:\Users\MARTHN~1\AppData\Local\Temp\cc63NoI7.s 			page 58


 954:RelayTest.c   ****     
 955:RelayTest.c   ****     return;
 2244              		.loc 1 955 0
 2245 0040 18E0     		b	.L185
 2246              	.L186:
 945:RelayTest.c   ****         RTest_HSide2_Write(0);
 2247              		.loc 1 945 0
 2248 0042 0020     		movs	r0, #0
 2249 0044 FFF7FEFF 		bl	RTest_HSide1_Write
 946:RelayTest.c   ****         RTest_HSide3_Write(0);
 2250              		.loc 1 946 0
 2251 0048 0020     		movs	r0, #0
 2252 004a FFF7FEFF 		bl	RTest_HSide2_Write
 947:RelayTest.c   ****         RTest_HSide4_Write(0);
 2253              		.loc 1 947 0
 2254 004e 0020     		movs	r0, #0
 2255 0050 FFF7FEFF 		bl	RTest_HSide3_Write
 948:RelayTest.c   ****         RTest_HSide5_Write(0);
 2256              		.loc 1 948 0
 2257 0054 0020     		movs	r0, #0
 2258 0056 FFF7FEFF 		bl	RTest_HSide4_Write
 949:RelayTest.c   ****         RTest_HSide6_Write(0);
 2259              		.loc 1 949 0
 2260 005a 0020     		movs	r0, #0
 2261 005c FFF7FEFF 		bl	RTest_HSide5_Write
 950:RelayTest.c   ****         RTest_HSide7_Write(0);
 2262              		.loc 1 950 0
 2263 0060 0020     		movs	r0, #0
 2264 0062 FFF7FEFF 		bl	RTest_HSide6_Write
 951:RelayTest.c   ****         RTest_HSide8_Write(0);   
 2265              		.loc 1 951 0
 2266 0066 0020     		movs	r0, #0
 2267 0068 FFF7FEFF 		bl	RTest_HSide7_Write
 952:RelayTest.c   ****     }
 2268              		.loc 1 952 0
 2269 006c 0020     		movs	r0, #0
 2270 006e FFF7FEFF 		bl	RTest_HSide8_Write
 2271              		.loc 1 955 0
 2272 0072 00BF     		nop
 2273              	.L185:
 956:RelayTest.c   **** }
 2274              		.loc 1 956 0
 2275 0074 0837     		adds	r7, r7, #8
 2276              		.cfi_def_cfa_offset 8
 2277 0076 BD46     		mov	sp, r7
 2278              		.cfi_def_cfa_register 13
 2279              		@ sp needed
 2280 0078 80BD     		pop	{r7, pc}
 2281              		.cfi_endproc
 2282              	.LFE84:
 2283              		.size	SetRelayInputs, .-SetRelayInputs
 2284 007a 00BF     		.bss
 2285 0117 00       		.align	2
 2286              	RelayTestStatus_display.7579:
 2287 0118 00000000 		.space	22
 2287      00000000 
 2287      00000000 
ARM GAS  C:\Users\MARTHN~1\AppData\Local\Temp\cc63NoI7.s 			page 59


 2287      00000000 
 2287      00000000 
 2288              		.text
 2289              	.Letext0:
 2290              		.file 2 "c:\\program files (x86)\\cypress\\psoc creator\\4.3\\psoc creator\\import\\gnu\\arm\\5.4.
 2291              		.file 3 "c:\\program files (x86)\\cypress\\psoc creator\\4.3\\psoc creator\\import\\gnu\\arm\\5.4.
 2292              		.file 4 "Generated_Source\\PSoC5/cytypes.h"
 2293              		.file 5 "CommonVariables.h"
 2294              		.file 6 "UART_230400_Functions.h"
 2295              		.file 7 "UART_460800_Functions.h"
 2296              		.file 8 "Generated_Source\\PSoC5/core_cm3.h"
 2297              		.section	.debug_info,"",%progbits
 2298              	.Ldebug_info0:
 2299 0000 70120000 		.4byte	0x1270
 2300 0004 0400     		.2byte	0x4
 2301 0006 00000000 		.4byte	.Ldebug_abbrev0
 2302 000a 04       		.byte	0x4
 2303 000b 01       		.uleb128 0x1
 2304 000c C1090000 		.4byte	.LASF332
 2305 0010 0C       		.byte	0xc
 2306 0011 2D100000 		.4byte	.LASF333
 2307 0015 E6040000 		.4byte	.LASF334
 2308 0019 00000000 		.4byte	.Ldebug_ranges0+0
 2309 001d 00000000 		.4byte	0
 2310 0021 00000000 		.4byte	.Ldebug_line0
 2311 0025 02       		.uleb128 0x2
 2312 0026 01       		.byte	0x1
 2313 0027 06       		.byte	0x6
 2314 0028 6B040000 		.4byte	.LASF0
 2315 002c 02       		.uleb128 0x2
 2316 002d 01       		.byte	0x1
 2317 002e 08       		.byte	0x8
 2318 002f BB040000 		.4byte	.LASF1
 2319 0033 02       		.uleb128 0x2
 2320 0034 02       		.byte	0x2
 2321 0035 05       		.byte	0x5
 2322 0036 9B0F0000 		.4byte	.LASF2
 2323 003a 02       		.uleb128 0x2
 2324 003b 02       		.byte	0x2
 2325 003c 07       		.byte	0x7
 2326 003d 80110000 		.4byte	.LASF3
 2327 0041 03       		.uleb128 0x3
 2328 0042 9F110000 		.4byte	.LASF9
 2329 0046 02       		.byte	0x2
 2330 0047 3F       		.byte	0x3f
 2331 0048 4C000000 		.4byte	0x4c
 2332 004c 02       		.uleb128 0x2
 2333 004d 04       		.byte	0x4
 2334 004e 05       		.byte	0x5
 2335 004f 94030000 		.4byte	.LASF4
 2336 0053 02       		.uleb128 0x2
 2337 0054 04       		.byte	0x4
 2338 0055 07       		.byte	0x7
 2339 0056 DA080000 		.4byte	.LASF5
 2340 005a 02       		.uleb128 0x2
 2341 005b 08       		.byte	0x8
 2342 005c 05       		.byte	0x5
ARM GAS  C:\Users\MARTHN~1\AppData\Local\Temp\cc63NoI7.s 			page 60


 2343 005d 890A0000 		.4byte	.LASF6
 2344 0061 02       		.uleb128 0x2
 2345 0062 08       		.byte	0x8
 2346 0063 07       		.byte	0x7
 2347 0064 CA0C0000 		.4byte	.LASF7
 2348 0068 04       		.uleb128 0x4
 2349 0069 04       		.byte	0x4
 2350 006a 05       		.byte	0x5
 2351 006b 696E7400 		.ascii	"int\000"
 2352 006f 02       		.uleb128 0x2
 2353 0070 04       		.byte	0x4
 2354 0071 07       		.byte	0x7
 2355 0072 310B0000 		.4byte	.LASF8
 2356 0076 03       		.uleb128 0x3
 2357 0077 4E000000 		.4byte	.LASF10
 2358 007b 03       		.byte	0x3
 2359 007c 2C       		.byte	0x2c
 2360 007d 41000000 		.4byte	0x41
 2361 0081 05       		.uleb128 0x5
 2362 0082 6E0F0000 		.4byte	.LASF11
 2363 0086 04       		.byte	0x4
 2364 0087 E401     		.2byte	0x1e4
 2365 0089 2C000000 		.4byte	0x2c
 2366 008d 05       		.uleb128 0x5
 2367 008e 22120000 		.4byte	.LASF12
 2368 0092 04       		.byte	0x4
 2369 0093 E501     		.2byte	0x1e5
 2370 0095 3A000000 		.4byte	0x3a
 2371 0099 05       		.uleb128 0x5
 2372 009a F4000000 		.4byte	.LASF13
 2373 009e 04       		.byte	0x4
 2374 009f E601     		.2byte	0x1e6
 2375 00a1 53000000 		.4byte	0x53
 2376 00a5 02       		.uleb128 0x2
 2377 00a6 04       		.byte	0x4
 2378 00a7 04       		.byte	0x4
 2379 00a8 110B0000 		.4byte	.LASF14
 2380 00ac 02       		.uleb128 0x2
 2381 00ad 08       		.byte	0x8
 2382 00ae 04       		.byte	0x4
 2383 00af D00A0000 		.4byte	.LASF15
 2384 00b3 02       		.uleb128 0x2
 2385 00b4 01       		.byte	0x1
 2386 00b5 08       		.byte	0x8
 2387 00b6 40050000 		.4byte	.LASF16
 2388 00ba 02       		.uleb128 0x2
 2389 00bb 08       		.byte	0x8
 2390 00bc 04       		.byte	0x4
 2391 00bd FA0B0000 		.4byte	.LASF17
 2392 00c1 02       		.uleb128 0x2
 2393 00c2 04       		.byte	0x4
 2394 00c3 07       		.byte	0x7
 2395 00c4 20000000 		.4byte	.LASF18
 2396 00c8 06       		.uleb128 0x6
 2397 00c9 220B0000 		.4byte	.LASF23
 2398 00cd 03       		.byte	0x3
 2399 00ce 05       		.byte	0x5
ARM GAS  C:\Users\MARTHN~1\AppData\Local\Temp\cc63NoI7.s 			page 61


 2400 00cf 10       		.byte	0x10
 2401 00d0 F9000000 		.4byte	0xf9
 2402 00d4 07       		.uleb128 0x7
 2403 00d5 EC080000 		.4byte	.LASF19
 2404 00d9 05       		.byte	0x5
 2405 00da 12       		.byte	0x12
 2406 00db 81000000 		.4byte	0x81
 2407 00df 00       		.byte	0
 2408 00e0 07       		.uleb128 0x7
 2409 00e1 4F0A0000 		.4byte	.LASF20
 2410 00e5 05       		.byte	0x5
 2411 00e6 13       		.byte	0x13
 2412 00e7 81000000 		.4byte	0x81
 2413 00eb 01       		.byte	0x1
 2414 00ec 07       		.uleb128 0x7
 2415 00ed 670A0000 		.4byte	.LASF21
 2416 00f1 05       		.byte	0x5
 2417 00f2 14       		.byte	0x14
 2418 00f3 81000000 		.4byte	0x81
 2419 00f7 02       		.byte	0x2
 2420 00f8 00       		.byte	0
 2421 00f9 03       		.uleb128 0x3
 2422 00fa 360F0000 		.4byte	.LASF22
 2423 00fe 05       		.byte	0x5
 2424 00ff 18       		.byte	0x18
 2425 0100 C8000000 		.4byte	0xc8
 2426 0104 08       		.uleb128 0x8
 2427 0105 81000000 		.4byte	0x81
 2428 0109 14010000 		.4byte	0x114
 2429 010d 09       		.uleb128 0x9
 2430 010e C1000000 		.4byte	0xc1
 2431 0112 0E       		.byte	0xe
 2432 0113 00       		.byte	0
 2433 0114 06       		.uleb128 0x6
 2434 0115 7D0F0000 		.4byte	.LASF24
 2435 0119 0F       		.byte	0xf
 2436 011a 06       		.byte	0x6
 2437 011b BB       		.byte	0xbb
 2438 011c D5010000 		.4byte	0x1d5
 2439 0120 07       		.uleb128 0x7
 2440 0121 BD020000 		.4byte	.LASF25
 2441 0125 06       		.byte	0x6
 2442 0126 BD       		.byte	0xbd
 2443 0127 81000000 		.4byte	0x81
 2444 012b 00       		.byte	0
 2445 012c 07       		.uleb128 0x7
 2446 012d CC020000 		.4byte	.LASF26
 2447 0131 06       		.byte	0x6
 2448 0132 BE       		.byte	0xbe
 2449 0133 81000000 		.4byte	0x81
 2450 0137 01       		.byte	0x1
 2451 0138 07       		.uleb128 0x7
 2452 0139 DB020000 		.4byte	.LASF27
 2453 013d 06       		.byte	0x6
 2454 013e BF       		.byte	0xbf
 2455 013f 81000000 		.4byte	0x81
 2456 0143 02       		.byte	0x2
ARM GAS  C:\Users\MARTHN~1\AppData\Local\Temp\cc63NoI7.s 			page 62


 2457 0144 07       		.uleb128 0x7
 2458 0145 EA020000 		.4byte	.LASF28
 2459 0149 06       		.byte	0x6
 2460 014a C0       		.byte	0xc0
 2461 014b 81000000 		.4byte	0x81
 2462 014f 03       		.byte	0x3
 2463 0150 07       		.uleb128 0x7
 2464 0151 DE0B0000 		.4byte	.LASF29
 2465 0155 06       		.byte	0x6
 2466 0156 C1       		.byte	0xc1
 2467 0157 81000000 		.4byte	0x81
 2468 015b 04       		.byte	0x4
 2469 015c 07       		.uleb128 0x7
 2470 015d 4B060000 		.4byte	.LASF30
 2471 0161 06       		.byte	0x6
 2472 0162 C2       		.byte	0xc2
 2473 0163 81000000 		.4byte	0x81
 2474 0167 05       		.byte	0x5
 2475 0168 07       		.uleb128 0x7
 2476 0169 200E0000 		.4byte	.LASF31
 2477 016d 06       		.byte	0x6
 2478 016e C3       		.byte	0xc3
 2479 016f 81000000 		.4byte	0x81
 2480 0173 06       		.byte	0x6
 2481 0174 07       		.uleb128 0x7
 2482 0175 F30C0000 		.4byte	.LASF32
 2483 0179 06       		.byte	0x6
 2484 017a C4       		.byte	0xc4
 2485 017b 81000000 		.4byte	0x81
 2486 017f 07       		.byte	0x7
 2487 0180 07       		.uleb128 0x7
 2488 0181 3E0B0000 		.4byte	.LASF33
 2489 0185 06       		.byte	0x6
 2490 0186 C5       		.byte	0xc5
 2491 0187 81000000 		.4byte	0x81
 2492 018b 08       		.byte	0x8
 2493 018c 07       		.uleb128 0x7
 2494 018d 4A0B0000 		.4byte	.LASF34
 2495 0191 06       		.byte	0x6
 2496 0192 C6       		.byte	0xc6
 2497 0193 81000000 		.4byte	0x81
 2498 0197 09       		.byte	0x9
 2499 0198 07       		.uleb128 0x7
 2500 0199 560B0000 		.4byte	.LASF35
 2501 019d 06       		.byte	0x6
 2502 019e C7       		.byte	0xc7
 2503 019f 81000000 		.4byte	0x81
 2504 01a3 0A       		.byte	0xa
 2505 01a4 07       		.uleb128 0x7
 2506 01a5 FE110000 		.4byte	.LASF36
 2507 01a9 06       		.byte	0x6
 2508 01aa C8       		.byte	0xc8
 2509 01ab 81000000 		.4byte	0x81
 2510 01af 0B       		.byte	0xb
 2511 01b0 07       		.uleb128 0x7
 2512 01b1 0A120000 		.4byte	.LASF37
 2513 01b5 06       		.byte	0x6
ARM GAS  C:\Users\MARTHN~1\AppData\Local\Temp\cc63NoI7.s 			page 63


 2514 01b6 C9       		.byte	0xc9
 2515 01b7 81000000 		.4byte	0x81
 2516 01bb 0C       		.byte	0xc
 2517 01bc 07       		.uleb128 0x7
 2518 01bd 16120000 		.4byte	.LASF38
 2519 01c1 06       		.byte	0x6
 2520 01c2 CA       		.byte	0xca
 2521 01c3 81000000 		.4byte	0x81
 2522 01c7 0D       		.byte	0xd
 2523 01c8 07       		.uleb128 0x7
 2524 01c9 9F040000 		.4byte	.LASF39
 2525 01cd 06       		.byte	0x6
 2526 01ce CB       		.byte	0xcb
 2527 01cf 81000000 		.4byte	0x81
 2528 01d3 0E       		.byte	0xe
 2529 01d4 00       		.byte	0
 2530 01d5 0A       		.uleb128 0xa
 2531 01d6 870E0000 		.4byte	.LASF123
 2532 01da 0F       		.byte	0xf
 2533 01db 06       		.byte	0x6
 2534 01dc B7       		.byte	0xb7
 2535 01dd F8010000 		.4byte	0x1f8
 2536 01e1 0B       		.uleb128 0xb
 2537 01e2 3A050000 		.4byte	.LASF40
 2538 01e6 06       		.byte	0x6
 2539 01e7 B9       		.byte	0xb9
 2540 01e8 04010000 		.4byte	0x104
 2541 01ec 0B       		.uleb128 0xb
 2542 01ed A8040000 		.4byte	.LASF41
 2543 01f1 06       		.byte	0x6
 2544 01f2 CC       		.byte	0xcc
 2545 01f3 14010000 		.4byte	0x114
 2546 01f7 00       		.byte	0
 2547 01f8 03       		.uleb128 0x3
 2548 01f9 DB0F0000 		.4byte	.LASF42
 2549 01fd 06       		.byte	0x6
 2550 01fe CD       		.byte	0xcd
 2551 01ff D5010000 		.4byte	0x1d5
 2552 0203 0C       		.uleb128 0xc
 2553 0204 E3100000 		.4byte	.LASF43
 2554 0208 50       		.byte	0x50
 2555 0209 06       		.byte	0x6
 2556 020a 2D01     		.2byte	0x12d
 2557 020c 21060000 		.4byte	0x621
 2558 0210 0D       		.uleb128 0xd
 2559 0211 98070000 		.4byte	.LASF44
 2560 0215 06       		.byte	0x6
 2561 0216 2F01     		.2byte	0x12f
 2562 0218 81000000 		.4byte	0x81
 2563 021c 00       		.byte	0
 2564 021d 0D       		.uleb128 0xd
 2565 021e 7A070000 		.4byte	.LASF45
 2566 0222 06       		.byte	0x6
 2567 0223 3001     		.2byte	0x130
 2568 0225 81000000 		.4byte	0x81
 2569 0229 01       		.byte	0x1
 2570 022a 0D       		.uleb128 0xd
ARM GAS  C:\Users\MARTHN~1\AppData\Local\Temp\cc63NoI7.s 			page 64


 2571 022b 71070000 		.4byte	.LASF46
 2572 022f 06       		.byte	0x6
 2573 0230 3101     		.2byte	0x131
 2574 0232 81000000 		.4byte	0x81
 2575 0236 02       		.byte	0x2
 2576 0237 0D       		.uleb128 0xd
 2577 0238 51040000 		.4byte	.LASF47
 2578 023c 06       		.byte	0x6
 2579 023d 3201     		.2byte	0x132
 2580 023f 81000000 		.4byte	0x81
 2581 0243 03       		.byte	0x3
 2582 0244 0D       		.uleb128 0xd
 2583 0245 3C040000 		.4byte	.LASF48
 2584 0249 06       		.byte	0x6
 2585 024a 3301     		.2byte	0x133
 2586 024c 81000000 		.4byte	0x81
 2587 0250 04       		.byte	0x4
 2588 0251 0D       		.uleb128 0xd
 2589 0252 33040000 		.4byte	.LASF49
 2590 0256 06       		.byte	0x6
 2591 0257 3401     		.2byte	0x134
 2592 0259 81000000 		.4byte	0x81
 2593 025d 05       		.byte	0x5
 2594 025e 0D       		.uleb128 0xd
 2595 025f 3B120000 		.4byte	.LASF50
 2596 0263 06       		.byte	0x6
 2597 0264 3501     		.2byte	0x135
 2598 0266 81000000 		.4byte	0x81
 2599 026a 06       		.byte	0x6
 2600 026b 0D       		.uleb128 0xd
 2601 026c 32120000 		.4byte	.LASF51
 2602 0270 06       		.byte	0x6
 2603 0271 3601     		.2byte	0x136
 2604 0273 81000000 		.4byte	0x81
 2605 0277 07       		.byte	0x7
 2606 0278 0D       		.uleb128 0xd
 2607 0279 29120000 		.4byte	.LASF52
 2608 027d 06       		.byte	0x6
 2609 027e 3701     		.2byte	0x137
 2610 0280 81000000 		.4byte	0x81
 2611 0284 08       		.byte	0x8
 2612 0285 0D       		.uleb128 0xd
 2613 0286 CD0E0000 		.4byte	.LASF53
 2614 028a 06       		.byte	0x6
 2615 028b 3801     		.2byte	0x138
 2616 028d 81000000 		.4byte	0x81
 2617 0291 09       		.byte	0x9
 2618 0292 0D       		.uleb128 0xd
 2619 0293 A40E0000 		.4byte	.LASF54
 2620 0297 06       		.byte	0x6
 2621 0298 3901     		.2byte	0x139
 2622 029a 81000000 		.4byte	0x81
 2623 029e 0A       		.byte	0xa
 2624 029f 0D       		.uleb128 0xd
 2625 02a0 9B0E0000 		.4byte	.LASF55
 2626 02a4 06       		.byte	0x6
 2627 02a5 3A01     		.2byte	0x13a
ARM GAS  C:\Users\MARTHN~1\AppData\Local\Temp\cc63NoI7.s 			page 65


 2628 02a7 81000000 		.4byte	0x81
 2629 02ab 0B       		.byte	0xb
 2630 02ac 0D       		.uleb128 0xd
 2631 02ad 9C0B0000 		.4byte	.LASF56
 2632 02b1 06       		.byte	0x6
 2633 02b2 3B01     		.2byte	0x13b
 2634 02b4 81000000 		.4byte	0x81
 2635 02b8 0C       		.byte	0xc
 2636 02b9 0D       		.uleb128 0xd
 2637 02ba 850B0000 		.4byte	.LASF57
 2638 02be 06       		.byte	0x6
 2639 02bf 3C01     		.2byte	0x13c
 2640 02c1 81000000 		.4byte	0x81
 2641 02c5 0D       		.byte	0xd
 2642 02c6 0D       		.uleb128 0xd
 2643 02c7 6D0B0000 		.4byte	.LASF58
 2644 02cb 06       		.byte	0x6
 2645 02cc 3D01     		.2byte	0x13d
 2646 02ce 81000000 		.4byte	0x81
 2647 02d2 0E       		.byte	0xe
 2648 02d3 0D       		.uleb128 0xd
 2649 02d4 3A010000 		.4byte	.LASF59
 2650 02d8 06       		.byte	0x6
 2651 02d9 3E01     		.2byte	0x13e
 2652 02db 81000000 		.4byte	0x81
 2653 02df 0F       		.byte	0xf
 2654 02e0 0D       		.uleb128 0xd
 2655 02e1 68070000 		.4byte	.LASF60
 2656 02e5 06       		.byte	0x6
 2657 02e6 3F01     		.2byte	0x13f
 2658 02e8 81000000 		.4byte	0x81
 2659 02ec 10       		.byte	0x10
 2660 02ed 0D       		.uleb128 0xd
 2661 02ee 4F070000 		.4byte	.LASF61
 2662 02f2 06       		.byte	0x6
 2663 02f3 4001     		.2byte	0x140
 2664 02f5 81000000 		.4byte	0x81
 2665 02f9 11       		.byte	0x11
 2666 02fa 0D       		.uleb128 0xd
 2667 02fb 330C0000 		.4byte	.LASF62
 2668 02ff 06       		.byte	0x6
 2669 0300 4101     		.2byte	0x141
 2670 0302 81000000 		.4byte	0x81
 2671 0306 12       		.byte	0x12
 2672 0307 0D       		.uleb128 0xd
 2673 0308 2A040000 		.4byte	.LASF63
 2674 030c 06       		.byte	0x6
 2675 030d 4201     		.2byte	0x142
 2676 030f 81000000 		.4byte	0x81
 2677 0313 13       		.byte	0x13
 2678 0314 0D       		.uleb128 0xd
 2679 0315 21040000 		.4byte	.LASF64
 2680 0319 06       		.byte	0x6
 2681 031a 4301     		.2byte	0x143
 2682 031c 81000000 		.4byte	0x81
 2683 0320 14       		.byte	0x14
 2684 0321 0D       		.uleb128 0xd
ARM GAS  C:\Users\MARTHN~1\AppData\Local\Temp\cc63NoI7.s 			page 66


 2685 0322 970A0000 		.4byte	.LASF65
 2686 0326 06       		.byte	0x6
 2687 0327 4401     		.2byte	0x144
 2688 0329 81000000 		.4byte	0x81
 2689 032d 15       		.byte	0x15
 2690 032e 0D       		.uleb128 0xd
 2691 032f 800A0000 		.4byte	.LASF66
 2692 0333 06       		.byte	0x6
 2693 0334 4501     		.2byte	0x145
 2694 0336 81000000 		.4byte	0x81
 2695 033a 16       		.byte	0x16
 2696 033b 0D       		.uleb128 0xd
 2697 033c 770A0000 		.4byte	.LASF67
 2698 0340 06       		.byte	0x6
 2699 0341 4601     		.2byte	0x146
 2700 0343 81000000 		.4byte	0x81
 2701 0347 17       		.byte	0x17
 2702 0348 0D       		.uleb128 0xd
 2703 0349 84050000 		.4byte	.LASF68
 2704 034d 06       		.byte	0x6
 2705 034e 4701     		.2byte	0x147
 2706 0350 81000000 		.4byte	0x81
 2707 0354 18       		.byte	0x18
 2708 0355 0D       		.uleb128 0xd
 2709 0356 7B050000 		.4byte	.LASF69
 2710 035a 06       		.byte	0x6
 2711 035b 4801     		.2byte	0x148
 2712 035d 81000000 		.4byte	0x81
 2713 0361 19       		.byte	0x19
 2714 0362 0D       		.uleb128 0xd
 2715 0363 72050000 		.4byte	.LASF70
 2716 0367 06       		.byte	0x6
 2717 0368 4901     		.2byte	0x149
 2718 036a 81000000 		.4byte	0x81
 2719 036e 1A       		.byte	0x1a
 2720 036f 0D       		.uleb128 0xd
 2721 0370 9D010000 		.4byte	.LASF71
 2722 0374 06       		.byte	0x6
 2723 0375 4A01     		.2byte	0x14a
 2724 0377 81000000 		.4byte	0x81
 2725 037b 1B       		.byte	0x1b
 2726 037c 0D       		.uleb128 0xd
 2727 037d 88010000 		.4byte	.LASF72
 2728 0381 06       		.byte	0x6
 2729 0382 4B01     		.2byte	0x14b
 2730 0384 81000000 		.4byte	0x81
 2731 0388 1C       		.byte	0x1c
 2732 0389 0D       		.uleb128 0xd
 2733 038a 7F010000 		.4byte	.LASF73
 2734 038e 06       		.byte	0x6
 2735 038f 4C01     		.2byte	0x14c
 2736 0391 81000000 		.4byte	0x81
 2737 0395 1D       		.byte	0x1d
 2738 0396 0D       		.uleb128 0xd
 2739 0397 DA100000 		.4byte	.LASF74
 2740 039b 06       		.byte	0x6
 2741 039c 4D01     		.2byte	0x14d
ARM GAS  C:\Users\MARTHN~1\AppData\Local\Temp\cc63NoI7.s 			page 67


 2742 039e 81000000 		.4byte	0x81
 2743 03a2 1E       		.byte	0x1e
 2744 03a3 0D       		.uleb128 0xd
 2745 03a4 C3100000 		.4byte	.LASF75
 2746 03a8 06       		.byte	0x6
 2747 03a9 4E01     		.2byte	0x14e
 2748 03ab 81000000 		.4byte	0x81
 2749 03af 1F       		.byte	0x1f
 2750 03b0 0D       		.uleb128 0xd
 2751 03b1 BA100000 		.4byte	.LASF76
 2752 03b5 06       		.byte	0x6
 2753 03b6 4F01     		.2byte	0x14f
 2754 03b8 81000000 		.4byte	0x81
 2755 03bc 20       		.byte	0x20
 2756 03bd 0D       		.uleb128 0xd
 2757 03be E10C0000 		.4byte	.LASF77
 2758 03c2 06       		.byte	0x6
 2759 03c3 5001     		.2byte	0x150
 2760 03c5 81000000 		.4byte	0x81
 2761 03c9 21       		.byte	0x21
 2762 03ca 0D       		.uleb128 0xd
 2763 03cb AD0C0000 		.4byte	.LASF78
 2764 03cf 06       		.byte	0x6
 2765 03d0 5101     		.2byte	0x151
 2766 03d2 81000000 		.4byte	0x81
 2767 03d6 22       		.byte	0x22
 2768 03d7 0D       		.uleb128 0xd
 2769 03d8 A40C0000 		.4byte	.LASF79
 2770 03dc 06       		.byte	0x6
 2771 03dd 5201     		.2byte	0x152
 2772 03df 81000000 		.4byte	0x81
 2773 03e3 23       		.byte	0x23
 2774 03e4 0D       		.uleb128 0xd
 2775 03e5 53030000 		.4byte	.LASF80
 2776 03e9 06       		.byte	0x6
 2777 03ea 5301     		.2byte	0x153
 2778 03ec 81000000 		.4byte	0x81
 2779 03f0 24       		.byte	0x24
 2780 03f1 0D       		.uleb128 0xd
 2781 03f2 6E0A0000 		.4byte	.LASF81
 2782 03f6 06       		.byte	0x6
 2783 03f7 5401     		.2byte	0x154
 2784 03f9 81000000 		.4byte	0x81
 2785 03fd 25       		.byte	0x25
 2786 03fe 0D       		.uleb128 0xd
 2787 03ff 5E0A0000 		.4byte	.LASF82
 2788 0403 06       		.byte	0x6
 2789 0404 5501     		.2byte	0x155
 2790 0406 81000000 		.4byte	0x81
 2791 040a 26       		.byte	0x26
 2792 040b 0D       		.uleb128 0xd
 2793 040c E70D0000 		.4byte	.LASF83
 2794 0410 06       		.byte	0x6
 2795 0411 5601     		.2byte	0x156
 2796 0413 81000000 		.4byte	0x81
 2797 0417 27       		.byte	0x27
 2798 0418 0D       		.uleb128 0xd
ARM GAS  C:\Users\MARTHN~1\AppData\Local\Temp\cc63NoI7.s 			page 68


 2799 0419 5B050000 		.4byte	.LASF84
 2800 041d 06       		.byte	0x6
 2801 041e 5701     		.2byte	0x157
 2802 0420 81000000 		.4byte	0x81
 2803 0424 28       		.byte	0x28
 2804 0425 0D       		.uleb128 0xd
 2805 0426 52050000 		.4byte	.LASF85
 2806 042a 06       		.byte	0x6
 2807 042b 5801     		.2byte	0x158
 2808 042d 81000000 		.4byte	0x81
 2809 0431 29       		.byte	0x29
 2810 0432 0D       		.uleb128 0xd
 2811 0433 60060000 		.4byte	.LASF86
 2812 0437 06       		.byte	0x6
 2813 0438 5901     		.2byte	0x159
 2814 043a 81000000 		.4byte	0x81
 2815 043e 2A       		.byte	0x2a
 2816 043f 0D       		.uleb128 0xd
 2817 0440 52010000 		.4byte	.LASF87
 2818 0444 06       		.byte	0x6
 2819 0445 5A01     		.2byte	0x15a
 2820 0447 81000000 		.4byte	0x81
 2821 044b 2B       		.byte	0x2b
 2822 044c 0D       		.uleb128 0xd
 2823 044d 31060000 		.4byte	.LASF88
 2824 0451 06       		.byte	0x6
 2825 0452 5B01     		.2byte	0x15b
 2826 0454 81000000 		.4byte	0x81
 2827 0458 2C       		.byte	0x2c
 2828 0459 0D       		.uleb128 0xd
 2829 045a 68110000 		.4byte	.LASF89
 2830 045e 06       		.byte	0x6
 2831 045f 5C01     		.2byte	0x15c
 2832 0461 81000000 		.4byte	0x81
 2833 0465 2D       		.byte	0x2d
 2834 0466 0D       		.uleb128 0xd
 2835 0467 B1100000 		.4byte	.LASF90
 2836 046b 06       		.byte	0x6
 2837 046c 5D01     		.2byte	0x15d
 2838 046e 81000000 		.4byte	0x81
 2839 0472 2E       		.byte	0x2e
 2840 0473 0D       		.uleb128 0xd
 2841 0474 A8100000 		.4byte	.LASF91
 2842 0478 06       		.byte	0x6
 2843 0479 5E01     		.2byte	0x15e
 2844 047b 81000000 		.4byte	0x81
 2845 047f 2F       		.byte	0x2f
 2846 0480 0D       		.uleb128 0xd
 2847 0481 4F120000 		.4byte	.LASF92
 2848 0485 06       		.byte	0x6
 2849 0486 5F01     		.2byte	0x15f
 2850 0488 81000000 		.4byte	0x81
 2851 048c 30       		.byte	0x30
 2852 048d 0D       		.uleb128 0xd
 2853 048e 00000000 		.4byte	.LASF93
 2854 0492 06       		.byte	0x6
 2855 0493 6001     		.2byte	0x160
ARM GAS  C:\Users\MARTHN~1\AppData\Local\Temp\cc63NoI7.s 			page 69


 2856 0495 81000000 		.4byte	0x81
 2857 0499 31       		.byte	0x31
 2858 049a 0D       		.uleb128 0xd
 2859 049b 0A030000 		.4byte	.LASF94
 2860 049f 06       		.byte	0x6
 2861 04a0 6101     		.2byte	0x161
 2862 04a2 81000000 		.4byte	0x81
 2863 04a6 32       		.byte	0x32
 2864 04a7 0D       		.uleb128 0xd
 2865 04a8 CA010000 		.4byte	.LASF95
 2866 04ac 06       		.byte	0x6
 2867 04ad 6201     		.2byte	0x162
 2868 04af 81000000 		.4byte	0x81
 2869 04b3 33       		.byte	0x33
 2870 04b4 0D       		.uleb128 0xd
 2871 04b5 B00B0000 		.4byte	.LASF96
 2872 04b9 06       		.byte	0x6
 2873 04ba 6301     		.2byte	0x163
 2874 04bc 81000000 		.4byte	0x81
 2875 04c0 34       		.byte	0x34
 2876 04c1 0D       		.uleb128 0xd
 2877 04c2 F0110000 		.4byte	.LASF97
 2878 04c6 06       		.byte	0x6
 2879 04c7 6401     		.2byte	0x164
 2880 04c9 81000000 		.4byte	0x81
 2881 04cd 35       		.byte	0x35
 2882 04ce 0D       		.uleb128 0xd
 2883 04cf 40070000 		.4byte	.LASF98
 2884 04d3 06       		.byte	0x6
 2885 04d4 6501     		.2byte	0x165
 2886 04d6 81000000 		.4byte	0x81
 2887 04da 36       		.byte	0x36
 2888 04db 0D       		.uleb128 0xd
 2889 04dc CF030000 		.4byte	.LASF99
 2890 04e0 06       		.byte	0x6
 2891 04e1 6601     		.2byte	0x166
 2892 04e3 81000000 		.4byte	0x81
 2893 04e7 37       		.byte	0x37
 2894 04e8 0D       		.uleb128 0xd
 2895 04e9 DF030000 		.4byte	.LASF100
 2896 04ed 06       		.byte	0x6
 2897 04ee 6701     		.2byte	0x167
 2898 04f0 81000000 		.4byte	0x81
 2899 04f4 38       		.byte	0x38
 2900 04f5 0D       		.uleb128 0xd
 2901 04f6 EF030000 		.4byte	.LASF101
 2902 04fa 06       		.byte	0x6
 2903 04fb 6801     		.2byte	0x168
 2904 04fd 81000000 		.4byte	0x81
 2905 0501 39       		.byte	0x39
 2906 0502 0D       		.uleb128 0xd
 2907 0503 AC0A0000 		.4byte	.LASF102
 2908 0507 06       		.byte	0x6
 2909 0508 6901     		.2byte	0x169
 2910 050a 81000000 		.4byte	0x81
 2911 050e 3A       		.byte	0x3a
 2912 050f 0D       		.uleb128 0xd
ARM GAS  C:\Users\MARTHN~1\AppData\Local\Temp\cc63NoI7.s 			page 70


 2913 0510 A0060000 		.4byte	.LASF103
 2914 0514 06       		.byte	0x6
 2915 0515 6A01     		.2byte	0x16a
 2916 0517 81000000 		.4byte	0x81
 2917 051b 3B       		.byte	0x3b
 2918 051c 0D       		.uleb128 0xd
 2919 051d 20060000 		.4byte	.LASF104
 2920 0521 06       		.byte	0x6
 2921 0522 6B01     		.2byte	0x16b
 2922 0524 81000000 		.4byte	0x81
 2923 0528 3C       		.byte	0x3c
 2924 0529 0D       		.uleb128 0xd
 2925 052a C9040000 		.4byte	.LASF105
 2926 052e 06       		.byte	0x6
 2927 052f 6C01     		.2byte	0x16c
 2928 0531 81000000 		.4byte	0x81
 2929 0535 3D       		.byte	0x3d
 2930 0536 0D       		.uleb128 0xd
 2931 0537 A50B0000 		.4byte	.LASF106
 2932 053b 06       		.byte	0x6
 2933 053c 6D01     		.2byte	0x16d
 2934 053e 81000000 		.4byte	0x81
 2935 0542 3E       		.byte	0x3e
 2936 0543 0D       		.uleb128 0xd
 2937 0544 0E090000 		.4byte	.LASF107
 2938 0548 06       		.byte	0x6
 2939 0549 6E01     		.2byte	0x16e
 2940 054b 81000000 		.4byte	0x81
 2941 054f 3F       		.byte	0x3f
 2942 0550 0D       		.uleb128 0xd
 2943 0551 2A030000 		.4byte	.LASF108
 2944 0555 06       		.byte	0x6
 2945 0556 6F01     		.2byte	0x16f
 2946 0558 81000000 		.4byte	0x81
 2947 055c 40       		.byte	0x40
 2948 055d 0D       		.uleb128 0xd
 2949 055e 1E020000 		.4byte	.LASF109
 2950 0562 06       		.byte	0x6
 2951 0563 7001     		.2byte	0x170
 2952 0565 81000000 		.4byte	0x81
 2953 0569 41       		.byte	0x41
 2954 056a 0D       		.uleb128 0xd
 2955 056b 58070000 		.4byte	.LASF110
 2956 056f 06       		.byte	0x6
 2957 0570 7101     		.2byte	0x171
 2958 0572 81000000 		.4byte	0x81
 2959 0576 42       		.byte	0x42
 2960 0577 0D       		.uleb128 0xd
 2961 0578 AC020000 		.4byte	.LASF111
 2962 057c 06       		.byte	0x6
 2963 057d 7201     		.2byte	0x172
 2964 057f 81000000 		.4byte	0x81
 2965 0583 43       		.byte	0x43
 2966 0584 0D       		.uleb128 0xd
 2967 0585 5A040000 		.4byte	.LASF112
 2968 0589 06       		.byte	0x6
 2969 058a 7301     		.2byte	0x173
ARM GAS  C:\Users\MARTHN~1\AppData\Local\Temp\cc63NoI7.s 			page 71


 2970 058c 81000000 		.4byte	0x81
 2971 0590 44       		.byte	0x44
 2972 0591 0D       		.uleb128 0xd
 2973 0592 45050000 		.4byte	.LASF113
 2974 0596 06       		.byte	0x6
 2975 0597 7401     		.2byte	0x174
 2976 0599 81000000 		.4byte	0x81
 2977 059d 45       		.byte	0x45
 2978 059e 0D       		.uleb128 0xd
 2979 059f 64050000 		.4byte	.LASF114
 2980 05a3 06       		.byte	0x6
 2981 05a4 7501     		.2byte	0x175
 2982 05a6 81000000 		.4byte	0x81
 2983 05aa 46       		.byte	0x46
 2984 05ab 0D       		.uleb128 0xd
 2985 05ac 450F0000 		.4byte	.LASF115
 2986 05b0 06       		.byte	0x6
 2987 05b1 7601     		.2byte	0x176
 2988 05b3 81000000 		.4byte	0x81
 2989 05b7 47       		.byte	0x47
 2990 05b8 0D       		.uleb128 0xd
 2991 05b9 5B010000 		.4byte	.LASF116
 2992 05bd 06       		.byte	0x6
 2993 05be 7701     		.2byte	0x177
 2994 05c0 81000000 		.4byte	0x81
 2995 05c4 48       		.byte	0x48
 2996 05c5 0D       		.uleb128 0xd
 2997 05c6 EB0B0000 		.4byte	.LASF117
 2998 05ca 06       		.byte	0x6
 2999 05cb 7801     		.2byte	0x178
 3000 05cd 81000000 		.4byte	0x81
 3001 05d1 49       		.byte	0x49
 3002 05d2 0D       		.uleb128 0xd
 3003 05d3 43000000 		.4byte	.LASF118
 3004 05d7 06       		.byte	0x6
 3005 05d8 7901     		.2byte	0x179
 3006 05da 81000000 		.4byte	0x81
 3007 05de 4A       		.byte	0x4a
 3008 05df 0E       		.uleb128 0xe
 3009 05e0 52524200 		.ascii	"RRB\000"
 3010 05e4 06       		.byte	0x6
 3011 05e5 7A01     		.2byte	0x17a
 3012 05e7 81000000 		.4byte	0x81
 3013 05eb 4B       		.byte	0x4b
 3014 05ec 0D       		.uleb128 0xd
 3015 05ed A00A0000 		.4byte	.LASF119
 3016 05f1 06       		.byte	0x6
 3017 05f2 7B01     		.2byte	0x17b
 3018 05f4 81000000 		.4byte	0x81
 3019 05f8 4C       		.byte	0x4c
 3020 05f9 0D       		.uleb128 0xd
 3021 05fa 0F110000 		.4byte	.LASF120
 3022 05fe 06       		.byte	0x6
 3023 05ff 7C01     		.2byte	0x17c
 3024 0601 81000000 		.4byte	0x81
 3025 0605 4D       		.byte	0x4d
 3026 0606 0D       		.uleb128 0xd
ARM GAS  C:\Users\MARTHN~1\AppData\Local\Temp\cc63NoI7.s 			page 72


 3027 0607 A9110000 		.4byte	.LASF121
 3028 060b 06       		.byte	0x6
 3029 060c 7D01     		.2byte	0x17d
 3030 060e 81000000 		.4byte	0x81
 3031 0612 4E       		.byte	0x4e
 3032 0613 0D       		.uleb128 0xd
 3033 0614 BA0A0000 		.4byte	.LASF122
 3034 0618 06       		.byte	0x6
 3035 0619 7E01     		.2byte	0x17e
 3036 061b 81000000 		.4byte	0x81
 3037 061f 4F       		.byte	0x4f
 3038 0620 00       		.byte	0
 3039 0621 0F       		.uleb128 0xf
 3040 0622 B60C0000 		.4byte	.LASF124
 3041 0626 50       		.byte	0x50
 3042 0627 06       		.byte	0x6
 3043 0628 2901     		.2byte	0x129
 3044 062a 47060000 		.4byte	0x647
 3045 062e 10       		.uleb128 0x10
 3046 062f 3A050000 		.4byte	.LASF40
 3047 0633 06       		.byte	0x6
 3048 0634 2B01     		.2byte	0x12b
 3049 0636 47060000 		.4byte	0x647
 3050 063a 10       		.uleb128 0x10
 3051 063b A8040000 		.4byte	.LASF41
 3052 063f 06       		.byte	0x6
 3053 0640 7F01     		.2byte	0x17f
 3054 0642 03020000 		.4byte	0x203
 3055 0646 00       		.byte	0
 3056 0647 08       		.uleb128 0x8
 3057 0648 81000000 		.4byte	0x81
 3058 064c 57060000 		.4byte	0x657
 3059 0650 09       		.uleb128 0x9
 3060 0651 C1000000 		.4byte	0xc1
 3061 0655 4F       		.byte	0x4f
 3062 0656 00       		.byte	0
 3063 0657 05       		.uleb128 0x5
 3064 0658 0C0E0000 		.4byte	.LASF125
 3065 065c 06       		.byte	0x6
 3066 065d 8001     		.2byte	0x180
 3067 065f 21060000 		.4byte	0x621
 3068 0663 0C       		.uleb128 0xc
 3069 0664 19000000 		.4byte	.LASF126
 3070 0668 05       		.byte	0x5
 3071 0669 06       		.byte	0x6
 3072 066a 9801     		.2byte	0x198
 3073 066c B2060000 		.4byte	0x6b2
 3074 0670 0D       		.uleb128 0xd
 3075 0671 3E0B0000 		.4byte	.LASF33
 3076 0675 06       		.byte	0x6
 3077 0676 9B01     		.2byte	0x19b
 3078 0678 81000000 		.4byte	0x81
 3079 067c 00       		.byte	0
 3080 067d 0D       		.uleb128 0xd
 3081 067e 4A0B0000 		.4byte	.LASF34
 3082 0682 06       		.byte	0x6
 3083 0683 9C01     		.2byte	0x19c
ARM GAS  C:\Users\MARTHN~1\AppData\Local\Temp\cc63NoI7.s 			page 73


 3084 0685 81000000 		.4byte	0x81
 3085 0689 01       		.byte	0x1
 3086 068a 0D       		.uleb128 0xd
 3087 068b 560B0000 		.4byte	.LASF35
 3088 068f 06       		.byte	0x6
 3089 0690 9D01     		.2byte	0x19d
 3090 0692 81000000 		.4byte	0x81
 3091 0696 02       		.byte	0x2
 3092 0697 0D       		.uleb128 0xd
 3093 0698 4B060000 		.4byte	.LASF30
 3094 069c 06       		.byte	0x6
 3095 069d 9E01     		.2byte	0x19e
 3096 069f 81000000 		.4byte	0x81
 3097 06a3 03       		.byte	0x3
 3098 06a4 0D       		.uleb128 0xd
 3099 06a5 200E0000 		.4byte	.LASF31
 3100 06a9 06       		.byte	0x6
 3101 06aa 9F01     		.2byte	0x19f
 3102 06ac 81000000 		.4byte	0x81
 3103 06b0 04       		.byte	0x4
 3104 06b1 00       		.byte	0
 3105 06b2 0F       		.uleb128 0xf
 3106 06b3 7F100000 		.4byte	.LASF127
 3107 06b7 05       		.byte	0x5
 3108 06b8 06       		.byte	0x6
 3109 06b9 9401     		.2byte	0x194
 3110 06bb D8060000 		.4byte	0x6d8
 3111 06bf 10       		.uleb128 0x10
 3112 06c0 3A050000 		.4byte	.LASF40
 3113 06c4 06       		.byte	0x6
 3114 06c5 9601     		.2byte	0x196
 3115 06c7 D8060000 		.4byte	0x6d8
 3116 06cb 10       		.uleb128 0x10
 3117 06cc A8040000 		.4byte	.LASF41
 3118 06d0 06       		.byte	0x6
 3119 06d1 A101     		.2byte	0x1a1
 3120 06d3 63060000 		.4byte	0x663
 3121 06d7 00       		.byte	0
 3122 06d8 08       		.uleb128 0x8
 3123 06d9 81000000 		.4byte	0x81
 3124 06dd E8060000 		.4byte	0x6e8
 3125 06e1 09       		.uleb128 0x9
 3126 06e2 C1000000 		.4byte	0xc1
 3127 06e6 04       		.byte	0x4
 3128 06e7 00       		.byte	0
 3129 06e8 05       		.uleb128 0x5
 3130 06e9 96040000 		.4byte	.LASF128
 3131 06ed 06       		.byte	0x6
 3132 06ee A201     		.2byte	0x1a2
 3133 06f0 B2060000 		.4byte	0x6b2
 3134 06f4 06       		.uleb128 0x6
 3135 06f5 45040000 		.4byte	.LASF129
 3136 06f9 6F       		.byte	0x6f
 3137 06fa 07       		.byte	0x7
 3138 06fb 20       		.byte	0x20
 3139 06fc 350C0000 		.4byte	0xc35
 3140 0700 07       		.uleb128 0x7
ARM GAS  C:\Users\MARTHN~1\AppData\Local\Temp\cc63NoI7.s 			page 74


 3141 0701 F00D0000 		.4byte	.LASF130
 3142 0705 07       		.byte	0x7
 3143 0706 22       		.byte	0x22
 3144 0707 81000000 		.4byte	0x81
 3145 070b 00       		.byte	0
 3146 070c 07       		.uleb128 0x7
 3147 070d A6010000 		.4byte	.LASF131
 3148 0711 07       		.byte	0x7
 3149 0712 23       		.byte	0x23
 3150 0713 81000000 		.4byte	0x81
 3151 0717 01       		.byte	0x1
 3152 0718 07       		.uleb128 0x7
 3153 0719 B2010000 		.4byte	.LASF132
 3154 071d 07       		.byte	0x7
 3155 071e 24       		.byte	0x24
 3156 071f 81000000 		.4byte	0x81
 3157 0723 02       		.byte	0x2
 3158 0724 07       		.uleb128 0x7
 3159 0725 BE010000 		.4byte	.LASF133
 3160 0729 07       		.byte	0x7
 3161 072a 25       		.byte	0x25
 3162 072b 81000000 		.4byte	0x81
 3163 072f 03       		.byte	0x3
 3164 0730 07       		.uleb128 0x7
 3165 0731 8F0F0000 		.4byte	.LASF134
 3166 0735 07       		.byte	0x7
 3167 0736 26       		.byte	0x26
 3168 0737 81000000 		.4byte	0x81
 3169 073b 04       		.byte	0x4
 3170 073c 07       		.uleb128 0x7
 3171 073d E2010000 		.4byte	.LASF135
 3172 0741 07       		.byte	0x7
 3173 0742 27       		.byte	0x27
 3174 0743 81000000 		.4byte	0x81
 3175 0747 05       		.byte	0x5
 3176 0748 07       		.uleb128 0x7
 3177 0749 EE010000 		.4byte	.LASF136
 3178 074d 07       		.byte	0x7
 3179 074e 28       		.byte	0x28
 3180 074f 81000000 		.4byte	0x81
 3181 0753 06       		.byte	0x6
 3182 0754 07       		.uleb128 0x7
 3183 0755 FA010000 		.4byte	.LASF137
 3184 0759 07       		.byte	0x7
 3185 075a 29       		.byte	0x29
 3186 075b 81000000 		.4byte	0x81
 3187 075f 07       		.byte	0x7
 3188 0760 07       		.uleb128 0x7
 3189 0761 06020000 		.4byte	.LASF138
 3190 0765 07       		.byte	0x7
 3191 0766 2A       		.byte	0x2a
 3192 0767 81000000 		.4byte	0x81
 3193 076b 08       		.byte	0x8
 3194 076c 07       		.uleb128 0x7
 3195 076d 12020000 		.4byte	.LASF139
 3196 0771 07       		.byte	0x7
 3197 0772 2B       		.byte	0x2b
ARM GAS  C:\Users\MARTHN~1\AppData\Local\Temp\cc63NoI7.s 			page 75


 3198 0773 81000000 		.4byte	0x81
 3199 0777 09       		.byte	0x9
 3200 0778 07       		.uleb128 0x7
 3201 0779 AE060000 		.4byte	.LASF140
 3202 077d 07       		.byte	0x7
 3203 077e 2C       		.byte	0x2c
 3204 077f 81000000 		.4byte	0x81
 3205 0783 0A       		.byte	0xa
 3206 0784 07       		.uleb128 0x7
 3207 0785 BB060000 		.4byte	.LASF141
 3208 0789 07       		.byte	0x7
 3209 078a 2D       		.byte	0x2d
 3210 078b 81000000 		.4byte	0x81
 3211 078f 0B       		.byte	0xb
 3212 0790 07       		.uleb128 0x7
 3213 0791 C8060000 		.4byte	.LASF142
 3214 0795 07       		.byte	0x7
 3215 0796 2E       		.byte	0x2e
 3216 0797 81000000 		.4byte	0x81
 3217 079b 0C       		.byte	0xc
 3218 079c 07       		.uleb128 0x7
 3219 079d D5060000 		.4byte	.LASF143
 3220 07a1 07       		.byte	0x7
 3221 07a2 2F       		.byte	0x2f
 3222 07a3 81000000 		.4byte	0x81
 3223 07a7 0D       		.byte	0xd
 3224 07a8 07       		.uleb128 0x7
 3225 07a9 E2060000 		.4byte	.LASF144
 3226 07ad 07       		.byte	0x7
 3227 07ae 30       		.byte	0x30
 3228 07af 81000000 		.4byte	0x81
 3229 07b3 0E       		.byte	0xe
 3230 07b4 07       		.uleb128 0x7
 3231 07b5 EF060000 		.4byte	.LASF145
 3232 07b9 07       		.byte	0x7
 3233 07ba 31       		.byte	0x31
 3234 07bb 81000000 		.4byte	0x81
 3235 07bf 0F       		.byte	0xf
 3236 07c0 07       		.uleb128 0x7
 3237 07c1 FC060000 		.4byte	.LASF146
 3238 07c5 07       		.byte	0x7
 3239 07c6 32       		.byte	0x32
 3240 07c7 81000000 		.4byte	0x81
 3241 07cb 10       		.byte	0x10
 3242 07cc 07       		.uleb128 0x7
 3243 07cd 09070000 		.4byte	.LASF147
 3244 07d1 07       		.byte	0x7
 3245 07d2 33       		.byte	0x33
 3246 07d3 81000000 		.4byte	0x81
 3247 07d7 11       		.byte	0x11
 3248 07d8 07       		.uleb128 0x7
 3249 07d9 16070000 		.4byte	.LASF148
 3250 07dd 07       		.byte	0x7
 3251 07de 34       		.byte	0x34
 3252 07df 81000000 		.4byte	0x81
 3253 07e3 12       		.byte	0x12
 3254 07e4 07       		.uleb128 0x7
ARM GAS  C:\Users\MARTHN~1\AppData\Local\Temp\cc63NoI7.s 			page 76


 3255 07e5 23070000 		.4byte	.LASF149
 3256 07e9 07       		.byte	0x7
 3257 07ea 35       		.byte	0x35
 3258 07eb 81000000 		.4byte	0x81
 3259 07ef 13       		.byte	0x13
 3260 07f0 07       		.uleb128 0x7
 3261 07f1 B3070000 		.4byte	.LASF150
 3262 07f5 07       		.byte	0x7
 3263 07f6 36       		.byte	0x36
 3264 07f7 81000000 		.4byte	0x81
 3265 07fb 14       		.byte	0x14
 3266 07fc 07       		.uleb128 0x7
 3267 07fd C0070000 		.4byte	.LASF151
 3268 0801 07       		.byte	0x7
 3269 0802 37       		.byte	0x37
 3270 0803 81000000 		.4byte	0x81
 3271 0807 15       		.byte	0x15
 3272 0808 07       		.uleb128 0x7
 3273 0809 CD070000 		.4byte	.LASF152
 3274 080d 07       		.byte	0x7
 3275 080e 38       		.byte	0x38
 3276 080f 81000000 		.4byte	0x81
 3277 0813 16       		.byte	0x16
 3278 0814 07       		.uleb128 0x7
 3279 0815 DA070000 		.4byte	.LASF153
 3280 0819 07       		.byte	0x7
 3281 081a 39       		.byte	0x39
 3282 081b 81000000 		.4byte	0x81
 3283 081f 17       		.byte	0x17
 3284 0820 07       		.uleb128 0x7
 3285 0821 E7070000 		.4byte	.LASF154
 3286 0825 07       		.byte	0x7
 3287 0826 3A       		.byte	0x3a
 3288 0827 81000000 		.4byte	0x81
 3289 082b 18       		.byte	0x18
 3290 082c 07       		.uleb128 0x7
 3291 082d F4070000 		.4byte	.LASF155
 3292 0831 07       		.byte	0x7
 3293 0832 3B       		.byte	0x3b
 3294 0833 81000000 		.4byte	0x81
 3295 0837 19       		.byte	0x19
 3296 0838 07       		.uleb128 0x7
 3297 0839 01080000 		.4byte	.LASF156
 3298 083d 07       		.byte	0x7
 3299 083e 3C       		.byte	0x3c
 3300 083f 81000000 		.4byte	0x81
 3301 0843 1A       		.byte	0x1a
 3302 0844 07       		.uleb128 0x7
 3303 0845 0E080000 		.4byte	.LASF157
 3304 0849 07       		.byte	0x7
 3305 084a 3D       		.byte	0x3d
 3306 084b 81000000 		.4byte	0x81
 3307 084f 1B       		.byte	0x1b
 3308 0850 07       		.uleb128 0x7
 3309 0851 1B080000 		.4byte	.LASF158
 3310 0855 07       		.byte	0x7
 3311 0856 3E       		.byte	0x3e
ARM GAS  C:\Users\MARTHN~1\AppData\Local\Temp\cc63NoI7.s 			page 77


 3312 0857 81000000 		.4byte	0x81
 3313 085b 1C       		.byte	0x1c
 3314 085c 07       		.uleb128 0x7
 3315 085d 28080000 		.4byte	.LASF159
 3316 0861 07       		.byte	0x7
 3317 0862 3F       		.byte	0x3f
 3318 0863 81000000 		.4byte	0x81
 3319 0867 1D       		.byte	0x1d
 3320 0868 07       		.uleb128 0x7
 3321 0869 01090000 		.4byte	.LASF160
 3322 086d 07       		.byte	0x7
 3323 086e 40       		.byte	0x40
 3324 086f 81000000 		.4byte	0x81
 3325 0873 1E       		.byte	0x1e
 3326 0874 07       		.uleb128 0x7
 3327 0875 4A0C0000 		.4byte	.LASF161
 3328 0879 07       		.byte	0x7
 3329 087a 42       		.byte	0x42
 3330 087b 81000000 		.4byte	0x81
 3331 087f 1F       		.byte	0x1f
 3332 0880 07       		.uleb128 0x7
 3333 0881 530C0000 		.4byte	.LASF162
 3334 0885 07       		.byte	0x7
 3335 0886 43       		.byte	0x43
 3336 0887 81000000 		.4byte	0x81
 3337 088b 20       		.byte	0x20
 3338 088c 07       		.uleb128 0x7
 3339 088d 5C0C0000 		.4byte	.LASF163
 3340 0891 07       		.byte	0x7
 3341 0892 44       		.byte	0x44
 3342 0893 81000000 		.4byte	0x81
 3343 0897 21       		.byte	0x21
 3344 0898 07       		.uleb128 0x7
 3345 0899 63100000 		.4byte	.LASF164
 3346 089d 07       		.byte	0x7
 3347 089e 46       		.byte	0x46
 3348 089f 81000000 		.4byte	0x81
 3349 08a3 22       		.byte	0x22
 3350 08a4 07       		.uleb128 0x7
 3351 08a5 71100000 		.4byte	.LASF165
 3352 08a9 07       		.byte	0x7
 3353 08aa 47       		.byte	0x47
 3354 08ab 81000000 		.4byte	0x81
 3355 08af 23       		.byte	0x23
 3356 08b0 07       		.uleb128 0x7
 3357 08b1 8E0B0000 		.4byte	.LASF166
 3358 08b5 07       		.byte	0x7
 3359 08b6 48       		.byte	0x48
 3360 08b7 81000000 		.4byte	0x81
 3361 08bb 24       		.byte	0x24
 3362 08bc 07       		.uleb128 0x7
 3363 08bd 88100000 		.4byte	.LASF167
 3364 08c1 07       		.byte	0x7
 3365 08c2 49       		.byte	0x49
 3366 08c3 81000000 		.4byte	0x81
 3367 08c7 25       		.byte	0x25
 3368 08c8 07       		.uleb128 0x7
ARM GAS  C:\Users\MARTHN~1\AppData\Local\Temp\cc63NoI7.s 			page 78


 3369 08c9 650C0000 		.4byte	.LASF168
 3370 08cd 07       		.byte	0x7
 3371 08ce 4B       		.byte	0x4b
 3372 08cf 81000000 		.4byte	0x81
 3373 08d3 26       		.byte	0x26
 3374 08d4 07       		.uleb128 0x7
 3375 08d5 6E0C0000 		.4byte	.LASF169
 3376 08d9 07       		.byte	0x7
 3377 08da 4C       		.byte	0x4c
 3378 08db 81000000 		.4byte	0x81
 3379 08df 27       		.byte	0x27
 3380 08e0 07       		.uleb128 0x7
 3381 08e1 770C0000 		.4byte	.LASF170
 3382 08e5 07       		.byte	0x7
 3383 08e6 4D       		.byte	0x4d
 3384 08e7 81000000 		.4byte	0x81
 3385 08eb 28       		.byte	0x28
 3386 08ec 07       		.uleb128 0x7
 3387 08ed 800C0000 		.4byte	.LASF171
 3388 08f1 07       		.byte	0x7
 3389 08f2 4E       		.byte	0x4e
 3390 08f3 81000000 		.4byte	0x81
 3391 08f7 29       		.byte	0x29
 3392 08f8 07       		.uleb128 0x7
 3393 08f9 19090000 		.4byte	.LASF172
 3394 08fd 07       		.byte	0x7
 3395 08fe 50       		.byte	0x50
 3396 08ff 81000000 		.4byte	0x81
 3397 0903 2A       		.byte	0x2a
 3398 0904 07       		.uleb128 0x7
 3399 0905 2A090000 		.4byte	.LASF173
 3400 0909 07       		.byte	0x7
 3401 090a 51       		.byte	0x51
 3402 090b 81000000 		.4byte	0x81
 3403 090f 2B       		.byte	0x2b
 3404 0910 07       		.uleb128 0x7
 3405 0911 3B090000 		.4byte	.LASF174
 3406 0915 07       		.byte	0x7
 3407 0916 52       		.byte	0x52
 3408 0917 81000000 		.4byte	0x81
 3409 091b 2C       		.byte	0x2c
 3410 091c 07       		.uleb128 0x7
 3411 091d 4C090000 		.4byte	.LASF175
 3412 0921 07       		.byte	0x7
 3413 0922 53       		.byte	0x53
 3414 0923 81000000 		.4byte	0x81
 3415 0927 2D       		.byte	0x2d
 3416 0928 07       		.uleb128 0x7
 3417 0929 5D090000 		.4byte	.LASF176
 3418 092d 07       		.byte	0x7
 3419 092e 54       		.byte	0x54
 3420 092f 81000000 		.4byte	0x81
 3421 0933 2E       		.byte	0x2e
 3422 0934 07       		.uleb128 0x7
 3423 0935 6E090000 		.4byte	.LASF177
 3424 0939 07       		.byte	0x7
 3425 093a 55       		.byte	0x55
ARM GAS  C:\Users\MARTHN~1\AppData\Local\Temp\cc63NoI7.s 			page 79


 3426 093b 81000000 		.4byte	0x81
 3427 093f 2F       		.byte	0x2f
 3428 0940 07       		.uleb128 0x7
 3429 0941 7F090000 		.4byte	.LASF178
 3430 0945 07       		.byte	0x7
 3431 0946 56       		.byte	0x56
 3432 0947 81000000 		.4byte	0x81
 3433 094b 30       		.byte	0x30
 3434 094c 07       		.uleb128 0x7
 3435 094d 90090000 		.4byte	.LASF179
 3436 0951 07       		.byte	0x7
 3437 0952 57       		.byte	0x57
 3438 0953 81000000 		.4byte	0x81
 3439 0957 31       		.byte	0x31
 3440 0958 07       		.uleb128 0x7
 3441 0959 890C0000 		.4byte	.LASF180
 3442 095d 07       		.byte	0x7
 3443 095e 59       		.byte	0x59
 3444 095f 81000000 		.4byte	0x81
 3445 0963 32       		.byte	0x32
 3446 0964 07       		.uleb128 0x7
 3447 0965 FF030000 		.4byte	.LASF181
 3448 0969 07       		.byte	0x7
 3449 096a 5A       		.byte	0x5a
 3450 096b 81000000 		.4byte	0x81
 3451 096f 33       		.byte	0x33
 3452 0970 07       		.uleb128 0x7
 3453 0971 5C030000 		.4byte	.LASF182
 3454 0975 07       		.byte	0x7
 3455 0976 5C       		.byte	0x5c
 3456 0977 81000000 		.4byte	0x81
 3457 097b 34       		.byte	0x34
 3458 097c 07       		.uleb128 0x7
 3459 097d 6A030000 		.4byte	.LASF183
 3460 0981 07       		.byte	0x7
 3461 0982 5D       		.byte	0x5d
 3462 0983 81000000 		.4byte	0x81
 3463 0987 35       		.byte	0x35
 3464 0988 07       		.uleb128 0x7
 3465 0989 78030000 		.4byte	.LASF184
 3466 098d 07       		.byte	0x7
 3467 098e 5E       		.byte	0x5e
 3468 098f 81000000 		.4byte	0x81
 3469 0993 36       		.byte	0x36
 3470 0994 07       		.uleb128 0x7
 3471 0995 86030000 		.4byte	.LASF185
 3472 0999 07       		.byte	0x7
 3473 099a 5F       		.byte	0x5f
 3474 099b 81000000 		.4byte	0x81
 3475 099f 37       		.byte	0x37
 3476 09a0 07       		.uleb128 0x7
 3477 09a1 F60A0000 		.4byte	.LASF186
 3478 09a5 07       		.byte	0x7
 3479 09a6 60       		.byte	0x60
 3480 09a7 81000000 		.4byte	0x81
 3481 09ab 38       		.byte	0x38
 3482 09ac 07       		.uleb128 0x7
ARM GAS  C:\Users\MARTHN~1\AppData\Local\Temp\cc63NoI7.s 			page 80


 3483 09ad 9D030000 		.4byte	.LASF187
 3484 09b1 07       		.byte	0x7
 3485 09b2 61       		.byte	0x61
 3486 09b3 81000000 		.4byte	0x81
 3487 09b7 39       		.byte	0x39
 3488 09b8 07       		.uleb128 0x7
 3489 09b9 AB030000 		.4byte	.LASF188
 3490 09bd 07       		.byte	0x7
 3491 09be 62       		.byte	0x62
 3492 09bf 81000000 		.4byte	0x81
 3493 09c3 3A       		.byte	0x3a
 3494 09c4 07       		.uleb128 0x7
 3495 09c5 B9030000 		.4byte	.LASF189
 3496 09c9 07       		.byte	0x7
 3497 09ca 63       		.byte	0x63
 3498 09cb 81000000 		.4byte	0x81
 3499 09cf 3B       		.byte	0x3b
 3500 09d0 07       		.uleb128 0x7
 3501 09d1 00110000 		.4byte	.LASF190
 3502 09d5 07       		.byte	0x7
 3503 09d6 64       		.byte	0x64
 3504 09d7 81000000 		.4byte	0x81
 3505 09db 3C       		.byte	0x3c
 3506 09dc 07       		.uleb128 0x7
 3507 09dd 2E020000 		.4byte	.LASF191
 3508 09e1 07       		.byte	0x7
 3509 09e2 66       		.byte	0x66
 3510 09e3 81000000 		.4byte	0x81
 3511 09e7 3D       		.byte	0x3d
 3512 09e8 07       		.uleb128 0x7
 3513 09e9 3C020000 		.4byte	.LASF192
 3514 09ed 07       		.byte	0x7
 3515 09ee 67       		.byte	0x67
 3516 09ef 81000000 		.4byte	0x81
 3517 09f3 3E       		.byte	0x3e
 3518 09f4 07       		.uleb128 0x7
 3519 09f5 4A020000 		.4byte	.LASF193
 3520 09f9 07       		.byte	0x7
 3521 09fa 68       		.byte	0x68
 3522 09fb 81000000 		.4byte	0x81
 3523 09ff 3F       		.byte	0x3f
 3524 0a00 07       		.uleb128 0x7
 3525 0a01 58020000 		.4byte	.LASF194
 3526 0a05 07       		.byte	0x7
 3527 0a06 69       		.byte	0x69
 3528 0a07 81000000 		.4byte	0x81
 3529 0a0b 40       		.byte	0x40
 3530 0a0c 07       		.uleb128 0x7
 3531 0a0d 66020000 		.4byte	.LASF195
 3532 0a11 07       		.byte	0x7
 3533 0a12 6A       		.byte	0x6a
 3534 0a13 81000000 		.4byte	0x81
 3535 0a17 41       		.byte	0x41
 3536 0a18 07       		.uleb128 0x7
 3537 0a19 74020000 		.4byte	.LASF196
 3538 0a1d 07       		.byte	0x7
 3539 0a1e 6B       		.byte	0x6b
ARM GAS  C:\Users\MARTHN~1\AppData\Local\Temp\cc63NoI7.s 			page 81


 3540 0a1f 81000000 		.4byte	0x81
 3541 0a23 42       		.byte	0x42
 3542 0a24 07       		.uleb128 0x7
 3543 0a25 82020000 		.4byte	.LASF197
 3544 0a29 07       		.byte	0x7
 3545 0a2a 6C       		.byte	0x6c
 3546 0a2b 81000000 		.4byte	0x81
 3547 0a2f 43       		.byte	0x43
 3548 0a30 07       		.uleb128 0x7
 3549 0a31 90020000 		.4byte	.LASF198
 3550 0a35 07       		.byte	0x7
 3551 0a36 6D       		.byte	0x6d
 3552 0a37 81000000 		.4byte	0x81
 3553 0a3b 44       		.byte	0x44
 3554 0a3c 07       		.uleb128 0x7
 3555 0a3d 9E020000 		.4byte	.LASF199
 3556 0a41 07       		.byte	0x7
 3557 0a42 6E       		.byte	0x6e
 3558 0a43 81000000 		.4byte	0x81
 3559 0a47 45       		.byte	0x45
 3560 0a48 07       		.uleb128 0x7
 3561 0a49 610E0000 		.4byte	.LASF200
 3562 0a4d 07       		.byte	0x7
 3563 0a4e 6F       		.byte	0x6f
 3564 0a4f 81000000 		.4byte	0x81
 3565 0a53 46       		.byte	0x46
 3566 0a54 07       		.uleb128 0x7
 3567 0a55 AD0E0000 		.4byte	.LASF201
 3568 0a59 07       		.byte	0x7
 3569 0a5a 71       		.byte	0x71
 3570 0a5b 81000000 		.4byte	0x81
 3571 0a5f 47       		.byte	0x47
 3572 0a60 07       		.uleb128 0x7
 3573 0a61 BD0E0000 		.4byte	.LASF202
 3574 0a65 07       		.byte	0x7
 3575 0a66 72       		.byte	0x72
 3576 0a67 81000000 		.4byte	0x81
 3577 0a6b 48       		.byte	0x48
 3578 0a6c 07       		.uleb128 0x7
 3579 0a6d 2A050000 		.4byte	.LASF203
 3580 0a71 07       		.byte	0x7
 3581 0a72 73       		.byte	0x73
 3582 0a73 81000000 		.4byte	0x81
 3583 0a77 49       		.byte	0x49
 3584 0a78 07       		.uleb128 0x7
 3585 0a79 D60E0000 		.4byte	.LASF204
 3586 0a7d 07       		.byte	0x7
 3587 0a7e 74       		.byte	0x74
 3588 0a7f 81000000 		.4byte	0x81
 3589 0a83 4A       		.byte	0x4a
 3590 0a84 07       		.uleb128 0x7
 3591 0a85 E60E0000 		.4byte	.LASF205
 3592 0a89 07       		.byte	0x7
 3593 0a8a 75       		.byte	0x75
 3594 0a8b 81000000 		.4byte	0x81
 3595 0a8f 4B       		.byte	0x4b
 3596 0a90 07       		.uleb128 0x7
ARM GAS  C:\Users\MARTHN~1\AppData\Local\Temp\cc63NoI7.s 			page 82


 3597 0a91 F60E0000 		.4byte	.LASF206
 3598 0a95 07       		.byte	0x7
 3599 0a96 76       		.byte	0x76
 3600 0a97 81000000 		.4byte	0x81
 3601 0a9b 4C       		.byte	0x4c
 3602 0a9c 07       		.uleb128 0x7
 3603 0a9d 060F0000 		.4byte	.LASF207
 3604 0aa1 07       		.byte	0x7
 3605 0aa2 77       		.byte	0x77
 3606 0aa3 81000000 		.4byte	0x81
 3607 0aa7 4D       		.byte	0x4d
 3608 0aa8 07       		.uleb128 0x7
 3609 0aa9 160F0000 		.4byte	.LASF208
 3610 0aad 07       		.byte	0x7
 3611 0aae 78       		.byte	0x78
 3612 0aaf 81000000 		.4byte	0x81
 3613 0ab3 4E       		.byte	0x4e
 3614 0ab4 07       		.uleb128 0x7
 3615 0ab5 260F0000 		.4byte	.LASF209
 3616 0ab9 07       		.byte	0x7
 3617 0aba 79       		.byte	0x79
 3618 0abb 81000000 		.4byte	0x81
 3619 0abf 4F       		.byte	0x4f
 3620 0ac0 07       		.uleb128 0x7
 3621 0ac1 85040000 		.4byte	.LASF210
 3622 0ac5 07       		.byte	0x7
 3623 0ac6 7A       		.byte	0x7a
 3624 0ac7 81000000 		.4byte	0x81
 3625 0acb 50       		.byte	0x50
 3626 0acc 07       		.uleb128 0x7
 3627 0acd 35080000 		.4byte	.LASF211
 3628 0ad1 07       		.byte	0x7
 3629 0ad2 7C       		.byte	0x7c
 3630 0ad3 81000000 		.4byte	0x81
 3631 0ad7 51       		.byte	0x51
 3632 0ad8 07       		.uleb128 0x7
 3633 0ad9 46080000 		.4byte	.LASF212
 3634 0add 07       		.byte	0x7
 3635 0ade 7D       		.byte	0x7d
 3636 0adf 81000000 		.4byte	0x81
 3637 0ae3 52       		.byte	0x52
 3638 0ae4 07       		.uleb128 0x7
 3639 0ae5 57080000 		.4byte	.LASF213
 3640 0ae9 07       		.byte	0x7
 3641 0aea 7E       		.byte	0x7e
 3642 0aeb 81000000 		.4byte	0x81
 3643 0aef 53       		.byte	0x53
 3644 0af0 07       		.uleb128 0x7
 3645 0af1 68080000 		.4byte	.LASF214
 3646 0af5 07       		.byte	0x7
 3647 0af6 7F       		.byte	0x7f
 3648 0af7 81000000 		.4byte	0x81
 3649 0afb 54       		.byte	0x54
 3650 0afc 07       		.uleb128 0x7
 3651 0afd 79080000 		.4byte	.LASF215
 3652 0b01 07       		.byte	0x7
 3653 0b02 80       		.byte	0x80
ARM GAS  C:\Users\MARTHN~1\AppData\Local\Temp\cc63NoI7.s 			page 83


 3654 0b03 81000000 		.4byte	0x81
 3655 0b07 55       		.byte	0x55
 3656 0b08 07       		.uleb128 0x7
 3657 0b09 8A080000 		.4byte	.LASF216
 3658 0b0d 07       		.byte	0x7
 3659 0b0e 81       		.byte	0x81
 3660 0b0f 81000000 		.4byte	0x81
 3661 0b13 56       		.byte	0x56
 3662 0b14 07       		.uleb128 0x7
 3663 0b15 9B080000 		.4byte	.LASF217
 3664 0b19 07       		.byte	0x7
 3665 0b1a 82       		.byte	0x82
 3666 0b1b 81000000 		.4byte	0x81
 3667 0b1f 57       		.byte	0x57
 3668 0b20 07       		.uleb128 0x7
 3669 0b21 AC080000 		.4byte	.LASF218
 3670 0b25 07       		.byte	0x7
 3671 0b26 83       		.byte	0x83
 3672 0b27 81000000 		.4byte	0x81
 3673 0b2b 58       		.byte	0x58
 3674 0b2c 07       		.uleb128 0x7
 3675 0b2d BD080000 		.4byte	.LASF219
 3676 0b31 07       		.byte	0x7
 3677 0b32 84       		.byte	0x84
 3678 0b33 81000000 		.4byte	0x81
 3679 0b37 59       		.byte	0x59
 3680 0b38 07       		.uleb128 0x7
 3681 0b39 31110000 		.4byte	.LASF220
 3682 0b3d 07       		.byte	0x7
 3683 0b3e 85       		.byte	0x85
 3684 0b3f 81000000 		.4byte	0x81
 3685 0b43 5A       		.byte	0x5a
 3686 0b44 07       		.uleb128 0x7
 3687 0b45 330D0000 		.4byte	.LASF221
 3688 0b49 07       		.byte	0x7
 3689 0b4a 87       		.byte	0x87
 3690 0b4b 81000000 		.4byte	0x81
 3691 0b4f 5B       		.byte	0x5b
 3692 0b50 07       		.uleb128 0x7
 3693 0b51 450D0000 		.4byte	.LASF222
 3694 0b55 07       		.byte	0x7
 3695 0b56 88       		.byte	0x88
 3696 0b57 81000000 		.4byte	0x81
 3697 0b5b 5C       		.byte	0x5c
 3698 0b5c 07       		.uleb128 0x7
 3699 0b5d 570D0000 		.4byte	.LASF223
 3700 0b61 07       		.byte	0x7
 3701 0b62 89       		.byte	0x89
 3702 0b63 81000000 		.4byte	0x81
 3703 0b67 5D       		.byte	0x5d
 3704 0b68 07       		.uleb128 0x7
 3705 0b69 690D0000 		.4byte	.LASF224
 3706 0b6d 07       		.byte	0x7
 3707 0b6e 8A       		.byte	0x8a
 3708 0b6f 81000000 		.4byte	0x81
 3709 0b73 5E       		.byte	0x5e
 3710 0b74 07       		.uleb128 0x7
ARM GAS  C:\Users\MARTHN~1\AppData\Local\Temp\cc63NoI7.s 			page 84


 3711 0b75 7B0D0000 		.4byte	.LASF225
 3712 0b79 07       		.byte	0x7
 3713 0b7a 8B       		.byte	0x8b
 3714 0b7b 81000000 		.4byte	0x81
 3715 0b7f 5F       		.byte	0x5f
 3716 0b80 07       		.uleb128 0x7
 3717 0b81 8D0D0000 		.4byte	.LASF226
 3718 0b85 07       		.byte	0x7
 3719 0b86 8C       		.byte	0x8c
 3720 0b87 81000000 		.4byte	0x81
 3721 0b8b 60       		.byte	0x60
 3722 0b8c 07       		.uleb128 0x7
 3723 0b8d 9F0D0000 		.4byte	.LASF227
 3724 0b91 07       		.byte	0x7
 3725 0b92 8D       		.byte	0x8d
 3726 0b93 81000000 		.4byte	0x81
 3727 0b97 61       		.byte	0x61
 3728 0b98 07       		.uleb128 0x7
 3729 0b99 B10D0000 		.4byte	.LASF228
 3730 0b9d 07       		.byte	0x7
 3731 0b9e 8E       		.byte	0x8e
 3732 0b9f 81000000 		.4byte	0x81
 3733 0ba3 62       		.byte	0x62
 3734 0ba4 07       		.uleb128 0x7
 3735 0ba5 C30D0000 		.4byte	.LASF229
 3736 0ba9 07       		.byte	0x7
 3737 0baa 8F       		.byte	0x8f
 3738 0bab 81000000 		.4byte	0x81
 3739 0baf 63       		.byte	0x63
 3740 0bb0 07       		.uleb128 0x7
 3741 0bb1 55110000 		.4byte	.LASF230
 3742 0bb5 07       		.byte	0x7
 3743 0bb6 90       		.byte	0x90
 3744 0bb7 81000000 		.4byte	0x81
 3745 0bbb 64       		.byte	0x64
 3746 0bbc 07       		.uleb128 0x7
 3747 0bbd 76000000 		.4byte	.LASF231
 3748 0bc1 07       		.byte	0x7
 3749 0bc2 92       		.byte	0x92
 3750 0bc3 81000000 		.4byte	0x81
 3751 0bc7 65       		.byte	0x65
 3752 0bc8 07       		.uleb128 0x7
 3753 0bc9 84000000 		.4byte	.LASF232
 3754 0bcd 07       		.byte	0x7
 3755 0bce 93       		.byte	0x93
 3756 0bcf 81000000 		.4byte	0x81
 3757 0bd3 66       		.byte	0x66
 3758 0bd4 07       		.uleb128 0x7
 3759 0bd5 92000000 		.4byte	.LASF233
 3760 0bd9 07       		.byte	0x7
 3761 0bda 94       		.byte	0x94
 3762 0bdb 81000000 		.4byte	0x81
 3763 0bdf 67       		.byte	0x67
 3764 0be0 07       		.uleb128 0x7
 3765 0be1 A0000000 		.4byte	.LASF234
 3766 0be5 07       		.byte	0x7
 3767 0be6 95       		.byte	0x95
ARM GAS  C:\Users\MARTHN~1\AppData\Local\Temp\cc63NoI7.s 			page 85


 3768 0be7 81000000 		.4byte	0x81
 3769 0beb 68       		.byte	0x68
 3770 0bec 07       		.uleb128 0x7
 3771 0bed AE000000 		.4byte	.LASF235
 3772 0bf1 07       		.byte	0x7
 3773 0bf2 96       		.byte	0x96
 3774 0bf3 81000000 		.4byte	0x81
 3775 0bf7 69       		.byte	0x69
 3776 0bf8 07       		.uleb128 0x7
 3777 0bf9 BC000000 		.4byte	.LASF236
 3778 0bfd 07       		.byte	0x7
 3779 0bfe 97       		.byte	0x97
 3780 0bff 81000000 		.4byte	0x81
 3781 0c03 6A       		.byte	0x6a
 3782 0c04 07       		.uleb128 0x7
 3783 0c05 CA000000 		.4byte	.LASF237
 3784 0c09 07       		.byte	0x7
 3785 0c0a 98       		.byte	0x98
 3786 0c0b 81000000 		.4byte	0x81
 3787 0c0f 6B       		.byte	0x6b
 3788 0c10 07       		.uleb128 0x7
 3789 0c11 D8000000 		.4byte	.LASF238
 3790 0c15 07       		.byte	0x7
 3791 0c16 99       		.byte	0x99
 3792 0c17 81000000 		.4byte	0x81
 3793 0c1b 6C       		.byte	0x6c
 3794 0c1c 07       		.uleb128 0x7
 3795 0c1d E6000000 		.4byte	.LASF239
 3796 0c21 07       		.byte	0x7
 3797 0c22 9A       		.byte	0x9a
 3798 0c23 81000000 		.4byte	0x81
 3799 0c27 6D       		.byte	0x6d
 3800 0c28 07       		.uleb128 0x7
 3801 0c29 2B010000 		.4byte	.LASF240
 3802 0c2d 07       		.byte	0x7
 3803 0c2e 9B       		.byte	0x9b
 3804 0c2f 81000000 		.4byte	0x81
 3805 0c33 6E       		.byte	0x6e
 3806 0c34 00       		.byte	0
 3807 0c35 0A       		.uleb128 0xa
 3808 0c36 3C0C0000 		.4byte	.LASF241
 3809 0c3a 6F       		.byte	0x6f
 3810 0c3b 07       		.byte	0x7
 3811 0c3c 1C       		.byte	0x1c
 3812 0c3d 580C0000 		.4byte	0xc58
 3813 0c41 0B       		.uleb128 0xb
 3814 0c42 3A050000 		.4byte	.LASF40
 3815 0c46 07       		.byte	0x7
 3816 0c47 1E       		.byte	0x1e
 3817 0c48 580C0000 		.4byte	0xc58
 3818 0c4c 0B       		.uleb128 0xb
 3819 0c4d A8040000 		.4byte	.LASF41
 3820 0c51 07       		.byte	0x7
 3821 0c52 9C       		.byte	0x9c
 3822 0c53 F4060000 		.4byte	0x6f4
 3823 0c57 00       		.byte	0
 3824 0c58 08       		.uleb128 0x8
ARM GAS  C:\Users\MARTHN~1\AppData\Local\Temp\cc63NoI7.s 			page 86


 3825 0c59 81000000 		.4byte	0x81
 3826 0c5d 680C0000 		.4byte	0xc68
 3827 0c61 09       		.uleb128 0x9
 3828 0c62 C1000000 		.4byte	0xc1
 3829 0c66 6E       		.byte	0x6e
 3830 0c67 00       		.byte	0
 3831 0c68 03       		.uleb128 0x3
 3832 0c69 FE0D0000 		.4byte	.LASF242
 3833 0c6d 07       		.byte	0x7
 3834 0c6e 9D       		.byte	0x9d
 3835 0c6f 350C0000 		.4byte	0xc35
 3836 0c73 11       		.uleb128 0x11
 3837 0c74 3A060000 		.4byte	.LASF245
 3838 0c78 01       		.byte	0x1
 3839 0c79 2C000000 		.4byte	0x2c
 3840 0c7d 01       		.byte	0x1
 3841 0c7e 3E       		.byte	0x3e
 3842 0c7f 900C0000 		.4byte	0xc90
 3843 0c83 12       		.uleb128 0x12
 3844 0c84 93110000 		.4byte	.LASF243
 3845 0c88 00       		.byte	0
 3846 0c89 12       		.uleb128 0x12
 3847 0c8a F9020000 		.4byte	.LASF244
 3848 0c8e 01       		.byte	0x1
 3849 0c8f 00       		.byte	0
 3850 0c90 11       		.uleb128 0x11
 3851 0c91 56000000 		.4byte	.LASF246
 3852 0c95 01       		.byte	0x1
 3853 0c96 2C000000 		.4byte	0x2c
 3854 0c9a 01       		.byte	0x1
 3855 0c9b 46       		.byte	0x46
 3856 0c9c DD0C0000 		.4byte	0xcdd
 3857 0ca0 12       		.uleb128 0x12
 3858 0ca1 FF0C0000 		.4byte	.LASF247
 3859 0ca5 00       		.byte	0
 3860 0ca6 12       		.uleb128 0x12
 3861 0ca7 1F110000 		.4byte	.LASF248
 3862 0cab 01       		.byte	0x1
 3863 0cac 12       		.uleb128 0x12
 3864 0cad B8050000 		.4byte	.LASF249
 3865 0cb1 02       		.byte	0x2
 3866 0cb2 12       		.uleb128 0x12
 3867 0cb3 C5050000 		.4byte	.LASF250
 3868 0cb7 03       		.byte	0x3
 3869 0cb8 12       		.uleb128 0x12
 3870 0cb9 D2050000 		.4byte	.LASF251
 3871 0cbd 04       		.byte	0x4
 3872 0cbe 12       		.uleb128 0x12
 3873 0cbf DF050000 		.4byte	.LASF252
 3874 0cc3 05       		.byte	0x5
 3875 0cc4 12       		.uleb128 0x12
 3876 0cc5 EC050000 		.4byte	.LASF253
 3877 0cc9 06       		.byte	0x6
 3878 0cca 12       		.uleb128 0x12
 3879 0ccb F9050000 		.4byte	.LASF254
 3880 0ccf 07       		.byte	0x7
 3881 0cd0 12       		.uleb128 0x12
ARM GAS  C:\Users\MARTHN~1\AppData\Local\Temp\cc63NoI7.s 			page 87


 3882 0cd1 06060000 		.4byte	.LASF255
 3883 0cd5 08       		.byte	0x8
 3884 0cd6 12       		.uleb128 0x12
 3885 0cd7 13060000 		.4byte	.LASF256
 3886 0cdb 09       		.byte	0x9
 3887 0cdc 00       		.byte	0
 3888 0cdd 11       		.uleb128 0x11
 3889 0cde 120C0000 		.4byte	.LASF257
 3890 0ce2 01       		.byte	0x1
 3891 0ce3 2C000000 		.4byte	0x2c
 3892 0ce7 01       		.byte	0x1
 3893 0ce8 54       		.byte	0x54
 3894 0ce9 000D0000 		.4byte	0xd00
 3895 0ced 12       		.uleb128 0x12
 3896 0cee 34030000 		.4byte	.LASF258
 3897 0cf2 00       		.byte	0
 3898 0cf3 12       		.uleb128 0x12
 3899 0cf4 E80A0000 		.4byte	.LASF259
 3900 0cf8 01       		.byte	0x1
 3901 0cf9 12       		.uleb128 0x12
 3902 0cfa 760B0000 		.4byte	.LASF260
 3903 0cfe 02       		.byte	0x2
 3904 0cff 00       		.byte	0
 3905 0d00 11       		.uleb128 0x11
 3906 0d01 B9110000 		.4byte	.LASF261
 3907 0d05 01       		.byte	0x1
 3908 0d06 2C000000 		.4byte	0x2c
 3909 0d0a 01       		.byte	0x1
 3910 0d0b 5B       		.byte	0x5b
 3911 0d0c 290D0000 		.4byte	0xd29
 3912 0d10 12       		.uleb128 0x12
 3913 0d11 F4100000 		.4byte	.LASF262
 3914 0d15 00       		.byte	0
 3915 0d16 12       		.uleb128 0x12
 3916 0d17 D00F0000 		.4byte	.LASF263
 3917 0d1b 01       		.byte	0x1
 3918 0d1c 12       		.uleb128 0x12
 3919 0d1d 91010000 		.4byte	.LASF264
 3920 0d21 02       		.byte	0x2
 3921 0d22 12       		.uleb128 0x12
 3922 0d23 DA040000 		.4byte	.LASF265
 3923 0d27 03       		.byte	0x3
 3924 0d28 00       		.byte	0
 3925 0d29 11       		.uleb128 0x11
 3926 0d2a 230D0000 		.4byte	.LASF266
 3927 0d2e 01       		.byte	0x1
 3928 0d2f 2C000000 		.4byte	0x2c
 3929 0d33 01       		.byte	0x1
 3930 0d34 63       		.byte	0x63
 3931 0d35 400D0000 		.4byte	0xd40
 3932 0d39 12       		.uleb128 0x12
 3933 0d3a CE080000 		.4byte	.LASF267
 3934 0d3e 00       		.byte	0
 3935 0d3f 00       		.byte	0
 3936 0d40 11       		.uleb128 0x11
 3937 0d41 CB0B0000 		.4byte	.LASF268
 3938 0d45 01       		.byte	0x1
ARM GAS  C:\Users\MARTHN~1\AppData\Local\Temp\cc63NoI7.s 			page 88


 3939 0d46 2C000000 		.4byte	0x2c
 3940 0d4a 01       		.byte	0x1
 3941 0d4b 67       		.byte	0x67
 3942 0d4c 690D0000 		.4byte	0xd69
 3943 0d50 12       		.uleb128 0x12
 3944 0d51 540F0000 		.4byte	.LASF269
 3945 0d55 00       		.byte	0
 3946 0d56 12       		.uleb128 0x12
 3947 0d57 610F0000 		.4byte	.LASF270
 3948 0d5b 01       		.byte	0x1
 3949 0d5c 12       		.uleb128 0x12
 3950 0d5d B1090000 		.4byte	.LASF271
 3951 0d61 02       		.byte	0x2
 3952 0d62 12       		.uleb128 0x12
 3953 0d63 970C0000 		.4byte	.LASF272
 3954 0d67 03       		.byte	0x3
 3955 0d68 00       		.byte	0
 3956 0d69 11       		.uleb128 0x11
 3957 0d6a 4F0A0000 		.4byte	.LASF20
 3958 0d6e 01       		.byte	0x1
 3959 0d6f 2C000000 		.4byte	0x2c
 3960 0d73 01       		.byte	0x1
 3961 0d74 75       		.byte	0x75
 3962 0d75 BC0D0000 		.4byte	0xdbc
 3963 0d79 12       		.uleb128 0x12
 3964 0d7a 43030000 		.4byte	.LASF273
 3965 0d7e 00       		.byte	0
 3966 0d7f 12       		.uleb128 0x12
 3967 0d80 EA0C0000 		.4byte	.LASF274
 3968 0d84 01       		.byte	0x1
 3969 0d85 12       		.uleb128 0x12
 3970 0d86 69000000 		.4byte	.LASF275
 3971 0d8a 02       		.byte	0x2
 3972 0d8b 12       		.uleb128 0x12
 3973 0d8c 740F0000 		.4byte	.LASF276
 3974 0d90 03       		.byte	0x3
 3975 0d91 12       		.uleb128 0x12
 3976 0d92 170B0000 		.4byte	.LASF277
 3977 0d96 04       		.byte	0x4
 3978 0d97 12       		.uleb128 0x12
 3979 0d98 44120000 		.4byte	.LASF278
 3980 0d9c 05       		.byte	0x5
 3981 0d9d 12       		.uleb128 0x12
 3982 0d9e B1050000 		.4byte	.LASF279
 3983 0da2 06       		.byte	0x6
 3984 0da3 12       		.uleb128 0x12
 3985 0da4 580A0000 		.4byte	.LASF280
 3986 0da8 07       		.byte	0x7
 3987 0da9 12       		.uleb128 0x12
 3988 0daa 43010000 		.4byte	.LASF281
 3989 0dae 08       		.byte	0x8
 3990 0daf 13       		.uleb128 0x13
 3991 0db0 47505300 		.ascii	"GPS\000"
 3992 0db4 09       		.byte	0x9
 3993 0db5 12       		.uleb128 0x12
 3994 0db6 7D060000 		.4byte	.LASF282
 3995 0dba 0A       		.byte	0xa
ARM GAS  C:\Users\MARTHN~1\AppData\Local\Temp\cc63NoI7.s 			page 89


 3996 0dbb 00       		.byte	0
 3997 0dbc 14       		.uleb128 0x14
 3998 0dbd EA100000 		.4byte	.LASF283
 3999 0dc1 01       		.byte	0x1
 4000 0dc2 89       		.byte	0x89
 4001 0dc3 81000000 		.4byte	0x81
 4002 0dc7 00000000 		.4byte	.LFB63
 4003 0dcb 34040000 		.4byte	.LFE63-.LFB63
 4004 0dcf 01       		.uleb128 0x1
 4005 0dd0 9C       		.byte	0x9c
 4006 0dd1 210E0000 		.4byte	0xe21
 4007 0dd5 15       		.uleb128 0x15
 4008 0dd6 44000000 		.4byte	.LBB2
 4009 0dda 1A000000 		.4byte	.LBE2-.LBB2
 4010 0dde EF0D0000 		.4byte	0xdef
 4011 0de2 16       		.uleb128 0x16
 4012 0de3 6900     		.ascii	"i\000"
 4013 0de5 01       		.byte	0x1
 4014 0de6 91       		.byte	0x91
 4015 0de7 81000000 		.4byte	0x81
 4016 0deb 02       		.uleb128 0x2
 4017 0dec 91       		.byte	0x91
 4018 0ded 77       		.sleb128 -9
 4019 0dee 00       		.byte	0
 4020 0def 15       		.uleb128 0x15
 4021 0df0 7A000000 		.4byte	.LBB3
 4022 0df4 18000000 		.4byte	.LBE3-.LBB3
 4023 0df8 090E0000 		.4byte	0xe09
 4024 0dfc 16       		.uleb128 0x16
 4025 0dfd 6900     		.ascii	"i\000"
 4026 0dff 01       		.byte	0x1
 4027 0e00 98       		.byte	0x98
 4028 0e01 81000000 		.4byte	0x81
 4029 0e05 02       		.uleb128 0x2
 4030 0e06 91       		.byte	0x91
 4031 0e07 76       		.sleb128 -10
 4032 0e08 00       		.byte	0
 4033 0e09 17       		.uleb128 0x17
 4034 0e0a D0030000 		.4byte	.LBB4
 4035 0e0e 2E000000 		.4byte	.LBE4-.LBB4
 4036 0e12 18       		.uleb128 0x18
 4037 0e13 6900     		.ascii	"i\000"
 4038 0e15 01       		.byte	0x1
 4039 0e16 AC01     		.2byte	0x1ac
 4040 0e18 81000000 		.4byte	0x81
 4041 0e1c 02       		.uleb128 0x2
 4042 0e1d 91       		.byte	0x91
 4043 0e1e 75       		.sleb128 -11
 4044 0e1f 00       		.byte	0
 4045 0e20 00       		.byte	0
 4046 0e21 19       		.uleb128 0x19
 4047 0e22 50100000 		.4byte	.LASF284
 4048 0e26 01       		.byte	0x1
 4049 0e27 CF01     		.2byte	0x1cf
 4050 0e29 81000000 		.4byte	0x81
 4051 0e2d 00000000 		.4byte	.LFB64
 4052 0e31 66000000 		.4byte	.LFE64-.LFB64
ARM GAS  C:\Users\MARTHN~1\AppData\Local\Temp\cc63NoI7.s 			page 90


 4053 0e35 01       		.uleb128 0x1
 4054 0e36 9C       		.byte	0x9c
 4055 0e37 730E0000 		.4byte	0xe73
 4056 0e3b 1A       		.uleb128 0x1a
 4057 0e3c 82060000 		.4byte	.LASF285
 4058 0e40 01       		.byte	0x1
 4059 0e41 D201     		.2byte	0x1d2
 4060 0e43 99000000 		.4byte	0x99
 4061 0e47 02       		.uleb128 0x2
 4062 0e48 91       		.byte	0x91
 4063 0e49 74       		.sleb128 -12
 4064 0e4a 1A       		.uleb128 0x1a
 4065 0e4b C7030000 		.4byte	.LASF286
 4066 0e4f 01       		.byte	0x1
 4067 0e50 D301     		.2byte	0x1d3
 4068 0e52 99000000 		.4byte	0x99
 4069 0e56 02       		.uleb128 0x2
 4070 0e57 91       		.byte	0x91
 4071 0e58 6C       		.sleb128 -20
 4072 0e59 17       		.uleb128 0x17
 4073 0e5a 14000000 		.4byte	.LBB5
 4074 0e5e 36000000 		.4byte	.LBE5-.LBB5
 4075 0e62 1A       		.uleb128 0x1a
 4076 0e63 F9080000 		.4byte	.LASF287
 4077 0e67 01       		.byte	0x1
 4078 0e68 D701     		.2byte	0x1d7
 4079 0e6a 81000000 		.4byte	0x81
 4080 0e6e 02       		.uleb128 0x2
 4081 0e6f 91       		.byte	0x91
 4082 0e70 73       		.sleb128 -13
 4083 0e71 00       		.byte	0
 4084 0e72 00       		.byte	0
 4085 0e73 1B       		.uleb128 0x1b
 4086 0e74 69060000 		.4byte	.LASF289
 4087 0e78 01       		.byte	0x1
 4088 0e79 ED01     		.2byte	0x1ed
 4089 0e7b 81000000 		.4byte	0x81
 4090 0e7f 00000000 		.4byte	.LFB65
 4091 0e83 68000000 		.4byte	.LFE65-.LFB65
 4092 0e87 01       		.uleb128 0x1
 4093 0e88 9C       		.byte	0x9c
 4094 0e89 19       		.uleb128 0x19
 4095 0e8a 6A010000 		.4byte	.LASF288
 4096 0e8e 01       		.byte	0x1
 4097 0e8f 0302     		.2byte	0x203
 4098 0e91 81000000 		.4byte	0x81
 4099 0e95 00000000 		.4byte	.LFB66
 4100 0e99 54000000 		.4byte	.LFE66-.LFB66
 4101 0e9d 01       		.uleb128 0x1
 4102 0e9e 9C       		.byte	0x9c
 4103 0e9f BB0E0000 		.4byte	0xebb
 4104 0ea3 17       		.uleb128 0x17
 4105 0ea4 06000000 		.4byte	.LBB6
 4106 0ea8 3A000000 		.4byte	.LBE6-.LBB6
 4107 0eac 18       		.uleb128 0x18
 4108 0ead 6900     		.ascii	"i\000"
 4109 0eaf 01       		.byte	0x1
ARM GAS  C:\Users\MARTHN~1\AppData\Local\Temp\cc63NoI7.s 			page 91


 4110 0eb0 0502     		.2byte	0x205
 4111 0eb2 81000000 		.4byte	0x81
 4112 0eb6 02       		.uleb128 0x2
 4113 0eb7 91       		.byte	0x91
 4114 0eb8 77       		.sleb128 -9
 4115 0eb9 00       		.byte	0
 4116 0eba 00       		.byte	0
 4117 0ebb 1B       		.uleb128 0x1b
 4118 0ebc BA0F0000 		.4byte	.LASF290
 4119 0ec0 01       		.byte	0x1
 4120 0ec1 1602     		.2byte	0x216
 4121 0ec3 81000000 		.4byte	0x81
 4122 0ec7 00000000 		.4byte	.LFB67
 4123 0ecb 90000000 		.4byte	.LFE67-.LFB67
 4124 0ecf 01       		.uleb128 0x1
 4125 0ed0 9C       		.byte	0x9c
 4126 0ed1 1B       		.uleb128 0x1b
 4127 0ed2 A1070000 		.4byte	.LASF291
 4128 0ed6 01       		.byte	0x1
 4129 0ed7 3B02     		.2byte	0x23b
 4130 0ed9 81000000 		.4byte	0x81
 4131 0edd 00000000 		.4byte	.LFB68
 4132 0ee1 54000000 		.4byte	.LFE68-.LFB68
 4133 0ee5 01       		.uleb128 0x1
 4134 0ee6 9C       		.byte	0x9c
 4135 0ee7 19       		.uleb128 0x19
 4136 0ee8 D70A0000 		.4byte	.LASF292
 4137 0eec 01       		.byte	0x1
 4138 0eed 6102     		.2byte	0x261
 4139 0eef 81000000 		.4byte	0x81
 4140 0ef3 00000000 		.4byte	.LFB69
 4141 0ef7 40000000 		.4byte	.LFE69-.LFB69
 4142 0efb 01       		.uleb128 0x1
 4143 0efc 9C       		.byte	0x9c
 4144 0efd 110F0000 		.4byte	0xf11
 4145 0f01 1A       		.uleb128 0x1a
 4146 0f02 35000000 		.4byte	.LASF293
 4147 0f06 01       		.byte	0x1
 4148 0f07 6602     		.2byte	0x266
 4149 0f09 81000000 		.4byte	0x81
 4150 0f0d 02       		.uleb128 0x2
 4151 0f0e 91       		.byte	0x91
 4152 0f0f 77       		.sleb128 -9
 4153 0f10 00       		.byte	0
 4154 0f11 19       		.uleb128 0x19
 4155 0f12 0A0D0000 		.4byte	.LASF294
 4156 0f16 01       		.byte	0x1
 4157 0f17 7502     		.2byte	0x275
 4158 0f19 81000000 		.4byte	0x81
 4159 0f1d 00000000 		.4byte	.LFB70
 4160 0f21 7C000000 		.4byte	.LFE70-.LFB70
 4161 0f25 01       		.uleb128 0x1
 4162 0f26 9C       		.byte	0x9c
 4163 0f27 610F0000 		.4byte	0xf61
 4164 0f2b 1A       		.uleb128 0x1a
 4165 0f2c 8F060000 		.4byte	.LASF295
 4166 0f30 01       		.byte	0x1
ARM GAS  C:\Users\MARTHN~1\AppData\Local\Temp\cc63NoI7.s 			page 92


 4167 0f31 7802     		.2byte	0x278
 4168 0f33 81000000 		.4byte	0x81
 4169 0f37 02       		.uleb128 0x2
 4170 0f38 91       		.byte	0x91
 4171 0f39 77       		.sleb128 -9
 4172 0f3a 1A       		.uleb128 0x1a
 4173 0f3b D50D0000 		.4byte	.LASF296
 4174 0f3f 01       		.byte	0x1
 4175 0f40 7902     		.2byte	0x279
 4176 0f42 81000000 		.4byte	0x81
 4177 0f46 02       		.uleb128 0x2
 4178 0f47 91       		.byte	0x91
 4179 0f48 75       		.sleb128 -11
 4180 0f49 17       		.uleb128 0x17
 4181 0f4a 2E000000 		.4byte	.LBB7
 4182 0f4e 2E000000 		.4byte	.LBE7-.LBB7
 4183 0f52 18       		.uleb128 0x18
 4184 0f53 6900     		.ascii	"i\000"
 4185 0f55 01       		.byte	0x1
 4186 0f56 8102     		.2byte	0x281
 4187 0f58 81000000 		.4byte	0x81
 4188 0f5c 02       		.uleb128 0x2
 4189 0f5d 91       		.byte	0x91
 4190 0f5e 76       		.sleb128 -10
 4191 0f5f 00       		.byte	0
 4192 0f60 00       		.byte	0
 4193 0f61 1C       		.uleb128 0x1c
 4194 0f62 96100000 		.4byte	.LASF297
 4195 0f66 01       		.byte	0x1
 4196 0f67 9F02     		.2byte	0x29f
 4197 0f69 770F0000 		.4byte	0xf77
 4198 0f6d 00000000 		.4byte	.LFB71
 4199 0f71 20000000 		.4byte	.LFE71-.LFB71
 4200 0f75 01       		.uleb128 0x1
 4201 0f76 9C       		.byte	0x9c
 4202 0f77 1D       		.uleb128 0x1d
 4203 0f78 04       		.byte	0x4
 4204 0f79 F8010000 		.4byte	0x1f8
 4205 0f7d 1C       		.uleb128 0x1c
 4206 0f7e 700E0000 		.4byte	.LASF298
 4207 0f82 01       		.byte	0x1
 4208 0f83 BA02     		.2byte	0x2ba
 4209 0f85 930F0000 		.4byte	0xf93
 4210 0f89 00000000 		.4byte	.LFB72
 4211 0f8d 20000000 		.4byte	.LFE72-.LFB72
 4212 0f91 01       		.uleb128 0x1
 4213 0f92 9C       		.byte	0x9c
 4214 0f93 1D       		.uleb128 0x1d
 4215 0f94 04       		.byte	0x4
 4216 0f95 57060000 		.4byte	0x657
 4217 0f99 1C       		.uleb128 0x1c
 4218 0f9a 39100000 		.4byte	.LASF299
 4219 0f9e 01       		.byte	0x1
 4220 0f9f C102     		.2byte	0x2c1
 4221 0fa1 770F0000 		.4byte	0xf77
 4222 0fa5 00000000 		.4byte	.LFB73
 4223 0fa9 20000000 		.4byte	.LFE73-.LFB73
ARM GAS  C:\Users\MARTHN~1\AppData\Local\Temp\cc63NoI7.s 			page 93


 4224 0fad 01       		.uleb128 0x1
 4225 0fae 9C       		.byte	0x9c
 4226 0faf 1C       		.uleb128 0x1c
 4227 0fb0 77040000 		.4byte	.LASF300
 4228 0fb4 01       		.byte	0x1
 4229 0fb5 C902     		.2byte	0x2c9
 4230 0fb7 C50F0000 		.4byte	0xfc5
 4231 0fbb 00000000 		.4byte	.LFB74
 4232 0fbf 20000000 		.4byte	.LFE74-.LFB74
 4233 0fc3 01       		.uleb128 0x1
 4234 0fc4 9C       		.byte	0x9c
 4235 0fc5 1D       		.uleb128 0x1d
 4236 0fc6 04       		.byte	0x4
 4237 0fc7 E8060000 		.4byte	0x6e8
 4238 0fcb 1C       		.uleb128 0x1c
 4239 0fcc CC100000 		.4byte	.LASF301
 4240 0fd0 01       		.byte	0x1
 4241 0fd1 D002     		.2byte	0x2d0
 4242 0fd3 C50F0000 		.4byte	0xfc5
 4243 0fd7 00000000 		.4byte	.LFB75
 4244 0fdb 20000000 		.4byte	.LFE75-.LFB75
 4245 0fdf 01       		.uleb128 0x1
 4246 0fe0 9C       		.byte	0x9c
 4247 0fe1 1E       		.uleb128 0x1e
 4248 0fe2 FD0F0000 		.4byte	.LASF308
 4249 0fe6 01       		.byte	0x1
 4250 0fe7 DF02     		.2byte	0x2df
 4251 0fe9 00000000 		.4byte	.LFB76
 4252 0fed 58000000 		.4byte	.LFE76-.LFB76
 4253 0ff1 01       		.uleb128 0x1
 4254 0ff2 9C       		.byte	0x9c
 4255 0ff3 21100000 		.4byte	0x1021
 4256 0ff7 1A       		.uleb128 0x1a
 4257 0ff8 13010000 		.4byte	.LASF302
 4258 0ffc 01       		.byte	0x1
 4259 0ffd E202     		.2byte	0x2e2
 4260 0fff 21100000 		.4byte	0x1021
 4261 1003 05       		.uleb128 0x5
 4262 1004 03       		.byte	0x3
 4263 1005 18010000 		.4byte	RelayTestStatus_display.7579
 4264 1009 17       		.uleb128 0x17
 4265 100a 06000000 		.4byte	.LBB8
 4266 100e 2C000000 		.4byte	.LBE8-.LBB8
 4267 1012 18       		.uleb128 0x18
 4268 1013 6900     		.ascii	"i\000"
 4269 1015 01       		.byte	0x1
 4270 1016 E402     		.2byte	0x2e4
 4271 1018 81000000 		.4byte	0x81
 4272 101c 02       		.uleb128 0x2
 4273 101d 91       		.byte	0x91
 4274 101e 77       		.sleb128 -9
 4275 101f 00       		.byte	0
 4276 1020 00       		.byte	0
 4277 1021 08       		.uleb128 0x8
 4278 1022 81000000 		.4byte	0x81
 4279 1026 31100000 		.4byte	0x1031
 4280 102a 09       		.uleb128 0x9
ARM GAS  C:\Users\MARTHN~1\AppData\Local\Temp\cc63NoI7.s 			page 94


 4281 102b C1000000 		.4byte	0xc1
 4282 102f 15       		.byte	0x15
 4283 1030 00       		.byte	0
 4284 1031 19       		.uleb128 0x19
 4285 1032 4E0E0000 		.4byte	.LASF303
 4286 1036 01       		.byte	0x1
 4287 1037 0803     		.2byte	0x308
 4288 1039 81000000 		.4byte	0x81
 4289 103d 00000000 		.4byte	.LFB77
 4290 1041 7C000000 		.4byte	.LFE77-.LFB77
 4291 1045 01       		.uleb128 0x1
 4292 1046 9C       		.byte	0x9c
 4293 1047 6A100000 		.4byte	0x106a
 4294 104b 1F       		.uleb128 0x1f
 4295 104c C50B0000 		.4byte	.LASF310
 4296 1050 01       		.byte	0x1
 4297 1051 0803     		.2byte	0x308
 4298 1053 81000000 		.4byte	0x81
 4299 1057 02       		.uleb128 0x2
 4300 1058 91       		.byte	0x91
 4301 1059 6F       		.sleb128 -17
 4302 105a 1A       		.uleb128 0x1a
 4303 105b A1090000 		.4byte	.LASF304
 4304 105f 01       		.byte	0x1
 4305 1060 0B03     		.2byte	0x30b
 4306 1062 81000000 		.4byte	0x81
 4307 1066 02       		.uleb128 0x2
 4308 1067 91       		.byte	0x91
 4309 1068 77       		.sleb128 -9
 4310 1069 00       		.byte	0
 4311 106a 20       		.uleb128 0x20
 4312 106b E1110000 		.4byte	.LASF305
 4313 106f 01       		.byte	0x1
 4314 1070 2203     		.2byte	0x322
 4315 1072 00000000 		.4byte	.LFB78
 4316 1076 1C000000 		.4byte	.LFE78-.LFB78
 4317 107a 01       		.uleb128 0x1
 4318 107b 9C       		.byte	0x9c
 4319 107c 20       		.uleb128 0x20
 4320 107d 71110000 		.4byte	.LASF306
 4321 1081 01       		.byte	0x1
 4322 1082 2C03     		.2byte	0x32c
 4323 1084 00000000 		.4byte	.LFB79
 4324 1088 84000000 		.4byte	.LFE79-.LFB79
 4325 108c 01       		.uleb128 0x1
 4326 108d 9C       		.byte	0x9c
 4327 108e 20       		.uleb128 0x20
 4328 108f 12100000 		.4byte	.LASF307
 4329 1093 01       		.byte	0x1
 4330 1094 4903     		.2byte	0x349
 4331 1096 00000000 		.4byte	.LFB80
 4332 109a 58000000 		.4byte	.LFE80-.LFB80
 4333 109e 01       		.uleb128 0x1
 4334 109f 9C       		.byte	0x9c
 4335 10a0 1E       		.uleb128 0x1e
 4336 10a1 30070000 		.4byte	.LASF309
 4337 10a5 01       		.byte	0x1
ARM GAS  C:\Users\MARTHN~1\AppData\Local\Temp\cc63NoI7.s 			page 95


 4338 10a6 6303     		.2byte	0x363
 4339 10a8 00000000 		.4byte	.LFB81
 4340 10ac 80000000 		.4byte	.LFE81-.LFB81
 4341 10b0 01       		.uleb128 0x1
 4342 10b1 9C       		.byte	0x9c
 4343 10b2 C6100000 		.4byte	0x10c6
 4344 10b6 1F       		.uleb128 0x1f
 4345 10b7 C90A0000 		.4byte	.LASF311
 4346 10bb 01       		.byte	0x1
 4347 10bc 6303     		.2byte	0x363
 4348 10be 81000000 		.4byte	0x81
 4349 10c2 02       		.uleb128 0x2
 4350 10c3 91       		.byte	0x91
 4351 10c4 77       		.sleb128 -9
 4352 10c5 00       		.byte	0
 4353 10c6 21       		.uleb128 0x21
 4354 10c7 350E0000 		.4byte	.LASF312
 4355 10cb 01       		.byte	0x1
 4356 10cc 8503     		.2byte	0x385
 4357 10ce 00000000 		.4byte	.LFB82
 4358 10d2 3C000000 		.4byte	.LFE82-.LFB82
 4359 10d6 01       		.uleb128 0x1
 4360 10d7 9C       		.byte	0x9c
 4361 10d8 21       		.uleb128 0x21
 4362 10d9 FB000000 		.4byte	.LASF313
 4363 10dd 01       		.byte	0x1
 4364 10de 9203     		.2byte	0x392
 4365 10e0 00000000 		.4byte	.LFB83
 4366 10e4 40000000 		.4byte	.LFE83-.LFB83
 4367 10e8 01       		.uleb128 0x1
 4368 10e9 9C       		.byte	0x9c
 4369 10ea 1E       		.uleb128 0x1e
 4370 10eb A2050000 		.4byte	.LASF314
 4371 10ef 01       		.byte	0x1
 4372 10f0 A003     		.2byte	0x3a0
 4373 10f2 00000000 		.4byte	.LFB84
 4374 10f6 7A000000 		.4byte	.LFE84-.LFB84
 4375 10fa 01       		.uleb128 0x1
 4376 10fb 9C       		.byte	0x9c
 4377 10fc 10110000 		.4byte	0x1110
 4378 1100 1F       		.uleb128 0x1f
 4379 1101 C90A0000 		.4byte	.LASF311
 4380 1105 01       		.byte	0x1
 4381 1106 A003     		.2byte	0x3a0
 4382 1108 81000000 		.4byte	0x81
 4383 110c 02       		.uleb128 0x2
 4384 110d 91       		.byte	0x91
 4385 110e 77       		.sleb128 -9
 4386 110f 00       		.byte	0
 4387 1110 22       		.uleb128 0x22
 4388 1111 D2110000 		.4byte	.LASF315
 4389 1115 01       		.byte	0x1
 4390 1116 1B       		.byte	0x1b
 4391 1117 F8010000 		.4byte	0x1f8
 4392 111b 05       		.uleb128 0x5
 4393 111c 03       		.byte	0x3
 4394 111d 00000000 		.4byte	rxPacket_Relay
ARM GAS  C:\Users\MARTHN~1\AppData\Local\Temp\cc63NoI7.s 			page 96


 4395 1121 22       		.uleb128 0x22
 4396 1122 09000000 		.4byte	.LASF316
 4397 1126 01       		.byte	0x1
 4398 1127 1C       		.byte	0x1c
 4399 1128 770F0000 		.4byte	0xf77
 4400 112c 05       		.uleb128 0x5
 4401 112d 03       		.byte	0x3
 4402 112e 10000000 		.4byte	pRxPacket_Relay
 4403 1132 22       		.uleb128 0x22
 4404 1133 870E0000 		.4byte	.LASF123
 4405 1137 01       		.byte	0x1
 4406 1138 1D       		.byte	0x1d
 4407 1139 F8010000 		.4byte	0x1f8
 4408 113d 05       		.uleb128 0x5
 4409 113e 03       		.byte	0x3
 4410 113f 14000000 		.4byte	rxPacket_RelaySiren
 4411 1143 22       		.uleb128 0x22
 4412 1144 83070000 		.4byte	.LASF317
 4413 1148 01       		.byte	0x1
 4414 1149 1E       		.byte	0x1e
 4415 114a 770F0000 		.4byte	0xf77
 4416 114e 05       		.uleb128 0x5
 4417 114f 03       		.byte	0x3
 4418 1150 24000000 		.4byte	pRxPacket_RelaySiren
 4419 1154 22       		.uleb128 0x22
 4420 1155 B60C0000 		.4byte	.LASF124
 4421 1159 01       		.byte	0x1
 4422 115a 20       		.byte	0x20
 4423 115b 57060000 		.4byte	0x657
 4424 115f 05       		.uleb128 0x5
 4425 1160 03       		.byte	0x3
 4426 1161 28000000 		.4byte	txPacket_RelaySiren
 4427 1165 22       		.uleb128 0x22
 4428 1166 8D050000 		.4byte	.LASF318
 4429 116a 01       		.byte	0x1
 4430 116b 21       		.byte	0x21
 4431 116c 930F0000 		.4byte	0xf93
 4432 1170 05       		.uleb128 0x5
 4433 1171 03       		.byte	0x3
 4434 1172 78000000 		.4byte	pTxPacket_RelaySiren
 4435 1176 22       		.uleb128 0x22
 4436 1177 B0040000 		.4byte	.LASF319
 4437 117b 01       		.byte	0x1
 4438 117c 29       		.byte	0x29
 4439 117d E8060000 		.4byte	0x6e8
 4440 1181 05       		.uleb128 0x5
 4441 1182 03       		.byte	0x3
 4442 1183 7C000000 		.4byte	txPacket_H
 4443 1187 22       		.uleb128 0x22
 4444 1188 060C0000 		.4byte	.LASF320
 4445 118c 01       		.byte	0x1
 4446 118d 2A       		.byte	0x2a
 4447 118e C50F0000 		.4byte	0xfc5
 4448 1192 05       		.uleb128 0x5
 4449 1193 03       		.byte	0x3
 4450 1194 84000000 		.4byte	pTxPacket_H
 4451 1198 22       		.uleb128 0x22
ARM GAS  C:\Users\MARTHN~1\AppData\Local\Temp\cc63NoI7.s 			page 97


 4452 1199 620B0000 		.4byte	.LASF321
 4453 119d 01       		.byte	0x1
 4454 119e 2C       		.byte	0x2c
 4455 119f E8060000 		.4byte	0x6e8
 4456 11a3 05       		.uleb128 0x5
 4457 11a4 03       		.byte	0x3
 4458 11a5 88000000 		.4byte	rxPacket_H
 4459 11a9 22       		.uleb128 0x22
 4460 11aa 29000000 		.4byte	.LASF322
 4461 11ae 01       		.byte	0x1
 4462 11af 2D       		.byte	0x2d
 4463 11b0 C50F0000 		.4byte	0xfc5
 4464 11b4 05       		.uleb128 0x5
 4465 11b5 03       		.byte	0x3
 4466 11b6 90000000 		.4byte	pRxPacket_H
 4467 11ba 22       		.uleb128 0x22
 4468 11bb EF0F0000 		.4byte	.LASF323
 4469 11bf 01       		.byte	0x1
 4470 11c0 2F       		.byte	0x2f
 4471 11c1 680C0000 		.4byte	0xc68
 4472 11c5 05       		.uleb128 0x5
 4473 11c6 03       		.byte	0x3
 4474 11c7 94000000 		.4byte	txPacket_Quad
 4475 11cb 22       		.uleb128 0x22
 4476 11cc 1B030000 		.4byte	.LASF324
 4477 11d0 01       		.byte	0x1
 4478 11d1 30       		.byte	0x30
 4479 11d2 DC110000 		.4byte	0x11dc
 4480 11d6 05       		.uleb128 0x5
 4481 11d7 03       		.byte	0x3
 4482 11d8 04010000 		.4byte	pTxPacket_Quad
 4483 11dc 1D       		.uleb128 0x1d
 4484 11dd 04       		.byte	0x4
 4485 11de 680C0000 		.4byte	0xc68
 4486 11e2 22       		.uleb128 0x22
 4487 11e3 A50F0000 		.4byte	.LASF325
 4488 11e7 01       		.byte	0x1
 4489 11e8 38       		.byte	0x38
 4490 11e9 8D000000 		.4byte	0x8d
 4491 11ed 05       		.uleb128 0x5
 4492 11ee 03       		.byte	0x3
 4493 11ef 08010000 		.4byte	RTest_20ms_isr_count
 4494 11f3 22       		.uleb128 0x22
 4495 11f4 43110000 		.4byte	.LASF326
 4496 11f8 01       		.byte	0x1
 4497 11f9 39       		.byte	0x39
 4498 11fa 8D000000 		.4byte	0x8d
 4499 11fe 05       		.uleb128 0x5
 4500 11ff 03       		.byte	0x3
 4501 1200 0A010000 		.4byte	RTest_20ms_isr_EN
 4502 1204 08       		.uleb128 0x8
 4503 1205 8D000000 		.4byte	0x8d
 4504 1209 14120000 		.4byte	0x1214
 4505 120d 09       		.uleb128 0x9
 4506 120e C1000000 		.4byte	0xc1
 4507 1212 0A       		.byte	0xa
 4508 1213 00       		.byte	0
ARM GAS  C:\Users\MARTHN~1\AppData\Local\Temp\cc63NoI7.s 			page 98


 4509 1214 22       		.uleb128 0x22
 4510 1215 0E040000 		.4byte	.LASF327
 4511 1219 01       		.byte	0x1
 4512 121a 71       		.byte	0x71
 4513 121b 04120000 		.4byte	0x1204
 4514 121f 05       		.uleb128 0x5
 4515 1220 03       		.byte	0x3
 4516 1221 00000000 		.4byte	RTest_TimeoutCount
 4517 1225 08       		.uleb128 0x8
 4518 1226 81000000 		.4byte	0x81
 4519 122a 35120000 		.4byte	0x1235
 4520 122e 09       		.uleb128 0x9
 4521 122f C1000000 		.4byte	0xc1
 4522 1233 0A       		.byte	0xa
 4523 1234 00       		.byte	0
 4524 1235 22       		.uleb128 0x22
 4525 1236 21100000 		.4byte	.LASF328
 4526 123a 01       		.byte	0x1
 4527 123b 73       		.byte	0x73
 4528 123c 25120000 		.4byte	0x1225
 4529 1240 05       		.uleb128 0x5
 4530 1241 03       		.byte	0x3
 4531 1242 0C010000 		.4byte	RTestStatus
 4532 1246 23       		.uleb128 0x23
 4533 1247 040B0000 		.4byte	.LASF329
 4534 124b 08       		.byte	0x8
 4535 124c 1207     		.2byte	0x712
 4536 124e 52120000 		.4byte	0x1252
 4537 1252 24       		.uleb128 0x24
 4538 1253 76000000 		.4byte	0x76
 4539 1257 25       		.uleb128 0x25
 4540 1258 920C0000 		.4byte	.LASF330
 4541 125c 05       		.byte	0x5
 4542 125d 16       		.byte	0x16
 4543 125e C8000000 		.4byte	0xc8
 4544 1262 05       		.uleb128 0x5
 4545 1263 03       		.byte	0x3
 4546 1264 00000000 		.4byte	Test
 4547 1268 26       		.uleb128 0x26
 4548 1269 270C0000 		.4byte	.LASF331
 4549 126d 05       		.byte	0x5
 4550 126e 1A       		.byte	0x1a
 4551 126f F9000000 		.4byte	0xf9
 4552 1273 00       		.byte	0
 4553              		.section	.debug_abbrev,"",%progbits
 4554              	.Ldebug_abbrev0:
 4555 0000 01       		.uleb128 0x1
 4556 0001 11       		.uleb128 0x11
 4557 0002 01       		.byte	0x1
 4558 0003 25       		.uleb128 0x25
 4559 0004 0E       		.uleb128 0xe
 4560 0005 13       		.uleb128 0x13
 4561 0006 0B       		.uleb128 0xb
 4562 0007 03       		.uleb128 0x3
 4563 0008 0E       		.uleb128 0xe
 4564 0009 1B       		.uleb128 0x1b
 4565 000a 0E       		.uleb128 0xe
ARM GAS  C:\Users\MARTHN~1\AppData\Local\Temp\cc63NoI7.s 			page 99


 4566 000b 55       		.uleb128 0x55
 4567 000c 17       		.uleb128 0x17
 4568 000d 11       		.uleb128 0x11
 4569 000e 01       		.uleb128 0x1
 4570 000f 10       		.uleb128 0x10
 4571 0010 17       		.uleb128 0x17
 4572 0011 00       		.byte	0
 4573 0012 00       		.byte	0
 4574 0013 02       		.uleb128 0x2
 4575 0014 24       		.uleb128 0x24
 4576 0015 00       		.byte	0
 4577 0016 0B       		.uleb128 0xb
 4578 0017 0B       		.uleb128 0xb
 4579 0018 3E       		.uleb128 0x3e
 4580 0019 0B       		.uleb128 0xb
 4581 001a 03       		.uleb128 0x3
 4582 001b 0E       		.uleb128 0xe
 4583 001c 00       		.byte	0
 4584 001d 00       		.byte	0
 4585 001e 03       		.uleb128 0x3
 4586 001f 16       		.uleb128 0x16
 4587 0020 00       		.byte	0
 4588 0021 03       		.uleb128 0x3
 4589 0022 0E       		.uleb128 0xe
 4590 0023 3A       		.uleb128 0x3a
 4591 0024 0B       		.uleb128 0xb
 4592 0025 3B       		.uleb128 0x3b
 4593 0026 0B       		.uleb128 0xb
 4594 0027 49       		.uleb128 0x49
 4595 0028 13       		.uleb128 0x13
 4596 0029 00       		.byte	0
 4597 002a 00       		.byte	0
 4598 002b 04       		.uleb128 0x4
 4599 002c 24       		.uleb128 0x24
 4600 002d 00       		.byte	0
 4601 002e 0B       		.uleb128 0xb
 4602 002f 0B       		.uleb128 0xb
 4603 0030 3E       		.uleb128 0x3e
 4604 0031 0B       		.uleb128 0xb
 4605 0032 03       		.uleb128 0x3
 4606 0033 08       		.uleb128 0x8
 4607 0034 00       		.byte	0
 4608 0035 00       		.byte	0
 4609 0036 05       		.uleb128 0x5
 4610 0037 16       		.uleb128 0x16
 4611 0038 00       		.byte	0
 4612 0039 03       		.uleb128 0x3
 4613 003a 0E       		.uleb128 0xe
 4614 003b 3A       		.uleb128 0x3a
 4615 003c 0B       		.uleb128 0xb
 4616 003d 3B       		.uleb128 0x3b
 4617 003e 05       		.uleb128 0x5
 4618 003f 49       		.uleb128 0x49
 4619 0040 13       		.uleb128 0x13
 4620 0041 00       		.byte	0
 4621 0042 00       		.byte	0
 4622 0043 06       		.uleb128 0x6
ARM GAS  C:\Users\MARTHN~1\AppData\Local\Temp\cc63NoI7.s 			page 100


 4623 0044 13       		.uleb128 0x13
 4624 0045 01       		.byte	0x1
 4625 0046 03       		.uleb128 0x3
 4626 0047 0E       		.uleb128 0xe
 4627 0048 0B       		.uleb128 0xb
 4628 0049 0B       		.uleb128 0xb
 4629 004a 3A       		.uleb128 0x3a
 4630 004b 0B       		.uleb128 0xb
 4631 004c 3B       		.uleb128 0x3b
 4632 004d 0B       		.uleb128 0xb
 4633 004e 01       		.uleb128 0x1
 4634 004f 13       		.uleb128 0x13
 4635 0050 00       		.byte	0
 4636 0051 00       		.byte	0
 4637 0052 07       		.uleb128 0x7
 4638 0053 0D       		.uleb128 0xd
 4639 0054 00       		.byte	0
 4640 0055 03       		.uleb128 0x3
 4641 0056 0E       		.uleb128 0xe
 4642 0057 3A       		.uleb128 0x3a
 4643 0058 0B       		.uleb128 0xb
 4644 0059 3B       		.uleb128 0x3b
 4645 005a 0B       		.uleb128 0xb
 4646 005b 49       		.uleb128 0x49
 4647 005c 13       		.uleb128 0x13
 4648 005d 38       		.uleb128 0x38
 4649 005e 0B       		.uleb128 0xb
 4650 005f 00       		.byte	0
 4651 0060 00       		.byte	0
 4652 0061 08       		.uleb128 0x8
 4653 0062 01       		.uleb128 0x1
 4654 0063 01       		.byte	0x1
 4655 0064 49       		.uleb128 0x49
 4656 0065 13       		.uleb128 0x13
 4657 0066 01       		.uleb128 0x1
 4658 0067 13       		.uleb128 0x13
 4659 0068 00       		.byte	0
 4660 0069 00       		.byte	0
 4661 006a 09       		.uleb128 0x9
 4662 006b 21       		.uleb128 0x21
 4663 006c 00       		.byte	0
 4664 006d 49       		.uleb128 0x49
 4665 006e 13       		.uleb128 0x13
 4666 006f 2F       		.uleb128 0x2f
 4667 0070 0B       		.uleb128 0xb
 4668 0071 00       		.byte	0
 4669 0072 00       		.byte	0
 4670 0073 0A       		.uleb128 0xa
 4671 0074 17       		.uleb128 0x17
 4672 0075 01       		.byte	0x1
 4673 0076 03       		.uleb128 0x3
 4674 0077 0E       		.uleb128 0xe
 4675 0078 0B       		.uleb128 0xb
 4676 0079 0B       		.uleb128 0xb
 4677 007a 3A       		.uleb128 0x3a
 4678 007b 0B       		.uleb128 0xb
 4679 007c 3B       		.uleb128 0x3b
ARM GAS  C:\Users\MARTHN~1\AppData\Local\Temp\cc63NoI7.s 			page 101


 4680 007d 0B       		.uleb128 0xb
 4681 007e 01       		.uleb128 0x1
 4682 007f 13       		.uleb128 0x13
 4683 0080 00       		.byte	0
 4684 0081 00       		.byte	0
 4685 0082 0B       		.uleb128 0xb
 4686 0083 0D       		.uleb128 0xd
 4687 0084 00       		.byte	0
 4688 0085 03       		.uleb128 0x3
 4689 0086 0E       		.uleb128 0xe
 4690 0087 3A       		.uleb128 0x3a
 4691 0088 0B       		.uleb128 0xb
 4692 0089 3B       		.uleb128 0x3b
 4693 008a 0B       		.uleb128 0xb
 4694 008b 49       		.uleb128 0x49
 4695 008c 13       		.uleb128 0x13
 4696 008d 00       		.byte	0
 4697 008e 00       		.byte	0
 4698 008f 0C       		.uleb128 0xc
 4699 0090 13       		.uleb128 0x13
 4700 0091 01       		.byte	0x1
 4701 0092 03       		.uleb128 0x3
 4702 0093 0E       		.uleb128 0xe
 4703 0094 0B       		.uleb128 0xb
 4704 0095 0B       		.uleb128 0xb
 4705 0096 3A       		.uleb128 0x3a
 4706 0097 0B       		.uleb128 0xb
 4707 0098 3B       		.uleb128 0x3b
 4708 0099 05       		.uleb128 0x5
 4709 009a 01       		.uleb128 0x1
 4710 009b 13       		.uleb128 0x13
 4711 009c 00       		.byte	0
 4712 009d 00       		.byte	0
 4713 009e 0D       		.uleb128 0xd
 4714 009f 0D       		.uleb128 0xd
 4715 00a0 00       		.byte	0
 4716 00a1 03       		.uleb128 0x3
 4717 00a2 0E       		.uleb128 0xe
 4718 00a3 3A       		.uleb128 0x3a
 4719 00a4 0B       		.uleb128 0xb
 4720 00a5 3B       		.uleb128 0x3b
 4721 00a6 05       		.uleb128 0x5
 4722 00a7 49       		.uleb128 0x49
 4723 00a8 13       		.uleb128 0x13
 4724 00a9 38       		.uleb128 0x38
 4725 00aa 0B       		.uleb128 0xb
 4726 00ab 00       		.byte	0
 4727 00ac 00       		.byte	0
 4728 00ad 0E       		.uleb128 0xe
 4729 00ae 0D       		.uleb128 0xd
 4730 00af 00       		.byte	0
 4731 00b0 03       		.uleb128 0x3
 4732 00b1 08       		.uleb128 0x8
 4733 00b2 3A       		.uleb128 0x3a
 4734 00b3 0B       		.uleb128 0xb
 4735 00b4 3B       		.uleb128 0x3b
 4736 00b5 05       		.uleb128 0x5
ARM GAS  C:\Users\MARTHN~1\AppData\Local\Temp\cc63NoI7.s 			page 102


 4737 00b6 49       		.uleb128 0x49
 4738 00b7 13       		.uleb128 0x13
 4739 00b8 38       		.uleb128 0x38
 4740 00b9 0B       		.uleb128 0xb
 4741 00ba 00       		.byte	0
 4742 00bb 00       		.byte	0
 4743 00bc 0F       		.uleb128 0xf
 4744 00bd 17       		.uleb128 0x17
 4745 00be 01       		.byte	0x1
 4746 00bf 03       		.uleb128 0x3
 4747 00c0 0E       		.uleb128 0xe
 4748 00c1 0B       		.uleb128 0xb
 4749 00c2 0B       		.uleb128 0xb
 4750 00c3 3A       		.uleb128 0x3a
 4751 00c4 0B       		.uleb128 0xb
 4752 00c5 3B       		.uleb128 0x3b
 4753 00c6 05       		.uleb128 0x5
 4754 00c7 01       		.uleb128 0x1
 4755 00c8 13       		.uleb128 0x13
 4756 00c9 00       		.byte	0
 4757 00ca 00       		.byte	0
 4758 00cb 10       		.uleb128 0x10
 4759 00cc 0D       		.uleb128 0xd
 4760 00cd 00       		.byte	0
 4761 00ce 03       		.uleb128 0x3
 4762 00cf 0E       		.uleb128 0xe
 4763 00d0 3A       		.uleb128 0x3a
 4764 00d1 0B       		.uleb128 0xb
 4765 00d2 3B       		.uleb128 0x3b
 4766 00d3 05       		.uleb128 0x5
 4767 00d4 49       		.uleb128 0x49
 4768 00d5 13       		.uleb128 0x13
 4769 00d6 00       		.byte	0
 4770 00d7 00       		.byte	0
 4771 00d8 11       		.uleb128 0x11
 4772 00d9 04       		.uleb128 0x4
 4773 00da 01       		.byte	0x1
 4774 00db 03       		.uleb128 0x3
 4775 00dc 0E       		.uleb128 0xe
 4776 00dd 0B       		.uleb128 0xb
 4777 00de 0B       		.uleb128 0xb
 4778 00df 49       		.uleb128 0x49
 4779 00e0 13       		.uleb128 0x13
 4780 00e1 3A       		.uleb128 0x3a
 4781 00e2 0B       		.uleb128 0xb
 4782 00e3 3B       		.uleb128 0x3b
 4783 00e4 0B       		.uleb128 0xb
 4784 00e5 01       		.uleb128 0x1
 4785 00e6 13       		.uleb128 0x13
 4786 00e7 00       		.byte	0
 4787 00e8 00       		.byte	0
 4788 00e9 12       		.uleb128 0x12
 4789 00ea 28       		.uleb128 0x28
 4790 00eb 00       		.byte	0
 4791 00ec 03       		.uleb128 0x3
 4792 00ed 0E       		.uleb128 0xe
 4793 00ee 1C       		.uleb128 0x1c
ARM GAS  C:\Users\MARTHN~1\AppData\Local\Temp\cc63NoI7.s 			page 103


 4794 00ef 0B       		.uleb128 0xb
 4795 00f0 00       		.byte	0
 4796 00f1 00       		.byte	0
 4797 00f2 13       		.uleb128 0x13
 4798 00f3 28       		.uleb128 0x28
 4799 00f4 00       		.byte	0
 4800 00f5 03       		.uleb128 0x3
 4801 00f6 08       		.uleb128 0x8
 4802 00f7 1C       		.uleb128 0x1c
 4803 00f8 0B       		.uleb128 0xb
 4804 00f9 00       		.byte	0
 4805 00fa 00       		.byte	0
 4806 00fb 14       		.uleb128 0x14
 4807 00fc 2E       		.uleb128 0x2e
 4808 00fd 01       		.byte	0x1
 4809 00fe 3F       		.uleb128 0x3f
 4810 00ff 19       		.uleb128 0x19
 4811 0100 03       		.uleb128 0x3
 4812 0101 0E       		.uleb128 0xe
 4813 0102 3A       		.uleb128 0x3a
 4814 0103 0B       		.uleb128 0xb
 4815 0104 3B       		.uleb128 0x3b
 4816 0105 0B       		.uleb128 0xb
 4817 0106 27       		.uleb128 0x27
 4818 0107 19       		.uleb128 0x19
 4819 0108 49       		.uleb128 0x49
 4820 0109 13       		.uleb128 0x13
 4821 010a 11       		.uleb128 0x11
 4822 010b 01       		.uleb128 0x1
 4823 010c 12       		.uleb128 0x12
 4824 010d 06       		.uleb128 0x6
 4825 010e 40       		.uleb128 0x40
 4826 010f 18       		.uleb128 0x18
 4827 0110 9642     		.uleb128 0x2116
 4828 0112 19       		.uleb128 0x19
 4829 0113 01       		.uleb128 0x1
 4830 0114 13       		.uleb128 0x13
 4831 0115 00       		.byte	0
 4832 0116 00       		.byte	0
 4833 0117 15       		.uleb128 0x15
 4834 0118 0B       		.uleb128 0xb
 4835 0119 01       		.byte	0x1
 4836 011a 11       		.uleb128 0x11
 4837 011b 01       		.uleb128 0x1
 4838 011c 12       		.uleb128 0x12
 4839 011d 06       		.uleb128 0x6
 4840 011e 01       		.uleb128 0x1
 4841 011f 13       		.uleb128 0x13
 4842 0120 00       		.byte	0
 4843 0121 00       		.byte	0
 4844 0122 16       		.uleb128 0x16
 4845 0123 34       		.uleb128 0x34
 4846 0124 00       		.byte	0
 4847 0125 03       		.uleb128 0x3
 4848 0126 08       		.uleb128 0x8
 4849 0127 3A       		.uleb128 0x3a
 4850 0128 0B       		.uleb128 0xb
ARM GAS  C:\Users\MARTHN~1\AppData\Local\Temp\cc63NoI7.s 			page 104


 4851 0129 3B       		.uleb128 0x3b
 4852 012a 0B       		.uleb128 0xb
 4853 012b 49       		.uleb128 0x49
 4854 012c 13       		.uleb128 0x13
 4855 012d 02       		.uleb128 0x2
 4856 012e 18       		.uleb128 0x18
 4857 012f 00       		.byte	0
 4858 0130 00       		.byte	0
 4859 0131 17       		.uleb128 0x17
 4860 0132 0B       		.uleb128 0xb
 4861 0133 01       		.byte	0x1
 4862 0134 11       		.uleb128 0x11
 4863 0135 01       		.uleb128 0x1
 4864 0136 12       		.uleb128 0x12
 4865 0137 06       		.uleb128 0x6
 4866 0138 00       		.byte	0
 4867 0139 00       		.byte	0
 4868 013a 18       		.uleb128 0x18
 4869 013b 34       		.uleb128 0x34
 4870 013c 00       		.byte	0
 4871 013d 03       		.uleb128 0x3
 4872 013e 08       		.uleb128 0x8
 4873 013f 3A       		.uleb128 0x3a
 4874 0140 0B       		.uleb128 0xb
 4875 0141 3B       		.uleb128 0x3b
 4876 0142 05       		.uleb128 0x5
 4877 0143 49       		.uleb128 0x49
 4878 0144 13       		.uleb128 0x13
 4879 0145 02       		.uleb128 0x2
 4880 0146 18       		.uleb128 0x18
 4881 0147 00       		.byte	0
 4882 0148 00       		.byte	0
 4883 0149 19       		.uleb128 0x19
 4884 014a 2E       		.uleb128 0x2e
 4885 014b 01       		.byte	0x1
 4886 014c 3F       		.uleb128 0x3f
 4887 014d 19       		.uleb128 0x19
 4888 014e 03       		.uleb128 0x3
 4889 014f 0E       		.uleb128 0xe
 4890 0150 3A       		.uleb128 0x3a
 4891 0151 0B       		.uleb128 0xb
 4892 0152 3B       		.uleb128 0x3b
 4893 0153 05       		.uleb128 0x5
 4894 0154 27       		.uleb128 0x27
 4895 0155 19       		.uleb128 0x19
 4896 0156 49       		.uleb128 0x49
 4897 0157 13       		.uleb128 0x13
 4898 0158 11       		.uleb128 0x11
 4899 0159 01       		.uleb128 0x1
 4900 015a 12       		.uleb128 0x12
 4901 015b 06       		.uleb128 0x6
 4902 015c 40       		.uleb128 0x40
 4903 015d 18       		.uleb128 0x18
 4904 015e 9642     		.uleb128 0x2116
 4905 0160 19       		.uleb128 0x19
 4906 0161 01       		.uleb128 0x1
 4907 0162 13       		.uleb128 0x13
ARM GAS  C:\Users\MARTHN~1\AppData\Local\Temp\cc63NoI7.s 			page 105


 4908 0163 00       		.byte	0
 4909 0164 00       		.byte	0
 4910 0165 1A       		.uleb128 0x1a
 4911 0166 34       		.uleb128 0x34
 4912 0167 00       		.byte	0
 4913 0168 03       		.uleb128 0x3
 4914 0169 0E       		.uleb128 0xe
 4915 016a 3A       		.uleb128 0x3a
 4916 016b 0B       		.uleb128 0xb
 4917 016c 3B       		.uleb128 0x3b
 4918 016d 05       		.uleb128 0x5
 4919 016e 49       		.uleb128 0x49
 4920 016f 13       		.uleb128 0x13
 4921 0170 02       		.uleb128 0x2
 4922 0171 18       		.uleb128 0x18
 4923 0172 00       		.byte	0
 4924 0173 00       		.byte	0
 4925 0174 1B       		.uleb128 0x1b
 4926 0175 2E       		.uleb128 0x2e
 4927 0176 00       		.byte	0
 4928 0177 3F       		.uleb128 0x3f
 4929 0178 19       		.uleb128 0x19
 4930 0179 03       		.uleb128 0x3
 4931 017a 0E       		.uleb128 0xe
 4932 017b 3A       		.uleb128 0x3a
 4933 017c 0B       		.uleb128 0xb
 4934 017d 3B       		.uleb128 0x3b
 4935 017e 05       		.uleb128 0x5
 4936 017f 27       		.uleb128 0x27
 4937 0180 19       		.uleb128 0x19
 4938 0181 49       		.uleb128 0x49
 4939 0182 13       		.uleb128 0x13
 4940 0183 11       		.uleb128 0x11
 4941 0184 01       		.uleb128 0x1
 4942 0185 12       		.uleb128 0x12
 4943 0186 06       		.uleb128 0x6
 4944 0187 40       		.uleb128 0x40
 4945 0188 18       		.uleb128 0x18
 4946 0189 9642     		.uleb128 0x2116
 4947 018b 19       		.uleb128 0x19
 4948 018c 00       		.byte	0
 4949 018d 00       		.byte	0
 4950 018e 1C       		.uleb128 0x1c
 4951 018f 2E       		.uleb128 0x2e
 4952 0190 00       		.byte	0
 4953 0191 3F       		.uleb128 0x3f
 4954 0192 19       		.uleb128 0x19
 4955 0193 03       		.uleb128 0x3
 4956 0194 0E       		.uleb128 0xe
 4957 0195 3A       		.uleb128 0x3a
 4958 0196 0B       		.uleb128 0xb
 4959 0197 3B       		.uleb128 0x3b
 4960 0198 05       		.uleb128 0x5
 4961 0199 27       		.uleb128 0x27
 4962 019a 19       		.uleb128 0x19
 4963 019b 49       		.uleb128 0x49
 4964 019c 13       		.uleb128 0x13
ARM GAS  C:\Users\MARTHN~1\AppData\Local\Temp\cc63NoI7.s 			page 106


 4965 019d 11       		.uleb128 0x11
 4966 019e 01       		.uleb128 0x1
 4967 019f 12       		.uleb128 0x12
 4968 01a0 06       		.uleb128 0x6
 4969 01a1 40       		.uleb128 0x40
 4970 01a2 18       		.uleb128 0x18
 4971 01a3 9742     		.uleb128 0x2117
 4972 01a5 19       		.uleb128 0x19
 4973 01a6 00       		.byte	0
 4974 01a7 00       		.byte	0
 4975 01a8 1D       		.uleb128 0x1d
 4976 01a9 0F       		.uleb128 0xf
 4977 01aa 00       		.byte	0
 4978 01ab 0B       		.uleb128 0xb
 4979 01ac 0B       		.uleb128 0xb
 4980 01ad 49       		.uleb128 0x49
 4981 01ae 13       		.uleb128 0x13
 4982 01af 00       		.byte	0
 4983 01b0 00       		.byte	0
 4984 01b1 1E       		.uleb128 0x1e
 4985 01b2 2E       		.uleb128 0x2e
 4986 01b3 01       		.byte	0x1
 4987 01b4 3F       		.uleb128 0x3f
 4988 01b5 19       		.uleb128 0x19
 4989 01b6 03       		.uleb128 0x3
 4990 01b7 0E       		.uleb128 0xe
 4991 01b8 3A       		.uleb128 0x3a
 4992 01b9 0B       		.uleb128 0xb
 4993 01ba 3B       		.uleb128 0x3b
 4994 01bb 05       		.uleb128 0x5
 4995 01bc 27       		.uleb128 0x27
 4996 01bd 19       		.uleb128 0x19
 4997 01be 11       		.uleb128 0x11
 4998 01bf 01       		.uleb128 0x1
 4999 01c0 12       		.uleb128 0x12
 5000 01c1 06       		.uleb128 0x6
 5001 01c2 40       		.uleb128 0x40
 5002 01c3 18       		.uleb128 0x18
 5003 01c4 9642     		.uleb128 0x2116
 5004 01c6 19       		.uleb128 0x19
 5005 01c7 01       		.uleb128 0x1
 5006 01c8 13       		.uleb128 0x13
 5007 01c9 00       		.byte	0
 5008 01ca 00       		.byte	0
 5009 01cb 1F       		.uleb128 0x1f
 5010 01cc 05       		.uleb128 0x5
 5011 01cd 00       		.byte	0
 5012 01ce 03       		.uleb128 0x3
 5013 01cf 0E       		.uleb128 0xe
 5014 01d0 3A       		.uleb128 0x3a
 5015 01d1 0B       		.uleb128 0xb
 5016 01d2 3B       		.uleb128 0x3b
 5017 01d3 05       		.uleb128 0x5
 5018 01d4 49       		.uleb128 0x49
 5019 01d5 13       		.uleb128 0x13
 5020 01d6 02       		.uleb128 0x2
 5021 01d7 18       		.uleb128 0x18
ARM GAS  C:\Users\MARTHN~1\AppData\Local\Temp\cc63NoI7.s 			page 107


 5022 01d8 00       		.byte	0
 5023 01d9 00       		.byte	0
 5024 01da 20       		.uleb128 0x20
 5025 01db 2E       		.uleb128 0x2e
 5026 01dc 00       		.byte	0
 5027 01dd 3F       		.uleb128 0x3f
 5028 01de 19       		.uleb128 0x19
 5029 01df 03       		.uleb128 0x3
 5030 01e0 0E       		.uleb128 0xe
 5031 01e1 3A       		.uleb128 0x3a
 5032 01e2 0B       		.uleb128 0xb
 5033 01e3 3B       		.uleb128 0x3b
 5034 01e4 05       		.uleb128 0x5
 5035 01e5 27       		.uleb128 0x27
 5036 01e6 19       		.uleb128 0x19
 5037 01e7 11       		.uleb128 0x11
 5038 01e8 01       		.uleb128 0x1
 5039 01e9 12       		.uleb128 0x12
 5040 01ea 06       		.uleb128 0x6
 5041 01eb 40       		.uleb128 0x40
 5042 01ec 18       		.uleb128 0x18
 5043 01ed 9642     		.uleb128 0x2116
 5044 01ef 19       		.uleb128 0x19
 5045 01f0 00       		.byte	0
 5046 01f1 00       		.byte	0
 5047 01f2 21       		.uleb128 0x21
 5048 01f3 2E       		.uleb128 0x2e
 5049 01f4 00       		.byte	0
 5050 01f5 3F       		.uleb128 0x3f
 5051 01f6 19       		.uleb128 0x19
 5052 01f7 03       		.uleb128 0x3
 5053 01f8 0E       		.uleb128 0xe
 5054 01f9 3A       		.uleb128 0x3a
 5055 01fa 0B       		.uleb128 0xb
 5056 01fb 3B       		.uleb128 0x3b
 5057 01fc 05       		.uleb128 0x5
 5058 01fd 27       		.uleb128 0x27
 5059 01fe 19       		.uleb128 0x19
 5060 01ff 11       		.uleb128 0x11
 5061 0200 01       		.uleb128 0x1
 5062 0201 12       		.uleb128 0x12
 5063 0202 06       		.uleb128 0x6
 5064 0203 40       		.uleb128 0x40
 5065 0204 18       		.uleb128 0x18
 5066 0205 9742     		.uleb128 0x2117
 5067 0207 19       		.uleb128 0x19
 5068 0208 00       		.byte	0
 5069 0209 00       		.byte	0
 5070 020a 22       		.uleb128 0x22
 5071 020b 34       		.uleb128 0x34
 5072 020c 00       		.byte	0
 5073 020d 03       		.uleb128 0x3
 5074 020e 0E       		.uleb128 0xe
 5075 020f 3A       		.uleb128 0x3a
 5076 0210 0B       		.uleb128 0xb
 5077 0211 3B       		.uleb128 0x3b
 5078 0212 0B       		.uleb128 0xb
ARM GAS  C:\Users\MARTHN~1\AppData\Local\Temp\cc63NoI7.s 			page 108


 5079 0213 49       		.uleb128 0x49
 5080 0214 13       		.uleb128 0x13
 5081 0215 02       		.uleb128 0x2
 5082 0216 18       		.uleb128 0x18
 5083 0217 00       		.byte	0
 5084 0218 00       		.byte	0
 5085 0219 23       		.uleb128 0x23
 5086 021a 34       		.uleb128 0x34
 5087 021b 00       		.byte	0
 5088 021c 03       		.uleb128 0x3
 5089 021d 0E       		.uleb128 0xe
 5090 021e 3A       		.uleb128 0x3a
 5091 021f 0B       		.uleb128 0xb
 5092 0220 3B       		.uleb128 0x3b
 5093 0221 05       		.uleb128 0x5
 5094 0222 49       		.uleb128 0x49
 5095 0223 13       		.uleb128 0x13
 5096 0224 3F       		.uleb128 0x3f
 5097 0225 19       		.uleb128 0x19
 5098 0226 3C       		.uleb128 0x3c
 5099 0227 19       		.uleb128 0x19
 5100 0228 00       		.byte	0
 5101 0229 00       		.byte	0
 5102 022a 24       		.uleb128 0x24
 5103 022b 35       		.uleb128 0x35
 5104 022c 00       		.byte	0
 5105 022d 49       		.uleb128 0x49
 5106 022e 13       		.uleb128 0x13
 5107 022f 00       		.byte	0
 5108 0230 00       		.byte	0
 5109 0231 25       		.uleb128 0x25
 5110 0232 34       		.uleb128 0x34
 5111 0233 00       		.byte	0
 5112 0234 03       		.uleb128 0x3
 5113 0235 0E       		.uleb128 0xe
 5114 0236 3A       		.uleb128 0x3a
 5115 0237 0B       		.uleb128 0xb
 5116 0238 3B       		.uleb128 0x3b
 5117 0239 0B       		.uleb128 0xb
 5118 023a 49       		.uleb128 0x49
 5119 023b 13       		.uleb128 0x13
 5120 023c 3F       		.uleb128 0x3f
 5121 023d 19       		.uleb128 0x19
 5122 023e 02       		.uleb128 0x2
 5123 023f 18       		.uleb128 0x18
 5124 0240 00       		.byte	0
 5125 0241 00       		.byte	0
 5126 0242 26       		.uleb128 0x26
 5127 0243 34       		.uleb128 0x34
 5128 0244 00       		.byte	0
 5129 0245 03       		.uleb128 0x3
 5130 0246 0E       		.uleb128 0xe
 5131 0247 3A       		.uleb128 0x3a
 5132 0248 0B       		.uleb128 0xb
 5133 0249 3B       		.uleb128 0x3b
 5134 024a 0B       		.uleb128 0xb
 5135 024b 49       		.uleb128 0x49
ARM GAS  C:\Users\MARTHN~1\AppData\Local\Temp\cc63NoI7.s 			page 109


 5136 024c 13       		.uleb128 0x13
 5137 024d 3F       		.uleb128 0x3f
 5138 024e 19       		.uleb128 0x19
 5139 024f 3C       		.uleb128 0x3c
 5140 0250 19       		.uleb128 0x19
 5141 0251 00       		.byte	0
 5142 0252 00       		.byte	0
 5143 0253 00       		.byte	0
 5144              		.section	.debug_aranges,"",%progbits
 5145 0000 C4000000 		.4byte	0xc4
 5146 0004 0200     		.2byte	0x2
 5147 0006 00000000 		.4byte	.Ldebug_info0
 5148 000a 04       		.byte	0x4
 5149 000b 00       		.byte	0
 5150 000c 0000     		.2byte	0
 5151 000e 0000     		.2byte	0
 5152 0010 00000000 		.4byte	.LFB63
 5153 0014 34040000 		.4byte	.LFE63-.LFB63
 5154 0018 00000000 		.4byte	.LFB64
 5155 001c 66000000 		.4byte	.LFE64-.LFB64
 5156 0020 00000000 		.4byte	.LFB65
 5157 0024 68000000 		.4byte	.LFE65-.LFB65
 5158 0028 00000000 		.4byte	.LFB66
 5159 002c 54000000 		.4byte	.LFE66-.LFB66
 5160 0030 00000000 		.4byte	.LFB67
 5161 0034 90000000 		.4byte	.LFE67-.LFB67
 5162 0038 00000000 		.4byte	.LFB68
 5163 003c 54000000 		.4byte	.LFE68-.LFB68
 5164 0040 00000000 		.4byte	.LFB69
 5165 0044 40000000 		.4byte	.LFE69-.LFB69
 5166 0048 00000000 		.4byte	.LFB70
 5167 004c 7C000000 		.4byte	.LFE70-.LFB70
 5168 0050 00000000 		.4byte	.LFB71
 5169 0054 20000000 		.4byte	.LFE71-.LFB71
 5170 0058 00000000 		.4byte	.LFB72
 5171 005c 20000000 		.4byte	.LFE72-.LFB72
 5172 0060 00000000 		.4byte	.LFB73
 5173 0064 20000000 		.4byte	.LFE73-.LFB73
 5174 0068 00000000 		.4byte	.LFB74
 5175 006c 20000000 		.4byte	.LFE74-.LFB74
 5176 0070 00000000 		.4byte	.LFB75
 5177 0074 20000000 		.4byte	.LFE75-.LFB75
 5178 0078 00000000 		.4byte	.LFB76
 5179 007c 58000000 		.4byte	.LFE76-.LFB76
 5180 0080 00000000 		.4byte	.LFB77
 5181 0084 7C000000 		.4byte	.LFE77-.LFB77
 5182 0088 00000000 		.4byte	.LFB78
 5183 008c 1C000000 		.4byte	.LFE78-.LFB78
 5184 0090 00000000 		.4byte	.LFB79
 5185 0094 84000000 		.4byte	.LFE79-.LFB79
 5186 0098 00000000 		.4byte	.LFB80
 5187 009c 58000000 		.4byte	.LFE80-.LFB80
 5188 00a0 00000000 		.4byte	.LFB81
 5189 00a4 80000000 		.4byte	.LFE81-.LFB81
 5190 00a8 00000000 		.4byte	.LFB82
 5191 00ac 3C000000 		.4byte	.LFE82-.LFB82
 5192 00b0 00000000 		.4byte	.LFB83
ARM GAS  C:\Users\MARTHN~1\AppData\Local\Temp\cc63NoI7.s 			page 110


 5193 00b4 40000000 		.4byte	.LFE83-.LFB83
 5194 00b8 00000000 		.4byte	.LFB84
 5195 00bc 7A000000 		.4byte	.LFE84-.LFB84
 5196 00c0 00000000 		.4byte	0
 5197 00c4 00000000 		.4byte	0
 5198              		.section	.debug_ranges,"",%progbits
 5199              	.Ldebug_ranges0:
 5200 0000 00000000 		.4byte	.LFB63
 5201 0004 34040000 		.4byte	.LFE63
 5202 0008 00000000 		.4byte	.LFB64
 5203 000c 66000000 		.4byte	.LFE64
 5204 0010 00000000 		.4byte	.LFB65
 5205 0014 68000000 		.4byte	.LFE65
 5206 0018 00000000 		.4byte	.LFB66
 5207 001c 54000000 		.4byte	.LFE66
 5208 0020 00000000 		.4byte	.LFB67
 5209 0024 90000000 		.4byte	.LFE67
 5210 0028 00000000 		.4byte	.LFB68
 5211 002c 54000000 		.4byte	.LFE68
 5212 0030 00000000 		.4byte	.LFB69
 5213 0034 40000000 		.4byte	.LFE69
 5214 0038 00000000 		.4byte	.LFB70
 5215 003c 7C000000 		.4byte	.LFE70
 5216 0040 00000000 		.4byte	.LFB71
 5217 0044 20000000 		.4byte	.LFE71
 5218 0048 00000000 		.4byte	.LFB72
 5219 004c 20000000 		.4byte	.LFE72
 5220 0050 00000000 		.4byte	.LFB73
 5221 0054 20000000 		.4byte	.LFE73
 5222 0058 00000000 		.4byte	.LFB74
 5223 005c 20000000 		.4byte	.LFE74
 5224 0060 00000000 		.4byte	.LFB75
 5225 0064 20000000 		.4byte	.LFE75
 5226 0068 00000000 		.4byte	.LFB76
 5227 006c 58000000 		.4byte	.LFE76
 5228 0070 00000000 		.4byte	.LFB77
 5229 0074 7C000000 		.4byte	.LFE77
 5230 0078 00000000 		.4byte	.LFB78
 5231 007c 1C000000 		.4byte	.LFE78
 5232 0080 00000000 		.4byte	.LFB79
 5233 0084 84000000 		.4byte	.LFE79
 5234 0088 00000000 		.4byte	.LFB80
 5235 008c 58000000 		.4byte	.LFE80
 5236 0090 00000000 		.4byte	.LFB81
 5237 0094 80000000 		.4byte	.LFE81
 5238 0098 00000000 		.4byte	.LFB82
 5239 009c 3C000000 		.4byte	.LFE82
 5240 00a0 00000000 		.4byte	.LFB83
 5241 00a4 40000000 		.4byte	.LFE83
 5242 00a8 00000000 		.4byte	.LFB84
 5243 00ac 7A000000 		.4byte	.LFE84
 5244 00b0 00000000 		.4byte	0
 5245 00b4 00000000 		.4byte	0
 5246              		.section	.debug_line,"",%progbits
 5247              	.Ldebug_line0:
 5248 0000 8D050000 		.section	.debug_str,"MS",%progbits,1
 5248      02009C01 
ARM GAS  C:\Users\MARTHN~1\AppData\Local\Temp\cc63NoI7.s 			page 111


 5248      00000201 
 5248      FB0E0D00 
 5248      01010101 
 5249              	.LASF93:
 5250 0000 42757A7A 		.ascii	"Buzzer_L\000"
 5250      65725F4C 
 5250      00
 5251              	.LASF316:
 5252 0009 70527850 		.ascii	"pRxPacket_Relay\000"
 5252      61636B65 
 5252      745F5265 
 5252      6C617900 
 5253              	.LASF126:
 5254 0019 44617461 		.ascii	"Data_H\000"
 5254      5F4800
 5255              	.LASF18:
 5256 0020 73697A65 		.ascii	"sizetype\000"
 5256      74797065 
 5256      00
 5257              	.LASF322:
 5258 0029 70527850 		.ascii	"pRxPacket_H\000"
 5258      61636B65 
 5258      745F4800 
 5259              	.LASF293:
 5260 0035 56626174 		.ascii	"Vbatt_Reading\000"
 5260      745F5265 
 5260      6164696E 
 5260      6700
 5261              	.LASF118:
 5262 0043 506F7765 		.ascii	"PowerState\000"
 5262      72537461 
 5262      746500
 5263              	.LASF10:
 5264 004e 696E7433 		.ascii	"int32_t\000"
 5264      325F7400 
 5265              	.LASF246:
 5266 0056 4D55585F 		.ascii	"MUX_460800_CHANNEL\000"
 5266      34363038 
 5266      30305F43 
 5266      48414E4E 
 5266      454C00
 5267              	.LASF275:
 5268 0069 54455354 		.ascii	"TEST_OUTPUTS\000"
 5268      5F4F5554 
 5268      50555453 
 5268      00
 5269              	.LASF231:
 5270 0076 4172726F 		.ascii	"Arrow_Module1\000"
 5270      775F4D6F 
 5270      64756C65 
 5270      3100
 5271              	.LASF232:
 5272 0084 4172726F 		.ascii	"Arrow_Module2\000"
 5272      775F4D6F 
 5272      64756C65 
 5272      3200
 5273              	.LASF233:
ARM GAS  C:\Users\MARTHN~1\AppData\Local\Temp\cc63NoI7.s 			page 112


 5274 0092 4172726F 		.ascii	"Arrow_Module3\000"
 5274      775F4D6F 
 5274      64756C65 
 5274      3300
 5275              	.LASF234:
 5276 00a0 4172726F 		.ascii	"Arrow_Module4\000"
 5276      775F4D6F 
 5276      64756C65 
 5276      3400
 5277              	.LASF235:
 5278 00ae 4172726F 		.ascii	"Arrow_Module5\000"
 5278      775F4D6F 
 5278      64756C65 
 5278      3500
 5279              	.LASF236:
 5280 00bc 4172726F 		.ascii	"Arrow_Module6\000"
 5280      775F4D6F 
 5280      64756C65 
 5280      3600
 5281              	.LASF237:
 5282 00ca 4172726F 		.ascii	"Arrow_Module7\000"
 5282      775F4D6F 
 5282      64756C65 
 5282      3700
 5283              	.LASF238:
 5284 00d8 4172726F 		.ascii	"Arrow_Module8\000"
 5284      775F4D6F 
 5284      64756C65 
 5284      3800
 5285              	.LASF239:
 5286 00e6 4172726F 		.ascii	"Arrow_Module9\000"
 5286      775F4D6F 
 5286      64756C65 
 5286      3900
 5287              	.LASF13:
 5288 00f4 75696E74 		.ascii	"uint32\000"
 5288      333200
 5289              	.LASF313:
 5290 00fb 52546573 		.ascii	"RTest_StopAutomatedStep\000"
 5290      745F5374 
 5290      6F704175 
 5290      746F6D61 
 5290      74656453 
 5291              	.LASF302:
 5292 0113 52656C61 		.ascii	"RelayTestStatus_display\000"
 5292      79546573 
 5292      74537461 
 5292      7475735F 
 5292      64697370 
 5293              	.LASF240:
 5294 012b 4172726F 		.ascii	"Arrow_Module10\000"
 5294      775F4D6F 
 5294      64756C65 
 5294      313000
 5295              	.LASF59:
 5296 013a 4C45445F 		.ascii	"LED_11_R\000"
 5296      31315F52 
ARM GAS  C:\Users\MARTHN~1\AppData\Local\Temp\cc63NoI7.s 			page 113


 5296      00
 5297              	.LASF281:
 5298 0143 424C4F43 		.ascii	"BLOCK_CURRENTS\000"
 5298      4B5F4355 
 5298      5252454E 
 5298      545300
 5299              	.LASF87:
 5300 0152 4C45445F 		.ascii	"LED_02_G\000"
 5300      30325F47 
 5300      00
 5301              	.LASF116:
 5302 015b 4F757470 		.ascii	"Outputs_25to32\000"
 5302      7574735F 
 5302      3235746F 
 5302      333200
 5303              	.LASF288:
 5304 016a 52546573 		.ascii	"RTest_Test_QuadPorts\000"
 5304      745F5465 
 5304      73745F51 
 5304      75616450 
 5304      6F727473 
 5305              	.LASF73:
 5306 017f 4C45445F 		.ascii	"LED_07_B\000"
 5306      30375F42 
 5306      00
 5307              	.LASF72:
 5308 0188 4C45445F 		.ascii	"LED_07_G\000"
 5308      30375F47 
 5308      00
 5309              	.LASF264:
 5310 0191 52544553 		.ascii	"RTEST_SIREN\000"
 5310      545F5349 
 5310      52454E00 
 5311              	.LASF71:
 5312 019d 4C45445F 		.ascii	"LED_07_R\000"
 5312      30375F52 
 5312      00
 5313              	.LASF131:
 5314 01a6 464C425F 		.ascii	"FLB_Module1\000"
 5314      4D6F6475 
 5314      6C653100 
 5315              	.LASF132:
 5316 01b2 464C425F 		.ascii	"FLB_Module2\000"
 5316      4D6F6475 
 5316      6C653200 
 5317              	.LASF133:
 5318 01be 464C425F 		.ascii	"FLB_Module3\000"
 5318      4D6F6475 
 5318      6C653300 
 5319              	.LASF95:
 5320 01ca 636F6E74 		.ascii	"controllerSpeakerEnable\000"
 5320      726F6C6C 
 5320      65725370 
 5320      65616B65 
 5320      72456E61 
 5321              	.LASF135:
 5322 01e2 464C425F 		.ascii	"FLB_Module5\000"
ARM GAS  C:\Users\MARTHN~1\AppData\Local\Temp\cc63NoI7.s 			page 114


 5322      4D6F6475 
 5322      6C653500 
 5323              	.LASF136:
 5324 01ee 464C425F 		.ascii	"FLB_Module6\000"
 5324      4D6F6475 
 5324      6C653600 
 5325              	.LASF137:
 5326 01fa 464C425F 		.ascii	"FLB_Module7\000"
 5326      4D6F6475 
 5326      6C653700 
 5327              	.LASF138:
 5328 0206 464C425F 		.ascii	"FLB_Module8\000"
 5328      4D6F6475 
 5328      6C653800 
 5329              	.LASF139:
 5330 0212 464C425F 		.ascii	"FLB_Module9\000"
 5330      4D6F6475 
 5330      6C653900 
 5331              	.LASF109:
 5332 021e 53746F70 		.ascii	"StopByte1_Siren\000"
 5332      42797465 
 5332      315F5369 
 5332      72656E00 
 5333              	.LASF191:
 5334 022e 4C533830 		.ascii	"LS800_Module1\000"
 5334      305F4D6F 
 5334      64756C65 
 5334      3100
 5335              	.LASF192:
 5336 023c 4C533830 		.ascii	"LS800_Module2\000"
 5336      305F4D6F 
 5336      64756C65 
 5336      3200
 5337              	.LASF193:
 5338 024a 4C533830 		.ascii	"LS800_Module3\000"
 5338      305F4D6F 
 5338      64756C65 
 5338      3300
 5339              	.LASF194:
 5340 0258 4C533830 		.ascii	"LS800_Module4\000"
 5340      305F4D6F 
 5340      64756C65 
 5340      3400
 5341              	.LASF195:
 5342 0266 4C533830 		.ascii	"LS800_Module5\000"
 5342      305F4D6F 
 5342      64756C65 
 5342      3500
 5343              	.LASF196:
 5344 0274 4C533830 		.ascii	"LS800_Module6\000"
 5344      305F4D6F 
 5344      64756C65 
 5344      3600
 5345              	.LASF197:
 5346 0282 4C533830 		.ascii	"LS800_Module7\000"
 5346      305F4D6F 
 5346      64756C65 
ARM GAS  C:\Users\MARTHN~1\AppData\Local\Temp\cc63NoI7.s 			page 115


 5346      3700
 5347              	.LASF198:
 5348 0290 4C533830 		.ascii	"LS800_Module8\000"
 5348      305F4D6F 
 5348      64756C65 
 5348      3800
 5349              	.LASF199:
 5350 029e 4C533830 		.ascii	"LS800_Module9\000"
 5350      305F4D6F 
 5350      64756C65 
 5350      3900
 5351              	.LASF111:
 5352 02ac 53746172 		.ascii	"StartByte1_Relay\000"
 5352      74427974 
 5352      65315F52 
 5352      656C6179 
 5352      00
 5353              	.LASF25:
 5354 02bd 426C6F63 		.ascii	"BlockCurrent_1\000"
 5354      6B437572 
 5354      72656E74 
 5354      5F3100
 5355              	.LASF26:
 5356 02cc 426C6F63 		.ascii	"BlockCurrent_2\000"
 5356      6B437572 
 5356      72656E74 
 5356      5F3200
 5357              	.LASF27:
 5358 02db 426C6F63 		.ascii	"BlockCurrent_3\000"
 5358      6B437572 
 5358      72656E74 
 5358      5F3300
 5359              	.LASF28:
 5360 02ea 426C6F63 		.ascii	"BlockCurrent_4\000"
 5360      6B437572 
 5360      72656E74 
 5360      5F3400
 5361              	.LASF244:
 5362 02f9 43544553 		.ascii	"CTEST_RTEST_QUAD\000"
 5362      545F5254 
 5362      4553545F 
 5362      51554144 
 5362      00
 5363              	.LASF94:
 5364 030a 53637265 		.ascii	"ScreenBrightness\000"
 5364      656E4272 
 5364      69676874 
 5364      6E657373 
 5364      00
 5365              	.LASF324:
 5366 031b 70547850 		.ascii	"pTxPacket_Quad\000"
 5366      61636B65 
 5366      745F5175 
 5366      616400
 5367              	.LASF108:
 5368 032a 4475616C 		.ascii	"DualDelay\000"
 5368      44656C61 
ARM GAS  C:\Users\MARTHN~1\AppData\Local\Temp\cc63NoI7.s 			page 116


 5368      7900
 5369              	.LASF258:
 5370 0334 43544553 		.ascii	"CTEST_OBDII_TX\000"
 5370      545F4F42 
 5370      4449495F 
 5370      545800
 5371              	.LASF273:
 5372 0343 494E4954 		.ascii	"INITIALIZE_TEST\000"
 5372      49414C49 
 5372      5A455F54 
 5372      45535400 
 5373              	.LASF80:
 5374 0353 4C45445F 		.ascii	"LED_04_R\000"
 5374      30345F52 
 5374      00
 5375              	.LASF182:
 5376 035c 4C533630 		.ascii	"LS600_Module2\000"
 5376      305F4D6F 
 5376      64756C65 
 5376      3200
 5377              	.LASF183:
 5378 036a 4C533630 		.ascii	"LS600_Module3\000"
 5378      305F4D6F 
 5378      64756C65 
 5378      3300
 5379              	.LASF184:
 5380 0378 4C533630 		.ascii	"LS600_Module4\000"
 5380      305F4D6F 
 5380      64756C65 
 5380      3400
 5381              	.LASF185:
 5382 0386 4C533630 		.ascii	"LS600_Module5\000"
 5382      305F4D6F 
 5382      64756C65 
 5382      3500
 5383              	.LASF4:
 5384 0394 6C6F6E67 		.ascii	"long int\000"
 5384      20696E74 
 5384      00
 5385              	.LASF187:
 5386 039d 4C533630 		.ascii	"LS600_Module7\000"
 5386      305F4D6F 
 5386      64756C65 
 5386      3700
 5387              	.LASF188:
 5388 03ab 4C533630 		.ascii	"LS600_Module8\000"
 5388      305F4D6F 
 5388      64756C65 
 5388      3800
 5389              	.LASF189:
 5390 03b9 4C533630 		.ascii	"LS600_Module9\000"
 5390      305F4D6F 
 5390      64756C65 
 5390      3900
 5391              	.LASF286:
 5392 03c7 74657374 		.ascii	"testval\000"
 5392      76616C00 
ARM GAS  C:\Users\MARTHN~1\AppData\Local\Temp\cc63NoI7.s 			page 117


 5393              	.LASF99:
 5394 03cf 57697265 		.ascii	"WireActivation1\000"
 5394      41637469 
 5394      76617469 
 5394      6F6E3100 
 5395              	.LASF100:
 5396 03df 57697265 		.ascii	"WireActivation2\000"
 5396      41637469 
 5396      76617469 
 5396      6F6E3200 
 5397              	.LASF101:
 5398 03ef 57697265 		.ascii	"WireActivation3\000"
 5398      41637469 
 5398      76617469 
 5398      6F6E3300 
 5399              	.LASF181:
 5400 03ff 534D5F5A 		.ascii	"SM_ZoneAddress\000"
 5400      6F6E6541 
 5400      64647265 
 5400      737300
 5401              	.LASF327:
 5402 040e 52546573 		.ascii	"RTest_TimeoutCount\000"
 5402      745F5469 
 5402      6D656F75 
 5402      74436F75 
 5402      6E7400
 5403              	.LASF64:
 5404 0421 4C45445F 		.ascii	"LED_10_B\000"
 5404      31305F42 
 5404      00
 5405              	.LASF63:
 5406 042a 4C45445F 		.ascii	"LED_10_G\000"
 5406      31305F47 
 5406      00
 5407              	.LASF49:
 5408 0433 4C45445F 		.ascii	"LED_15_B\000"
 5408      31355F42 
 5408      00
 5409              	.LASF48:
 5410 043c 4C45445F 		.ascii	"LED_15_G\000"
 5410      31355F47 
 5410      00
 5411              	.LASF129:
 5412 0445 72784461 		.ascii	"rxData_Quad\000"
 5412      74615F51 
 5412      75616400 
 5413              	.LASF47:
 5414 0451 4C45445F 		.ascii	"LED_15_R\000"
 5414      31355F52 
 5414      00
 5415              	.LASF112:
 5416 045a 52656C61 		.ascii	"Relay_PacketType\000"
 5416      795F5061 
 5416      636B6574 
 5416      54797065 
 5416      00
 5417              	.LASF0:
ARM GAS  C:\Users\MARTHN~1\AppData\Local\Temp\cc63NoI7.s 			page 118


 5418 046b 7369676E 		.ascii	"signed char\000"
 5418      65642063 
 5418      68617200 
 5419              	.LASF300:
 5420 0477 67657454 		.ascii	"getTxPacket_H\000"
 5420      78506163 
 5420      6B65745F 
 5420      4800
 5421              	.LASF210:
 5422 0485 52656172 		.ascii	"RearILB_Module10\000"
 5422      494C425F 
 5422      4D6F6475 
 5422      6C653130 
 5422      00
 5423              	.LASF128:
 5424 0496 5061636B 		.ascii	"Packet_H\000"
 5424      65745F48 
 5424      00
 5425              	.LASF39:
 5426 049f 63686563 		.ascii	"checkSum\000"
 5426      6B53756D 
 5426      00
 5427              	.LASF41:
 5428 04a8 5061796C 		.ascii	"Payload\000"
 5428      6F616400 
 5429              	.LASF319:
 5430 04b0 74785061 		.ascii	"txPacket_H\000"
 5430      636B6574 
 5430      5F4800
 5431              	.LASF1:
 5432 04bb 756E7369 		.ascii	"unsigned char\000"
 5432      676E6564 
 5432      20636861 
 5432      7200
 5433              	.LASF105:
 5434 04c9 53697265 		.ascii	"Siren_PacketType\000"
 5434      6E5F5061 
 5434      636B6574 
 5434      54797065 
 5434      00
 5435              	.LASF265:
 5436 04da 53544553 		.ascii	"STEST_RELAY\000"
 5436      545F5245 
 5436      4C415900 
 5437              	.LASF334:
 5438 04e6 433A5C55 		.ascii	"C:\\Users\\marthnick\\Desktop\\firm_F1-TestFixture\\"
 5438      73657273 
 5438      5C6D6172 
 5438      74686E69 
 5438      636B5C44 
 5439 0515 46312D54 		.ascii	"F1-TestFixture.cydsn\000"
 5439      65737446 
 5439      69787475 
 5439      72652E63 
 5439      7964736E 
 5440              	.LASF203:
 5441 052a 52656172 		.ascii	"RearILB_Module3\000"
ARM GAS  C:\Users\MARTHN~1\AppData\Local\Temp\cc63NoI7.s 			page 119


 5441      494C425F 
 5441      4D6F6475 
 5441      6C653300 
 5442              	.LASF40:
 5443 053a 62797465 		.ascii	"bytes\000"
 5443      7300
 5444              	.LASF16:
 5445 0540 63686172 		.ascii	"char\000"
 5445      00
 5446              	.LASF113:
 5447 0545 4F757470 		.ascii	"Outputs_1to8\000"
 5447      7574735F 
 5447      31746F38 
 5447      00
 5448              	.LASF85:
 5449 0552 4C45445F 		.ascii	"LED_03_B\000"
 5449      30335F42 
 5449      00
 5450              	.LASF84:
 5451 055b 4C45445F 		.ascii	"LED_03_G\000"
 5451      30335F47 
 5451      00
 5452              	.LASF114:
 5453 0564 4F757470 		.ascii	"Outputs_9to16\000"
 5453      7574735F 
 5453      39746F31 
 5453      3600
 5454              	.LASF70:
 5455 0572 4C45445F 		.ascii	"LED_08_B\000"
 5455      30385F42 
 5455      00
 5456              	.LASF69:
 5457 057b 4C45445F 		.ascii	"LED_08_G\000"
 5457      30385F47 
 5457      00
 5458              	.LASF68:
 5459 0584 4C45445F 		.ascii	"LED_08_R\000"
 5459      30385F52 
 5459      00
 5460              	.LASF318:
 5461 058d 70547850 		.ascii	"pTxPacket_RelaySiren\000"
 5461      61636B65 
 5461      745F5265 
 5461      6C617953 
 5461      6972656E 
 5462              	.LASF314:
 5463 05a2 53657452 		.ascii	"SetRelayInputs\000"
 5463      656C6179 
 5463      496E7075 
 5463      747300
 5464              	.LASF279:
 5465 05b1 494E5055 		.ascii	"INPUTS\000"
 5465      545300
 5466              	.LASF249:
 5467 05b8 52544553 		.ascii	"RTEST_QUAD_1\000"
 5467      545F5155 
 5467      41445F31 
ARM GAS  C:\Users\MARTHN~1\AppData\Local\Temp\cc63NoI7.s 			page 120


 5467      00
 5468              	.LASF250:
 5469 05c5 52544553 		.ascii	"RTEST_QUAD_2\000"
 5469      545F5155 
 5469      41445F32 
 5469      00
 5470              	.LASF251:
 5471 05d2 52544553 		.ascii	"RTEST_QUAD_3\000"
 5471      545F5155 
 5471      41445F33 
 5471      00
 5472              	.LASF252:
 5473 05df 52544553 		.ascii	"RTEST_QUAD_4\000"
 5473      545F5155 
 5473      41445F34 
 5473      00
 5474              	.LASF253:
 5475 05ec 52544553 		.ascii	"RTEST_QUAD_5\000"
 5475      545F5155 
 5475      41445F35 
 5475      00
 5476              	.LASF254:
 5477 05f9 52544553 		.ascii	"RTEST_QUAD_6\000"
 5477      545F5155 
 5477      41445F36 
 5477      00
 5478              	.LASF255:
 5479 0606 52544553 		.ascii	"RTEST_QUAD_7\000"
 5479      545F5155 
 5479      41445F37 
 5479      00
 5480              	.LASF256:
 5481 0613 52544553 		.ascii	"RTEST_QUAD_8\000"
 5481      545F5155 
 5481      41445F38 
 5481      00
 5482              	.LASF104:
 5483 0620 53746172 		.ascii	"StartByte1_Siren\000"
 5483      74427974 
 5483      65315F53 
 5483      6972656E 
 5483      00
 5484              	.LASF88:
 5485 0631 4C45445F 		.ascii	"LED_02_B\000"
 5485      30325F42 
 5485      00
 5486              	.LASF245:
 5487 063a 44415441 		.ascii	"DATA_TYPE_460800\000"
 5487      5F545950 
 5487      455F3436 
 5487      30383030 
 5487      00
 5488              	.LASF30:
 5489 064b 53706561 		.ascii	"Speaker1_Overcurrent\000"
 5489      6B657231 
 5489      5F4F7665 
 5489      72637572 
ARM GAS  C:\Users\MARTHN~1\AppData\Local\Temp\cc63NoI7.s 			page 121


 5489      72656E74 
 5490              	.LASF86:
 5491 0660 4C45445F 		.ascii	"LED_02_R\000"
 5491      30325F52 
 5491      00
 5492              	.LASF289:
 5493 0669 52546573 		.ascii	"RTest_Test_DataLink\000"
 5493      745F5465 
 5493      73745F44 
 5493      6174614C 
 5493      696E6B00 
 5494              	.LASF282:
 5495 067d 50415353 		.ascii	"PASS\000"
 5495      00
 5496              	.LASF285:
 5497 0682 4F757470 		.ascii	"OutputsState\000"
 5497      75747353 
 5497      74617465 
 5497      00
 5498              	.LASF295:
 5499 068f 426C6F63 		.ascii	"BlockCurrentPass\000"
 5499      6B437572 
 5499      72656E74 
 5499      50617373 
 5499      00
 5500              	.LASF103:
 5501 06a0 53746F70 		.ascii	"StopByte2_FLB\000"
 5501      42797465 
 5501      325F464C 
 5501      4200
 5502              	.LASF140:
 5503 06ae 464C425F 		.ascii	"FLB_Module10\000"
 5503      4D6F6475 
 5503      6C653130 
 5503      00
 5504              	.LASF141:
 5505 06bb 464C425F 		.ascii	"FLB_Module11\000"
 5505      4D6F6475 
 5505      6C653131 
 5505      00
 5506              	.LASF142:
 5507 06c8 464C425F 		.ascii	"FLB_Module12\000"
 5507      4D6F6475 
 5507      6C653132 
 5507      00
 5508              	.LASF143:
 5509 06d5 464C425F 		.ascii	"FLB_Module13\000"
 5509      4D6F6475 
 5509      6C653133 
 5509      00
 5510              	.LASF144:
 5511 06e2 464C425F 		.ascii	"FLB_Module14\000"
 5511      4D6F6475 
 5511      6C653134 
 5511      00
 5512              	.LASF145:
 5513 06ef 464C425F 		.ascii	"FLB_Module15\000"
ARM GAS  C:\Users\MARTHN~1\AppData\Local\Temp\cc63NoI7.s 			page 122


 5513      4D6F6475 
 5513      6C653135 
 5513      00
 5514              	.LASF146:
 5515 06fc 464C425F 		.ascii	"FLB_Module16\000"
 5515      4D6F6475 
 5515      6C653136 
 5515      00
 5516              	.LASF147:
 5517 0709 464C425F 		.ascii	"FLB_Module17\000"
 5517      4D6F6475 
 5517      6C653137 
 5517      00
 5518              	.LASF148:
 5519 0716 464C425F 		.ascii	"FLB_Module18\000"
 5519      4D6F6475 
 5519      6C653138 
 5519      00
 5520              	.LASF149:
 5521 0723 464C425F 		.ascii	"FLB_Module19\000"
 5521      4D6F6475 
 5521      6C653139 
 5521      00
 5522              	.LASF309:
 5523 0730 53657452 		.ascii	"SetRelayOutputs\000"
 5523      656C6179 
 5523      4F757470 
 5523      75747300 
 5524              	.LASF98:
 5525 0740 464C425F 		.ascii	"FLB_PacketType\000"
 5525      5061636B 
 5525      65745479 
 5525      706500
 5526              	.LASF61:
 5527 074f 4C45445F 		.ascii	"LED_11_B\000"
 5527      31315F42 
 5527      00
 5528              	.LASF110:
 5529 0758 53746F70 		.ascii	"StopByte2_Siren\000"
 5529      42797465 
 5529      325F5369 
 5529      72656E00 
 5530              	.LASF60:
 5531 0768 4C45445F 		.ascii	"LED_11_G\000"
 5531      31315F47 
 5531      00
 5532              	.LASF46:
 5533 0771 4C45445F 		.ascii	"LED_16_B\000"
 5533      31365F42 
 5533      00
 5534              	.LASF45:
 5535 077a 4C45445F 		.ascii	"LED_16_G\000"
 5535      31365F47 
 5535      00
 5536              	.LASF317:
 5537 0783 70527850 		.ascii	"pRxPacket_RelaySiren\000"
 5537      61636B65 
ARM GAS  C:\Users\MARTHN~1\AppData\Local\Temp\cc63NoI7.s 			page 123


 5537      745F5265 
 5537      6C617953 
 5537      6972656E 
 5538              	.LASF44:
 5539 0798 4C45445F 		.ascii	"LED_16_R\000"
 5539      31365F52 
 5539      00
 5540              	.LASF291:
 5541 07a1 52546573 		.ascii	"RTest_Test_Inputs\000"
 5541      745F5465 
 5541      73745F49 
 5541      6E707574 
 5541      7300
 5542              	.LASF150:
 5543 07b3 464C425F 		.ascii	"FLB_Module20\000"
 5543      4D6F6475 
 5543      6C653230 
 5543      00
 5544              	.LASF151:
 5545 07c0 464C425F 		.ascii	"FLB_Module21\000"
 5545      4D6F6475 
 5545      6C653231 
 5545      00
 5546              	.LASF152:
 5547 07cd 464C425F 		.ascii	"FLB_Module22\000"
 5547      4D6F6475 
 5547      6C653232 
 5547      00
 5548              	.LASF153:
 5549 07da 464C425F 		.ascii	"FLB_Module23\000"
 5549      4D6F6475 
 5549      6C653233 
 5549      00
 5550              	.LASF154:
 5551 07e7 464C425F 		.ascii	"FLB_Module24\000"
 5551      4D6F6475 
 5551      6C653234 
 5551      00
 5552              	.LASF155:
 5553 07f4 464C425F 		.ascii	"FLB_Module25\000"
 5553      4D6F6475 
 5553      6C653235 
 5553      00
 5554              	.LASF156:
 5555 0801 464C425F 		.ascii	"FLB_Module26\000"
 5555      4D6F6475 
 5555      6C653236 
 5555      00
 5556              	.LASF157:
 5557 080e 464C425F 		.ascii	"FLB_Module27\000"
 5557      4D6F6475 
 5557      6C653237 
 5557      00
 5558              	.LASF158:
 5559 081b 464C425F 		.ascii	"FLB_Module28\000"
 5559      4D6F6475 
 5559      6C653238 
ARM GAS  C:\Users\MARTHN~1\AppData\Local\Temp\cc63NoI7.s 			page 124


 5559      00
 5560              	.LASF159:
 5561 0828 464C425F 		.ascii	"FLB_Module29\000"
 5561      4D6F6475 
 5561      6C653239 
 5561      00
 5562              	.LASF211:
 5563 0835 526F636B 		.ascii	"RockLeft_Module1\000"
 5563      4C656674 
 5563      5F4D6F64 
 5563      756C6531 
 5563      00
 5564              	.LASF212:
 5565 0846 526F636B 		.ascii	"RockLeft_Module2\000"
 5565      4C656674 
 5565      5F4D6F64 
 5565      756C6532 
 5565      00
 5566              	.LASF213:
 5567 0857 526F636B 		.ascii	"RockLeft_Module3\000"
 5567      4C656674 
 5567      5F4D6F64 
 5567      756C6533 
 5567      00
 5568              	.LASF214:
 5569 0868 526F636B 		.ascii	"RockLeft_Module4\000"
 5569      4C656674 
 5569      5F4D6F64 
 5569      756C6534 
 5569      00
 5570              	.LASF215:
 5571 0879 526F636B 		.ascii	"RockLeft_Module5\000"
 5571      4C656674 
 5571      5F4D6F64 
 5571      756C6535 
 5571      00
 5572              	.LASF216:
 5573 088a 526F636B 		.ascii	"RockLeft_Module6\000"
 5573      4C656674 
 5573      5F4D6F64 
 5573      756C6536 
 5573      00
 5574              	.LASF217:
 5575 089b 526F636B 		.ascii	"RockLeft_Module7\000"
 5575      4C656674 
 5575      5F4D6F64 
 5575      756C6537 
 5575      00
 5576              	.LASF218:
 5577 08ac 526F636B 		.ascii	"RockLeft_Module8\000"
 5577      4C656674 
 5577      5F4D6F64 
 5577      756C6538 
 5577      00
 5578              	.LASF219:
 5579 08bd 526F636B 		.ascii	"RockLeft_Module9\000"
 5579      4C656674 
ARM GAS  C:\Users\MARTHN~1\AppData\Local\Temp\cc63NoI7.s 			page 125


 5579      5F4D6F64 
 5579      756C6539 
 5579      00
 5580              	.LASF267:
 5581 08ce 52544553 		.ascii	"RTEST_DLINK\000"
 5581      545F444C 
 5581      494E4B00 
 5582              	.LASF5:
 5583 08da 6C6F6E67 		.ascii	"long unsigned int\000"
 5583      20756E73 
 5583      69676E65 
 5583      6420696E 
 5583      7400
 5584              	.LASF19:
 5585 08ec 53656C65 		.ascii	"SelectedTest\000"
 5585      63746564 
 5585      54657374 
 5585      00
 5586              	.LASF287:
 5587 08f9 6368616E 		.ascii	"channel\000"
 5587      6E656C00 
 5588              	.LASF160:
 5589 0901 464C425F 		.ascii	"FLB_Module30\000"
 5589      4D6F6475 
 5589      6C653330 
 5589      00
 5590              	.LASF107:
 5591 090e 53697265 		.ascii	"Siren2Tone\000"
 5591      6E32546F 
 5591      6E6500
 5592              	.LASF172:
 5593 0919 46726F6E 		.ascii	"FrontILB_Module2\000"
 5593      74494C42 
 5593      5F4D6F64 
 5593      756C6532 
 5593      00
 5594              	.LASF173:
 5595 092a 46726F6E 		.ascii	"FrontILB_Module3\000"
 5595      74494C42 
 5595      5F4D6F64 
 5595      756C6533 
 5595      00
 5596              	.LASF174:
 5597 093b 46726F6E 		.ascii	"FrontILB_Module4\000"
 5597      74494C42 
 5597      5F4D6F64 
 5597      756C6534 
 5597      00
 5598              	.LASF175:
 5599 094c 46726F6E 		.ascii	"FrontILB_Module5\000"
 5599      74494C42 
 5599      5F4D6F64 
 5599      756C6535 
 5599      00
 5600              	.LASF176:
 5601 095d 46726F6E 		.ascii	"FrontILB_Module6\000"
 5601      74494C42 
ARM GAS  C:\Users\MARTHN~1\AppData\Local\Temp\cc63NoI7.s 			page 126


 5601      5F4D6F64 
 5601      756C6536 
 5601      00
 5602              	.LASF177:
 5603 096e 46726F6E 		.ascii	"FrontILB_Module7\000"
 5603      74494C42 
 5603      5F4D6F64 
 5603      756C6537 
 5603      00
 5604              	.LASF178:
 5605 097f 46726F6E 		.ascii	"FrontILB_Module8\000"
 5605      74494C42 
 5605      5F4D6F64 
 5605      756C6538 
 5605      00
 5606              	.LASF179:
 5607 0990 46726F6E 		.ascii	"FrontILB_Module9\000"
 5607      74494C42 
 5607      5F4D6F64 
 5607      756C6539 
 5607      00
 5608              	.LASF304:
 5609 09a1 43757272 		.ascii	"Current_Reading\000"
 5609      656E745F 
 5609      52656164 
 5609      696E6700 
 5610              	.LASF271:
 5611 09b1 43544553 		.ascii	"CTEST_USB_DEBUG\000"
 5611      545F5553 
 5611      425F4445 
 5611      42554700 
 5612              	.LASF332:
 5613 09c1 474E5520 		.ascii	"GNU C11 5.4.1 20160609 (release) [ARM/embedded-5-br"
 5613      43313120 
 5613      352E342E 
 5613      31203230 
 5613      31363036 
 5614 09f4 616E6368 		.ascii	"anch revision 237715] -mcpu=cortex-m3 -mthumb -g -O"
 5614      20726576 
 5614      6973696F 
 5614      6E203233 
 5614      37373135 
 5615 0a27 30202D66 		.ascii	"0 -ffunction-sections -ffat-lto-objects\000"
 5615      66756E63 
 5615      74696F6E 
 5615      2D736563 
 5615      74696F6E 
 5616              	.LASF20:
 5617 0a4f 54657374 		.ascii	"TestStep\000"
 5617      53746570 
 5617      00
 5618              	.LASF280:
 5619 0a58 56424154 		.ascii	"VBATT\000"
 5619      5400
 5620              	.LASF82:
 5621 0a5e 4C45445F 		.ascii	"LED_04_B\000"
 5621      30345F42 
ARM GAS  C:\Users\MARTHN~1\AppData\Local\Temp\cc63NoI7.s 			page 127


 5621      00
 5622              	.LASF21:
 5623 0a67 53746174 		.ascii	"Status\000"
 5623      757300
 5624              	.LASF81:
 5625 0a6e 4C45445F 		.ascii	"LED_04_G\000"
 5625      30345F47 
 5625      00
 5626              	.LASF67:
 5627 0a77 4C45445F 		.ascii	"LED_09_B\000"
 5627      30395F42 
 5627      00
 5628              	.LASF66:
 5629 0a80 4C45445F 		.ascii	"LED_09_G\000"
 5629      30395F47 
 5629      00
 5630              	.LASF6:
 5631 0a89 6C6F6E67 		.ascii	"long long int\000"
 5631      206C6F6E 
 5631      6720696E 
 5631      7400
 5632              	.LASF65:
 5633 0a97 4C45445F 		.ascii	"LED_09_R\000"
 5633      30395F52 
 5633      00
 5634              	.LASF119:
 5635 0aa0 53697265 		.ascii	"SirenEnable\000"
 5635      6E456E61 
 5635      626C6500 
 5636              	.LASF102:
 5637 0aac 53746F70 		.ascii	"StopByte1_FLB\000"
 5637      42797465 
 5637      315F464C 
 5637      4200
 5638              	.LASF122:
 5639 0aba 43686563 		.ascii	"Checksum_Relay\000"
 5639      6B73756D 
 5639      5F52656C 
 5639      617900
 5640              	.LASF311:
 5641 0ac9 656E6162 		.ascii	"enable\000"
 5641      6C6500
 5642              	.LASF15:
 5643 0ad0 646F7562 		.ascii	"double\000"
 5643      6C6500
 5644              	.LASF292:
 5645 0ad7 52546573 		.ascii	"RTest_Test_Vbatt\000"
 5645      745F5465 
 5645      73745F56 
 5645      62617474 
 5645      00
 5646              	.LASF259:
 5647 0ae8 52544553 		.ascii	"RTEST_QUAD_TX\000"
 5647      545F5155 
 5647      41445F54 
 5647      5800
 5648              	.LASF186:
ARM GAS  C:\Users\MARTHN~1\AppData\Local\Temp\cc63NoI7.s 			page 128


 5649 0af6 4C533630 		.ascii	"LS600_Module6\000"
 5649      305F4D6F 
 5649      64756C65 
 5649      3600
 5650              	.LASF329:
 5651 0b04 49544D5F 		.ascii	"ITM_RxBuffer\000"
 5651      52784275 
 5651      66666572 
 5651      00
 5652              	.LASF14:
 5653 0b11 666C6F61 		.ascii	"float\000"
 5653      7400
 5654              	.LASF277:
 5655 0b17 51554144 		.ascii	"QUAD_PORTS\000"
 5655      5F504F52 
 5655      545300
 5656              	.LASF23:
 5657 0b22 73747275 		.ascii	"structTestInfo\000"
 5657      63745465 
 5657      7374496E 
 5657      666F00
 5658              	.LASF8:
 5659 0b31 756E7369 		.ascii	"unsigned int\000"
 5659      676E6564 
 5659      20696E74 
 5659      00
 5660              	.LASF33:
 5661 0b3e 53697265 		.ascii	"SirenFirm_0\000"
 5661      6E466972 
 5661      6D5F3000 
 5662              	.LASF34:
 5663 0b4a 53697265 		.ascii	"SirenFirm_1\000"
 5663      6E466972 
 5663      6D5F3100 
 5664              	.LASF35:
 5665 0b56 53697265 		.ascii	"SirenFirm_2\000"
 5665      6E466972 
 5665      6D5F3200 
 5666              	.LASF321:
 5667 0b62 72785061 		.ascii	"rxPacket_H\000"
 5667      636B6574 
 5667      5F4800
 5668              	.LASF58:
 5669 0b6d 4C45445F 		.ascii	"LED_12_B\000"
 5669      31325F42 
 5669      00
 5670              	.LASF260:
 5671 0b76 53544553 		.ascii	"STEST_AUDIO_TX\000"
 5671      545F4155 
 5671      44494F5F 
 5671      545800
 5672              	.LASF57:
 5673 0b85 4C45445F 		.ascii	"LED_12_G\000"
 5673      31325F47 
 5673      00
 5674              	.LASF166:
 5675 0b8e 4C533430 		.ascii	"LS400_Module6\000"
ARM GAS  C:\Users\MARTHN~1\AppData\Local\Temp\cc63NoI7.s 			page 129


 5675      305F4D6F 
 5675      64756C65 
 5675      3600
 5676              	.LASF56:
 5677 0b9c 4C45445F 		.ascii	"LED_12_R\000"
 5677      31325F52 
 5677      00
 5678              	.LASF106:
 5679 0ba5 53697265 		.ascii	"Siren1Tone\000"
 5679      6E31546F 
 5679      6E6500
 5680              	.LASF96:
 5681 0bb0 636F6E74 		.ascii	"controllerPowerState\000"
 5681      726F6C6C 
 5681      6572506F 
 5681      77657253 
 5681      74617465 
 5682              	.LASF310:
 5683 0bc5 626C6F63 		.ascii	"block\000"
 5683      6B00
 5684              	.LASF268:
 5685 0bcb 4D55585F 		.ascii	"MUX_115200_CHANNEL\000"
 5685      31313532 
 5685      30305F43 
 5685      48414E4E 
 5685      454C00
 5686              	.LASF29:
 5687 0bde 566F6C74 		.ascii	"Voltage_BATT\000"
 5687      6167655F 
 5687      42415454 
 5687      00
 5688              	.LASF117:
 5689 0beb 48694C6F 		.ascii	"HiLoInputLogic\000"
 5689      496E7075 
 5689      744C6F67 
 5689      696300
 5690              	.LASF17:
 5691 0bfa 6C6F6E67 		.ascii	"long double\000"
 5691      20646F75 
 5691      626C6500 
 5692              	.LASF320:
 5693 0c06 70547850 		.ascii	"pTxPacket_H\000"
 5693      61636B65 
 5693      745F4800 
 5694              	.LASF257:
 5695 0c12 44454D55 		.ascii	"DEMUX_460800_CHANNEL\000"
 5695      585F3436 
 5695      30383030 
 5695      5F434841 
 5695      4E4E454C 
 5696              	.LASF331:
 5697 0c27 43757272 		.ascii	"CurrentTest\000"
 5697      656E7454 
 5697      65737400 
 5698              	.LASF62:
 5699 0c33 4C45445F 		.ascii	"LED_10_R\000"
 5699      31305F52 
ARM GAS  C:\Users\MARTHN~1\AppData\Local\Temp\cc63NoI7.s 			page 130


 5699      00
 5700              	.LASF241:
 5701 0c3c 72785061 		.ascii	"rxPacket_Quad\000"
 5701      636B6574 
 5701      5F517561 
 5701      6400
 5702              	.LASF161:
 5703 0c4a 534D5F5A 		.ascii	"SM_Zone1\000"
 5703      6F6E6531 
 5703      00
 5704              	.LASF162:
 5705 0c53 534D5F5A 		.ascii	"SM_Zone2\000"
 5705      6F6E6532 
 5705      00
 5706              	.LASF163:
 5707 0c5c 534D5F5A 		.ascii	"SM_Zone3\000"
 5707      6F6E6533 
 5707      00
 5708              	.LASF168:
 5709 0c65 534D5F5A 		.ascii	"SM_Zone4\000"
 5709      6F6E6534 
 5709      00
 5710              	.LASF169:
 5711 0c6e 534D5F5A 		.ascii	"SM_Zone5\000"
 5711      6F6E6535 
 5711      00
 5712              	.LASF170:
 5713 0c77 534D5F5A 		.ascii	"SM_Zone6\000"
 5713      6F6E6536 
 5713      00
 5714              	.LASF171:
 5715 0c80 534D5F5A 		.ascii	"SM_Zone7\000"
 5715      6F6E6537 
 5715      00
 5716              	.LASF180:
 5717 0c89 534D5F5A 		.ascii	"SM_Zone8\000"
 5717      6F6E6538 
 5717      00
 5718              	.LASF330:
 5719 0c92 54657374 		.ascii	"Test\000"
 5719      00
 5720              	.LASF272:
 5721 0c97 44494147 		.ascii	"DIAG_UART_RX\000"
 5721      5F554152 
 5721      545F5258 
 5721      00
 5722              	.LASF79:
 5723 0ca4 4C45445F 		.ascii	"LED_05_B\000"
 5723      30355F42 
 5723      00
 5724              	.LASF78:
 5725 0cad 4C45445F 		.ascii	"LED_05_G\000"
 5725      30355F47 
 5725      00
 5726              	.LASF124:
 5727 0cb6 74785061 		.ascii	"txPacket_RelaySiren\000"
 5727      636B6574 
ARM GAS  C:\Users\MARTHN~1\AppData\Local\Temp\cc63NoI7.s 			page 131


 5727      5F52656C 
 5727      61795369 
 5727      72656E00 
 5728              	.LASF7:
 5729 0cca 6C6F6E67 		.ascii	"long long unsigned int\000"
 5729      206C6F6E 
 5729      6720756E 
 5729      7369676E 
 5729      65642069 
 5730              	.LASF77:
 5731 0ce1 4C45445F 		.ascii	"LED_05_R\000"
 5731      30355F52 
 5731      00
 5732              	.LASF274:
 5733 0cea 53495245 		.ascii	"SIREN_EN\000"
 5733      4E5F454E 
 5733      00
 5734              	.LASF32:
 5735 0cf3 52656C61 		.ascii	"RelayInputs\000"
 5735      79496E70 
 5735      75747300 
 5736              	.LASF247:
 5737 0cff 43544553 		.ascii	"CTEST_QUAD\000"
 5737      545F5155 
 5737      414400
 5738              	.LASF294:
 5739 0d0a 52546573 		.ascii	"RTest_Test_BlockCurrents\000"
 5739      745F5465 
 5739      73745F42 
 5739      6C6F636B 
 5739      43757272 
 5740              	.LASF266:
 5741 0d23 44415441 		.ascii	"DATATYPE_115200\000"
 5741      54595045 
 5741      5F313135 
 5741      32303000 
 5742              	.LASF221:
 5743 0d33 526F636B 		.ascii	"RockRight_Module1\000"
 5743      52696768 
 5743      745F4D6F 
 5743      64756C65 
 5743      3100
 5744              	.LASF222:
 5745 0d45 526F636B 		.ascii	"RockRight_Module2\000"
 5745      52696768 
 5745      745F4D6F 
 5745      64756C65 
 5745      3200
 5746              	.LASF223:
 5747 0d57 526F636B 		.ascii	"RockRight_Module3\000"
 5747      52696768 
 5747      745F4D6F 
 5747      64756C65 
 5747      3300
 5748              	.LASF224:
 5749 0d69 526F636B 		.ascii	"RockRight_Module4\000"
 5749      52696768 
ARM GAS  C:\Users\MARTHN~1\AppData\Local\Temp\cc63NoI7.s 			page 132


 5749      745F4D6F 
 5749      64756C65 
 5749      3400
 5750              	.LASF225:
 5751 0d7b 526F636B 		.ascii	"RockRight_Module5\000"
 5751      52696768 
 5751      745F4D6F 
 5751      64756C65 
 5751      3500
 5752              	.LASF226:
 5753 0d8d 526F636B 		.ascii	"RockRight_Module6\000"
 5753      52696768 
 5753      745F4D6F 
 5753      64756C65 
 5753      3600
 5754              	.LASF227:
 5755 0d9f 526F636B 		.ascii	"RockRight_Module7\000"
 5755      52696768 
 5755      745F4D6F 
 5755      64756C65 
 5755      3700
 5756              	.LASF228:
 5757 0db1 526F636B 		.ascii	"RockRight_Module8\000"
 5757      52696768 
 5757      745F4D6F 
 5757      64756C65 
 5757      3800
 5758              	.LASF229:
 5759 0dc3 526F636B 		.ascii	"RockRight_Module9\000"
 5759      52696768 
 5759      745F4D6F 
 5759      64756C65 
 5759      3900
 5760              	.LASF296:
 5761 0dd5 426C6F63 		.ascii	"BlockCurrentValue\000"
 5761      6B437572 
 5761      72656E74 
 5761      56616C75 
 5761      6500
 5762              	.LASF83:
 5763 0de7 4C45445F 		.ascii	"LED_03_R\000"
 5763      30335F52 
 5763      00
 5764              	.LASF130:
 5765 0df0 53697A65 		.ascii	"SizeOfPayload\000"
 5765      4F665061 
 5765      796C6F61 
 5765      6400
 5766              	.LASF242:
 5767 0dfe 52785061 		.ascii	"RxPacket_Quad\000"
 5767      636B6574 
 5767      5F517561 
 5767      6400
 5768              	.LASF125:
 5769 0e0c 54785061 		.ascii	"TxPacket_RelaySiren\000"
 5769      636B6574 
 5769      5F52656C 
ARM GAS  C:\Users\MARTHN~1\AppData\Local\Temp\cc63NoI7.s 			page 133


 5769      61795369 
 5769      72656E00 
 5770              	.LASF31:
 5771 0e20 53706561 		.ascii	"Speaker2_Overcurrent\000"
 5771      6B657232 
 5771      5F4F7665 
 5771      72637572 
 5771      72656E74 
 5772              	.LASF312:
 5773 0e35 52546573 		.ascii	"RTest_StartAutomatedStep\000"
 5773      745F5374 
 5773      61727441 
 5773      75746F6D 
 5773      61746564 
 5774              	.LASF303:
 5775 0e4e 52546573 		.ascii	"RTest_BlockCurrent\000"
 5775      745F426C 
 5775      6F636B43 
 5775      75727265 
 5775      6E7400
 5776              	.LASF200:
 5777 0e61 4C533830 		.ascii	"LS800_Module10\000"
 5777      305F4D6F 
 5777      64756C65 
 5777      313000
 5778              	.LASF298:
 5779 0e70 67657454 		.ascii	"getTxPacket_RelaySiren\000"
 5779      78506163 
 5779      6B65745F 
 5779      52656C61 
 5779      79536972 
 5780              	.LASF123:
 5781 0e87 72785061 		.ascii	"rxPacket_RelaySiren\000"
 5781      636B6574 
 5781      5F52656C 
 5781      61795369 
 5781      72656E00 
 5782              	.LASF55:
 5783 0e9b 4C45445F 		.ascii	"LED_13_B\000"
 5783      31335F42 
 5783      00
 5784              	.LASF54:
 5785 0ea4 4C45445F 		.ascii	"LED_13_G\000"
 5785      31335F47 
 5785      00
 5786              	.LASF201:
 5787 0ead 52656172 		.ascii	"RearILB_Module1\000"
 5787      494C425F 
 5787      4D6F6475 
 5787      6C653100 
 5788              	.LASF202:
 5789 0ebd 52656172 		.ascii	"RearILB_Module2\000"
 5789      494C425F 
 5789      4D6F6475 
 5789      6C653200 
 5790              	.LASF53:
 5791 0ecd 4C45445F 		.ascii	"LED_13_R\000"
ARM GAS  C:\Users\MARTHN~1\AppData\Local\Temp\cc63NoI7.s 			page 134


 5791      31335F52 
 5791      00
 5792              	.LASF204:
 5793 0ed6 52656172 		.ascii	"RearILB_Module4\000"
 5793      494C425F 
 5793      4D6F6475 
 5793      6C653400 
 5794              	.LASF205:
 5795 0ee6 52656172 		.ascii	"RearILB_Module5\000"
 5795      494C425F 
 5795      4D6F6475 
 5795      6C653500 
 5796              	.LASF206:
 5797 0ef6 52656172 		.ascii	"RearILB_Module6\000"
 5797      494C425F 
 5797      4D6F6475 
 5797      6C653600 
 5798              	.LASF207:
 5799 0f06 52656172 		.ascii	"RearILB_Module7\000"
 5799      494C425F 
 5799      4D6F6475 
 5799      6C653700 
 5800              	.LASF208:
 5801 0f16 52656172 		.ascii	"RearILB_Module8\000"
 5801      494C425F 
 5801      4D6F6475 
 5801      6C653800 
 5802              	.LASF209:
 5803 0f26 52656172 		.ascii	"RearILB_Module9\000"
 5803      494C425F 
 5803      4D6F6475 
 5803      6C653900 
 5804              	.LASF22:
 5805 0f36 53747275 		.ascii	"StructTestInfo\000"
 5805      63745465 
 5805      7374496E 
 5805      666F00
 5806              	.LASF115:
 5807 0f45 4F757470 		.ascii	"Outputs_17to24\000"
 5807      7574735F 
 5807      3137746F 
 5807      323400
 5808              	.LASF269:
 5809 0f54 52544553 		.ascii	"RTEST_DLINK1\000"
 5809      545F444C 
 5809      494E4B31 
 5809      00
 5810              	.LASF270:
 5811 0f61 52544553 		.ascii	"RTEST_DLINK2\000"
 5811      545F444C 
 5811      494E4B32 
 5811      00
 5812              	.LASF11:
 5813 0f6e 75696E74 		.ascii	"uint8\000"
 5813      3800
 5814              	.LASF276:
 5815 0f74 44415441 		.ascii	"DATALINK\000"
ARM GAS  C:\Users\MARTHN~1\AppData\Local\Temp\cc63NoI7.s 			page 135


 5815      4C494E4B 
 5815      00
 5816              	.LASF24:
 5817 0f7d 72784461 		.ascii	"rxData_RelaySiren\000"
 5817      74615F52 
 5817      656C6179 
 5817      53697265 
 5817      6E00
 5818              	.LASF134:
 5819 0f8f 464C425F 		.ascii	"FLB_Module4\000"
 5819      4D6F6475 
 5819      6C653400 
 5820              	.LASF2:
 5821 0f9b 73686F72 		.ascii	"short int\000"
 5821      7420696E 
 5821      7400
 5822              	.LASF325:
 5823 0fa5 52546573 		.ascii	"RTest_20ms_isr_count\000"
 5823      745F3230 
 5823      6D735F69 
 5823      73725F63 
 5823      6F756E74 
 5824              	.LASF290:
 5825 0fba 52546573 		.ascii	"RTest_Test_UART_Siren\000"
 5825      745F5465 
 5825      73745F55 
 5825      4152545F 
 5825      53697265 
 5826              	.LASF263:
 5827 0fd0 52544553 		.ascii	"RTEST_CONT\000"
 5827      545F434F 
 5827      4E5400
 5828              	.LASF42:
 5829 0fdb 52785061 		.ascii	"RxPacket_RelaySiren\000"
 5829      636B6574 
 5829      5F52656C 
 5829      61795369 
 5829      72656E00 
 5830              	.LASF323:
 5831 0fef 74785061 		.ascii	"txPacket_Quad\000"
 5831      636B6574 
 5831      5F517561 
 5831      6400
 5832              	.LASF308:
 5833 0ffd 52546573 		.ascii	"RTest_sendDiagPacket\000"
 5833      745F7365 
 5833      6E644469 
 5833      61675061 
 5833      636B6574 
 5834              	.LASF307:
 5835 1012 52546573 		.ascii	"RTest_50ms_isr\000"
 5835      745F3530 
 5835      6D735F69 
 5835      737200
 5836              	.LASF328:
 5837 1021 52546573 		.ascii	"RTestStatus\000"
 5837      74537461 
ARM GAS  C:\Users\MARTHN~1\AppData\Local\Temp\cc63NoI7.s 			page 136


 5837      74757300 
 5838              	.LASF333:
 5839 102d 52656C61 		.ascii	"RelayTest.c\000"
 5839      79546573 
 5839      742E6300 
 5840              	.LASF299:
 5841 1039 67657452 		.ascii	"getRxPacket_RelaySiren\000"
 5841      78506163 
 5841      6B65745F 
 5841      52656C61 
 5841      79536972 
 5842              	.LASF284:
 5843 1050 52546573 		.ascii	"RTest_Test_Outputs\000"
 5843      745F5465 
 5843      73745F4F 
 5843      75747075 
 5843      747300
 5844              	.LASF164:
 5845 1063 4C533430 		.ascii	"LS400_Module4\000"
 5845      305F4D6F 
 5845      64756C65 
 5845      3400
 5846              	.LASF165:
 5847 1071 4C533430 		.ascii	"LS400_Module5\000"
 5847      305F4D6F 
 5847      64756C65 
 5847      3500
 5848              	.LASF127:
 5849 107f 7061636B 		.ascii	"packet_H\000"
 5849      65745F48 
 5849      00
 5850              	.LASF167:
 5851 1088 4C533430 		.ascii	"LS400_Module7\000"
 5851      305F4D6F 
 5851      64756C65 
 5851      3700
 5852              	.LASF297:
 5853 1096 67657452 		.ascii	"getRxPacket_Relay\000"
 5853      78506163 
 5853      6B65745F 
 5853      52656C61 
 5853      7900
 5854              	.LASF91:
 5855 10a8 4C45445F 		.ascii	"LED_01_B\000"
 5855      30315F42 
 5855      00
 5856              	.LASF90:
 5857 10b1 4C45445F 		.ascii	"LED_01_G\000"
 5857      30315F47 
 5857      00
 5858              	.LASF76:
 5859 10ba 4C45445F 		.ascii	"LED_06_B\000"
 5859      30365F42 
 5859      00
 5860              	.LASF75:
 5861 10c3 4C45445F 		.ascii	"LED_06_G\000"
 5861      30365F47 
ARM GAS  C:\Users\MARTHN~1\AppData\Local\Temp\cc63NoI7.s 			page 137


 5861      00
 5862              	.LASF301:
 5863 10cc 67657452 		.ascii	"getRxPacket_H\000"
 5863      78506163 
 5863      6B65745F 
 5863      4800
 5864              	.LASF74:
 5865 10da 4C45445F 		.ascii	"LED_06_R\000"
 5865      30365F52 
 5865      00
 5866              	.LASF43:
 5867 10e3 74784461 		.ascii	"txData\000"
 5867      746100
 5868              	.LASF283:
 5869 10ea 52656C61 		.ascii	"RelayTest\000"
 5869      79546573 
 5869      7400
 5870              	.LASF262:
 5871 10f4 43544553 		.ascii	"CTEST_RELAY\000"
 5871      545F5245 
 5871      4C415900 
 5872              	.LASF190:
 5873 1100 4C533630 		.ascii	"LS600_Module10\000"
 5873      305F4D6F 
 5873      64756C65 
 5873      313000
 5874              	.LASF120:
 5875 110f 53746F70 		.ascii	"StopByte1_Relay\000"
 5875      42797465 
 5875      315F5265 
 5875      6C617900 
 5876              	.LASF248:
 5877 111f 43544553 		.ascii	"CTEST_AUDIOSTREAM\000"
 5877      545F4155 
 5877      44494F53 
 5877      54524541 
 5877      4D00
 5878              	.LASF220:
 5879 1131 526F636B 		.ascii	"RockLeft_Module10\000"
 5879      4C656674 
 5879      5F4D6F64 
 5879      756C6531 
 5879      3000
 5880              	.LASF326:
 5881 1143 52546573 		.ascii	"RTest_20ms_isr_EN\000"
 5881      745F3230 
 5881      6D735F69 
 5881      73725F45 
 5881      4E00
 5882              	.LASF230:
 5883 1155 526F636B 		.ascii	"RockRight_Module10\000"
 5883      52696768 
 5883      745F4D6F 
 5883      64756C65 
 5883      313000
 5884              	.LASF89:
 5885 1168 4C45445F 		.ascii	"LED_01_R\000"
ARM GAS  C:\Users\MARTHN~1\AppData\Local\Temp\cc63NoI7.s 			page 138


 5885      30315F52 
 5885      00
 5886              	.LASF306:
 5887 1171 52546573 		.ascii	"RTest_20ms_isr\000"
 5887      745F3230 
 5887      6D735F69 
 5887      737200
 5888              	.LASF3:
 5889 1180 73686F72 		.ascii	"short unsigned int\000"
 5889      7420756E 
 5889      7369676E 
 5889      65642069 
 5889      6E7400
 5890              	.LASF243:
 5891 1193 43544553 		.ascii	"CTEST_AUDIO\000"
 5891      545F4155 
 5891      44494F00 
 5892              	.LASF9:
 5893 119f 5F5F696E 		.ascii	"__int32_t\000"
 5893      7433325F 
 5893      7400
 5894              	.LASF121:
 5895 11a9 53746F70 		.ascii	"StopByte2_Relay\000"
 5895      42797465 
 5895      325F5265 
 5895      6C617900 
 5896              	.LASF261:
 5897 11b9 4D55585F 		.ascii	"MUX_DEMUX_230400_CHANNEL\000"
 5897      44454D55 
 5897      585F3233 
 5897      30343030 
 5897      5F434841 
 5898              	.LASF315:
 5899 11d2 72785061 		.ascii	"rxPacket_Relay\000"
 5899      636B6574 
 5899      5F52656C 
 5899      617900
 5900              	.LASF305:
 5901 11e1 52546573 		.ascii	"RTest_10ms_isr\000"
 5901      745F3130 
 5901      6D735F69 
 5901      737200
 5902              	.LASF97:
 5903 11f0 53746172 		.ascii	"StartByte_FLB\000"
 5903      74427974 
 5903      655F464C 
 5903      4200
 5904              	.LASF36:
 5905 11fe 52656C61 		.ascii	"RelayFirm_0\000"
 5905      79466972 
 5905      6D5F3000 
 5906              	.LASF37:
 5907 120a 52656C61 		.ascii	"RelayFirm_1\000"
 5907      79466972 
 5907      6D5F3100 
 5908              	.LASF38:
 5909 1216 52656C61 		.ascii	"RelayFirm_2\000"
ARM GAS  C:\Users\MARTHN~1\AppData\Local\Temp\cc63NoI7.s 			page 139


 5909      79466972 
 5909      6D5F3200 
 5910              	.LASF12:
 5911 1222 75696E74 		.ascii	"uint16\000"
 5911      313600
 5912              	.LASF52:
 5913 1229 4C45445F 		.ascii	"LED_14_B\000"
 5913      31345F42 
 5913      00
 5914              	.LASF51:
 5915 1232 4C45445F 		.ascii	"LED_14_G\000"
 5915      31345F47 
 5915      00
 5916              	.LASF50:
 5917 123b 4C45445F 		.ascii	"LED_14_R\000"
 5917      31345F52 
 5917      00
 5918              	.LASF278:
 5919 1244 55415254 		.ascii	"UART_SIREN\000"
 5919      5F534952 
 5919      454E00
 5920              	.LASF92:
 5921 124f 42757A7A 		.ascii	"Buzzer_H\000"
 5921      65725F48 
 5921      00
 5922              		.ident	"GCC: (GNU Tools for ARM Embedded Processors) 5.4.1 20160609 (release) [ARM/embedded-5-bran
