ARM GAS  C:\Users\MARTHN~1\AppData\Local\Temp\cc2F0sRX.s 			page 1


   1              		.syntax unified
   2              		.cpu cortex-m3
   3              		.fpu softvfp
   4              		.eabi_attribute 20, 1
   5              		.eabi_attribute 21, 1
   6              		.eabi_attribute 23, 3
   7              		.eabi_attribute 24, 1
   8              		.eabi_attribute 25, 1
   9              		.eabi_attribute 26, 1
  10              		.eabi_attribute 30, 6
  11              		.eabi_attribute 34, 1
  12              		.eabi_attribute 18, 4
  13              		.thumb
  14              		.syntax unified
  15              		.file	"RelayTest_Complete.c"
  16              		.text
  17              	.Ltext0:
  18              		.cfi_sections	.debug_frame
  19              		.comm	Test,3,4
  20              		.bss
  21              		.align	2
  22              	rxPacket_Relay:
  23 0000 00000000 		.space	15
  23      00000000 
  23      00000000 
  23      000000
  24 000f 00       		.align	2
  25              	pRxPacket_Relay:
  26 0010 00000000 		.space	4
  27              		.align	2
  28              	rxPacket_RelaySiren:
  29 0014 00000000 		.space	15
  29      00000000 
  29      00000000 
  29      000000
  30 0023 00       		.align	2
  31              	pRxPacket_RelaySiren:
  32 0024 00000000 		.space	4
  33              		.align	2
  34              	txPacket_RelaySiren:
  35 0028 00000000 		.space	80
  35      00000000 
  35      00000000 
  35      00000000 
  35      00000000 
  36              		.align	2
  37              	pTxPacket_RelaySiren:
  38 0078 00000000 		.space	4
  39              		.align	2
  40              	txPacket_H:
  41 007c 00000000 		.space	5
  41      00
  42 0081 000000   		.align	2
  43              	pTxPacket_H:
  44 0084 00000000 		.space	4
  45              		.align	2
  46              	rxPacket_H:
ARM GAS  C:\Users\MARTHN~1\AppData\Local\Temp\cc2F0sRX.s 			page 2


  47 0088 00000000 		.space	5
  47      00
  48 008d 000000   		.align	2
  49              	pRxPacket_H:
  50 0090 00000000 		.space	4
  51              		.align	2
  52              	txPacket_Quad:
  53 0094 00000000 		.space	111
  53      00000000 
  53      00000000 
  53      00000000 
  53      00000000 
  54 0103 00       		.align	2
  55              	pTxPacket_Quad:
  56 0104 00000000 		.space	4
  57              		.align	1
  58              	RTest_Complete_20ms_isr_count:
  59 0108 0000     		.space	2
  60              		.align	1
  61              	RTest_Complete_20ms_isr_EN:
  62 010a 0000     		.space	2
  63              	PB_NextAction_Pressed:
  64 010c 00       		.space	1
  65              	PB_NextAction_Released:
  66 010d 00       		.space	1
  67              		.data
  68              		.align	2
  69              		.type	RTest_Complete_TimeoutCount, %object
  70              		.size	RTest_Complete_TimeoutCount, 28
  71              	RTest_Complete_TimeoutCount:
  72 0000 3200     		.short	50
  73 0002 F401     		.short	500
  74 0004 F401     		.short	500
  75 0006 6400     		.short	100
  76 0008 6400     		.short	100
  77 000a 3200     		.short	50
  78 000c 6400     		.short	100
  79 000e 3200     		.short	50
  80 0010 3200     		.short	50
  81 0012 3200     		.short	50
  82 0014 3200     		.short	50
  83 0016 3200     		.short	50
  84 0018 3200     		.short	50
  85 001a 3200     		.short	50
  86              		.bss
  87 010e 0000     		.align	2
  88              	RTest_CompleteStatus:
  89 0110 00000000 		.space	14
  89      00000000 
  89      00000000 
  89      0000
  90              		.section	.text.RelayTest_Complete,"ax",%progbits
  91              		.align	2
  92              		.global	RelayTest_Complete
  93              		.thumb
  94              		.thumb_func
  95              		.type	RelayTest_Complete, %function
ARM GAS  C:\Users\MARTHN~1\AppData\Local\Temp\cc2F0sRX.s 			page 3


  96              	RelayTest_Complete:
  97              	.LFB63:
  98              		.file 1 "RelayTest_Complete.c"
   1:RelayTest_Complete.c **** /* ========================================
   2:RelayTest_Complete.c ****  *
   3:RelayTest_Complete.c ****  * Copyright YOUR COMPANY, THE YEAR
   4:RelayTest_Complete.c ****  * All Rights Reserved
   5:RelayTest_Complete.c ****  * UNPUBLISHED, LICENSED SOFTWARE.
   6:RelayTest_Complete.c ****  *
   7:RelayTest_Complete.c ****  * CONFIDENTIAL AND PROPRIETARY INFORMATION
   8:RelayTest_Complete.c ****  * WHICH IS THE PROPERTY OF your company.
   9:RelayTest_Complete.c ****  *
  10:RelayTest_Complete.c ****  * ========================================
  11:RelayTest_Complete.c **** */
  12:RelayTest_Complete.c **** 
  13:RelayTest_Complete.c **** #include <project.h>
  14:RelayTest_Complete.c **** #include "CommonVariables.h"
  15:RelayTest_Complete.c **** #include "RelayTest.h"
  16:RelayTest_Complete.c **** #include "SirenTest.h"
  17:RelayTest_Complete.c **** #include "UART_115200_Functions.h"
  18:RelayTest_Complete.c **** #include "UART_230400_Functions.h"
  19:RelayTest_Complete.c **** #include "UART_460800_Functions.h"
  20:RelayTest_Complete.c **** #include "CD4051BPW_Driver.h"
  21:RelayTest_Complete.c **** 
  22:RelayTest_Complete.c **** //#define VOLTAGE_SYSTEM      120             // (Voltage * 10)
  23:RelayTest_Complete.c **** #define VOLTAGE_SYSTEM      138             // (Voltage * 10)
  24:RelayTest_Complete.c **** 
  25:RelayTest_Complete.c **** //#define TOLERANCE_VOLTAGE   5  
  26:RelayTest_Complete.c **** #define TOLERANCE_VOLTAGE   10  
  27:RelayTest_Complete.c **** 
  28:RelayTest_Complete.c **** //#define CURRENT_LOAD        9              // (ohms)
  29:RelayTest_Complete.c **** #define CURRENT_LOAD        10              // (ohms)
  30:RelayTest_Complete.c **** 
  31:RelayTest_Complete.c **** #define TOLERANCE_CURRENT   2 
  32:RelayTest_Complete.c **** #define CONFIRM_TIME        100            // How many msec to show pass/fail for each step
  33:RelayTest_Complete.c **** 
  34:RelayTest_Complete.c **** #define DEBOUNCE_COUNT      2           // (5 * 20msec)
  35:RelayTest_Complete.c **** 
  36:RelayTest_Complete.c **** static RxPacket_RelaySiren rxPacket_Relay;          // Inputs - 'D' relay to controller
  37:RelayTest_Complete.c **** static RxPacket_RelaySiren * pRxPacket_Relay;       // UART_SIREN
  38:RelayTest_Complete.c **** static RxPacket_RelaySiren rxPacket_RelaySiren;     // *** these are redundant 'D' packets 
  39:RelayTest_Complete.c **** static RxPacket_RelaySiren * pRxPacket_RelaySiren;  // OVERLOAD
  40:RelayTest_Complete.c **** 
  41:RelayTest_Complete.c **** static TxPacket_RelaySiren txPacket_RelaySiren;         // SetRelayOutputs - 'I' (also 3,S,P) contr
  42:RelayTest_Complete.c **** static TxPacket_RelaySiren * pTxPacket_RelaySiren;      // 
  43:RelayTest_Complete.c **** 
  44:RelayTest_Complete.c **** //static TxPacket_Relay txPacket_Relay;            
  45:RelayTest_Complete.c **** //static TxPacket_Relay * pTxPacket_Relay;
  46:RelayTest_Complete.c **** 
  47:RelayTest_Complete.c **** //static RxPacket_Siren rxPacket_Siren;             // 'S' relay to siren
  48:RelayTest_Complete.c **** //static RxPacket_Siren * pRxPacket_Siren;  
  49:RelayTest_Complete.c **** 
  50:RelayTest_Complete.c **** static Packet_H txPacket_H;          //     Packet 'H' Tx
  51:RelayTest_Complete.c **** static Packet_H * pTxPacket_H;      //
  52:RelayTest_Complete.c **** 
  53:RelayTest_Complete.c **** static Packet_H rxPacket_H;          //     Packet 'H'  Rx
  54:RelayTest_Complete.c **** static Packet_H * pRxPacket_H;      //
ARM GAS  C:\Users\MARTHN~1\AppData\Local\Temp\cc2F0sRX.s 			page 4


  55:RelayTest_Complete.c **** 
  56:RelayTest_Complete.c **** static RxPacket_Quad txPacket_Quad;          //*** 
  57:RelayTest_Complete.c **** static RxPacket_Quad * pTxPacket_Quad;      //***
  58:RelayTest_Complete.c **** //RxPacket_Quad * getRxPacket_Quad(void);
  59:RelayTest_Complete.c **** 
  60:RelayTest_Complete.c **** //static RxPacket_RelaySiren rxPacket_Relay;          //     Packet 'D'
  61:RelayTest_Complete.c **** //static RxPacket_RelaySiren * pRxPacket_Relay;      //
  62:RelayTest_Complete.c **** 
  63:RelayTest_Complete.c **** //------------GLOABAL variables--------------------
  64:RelayTest_Complete.c **** 
  65:RelayTest_Complete.c **** static uint16 RTest_Complete_20ms_isr_count = 0;
  66:RelayTest_Complete.c **** static uint16 RTest_Complete_20ms_isr_EN = 0;
  67:RelayTest_Complete.c **** 
  68:RelayTest_Complete.c **** static uint8 PB_NextAction_Pressed = 0;
  69:RelayTest_Complete.c **** static uint8 PB_NextAction_Released = 0;
  70:RelayTest_Complete.c **** 
  71:RelayTest_Complete.c **** void StartTimeout(void);
  72:RelayTest_Complete.c **** void StopTimeout(void);
  73:RelayTest_Complete.c **** 
  74:RelayTest_Complete.c **** enum DATA_TYPE_460800
  75:RelayTest_Complete.c **** { 
  76:RelayTest_Complete.c ****     CTEST_AUDIO,        // This is for both cont and relay tests
  77:RelayTest_Complete.c ****     CTEST_RTEST_QUAD,   // CTest/RTest - quad normal - (controller to relay, relay to quad)
  78:RelayTest_Complete.c **** //    CTEST_A,            //*** needs to  (*** not used - only need to look for 'L' packet)
  79:RelayTest_Complete.c **** //    QTEST_QUAD          // (*** not used - Quad-Controller packets - type 'C')
  80:RelayTest_Complete.c **** };
  81:RelayTest_Complete.c **** 
  82:RelayTest_Complete.c **** enum MUX_460800_CHANNEL
  83:RelayTest_Complete.c **** { 
  84:RelayTest_Complete.c ****     CTEST_QUAD,       
  85:RelayTest_Complete.c ****     CTEST_AUDIOSTREAM,
  86:RelayTest_Complete.c ****     RTEST_QUAD_1,    
  87:RelayTest_Complete.c ****     RTEST_QUAD_2,
  88:RelayTest_Complete.c ****     RTEST_QUAD_3,
  89:RelayTest_Complete.c ****     RTEST_QUAD_4,
  90:RelayTest_Complete.c ****     RTEST_QUAD_5,
  91:RelayTest_Complete.c ****     RTEST_QUAD_6,
  92:RelayTest_Complete.c ****     RTEST_QUAD_7,
  93:RelayTest_Complete.c ****     RTEST_QUAD_8            
  94:RelayTest_Complete.c **** };
  95:RelayTest_Complete.c **** 
  96:RelayTest_Complete.c **** enum DEMUX_460800_CHANNEL
  97:RelayTest_Complete.c **** { 
  98:RelayTest_Complete.c ****     CTEST_OBDII_TX,     
  99:RelayTest_Complete.c ****     RTEST_QUAD_TX,        
 100:RelayTest_Complete.c ****     STEST_AUDIO_TX,
 101:RelayTest_Complete.c **** };
 102:RelayTest_Complete.c **** 
 103:RelayTest_Complete.c **** enum MUX_DEMUX_230400_CHANNEL              
 104:RelayTest_Complete.c **** { 
 105:RelayTest_Complete.c ****     CTEST_RELAY, 
 106:RelayTest_Complete.c ****     RTEST_CONT,
 107:RelayTest_Complete.c ****     RTEST_SIREN,
 108:RelayTest_Complete.c ****     STEST_RELAY            
 109:RelayTest_Complete.c **** };
 110:RelayTest_Complete.c **** 
 111:RelayTest_Complete.c **** enum DATATYPE_115200         
ARM GAS  C:\Users\MARTHN~1\AppData\Local\Temp\cc2F0sRX.s 			page 5


 112:RelayTest_Complete.c **** { 
 113:RelayTest_Complete.c ****     RTEST_DLINK
 114:RelayTest_Complete.c **** };
 115:RelayTest_Complete.c **** enum MUX_115200_CHANNEL      
 116:RelayTest_Complete.c **** { 
 117:RelayTest_Complete.c ****     RTEST_DLINK1,    
 118:RelayTest_Complete.c ****     RTEST_DLINK2,    
 119:RelayTest_Complete.c ****     CTEST_USB_DEBUG,
 120:RelayTest_Complete.c ****     DIAG_UART_RX        
 121:RelayTest_Complete.c **** };
 122:RelayTest_Complete.c **** 
 123:RelayTest_Complete.c **** // --------------Test steps---------------
 124:RelayTest_Complete.c **** #define NUMBER_TEST_STEPS   14
 125:RelayTest_Complete.c **** static uint16 RTest_Complete_TimeoutCount[NUMBER_TEST_STEPS] = {50,500,500,100,100,50,100,50,50,50,
 126:RelayTest_Complete.c ****                                     
 127:RelayTest_Complete.c **** static uint8 RTest_CompleteStatus[NUMBER_TEST_STEPS];
 128:RelayTest_Complete.c **** 
 129:RelayTest_Complete.c **** enum TestStep               // *** (relay firmware needs the 'H' packet payload count updated)
 130:RelayTest_Complete.c **** { 
 131:RelayTest_Complete.c ****     /* Relay Test Steps*/
 132:RelayTest_Complete.c ****     INITIALIZE_TEST,    // COMPLETE
 133:RelayTest_Complete.c ****     TEST_OUTPUTS,       // COMPLETE - same
 134:RelayTest_Complete.c ****     DATALINK,           // COMPLETE - same
 135:RelayTest_Complete.c ****     QUAD_PORTS,         // COMPLETE - same
 136:RelayTest_Complete.c ****     INPUTS,             // COMPLETE - same
 137:RelayTest_Complete.c ****     VBATT,              // COMPLETE - same
 138:RelayTest_Complete.c ****     BLOCK_CURRENTS,     // COMPLETE - same
 139:RelayTest_Complete.c ****     
 140:RelayTest_Complete.c ****     /* Siren Test Stuff*/
 141:RelayTest_Complete.c ****     //UART_TX,            // U ('D' packet - firmware versions are the only thing that is unread)
 142:RelayTest_Complete.c ****     AMP1,               // COMPLETE (low volume)
 143:RelayTest_Complete.c ****     AMP2,               // COMPLETE (low volume)
 144:RelayTest_Complete.c ****     RRB,                // COMPLETE (hi volume - adjustable)
 145:RelayTest_Complete.c ****     MIC,                // COMPLETE (hi volume)
 146:RelayTest_Complete.c ****     FLASH,              // COMPLETE (kind of loud/weak)
 147:RelayTest_Complete.c ****     GPS,                // ***Need to add this in still 
 148:RelayTest_Complete.c ****     PASS                // COMPLETE
 149:RelayTest_Complete.c **** };
 150:RelayTest_Complete.c **** 
 151:RelayTest_Complete.c **** //----------------------------------------
 152:RelayTest_Complete.c **** // Main state machine for F1-Relay Test
 153:RelayTest_Complete.c **** //----------------------------------------
 154:RelayTest_Complete.c **** uint8 RelayTest_Complete(void)
 155:RelayTest_Complete.c **** {
  99              		.loc 1 155 0
 100              		.cfi_startproc
 101              		@ args = 0, pretend = 0, frame = 8
 102              		@ frame_needed = 1, uses_anonymous_args = 0
 103 0000 80B5     		push	{r7, lr}
 104              		.cfi_def_cfa_offset 8
 105              		.cfi_offset 7, -8
 106              		.cfi_offset 14, -4
 107 0002 82B0     		sub	sp, sp, #8
 108              		.cfi_def_cfa_offset 16
 109 0004 00AF     		add	r7, sp, #0
 110              		.cfi_def_cfa_register 7
 156:RelayTest_Complete.c ****     
ARM GAS  C:\Users\MARTHN~1\AppData\Local\Temp\cc2F0sRX.s 			page 6


 157:RelayTest_Complete.c ****     switch(CurrentTest.TestStep)
 111              		.loc 1 157 0
 112 0006 A84B     		ldr	r3, .L63
 113 0008 5B78     		ldrb	r3, [r3, #1]	@ zero_extendqisi2
 114 000a 0D2B     		cmp	r3, #13
 115 000c 00F2F082 		bhi	.L2
 116 0010 01A2     		adr	r2, .L4
 117 0012 52F823F0 		ldr	pc, [r2, r3, lsl #2]
 118 0016 00BF     		.p2align 2
 119              	.L4:
 120 0018 51000000 		.word	.L3+1
 121 001c 43010000 		.word	.L5+1
 122 0020 89010000 		.word	.L6+1
 123 0024 CF010000 		.word	.L7+1
 124 0028 1B020000 		.word	.L8+1
 125 002c 61020000 		.word	.L9+1
 126 0030 B5020000 		.word	.L10+1
 127 0034 0D030000 		.word	.L11+1
 128 0038 7F030000 		.word	.L12+1
 129 003c F1030000 		.word	.L13+1
 130 0040 6B040000 		.word	.L14+1
 131 0044 B1040000 		.word	.L15+1
 132 0048 37050000 		.word	.L16+1
 133 004c 89050000 		.word	.L17+1
 134              		.p2align 1
 135              	.L3:
 158:RelayTest_Complete.c ****     {   
 159:RelayTest_Complete.c ****                
 160:RelayTest_Complete.c ****         case INITIALIZE_TEST:            
 161:RelayTest_Complete.c ****         
 162:RelayTest_Complete.c ****             STest_SIREN_EN_Write(1);  // Less muted - for Mic test
 136              		.loc 1 162 0
 137 0050 0120     		movs	r0, #1
 138 0052 FFF7FEFF 		bl	STest_SIREN_EN_Write
 163:RelayTest_Complete.c ****             CyDelay(250);
 139              		.loc 1 163 0
 140 0056 FA20     		movs	r0, #250
 141 0058 FFF7FEFF 		bl	CyDelay
 142              	.LBB2:
 164:RelayTest_Complete.c ****                 
 165:RelayTest_Complete.c ****             for (uint8 i=0;i<NUMBER_TEST_STEPS;i++)                 // Reset Status of aall test st
 143              		.loc 1 165 0
 144 005c 0023     		movs	r3, #0
 145 005e FB71     		strb	r3, [r7, #7]
 146 0060 06E0     		b	.L18
 147              	.L19:
 166:RelayTest_Complete.c ****                 RTest_CompleteStatus[i] = '_';
 148              		.loc 1 166 0 discriminator 3
 149 0062 FB79     		ldrb	r3, [r7, #7]	@ zero_extendqisi2
 150 0064 914A     		ldr	r2, .L63+4
 151 0066 5F21     		movs	r1, #95
 152 0068 D154     		strb	r1, [r2, r3]
 165:RelayTest_Complete.c ****                 RTest_CompleteStatus[i] = '_';
 153              		.loc 1 165 0 discriminator 3
 154 006a FB79     		ldrb	r3, [r7, #7]	@ zero_extendqisi2
 155 006c 0133     		adds	r3, r3, #1
 156 006e FB71     		strb	r3, [r7, #7]
ARM GAS  C:\Users\MARTHN~1\AppData\Local\Temp\cc2F0sRX.s 			page 7


 157              	.L18:
 165:RelayTest_Complete.c ****                 RTest_CompleteStatus[i] = '_';
 158              		.loc 1 165 0 is_stmt 0 discriminator 1
 159 0070 FB79     		ldrb	r3, [r7, #7]	@ zero_extendqisi2
 160 0072 0D2B     		cmp	r3, #13
 161 0074 F5D9     		bls	.L19
 162              	.LBE2:
 167:RelayTest_Complete.c ****                 
 168:RelayTest_Complete.c ****             RTest_CompleteStatus[CurrentTest.TestStep] = 'I';
 163              		.loc 1 168 0 is_stmt 1
 164 0076 8C4B     		ldr	r3, .L63
 165 0078 5B78     		ldrb	r3, [r3, #1]	@ zero_extendqisi2
 166 007a 1A46     		mov	r2, r3
 167 007c 8B4B     		ldr	r3, .L63+4
 168 007e 4921     		movs	r1, #73
 169 0080 9954     		strb	r1, [r3, r2]
 169:RelayTest_Complete.c ****             CurrentTest.Status = 'I'; 
 170              		.loc 1 169 0
 171 0082 894B     		ldr	r3, .L63
 172 0084 4922     		movs	r2, #73
 173 0086 9A70     		strb	r2, [r3, #2]
 170:RelayTest_Complete.c **** 
 171:RelayTest_Complete.c ****             pTxPacket_RelaySiren = getTxPacket_RelaySiren();        // Tx - Initialize TX_RelaySire
 174              		.loc 1 171 0
 175 0088 FFF7FEFF 		bl	getTxPacket_RelaySiren
 176 008c 0246     		mov	r2, r0
 177 008e 884B     		ldr	r3, .L63+8
 178 0090 1A60     		str	r2, [r3]
 179              	.LBB3:
 172:RelayTest_Complete.c ****             for(uint8 i;i<79;i++)
 180              		.loc 1 172 0
 181 0092 07E0     		b	.L20
 182              	.L21:
 173:RelayTest_Complete.c ****                 pTxPacket_RelaySiren->bytes[i] = 0;
 183              		.loc 1 173 0 discriminator 2
 184 0094 864B     		ldr	r3, .L63+8
 185 0096 1A68     		ldr	r2, [r3]
 186 0098 BB79     		ldrb	r3, [r7, #6]	@ zero_extendqisi2
 187 009a 0021     		movs	r1, #0
 188 009c D154     		strb	r1, [r2, r3]
 172:RelayTest_Complete.c ****             for(uint8 i;i<79;i++)
 189              		.loc 1 172 0 discriminator 2
 190 009e BB79     		ldrb	r3, [r7, #6]	@ zero_extendqisi2
 191 00a0 0133     		adds	r3, r3, #1
 192 00a2 BB71     		strb	r3, [r7, #6]
 193              	.L20:
 172:RelayTest_Complete.c ****             for(uint8 i;i<79;i++)
 194              		.loc 1 172 0 is_stmt 0 discriminator 1
 195 00a4 BB79     		ldrb	r3, [r7, #6]	@ zero_extendqisi2
 196 00a6 4E2B     		cmp	r3, #78
 197 00a8 F4D9     		bls	.L21
 198              	.LBE3:
 174:RelayTest_Complete.c **** 
 175:RelayTest_Complete.c ****             pTxPacket_RelaySiren->Payload.StartByte_FLB = '~';
 199              		.loc 1 175 0 is_stmt 1
 200 00aa 814B     		ldr	r3, .L63+8
 201 00ac 1B68     		ldr	r3, [r3]
ARM GAS  C:\Users\MARTHN~1\AppData\Local\Temp\cc2F0sRX.s 			page 8


 202 00ae 7E22     		movs	r2, #126
 203 00b0 83F83520 		strb	r2, [r3, #53]
 176:RelayTest_Complete.c ****             pTxPacket_RelaySiren->Payload.FLB_PacketType = '3';
 204              		.loc 1 176 0
 205 00b4 7E4B     		ldr	r3, .L63+8
 206 00b6 1B68     		ldr	r3, [r3]
 207 00b8 3322     		movs	r2, #51
 208 00ba 83F83620 		strb	r2, [r3, #54]
 177:RelayTest_Complete.c ****             pTxPacket_RelaySiren->Payload.StopByte1_FLB = 0x0D;
 209              		.loc 1 177 0
 210 00be 7C4B     		ldr	r3, .L63+8
 211 00c0 1B68     		ldr	r3, [r3]
 212 00c2 0D22     		movs	r2, #13
 213 00c4 83F83A20 		strb	r2, [r3, #58]
 178:RelayTest_Complete.c ****             pTxPacket_RelaySiren->Payload.StopByte2_FLB = 0x0A;    
 214              		.loc 1 178 0
 215 00c8 794B     		ldr	r3, .L63+8
 216 00ca 1B68     		ldr	r3, [r3]
 217 00cc 0A22     		movs	r2, #10
 218 00ce 83F83B20 		strb	r2, [r3, #59]
 179:RelayTest_Complete.c ****             pTxPacket_RelaySiren->Payload.StartByte1_Siren = '~';    
 219              		.loc 1 179 0
 220 00d2 774B     		ldr	r3, .L63+8
 221 00d4 1B68     		ldr	r3, [r3]
 222 00d6 7E22     		movs	r2, #126
 223 00d8 83F83C20 		strb	r2, [r3, #60]
 180:RelayTest_Complete.c ****             pTxPacket_RelaySiren->Payload.Siren_PacketType = 'S';
 224              		.loc 1 180 0
 225 00dc 744B     		ldr	r3, .L63+8
 226 00de 1B68     		ldr	r3, [r3]
 227 00e0 5322     		movs	r2, #83
 228 00e2 83F83D20 		strb	r2, [r3, #61]
 181:RelayTest_Complete.c ****             pTxPacket_RelaySiren->Payload.StopByte1_Siren = 0x0D;
 229              		.loc 1 181 0
 230 00e6 724B     		ldr	r3, .L63+8
 231 00e8 1B68     		ldr	r3, [r3]
 232 00ea 0D22     		movs	r2, #13
 233 00ec 83F84120 		strb	r2, [r3, #65]
 182:RelayTest_Complete.c ****             pTxPacket_RelaySiren->Payload.StopByte2_Siren = 0x0A;                       
 234              		.loc 1 182 0
 235 00f0 6F4B     		ldr	r3, .L63+8
 236 00f2 1B68     		ldr	r3, [r3]
 237 00f4 0A22     		movs	r2, #10
 238 00f6 83F84220 		strb	r2, [r3, #66]
 183:RelayTest_Complete.c ****             pTxPacket_RelaySiren->Payload.StartByte1_Relay = '~';
 239              		.loc 1 183 0
 240 00fa 6D4B     		ldr	r3, .L63+8
 241 00fc 1B68     		ldr	r3, [r3]
 242 00fe 7E22     		movs	r2, #126
 243 0100 83F84320 		strb	r2, [r3, #67]
 184:RelayTest_Complete.c ****             pTxPacket_RelaySiren->Payload.Relay_PacketType = 'P';
 244              		.loc 1 184 0
 245 0104 6A4B     		ldr	r3, .L63+8
 246 0106 1B68     		ldr	r3, [r3]
 247 0108 5022     		movs	r2, #80
 248 010a 83F84420 		strb	r2, [r3, #68]
 185:RelayTest_Complete.c ****             pTxPacket_RelaySiren->Payload.StopByte1_Relay = 0x0D;
ARM GAS  C:\Users\MARTHN~1\AppData\Local\Temp\cc2F0sRX.s 			page 9


 249              		.loc 1 185 0
 250 010e 684B     		ldr	r3, .L63+8
 251 0110 1B68     		ldr	r3, [r3]
 252 0112 0D22     		movs	r2, #13
 253 0114 83F84D20 		strb	r2, [r3, #77]
 186:RelayTest_Complete.c ****             pTxPacket_RelaySiren->Payload.StopByte2_Relay = 0x0A;                    
 254              		.loc 1 186 0
 255 0118 654B     		ldr	r3, .L63+8
 256 011a 1B68     		ldr	r3, [r3]
 257 011c 0A22     		movs	r2, #10
 258 011e 83F84E20 		strb	r2, [r3, #78]
 187:RelayTest_Complete.c ****  
 188:RelayTest_Complete.c ****             // Deactivate each input
 189:RelayTest_Complete.c ****             // RTest_HSide1_Write(0);
 190:RelayTest_Complete.c ****             // RTest_HSide2_Write(0);
 191:RelayTest_Complete.c ****             // RTest_HSide3_Write(0);
 192:RelayTest_Complete.c ****             // RTest_HSide4_Write(0);
 193:RelayTest_Complete.c ****             // RTest_HSide5_Write(0);
 194:RelayTest_Complete.c ****             // RTest_HSide6_Write(0);
 195:RelayTest_Complete.c ****             // RTest_HSide7_Write(0);
 196:RelayTest_Complete.c ****             // RTest_HSide8_Write(0);
 197:RelayTest_Complete.c ****                 
 198:RelayTest_Complete.c ****             RTest_CompleteStatus[CurrentTest.TestStep] = 'P';
 259              		.loc 1 198 0
 260 0122 614B     		ldr	r3, .L63
 261 0124 5B78     		ldrb	r3, [r3, #1]	@ zero_extendqisi2
 262 0126 1A46     		mov	r2, r3
 263 0128 604B     		ldr	r3, .L63+4
 264 012a 5021     		movs	r1, #80
 265 012c 9954     		strb	r1, [r3, r2]
 199:RelayTest_Complete.c ****             CurrentTest.Status = 'P'; 
 266              		.loc 1 199 0
 267 012e 5E4B     		ldr	r3, .L63
 268 0130 5022     		movs	r2, #80
 269 0132 9A70     		strb	r2, [r3, #2]
 200:RelayTest_Complete.c ****             
 201:RelayTest_Complete.c **** //            STest_SIREN_EN_Write(0);
 202:RelayTest_Complete.c **** //            CyDelay(1000);
 203:RelayTest_Complete.c **** //            STest_SIREN_EN_Write(1);
 204:RelayTest_Complete.c **** //            CyDelay(1000);
 205:RelayTest_Complete.c ****                     
 206:RelayTest_Complete.c ****             CyDelay(CONFIRM_TIME);
 270              		.loc 1 206 0
 271 0134 6420     		movs	r0, #100
 272 0136 FFF7FEFF 		bl	CyDelay
 207:RelayTest_Complete.c ****             
 208:RelayTest_Complete.c ****             //CurrentTest.TestStep = INITIALIZE_TEST;
 209:RelayTest_Complete.c ****             
 210:RelayTest_Complete.c ****             CurrentTest.TestStep = TEST_OUTPUTS;
 273              		.loc 1 210 0
 274 013a 5B4B     		ldr	r3, .L63
 275 013c 0122     		movs	r2, #1
 276 013e 5A70     		strb	r2, [r3, #1]
 211:RelayTest_Complete.c ****             
 212:RelayTest_Complete.c ****             //CurrentTest.TestStep = DATALINK;
 213:RelayTest_Complete.c ****             //CurrentTest.TestStep = QUAD_PORTS;
 214:RelayTest_Complete.c ****             //CurrentTest.TestStep = UART_SIREN;
ARM GAS  C:\Users\MARTHN~1\AppData\Local\Temp\cc2F0sRX.s 			page 10


 215:RelayTest_Complete.c ****             //CurrentTest.TestStep = INPUTS;
 216:RelayTest_Complete.c ****             //CurrentTest.TestStep = VBATT; 
 217:RelayTest_Complete.c ****             //CurrentTest.TestStep = BLOCK_CURRENTS; 
 218:RelayTest_Complete.c ****             //CurrentTest.TestStep = GPS; 
 219:RelayTest_Complete.c ****             
 220:RelayTest_Complete.c ****             //CurrentTest.TestStep = AMP1;
 221:RelayTest_Complete.c ****             //CurrentTest.TestStep = RRB;
 222:RelayTest_Complete.c ****             //CurrentTest.TestStep = MIC;
 223:RelayTest_Complete.c ****             //CurrentTest.TestStep = FLASH;
 224:RelayTest_Complete.c ****             //CurrentTest.TestStep = OVERLOAD;
 225:RelayTest_Complete.c ****                    
 226:RelayTest_Complete.c ****         break;      
 277              		.loc 1 226 0
 278 0140 56E2     		b	.L2
 279              	.L5:
 227:RelayTest_Complete.c ****               
 228:RelayTest_Complete.c ****         case TEST_OUTPUTS:  
 229:RelayTest_Complete.c ****                 
 230:RelayTest_Complete.c ****             RTest_Complete_StartAutomatedStep(); 
 280              		.loc 1 230 0
 281 0142 FFF7FEFF 		bl	RTest_Complete_StartAutomatedStep
 231:RelayTest_Complete.c ****             //SetRelayOutputs(1);
 232:RelayTest_Complete.c ****             //While(1);
 233:RelayTest_Complete.c ****             while( (!RTest_Test_Outputs()) && (RTest_CompleteStatus[CurrentTest.TestStep] != 'F') )
 282              		.loc 1 233 0
 283 0146 00BF     		nop
 284              	.L23:
 285              		.loc 1 233 0 is_stmt 0 discriminator 2
 286 0148 FFF7FEFF 		bl	RTest_Test_Outputs
 287 014c 0346     		mov	r3, r0
 288 014e 002B     		cmp	r3, #0
 289 0150 06D1     		bne	.L22
 290              		.loc 1 233 0 discriminator 1
 291 0152 554B     		ldr	r3, .L63
 292 0154 5B78     		ldrb	r3, [r3, #1]	@ zero_extendqisi2
 293 0156 1A46     		mov	r2, r3
 294 0158 544B     		ldr	r3, .L63+4
 295 015a 9B5C     		ldrb	r3, [r3, r2]	@ zero_extendqisi2
 296 015c 462B     		cmp	r3, #70
 297 015e F3D1     		bne	.L23
 298              	.L22:
 234:RelayTest_Complete.c ****             {}   
 235:RelayTest_Complete.c ****             
 236:RelayTest_Complete.c ****             RTest_Complete_StopAutomatedStep();
 299              		.loc 1 236 0 is_stmt 1
 300 0160 FFF7FEFF 		bl	RTest_Complete_StopAutomatedStep
 237:RelayTest_Complete.c ****             
 238:RelayTest_Complete.c ****             CyDelay(CONFIRM_TIME);
 301              		.loc 1 238 0
 302 0164 6420     		movs	r0, #100
 303 0166 FFF7FEFF 		bl	CyDelay
 239:RelayTest_Complete.c ****             
 240:RelayTest_Complete.c ****             if(RTest_CompleteStatus[CurrentTest.TestStep] == 'F')
 304              		.loc 1 240 0
 305 016a 4F4B     		ldr	r3, .L63
 306 016c 5B78     		ldrb	r3, [r3, #1]	@ zero_extendqisi2
 307 016e 1A46     		mov	r2, r3
ARM GAS  C:\Users\MARTHN~1\AppData\Local\Temp\cc2F0sRX.s 			page 11


 308 0170 4E4B     		ldr	r3, .L63+4
 309 0172 9B5C     		ldrb	r3, [r3, r2]	@ zero_extendqisi2
 310 0174 462B     		cmp	r3, #70
 311 0176 03D1     		bne	.L24
 241:RelayTest_Complete.c ****             {
 242:RelayTest_Complete.c ****                 CurrentTest.TestStep = PASS;
 312              		.loc 1 242 0
 313 0178 4B4B     		ldr	r3, .L63
 314 017a 0D22     		movs	r2, #13
 315 017c 5A70     		strb	r2, [r3, #1]
 243:RelayTest_Complete.c ****             }
 244:RelayTest_Complete.c ****             else
 245:RelayTest_Complete.c ****             {
 246:RelayTest_Complete.c ****                 //CurrentTest.TestStep = INITIALIZE_TEST;
 247:RelayTest_Complete.c ****                 //CurrentTest.TestStep = TEST_OUTPUTS;
 248:RelayTest_Complete.c ****                 CurrentTest.TestStep = DATALINK;    
 249:RelayTest_Complete.c ****             }
 250:RelayTest_Complete.c ****             
 251:RelayTest_Complete.c ****         break;        
 316              		.loc 1 251 0
 317 017e 37E2     		b	.L2
 318              	.L24:
 248:RelayTest_Complete.c ****             }
 319              		.loc 1 248 0
 320 0180 494B     		ldr	r3, .L63
 321 0182 0222     		movs	r2, #2
 322 0184 5A70     		strb	r2, [r3, #1]
 323              		.loc 1 251 0
 324 0186 33E2     		b	.L2
 325              	.L6:
 252:RelayTest_Complete.c ****               
 253:RelayTest_Complete.c ****         case DATALINK: 
 254:RelayTest_Complete.c **** 
 255:RelayTest_Complete.c ****             RTest_Complete_StartAutomatedStep();
 326              		.loc 1 255 0
 327 0188 FFF7FEFF 		bl	RTest_Complete_StartAutomatedStep
 256:RelayTest_Complete.c ****             
 257:RelayTest_Complete.c ****             while( (!RTest_Complete_Test_DataLink()) && (RTest_CompleteStatus[CurrentTest.TestStep]
 328              		.loc 1 257 0
 329 018c 00BF     		nop
 330              	.L27:
 331              		.loc 1 257 0 is_stmt 0 discriminator 2
 332 018e FFF7FEFF 		bl	RTest_Complete_Test_DataLink
 333 0192 0346     		mov	r3, r0
 334 0194 002B     		cmp	r3, #0
 335 0196 06D1     		bne	.L26
 336              		.loc 1 257 0 discriminator 1
 337 0198 434B     		ldr	r3, .L63
 338 019a 5B78     		ldrb	r3, [r3, #1]	@ zero_extendqisi2
 339 019c 1A46     		mov	r2, r3
 340 019e 434B     		ldr	r3, .L63+4
 341 01a0 9B5C     		ldrb	r3, [r3, r2]	@ zero_extendqisi2
 342 01a2 462B     		cmp	r3, #70
 343 01a4 F3D1     		bne	.L27
 344              	.L26:
 258:RelayTest_Complete.c ****             {}          
 259:RelayTest_Complete.c ****  
ARM GAS  C:\Users\MARTHN~1\AppData\Local\Temp\cc2F0sRX.s 			page 12


 260:RelayTest_Complete.c ****             RTest_Complete_StopAutomatedStep();
 345              		.loc 1 260 0 is_stmt 1
 346 01a6 FFF7FEFF 		bl	RTest_Complete_StopAutomatedStep
 261:RelayTest_Complete.c ****             
 262:RelayTest_Complete.c ****             CyDelay(CONFIRM_TIME);
 347              		.loc 1 262 0
 348 01aa 6420     		movs	r0, #100
 349 01ac FFF7FEFF 		bl	CyDelay
 263:RelayTest_Complete.c ****             
 264:RelayTest_Complete.c ****             if(RTest_CompleteStatus[CurrentTest.TestStep] == 'F')
 350              		.loc 1 264 0
 351 01b0 3D4B     		ldr	r3, .L63
 352 01b2 5B78     		ldrb	r3, [r3, #1]	@ zero_extendqisi2
 353 01b4 1A46     		mov	r2, r3
 354 01b6 3D4B     		ldr	r3, .L63+4
 355 01b8 9B5C     		ldrb	r3, [r3, r2]	@ zero_extendqisi2
 356 01ba 462B     		cmp	r3, #70
 357 01bc 03D1     		bne	.L28
 265:RelayTest_Complete.c ****             {
 266:RelayTest_Complete.c ****                 CurrentTest.TestStep = PASS;
 358              		.loc 1 266 0
 359 01be 3A4B     		ldr	r3, .L63
 360 01c0 0D22     		movs	r2, #13
 361 01c2 5A70     		strb	r2, [r3, #1]
 267:RelayTest_Complete.c ****             }
 268:RelayTest_Complete.c ****             else
 269:RelayTest_Complete.c ****             {
 270:RelayTest_Complete.c ****                 //CurrentTest.TestStep = INITIALIZE_TEST;
 271:RelayTest_Complete.c ****                 CurrentTest.TestStep = QUAD_PORTS; 
 272:RelayTest_Complete.c ****             }
 273:RelayTest_Complete.c ****             
 274:RelayTest_Complete.c ****         break;  
 362              		.loc 1 274 0
 363 01c4 14E2     		b	.L2
 364              	.L28:
 271:RelayTest_Complete.c ****             }
 365              		.loc 1 271 0
 366 01c6 384B     		ldr	r3, .L63
 367 01c8 0322     		movs	r2, #3
 368 01ca 5A70     		strb	r2, [r3, #1]
 369              		.loc 1 274 0
 370 01cc 10E2     		b	.L2
 371              	.L7:
 275:RelayTest_Complete.c ****             
 276:RelayTest_Complete.c ****         case QUAD_PORTS: 
 277:RelayTest_Complete.c ****                 
 278:RelayTest_Complete.c ****             RTest_Complete_StartAutomatedStep();  
 372              		.loc 1 278 0
 373 01ce FFF7FEFF 		bl	RTest_Complete_StartAutomatedStep
 279:RelayTest_Complete.c ****                 
 280:RelayTest_Complete.c ****             DEMUX_CTRL_460800_Write(RTEST_QUAD_TX);             // Select TX xhannel
 374              		.loc 1 280 0
 375 01d2 0120     		movs	r0, #1
 376 01d4 FFF7FEFF 		bl	DEMUX_CTRL_460800_Write
 281:RelayTest_Complete.c ****                       
 282:RelayTest_Complete.c ****             while( (!RTest_Test_QuadPorts()) && (RTest_CompleteStatus[CurrentTest.TestStep] != 'F')
 377              		.loc 1 282 0
ARM GAS  C:\Users\MARTHN~1\AppData\Local\Temp\cc2F0sRX.s 			page 13


 378 01d8 00BF     		nop
 379              	.L31:
 380              		.loc 1 282 0 is_stmt 0 discriminator 2
 381 01da FFF7FEFF 		bl	RTest_Test_QuadPorts
 382 01de 0346     		mov	r3, r0
 383 01e0 002B     		cmp	r3, #0
 384 01e2 06D1     		bne	.L30
 385              		.loc 1 282 0 discriminator 1
 386 01e4 304B     		ldr	r3, .L63
 387 01e6 5B78     		ldrb	r3, [r3, #1]	@ zero_extendqisi2
 388 01e8 1A46     		mov	r2, r3
 389 01ea 304B     		ldr	r3, .L63+4
 390 01ec 9B5C     		ldrb	r3, [r3, r2]	@ zero_extendqisi2
 391 01ee 462B     		cmp	r3, #70
 392 01f0 F3D1     		bne	.L31
 393              	.L30:
 283:RelayTest_Complete.c ****             {}    
 284:RelayTest_Complete.c ****             
 285:RelayTest_Complete.c ****             RTest_Complete_StopAutomatedStep();
 394              		.loc 1 285 0 is_stmt 1
 395 01f2 FFF7FEFF 		bl	RTest_Complete_StopAutomatedStep
 286:RelayTest_Complete.c ****             
 287:RelayTest_Complete.c ****             CyDelay(CONFIRM_TIME);
 396              		.loc 1 287 0
 397 01f6 6420     		movs	r0, #100
 398 01f8 FFF7FEFF 		bl	CyDelay
 288:RelayTest_Complete.c ****                   
 289:RelayTest_Complete.c ****             if(RTest_CompleteStatus[CurrentTest.TestStep] == 'F')
 399              		.loc 1 289 0
 400 01fc 2A4B     		ldr	r3, .L63
 401 01fe 5B78     		ldrb	r3, [r3, #1]	@ zero_extendqisi2
 402 0200 1A46     		mov	r2, r3
 403 0202 2A4B     		ldr	r3, .L63+4
 404 0204 9B5C     		ldrb	r3, [r3, r2]	@ zero_extendqisi2
 405 0206 462B     		cmp	r3, #70
 406 0208 03D1     		bne	.L32
 290:RelayTest_Complete.c ****             {
 291:RelayTest_Complete.c ****                 CurrentTest.TestStep = PASS;
 407              		.loc 1 291 0
 408 020a 274B     		ldr	r3, .L63
 409 020c 0D22     		movs	r2, #13
 410 020e 5A70     		strb	r2, [r3, #1]
 292:RelayTest_Complete.c ****             }
 293:RelayTest_Complete.c ****             else
 294:RelayTest_Complete.c ****             {
 295:RelayTest_Complete.c ****                 //CurrentTest.TestStep = INITIALIZE_TEST;
 296:RelayTest_Complete.c ****                 CurrentTest.TestStep = INPUTS;   
 297:RelayTest_Complete.c ****             }
 298:RelayTest_Complete.c ****             
 299:RelayTest_Complete.c ****         break;      
 411              		.loc 1 299 0
 412 0210 EEE1     		b	.L2
 413              	.L32:
 296:RelayTest_Complete.c ****             }
 414              		.loc 1 296 0
 415 0212 254B     		ldr	r3, .L63
 416 0214 0422     		movs	r2, #4
ARM GAS  C:\Users\MARTHN~1\AppData\Local\Temp\cc2F0sRX.s 			page 14


 417 0216 5A70     		strb	r2, [r3, #1]
 418              		.loc 1 299 0
 419 0218 EAE1     		b	.L2
 420              	.L8:
 300:RelayTest_Complete.c ****               
 301:RelayTest_Complete.c ****         case INPUTS:          
 302:RelayTest_Complete.c ****                 
 303:RelayTest_Complete.c ****             RTest_Complete_StartAutomatedStep();          
 421              		.loc 1 303 0
 422 021a FFF7FEFF 		bl	RTest_Complete_StartAutomatedStep
 304:RelayTest_Complete.c ****                 
 305:RelayTest_Complete.c ****             while( (!RTest_Test_Inputs()) && (RTest_CompleteStatus[CurrentTest.TestStep] != 'F') )
 423              		.loc 1 305 0
 424 021e 00BF     		nop
 425              	.L35:
 426              		.loc 1 305 0 is_stmt 0 discriminator 2
 427 0220 FFF7FEFF 		bl	RTest_Test_Inputs
 428 0224 0346     		mov	r3, r0
 429 0226 002B     		cmp	r3, #0
 430 0228 06D1     		bne	.L34
 431              		.loc 1 305 0 discriminator 1
 432 022a 1F4B     		ldr	r3, .L63
 433 022c 5B78     		ldrb	r3, [r3, #1]	@ zero_extendqisi2
 434 022e 1A46     		mov	r2, r3
 435 0230 1E4B     		ldr	r3, .L63+4
 436 0232 9B5C     		ldrb	r3, [r3, r2]	@ zero_extendqisi2
 437 0234 462B     		cmp	r3, #70
 438 0236 F3D1     		bne	.L35
 439              	.L34:
 306:RelayTest_Complete.c ****             {}   
 307:RelayTest_Complete.c ****             
 308:RelayTest_Complete.c ****             RTest_Complete_StopAutomatedStep();
 440              		.loc 1 308 0 is_stmt 1
 441 0238 FFF7FEFF 		bl	RTest_Complete_StopAutomatedStep
 309:RelayTest_Complete.c ****             
 310:RelayTest_Complete.c ****             CyDelay(CONFIRM_TIME);
 442              		.loc 1 310 0
 443 023c 6420     		movs	r0, #100
 444 023e FFF7FEFF 		bl	CyDelay
 311:RelayTest_Complete.c ****              
 312:RelayTest_Complete.c ****             if(RTest_CompleteStatus[CurrentTest.TestStep] == 'F')
 445              		.loc 1 312 0
 446 0242 194B     		ldr	r3, .L63
 447 0244 5B78     		ldrb	r3, [r3, #1]	@ zero_extendqisi2
 448 0246 1A46     		mov	r2, r3
 449 0248 184B     		ldr	r3, .L63+4
 450 024a 9B5C     		ldrb	r3, [r3, r2]	@ zero_extendqisi2
 451 024c 462B     		cmp	r3, #70
 452 024e 03D1     		bne	.L36
 313:RelayTest_Complete.c ****             {
 314:RelayTest_Complete.c ****                 CurrentTest.TestStep = PASS;
 453              		.loc 1 314 0
 454 0250 154B     		ldr	r3, .L63
 455 0252 0D22     		movs	r2, #13
 456 0254 5A70     		strb	r2, [r3, #1]
 315:RelayTest_Complete.c ****             }
 316:RelayTest_Complete.c ****             else
ARM GAS  C:\Users\MARTHN~1\AppData\Local\Temp\cc2F0sRX.s 			page 15


 317:RelayTest_Complete.c ****             {
 318:RelayTest_Complete.c ****                 //CurrentTest.TestStep = INITIALIZE_TEST;  
 319:RelayTest_Complete.c ****                 CurrentTest.TestStep = VBATT;  
 320:RelayTest_Complete.c ****             }
 321:RelayTest_Complete.c ****             
 322:RelayTest_Complete.c ****         break;          
 457              		.loc 1 322 0
 458 0256 CBE1     		b	.L2
 459              	.L36:
 319:RelayTest_Complete.c ****             }
 460              		.loc 1 319 0
 461 0258 134B     		ldr	r3, .L63
 462 025a 0522     		movs	r2, #5
 463 025c 5A70     		strb	r2, [r3, #1]
 464              		.loc 1 322 0
 465 025e C7E1     		b	.L2
 466              	.L9:
 323:RelayTest_Complete.c **** 
 324:RelayTest_Complete.c ****         case VBATT:                                     // Tested and working
 325:RelayTest_Complete.c ****                 
 326:RelayTest_Complete.c ****             RTest_Complete_StartAutomatedStep();
 467              		.loc 1 326 0
 468 0260 FFF7FEFF 		bl	RTest_Complete_StartAutomatedStep
 327:RelayTest_Complete.c ****                 
 328:RelayTest_Complete.c ****             while( (!RTest_Test_Vbatt()) && (RTest_CompleteStatus[CurrentTest.TestStep] != 'F') )
 469              		.loc 1 328 0
 470 0264 00BF     		nop
 471              	.L39:
 472              		.loc 1 328 0 is_stmt 0 discriminator 2
 473 0266 FFF7FEFF 		bl	RTest_Test_Vbatt
 474 026a 0346     		mov	r3, r0
 475 026c 002B     		cmp	r3, #0
 476 026e 06D1     		bne	.L38
 477              		.loc 1 328 0 discriminator 1
 478 0270 0D4B     		ldr	r3, .L63
 479 0272 5B78     		ldrb	r3, [r3, #1]	@ zero_extendqisi2
 480 0274 1A46     		mov	r2, r3
 481 0276 0D4B     		ldr	r3, .L63+4
 482 0278 9B5C     		ldrb	r3, [r3, r2]	@ zero_extendqisi2
 483 027a 462B     		cmp	r3, #70
 484 027c F3D1     		bne	.L39
 485              	.L38:
 329:RelayTest_Complete.c ****             {}    
 330:RelayTest_Complete.c ****             
 331:RelayTest_Complete.c ****             RTest_Complete_StopAutomatedStep();
 486              		.loc 1 331 0 is_stmt 1
 487 027e FFF7FEFF 		bl	RTest_Complete_StopAutomatedStep
 332:RelayTest_Complete.c ****             
 333:RelayTest_Complete.c ****             CyDelay(CONFIRM_TIME);
 488              		.loc 1 333 0
 489 0282 6420     		movs	r0, #100
 490 0284 FFF7FEFF 		bl	CyDelay
 334:RelayTest_Complete.c ****              
 335:RelayTest_Complete.c ****             if(RTest_CompleteStatus[CurrentTest.TestStep] == 'F')
 491              		.loc 1 335 0
 492 0288 074B     		ldr	r3, .L63
 493 028a 5B78     		ldrb	r3, [r3, #1]	@ zero_extendqisi2
ARM GAS  C:\Users\MARTHN~1\AppData\Local\Temp\cc2F0sRX.s 			page 16


 494 028c 1A46     		mov	r2, r3
 495 028e 074B     		ldr	r3, .L63+4
 496 0290 9B5C     		ldrb	r3, [r3, r2]	@ zero_extendqisi2
 497 0292 462B     		cmp	r3, #70
 498 0294 03D1     		bne	.L40
 336:RelayTest_Complete.c ****             {
 337:RelayTest_Complete.c ****                 CurrentTest.TestStep = PASS;
 499              		.loc 1 337 0
 500 0296 044B     		ldr	r3, .L63
 501 0298 0D22     		movs	r2, #13
 502 029a 5A70     		strb	r2, [r3, #1]
 338:RelayTest_Complete.c ****             }
 339:RelayTest_Complete.c ****             else
 340:RelayTest_Complete.c ****             {
 341:RelayTest_Complete.c ****                 //CurrentTest.TestStep = INITIALIZE_TEST; 
 342:RelayTest_Complete.c ****                 CurrentTest.TestStep = BLOCK_CURRENTS; 
 343:RelayTest_Complete.c ****             }
 344:RelayTest_Complete.c ****             
 345:RelayTest_Complete.c ****         break; 
 503              		.loc 1 345 0
 504 029c A8E1     		b	.L2
 505              	.L40:
 342:RelayTest_Complete.c ****             }
 506              		.loc 1 342 0
 507 029e 024B     		ldr	r3, .L63
 508 02a0 0622     		movs	r2, #6
 509 02a2 5A70     		strb	r2, [r3, #1]
 510              		.loc 1 345 0
 511 02a4 A4E1     		b	.L2
 512              	.L64:
 513 02a6 00BF     		.align	2
 514              	.L63:
 515 02a8 00000000 		.word	CurrentTest
 516 02ac 10010000 		.word	RTest_CompleteStatus
 517 02b0 78000000 		.word	pTxPacket_RelaySiren
 518              	.L10:
 346:RelayTest_Complete.c ****          
 347:RelayTest_Complete.c ****         case BLOCK_CURRENTS:                            //*** Tested and working
 348:RelayTest_Complete.c ****             
 349:RelayTest_Complete.c ****             SetRelayOutputs(1);                         // Send command to turn on relay outputs
 519              		.loc 1 349 0
 520 02b4 0120     		movs	r0, #1
 521 02b6 FFF7FEFF 		bl	SetRelayOutputs
 350:RelayTest_Complete.c ****                 
 351:RelayTest_Complete.c ****             RTest_Complete_StartAutomatedStep();
 522              		.loc 1 351 0
 523 02ba FFF7FEFF 		bl	RTest_Complete_StartAutomatedStep
 352:RelayTest_Complete.c ****              
 353:RelayTest_Complete.c ****             while( (!RTest_Test_BlockCurrents()) && (RTest_CompleteStatus[CurrentTest.TestStep] != 
 524              		.loc 1 353 0
 525 02be 00BF     		nop
 526              	.L43:
 527              		.loc 1 353 0 is_stmt 0 discriminator 2
 528 02c0 FFF7FEFF 		bl	RTest_Test_BlockCurrents
 529 02c4 0346     		mov	r3, r0
 530 02c6 002B     		cmp	r3, #0
 531 02c8 06D1     		bne	.L42
ARM GAS  C:\Users\MARTHN~1\AppData\Local\Temp\cc2F0sRX.s 			page 17


 532              		.loc 1 353 0 discriminator 1
 533 02ca B14B     		ldr	r3, .L65
 534 02cc 5B78     		ldrb	r3, [r3, #1]	@ zero_extendqisi2
 535 02ce 1A46     		mov	r2, r3
 536 02d0 B04B     		ldr	r3, .L65+4
 537 02d2 9B5C     		ldrb	r3, [r3, r2]	@ zero_extendqisi2
 538 02d4 462B     		cmp	r3, #70
 539 02d6 F3D1     		bne	.L43
 540              	.L42:
 354:RelayTest_Complete.c ****             {} 
 355:RelayTest_Complete.c ****             
 356:RelayTest_Complete.c ****             RTest_Complete_StopAutomatedStep();
 541              		.loc 1 356 0 is_stmt 1
 542 02d8 FFF7FEFF 		bl	RTest_Complete_StopAutomatedStep
 357:RelayTest_Complete.c ****             
 358:RelayTest_Complete.c ****             CyDelay(CONFIRM_TIME);
 543              		.loc 1 358 0
 544 02dc 6420     		movs	r0, #100
 545 02de FFF7FEFF 		bl	CyDelay
 359:RelayTest_Complete.c ****              
 360:RelayTest_Complete.c ****             SetRelayOutputs(0);                         // Send command to turn off relay outputs
 546              		.loc 1 360 0
 547 02e2 0020     		movs	r0, #0
 548 02e4 FFF7FEFF 		bl	SetRelayOutputs
 361:RelayTest_Complete.c ****             
 362:RelayTest_Complete.c ****             CyDelay(100);
 549              		.loc 1 362 0
 550 02e8 6420     		movs	r0, #100
 551 02ea FFF7FEFF 		bl	CyDelay
 363:RelayTest_Complete.c ****             
 364:RelayTest_Complete.c ****             if(RTest_CompleteStatus[CurrentTest.TestStep] == 'F')
 552              		.loc 1 364 0
 553 02ee A84B     		ldr	r3, .L65
 554 02f0 5B78     		ldrb	r3, [r3, #1]	@ zero_extendqisi2
 555 02f2 1A46     		mov	r2, r3
 556 02f4 A74B     		ldr	r3, .L65+4
 557 02f6 9B5C     		ldrb	r3, [r3, r2]	@ zero_extendqisi2
 558 02f8 462B     		cmp	r3, #70
 559 02fa 03D1     		bne	.L44
 365:RelayTest_Complete.c ****             {
 366:RelayTest_Complete.c ****                 CurrentTest.TestStep = PASS;
 560              		.loc 1 366 0
 561 02fc A44B     		ldr	r3, .L65
 562 02fe 0D22     		movs	r2, #13
 563 0300 5A70     		strb	r2, [r3, #1]
 367:RelayTest_Complete.c ****             }
 368:RelayTest_Complete.c ****             else
 369:RelayTest_Complete.c ****             {
 370:RelayTest_Complete.c ****                 //CurrentTest.TestStep = INITIALIZE_TEST;
 371:RelayTest_Complete.c ****                 //CurrentTest.TestStep = GPS;
 372:RelayTest_Complete.c ****                 //CurrentTest.TestStep = PASS;
 373:RelayTest_Complete.c ****                 //CurrentTest.TestStep = UART_TX;
 374:RelayTest_Complete.c ****                 CurrentTest.TestStep = AMP1;
 375:RelayTest_Complete.c ****             }
 376:RelayTest_Complete.c ****             
 377:RelayTest_Complete.c ****         break; 
 564              		.loc 1 377 0
ARM GAS  C:\Users\MARTHN~1\AppData\Local\Temp\cc2F0sRX.s 			page 18


 565 0302 75E1     		b	.L2
 566              	.L44:
 374:RelayTest_Complete.c ****             }
 567              		.loc 1 374 0
 568 0304 A24B     		ldr	r3, .L65
 569 0306 0722     		movs	r2, #7
 570 0308 5A70     		strb	r2, [r3, #1]
 571              		.loc 1 377 0
 572 030a 71E1     		b	.L2
 573              	.L11:
 378:RelayTest_Complete.c ****                     
 379:RelayTest_Complete.c **** //        case UART_TX:                               // Automated - 
 380:RelayTest_Complete.c **** //            
 381:RelayTest_Complete.c **** //            RTest_CompleteStatus[CurrentTest.TestStep] = 'U';
 382:RelayTest_Complete.c **** //            CurrentTest.Status = 'U';
 383:RelayTest_Complete.c **** //                
 384:RelayTest_Complete.c **** ////            RTest_Complete_StartAutomatedStep();
 385:RelayTest_Complete.c **** ////        
 386:RelayTest_Complete.c **** ////            //MUX_CTRL_230400_Write(STEST_RELAY);     // Mux 230400 from siren
 387:RelayTest_Complete.c **** ////            MUX_CTRL_230400_Write(CTEST_RELAY);     // Mux 230400 from relay
 388:RelayTest_Complete.c **** ////            
 389:RelayTest_Complete.c **** ////            //VerifyPacket_230400(RTEST_SIREN);       // Verify a 'H' packet
 390:RelayTest_Complete.c **** ////            while( (!VerifyPacket_230400(RTEST_SIREN)) && (RTest_CompleteStatus[CurrentTest.Tes
 391:RelayTest_Complete.c **** ////            {} 
 392:RelayTest_Complete.c **** ////            
 393:RelayTest_Complete.c **** ////            RTest_Complete_StopAutomatedStep();
 394:RelayTest_Complete.c **** //            
 395:RelayTest_Complete.c **** //            CyDelay(CONFIRM_TIME);
 396:RelayTest_Complete.c **** //            
 397:RelayTest_Complete.c **** //            if(RTest_CompleteStatus[CurrentTest.TestStep] == 'F')
 398:RelayTest_Complete.c **** //            {
 399:RelayTest_Complete.c **** //                CurrentTest.TestStep = PASS;
 400:RelayTest_Complete.c **** //            }
 401:RelayTest_Complete.c **** //            else
 402:RelayTest_Complete.c **** //            {
 403:RelayTest_Complete.c **** //                CurrentTest.TestStep = AMP1;
 404:RelayTest_Complete.c **** //                //CurrentTest.TestStep = INITIALIZE_TEST;
 405:RelayTest_Complete.c **** //                //CurrentTest.TestStep = PASS;
 406:RelayTest_Complete.c **** //            }
 407:RelayTest_Complete.c **** //        
 408:RelayTest_Complete.c **** //        break;  
 409:RelayTest_Complete.c ****                   
 410:RelayTest_Complete.c ****         case AMP1:                                  // Manual - 
 411:RelayTest_Complete.c ****             
 412:RelayTest_Complete.c ****             STest_SIREN_EN_Write(0);        // Turn on muted speaker load
 574              		.loc 1 412 0
 575 030c 0020     		movs	r0, #0
 576 030e FFF7FEFF 		bl	STest_SIREN_EN_Write
 413:RelayTest_Complete.c ****             CyDelay(250);
 577              		.loc 1 413 0
 578 0312 FA20     		movs	r0, #250
 579 0314 FFF7FEFF 		bl	CyDelay
 414:RelayTest_Complete.c ****                   
 415:RelayTest_Complete.c ****             DEMUX_CTRL_230400_Write(RTEST_CONT);
 580              		.loc 1 415 0
 581 0318 0120     		movs	r0, #1
 582 031a FFF7FEFF 		bl	DEMUX_CTRL_230400_Write
ARM GAS  C:\Users\MARTHN~1\AppData\Local\Temp\cc2F0sRX.s 			page 19


 416:RelayTest_Complete.c ****             pTxPacket_RelaySiren = getTxPacket_RelaySiren();    
 583              		.loc 1 416 0
 584 031e FFF7FEFF 		bl	getTxPacket_RelaySiren
 585 0322 0246     		mov	r2, r0
 586 0324 9C4B     		ldr	r3, .L65+8
 587 0326 1A60     		str	r2, [r3]
 417:RelayTest_Complete.c ****             pTxPacket_RelaySiren->Payload.Siren1Tone = 0x01; 
 588              		.loc 1 417 0
 589 0328 9B4B     		ldr	r3, .L65+8
 590 032a 1B68     		ldr	r3, [r3]
 591 032c 0122     		movs	r2, #1
 592 032e 83F83E20 		strb	r2, [r3, #62]
 418:RelayTest_Complete.c ****             
 419:RelayTest_Complete.c ****             RTest_CompleteStatus[CurrentTest.TestStep] = 'B';            // Let tone play for 3sec
 593              		.loc 1 419 0
 594 0332 974B     		ldr	r3, .L65
 595 0334 5B78     		ldrb	r3, [r3, #1]	@ zero_extendqisi2
 596 0336 1A46     		mov	r2, r3
 597 0338 964B     		ldr	r3, .L65+4
 598 033a 4221     		movs	r1, #66
 599 033c 9954     		strb	r1, [r3, r2]
 420:RelayTest_Complete.c ****             CurrentTest.Status = 'B'; 
 600              		.loc 1 420 0
 601 033e 944B     		ldr	r3, .L65
 602 0340 4222     		movs	r2, #66
 603 0342 9A70     		strb	r2, [r3, #2]
 421:RelayTest_Complete.c ****             CyDelay(1000);
 604              		.loc 1 421 0
 605 0344 4FF47A70 		mov	r0, #1000
 606 0348 FFF7FEFF 		bl	CyDelay
 422:RelayTest_Complete.c ****         
 423:RelayTest_Complete.c ****             RTest_Complete_PB_WaitForAction();
 607              		.loc 1 423 0
 608 034c FFF7FEFF 		bl	RTest_Complete_PB_WaitForAction
 424:RelayTest_Complete.c ****             
 425:RelayTest_Complete.c ****             pTxPacket_RelaySiren->Payload.Siren1Tone = 0x00;    // Turn off wail tone
 609              		.loc 1 425 0
 610 0350 914B     		ldr	r3, .L65+8
 611 0352 1B68     		ldr	r3, [r3]
 612 0354 0022     		movs	r2, #0
 613 0356 83F83E20 		strb	r2, [r3, #62]
 426:RelayTest_Complete.c ****             
 427:RelayTest_Complete.c ****             CyDelay(CONFIRM_TIME);
 614              		.loc 1 427 0
 615 035a 6420     		movs	r0, #100
 616 035c FFF7FEFF 		bl	CyDelay
 428:RelayTest_Complete.c ****             
 429:RelayTest_Complete.c ****             if(RTest_CompleteStatus[CurrentTest.TestStep] == 'F')
 617              		.loc 1 429 0
 618 0360 8B4B     		ldr	r3, .L65
 619 0362 5B78     		ldrb	r3, [r3, #1]	@ zero_extendqisi2
 620 0364 1A46     		mov	r2, r3
 621 0366 8B4B     		ldr	r3, .L65+4
 622 0368 9B5C     		ldrb	r3, [r3, r2]	@ zero_extendqisi2
 623 036a 462B     		cmp	r3, #70
 624 036c 03D1     		bne	.L46
 430:RelayTest_Complete.c ****             {
ARM GAS  C:\Users\MARTHN~1\AppData\Local\Temp\cc2F0sRX.s 			page 20


 431:RelayTest_Complete.c ****                 CurrentTest.TestStep = PASS;
 625              		.loc 1 431 0
 626 036e 884B     		ldr	r3, .L65
 627 0370 0D22     		movs	r2, #13
 628 0372 5A70     		strb	r2, [r3, #1]
 432:RelayTest_Complete.c ****             }
 433:RelayTest_Complete.c ****             else
 434:RelayTest_Complete.c ****             {
 435:RelayTest_Complete.c ****                 //CurrentTest.TestStep = AMP1;
 436:RelayTest_Complete.c ****                 CurrentTest.TestStep = AMP2;
 437:RelayTest_Complete.c ****             }
 438:RelayTest_Complete.c ****         
 439:RelayTest_Complete.c ****         break;    
 629              		.loc 1 439 0
 630 0374 3CE1     		b	.L2
 631              	.L46:
 436:RelayTest_Complete.c ****             }
 632              		.loc 1 436 0
 633 0376 864B     		ldr	r3, .L65
 634 0378 0822     		movs	r2, #8
 635 037a 5A70     		strb	r2, [r3, #1]
 636              		.loc 1 439 0
 637 037c 38E1     		b	.L2
 638              	.L12:
 440:RelayTest_Complete.c ****              
 441:RelayTest_Complete.c ****         case AMP2:                                  // Manual - 
 442:RelayTest_Complete.c ****             
 443:RelayTest_Complete.c ****             STest_SIREN_EN_Write(0);        // Turn on muted speaker load
 639              		.loc 1 443 0
 640 037e 0020     		movs	r0, #0
 641 0380 FFF7FEFF 		bl	STest_SIREN_EN_Write
 444:RelayTest_Complete.c ****             CyDelay(250);
 642              		.loc 1 444 0
 643 0384 FA20     		movs	r0, #250
 644 0386 FFF7FEFF 		bl	CyDelay
 445:RelayTest_Complete.c ****                        
 446:RelayTest_Complete.c ****             DEMUX_CTRL_230400_Write(RTEST_CONT);
 645              		.loc 1 446 0
 646 038a 0120     		movs	r0, #1
 647 038c FFF7FEFF 		bl	DEMUX_CTRL_230400_Write
 447:RelayTest_Complete.c ****             pTxPacket_RelaySiren = getTxPacket_RelaySiren();    
 648              		.loc 1 447 0
 649 0390 FFF7FEFF 		bl	getTxPacket_RelaySiren
 650 0394 0246     		mov	r2, r0
 651 0396 804B     		ldr	r3, .L65+8
 652 0398 1A60     		str	r2, [r3]
 448:RelayTest_Complete.c ****             pTxPacket_RelaySiren->Payload.Siren2Tone = 0x01;   
 653              		.loc 1 448 0
 654 039a 7F4B     		ldr	r3, .L65+8
 655 039c 1B68     		ldr	r3, [r3]
 656 039e 0122     		movs	r2, #1
 657 03a0 83F83F20 		strb	r2, [r3, #63]
 449:RelayTest_Complete.c ****             
 450:RelayTest_Complete.c ****             RTest_CompleteStatus[CurrentTest.TestStep] = 'B';            // Let tone play for 3sec
 658              		.loc 1 450 0
 659 03a4 7A4B     		ldr	r3, .L65
 660 03a6 5B78     		ldrb	r3, [r3, #1]	@ zero_extendqisi2
ARM GAS  C:\Users\MARTHN~1\AppData\Local\Temp\cc2F0sRX.s 			page 21


 661 03a8 1A46     		mov	r2, r3
 662 03aa 7A4B     		ldr	r3, .L65+4
 663 03ac 4221     		movs	r1, #66
 664 03ae 9954     		strb	r1, [r3, r2]
 451:RelayTest_Complete.c ****             CurrentTest.Status = 'B'; 
 665              		.loc 1 451 0
 666 03b0 774B     		ldr	r3, .L65
 667 03b2 4222     		movs	r2, #66
 668 03b4 9A70     		strb	r2, [r3, #2]
 452:RelayTest_Complete.c ****             CyDelay(1000);
 669              		.loc 1 452 0
 670 03b6 4FF47A70 		mov	r0, #1000
 671 03ba FFF7FEFF 		bl	CyDelay
 453:RelayTest_Complete.c ****              
 454:RelayTest_Complete.c ****             RTest_Complete_PB_WaitForAction();                         
 672              		.loc 1 454 0
 673 03be FFF7FEFF 		bl	RTest_Complete_PB_WaitForAction
 455:RelayTest_Complete.c ****             
 456:RelayTest_Complete.c ****             pTxPacket_RelaySiren->Payload.Siren2Tone = 0x00;    // Turn off wail tone
 674              		.loc 1 456 0
 675 03c2 754B     		ldr	r3, .L65+8
 676 03c4 1B68     		ldr	r3, [r3]
 677 03c6 0022     		movs	r2, #0
 678 03c8 83F83F20 		strb	r2, [r3, #63]
 457:RelayTest_Complete.c ****             //CyDelay(1000);
 458:RelayTest_Complete.c ****             
 459:RelayTest_Complete.c ****             CyDelay(CONFIRM_TIME);
 679              		.loc 1 459 0
 680 03cc 6420     		movs	r0, #100
 681 03ce FFF7FEFF 		bl	CyDelay
 460:RelayTest_Complete.c ****             
 461:RelayTest_Complete.c ****             if(RTest_CompleteStatus[CurrentTest.TestStep] == 'F')
 682              		.loc 1 461 0
 683 03d2 6F4B     		ldr	r3, .L65
 684 03d4 5B78     		ldrb	r3, [r3, #1]	@ zero_extendqisi2
 685 03d6 1A46     		mov	r2, r3
 686 03d8 6E4B     		ldr	r3, .L65+4
 687 03da 9B5C     		ldrb	r3, [r3, r2]	@ zero_extendqisi2
 688 03dc 462B     		cmp	r3, #70
 689 03de 03D1     		bne	.L48
 462:RelayTest_Complete.c ****             {
 463:RelayTest_Complete.c ****                 CurrentTest.TestStep = PASS;
 690              		.loc 1 463 0
 691 03e0 6B4B     		ldr	r3, .L65
 692 03e2 0D22     		movs	r2, #13
 693 03e4 5A70     		strb	r2, [r3, #1]
 464:RelayTest_Complete.c ****             }
 465:RelayTest_Complete.c ****             else
 466:RelayTest_Complete.c ****             {
 467:RelayTest_Complete.c ****                 CurrentTest.TestStep = RRB;
 468:RelayTest_Complete.c ****                 //CurrentTest.TestStep = FLASH;
 469:RelayTest_Complete.c ****                 //CurrentTest.TestStep = INITIALIZE_TEST;
 470:RelayTest_Complete.c ****                 //CurrentTest.TestStep = PASS;
 471:RelayTest_Complete.c ****             }
 472:RelayTest_Complete.c ****                 
 473:RelayTest_Complete.c ****         break;
 694              		.loc 1 473 0
ARM GAS  C:\Users\MARTHN~1\AppData\Local\Temp\cc2F0sRX.s 			page 22


 695 03e6 03E1     		b	.L2
 696              	.L48:
 467:RelayTest_Complete.c ****                 //CurrentTest.TestStep = FLASH;
 697              		.loc 1 467 0
 698 03e8 694B     		ldr	r3, .L65
 699 03ea 0922     		movs	r2, #9
 700 03ec 5A70     		strb	r2, [r3, #1]
 701              		.loc 1 473 0
 702 03ee FFE0     		b	.L2
 703              	.L13:
 474:RelayTest_Complete.c ****             
 475:RelayTest_Complete.c ****         case RRB:    
 476:RelayTest_Complete.c ****             
 477:RelayTest_Complete.c **** //            RTest_CompleteStatus[CurrentTest.TestStep] = 'U';           
 478:RelayTest_Complete.c **** //            CurrentTest.Status = 'U'; 
 479:RelayTest_Complete.c ****             RTest_CompleteStatus[CurrentTest.TestStep] = 'B';            // Let tone play for 3sec
 704              		.loc 1 479 0
 705 03f0 674B     		ldr	r3, .L65
 706 03f2 5B78     		ldrb	r3, [r3, #1]	@ zero_extendqisi2
 707 03f4 1A46     		mov	r2, r3
 708 03f6 674B     		ldr	r3, .L65+4
 709 03f8 4221     		movs	r1, #66
 710 03fa 9954     		strb	r1, [r3, r2]
 480:RelayTest_Complete.c ****             CurrentTest.Status = 'B'; 
 711              		.loc 1 480 0
 712 03fc 644B     		ldr	r3, .L65
 713 03fe 4222     		movs	r2, #66
 714 0400 9A70     		strb	r2, [r3, #2]
 481:RelayTest_Complete.c ****             
 482:RelayTest_Complete.c ****             STest_SIREN_EN_Write(1);        // Turn on the less muted speaker load
 715              		.loc 1 482 0
 716 0402 0120     		movs	r0, #1
 717 0404 FFF7FEFF 		bl	STest_SIREN_EN_Write
 483:RelayTest_Complete.c ****             CyDelay(250);
 718              		.loc 1 483 0
 719 0408 FA20     		movs	r0, #250
 720 040a FFF7FEFF 		bl	CyDelay
 484:RelayTest_Complete.c ****                          
 485:RelayTest_Complete.c ****             DEMUX_CTRL_230400_Write(RTEST_CONT);             // 230400 - 'S' - Send a command to en
 721              		.loc 1 485 0
 722 040e 0120     		movs	r0, #1
 723 0410 FFF7FEFF 		bl	DEMUX_CTRL_230400_Write
 486:RelayTest_Complete.c ****             pTxPacket_RelaySiren = getTxPacket_RelaySiren();    
 724              		.loc 1 486 0
 725 0414 FFF7FEFF 		bl	getTxPacket_RelaySiren
 726 0418 0246     		mov	r2, r0
 727 041a 5F4B     		ldr	r3, .L65+8
 728 041c 1A60     		str	r2, [r3]
 487:RelayTest_Complete.c ****             pTxPacket_RelaySiren->Payload.RRB = 0x01;  
 729              		.loc 1 487 0
 730 041e 5E4B     		ldr	r3, .L65+8
 731 0420 1B68     		ldr	r3, [r3]
 732 0422 0122     		movs	r2, #1
 733 0424 83F84B20 		strb	r2, [r3, #75]
 488:RelayTest_Complete.c ****             
 489:RelayTest_Complete.c ****             WaveDAC_Start();  
 734              		.loc 1 489 0
ARM GAS  C:\Users\MARTHN~1\AppData\Local\Temp\cc2F0sRX.s 			page 23


 735 0428 FFF7FEFF 		bl	WaveDAC_Start
 490:RelayTest_Complete.c ****             //STest_PlayTestTone();                               // Play test tone for 3sec
 491:RelayTest_Complete.c ****             
 492:RelayTest_Complete.c ****             CyDelay(1000);
 736              		.loc 1 492 0
 737 042c 4FF47A70 		mov	r0, #1000
 738 0430 FFF7FEFF 		bl	CyDelay
 493:RelayTest_Complete.c ****  
 494:RelayTest_Complete.c ****             RTest_Complete_PB_WaitForAction();
 739              		.loc 1 494 0
 740 0434 FFF7FEFF 		bl	RTest_Complete_PB_WaitForAction
 495:RelayTest_Complete.c ****             
 496:RelayTest_Complete.c ****             WaveDAC_Stop();  
 741              		.loc 1 496 0
 742 0438 FFF7FEFF 		bl	WaveDAC_Stop
 497:RelayTest_Complete.c ****             pTxPacket_RelaySiren->Payload.RRB = 0x00;  
 743              		.loc 1 497 0
 744 043c 564B     		ldr	r3, .L65+8
 745 043e 1B68     		ldr	r3, [r3]
 746 0440 0022     		movs	r2, #0
 747 0442 83F84B20 		strb	r2, [r3, #75]
 498:RelayTest_Complete.c ****          
 499:RelayTest_Complete.c ****             CyDelay(CONFIRM_TIME);
 748              		.loc 1 499 0
 749 0446 6420     		movs	r0, #100
 750 0448 FFF7FEFF 		bl	CyDelay
 500:RelayTest_Complete.c **** 
 501:RelayTest_Complete.c ****             if(RTest_CompleteStatus[CurrentTest.TestStep] == 'F')
 751              		.loc 1 501 0
 752 044c 504B     		ldr	r3, .L65
 753 044e 5B78     		ldrb	r3, [r3, #1]	@ zero_extendqisi2
 754 0450 1A46     		mov	r2, r3
 755 0452 504B     		ldr	r3, .L65+4
 756 0454 9B5C     		ldrb	r3, [r3, r2]	@ zero_extendqisi2
 757 0456 462B     		cmp	r3, #70
 758 0458 03D1     		bne	.L50
 502:RelayTest_Complete.c ****             {
 503:RelayTest_Complete.c ****                 CurrentTest.TestStep = PASS;
 759              		.loc 1 503 0
 760 045a 4D4B     		ldr	r3, .L65
 761 045c 0D22     		movs	r2, #13
 762 045e 5A70     		strb	r2, [r3, #1]
 504:RelayTest_Complete.c ****             }
 505:RelayTest_Complete.c ****             else
 506:RelayTest_Complete.c ****             {
 507:RelayTest_Complete.c ****                 //CurrentTest.TestStep = AMP1;
 508:RelayTest_Complete.c ****                 //CurrentTest.TestStep = RRB;
 509:RelayTest_Complete.c ****                 CurrentTest.TestStep = MIC;
 510:RelayTest_Complete.c ****                 //CurrentTest.TestStep = INITIALIZE_TEST;
 511:RelayTest_Complete.c ****             }
 512:RelayTest_Complete.c ****         
 513:RelayTest_Complete.c ****         break;   
 763              		.loc 1 513 0
 764 0460 C6E0     		b	.L2
 765              	.L50:
 509:RelayTest_Complete.c ****                 //CurrentTest.TestStep = INITIALIZE_TEST;
 766              		.loc 1 509 0
ARM GAS  C:\Users\MARTHN~1\AppData\Local\Temp\cc2F0sRX.s 			page 24


 767 0462 4B4B     		ldr	r3, .L65
 768 0464 0A22     		movs	r2, #10
 769 0466 5A70     		strb	r2, [r3, #1]
 770              		.loc 1 513 0
 771 0468 C2E0     		b	.L2
 772              	.L14:
 514:RelayTest_Complete.c ****             
 515:RelayTest_Complete.c ****         case MIC:                               
 516:RelayTest_Complete.c **** 
 517:RelayTest_Complete.c ****             STest_SIREN_EN_Write(1);  // Less muted
 773              		.loc 1 517 0
 774 046a 0120     		movs	r0, #1
 775 046c FFF7FEFF 		bl	STest_SIREN_EN_Write
 518:RelayTest_Complete.c ****             CyDelay(250);
 776              		.loc 1 518 0
 777 0470 FA20     		movs	r0, #250
 778 0472 FFF7FEFF 		bl	CyDelay
 519:RelayTest_Complete.c ****             
 520:RelayTest_Complete.c ****             RTest_CompleteStatus[CurrentTest.TestStep] = 'W';  
 779              		.loc 1 520 0
 780 0476 464B     		ldr	r3, .L65
 781 0478 5B78     		ldrb	r3, [r3, #1]	@ zero_extendqisi2
 782 047a 1A46     		mov	r2, r3
 783 047c 454B     		ldr	r3, .L65+4
 784 047e 5721     		movs	r1, #87
 785 0480 9954     		strb	r1, [r3, r2]
 521:RelayTest_Complete.c ****             CurrentTest.Status = 'W'; 
 786              		.loc 1 521 0
 787 0482 434B     		ldr	r3, .L65
 788 0484 5722     		movs	r2, #87
 789 0486 9A70     		strb	r2, [r3, #2]
 522:RelayTest_Complete.c ****             
 523:RelayTest_Complete.c ****             //STest_SIREN_EN_Write(1);  // Less muted
 524:RelayTest_Complete.c ****             
 525:RelayTest_Complete.c ****             RTest_Complete_PB_WaitForAction();        
 790              		.loc 1 525 0
 791 0488 FFF7FEFF 		bl	RTest_Complete_PB_WaitForAction
 526:RelayTest_Complete.c ****             
 527:RelayTest_Complete.c ****             CyDelay(CONFIRM_TIME);
 792              		.loc 1 527 0
 793 048c 6420     		movs	r0, #100
 794 048e FFF7FEFF 		bl	CyDelay
 528:RelayTest_Complete.c ****             
 529:RelayTest_Complete.c ****             if(RTest_CompleteStatus[CurrentTest.TestStep] == 'F')
 795              		.loc 1 529 0
 796 0492 3F4B     		ldr	r3, .L65
 797 0494 5B78     		ldrb	r3, [r3, #1]	@ zero_extendqisi2
 798 0496 1A46     		mov	r2, r3
 799 0498 3E4B     		ldr	r3, .L65+4
 800 049a 9B5C     		ldrb	r3, [r3, r2]	@ zero_extendqisi2
 801 049c 462B     		cmp	r3, #70
 802 049e 03D1     		bne	.L52
 530:RelayTest_Complete.c ****             {
 531:RelayTest_Complete.c ****                 CurrentTest.TestStep = PASS;
 803              		.loc 1 531 0
 804 04a0 3B4B     		ldr	r3, .L65
 805 04a2 0D22     		movs	r2, #13
ARM GAS  C:\Users\MARTHN~1\AppData\Local\Temp\cc2F0sRX.s 			page 25


 806 04a4 5A70     		strb	r2, [r3, #1]
 532:RelayTest_Complete.c ****             }
 533:RelayTest_Complete.c ****             else
 534:RelayTest_Complete.c ****             {
 535:RelayTest_Complete.c ****                 //CurrentTest.TestStep = MIC;
 536:RelayTest_Complete.c ****                 CurrentTest.TestStep = FLASH;
 537:RelayTest_Complete.c ****                 //CurrentTest.TestStep = INITIALIZE_TEST;
 538:RelayTest_Complete.c ****             }
 539:RelayTest_Complete.c ****         
 540:RelayTest_Complete.c ****         break;    
 807              		.loc 1 540 0
 808 04a6 A3E0     		b	.L2
 809              	.L52:
 536:RelayTest_Complete.c ****                 //CurrentTest.TestStep = INITIALIZE_TEST;
 810              		.loc 1 536 0
 811 04a8 394B     		ldr	r3, .L65
 812 04aa 0B22     		movs	r2, #11
 813 04ac 5A70     		strb	r2, [r3, #1]
 814              		.loc 1 540 0
 815 04ae 9FE0     		b	.L2
 816              	.L15:
 541:RelayTest_Complete.c ****                
 542:RelayTest_Complete.c ****         case FLASH:                                         // Manual - 
 543:RelayTest_Complete.c ****             
 544:RelayTest_Complete.c ****             RTest_CompleteStatus[CurrentTest.TestStep] = 'B';  
 817              		.loc 1 544 0
 818 04b0 374B     		ldr	r3, .L65
 819 04b2 5B78     		ldrb	r3, [r3, #1]	@ zero_extendqisi2
 820 04b4 1A46     		mov	r2, r3
 821 04b6 374B     		ldr	r3, .L65+4
 822 04b8 4221     		movs	r1, #66
 823 04ba 9954     		strb	r1, [r3, r2]
 545:RelayTest_Complete.c ****             CurrentTest.Status = 'B'; 
 824              		.loc 1 545 0
 825 04bc 344B     		ldr	r3, .L65
 826 04be 4222     		movs	r2, #66
 827 04c0 9A70     		strb	r2, [r3, #2]
 546:RelayTest_Complete.c ****             
 547:RelayTest_Complete.c ****             STest_SIREN_EN_Write(1);  // 
 828              		.loc 1 547 0
 829 04c2 0120     		movs	r0, #1
 830 04c4 FFF7FEFF 		bl	STest_SIREN_EN_Write
 548:RelayTest_Complete.c ****             CyDelay(250);
 831              		.loc 1 548 0
 832 04c8 FA20     		movs	r0, #250
 833 04ca FFF7FEFF 		bl	CyDelay
 549:RelayTest_Complete.c ****             
 550:RelayTest_Complete.c ****             /*this is test code to scroll through tones with PB*/
 551:RelayTest_Complete.c ****             DEMUX_CTRL_230400_Write(RTEST_CONT);             // 230400 - 'S' - Send a command to pl
 834              		.loc 1 551 0
 835 04ce 0120     		movs	r0, #1
 836 04d0 FFF7FEFF 		bl	DEMUX_CTRL_230400_Write
 552:RelayTest_Complete.c ****             pTxPacket_RelaySiren = getTxPacket_RelaySiren();    
 837              		.loc 1 552 0
 838 04d4 FFF7FEFF 		bl	getTxPacket_RelaySiren
 839 04d8 0246     		mov	r2, r0
 840 04da 2F4B     		ldr	r3, .L65+8
ARM GAS  C:\Users\MARTHN~1\AppData\Local\Temp\cc2F0sRX.s 			page 26


 841 04dc 1A60     		str	r2, [r3]
 553:RelayTest_Complete.c ****             
 554:RelayTest_Complete.c ****             pTxPacket_RelaySiren->Payload.Siren1Tone = 16; 
 842              		.loc 1 554 0
 843 04de 2E4B     		ldr	r3, .L65+8
 844 04e0 1B68     		ldr	r3, [r3]
 845 04e2 1022     		movs	r2, #16
 846 04e4 83F83E20 		strb	r2, [r3, #62]
 555:RelayTest_Complete.c ****             pTxPacket_RelaySiren->Payload.Siren2Tone = 16; 
 847              		.loc 1 555 0
 848 04e8 2B4B     		ldr	r3, .L65+8
 849 04ea 1B68     		ldr	r3, [r3]
 850 04ec 1022     		movs	r2, #16
 851 04ee 83F83F20 		strb	r2, [r3, #63]
 556:RelayTest_Complete.c ****             
 557:RelayTest_Complete.c ****             CyDelay(1000);
 852              		.loc 1 557 0
 853 04f2 4FF47A70 		mov	r0, #1000
 854 04f6 FFF7FEFF 		bl	CyDelay
 558:RelayTest_Complete.c **** 
 559:RelayTest_Complete.c ****             RTest_Complete_PB_WaitForAction();
 855              		.loc 1 559 0
 856 04fa FFF7FEFF 		bl	RTest_Complete_PB_WaitForAction
 560:RelayTest_Complete.c ****        
 561:RelayTest_Complete.c ****             pTxPacket_RelaySiren->Payload.Siren1Tone = 0; 
 857              		.loc 1 561 0
 858 04fe 264B     		ldr	r3, .L65+8
 859 0500 1B68     		ldr	r3, [r3]
 860 0502 0022     		movs	r2, #0
 861 0504 83F83E20 		strb	r2, [r3, #62]
 562:RelayTest_Complete.c ****             pTxPacket_RelaySiren->Payload.Siren2Tone = 0; 
 862              		.loc 1 562 0
 863 0508 234B     		ldr	r3, .L65+8
 864 050a 1B68     		ldr	r3, [r3]
 865 050c 0022     		movs	r2, #0
 866 050e 83F83F20 		strb	r2, [r3, #63]
 563:RelayTest_Complete.c **** 
 564:RelayTest_Complete.c ****             CyDelay(CONFIRM_TIME);
 867              		.loc 1 564 0
 868 0512 6420     		movs	r0, #100
 869 0514 FFF7FEFF 		bl	CyDelay
 565:RelayTest_Complete.c ****             
 566:RelayTest_Complete.c ****             if(RTest_CompleteStatus[CurrentTest.TestStep] == 'F')
 870              		.loc 1 566 0
 871 0518 1D4B     		ldr	r3, .L65
 872 051a 5B78     		ldrb	r3, [r3, #1]	@ zero_extendqisi2
 873 051c 1A46     		mov	r2, r3
 874 051e 1D4B     		ldr	r3, .L65+4
 875 0520 9B5C     		ldrb	r3, [r3, r2]	@ zero_extendqisi2
 876 0522 462B     		cmp	r3, #70
 877 0524 03D1     		bne	.L54
 567:RelayTest_Complete.c ****             {
 568:RelayTest_Complete.c ****                 CurrentTest.TestStep = PASS;
 878              		.loc 1 568 0
 879 0526 1A4B     		ldr	r3, .L65
 880 0528 0D22     		movs	r2, #13
 881 052a 5A70     		strb	r2, [r3, #1]
ARM GAS  C:\Users\MARTHN~1\AppData\Local\Temp\cc2F0sRX.s 			page 27


 569:RelayTest_Complete.c ****             }
 570:RelayTest_Complete.c ****             else
 571:RelayTest_Complete.c ****             {
 572:RelayTest_Complete.c ****                 //CurrentTest.TestStep = OVERLOAD;
 573:RelayTest_Complete.c ****                 //CurrentTest.TestStep = MIC;
 574:RelayTest_Complete.c ****                 //CurrentTest.TestStep = FLASH;
 575:RelayTest_Complete.c ****                 //CurrentTest.TestStep = INITIALIZE_TEST;
 576:RelayTest_Complete.c ****                 CurrentTest.TestStep = GPS;
 577:RelayTest_Complete.c ****             }
 578:RelayTest_Complete.c ****                 
 579:RelayTest_Complete.c ****         break;  
 882              		.loc 1 579 0
 883 052c 60E0     		b	.L2
 884              	.L54:
 576:RelayTest_Complete.c ****             }
 885              		.loc 1 576 0
 886 052e 184B     		ldr	r3, .L65
 887 0530 0C22     		movs	r2, #12
 888 0532 5A70     		strb	r2, [r3, #1]
 889              		.loc 1 579 0
 890 0534 5CE0     		b	.L2
 891              	.L16:
 580:RelayTest_Complete.c ****              
 581:RelayTest_Complete.c **** //        case OVERLOAD:    
 582:RelayTest_Complete.c **** //            
 583:RelayTest_Complete.c **** ////            STest_SIREN_EN_Write(0);        // Turn on muted speaker load
 584:RelayTest_Complete.c **** ////            CyDelay(250);
 585:RelayTest_Complete.c **** //            
 586:RelayTest_Complete.c **** //            RTest_CompleteStatus[CurrentTest.TestStep] = 'B';           
 587:RelayTest_Complete.c **** //            CurrentTest.Status = 'B'; 
 588:RelayTest_Complete.c **** //            
 589:RelayTest_Complete.c **** //            //CyDelay(15000);
 590:RelayTest_Complete.c **** //            STest_SIREN_EN_Write(0);                    // Turn on muted speaker load
 591:RelayTest_Complete.c **** //            CyDelay(250);
 592:RelayTest_Complete.c **** //
 593:RelayTest_Complete.c **** //            //MUX_CTRL_230400_Write(STEST_RELAY);     // Rx - 'D' packet
 594:RelayTest_Complete.c **** //            MUX_CTRL_230400_Write(RTEST_CONT);          // Rx - 'D' packet
 595:RelayTest_Complete.c **** //    
 596:RelayTest_Complete.c **** //            //DEMUX_CTRL_230400_Write(STEST_RELAY);   // Tx - 'S' packet
 597:RelayTest_Complete.c **** //            DEMUX_CTRL_230400_Write(RTEST_CONT);        // Tx - 'I' packet (includes 'S' packet)
 598:RelayTest_Complete.c **** //
 599:RelayTest_Complete.c **** //            RTest_Complete_StartAutomatedStep();
 600:RelayTest_Complete.c **** //            
 601:RelayTest_Complete.c **** //            Overload1_Write(0);                
 602:RelayTest_Complete.c **** //            Overload2_Write(1);                
 603:RelayTest_Complete.c **** //            
 604:RelayTest_Complete.c **** //            CyDelay(250);
 605:RelayTest_Complete.c **** //            
 606:RelayTest_Complete.c **** //            pTxPacket_RelaySiren = getTxPacket_RelaySiren();                // 230400 - 'S' - Sen
 607:RelayTest_Complete.c **** //            pTxPacket_RelaySiren->Payload.Siren1Tone = 0; 
 608:RelayTest_Complete.c **** //            pTxPacket_RelaySiren->Payload.Siren2Tone = 1;     
 609:RelayTest_Complete.c **** //            
 610:RelayTest_Complete.c **** //            CyDelay(100);
 611:RelayTest_Complete.c **** //             
 612:RelayTest_Complete.c **** //            pRxPacket_RelaySiren = getRxPacket_RelaySiren();
 613:RelayTest_Complete.c **** //            while( (pRxPacket_RelaySiren->Payload.Speaker2_Overcurrent != 1) && (RTest_CompleteSt
 614:RelayTest_Complete.c **** //            {}
ARM GAS  C:\Users\MARTHN~1\AppData\Local\Temp\cc2F0sRX.s 			page 28


 615:RelayTest_Complete.c **** //                
 616:RelayTest_Complete.c **** //            RTest_Complete_StopAutomatedStep();
 617:RelayTest_Complete.c **** //            
 618:RelayTest_Complete.c **** //            Overload1_Write(0);               
 619:RelayTest_Complete.c **** //            Overload2_Write(0);
 620:RelayTest_Complete.c **** //                
 621:RelayTest_Complete.c **** //            CyDelay(1000);
 622:RelayTest_Complete.c **** //            
 623:RelayTest_Complete.c **** //            Overload1_Write(0);                                 // Turn everything off
 624:RelayTest_Complete.c **** //            Overload2_Write(0);
 625:RelayTest_Complete.c **** //            pTxPacket_RelaySiren->Payload.Siren1Tone = 0;  
 626:RelayTest_Complete.c **** //            pTxPacket_RelaySiren->Payload.Siren2Tone = 0; 
 627:RelayTest_Complete.c **** //                
 628:RelayTest_Complete.c **** //            //--------------------------------------
 629:RelayTest_Complete.c **** //            
 630:RelayTest_Complete.c **** //            if(RTest_CompleteStatus[CurrentTest.TestStep] == 'F')
 631:RelayTest_Complete.c **** //            {
 632:RelayTest_Complete.c **** //                CurrentTest.TestStep = PASS;
 633:RelayTest_Complete.c **** //            }
 634:RelayTest_Complete.c **** //            
 635:RelayTest_Complete.c **** //            RTest_CompleteStatus[CurrentTest.TestStep] = 'B';
 636:RelayTest_Complete.c **** //            CurrentTest.Status = 'B';
 637:RelayTest_Complete.c **** //            while( (pRxPacket_RelaySiren->Payload.Speaker1_Overcurrent != 0) || (pRxPacket_RelayS
 638:RelayTest_Complete.c **** //            {}
 639:RelayTest_Complete.c **** //            
 640:RelayTest_Complete.c **** //            //--------------------------------------
 641:RelayTest_Complete.c **** //
 642:RelayTest_Complete.c **** //            RTest_Complete_StartAutomatedStep();
 643:RelayTest_Complete.c **** //            
 644:RelayTest_Complete.c **** //            Overload1_Write(1);               
 645:RelayTest_Complete.c **** //            Overload2_Write(0);              
 646:RelayTest_Complete.c **** //            
 647:RelayTest_Complete.c **** //            CyDelay(100);
 648:RelayTest_Complete.c **** //            
 649:RelayTest_Complete.c **** //            pTxPacket_RelaySiren = getTxPacket_RelaySiren();                // 230400 - 'S' - Sen
 650:RelayTest_Complete.c **** //            pTxPacket_RelaySiren->Payload.Siren1Tone = 1;     
 651:RelayTest_Complete.c **** //            pTxPacket_RelaySiren->Payload.Siren2Tone = 0;    
 652:RelayTest_Complete.c **** //            
 653:RelayTest_Complete.c **** //            CyDelay(100);
 654:RelayTest_Complete.c **** //                
 655:RelayTest_Complete.c **** //            while( (pRxPacket_RelaySiren->Payload.Speaker1_Overcurrent != 1) && (RTest_CompleteSt
 656:RelayTest_Complete.c **** //            {}
 657:RelayTest_Complete.c **** //                
 658:RelayTest_Complete.c **** //            RTest_Complete_StopAutomatedStep();
 659:RelayTest_Complete.c **** //            
 660:RelayTest_Complete.c **** //            Overload1_Write(0);                                 // Turn everything off
 661:RelayTest_Complete.c **** //            Overload2_Write(0);
 662:RelayTest_Complete.c **** //
 663:RelayTest_Complete.c **** //            pTxPacket_RelaySiren->Payload.Siren1Tone = 0; 
 664:RelayTest_Complete.c **** //            pTxPacket_RelaySiren->Payload.Siren2Tone = 0; 
 665:RelayTest_Complete.c **** //            
 666:RelayTest_Complete.c **** //            CyDelay(1000);
 667:RelayTest_Complete.c **** //            CyDelay(CONFIRM_TIME);
 668:RelayTest_Complete.c **** //            
 669:RelayTest_Complete.c **** ////            RTest_CompleteStatus[CurrentTest.TestStep] = 'B';
 670:RelayTest_Complete.c **** ////            CurrentTest.Status = 'B';
 671:RelayTest_Complete.c **** ////            while( (pRxPacket_RelaySiren->Payload.Speaker1_Overcurrent != 0) || (pRxPacket_Rela
ARM GAS  C:\Users\MARTHN~1\AppData\Local\Temp\cc2F0sRX.s 			page 29


 672:RelayTest_Complete.c **** ////            {}
 673:RelayTest_Complete.c **** //            
 674:RelayTest_Complete.c **** //            if(RTest_CompleteStatus[CurrentTest.TestStep] == 'F')
 675:RelayTest_Complete.c **** //            {
 676:RelayTest_Complete.c **** //                CurrentTest.TestStep = PASS;
 677:RelayTest_Complete.c **** //            }
 678:RelayTest_Complete.c **** //            else
 679:RelayTest_Complete.c **** //            {
 680:RelayTest_Complete.c **** //                //CurrentTest.TestStep = INITIALIZE_TEST;
 681:RelayTest_Complete.c **** //                //CurrentTest.TestStep = MIC;
 682:RelayTest_Complete.c **** //                //CurrentTest.TestStep = OVERLOAD;
 683:RelayTest_Complete.c **** //                
 684:RelayTest_Complete.c **** //                CurrentTest.TestStep = GPS;
 685:RelayTest_Complete.c **** //                
 686:RelayTest_Complete.c **** //                //CurrentTest.TestStep = PASS;
 687:RelayTest_Complete.c **** //            }
 688:RelayTest_Complete.c **** //            
 689:RelayTest_Complete.c **** //        break;  
 690:RelayTest_Complete.c ****             
 691:RelayTest_Complete.c ****         case GPS:         
 692:RelayTest_Complete.c ****             
 693:RelayTest_Complete.c **** //            RTest_CompleteStatus[CurrentTest.TestStep] = 'U';
 694:RelayTest_Complete.c **** //            CurrentTest.Status = 'U';
 695:RelayTest_Complete.c ****             RTest_CompleteStatus[CurrentTest.TestStep] = 'B';
 892              		.loc 1 695 0
 893 0536 164B     		ldr	r3, .L65
 894 0538 5B78     		ldrb	r3, [r3, #1]	@ zero_extendqisi2
 895 053a 1A46     		mov	r2, r3
 896 053c 154B     		ldr	r3, .L65+4
 897 053e 4221     		movs	r1, #66
 898 0540 9954     		strb	r1, [r3, r2]
 696:RelayTest_Complete.c ****             CurrentTest.Status = 'B';
 899              		.loc 1 696 0
 900 0542 134B     		ldr	r3, .L65
 901 0544 4222     		movs	r2, #66
 902 0546 9A70     		strb	r2, [r3, #2]
 697:RelayTest_Complete.c **** 
 698:RelayTest_Complete.c ****             //RTest_Complete_StartAutomatedStep();
 699:RelayTest_Complete.c **** 
 700:RelayTest_Complete.c ****             MUX_CTRL_230400_Write(RTEST_CONT);
 903              		.loc 1 700 0
 904 0548 0120     		movs	r0, #1
 905 054a FFF7FEFF 		bl	MUX_CTRL_230400_Write
 701:RelayTest_Complete.c ****                
 702:RelayTest_Complete.c ****             while( (!VerifyPacket_GPS()) && (RTest_CompleteStatus[CurrentTest.TestStep] != 'F') )
 906              		.loc 1 702 0
 907 054e 00BF     		nop
 908              	.L57:
 909              		.loc 1 702 0 is_stmt 0 discriminator 2
 910 0550 FFF7FEFF 		bl	VerifyPacket_GPS
 911 0554 0346     		mov	r3, r0
 912 0556 002B     		cmp	r3, #0
 913 0558 06D1     		bne	.L56
 914              		.loc 1 702 0 discriminator 1
 915 055a 0D4B     		ldr	r3, .L65
 916 055c 5B78     		ldrb	r3, [r3, #1]	@ zero_extendqisi2
 917 055e 1A46     		mov	r2, r3
ARM GAS  C:\Users\MARTHN~1\AppData\Local\Temp\cc2F0sRX.s 			page 30


 918 0560 0C4B     		ldr	r3, .L65+4
 919 0562 9B5C     		ldrb	r3, [r3, r2]	@ zero_extendqisi2
 920 0564 462B     		cmp	r3, #70
 921 0566 F3D1     		bne	.L57
 922              	.L56:
 703:RelayTest_Complete.c ****             {}        
 704:RelayTest_Complete.c ****             
 705:RelayTest_Complete.c ****             //RTest_Complete_StopAutomatedStep();
 706:RelayTest_Complete.c ****             
 707:RelayTest_Complete.c ****             RTest_CompleteStatus[CurrentTest.TestStep] = 'P';
 923              		.loc 1 707 0 is_stmt 1
 924 0568 094B     		ldr	r3, .L65
 925 056a 5B78     		ldrb	r3, [r3, #1]	@ zero_extendqisi2
 926 056c 1A46     		mov	r2, r3
 927 056e 094B     		ldr	r3, .L65+4
 928 0570 5021     		movs	r1, #80
 929 0572 9954     		strb	r1, [r3, r2]
 708:RelayTest_Complete.c ****             CurrentTest.Status = 'P';
 930              		.loc 1 708 0
 931 0574 064B     		ldr	r3, .L65
 932 0576 5022     		movs	r2, #80
 933 0578 9A70     		strb	r2, [r3, #2]
 709:RelayTest_Complete.c **** 
 710:RelayTest_Complete.c ****             CyDelay(CONFIRM_TIME);
 934              		.loc 1 710 0
 935 057a 6420     		movs	r0, #100
 936 057c FFF7FEFF 		bl	CyDelay
 711:RelayTest_Complete.c ****              
 712:RelayTest_Complete.c ****             //CurrentTest.TestStep = INITIALIZE_TEST; 
 713:RelayTest_Complete.c ****             //CurrentTest.TestStep = GPS;
 714:RelayTest_Complete.c ****             //CurrentTest.TestStep = UART_TX;
 715:RelayTest_Complete.c ****             CurrentTest.TestStep = PASS;
 937              		.loc 1 715 0
 938 0580 034B     		ldr	r3, .L65
 939 0582 0D22     		movs	r2, #13
 940 0584 5A70     		strb	r2, [r3, #1]
 716:RelayTest_Complete.c ****             
 717:RelayTest_Complete.c ****         break;   
 941              		.loc 1 717 0
 942 0586 33E0     		b	.L2
 943              	.L17:
 944              	.LBB4:
 718:RelayTest_Complete.c ****             
 719:RelayTest_Complete.c ****         case PASS:  
 720:RelayTest_Complete.c ****             
 721:RelayTest_Complete.c ****             for(uint8 i=0;i<(NUMBER_TEST_STEPS-1);i++)
 945              		.loc 1 721 0
 946 0588 0023     		movs	r3, #0
 947 058a 7B71     		strb	r3, [r7, #5]
 948 058c 1CE0     		b	.L58
 949              	.L66:
 950 058e 00BF     		.align	2
 951              	.L65:
 952 0590 00000000 		.word	CurrentTest
 953 0594 10010000 		.word	RTest_CompleteStatus
 954 0598 78000000 		.word	pTxPacket_RelaySiren
 955              	.L60:
ARM GAS  C:\Users\MARTHN~1\AppData\Local\Temp\cc2F0sRX.s 			page 31


 722:RelayTest_Complete.c ****             {
 723:RelayTest_Complete.c ****                 if( (RTest_CompleteStatus[i] != 'P') && (RTest_CompleteStatus[i] != 'U') )
 956              		.loc 1 723 0
 957 059c 7B79     		ldrb	r3, [r7, #5]	@ zero_extendqisi2
 958 059e 174A     		ldr	r2, .L67
 959 05a0 D35C     		ldrb	r3, [r2, r3]	@ zero_extendqisi2
 960 05a2 502B     		cmp	r3, #80
 961 05a4 0DD0     		beq	.L59
 962              		.loc 1 723 0 is_stmt 0 discriminator 1
 963 05a6 7B79     		ldrb	r3, [r7, #5]	@ zero_extendqisi2
 964 05a8 144A     		ldr	r2, .L67
 965 05aa D35C     		ldrb	r3, [r2, r3]	@ zero_extendqisi2
 966 05ac 552B     		cmp	r3, #85
 967 05ae 08D0     		beq	.L59
 724:RelayTest_Complete.c ****                 {
 725:RelayTest_Complete.c ****                     RTest_CompleteStatus[CurrentTest.TestStep] = 'f';
 968              		.loc 1 725 0 is_stmt 1
 969 05b0 134B     		ldr	r3, .L67+4
 970 05b2 5B78     		ldrb	r3, [r3, #1]	@ zero_extendqisi2
 971 05b4 1A46     		mov	r2, r3
 972 05b6 114B     		ldr	r3, .L67
 973 05b8 6621     		movs	r1, #102
 974 05ba 9954     		strb	r1, [r3, r2]
 726:RelayTest_Complete.c ****                     CurrentTest.Status = 'f';                      
 975              		.loc 1 726 0
 976 05bc 104B     		ldr	r3, .L67+4
 977 05be 6622     		movs	r2, #102
 978 05c0 9A70     		strb	r2, [r3, #2]
 979              	.L59:
 721:RelayTest_Complete.c ****             {
 980              		.loc 1 721 0 discriminator 2
 981 05c2 7B79     		ldrb	r3, [r7, #5]	@ zero_extendqisi2
 982 05c4 0133     		adds	r3, r3, #1
 983 05c6 7B71     		strb	r3, [r7, #5]
 984              	.L58:
 721:RelayTest_Complete.c ****             {
 985              		.loc 1 721 0 is_stmt 0 discriminator 1
 986 05c8 7B79     		ldrb	r3, [r7, #5]	@ zero_extendqisi2
 987 05ca 0C2B     		cmp	r3, #12
 988 05cc E6D9     		bls	.L60
 989              	.LBE4:
 727:RelayTest_Complete.c ****                 }    
 728:RelayTest_Complete.c ****             }
 729:RelayTest_Complete.c ****  
 730:RelayTest_Complete.c ****             if(RTest_CompleteStatus[CurrentTest.TestStep] != 'f')
 990              		.loc 1 730 0 is_stmt 1
 991 05ce 0C4B     		ldr	r3, .L67+4
 992 05d0 5B78     		ldrb	r3, [r3, #1]	@ zero_extendqisi2
 993 05d2 1A46     		mov	r2, r3
 994 05d4 094B     		ldr	r3, .L67
 995 05d6 9B5C     		ldrb	r3, [r3, r2]	@ zero_extendqisi2
 996 05d8 662B     		cmp	r3, #102
 997 05da 08D0     		beq	.L61
 731:RelayTest_Complete.c ****             {
 732:RelayTest_Complete.c ****                 RTest_CompleteStatus[CurrentTest.TestStep] = 'p';
 998              		.loc 1 732 0
 999 05dc 084B     		ldr	r3, .L67+4
ARM GAS  C:\Users\MARTHN~1\AppData\Local\Temp\cc2F0sRX.s 			page 32


 1000 05de 5B78     		ldrb	r3, [r3, #1]	@ zero_extendqisi2
 1001 05e0 1A46     		mov	r2, r3
 1002 05e2 064B     		ldr	r3, .L67
 1003 05e4 7021     		movs	r1, #112
 1004 05e6 9954     		strb	r1, [r3, r2]
 733:RelayTest_Complete.c ****                 CurrentTest.Status = 'p'; 
 1005              		.loc 1 733 0
 1006 05e8 054B     		ldr	r3, .L67+4
 1007 05ea 7022     		movs	r2, #112
 1008 05ec 9A70     		strb	r2, [r3, #2]
 1009              	.L61:
 734:RelayTest_Complete.c ****             }
 735:RelayTest_Complete.c ****             
 736:RelayTest_Complete.c ****             while(1);            
 1010              		.loc 1 736 0 discriminator 1
 1011 05ee FEE7     		b	.L61
 1012              	.L2:
 737:RelayTest_Complete.c **** //            while(PB_NextAction_Read() != 1){};
 738:RelayTest_Complete.c **** //            RTestStatus[CurrentTest.TestStep] = 'r';
 739:RelayTest_Complete.c **** //            CurrentTest.Status = 'r'; 
 740:RelayTest_Complete.c **** //            CyDelay(1000);
 741:RelayTest_Complete.c **** //            CurrentTest.TestStep = INITIALIZE_TEST;
 742:RelayTest_Complete.c **** 
 743:RelayTest_Complete.c ****         break;          
 744:RelayTest_Complete.c ****            
 745:RelayTest_Complete.c ****     }
 746:RelayTest_Complete.c ****       
 747:RelayTest_Complete.c ****     return(0);
 1013              		.loc 1 747 0
 1014 05f0 0023     		movs	r3, #0
 748:RelayTest_Complete.c ****     
 749:RelayTest_Complete.c **** }
 1015              		.loc 1 749 0
 1016 05f2 1846     		mov	r0, r3
 1017 05f4 0837     		adds	r7, r7, #8
 1018              		.cfi_def_cfa_offset 8
 1019 05f6 BD46     		mov	sp, r7
 1020              		.cfi_def_cfa_register 13
 1021              		@ sp needed
 1022 05f8 80BD     		pop	{r7, pc}
 1023              	.L68:
 1024 05fa 00BF     		.align	2
 1025              	.L67:
 1026 05fc 10010000 		.word	RTest_CompleteStatus
 1027 0600 00000000 		.word	CurrentTest
 1028              		.cfi_endproc
 1029              	.LFE63:
 1030              		.size	RelayTest_Complete, .-RelayTest_Complete
 1031              		.section	.text.RTest_Complete_Test_DataLink,"ax",%progbits
 1032              		.align	2
 1033              		.global	RTest_Complete_Test_DataLink
 1034              		.thumb
 1035              		.thumb_func
 1036              		.type	RTest_Complete_Test_DataLink, %function
 1037              	RTest_Complete_Test_DataLink:
 1038              	.LFB64:
 750:RelayTest_Complete.c **** 
ARM GAS  C:\Users\MARTHN~1\AppData\Local\Temp\cc2F0sRX.s 			page 33


 751:RelayTest_Complete.c **** /* 230400bps ********************************************************************************
 752:RelayTest_Complete.c **** *  Send 'P' packet (or 'I' packet)   (controller to relay)  - turn on all relay outputs
 753:RelayTest_Complete.c **** *  Read Hardware                            - read each input, verify all are active
 754:RelayTest_Complete.c **** *  Return: Pass/Fail
 755:RelayTest_Complete.c **** *********************************************************************************************/
 756:RelayTest_Complete.c **** //uint8 RTest_Test_Outputs(void)
 757:RelayTest_Complete.c **** //{
 758:RelayTest_Complete.c **** //
 759:RelayTest_Complete.c **** //    uint32 OutputsState = 0;
 760:RelayTest_Complete.c **** //    uint32 testval = 0;
 761:RelayTest_Complete.c **** //    
 762:RelayTest_Complete.c **** //    SetRelayOutputs(1);                                                     // Send command to tu
 763:RelayTest_Complete.c **** //    //while(1);
 764:RelayTest_Complete.c **** //    for (uint8 channel=0; channel<32; channel++)                            // Address and read c
 765:RelayTest_Complete.c **** //    {
 766:RelayTest_Complete.c **** //        selectADCChannelMux(channel);                                       //*** This needs to b
 767:RelayTest_Complete.c **** //        CyDelay(1);
 768:RelayTest_Complete.c **** //        testval = RTest_DEMUX_COM_Read();
 769:RelayTest_Complete.c **** //
 770:RelayTest_Complete.c **** //        OutputsState = ( OutputsState | (testval << channel) );             // Read RTest_INPUT_D
 771:RelayTest_Complete.c **** //    }
 772:RelayTest_Complete.c **** //    
 773:RelayTest_Complete.c **** //    //SetRelayOutputs(0);                                                     // Send command to 
 774:RelayTest_Complete.c **** //    
 775:RelayTest_Complete.c **** //    if(OutputsState == 0xFFFFFFFF)
 776:RelayTest_Complete.c **** //        return(1);                                                          // If all outputs are
 777:RelayTest_Complete.c **** //    else
 778:RelayTest_Complete.c **** //        return(0);                                                          // If not pass, then 
 779:RelayTest_Complete.c **** //}
 780:RelayTest_Complete.c **** 
 781:RelayTest_Complete.c **** /* 230400/115200bps **************************************************************************
 782:RelayTest_Complete.c **** *  230400 - Tx - Send 'S' packet   (controller to relay/siren)    - turn on all relay outputs
 783:RelayTest_Complete.c **** *  115200 - Rx - Read 'S' packet   (relay to datalink device)     - verify successful packet recept
 784:RelayTest_Complete.c **** *  Return: Pass/Fail
 785:RelayTest_Complete.c **** *********************************************************************************************/
 786:RelayTest_Complete.c **** uint8 RTest_Complete_Test_DataLink(void)
 787:RelayTest_Complete.c **** {
 1039              		.loc 1 787 0
 1040              		.cfi_startproc
 1041              		@ args = 0, pretend = 0, frame = 0
 1042              		@ frame_needed = 1, uses_anonymous_args = 0
 1043 0000 80B5     		push	{r7, lr}
 1044              		.cfi_def_cfa_offset 8
 1045              		.cfi_offset 7, -8
 1046              		.cfi_offset 14, -4
 1047 0002 00AF     		add	r7, sp, #0
 1048              		.cfi_def_cfa_register 7
 788:RelayTest_Complete.c ****     
 789:RelayTest_Complete.c ****     MUX_CTRL_115200_Write(RTEST_DLINK1);            //Select the RTest_RS485_DLink1_RX channel 
 1049              		.loc 1 789 0
 1050 0004 0020     		movs	r0, #0
 1051 0006 FFF7FEFF 		bl	MUX_CTRL_115200_Write
 790:RelayTest_Complete.c ****     while( (!VerifyPacket_115200(RTEST_DLINK)) && (RTest_CompleteStatus[CurrentTest.TestStep] != 'F
 1052              		.loc 1 790 0
 1053 000a 00BF     		nop
 1054              	.L71:
 1055              		.loc 1 790 0 is_stmt 0 discriminator 2
ARM GAS  C:\Users\MARTHN~1\AppData\Local\Temp\cc2F0sRX.s 			page 34


 1056 000c 0020     		movs	r0, #0
 1057 000e FFF7FEFF 		bl	VerifyPacket_115200
 1058 0012 0346     		mov	r3, r0
 1059 0014 002B     		cmp	r3, #0
 1060 0016 06D1     		bne	.L70
 1061              		.loc 1 790 0 discriminator 1
 1062 0018 114B     		ldr	r3, .L76
 1063 001a 5B78     		ldrb	r3, [r3, #1]	@ zero_extendqisi2
 1064 001c 1A46     		mov	r2, r3
 1065 001e 114B     		ldr	r3, .L76+4
 1066 0020 9B5C     		ldrb	r3, [r3, r2]	@ zero_extendqisi2
 1067 0022 462B     		cmp	r3, #70
 1068 0024 F2D1     		bne	.L71
 1069              	.L70:
 791:RelayTest_Complete.c ****     {}  
 792:RelayTest_Complete.c ****     
 793:RelayTest_Complete.c ****     MUX_CTRL_115200_Write(RTEST_DLINK2);            //Select the RTest_RS485_DLink2_RX channel     
 1070              		.loc 1 793 0 is_stmt 1
 1071 0026 0120     		movs	r0, #1
 1072 0028 FFF7FEFF 		bl	MUX_CTRL_115200_Write
 794:RelayTest_Complete.c ****     while( (!VerifyPacket_115200(RTEST_DLINK)) && (RTest_CompleteStatus[CurrentTest.TestStep] != 'F
 1073              		.loc 1 794 0
 1074 002c 00BF     		nop
 1075              	.L73:
 1076              		.loc 1 794 0 is_stmt 0 discriminator 2
 1077 002e 0020     		movs	r0, #0
 1078 0030 FFF7FEFF 		bl	VerifyPacket_115200
 1079 0034 0346     		mov	r3, r0
 1080 0036 002B     		cmp	r3, #0
 1081 0038 06D1     		bne	.L72
 1082              		.loc 1 794 0 discriminator 1
 1083 003a 094B     		ldr	r3, .L76
 1084 003c 5B78     		ldrb	r3, [r3, #1]	@ zero_extendqisi2
 1085 003e 1A46     		mov	r2, r3
 1086 0040 084B     		ldr	r3, .L76+4
 1087 0042 9B5C     		ldrb	r3, [r3, r2]	@ zero_extendqisi2
 1088 0044 462B     		cmp	r3, #70
 1089 0046 F2D1     		bne	.L73
 1090              	.L72:
 795:RelayTest_Complete.c ****     {} 
 796:RelayTest_Complete.c ****     
 797:RelayTest_Complete.c ****     if(RTest_CompleteStatus[CurrentTest.TestStep] != 'F')
 1091              		.loc 1 797 0 is_stmt 1
 1092 0048 054B     		ldr	r3, .L76
 1093 004a 5B78     		ldrb	r3, [r3, #1]	@ zero_extendqisi2
 1094 004c 1A46     		mov	r2, r3
 1095 004e 054B     		ldr	r3, .L76+4
 1096 0050 9B5C     		ldrb	r3, [r3, r2]	@ zero_extendqisi2
 1097 0052 462B     		cmp	r3, #70
 1098 0054 01D0     		beq	.L74
 798:RelayTest_Complete.c ****         return(1);                                      // If both packets get verified, then retur
 1099              		.loc 1 798 0
 1100 0056 0123     		movs	r3, #1
 1101 0058 00E0     		b	.L75
 1102              	.L74:
 799:RelayTest_Complete.c ****     else
 800:RelayTest_Complete.c ****         return(0); 
ARM GAS  C:\Users\MARTHN~1\AppData\Local\Temp\cc2F0sRX.s 			page 35


 1103              		.loc 1 800 0
 1104 005a 0023     		movs	r3, #0
 1105              	.L75:
 801:RelayTest_Complete.c **** }
 1106              		.loc 1 801 0
 1107 005c 1846     		mov	r0, r3
 1108 005e 80BD     		pop	{r7, pc}
 1109              	.L77:
 1110              		.align	2
 1111              	.L76:
 1112 0060 00000000 		.word	CurrentTest
 1113 0064 10010000 		.word	RTest_CompleteStatus
 1114              		.cfi_endproc
 1115              	.LFE64:
 1116              		.size	RTest_Complete_Test_DataLink, .-RTest_Complete_Test_DataLink
 1117              		.section	.text.RTest_Complete_sendDiagPacket,"ax",%progbits
 1118              		.align	2
 1119              		.global	RTest_Complete_sendDiagPacket
 1120              		.thumb
 1121              		.thumb_func
 1122              		.type	RTest_Complete_sendDiagPacket, %function
 1123              	RTest_Complete_sendDiagPacket:
 1124              	.LFB65:
 802:RelayTest_Complete.c **** 
 803:RelayTest_Complete.c **** /* 460800bps ********************************************************************************
 804:RelayTest_Complete.c **** *  Send 'L' packet   (controller to relay)
 805:RelayTest_Complete.c **** *  Read 'L' packet   (relay to quad device)  - verify successful packet reception
 806:RelayTest_Complete.c **** *  Return: Pass/Fail
 807:RelayTest_Complete.c **** *********************************************************************************************/
 808:RelayTest_Complete.c **** //uint8 RTest_Test_QuadPorts(void)
 809:RelayTest_Complete.c **** //{
 810:RelayTest_Complete.c **** //    for(uint8 i=0;i<8;i++)
 811:RelayTest_Complete.c **** //    {
 812:RelayTest_Complete.c **** //        MUX_CTRL_460800_Write(RTEST_QUAD_1 + i);                // Select RX channel         
 813:RelayTest_Complete.c **** //        while( (!VerifyPacket_460800(CTEST_RTEST_QUAD)) && (RTest_CompleteStatus[CurrentTest.Test
 814:RelayTest_Complete.c **** //        {}
 815:RelayTest_Complete.c **** //    }
 816:RelayTest_Complete.c **** //    
 817:RelayTest_Complete.c **** //    return(1);
 818:RelayTest_Complete.c **** //
 819:RelayTest_Complete.c **** //}
 820:RelayTest_Complete.c **** 
 821:RelayTest_Complete.c **** //*** This needs some work
 822:RelayTest_Complete.c **** /* 230400bps ********************************************************************************
 823:RelayTest_Complete.c **** *  ***Send 'H' packet   (siren to relay)
 824:RelayTest_Complete.c **** *  ***Read 'D' packet   (relay to controller)   - verify successful packet reception
 825:RelayTest_Complete.c **** *  Return: Pass/Fail
 826:RelayTest_Complete.c **** *********************************************************************************************/
 827:RelayTest_Complete.c **** //uint8 RTest_Test_UART_Siren(void)
 828:RelayTest_Complete.c **** //{
 829:RelayTest_Complete.c **** //           
 830:RelayTest_Complete.c **** //    pTxPacket_H = getTxPacket_H();                          // Tx - Send a 'H' packet from siren 
 831:RelayTest_Complete.c **** //    pTxPacket_H->Payload.SirenFirm_0 = 's';
 832:RelayTest_Complete.c **** //    pTxPacket_H->Payload.SirenFirm_1 = 's';
 833:RelayTest_Complete.c **** //    pTxPacket_H->Payload.SirenFirm_2 = 's';
 834:RelayTest_Complete.c **** //    pTxPacket_H->Payload.Speaker1_Overcurrent = 's';
 835:RelayTest_Complete.c **** //    pTxPacket_H->Payload.Speaker2_Overcurrent = 's';
ARM GAS  C:\Users\MARTHN~1\AppData\Local\Temp\cc2F0sRX.s 			page 36


 836:RelayTest_Complete.c **** //
 837:RelayTest_Complete.c **** //    MUX_CTRL_230400_Write(RTEST_CONT);                      // Rx - Verify data sent from relay t
 838:RelayTest_Complete.c **** //    
 839:RelayTest_Complete.c **** //    pRxPacket_Relay = getRxPacket_RelaySiren();                              // Rx - Get pointers
 840:RelayTest_Complete.c **** //    while(  ( (pRxPacket_RelaySiren->Payload.SirenFirm_0 != 's' ) &&           // Wait for the pa
 841:RelayTest_Complete.c **** //            (pRxPacket_RelaySiren->Payload.SirenFirm_1 != 's' ) &&
 842:RelayTest_Complete.c **** //            (pRxPacket_RelaySiren->Payload.SirenFirm_2 != 's' ) //&&
 843:RelayTest_Complete.c **** //            //(pRxPacket_RelaySiren->Payload.Speaker1_Overcurrent != 's' ) &&
 844:RelayTest_Complete.c **** //            //(pRxPacket_RelaySiren->Payload.Speaker2_Overcurrent != 's' )
 845:RelayTest_Complete.c **** //            ) && (RTest_CompleteStatus[CurrentTest.TestStep] != 'F') )
 846:RelayTest_Complete.c **** //    {}
 847:RelayTest_Complete.c **** //          
 848:RelayTest_Complete.c **** //
 849:RelayTest_Complete.c **** //    //DEMUX_CTRL_230400_Write(RTEST_CONT);                            // Tx - Send a 'S' packet t
 850:RelayTest_Complete.c **** //    
 851:RelayTest_Complete.c **** ////    MUX_CTRL_230400_Write(RTEST_SIREN);                             // Rx - Verify a 'S' packet
 852:RelayTest_Complete.c **** ////    while( (!VerifyPacket_230400(STEST_RELAY)) && (RTestStatus[CurrentTest.TestStep] != 'F') )
 853:RelayTest_Complete.c **** ////    {}
 854:RelayTest_Complete.c **** //
 855:RelayTest_Complete.c **** //    return(1);
 856:RelayTest_Complete.c **** //}
 857:RelayTest_Complete.c **** 
 858:RelayTest_Complete.c **** 
 859:RelayTest_Complete.c **** /* 230400bps *****************************************************************************
 860:RelayTest_Complete.c **** *  Send 'P' packet (controller to relay) - set input logic  
 861:RelayTest_Complete.c **** *  Read 'D' packet (relay to controller) - verify the 'RelayInputs' byte 
 862:RelayTest_Complete.c **** *  Return: Pass/Fail
 863:RelayTest_Complete.c **** ******************************************************************************************/
 864:RelayTest_Complete.c **** //uint8 RTest_Test_Inputs(void)
 865:RelayTest_Complete.c **** //{
 866:RelayTest_Complete.c **** //    
 867:RelayTest_Complete.c **** ////    DEMUX_CTRL_230400_Write(RTEST_CONT);                // Tx - Send a 'P' packet to set input 
 868:RelayTest_Complete.c **** ////    pTxPacket_RelaySiren = getTxPacket_RelaySiren();   
 869:RelayTest_Complete.c **** ////    pTxPacket_RelaySiren->Payload.HiLoInputLogic = 0x00; 
 870:RelayTest_Complete.c **** ////    
 871:RelayTest_Complete.c **** ////    SetRelayInputs(0);
 872:RelayTest_Complete.c **** ////    
 873:RelayTest_Complete.c **** ////    MUX_CTRL_230400_Write(RTEST_CONT);                  // Rx - Verify all inputs are deactivat
 874:RelayTest_Complete.c **** ////    pRxPacket_Relay = getRxPacket_Relay();              
 875:RelayTest_Complete.c **** ////    if(pRxPacket_Relay->Payload.RelayInputs != 0x00) 
 876:RelayTest_Complete.c **** ////        return(0);
 877:RelayTest_Complete.c **** //    
 878:RelayTest_Complete.c **** //    DEMUX_CTRL_230400_Write(RTEST_CONT);                // Tx - Send a 'P' packet to set input lo
 879:RelayTest_Complete.c **** //    pTxPacket_RelaySiren = getTxPacket_RelaySiren();  
 880:RelayTest_Complete.c **** //    pTxPacket_RelaySiren->Payload.HiLoInputLogic = 0xFF; 
 881:RelayTest_Complete.c **** //
 882:RelayTest_Complete.c **** ////    MUX_CTRL_230400_Write(RTEST_CONT);                  // Rx - Verify all inputs are deactivat
 883:RelayTest_Complete.c **** ////    pRxPacket_Relay = getRxPacket_Relay();              
 884:RelayTest_Complete.c **** ////    if(pRxPacket_Relay->Payload.RelayInputs != 0x00) 
 885:RelayTest_Complete.c **** ////        return(0);
 886:RelayTest_Complete.c **** //    
 887:RelayTest_Complete.c **** //    SetRelayInputs(1);
 888:RelayTest_Complete.c **** //
 889:RelayTest_Complete.c **** //    MUX_CTRL_230400_Write(RTEST_CONT);                  // Rx - Verify all inputs are deactivated
 890:RelayTest_Complete.c **** //    pRxPacket_Relay = getRxPacket_Relay();  
 891:RelayTest_Complete.c **** //    if(pRxPacket_RelaySiren->Payload.RelayInputs == 0xFF)    // Verify all inputs are activated, 
 892:RelayTest_Complete.c **** //        return(1);
ARM GAS  C:\Users\MARTHN~1\AppData\Local\Temp\cc2F0sRX.s 			page 37


 893:RelayTest_Complete.c **** //    
 894:RelayTest_Complete.c **** //    return(0);                                          // If this step was not failed, return pa
 895:RelayTest_Complete.c **** //}
 896:RelayTest_Complete.c **** 
 897:RelayTest_Complete.c **** 
 898:RelayTest_Complete.c **** /* 230400bps *****************************************************************************
 899:RelayTest_Complete.c **** *  Read a 'D' packet (relay to controller)  - verify the 'Voltage_BATT' byte
 900:RelayTest_Complete.c **** *  Return: Pass/Fail
 901:RelayTest_Complete.c **** ******************************************************************************************/
 902:RelayTest_Complete.c **** //uint8 RTest_Test_Vbatt(void)
 903:RelayTest_Complete.c **** //{
 904:RelayTest_Complete.c **** //    MUX_CTRL_230400_Write(RTEST_CONT);                              // Rx - Select the mux channe
 905:RelayTest_Complete.c **** //    pRxPacket_RelaySiren = getRxPacket_RelaySiren();                          // Rx - Get pointer
 906:RelayTest_Complete.c **** //    
 907:RelayTest_Complete.c **** //    uint8 Vbatt_Reading = 0;
 908:RelayTest_Complete.c **** //    
 909:RelayTest_Complete.c **** //    Vbatt_Reading = pRxPacket_RelaySiren->Payload.Voltage_BATT;          // Read Vbatt value
 910:RelayTest_Complete.c **** //    
 911:RelayTest_Complete.c **** //    if( (Vbatt_Reading < (VOLTAGE_SYSTEM + TOLERANCE_VOLTAGE) ) &&
 912:RelayTest_Complete.c **** //        (Vbatt_Reading > (VOLTAGE_SYSTEM - TOLERANCE_VOLTAGE) ) )
 913:RelayTest_Complete.c **** //        return(1);                                                  // If Vbatt is within TOLERAN
 914:RelayTest_Complete.c **** //    else
 915:RelayTest_Complete.c **** //        return(0);                                                  // If not pass, then return f
 916:RelayTest_Complete.c **** //}
 917:RelayTest_Complete.c **** 
 918:RelayTest_Complete.c **** /* 230400bps ***************************************************************
 919:RelayTest_Complete.c **** *  Send a 'P'/'I' packet (controller to relay)  - Controller packet to turn on all the Relay output
 920:RelayTest_Complete.c **** *  Read a 'D' packet (relay to controller)  - verify block currents are within a tolerance
 921:RelayTest_Complete.c **** ****************************************************************************/
 922:RelayTest_Complete.c **** //uint8 RTest_Test_BlockCurrents(void)
 923:RelayTest_Complete.c **** //{
 924:RelayTest_Complete.c **** //    
 925:RelayTest_Complete.c **** //    uint8 BlockCurrentPass = 0x00;
 926:RelayTest_Complete.c **** //    uint8 BlockCurrentValue = 0x00;
 927:RelayTest_Complete.c **** //    
 928:RelayTest_Complete.c **** //    MUX_CTRL_230400_Write(RTEST_CONT);                  // Rx - Select the mux channel 
 929:RelayTest_Complete.c **** //    pRxPacket_RelaySiren = getRxPacket_RelaySiren();              // Rx - Get pointers to packet
 930:RelayTest_Complete.c **** //    
 931:RelayTest_Complete.c **** //    DEMUX_CTRL_230400_Write(RTEST_CONT);                // Tx - Select the demux channel
 932:RelayTest_Complete.c **** //    pTxPacket_RelaySiren = getTxPacket_RelaySiren();              // Tx - Get pointers to packet
 933:RelayTest_Complete.c **** //    
 934:RelayTest_Complete.c **** //    for(uint8 i=0;i<4;i++)                              // Save pass/fail for each block channel
 935:RelayTest_Complete.c **** //    {
 936:RelayTest_Complete.c **** //        BlockCurrentValue = RTest_BlockCurrent(i);
 937:RelayTest_Complete.c **** //        BlockCurrentPass = (BlockCurrentPass << 1) | BlockCurrentValue;
 938:RelayTest_Complete.c **** //    }
 939:RelayTest_Complete.c **** //    
 940:RelayTest_Complete.c **** //    if( (BlockCurrentPass & 0x0F) == 0x0F)
 941:RelayTest_Complete.c **** //        return(1);                                      // If all block currents are within TOLER
 942:RelayTest_Complete.c **** //    else
 943:RelayTest_Complete.c **** //        return(0);                                      // If not pass, then return fail
 944:RelayTest_Complete.c **** //
 945:RelayTest_Complete.c **** //}
 946:RelayTest_Complete.c **** 
 947:RelayTest_Complete.c **** ///* 230400bps ****************************************************
 948:RelayTest_Complete.c **** //*   (wait for the GPS hardware to acquire a signal)
 949:RelayTest_Complete.c **** //*   Read the GPS packet - search for the GPS formated data
ARM GAS  C:\Users\MARTHN~1\AppData\Local\Temp\cc2F0sRX.s 			page 38


 950:RelayTest_Complete.c **** //*****************************************************************/
 951:RelayTest_Complete.c **** //uint8 RTest_Test_GPS(void)
 952:RelayTest_Complete.c **** //{
 953:RelayTest_Complete.c **** //    
 954:RelayTest_Complete.c **** //    //static uint8 targetstring[6] = {'$','G','P','M','R','C'};
 955:RelayTest_Complete.c **** //
 956:RelayTest_Complete.c **** //    uint8 findpacket(uint8 dataByte);  // - this should pass the target string
 957:RelayTest_Complete.c **** //    //processByteReceivedHandler_230400(&targetstring);
 958:RelayTest_Complete.c **** //
 959:RelayTest_Complete.c **** //    
 960:RelayTest_Complete.c **** //    
 961:RelayTest_Complete.c **** //    return(0);
 962:RelayTest_Complete.c **** //}
 963:RelayTest_Complete.c **** 
 964:RelayTest_Complete.c **** //RxPacket_RelaySiren * getRxPacket_Relay(void)
 965:RelayTest_Complete.c **** //{
 966:RelayTest_Complete.c **** //    pRxPacket_Relay = &rxPacket_Relay;
 967:RelayTest_Complete.c **** //    
 968:RelayTest_Complete.c **** //    return pRxPacket_Relay;
 969:RelayTest_Complete.c **** //}
 970:RelayTest_Complete.c **** 
 971:RelayTest_Complete.c **** //RxPacket_RelaySiren * getRxPacket_RelayS(void)
 972:RelayTest_Complete.c **** //{
 973:RelayTest_Complete.c **** //    pRxPacket_Relay = &rxPacket_Relay;
 974:RelayTest_Complete.c **** //    
 975:RelayTest_Complete.c **** //    return pRxPacket_Relay;
 976:RelayTest_Complete.c **** 
 977:RelayTest_Complete.c **** //TxPacket_Relay * getTxPacket_Relay()
 978:RelayTest_Complete.c **** //{
 979:RelayTest_Complete.c **** //    pTxPacket_Relay = &txPacket_Relay;
 980:RelayTest_Complete.c **** //    
 981:RelayTest_Complete.c **** //    return pTxPacket_Relay;
 982:RelayTest_Complete.c **** //}
 983:RelayTest_Complete.c **** 
 984:RelayTest_Complete.c **** //RxPacket_Siren * getRxPacket_Siren()
 985:RelayTest_Complete.c **** //{
 986:RelayTest_Complete.c **** //    pRxPacket_Siren = &rxPacket_Siren;
 987:RelayTest_Complete.c **** //    
 988:RelayTest_Complete.c **** //    return pRxPacket_Siren;
 989:RelayTest_Complete.c **** //}
 990:RelayTest_Complete.c **** 
 991:RelayTest_Complete.c **** //TxPacket_RelaySiren * getTxPacket_RelaySiren()          // STest Tx - 'I' packet sent to relay an
 992:RelayTest_Complete.c **** //{
 993:RelayTest_Complete.c **** //    pTxPacket_RelaySiren = &txPacket_RelaySiren;
 994:RelayTest_Complete.c **** //    
 995:RelayTest_Complete.c **** //    return pTxPacket_RelaySiren;
 996:RelayTest_Complete.c **** //}
 997:RelayTest_Complete.c **** 
 998:RelayTest_Complete.c **** //RxPacket_RelaySiren * getRxPacket_RelaySiren()          // STest - 'D' packet sent to controller 
 999:RelayTest_Complete.c **** //{
1000:RelayTest_Complete.c **** //    pRxPacket_RelaySiren = &rxPacket_RelaySiren;
1001:RelayTest_Complete.c **** //    
1002:RelayTest_Complete.c **** //    return pRxPacket_RelaySiren;
1003:RelayTest_Complete.c **** //}
1004:RelayTest_Complete.c **** 
1005:RelayTest_Complete.c **** //Packet_H * getPacket_H(void);
1006:RelayTest_Complete.c **** //Packet_H * getTxPacket_H()
ARM GAS  C:\Users\MARTHN~1\AppData\Local\Temp\cc2F0sRX.s 			page 39


1007:RelayTest_Complete.c **** //{
1008:RelayTest_Complete.c **** //    pTxPacket_H = &txPacket_H;
1009:RelayTest_Complete.c **** //    
1010:RelayTest_Complete.c **** //    return pTxPacket_H;
1011:RelayTest_Complete.c **** //}
1012:RelayTest_Complete.c **** 
1013:RelayTest_Complete.c **** //Packet_H * getRxPacket_H()
1014:RelayTest_Complete.c **** //{
1015:RelayTest_Complete.c **** //    pRxPacket_H = &rxPacket_H;
1016:RelayTest_Complete.c **** //    
1017:RelayTest_Complete.c **** //    return pRxPacket_H;
1018:RelayTest_Complete.c **** //}
1019:RelayTest_Complete.c **** 
1020:RelayTest_Complete.c **** 
1021:RelayTest_Complete.c **** //RxPacket_Quad * getTxPacket_Quad()              //***
1022:RelayTest_Complete.c **** //{
1023:RelayTest_Complete.c **** //    pTxPacket_Quad = &txPacket_Quad;
1024:RelayTest_Complete.c **** //    
1025:RelayTest_Complete.c **** //    return pTxPacket_Quad;
1026:RelayTest_Complete.c **** //}
1027:RelayTest_Complete.c **** 
1028:RelayTest_Complete.c **** void RTest_Complete_sendDiagPacket(void)
1029:RelayTest_Complete.c **** {
 1125              		.loc 1 1029 0
 1126              		.cfi_startproc
 1127              		@ args = 0, pretend = 0, frame = 8
 1128              		@ frame_needed = 1, uses_anonymous_args = 0
 1129 0000 80B5     		push	{r7, lr}
 1130              		.cfi_def_cfa_offset 8
 1131              		.cfi_offset 7, -8
 1132              		.cfi_offset 14, -4
 1133 0002 82B0     		sub	sp, sp, #8
 1134              		.cfi_def_cfa_offset 16
 1135 0004 00AF     		add	r7, sp, #0
 1136              		.cfi_def_cfa_register 7
 1137              	.LBB5:
1030:RelayTest_Complete.c **** 
1031:RelayTest_Complete.c ****     static uint8 RelayTestStatus_display[ (NUMBER_TEST_STEPS*2) ];
1032:RelayTest_Complete.c ****     
1033:RelayTest_Complete.c ****     for(uint8 i=0;i<NUMBER_TEST_STEPS;i++)
 1138              		.loc 1 1033 0
 1139 0006 0023     		movs	r3, #0
 1140 0008 FB71     		strb	r3, [r7, #7]
 1141 000a 0FE0     		b	.L79
 1142              	.L80:
1034:RelayTest_Complete.c ****     {
1035:RelayTest_Complete.c ****         RelayTestStatus_display[i*2] = RTest_CompleteStatus[i];
 1143              		.loc 1 1035 0 discriminator 3
 1144 000c FB79     		ldrb	r3, [r7, #7]	@ zero_extendqisi2
 1145 000e 5B00     		lsls	r3, r3, #1
 1146 0010 FA79     		ldrb	r2, [r7, #7]	@ zero_extendqisi2
 1147 0012 0F49     		ldr	r1, .L82
 1148 0014 895C     		ldrb	r1, [r1, r2]	@ zero_extendqisi2
 1149 0016 0F4A     		ldr	r2, .L82+4
 1150 0018 D154     		strb	r1, [r2, r3]
1036:RelayTest_Complete.c ****         RelayTestStatus_display[(i*2) + 1] = ' ';
 1151              		.loc 1 1036 0 discriminator 3
ARM GAS  C:\Users\MARTHN~1\AppData\Local\Temp\cc2F0sRX.s 			page 40


 1152 001a FB79     		ldrb	r3, [r7, #7]	@ zero_extendqisi2
 1153 001c 5B00     		lsls	r3, r3, #1
 1154 001e 0133     		adds	r3, r3, #1
 1155 0020 0C4A     		ldr	r2, .L82+4
 1156 0022 2021     		movs	r1, #32
 1157 0024 D154     		strb	r1, [r2, r3]
1033:RelayTest_Complete.c ****     {
 1158              		.loc 1 1033 0 discriminator 3
 1159 0026 FB79     		ldrb	r3, [r7, #7]	@ zero_extendqisi2
 1160 0028 0133     		adds	r3, r3, #1
 1161 002a FB71     		strb	r3, [r7, #7]
 1162              	.L79:
1033:RelayTest_Complete.c ****     {
 1163              		.loc 1 1033 0 is_stmt 0 discriminator 1
 1164 002c FB79     		ldrb	r3, [r7, #7]	@ zero_extendqisi2
 1165 002e 0D2B     		cmp	r3, #13
 1166 0030 ECD9     		bls	.L80
 1167              	.LBE5:
1037:RelayTest_Complete.c ****     }
1038:RelayTest_Complete.c ****     
1039:RelayTest_Complete.c ****     //DEMUX_CTRL_115200_Write(RTEST_SIREN);
1040:RelayTest_Complete.c ****     
1041:RelayTest_Complete.c ****     UART_115200_PutArray(RelayTestStatus_display, (NUMBER_TEST_STEPS*2) );
 1168              		.loc 1 1041 0 is_stmt 1
 1169 0032 1C21     		movs	r1, #28
 1170 0034 0748     		ldr	r0, .L82+4
 1171 0036 FFF7FEFF 		bl	UART_115200_PutArray
1042:RelayTest_Complete.c ****     
1043:RelayTest_Complete.c ****     UART_115200_PutChar('\r');
 1172              		.loc 1 1043 0
 1173 003a 0D20     		movs	r0, #13
 1174 003c FFF7FEFF 		bl	UART_115200_PutChar
1044:RelayTest_Complete.c ****     UART_115200_PutChar('\n');
 1175              		.loc 1 1044 0
 1176 0040 0A20     		movs	r0, #10
 1177 0042 FFF7FEFF 		bl	UART_115200_PutChar
1045:RelayTest_Complete.c ****     
1046:RelayTest_Complete.c ****     return;
 1178              		.loc 1 1046 0
 1179 0046 00BF     		nop
1047:RelayTest_Complete.c **** }
 1180              		.loc 1 1047 0
 1181 0048 0837     		adds	r7, r7, #8
 1182              		.cfi_def_cfa_offset 8
 1183 004a BD46     		mov	sp, r7
 1184              		.cfi_def_cfa_register 13
 1185              		@ sp needed
 1186 004c 80BD     		pop	{r7, pc}
 1187              	.L83:
 1188 004e 00BF     		.align	2
 1189              	.L82:
 1190 0050 10010000 		.word	RTest_CompleteStatus
 1191 0054 20010000 		.word	RelayTestStatus_display.7557
 1192              		.cfi_endproc
 1193              	.LFE65:
 1194              		.size	RTest_Complete_sendDiagPacket, .-RTest_Complete_sendDiagPacket
 1195              		.section	.text.RTest_Complete_isr_PB,"ax",%progbits
ARM GAS  C:\Users\MARTHN~1\AppData\Local\Temp\cc2F0sRX.s 			page 41


 1196              		.align	2
 1197              		.global	RTest_Complete_isr_PB
 1198              		.thumb
 1199              		.thumb_func
 1200              		.type	RTest_Complete_isr_PB, %function
 1201              	RTest_Complete_isr_PB:
 1202              	.LFB66:
1048:RelayTest_Complete.c **** 
1049:RelayTest_Complete.c **** //void ProcessFailure(void)
1050:RelayTest_Complete.c **** //{
1051:RelayTest_Complete.c **** ////    
1052:RelayTest_Complete.c **** ////    RelayTestStatus[TestState] = 'F';
1053:RelayTest_Complete.c **** ////    //RelayTestStatus[TestState] = 'B';                   // *** dont fail the unit, keep tryin
1054:RelayTest_Complete.c **** ////    
1055:RelayTest_Complete.c **** //////    TestState++;
1056:RelayTest_Complete.c **** //////    if(TestState >=10)
1057:RelayTest_Complete.c **** //////        TestState = 0;
1058:RelayTest_Complete.c **** ////    
1059:RelayTest_Complete.c **** ////    LED_EN_Write(1);
1060:RelayTest_Complete.c **** ////    
1061:RelayTest_Complete.c **** ////    return;
1062:RelayTest_Complete.c **** //}
1063:RelayTest_Complete.c **** 
1064:RelayTest_Complete.c **** /**********************************************************************
1065:RelayTest_Complete.c **** *   230400bps
1066:RelayTest_Complete.c **** *   - Read (the output bytes) and see that they are within TOLERANCE_CURRENT
1067:RelayTest_Complete.c **** *   - Return: pass/fail
1068:RelayTest_Complete.c **** **********************************************************************/
1069:RelayTest_Complete.c **** //uint8 RTest_BlockCurrent(uint8 block)
1070:RelayTest_Complete.c **** //{
1071:RelayTest_Complete.c **** //    
1072:RelayTest_Complete.c **** //    uint8 Current_Reading = 0;
1073:RelayTest_Complete.c **** //    
1074:RelayTest_Complete.c **** //    pRxPacket_RelaySiren = getRxPacket_RelaySiren();
1075:RelayTest_Complete.c **** //    
1076:RelayTest_Complete.c **** //    if(block == 0)
1077:RelayTest_Complete.c **** //        Current_Reading = pRxPacket_RelaySiren->Payload.BlockCurrent_1;
1078:RelayTest_Complete.c **** //    else if(block == 1)
1079:RelayTest_Complete.c **** //        Current_Reading = pRxPacket_RelaySiren->Payload.BlockCurrent_2;
1080:RelayTest_Complete.c **** //    else if(block == 2)
1081:RelayTest_Complete.c **** //        Current_Reading = pRxPacket_RelaySiren->Payload.BlockCurrent_3;
1082:RelayTest_Complete.c **** //    else if(block == 3)
1083:RelayTest_Complete.c **** //        Current_Reading = pRxPacket_RelaySiren->Payload.BlockCurrent_4;
1084:RelayTest_Complete.c **** //    else 
1085:RelayTest_Complete.c **** //        return(0);
1086:RelayTest_Complete.c **** //    
1087:RelayTest_Complete.c **** //    if( (Current_Reading < (CURRENT_LOAD + TOLERANCE_CURRENT) ) &&
1088:RelayTest_Complete.c **** //        (Current_Reading > (CURRENT_LOAD - TOLERANCE_CURRENT) ) )
1089:RelayTest_Complete.c **** //        return(1);
1090:RelayTest_Complete.c **** //    else
1091:RelayTest_Complete.c **** //        return(0);
1092:RelayTest_Complete.c **** //        
1093:RelayTest_Complete.c **** //}
1094:RelayTest_Complete.c **** 
1095:RelayTest_Complete.c **** //void RTest_10ms_isr(void)                       // Times Quad and Audio packets
1096:RelayTest_Complete.c **** //{
1097:RelayTest_Complete.c **** //
ARM GAS  C:\Users\MARTHN~1\AppData\Local\Temp\cc2F0sRX.s 			page 42


1098:RelayTest_Complete.c **** //    if(CurrentTest.TestStep == QUAD_PORTS)        // *** moved to 20ms  
1099:RelayTest_Complete.c **** //        sendPacketToRelay_Quad();
1100:RelayTest_Complete.c **** //
1101:RelayTest_Complete.c **** //    return;
1102:RelayTest_Complete.c **** //    
1103:RelayTest_Complete.c **** //}
1104:RelayTest_Complete.c **** 
1105:RelayTest_Complete.c **** void RTest_Complete_isr_PB(void)
1106:RelayTest_Complete.c **** {
 1203              		.loc 1 1106 0
 1204              		.cfi_startproc
 1205              		@ args = 0, pretend = 0, frame = 0
 1206              		@ frame_needed = 1, uses_anonymous_args = 0
 1207 0000 80B5     		push	{r7, lr}
 1208              		.cfi_def_cfa_offset 8
 1209              		.cfi_offset 7, -8
 1210              		.cfi_offset 14, -4
 1211 0002 00AF     		add	r7, sp, #0
 1212              		.cfi_def_cfa_register 7
1107:RelayTest_Complete.c ****     static uint8 PB_NextAction_debouncecount = 0;
1108:RelayTest_Complete.c ****     static uint8 PB_NextAction_failcount = 0;
1109:RelayTest_Complete.c ****     static uint8 PB_NextAction_prevstate = 0;
1110:RelayTest_Complete.c ****     
1111:RelayTest_Complete.c ****     static uint8 debouncetrue = 0;
1112:RelayTest_Complete.c ****     
1113:RelayTest_Complete.c ****     static uint8 PB_reading = 0;
1114:RelayTest_Complete.c ****     static uint8 PB_reading_previous = 0;
1115:RelayTest_Complete.c ****     PB_reading = PB_NextAction_Read();
 1213              		.loc 1 1115 0
 1214 0004 FFF7FEFF 		bl	PB_NextAction_Read
 1215 0008 0346     		mov	r3, r0
 1216 000a 1A46     		mov	r2, r3
 1217 000c 2C4B     		ldr	r3, .L94
 1218 000e 1A70     		strb	r2, [r3]
1116:RelayTest_Complete.c ****     
1117:RelayTest_Complete.c ****     
1118:RelayTest_Complete.c ****     if(PB_reading == PB_reading_previous)               // If reading is the same as the last, incr
 1219              		.loc 1 1118 0
 1220 0010 2B4B     		ldr	r3, .L94
 1221 0012 1A78     		ldrb	r2, [r3]	@ zero_extendqisi2
 1222 0014 2B4B     		ldr	r3, .L94+4
 1223 0016 1B78     		ldrb	r3, [r3]	@ zero_extendqisi2
 1224 0018 9A42     		cmp	r2, r3
 1225 001a 06D1     		bne	.L85
1119:RelayTest_Complete.c ****         PB_NextAction_debouncecount++;
 1226              		.loc 1 1119 0
 1227 001c 2A4B     		ldr	r3, .L94+8
 1228 001e 1B78     		ldrb	r3, [r3]	@ zero_extendqisi2
 1229 0020 0133     		adds	r3, r3, #1
 1230 0022 DAB2     		uxtb	r2, r3
 1231 0024 284B     		ldr	r3, .L94+8
 1232 0026 1A70     		strb	r2, [r3]
 1233 0028 02E0     		b	.L86
 1234              	.L85:
1120:RelayTest_Complete.c ****     else
1121:RelayTest_Complete.c ****         PB_NextAction_debouncecount = 0;
 1235              		.loc 1 1121 0
ARM GAS  C:\Users\MARTHN~1\AppData\Local\Temp\cc2F0sRX.s 			page 43


 1236 002a 274B     		ldr	r3, .L94+8
 1237 002c 0022     		movs	r2, #0
 1238 002e 1A70     		strb	r2, [r3]
 1239              	.L86:
1122:RelayTest_Complete.c ****     
1123:RelayTest_Complete.c ****     if(PB_NextAction_debouncecount > DEBOUNCE_COUNT)    // Set debouncetrue
 1240              		.loc 1 1123 0
 1241 0030 254B     		ldr	r3, .L94+8
 1242 0032 1B78     		ldrb	r3, [r3]	@ zero_extendqisi2
 1243 0034 022B     		cmp	r3, #2
 1244 0036 06D9     		bls	.L87
1124:RelayTest_Complete.c ****     {
1125:RelayTest_Complete.c ****         debouncetrue = PB_reading;
 1245              		.loc 1 1125 0
 1246 0038 214B     		ldr	r3, .L94
 1247 003a 1A78     		ldrb	r2, [r3]	@ zero_extendqisi2
 1248 003c 234B     		ldr	r3, .L94+12
 1249 003e 1A70     		strb	r2, [r3]
1126:RelayTest_Complete.c ****         PB_NextAction_debouncecount = 0;
 1250              		.loc 1 1126 0
 1251 0040 214B     		ldr	r3, .L94+8
 1252 0042 0022     		movs	r2, #0
 1253 0044 1A70     		strb	r2, [r3]
 1254              	.L87:
1127:RelayTest_Complete.c ****     }
1128:RelayTest_Complete.c **** 
1129:RelayTest_Complete.c ****     PB_reading_previous = PB_reading;                   // Save current reading for next interrupt
 1255              		.loc 1 1129 0
 1256 0046 1E4B     		ldr	r3, .L94
 1257 0048 1A78     		ldrb	r2, [r3]	@ zero_extendqisi2
 1258 004a 1E4B     		ldr	r3, .L94+4
 1259 004c 1A70     		strb	r2, [r3]
1130:RelayTest_Complete.c ****     
1131:RelayTest_Complete.c ****     if(debouncetrue == 1)                               // If debounced and asserted
 1260              		.loc 1 1131 0
 1261 004e 1F4B     		ldr	r3, .L94+12
 1262 0050 1B78     		ldrb	r3, [r3]	@ zero_extendqisi2
 1263 0052 012B     		cmp	r3, #1
 1264 0054 09D1     		bne	.L88
1132:RelayTest_Complete.c ****     {
1133:RelayTest_Complete.c ****         PB_NextAction_Pressed = 1;
 1265              		.loc 1 1133 0
 1266 0056 1E4B     		ldr	r3, .L94+16
 1267 0058 0122     		movs	r2, #1
 1268 005a 1A70     		strb	r2, [r3]
1134:RelayTest_Complete.c ****         PB_NextAction_failcount++;
 1269              		.loc 1 1134 0
 1270 005c 1D4B     		ldr	r3, .L94+20
 1271 005e 1B78     		ldrb	r3, [r3]	@ zero_extendqisi2
 1272 0060 0133     		adds	r3, r3, #1
 1273 0062 DAB2     		uxtb	r2, r3
 1274 0064 1B4B     		ldr	r3, .L94+20
 1275 0066 1A70     		strb	r2, [r3]
 1276 0068 05E0     		b	.L89
 1277              	.L88:
1135:RelayTest_Complete.c ****     }
1136:RelayTest_Complete.c ****     else
ARM GAS  C:\Users\MARTHN~1\AppData\Local\Temp\cc2F0sRX.s 			page 44


1137:RelayTest_Complete.c ****     {
1138:RelayTest_Complete.c ****         PB_NextAction_Pressed = 0;
 1278              		.loc 1 1138 0
 1279 006a 194B     		ldr	r3, .L94+16
 1280 006c 0022     		movs	r2, #0
 1281 006e 1A70     		strb	r2, [r3]
1139:RelayTest_Complete.c ****         PB_NextAction_failcount = 0;
 1282              		.loc 1 1139 0
 1283 0070 184B     		ldr	r3, .L94+20
 1284 0072 0022     		movs	r2, #0
 1285 0074 1A70     		strb	r2, [r3]
 1286              	.L89:
1140:RelayTest_Complete.c ****     }
1141:RelayTest_Complete.c ****     
1142:RelayTest_Complete.c **** 
1143:RelayTest_Complete.c ****     if(PB_NextAction_failcount > 75)                       // If PB is held for (150 * 20msec = 3se
 1287              		.loc 1 1143 0
 1288 0076 174B     		ldr	r3, .L94+20
 1289 0078 1B78     		ldrb	r3, [r3]	@ zero_extendqisi2
 1290 007a 4B2B     		cmp	r3, #75
 1291 007c 0BD9     		bls	.L90
1144:RelayTest_Complete.c ****     {  
1145:RelayTest_Complete.c ****         RTest_CompleteStatus[CurrentTest.TestStep] = 'F';
 1292              		.loc 1 1145 0
 1293 007e 164B     		ldr	r3, .L94+24
 1294 0080 5B78     		ldrb	r3, [r3, #1]	@ zero_extendqisi2
 1295 0082 1A46     		mov	r2, r3
 1296 0084 154B     		ldr	r3, .L94+28
 1297 0086 4621     		movs	r1, #70
 1298 0088 9954     		strb	r1, [r3, r2]
1146:RelayTest_Complete.c ****         CurrentTest.Status = 'F';
 1299              		.loc 1 1146 0
 1300 008a 134B     		ldr	r3, .L94+24
 1301 008c 4622     		movs	r2, #70
 1302 008e 9A70     		strb	r2, [r3, #2]
1147:RelayTest_Complete.c ****         PB_NextAction_failcount = 0;
 1303              		.loc 1 1147 0
 1304 0090 104B     		ldr	r3, .L94+20
 1305 0092 0022     		movs	r2, #0
 1306 0094 1A70     		strb	r2, [r3]
 1307              	.L90:
1148:RelayTest_Complete.c ****     }
1149:RelayTest_Complete.c ****     
1150:RelayTest_Complete.c **** 
1151:RelayTest_Complete.c ****     if( (PB_NextAction_prevstate == 1) && (PB_NextAction_Pressed == 0) )        // Determine if PB 
 1308              		.loc 1 1151 0
 1309 0096 124B     		ldr	r3, .L94+32
 1310 0098 1B78     		ldrb	r3, [r3]	@ zero_extendqisi2
 1311 009a 012B     		cmp	r3, #1
 1312 009c 07D1     		bne	.L91
 1313              		.loc 1 1151 0 is_stmt 0 discriminator 1
 1314 009e 0C4B     		ldr	r3, .L94+16
 1315 00a0 1B78     		ldrb	r3, [r3]	@ zero_extendqisi2
 1316 00a2 002B     		cmp	r3, #0
 1317 00a4 03D1     		bne	.L91
1152:RelayTest_Complete.c ****     {
1153:RelayTest_Complete.c ****         PB_NextAction_Released = 1;
ARM GAS  C:\Users\MARTHN~1\AppData\Local\Temp\cc2F0sRX.s 			page 45


 1318              		.loc 1 1153 0 is_stmt 1
 1319 00a6 0F4B     		ldr	r3, .L94+36
 1320 00a8 0122     		movs	r2, #1
 1321 00aa 1A70     		strb	r2, [r3]
 1322 00ac 02E0     		b	.L92
 1323              	.L91:
1154:RelayTest_Complete.c ****     }
1155:RelayTest_Complete.c ****     else
1156:RelayTest_Complete.c ****         PB_NextAction_Released = 0;
 1324              		.loc 1 1156 0
 1325 00ae 0D4B     		ldr	r3, .L94+36
 1326 00b0 0022     		movs	r2, #0
 1327 00b2 1A70     		strb	r2, [r3]
 1328              	.L92:
1157:RelayTest_Complete.c ****     
1158:RelayTest_Complete.c ****     PB_NextAction_prevstate = PB_NextAction_Pressed;
 1329              		.loc 1 1158 0
 1330 00b4 064B     		ldr	r3, .L94+16
 1331 00b6 1A78     		ldrb	r2, [r3]	@ zero_extendqisi2
 1332 00b8 094B     		ldr	r3, .L94+32
 1333 00ba 1A70     		strb	r2, [r3]
1159:RelayTest_Complete.c ****     
1160:RelayTest_Complete.c ****     return;
 1334              		.loc 1 1160 0
 1335 00bc 00BF     		nop
1161:RelayTest_Complete.c **** }
 1336              		.loc 1 1161 0
 1337 00be 80BD     		pop	{r7, pc}
 1338              	.L95:
 1339              		.align	2
 1340              	.L94:
 1341 00c0 3C010000 		.word	PB_reading.7569
 1342 00c4 3D010000 		.word	PB_reading_previous.7570
 1343 00c8 3E010000 		.word	PB_NextAction_debouncecount.7565
 1344 00cc 3F010000 		.word	debouncetrue.7568
 1345 00d0 0C010000 		.word	PB_NextAction_Pressed
 1346 00d4 40010000 		.word	PB_NextAction_failcount.7566
 1347 00d8 00000000 		.word	CurrentTest
 1348 00dc 10010000 		.word	RTest_CompleteStatus
 1349 00e0 41010000 		.word	PB_NextAction_prevstate.7567
 1350 00e4 0D010000 		.word	PB_NextAction_Released
 1351              		.cfi_endproc
 1352              	.LFE66:
 1353              		.size	RTest_Complete_isr_PB, .-RTest_Complete_isr_PB
 1354              		.section	.text.RTest_Complete_20ms_isr,"ax",%progbits
 1355              		.align	2
 1356              		.global	RTest_Complete_20ms_isr
 1357              		.thumb
 1358              		.thumb_func
 1359              		.type	RTest_Complete_20ms_isr, %function
 1360              	RTest_Complete_20ms_isr:
 1361              	.LFB67:
1162:RelayTest_Complete.c **** 
1163:RelayTest_Complete.c **** void RTest_Complete_20ms_isr(void)                       // Manage Timeout for failure
1164:RelayTest_Complete.c **** {
 1362              		.loc 1 1164 0
 1363              		.cfi_startproc
ARM GAS  C:\Users\MARTHN~1\AppData\Local\Temp\cc2F0sRX.s 			page 46


 1364              		@ args = 0, pretend = 0, frame = 0
 1365              		@ frame_needed = 1, uses_anonymous_args = 0
 1366 0000 80B5     		push	{r7, lr}
 1367              		.cfi_def_cfa_offset 8
 1368              		.cfi_offset 7, -8
 1369              		.cfi_offset 14, -4
 1370 0002 00AF     		add	r7, sp, #0
 1371              		.cfi_def_cfa_register 7
1165:RelayTest_Complete.c ****     if(CurrentTest.TestStep == QUAD_PORTS)       // *** send quad packet if needed 
 1372              		.loc 1 1165 0
 1373 0004 1A4B     		ldr	r3, .L104
 1374 0006 5B78     		ldrb	r3, [r3, #1]	@ zero_extendqisi2
 1375 0008 032B     		cmp	r3, #3
 1376 000a 01D1     		bne	.L97
1166:RelayTest_Complete.c ****     {
1167:RelayTest_Complete.c ****         sendPacketToRelay_Quad();
 1377              		.loc 1 1167 0
 1378 000c FFF7FEFF 		bl	sendPacketToRelay_Quad
 1379              	.L97:
1168:RelayTest_Complete.c ****     }
1169:RelayTest_Complete.c ****     
1170:RelayTest_Complete.c ****     RTest_Complete_20ms_isr_count++;                                         // 
 1380              		.loc 1 1170 0
 1381 0010 184B     		ldr	r3, .L104+4
 1382 0012 1B88     		ldrh	r3, [r3]
 1383 0014 0133     		adds	r3, r3, #1
 1384 0016 9AB2     		uxth	r2, r3
 1385 0018 164B     		ldr	r3, .L104+4
 1386 001a 1A80     		strh	r2, [r3]	@ movhi
1171:RelayTest_Complete.c **** 
1172:RelayTest_Complete.c ****     if(RTest_Complete_20ms_isr_count > RTest_Complete_TimeoutCount[CurrentTest.TestStep])
 1387              		.loc 1 1172 0
 1388 001c 144B     		ldr	r3, .L104
 1389 001e 5B78     		ldrb	r3, [r3, #1]	@ zero_extendqisi2
 1390 0020 1A46     		mov	r2, r3
 1391 0022 154B     		ldr	r3, .L104+8
 1392 0024 33F81220 		ldrh	r2, [r3, r2, lsl #1]
 1393 0028 124B     		ldr	r3, .L104+4
 1394 002a 1B88     		ldrh	r3, [r3]
 1395 002c 9A42     		cmp	r2, r3
 1396 002e 10D2     		bcs	.L98
1173:RelayTest_Complete.c ****     {
1174:RelayTest_Complete.c ****         RTest_Complete_20ms_isr_count = 0;
 1397              		.loc 1 1174 0
 1398 0030 104B     		ldr	r3, .L104+4
 1399 0032 0022     		movs	r2, #0
 1400 0034 1A80     		strh	r2, [r3]	@ movhi
1175:RelayTest_Complete.c ****         
1176:RelayTest_Complete.c ****         if(RTest_Complete_20ms_isr_EN == 1)
 1401              		.loc 1 1176 0
 1402 0036 114B     		ldr	r3, .L104+12
 1403 0038 1B88     		ldrh	r3, [r3]
 1404 003a 012B     		cmp	r3, #1
 1405 003c 14D1     		bne	.L102
1177:RelayTest_Complete.c ****         {
1178:RelayTest_Complete.c ****             RTest_CompleteStatus[CurrentTest.TestStep] = 'F';
 1406              		.loc 1 1178 0
ARM GAS  C:\Users\MARTHN~1\AppData\Local\Temp\cc2F0sRX.s 			page 47


 1407 003e 0C4B     		ldr	r3, .L104
 1408 0040 5B78     		ldrb	r3, [r3, #1]	@ zero_extendqisi2
 1409 0042 1A46     		mov	r2, r3
 1410 0044 0E4B     		ldr	r3, .L104+16
 1411 0046 4621     		movs	r1, #70
 1412 0048 9954     		strb	r1, [r3, r2]
1179:RelayTest_Complete.c ****             CurrentTest.Status = 'F';
 1413              		.loc 1 1179 0
 1414 004a 094B     		ldr	r3, .L104
 1415 004c 4622     		movs	r2, #70
 1416 004e 9A70     		strb	r2, [r3, #2]
1180:RelayTest_Complete.c ****         }
1181:RelayTest_Complete.c ****             
1182:RelayTest_Complete.c ****         return;
 1417              		.loc 1 1182 0
 1418 0050 0AE0     		b	.L102
 1419              	.L98:
1183:RelayTest_Complete.c ****     }
1184:RelayTest_Complete.c ****     
1185:RelayTest_Complete.c ****     if(RTest_Complete_20ms_isr_count > 65000)
 1420              		.loc 1 1185 0
 1421 0052 084B     		ldr	r3, .L104+4
 1422 0054 1B88     		ldrh	r3, [r3]
 1423 0056 4FF6E852 		movw	r2, #65000
 1424 005a 9342     		cmp	r3, r2
 1425 005c 06D9     		bls	.L103
1186:RelayTest_Complete.c ****         RTest_Complete_20ms_isr_count = 0;
 1426              		.loc 1 1186 0
 1427 005e 054B     		ldr	r3, .L104+4
 1428 0060 0022     		movs	r2, #0
 1429 0062 1A80     		strh	r2, [r3]	@ movhi
1187:RelayTest_Complete.c ****     
1188:RelayTest_Complete.c ****     return;
 1430              		.loc 1 1188 0
 1431 0064 00BF     		nop
 1432 0066 01E0     		b	.L103
 1433              	.L102:
1182:RelayTest_Complete.c ****     }
 1434              		.loc 1 1182 0
 1435 0068 00BF     		nop
 1436 006a 00E0     		b	.L96
 1437              	.L103:
 1438              		.loc 1 1188 0
 1439 006c 00BF     		nop
 1440              	.L96:
1189:RelayTest_Complete.c ****     
1190:RelayTest_Complete.c **** }
 1441              		.loc 1 1190 0
 1442 006e 80BD     		pop	{r7, pc}
 1443              	.L105:
 1444              		.align	2
 1445              	.L104:
 1446 0070 00000000 		.word	CurrentTest
 1447 0074 08010000 		.word	RTest_Complete_20ms_isr_count
 1448 0078 00000000 		.word	RTest_Complete_TimeoutCount
 1449 007c 0A010000 		.word	RTest_Complete_20ms_isr_EN
 1450 0080 10010000 		.word	RTest_CompleteStatus
ARM GAS  C:\Users\MARTHN~1\AppData\Local\Temp\cc2F0sRX.s 			page 48


 1451              		.cfi_endproc
 1452              	.LFE67:
 1453              		.size	RTest_Complete_20ms_isr, .-RTest_Complete_20ms_isr
 1454              		.section	.text.RTest_Complete_50ms_isr,"ax",%progbits
 1455              		.align	2
 1456              		.global	RTest_Complete_50ms_isr
 1457              		.thumb
 1458              		.thumb_func
 1459              		.type	RTest_Complete_50ms_isr, %function
 1460              	RTest_Complete_50ms_isr:
 1461              	.LFB68:
1191:RelayTest_Complete.c **** 
1192:RelayTest_Complete.c **** void RTest_Complete_50ms_isr(void)                       // Times interboard comms, and serial diag
1193:RelayTest_Complete.c **** {
 1462              		.loc 1 1193 0
 1463              		.cfi_startproc
 1464              		@ args = 0, pretend = 0, frame = 0
 1465              		@ frame_needed = 1, uses_anonymous_args = 0
 1466 0000 80B5     		push	{r7, lr}
 1467              		.cfi_def_cfa_offset 8
 1468              		.cfi_offset 7, -8
 1469              		.cfi_offset 14, -4
 1470 0002 00AF     		add	r7, sp, #0
 1471              		.cfi_def_cfa_register 7
1194:RelayTest_Complete.c ****     
1195:RelayTest_Complete.c ****     RTest_Complete_sendDiagPacket();
 1472              		.loc 1 1195 0
 1473 0004 FFF7FEFF 		bl	RTest_Complete_sendDiagPacket
1196:RelayTest_Complete.c ****     
1197:RelayTest_Complete.c ****     if( (CurrentTest.TestStep == INITIALIZE_TEST) ||
 1474              		.loc 1 1197 0
 1475 0008 144B     		ldr	r3, .L111
 1476 000a 5B78     		ldrb	r3, [r3, #1]	@ zero_extendqisi2
 1477 000c 002B     		cmp	r3, #0
 1478 000e 1FD0     		beq	.L107
1198:RelayTest_Complete.c ****         (CurrentTest.TestStep == TEST_OUTPUTS) ||
 1479              		.loc 1 1198 0 discriminator 1
 1480 0010 124B     		ldr	r3, .L111
 1481 0012 5B78     		ldrb	r3, [r3, #1]	@ zero_extendqisi2
1197:RelayTest_Complete.c ****         (CurrentTest.TestStep == TEST_OUTPUTS) ||
 1482              		.loc 1 1197 0 discriminator 1
 1483 0014 012B     		cmp	r3, #1
 1484 0016 1BD0     		beq	.L107
1199:RelayTest_Complete.c ****         (CurrentTest.TestStep == DATALINK) ||
 1485              		.loc 1 1199 0
 1486 0018 104B     		ldr	r3, .L111
 1487 001a 5B78     		ldrb	r3, [r3, #1]	@ zero_extendqisi2
1198:RelayTest_Complete.c ****         (CurrentTest.TestStep == TEST_OUTPUTS) ||
 1488              		.loc 1 1198 0
 1489 001c 022B     		cmp	r3, #2
 1490 001e 17D0     		beq	.L107
1200:RelayTest_Complete.c ****         //(CurrentTest.TestStep == UART_SIREN) ||
1201:RelayTest_Complete.c ****         (CurrentTest.TestStep == INPUTS) ||
 1491              		.loc 1 1201 0
 1492 0020 0E4B     		ldr	r3, .L111
 1493 0022 5B78     		ldrb	r3, [r3, #1]	@ zero_extendqisi2
1199:RelayTest_Complete.c ****         (CurrentTest.TestStep == DATALINK) ||
ARM GAS  C:\Users\MARTHN~1\AppData\Local\Temp\cc2F0sRX.s 			page 49


 1494              		.loc 1 1199 0
 1495 0024 042B     		cmp	r3, #4
 1496 0026 13D0     		beq	.L107
1202:RelayTest_Complete.c ****         (CurrentTest.TestStep == BLOCK_CURRENTS) ||
 1497              		.loc 1 1202 0
 1498 0028 0C4B     		ldr	r3, .L111
 1499 002a 5B78     		ldrb	r3, [r3, #1]	@ zero_extendqisi2
1201:RelayTest_Complete.c ****         (CurrentTest.TestStep == BLOCK_CURRENTS) ||
 1500              		.loc 1 1201 0
 1501 002c 062B     		cmp	r3, #6
 1502 002e 0FD0     		beq	.L107
1203:RelayTest_Complete.c ****         (CurrentTest.TestStep == AMP1) ||
 1503              		.loc 1 1203 0
 1504 0030 0A4B     		ldr	r3, .L111
 1505 0032 5B78     		ldrb	r3, [r3, #1]	@ zero_extendqisi2
1202:RelayTest_Complete.c ****         (CurrentTest.TestStep == BLOCK_CURRENTS) ||
 1506              		.loc 1 1202 0
 1507 0034 072B     		cmp	r3, #7
 1508 0036 0BD0     		beq	.L107
1204:RelayTest_Complete.c ****         (CurrentTest.TestStep == AMP2) ||
 1509              		.loc 1 1204 0
 1510 0038 084B     		ldr	r3, .L111
 1511 003a 5B78     		ldrb	r3, [r3, #1]	@ zero_extendqisi2
1203:RelayTest_Complete.c ****         (CurrentTest.TestStep == AMP1) ||
 1512              		.loc 1 1203 0
 1513 003c 082B     		cmp	r3, #8
 1514 003e 07D0     		beq	.L107
1205:RelayTest_Complete.c ****         (CurrentTest.TestStep == RRB) ||
 1515              		.loc 1 1205 0
 1516 0040 064B     		ldr	r3, .L111
 1517 0042 5B78     		ldrb	r3, [r3, #1]	@ zero_extendqisi2
1204:RelayTest_Complete.c ****         (CurrentTest.TestStep == AMP2) ||
 1518              		.loc 1 1204 0
 1519 0044 092B     		cmp	r3, #9
 1520 0046 03D0     		beq	.L107
1206:RelayTest_Complete.c ****         (CurrentTest.TestStep == FLASH) )
 1521              		.loc 1 1206 0
 1522 0048 044B     		ldr	r3, .L111
 1523 004a 5B78     		ldrb	r3, [r3, #1]	@ zero_extendqisi2
1205:RelayTest_Complete.c ****         (CurrentTest.TestStep == RRB) ||
 1524              		.loc 1 1205 0
 1525 004c 0B2B     		cmp	r3, #11
 1526 004e 02D1     		bne	.L110
 1527              	.L107:
1207:RelayTest_Complete.c ****         //(CurrentTest.TestStep == OVERLOAD) 
1208:RelayTest_Complete.c ****                                             
1209:RelayTest_Complete.c ****     {      
1210:RelayTest_Complete.c ****         sendPacketToRelaySiren();               //*** used for UART_SIREN
 1528              		.loc 1 1210 0
 1529 0050 FFF7FEFF 		bl	sendPacketToRelaySiren
1211:RelayTest_Complete.c ****     }
1212:RelayTest_Complete.c ****         
1213:RelayTest_Complete.c **** //    CyDelay(5);                                 // *** Give some time for first transmit to finis
1214:RelayTest_Complete.c **** //    
1215:RelayTest_Complete.c **** //    if( CurrentTest.TestStep == UART_SIREN )
1216:RelayTest_Complete.c **** //    {   
1217:RelayTest_Complete.c **** //        sendPacket_SirenToRelay();              //*** used for UART_SIREN
ARM GAS  C:\Users\MARTHN~1\AppData\Local\Temp\cc2F0sRX.s 			page 50


1218:RelayTest_Complete.c **** //    }
1219:RelayTest_Complete.c ****     
1220:RelayTest_Complete.c ****     return;
 1530              		.loc 1 1220 0
 1531 0054 00BF     		nop
 1532              	.L110:
 1533 0056 00BF     		nop
1221:RelayTest_Complete.c ****     
1222:RelayTest_Complete.c **** }
 1534              		.loc 1 1222 0
 1535 0058 80BD     		pop	{r7, pc}
 1536              	.L112:
 1537 005a 00BF     		.align	2
 1538              	.L111:
 1539 005c 00000000 		.word	CurrentTest
 1540              		.cfi_endproc
 1541              	.LFE68:
 1542              		.size	RTest_Complete_50ms_isr, .-RTest_Complete_50ms_isr
 1543              		.section	.text.RTest_Complete_StartAutomatedStep,"ax",%progbits
 1544              		.align	2
 1545              		.global	RTest_Complete_StartAutomatedStep
 1546              		.thumb
 1547              		.thumb_func
 1548              		.type	RTest_Complete_StartAutomatedStep, %function
 1549              	RTest_Complete_StartAutomatedStep:
 1550              	.LFB69:
1223:RelayTest_Complete.c **** 
1224:RelayTest_Complete.c **** //void SetRelayOutputs(uint8 enable)
1225:RelayTest_Complete.c **** //{
1226:RelayTest_Complete.c **** //    
1227:RelayTest_Complete.c **** //    DEMUX_CTRL_230400_Write(RTEST_CONT);                        // Tx - Select the demux channel
1228:RelayTest_Complete.c **** //    pTxPacket_RelaySiren = getTxPacket_RelaySiren();            // Tx - Get pointers to packet   
1229:RelayTest_Complete.c **** //    
1230:RelayTest_Complete.c **** //    if(enable == 1)
1231:RelayTest_Complete.c **** //    {
1232:RelayTest_Complete.c **** //        pTxPacket_RelaySiren->Payload.Outputs_1to8 = 0xFF;       // Turn on all Relay outputs
1233:RelayTest_Complete.c **** //        pTxPacket_RelaySiren->Payload.Outputs_9to16 = 0xFF;
1234:RelayTest_Complete.c **** //        pTxPacket_RelaySiren->Payload.Outputs_17to24 = 0xFF;
1235:RelayTest_Complete.c **** //        pTxPacket_RelaySiren->Payload.Outputs_25to32 = 0xFF;
1236:RelayTest_Complete.c **** //    }
1237:RelayTest_Complete.c **** //    else
1238:RelayTest_Complete.c **** //    {
1239:RelayTest_Complete.c **** //        pTxPacket_RelaySiren->Payload.Outputs_1to8 = 0x00;       // Turn off all Relay outputs
1240:RelayTest_Complete.c **** //        pTxPacket_RelaySiren->Payload.Outputs_9to16 = 0x00;
1241:RelayTest_Complete.c **** //        pTxPacket_RelaySiren->Payload.Outputs_17to24 = 0x00;
1242:RelayTest_Complete.c **** //        pTxPacket_RelaySiren->Payload.Outputs_25to32 = 0x00;
1243:RelayTest_Complete.c **** //    }
1244:RelayTest_Complete.c **** //        
1245:RelayTest_Complete.c **** //    return;
1246:RelayTest_Complete.c **** //    
1247:RelayTest_Complete.c **** //}
1248:RelayTest_Complete.c **** 
1249:RelayTest_Complete.c **** //void RTest_20ms_isr_start(void)
1250:RelayTest_Complete.c **** //{
1251:RelayTest_Complete.c **** //    
1252:RelayTest_Complete.c **** //    RTest_20ms_isr_count = 0;
1253:RelayTest_Complete.c **** //    
ARM GAS  C:\Users\MARTHN~1\AppData\Local\Temp\cc2F0sRX.s 			page 51


1254:RelayTest_Complete.c **** //    return;
1255:RelayTest_Complete.c **** //    
1256:RelayTest_Complete.c **** //}
1257:RelayTest_Complete.c **** 
1258:RelayTest_Complete.c **** void RTest_Complete_StartAutomatedStep(void)
1259:RelayTest_Complete.c **** {
 1551              		.loc 1 1259 0
 1552              		.cfi_startproc
 1553              		@ args = 0, pretend = 0, frame = 0
 1554              		@ frame_needed = 1, uses_anonymous_args = 0
 1555              		@ link register save eliminated.
 1556 0000 80B4     		push	{r7}
 1557              		.cfi_def_cfa_offset 4
 1558              		.cfi_offset 7, -4
 1559 0002 00AF     		add	r7, sp, #0
 1560              		.cfi_def_cfa_register 7
1260:RelayTest_Complete.c ****     
1261:RelayTest_Complete.c ****     RTest_CompleteStatus[CurrentTest.TestStep] = 'B';
 1561              		.loc 1 1261 0
 1562 0004 094B     		ldr	r3, .L115
 1563 0006 5B78     		ldrb	r3, [r3, #1]	@ zero_extendqisi2
 1564 0008 1A46     		mov	r2, r3
 1565 000a 094B     		ldr	r3, .L115+4
 1566 000c 4221     		movs	r1, #66
 1567 000e 9954     		strb	r1, [r3, r2]
1262:RelayTest_Complete.c ****     CurrentTest.Status = 'B';
 1568              		.loc 1 1262 0
 1569 0010 064B     		ldr	r3, .L115
 1570 0012 4222     		movs	r2, #66
 1571 0014 9A70     		strb	r2, [r3, #2]
1263:RelayTest_Complete.c ****     
1264:RelayTest_Complete.c ****     RTest_Complete_20ms_isr_count = 0;
 1572              		.loc 1 1264 0
 1573 0016 074B     		ldr	r3, .L115+8
 1574 0018 0022     		movs	r2, #0
 1575 001a 1A80     		strh	r2, [r3]	@ movhi
1265:RelayTest_Complete.c ****     RTest_Complete_20ms_isr_EN = 1;
 1576              		.loc 1 1265 0
 1577 001c 064B     		ldr	r3, .L115+12
 1578 001e 0122     		movs	r2, #1
 1579 0020 1A80     		strh	r2, [r3]	@ movhi
1266:RelayTest_Complete.c ****     
1267:RelayTest_Complete.c ****     return;
 1580              		.loc 1 1267 0
 1581 0022 00BF     		nop
1268:RelayTest_Complete.c ****     
1269:RelayTest_Complete.c **** }
 1582              		.loc 1 1269 0
 1583 0024 BD46     		mov	sp, r7
 1584              		.cfi_def_cfa_register 13
 1585              		@ sp needed
 1586 0026 80BC     		pop	{r7}
 1587              		.cfi_restore 7
 1588              		.cfi_def_cfa_offset 0
 1589 0028 7047     		bx	lr
 1590              	.L116:
 1591 002a 00BF     		.align	2
ARM GAS  C:\Users\MARTHN~1\AppData\Local\Temp\cc2F0sRX.s 			page 52


 1592              	.L115:
 1593 002c 00000000 		.word	CurrentTest
 1594 0030 10010000 		.word	RTest_CompleteStatus
 1595 0034 08010000 		.word	RTest_Complete_20ms_isr_count
 1596 0038 0A010000 		.word	RTest_Complete_20ms_isr_EN
 1597              		.cfi_endproc
 1598              	.LFE69:
 1599              		.size	RTest_Complete_StartAutomatedStep, .-RTest_Complete_StartAutomatedStep
 1600              		.section	.text.RTest_Complete_StopAutomatedStep,"ax",%progbits
 1601              		.align	2
 1602              		.global	RTest_Complete_StopAutomatedStep
 1603              		.thumb
 1604              		.thumb_func
 1605              		.type	RTest_Complete_StopAutomatedStep, %function
 1606              	RTest_Complete_StopAutomatedStep:
 1607              	.LFB70:
1270:RelayTest_Complete.c **** 
1271:RelayTest_Complete.c **** void RTest_Complete_StopAutomatedStep(void)
1272:RelayTest_Complete.c **** {
 1608              		.loc 1 1272 0
 1609              		.cfi_startproc
 1610              		@ args = 0, pretend = 0, frame = 0
 1611              		@ frame_needed = 1, uses_anonymous_args = 0
 1612              		@ link register save eliminated.
 1613 0000 80B4     		push	{r7}
 1614              		.cfi_def_cfa_offset 4
 1615              		.cfi_offset 7, -4
 1616 0002 00AF     		add	r7, sp, #0
 1617              		.cfi_def_cfa_register 7
1273:RelayTest_Complete.c ****     
1274:RelayTest_Complete.c ****     RTest_Complete_20ms_isr_EN = 0;
 1618              		.loc 1 1274 0
 1619 0004 0B4B     		ldr	r3, .L121
 1620 0006 0022     		movs	r2, #0
 1621 0008 1A80     		strh	r2, [r3]	@ movhi
1275:RelayTest_Complete.c ****     if(RTest_CompleteStatus[CurrentTest.TestStep] != 'F')       // If not failed, then pass
 1622              		.loc 1 1275 0
 1623 000a 0B4B     		ldr	r3, .L121+4
 1624 000c 5B78     		ldrb	r3, [r3, #1]	@ zero_extendqisi2
 1625 000e 1A46     		mov	r2, r3
 1626 0010 0A4B     		ldr	r3, .L121+8
 1627 0012 9B5C     		ldrb	r3, [r3, r2]	@ zero_extendqisi2
 1628 0014 462B     		cmp	r3, #70
 1629 0016 09D0     		beq	.L120
1276:RelayTest_Complete.c ****     {
1277:RelayTest_Complete.c ****         RTest_CompleteStatus[CurrentTest.TestStep] = 'P';
 1630              		.loc 1 1277 0
 1631 0018 074B     		ldr	r3, .L121+4
 1632 001a 5B78     		ldrb	r3, [r3, #1]	@ zero_extendqisi2
 1633 001c 1A46     		mov	r2, r3
 1634 001e 074B     		ldr	r3, .L121+8
 1635 0020 5021     		movs	r1, #80
 1636 0022 9954     		strb	r1, [r3, r2]
1278:RelayTest_Complete.c ****         CurrentTest.Status = 'P';
 1637              		.loc 1 1278 0
 1638 0024 044B     		ldr	r3, .L121+4
 1639 0026 5022     		movs	r2, #80
ARM GAS  C:\Users\MARTHN~1\AppData\Local\Temp\cc2F0sRX.s 			page 53


 1640 0028 9A70     		strb	r2, [r3, #2]
1279:RelayTest_Complete.c ****     }
1280:RelayTest_Complete.c ****     
1281:RelayTest_Complete.c ****     return;
 1641              		.loc 1 1281 0
 1642 002a 00BF     		nop
 1643              	.L120:
 1644 002c 00BF     		nop
1282:RelayTest_Complete.c ****     
1283:RelayTest_Complete.c **** }
 1645              		.loc 1 1283 0
 1646 002e BD46     		mov	sp, r7
 1647              		.cfi_def_cfa_register 13
 1648              		@ sp needed
 1649 0030 80BC     		pop	{r7}
 1650              		.cfi_restore 7
 1651              		.cfi_def_cfa_offset 0
 1652 0032 7047     		bx	lr
 1653              	.L122:
 1654              		.align	2
 1655              	.L121:
 1656 0034 0A010000 		.word	RTest_Complete_20ms_isr_EN
 1657 0038 00000000 		.word	CurrentTest
 1658 003c 10010000 		.word	RTest_CompleteStatus
 1659              		.cfi_endproc
 1660              	.LFE70:
 1661              		.size	RTest_Complete_StopAutomatedStep, .-RTest_Complete_StopAutomatedStep
 1662              		.section	.text.RTest_Complete_PB_WaitForAction,"ax",%progbits
 1663              		.align	2
 1664              		.global	RTest_Complete_PB_WaitForAction
 1665              		.thumb
 1666              		.thumb_func
 1667              		.type	RTest_Complete_PB_WaitForAction, %function
 1668              	RTest_Complete_PB_WaitForAction:
 1669              	.LFB71:
1284:RelayTest_Complete.c **** 
1285:RelayTest_Complete.c **** //void SetRelayInputs(uint8 enable)
1286:RelayTest_Complete.c **** //{
1287:RelayTest_Complete.c **** //    
1288:RelayTest_Complete.c **** //    if(enable == 1)
1289:RelayTest_Complete.c **** //    {
1290:RelayTest_Complete.c **** //        RTest_HSide1_Write(1);       // Activate all inputs
1291:RelayTest_Complete.c **** //        RTest_HSide2_Write(1);
1292:RelayTest_Complete.c **** //        RTest_HSide3_Write(1);
1293:RelayTest_Complete.c **** //        RTest_HSide4_Write(1);
1294:RelayTest_Complete.c **** //        RTest_HSide5_Write(1);
1295:RelayTest_Complete.c **** //        RTest_HSide6_Write(1);
1296:RelayTest_Complete.c **** //        RTest_HSide7_Write(1);
1297:RelayTest_Complete.c **** //        RTest_HSide8_Write(1);
1298:RelayTest_Complete.c **** //    }
1299:RelayTest_Complete.c **** //    
1300:RelayTest_Complete.c **** //    else
1301:RelayTest_Complete.c **** //    {
1302:RelayTest_Complete.c **** //        RTest_HSide1_Write(0);      // Deactivate all inputs
1303:RelayTest_Complete.c **** //        RTest_HSide2_Write(0);
1304:RelayTest_Complete.c **** //        RTest_HSide3_Write(0);
1305:RelayTest_Complete.c **** //        RTest_HSide4_Write(0);
ARM GAS  C:\Users\MARTHN~1\AppData\Local\Temp\cc2F0sRX.s 			page 54


1306:RelayTest_Complete.c **** //        RTest_HSide5_Write(0);
1307:RelayTest_Complete.c **** //        RTest_HSide6_Write(0);
1308:RelayTest_Complete.c **** //        RTest_HSide7_Write(0);
1309:RelayTest_Complete.c **** //        RTest_HSide8_Write(0);   
1310:RelayTest_Complete.c **** //    }
1311:RelayTest_Complete.c **** //    
1312:RelayTest_Complete.c **** //    return;
1313:RelayTest_Complete.c **** //}
1314:RelayTest_Complete.c **** 
1315:RelayTest_Complete.c **** void RTest_Complete_PB_WaitForAction(void)
1316:RelayTest_Complete.c **** {
 1670              		.loc 1 1316 0
 1671              		.cfi_startproc
 1672              		@ args = 0, pretend = 0, frame = 0
 1673              		@ frame_needed = 1, uses_anonymous_args = 0
 1674 0000 80B5     		push	{r7, lr}
 1675              		.cfi_def_cfa_offset 8
 1676              		.cfi_offset 7, -8
 1677              		.cfi_offset 14, -4
 1678 0002 00AF     		add	r7, sp, #0
 1679              		.cfi_def_cfa_register 7
1317:RelayTest_Complete.c ****     
1318:RelayTest_Complete.c ****     RTest_CompleteStatus[CurrentTest.TestStep] = 'W';                                        // Set
 1680              		.loc 1 1318 0
 1681 0004 164B     		ldr	r3, .L128
 1682 0006 5B78     		ldrb	r3, [r3, #1]	@ zero_extendqisi2
 1683 0008 1A46     		mov	r2, r3
 1684 000a 164B     		ldr	r3, .L128+4
 1685 000c 5721     		movs	r1, #87
 1686 000e 9954     		strb	r1, [r3, r2]
1319:RelayTest_Complete.c ****     CurrentTest.Status = 'W';
 1687              		.loc 1 1319 0
 1688 0010 134B     		ldr	r3, .L128
 1689 0012 5722     		movs	r2, #87
 1690 0014 9A70     		strb	r2, [r3, #2]
1320:RelayTest_Complete.c ****             
1321:RelayTest_Complete.c **** //            while( (!PB_NextAction_Released) && (STestStatus[CurrentTest.TestStep] != 'F') )
1322:RelayTest_Complete.c **** //            {} 
1323:RelayTest_Complete.c **** //            PB_NextAction_Released = 0;
1324:RelayTest_Complete.c **** //            
1325:RelayTest_Complete.c **** //            if(STestStatus[CurrentTest.TestStep] != 'F')       // If not failed, then pass
1326:RelayTest_Complete.c **** //                STestStatus[CurrentTest.TestStep] = 'P';                                        /
1327:RelayTest_Complete.c **** 
1328:RelayTest_Complete.c ****             
1329:RelayTest_Complete.c **** //            if(STestStatus[CurrentTest.TestStep] != 'F')       // If not failed, then pass
1330:RelayTest_Complete.c **** //            {
1331:RelayTest_Complete.c **** //                STestStatus[CurrentTest.TestStep] = 'P';                                        /
1332:RelayTest_Complete.c **** //                //CyDelay(1000);
1333:RelayTest_Complete.c **** //            }
1334:RelayTest_Complete.c ****             
1335:RelayTest_Complete.c ****     while( (RTest_CompleteStatus[CurrentTest.TestStep] != 'P') && (RTest_CompleteStatus[CurrentTest
 1691              		.loc 1 1335 0
 1692 0016 0FE0     		b	.L124
 1693              	.L126:
1336:RelayTest_Complete.c ****     {
1337:RelayTest_Complete.c ****         if(PB_NextAction_Released) 
 1694              		.loc 1 1337 0
ARM GAS  C:\Users\MARTHN~1\AppData\Local\Temp\cc2F0sRX.s 			page 55


 1695 0018 134B     		ldr	r3, .L128+8
 1696 001a 1B78     		ldrb	r3, [r3]	@ zero_extendqisi2
 1697 001c 002B     		cmp	r3, #0
 1698 001e 0BD0     		beq	.L124
1338:RelayTest_Complete.c ****         {
1339:RelayTest_Complete.c ****             //LED_EN_Write(1);
1340:RelayTest_Complete.c ****             RTest_CompleteStatus[CurrentTest.TestStep] = 'P'; 
 1699              		.loc 1 1340 0
 1700 0020 0F4B     		ldr	r3, .L128
 1701 0022 5B78     		ldrb	r3, [r3, #1]	@ zero_extendqisi2
 1702 0024 1A46     		mov	r2, r3
 1703 0026 0F4B     		ldr	r3, .L128+4
 1704 0028 5021     		movs	r1, #80
 1705 002a 9954     		strb	r1, [r3, r2]
1341:RelayTest_Complete.c ****             CurrentTest.Status = 'P';
 1706              		.loc 1 1341 0
 1707 002c 0C4B     		ldr	r3, .L128
 1708 002e 5022     		movs	r2, #80
 1709 0030 9A70     		strb	r2, [r3, #2]
1342:RelayTest_Complete.c ****             PB_NextAction_Released = 0;
 1710              		.loc 1 1342 0
 1711 0032 0D4B     		ldr	r3, .L128+8
 1712 0034 0022     		movs	r2, #0
 1713 0036 1A70     		strb	r2, [r3]
 1714              	.L124:
1335:RelayTest_Complete.c ****     {
 1715              		.loc 1 1335 0
 1716 0038 094B     		ldr	r3, .L128
 1717 003a 5B78     		ldrb	r3, [r3, #1]	@ zero_extendqisi2
 1718 003c 1A46     		mov	r2, r3
 1719 003e 094B     		ldr	r3, .L128+4
 1720 0040 9B5C     		ldrb	r3, [r3, r2]	@ zero_extendqisi2
 1721 0042 502B     		cmp	r3, #80
 1722 0044 06D0     		beq	.L125
1335:RelayTest_Complete.c ****     {
 1723              		.loc 1 1335 0 is_stmt 0 discriminator 1
 1724 0046 064B     		ldr	r3, .L128
 1725 0048 5B78     		ldrb	r3, [r3, #1]	@ zero_extendqisi2
 1726 004a 1A46     		mov	r2, r3
 1727 004c 054B     		ldr	r3, .L128+4
 1728 004e 9B5C     		ldrb	r3, [r3, r2]	@ zero_extendqisi2
 1729 0050 462B     		cmp	r3, #70
 1730 0052 E1D1     		bne	.L126
 1731              	.L125:
1343:RelayTest_Complete.c ****         }
1344:RelayTest_Complete.c ****     }
1345:RelayTest_Complete.c ****             
1346:RelayTest_Complete.c ****     //CyDelay(1000);
1347:RelayTest_Complete.c ****     LED_EN_Write(0);    // ***not sure why this seems to be needed to make it work
 1732              		.loc 1 1347 0 is_stmt 1
 1733 0054 0020     		movs	r0, #0
 1734 0056 FFF7FEFF 		bl	LED_EN_Write
1348:RelayTest_Complete.c ****     
1349:RelayTest_Complete.c ****     
1350:RelayTest_Complete.c ****     return;
 1735              		.loc 1 1350 0
 1736 005a 00BF     		nop
ARM GAS  C:\Users\MARTHN~1\AppData\Local\Temp\cc2F0sRX.s 			page 56


1351:RelayTest_Complete.c **** }
 1737              		.loc 1 1351 0
 1738 005c 80BD     		pop	{r7, pc}
 1739              	.L129:
 1740 005e 00BF     		.align	2
 1741              	.L128:
 1742 0060 00000000 		.word	CurrentTest
 1743 0064 10010000 		.word	RTest_CompleteStatus
 1744 0068 0D010000 		.word	PB_NextAction_Released
 1745              		.cfi_endproc
 1746              	.LFE71:
 1747              		.size	RTest_Complete_PB_WaitForAction, .-RTest_Complete_PB_WaitForAction
 1748              		.bss
 1749 011e 0000     		.align	2
 1750              	RelayTestStatus_display.7557:
 1751 0120 00000000 		.space	28
 1751      00000000 
 1751      00000000 
 1751      00000000 
 1751      00000000 
 1752              	PB_reading.7569:
 1753 013c 00       		.space	1
 1754              	PB_reading_previous.7570:
 1755 013d 00       		.space	1
 1756              	PB_NextAction_debouncecount.7565:
 1757 013e 00       		.space	1
 1758              	debouncetrue.7568:
 1759 013f 00       		.space	1
 1760              	PB_NextAction_failcount.7566:
 1761 0140 00       		.space	1
 1762              	PB_NextAction_prevstate.7567:
 1763 0141 00       		.space	1
 1764              		.text
 1765              	.Letext0:
 1766              		.file 2 "c:\\program files (x86)\\cypress\\psoc creator\\4.3\\psoc creator\\import\\gnu\\arm\\5.4.
 1767              		.file 3 "c:\\program files (x86)\\cypress\\psoc creator\\4.3\\psoc creator\\import\\gnu\\arm\\5.4.
 1768              		.file 4 "Generated_Source\\PSoC5/cytypes.h"
 1769              		.file 5 "CommonVariables.h"
 1770              		.file 6 "UART_230400_Functions.h"
 1771              		.file 7 "UART_460800_Functions.h"
 1772              		.file 8 "Generated_Source\\PSoC5/core_cm3.h"