ARM GAS  C:\Users\MARTHN~1\AppData\Local\Temp\ccXSjyDl.s 			page 1


   1              		.syntax unified
   2              		.cpu cortex-m3
   3              		.fpu softvfp
   4              		.eabi_attribute 20, 1
   5              		.eabi_attribute 21, 1
   6              		.eabi_attribute 23, 3
   7              		.eabi_attribute 24, 1
   8              		.eabi_attribute 25, 1
   9              		.eabi_attribute 26, 1
  10              		.eabi_attribute 30, 6
  11              		.eabi_attribute 34, 1
  12              		.eabi_attribute 18, 4
  13              		.thumb
  14              		.syntax unified
  15              		.file	"RelayTest_Complete.c"
  16              		.text
  17              	.Ltext0:
  18              		.cfi_sections	.debug_frame
  19              		.comm	Test,3,4
  20              		.bss
  21              		.align	2
  22              	rxPacket_Relay:
  23 0000 00000000 		.space	15
  23      00000000 
  23      00000000 
  23      000000
  24 000f 00       		.align	2
  25              	pRxPacket_Relay:
  26 0010 00000000 		.space	4
  27              		.align	2
  28              	rxPacket_RelaySiren:
  29 0014 00000000 		.space	15
  29      00000000 
  29      00000000 
  29      000000
  30 0023 00       		.align	2
  31              	pRxPacket_RelaySiren:
  32 0024 00000000 		.space	4
  33              		.align	2
  34              	txPacket_RelaySiren:
  35 0028 00000000 		.space	80
  35      00000000 
  35      00000000 
  35      00000000 
  35      00000000 
  36              		.align	2
  37              	pTxPacket_RelaySiren:
  38 0078 00000000 		.space	4
  39              		.align	2
  40              	txPacket_H:
  41 007c 00000000 		.space	5
  41      00
  42 0081 000000   		.align	2
  43              	pTxPacket_H:
  44 0084 00000000 		.space	4
  45              		.align	2
  46              	rxPacket_H:
ARM GAS  C:\Users\MARTHN~1\AppData\Local\Temp\ccXSjyDl.s 			page 2


  47 0088 00000000 		.space	5
  47      00
  48 008d 000000   		.align	2
  49              	pRxPacket_H:
  50 0090 00000000 		.space	4
  51              		.align	2
  52              	txPacket_Quad:
  53 0094 00000000 		.space	111
  53      00000000 
  53      00000000 
  53      00000000 
  53      00000000 
  54 0103 00       		.align	2
  55              	pTxPacket_Quad:
  56 0104 00000000 		.space	4
  57              		.align	1
  58              	RTest_Complete_20ms_isr_count:
  59 0108 0000     		.space	2
  60              		.align	1
  61              	RTest_Complete_20ms_isr_EN:
  62 010a 0000     		.space	2
  63              	PB_NextAction_Pressed:
  64 010c 00       		.space	1
  65              	PB_NextAction_Released:
  66 010d 00       		.space	1
  67              		.data
  68              		.align	2
  69              		.type	RTest_Complete_TimeoutCount, %object
  70              		.size	RTest_Complete_TimeoutCount, 32
  71              	RTest_Complete_TimeoutCount:
  72 0000 3200     		.short	50
  73 0002 F401     		.short	500
  74 0004 C800     		.short	200
  75 0006 3200     		.short	50
  76 0008 6400     		.short	100
  77 000a 3200     		.short	50
  78 000c 6400     		.short	100
  79 000e 3200     		.short	50
  80 0010 3200     		.short	50
  81 0012 3200     		.short	50
  82 0014 3200     		.short	50
  83 0016 3200     		.short	50
  84 0018 3200     		.short	50
  85 001a E803     		.short	1000
  86 001c 3200     		.short	50
  87 001e 3200     		.short	50
  88              		.bss
  89 010e 0000     		.align	2
  90              	RTest_CompleteStatus:
  91 0110 00000000 		.space	16
  91      00000000 
  91      00000000 
  91      00000000 
  92              		.section	.text.RelayTest_Complete,"ax",%progbits
  93              		.align	2
  94              		.global	RelayTest_Complete
  95              		.thumb
ARM GAS  C:\Users\MARTHN~1\AppData\Local\Temp\ccXSjyDl.s 			page 3


  96              		.thumb_func
  97              		.type	RelayTest_Complete, %function
  98              	RelayTest_Complete:
  99              	.LFB63:
 100              		.file 1 "RelayTest_Complete.c"
   1:RelayTest_Complete.c **** /* ========================================
   2:RelayTest_Complete.c ****  *
   3:RelayTest_Complete.c ****  * Copyright YOUR COMPANY, THE YEAR
   4:RelayTest_Complete.c ****  * All Rights Reserved
   5:RelayTest_Complete.c ****  * UNPUBLISHED, LICENSED SOFTWARE.
   6:RelayTest_Complete.c ****  *
   7:RelayTest_Complete.c ****  * CONFIDENTIAL AND PROPRIETARY INFORMATION
   8:RelayTest_Complete.c ****  * WHICH IS THE PROPERTY OF your company.
   9:RelayTest_Complete.c ****  *
  10:RelayTest_Complete.c ****  * ========================================
  11:RelayTest_Complete.c **** */
  12:RelayTest_Complete.c **** 
  13:RelayTest_Complete.c **** #include <project.h>
  14:RelayTest_Complete.c **** #include "CommonVariables.h"
  15:RelayTest_Complete.c **** #include "RelayTest.h"
  16:RelayTest_Complete.c **** #include "SirenTest.h"
  17:RelayTest_Complete.c **** #include "UART_115200_Functions.h"
  18:RelayTest_Complete.c **** #include "UART_230400_Functions.h"
  19:RelayTest_Complete.c **** #include "UART_460800_Functions.h"
  20:RelayTest_Complete.c **** #include "CD4051BPW_Driver.h"
  21:RelayTest_Complete.c **** 
  22:RelayTest_Complete.c **** #define VOLTAGE_SYSTEM      120             // (Voltage * 10)
  23:RelayTest_Complete.c **** #define TOLERANCE_VOLTAGE   5  
  24:RelayTest_Complete.c **** #define CURRENT_LOAD        9              // (ohms)
  25:RelayTest_Complete.c **** #define TOLERANCE_CURRENT   2 
  26:RelayTest_Complete.c **** #define CONFIRM_TIME        100            // How many msec to show pass/fail for each step
  27:RelayTest_Complete.c **** 
  28:RelayTest_Complete.c **** #define DEBOUNCE_COUNT      2           // (5 * 20msec)
  29:RelayTest_Complete.c **** 
  30:RelayTest_Complete.c **** static RxPacket_RelaySiren rxPacket_Relay;          // Inputs - 'D' relay to controller
  31:RelayTest_Complete.c **** static RxPacket_RelaySiren * pRxPacket_Relay;       // UART_SIREN
  32:RelayTest_Complete.c **** static RxPacket_RelaySiren rxPacket_RelaySiren;     // *** these are redundant 'D' packets 
  33:RelayTest_Complete.c **** static RxPacket_RelaySiren * pRxPacket_RelaySiren;  // OVERLOAD
  34:RelayTest_Complete.c **** 
  35:RelayTest_Complete.c **** static TxPacket_RelaySiren txPacket_RelaySiren;         // SetRelayOutputs - 'I' (also 3,S,P) contr
  36:RelayTest_Complete.c **** static TxPacket_RelaySiren * pTxPacket_RelaySiren;      // 
  37:RelayTest_Complete.c **** 
  38:RelayTest_Complete.c **** //static TxPacket_Relay txPacket_Relay;            
  39:RelayTest_Complete.c **** //static TxPacket_Relay * pTxPacket_Relay;
  40:RelayTest_Complete.c **** 
  41:RelayTest_Complete.c **** //static RxPacket_Siren rxPacket_Siren;             // 'S' relay to siren
  42:RelayTest_Complete.c **** //static RxPacket_Siren * pRxPacket_Siren;  
  43:RelayTest_Complete.c **** 
  44:RelayTest_Complete.c **** static Packet_H txPacket_H;          //     Packet 'H' Tx
  45:RelayTest_Complete.c **** static Packet_H * pTxPacket_H;      //
  46:RelayTest_Complete.c **** 
  47:RelayTest_Complete.c **** static Packet_H rxPacket_H;          //     Packet 'H'  Rx
  48:RelayTest_Complete.c **** static Packet_H * pRxPacket_H;      //
  49:RelayTest_Complete.c **** 
  50:RelayTest_Complete.c **** static RxPacket_Quad txPacket_Quad;          //*** 
  51:RelayTest_Complete.c **** static RxPacket_Quad * pTxPacket_Quad;      //***
  52:RelayTest_Complete.c **** //RxPacket_Quad * getRxPacket_Quad(void);
ARM GAS  C:\Users\MARTHN~1\AppData\Local\Temp\ccXSjyDl.s 			page 4


  53:RelayTest_Complete.c **** 
  54:RelayTest_Complete.c **** //static RxPacket_RelaySiren rxPacket_Relay;          //     Packet 'D'
  55:RelayTest_Complete.c **** //static RxPacket_RelaySiren * pRxPacket_Relay;      //
  56:RelayTest_Complete.c **** 
  57:RelayTest_Complete.c **** //------------GLOABAL variables--------------------
  58:RelayTest_Complete.c **** 
  59:RelayTest_Complete.c **** static uint16 RTest_Complete_20ms_isr_count = 0;
  60:RelayTest_Complete.c **** static uint16 RTest_Complete_20ms_isr_EN = 0;
  61:RelayTest_Complete.c **** 
  62:RelayTest_Complete.c **** static uint8 PB_NextAction_Pressed = 0;
  63:RelayTest_Complete.c **** static uint8 PB_NextAction_Released = 0;
  64:RelayTest_Complete.c **** 
  65:RelayTest_Complete.c **** void StartTimeout(void);
  66:RelayTest_Complete.c **** void StopTimeout(void);
  67:RelayTest_Complete.c **** 
  68:RelayTest_Complete.c **** enum DATA_TYPE_460800
  69:RelayTest_Complete.c **** { 
  70:RelayTest_Complete.c ****     CTEST_AUDIO,        // This is for both cont and relay tests
  71:RelayTest_Complete.c ****     CTEST_RTEST_QUAD,   // CTest/RTest - quad normal - (controller to relay, relay to quad)
  72:RelayTest_Complete.c **** //    CTEST_A,            //*** needs to  (*** not used - only need to look for 'L' packet)
  73:RelayTest_Complete.c **** //    QTEST_QUAD          // (*** not used - Quad-Controller packets - type 'C')
  74:RelayTest_Complete.c **** };
  75:RelayTest_Complete.c **** 
  76:RelayTest_Complete.c **** enum MUX_460800_CHANNEL
  77:RelayTest_Complete.c **** { 
  78:RelayTest_Complete.c ****     CTEST_QUAD,       
  79:RelayTest_Complete.c ****     CTEST_AUDIOSTREAM,
  80:RelayTest_Complete.c ****     RTEST_QUAD_1,    
  81:RelayTest_Complete.c ****     RTEST_QUAD_2,
  82:RelayTest_Complete.c ****     RTEST_QUAD_3,
  83:RelayTest_Complete.c ****     RTEST_QUAD_4,
  84:RelayTest_Complete.c ****     RTEST_QUAD_5,
  85:RelayTest_Complete.c ****     RTEST_QUAD_6,
  86:RelayTest_Complete.c ****     RTEST_QUAD_7,
  87:RelayTest_Complete.c ****     RTEST_QUAD_8            
  88:RelayTest_Complete.c **** };
  89:RelayTest_Complete.c **** 
  90:RelayTest_Complete.c **** enum DEMUX_460800_CHANNEL
  91:RelayTest_Complete.c **** { 
  92:RelayTest_Complete.c ****     CTEST_OBDII_TX,     
  93:RelayTest_Complete.c ****     RTEST_QUAD_TX,        
  94:RelayTest_Complete.c ****     STEST_AUDIO_TX,
  95:RelayTest_Complete.c **** };
  96:RelayTest_Complete.c **** 
  97:RelayTest_Complete.c **** enum MUX_DEMUX_230400_CHANNEL              
  98:RelayTest_Complete.c **** { 
  99:RelayTest_Complete.c ****     CTEST_RELAY, 
 100:RelayTest_Complete.c ****     RTEST_CONT,
 101:RelayTest_Complete.c ****     RTEST_SIREN,
 102:RelayTest_Complete.c ****     STEST_RELAY            
 103:RelayTest_Complete.c **** };
 104:RelayTest_Complete.c **** 
 105:RelayTest_Complete.c **** enum DATATYPE_115200         
 106:RelayTest_Complete.c **** { 
 107:RelayTest_Complete.c ****     RTEST_DLINK
 108:RelayTest_Complete.c **** };
 109:RelayTest_Complete.c **** enum MUX_115200_CHANNEL      
ARM GAS  C:\Users\MARTHN~1\AppData\Local\Temp\ccXSjyDl.s 			page 5


 110:RelayTest_Complete.c **** { 
 111:RelayTest_Complete.c ****     RTEST_DLINK1,    
 112:RelayTest_Complete.c ****     RTEST_DLINK2,    
 113:RelayTest_Complete.c ****     CTEST_USB_DEBUG,
 114:RelayTest_Complete.c ****     DIAG_UART_RX        
 115:RelayTest_Complete.c **** };
 116:RelayTest_Complete.c **** 
 117:RelayTest_Complete.c **** // --------------Test steps---------------
 118:RelayTest_Complete.c **** #define NUMBER_TEST_STEPS   16
 119:RelayTest_Complete.c **** static uint16 RTest_Complete_TimeoutCount[NUMBER_TEST_STEPS] = {50,500,200,50,100,50,100,50,50,50,5
 120:RelayTest_Complete.c ****                                     
 121:RelayTest_Complete.c **** static uint8 RTest_CompleteStatus[NUMBER_TEST_STEPS];
 122:RelayTest_Complete.c **** 
 123:RelayTest_Complete.c **** enum TestStep               // *** (relay firmware needs the 'H' packet payload count updated)
 124:RelayTest_Complete.c **** { 
 125:RelayTest_Complete.c ****     /* Relay Test Steps*/
 126:RelayTest_Complete.c ****     INITIALIZE_TEST,    // COMPLETE
 127:RelayTest_Complete.c ****     TEST_OUTPUTS,       // COMPLETE - same
 128:RelayTest_Complete.c ****     DATALINK,           // COMPLETE - same
 129:RelayTest_Complete.c ****     QUAD_PORTS,         // COMPLETE - same
 130:RelayTest_Complete.c ****     INPUTS,             // COMPLETE - same
 131:RelayTest_Complete.c ****     VBATT,              // COMPLETE - same
 132:RelayTest_Complete.c ****     BLOCK_CURRENTS,     // COMPLETE - same
 133:RelayTest_Complete.c ****     
 134:RelayTest_Complete.c ****     /* Siren Test Stuff*/
 135:RelayTest_Complete.c ****     UART_TX,            // U ('D' packet - firmware versions are the only thing that is unread)
 136:RelayTest_Complete.c ****     AMP1,               // COMPLETE (low volume)
 137:RelayTest_Complete.c ****     AMP2,               // COMPLETE (low volume)
 138:RelayTest_Complete.c ****     RRB,                // COMPLETE (hi volume - adjustable)
 139:RelayTest_Complete.c ****     MIC,                // COMPLETE (hi volume)
 140:RelayTest_Complete.c ****     FLASH,              // COMPLETE (kind of loud/weak)
 141:RelayTest_Complete.c ****     OVERLOAD,           // ??? U (cannot be used with loaded 
 142:RelayTest_Complete.c ****     
 143:RelayTest_Complete.c ****     GPS,                // ***Need to add this in still
 144:RelayTest_Complete.c ****     
 145:RelayTest_Complete.c ****     PASS                // COMPLETE
 146:RelayTest_Complete.c **** };
 147:RelayTest_Complete.c **** 
 148:RelayTest_Complete.c **** //----------------------------------------
 149:RelayTest_Complete.c **** // Main state machine for F1-Relay Test
 150:RelayTest_Complete.c **** //----------------------------------------
 151:RelayTest_Complete.c **** uint8 RelayTest_Complete(void)
 152:RelayTest_Complete.c **** {
 101              		.loc 1 152 0
 102              		.cfi_startproc
 103              		@ args = 0, pretend = 0, frame = 8
 104              		@ frame_needed = 1, uses_anonymous_args = 0
 105 0000 80B5     		push	{r7, lr}
 106              		.cfi_def_cfa_offset 8
 107              		.cfi_offset 7, -8
 108              		.cfi_offset 14, -4
 109 0002 82B0     		sub	sp, sp, #8
 110              		.cfi_def_cfa_offset 16
 111 0004 00AF     		add	r7, sp, #0
 112              		.cfi_def_cfa_register 7
 153:RelayTest_Complete.c ****     
 154:RelayTest_Complete.c ****     switch(CurrentTest.TestStep)
ARM GAS  C:\Users\MARTHN~1\AppData\Local\Temp\ccXSjyDl.s 			page 6


 113              		.loc 1 154 0
 114 0006 AA4B     		ldr	r3, .L73
 115 0008 5B78     		ldrb	r3, [r3, #1]	@ zero_extendqisi2
 116 000a 0F2B     		cmp	r3, #15
 117 000c 00F2CA83 		bhi	.L2
 118 0010 01A2     		adr	r2, .L4
 119 0012 52F823F0 		ldr	pc, [r2, r3, lsl #2]
 120 0016 00BF     		.p2align 2
 121              	.L4:
 122 0018 59000000 		.word	.L3+1
 123 001c 4B010000 		.word	.L5+1
 124 0020 91010000 		.word	.L6+1
 125 0024 D7010000 		.word	.L7+1
 126 0028 23020000 		.word	.L8+1
 127 002c 69020000 		.word	.L9+1
 128 0030 BD020000 		.word	.L10+1
 129 0034 1B030000 		.word	.L11+1
 130 0038 51030000 		.word	.L12+1
 131 003c C3030000 		.word	.L13+1
 132 0040 35040000 		.word	.L14+1
 133 0044 AF040000 		.word	.L15+1
 134 0048 F5040000 		.word	.L16+1
 135 004c 89050000 		.word	.L17+1
 136 0050 2B070000 		.word	.L18+1
 137 0054 4B070000 		.word	.L19+1
 138              		.p2align 1
 139              	.L3:
 155:RelayTest_Complete.c ****     {   
 156:RelayTest_Complete.c ****                
 157:RelayTest_Complete.c ****         case INITIALIZE_TEST:            
 158:RelayTest_Complete.c ****         
 159:RelayTest_Complete.c ****             STest_SIREN_EN_Write(1);  // Less muted - for Mic test
 140              		.loc 1 159 0
 141 0058 0120     		movs	r0, #1
 142 005a FFF7FEFF 		bl	STest_SIREN_EN_Write
 160:RelayTest_Complete.c ****             CyDelay(250);
 143              		.loc 1 160 0
 144 005e FA20     		movs	r0, #250
 145 0060 FFF7FEFF 		bl	CyDelay
 146              	.LBB2:
 161:RelayTest_Complete.c ****                 
 162:RelayTest_Complete.c ****             for (uint8 i=0;i<NUMBER_TEST_STEPS;i++)                 // Reset Status of aall test st
 147              		.loc 1 162 0
 148 0064 0023     		movs	r3, #0
 149 0066 FB71     		strb	r3, [r7, #7]
 150 0068 06E0     		b	.L20
 151              	.L21:
 163:RelayTest_Complete.c ****                 RTest_CompleteStatus[i] = '_';
 152              		.loc 1 163 0 discriminator 3
 153 006a FB79     		ldrb	r3, [r7, #7]	@ zero_extendqisi2
 154 006c 914A     		ldr	r2, .L73+4
 155 006e 5F21     		movs	r1, #95
 156 0070 D154     		strb	r1, [r2, r3]
 162:RelayTest_Complete.c ****                 RTest_CompleteStatus[i] = '_';
 157              		.loc 1 162 0 discriminator 3
 158 0072 FB79     		ldrb	r3, [r7, #7]	@ zero_extendqisi2
 159 0074 0133     		adds	r3, r3, #1
ARM GAS  C:\Users\MARTHN~1\AppData\Local\Temp\ccXSjyDl.s 			page 7


 160 0076 FB71     		strb	r3, [r7, #7]
 161              	.L20:
 162:RelayTest_Complete.c ****                 RTest_CompleteStatus[i] = '_';
 162              		.loc 1 162 0 is_stmt 0 discriminator 1
 163 0078 FB79     		ldrb	r3, [r7, #7]	@ zero_extendqisi2
 164 007a 0F2B     		cmp	r3, #15
 165 007c F5D9     		bls	.L21
 166              	.LBE2:
 164:RelayTest_Complete.c ****                 
 165:RelayTest_Complete.c ****             RTest_CompleteStatus[CurrentTest.TestStep] = 'I';
 167              		.loc 1 165 0 is_stmt 1
 168 007e 8C4B     		ldr	r3, .L73
 169 0080 5B78     		ldrb	r3, [r3, #1]	@ zero_extendqisi2
 170 0082 1A46     		mov	r2, r3
 171 0084 8B4B     		ldr	r3, .L73+4
 172 0086 4921     		movs	r1, #73
 173 0088 9954     		strb	r1, [r3, r2]
 166:RelayTest_Complete.c ****             CurrentTest.Status = 'I'; 
 174              		.loc 1 166 0
 175 008a 894B     		ldr	r3, .L73
 176 008c 4922     		movs	r2, #73
 177 008e 9A70     		strb	r2, [r3, #2]
 167:RelayTest_Complete.c **** 
 168:RelayTest_Complete.c ****             pTxPacket_RelaySiren = getTxPacket_RelaySiren();        // Tx - Initialize TX_RelaySire
 178              		.loc 1 168 0
 179 0090 FFF7FEFF 		bl	getTxPacket_RelaySiren
 180 0094 0246     		mov	r2, r0
 181 0096 884B     		ldr	r3, .L73+8
 182 0098 1A60     		str	r2, [r3]
 183              	.LBB3:
 169:RelayTest_Complete.c ****             for(uint8 i;i<79;i++)
 184              		.loc 1 169 0
 185 009a 07E0     		b	.L22
 186              	.L23:
 170:RelayTest_Complete.c ****                 pTxPacket_RelaySiren->bytes[i] = 0;
 187              		.loc 1 170 0 discriminator 2
 188 009c 864B     		ldr	r3, .L73+8
 189 009e 1A68     		ldr	r2, [r3]
 190 00a0 BB79     		ldrb	r3, [r7, #6]	@ zero_extendqisi2
 191 00a2 0021     		movs	r1, #0
 192 00a4 D154     		strb	r1, [r2, r3]
 169:RelayTest_Complete.c ****             for(uint8 i;i<79;i++)
 193              		.loc 1 169 0 discriminator 2
 194 00a6 BB79     		ldrb	r3, [r7, #6]	@ zero_extendqisi2
 195 00a8 0133     		adds	r3, r3, #1
 196 00aa BB71     		strb	r3, [r7, #6]
 197              	.L22:
 169:RelayTest_Complete.c ****             for(uint8 i;i<79;i++)
 198              		.loc 1 169 0 is_stmt 0 discriminator 1
 199 00ac BB79     		ldrb	r3, [r7, #6]	@ zero_extendqisi2
 200 00ae 4E2B     		cmp	r3, #78
 201 00b0 F4D9     		bls	.L23
 202              	.LBE3:
 171:RelayTest_Complete.c **** 
 172:RelayTest_Complete.c ****             pTxPacket_RelaySiren->Payload.StartByte_FLB = '~';
 203              		.loc 1 172 0 is_stmt 1
 204 00b2 814B     		ldr	r3, .L73+8
ARM GAS  C:\Users\MARTHN~1\AppData\Local\Temp\ccXSjyDl.s 			page 8


 205 00b4 1B68     		ldr	r3, [r3]
 206 00b6 7E22     		movs	r2, #126
 207 00b8 83F83520 		strb	r2, [r3, #53]
 173:RelayTest_Complete.c ****             pTxPacket_RelaySiren->Payload.FLB_PacketType = '3';
 208              		.loc 1 173 0
 209 00bc 7E4B     		ldr	r3, .L73+8
 210 00be 1B68     		ldr	r3, [r3]
 211 00c0 3322     		movs	r2, #51
 212 00c2 83F83620 		strb	r2, [r3, #54]
 174:RelayTest_Complete.c ****             pTxPacket_RelaySiren->Payload.StopByte1_FLB = 0x0D;
 213              		.loc 1 174 0
 214 00c6 7C4B     		ldr	r3, .L73+8
 215 00c8 1B68     		ldr	r3, [r3]
 216 00ca 0D22     		movs	r2, #13
 217 00cc 83F83A20 		strb	r2, [r3, #58]
 175:RelayTest_Complete.c ****             pTxPacket_RelaySiren->Payload.StopByte2_FLB = 0x0A;    
 218              		.loc 1 175 0
 219 00d0 794B     		ldr	r3, .L73+8
 220 00d2 1B68     		ldr	r3, [r3]
 221 00d4 0A22     		movs	r2, #10
 222 00d6 83F83B20 		strb	r2, [r3, #59]
 176:RelayTest_Complete.c ****             pTxPacket_RelaySiren->Payload.StartByte1_Siren = '~';    
 223              		.loc 1 176 0
 224 00da 774B     		ldr	r3, .L73+8
 225 00dc 1B68     		ldr	r3, [r3]
 226 00de 7E22     		movs	r2, #126
 227 00e0 83F83C20 		strb	r2, [r3, #60]
 177:RelayTest_Complete.c ****             pTxPacket_RelaySiren->Payload.Siren_PacketType = 'S';
 228              		.loc 1 177 0
 229 00e4 744B     		ldr	r3, .L73+8
 230 00e6 1B68     		ldr	r3, [r3]
 231 00e8 5322     		movs	r2, #83
 232 00ea 83F83D20 		strb	r2, [r3, #61]
 178:RelayTest_Complete.c ****             pTxPacket_RelaySiren->Payload.StopByte1_Siren = 0x0D;
 233              		.loc 1 178 0
 234 00ee 724B     		ldr	r3, .L73+8
 235 00f0 1B68     		ldr	r3, [r3]
 236 00f2 0D22     		movs	r2, #13
 237 00f4 83F84120 		strb	r2, [r3, #65]
 179:RelayTest_Complete.c ****             pTxPacket_RelaySiren->Payload.StopByte2_Siren = 0x0A;                       
 238              		.loc 1 179 0
 239 00f8 6F4B     		ldr	r3, .L73+8
 240 00fa 1B68     		ldr	r3, [r3]
 241 00fc 0A22     		movs	r2, #10
 242 00fe 83F84220 		strb	r2, [r3, #66]
 180:RelayTest_Complete.c ****             pTxPacket_RelaySiren->Payload.StartByte1_Relay = '~';
 243              		.loc 1 180 0
 244 0102 6D4B     		ldr	r3, .L73+8
 245 0104 1B68     		ldr	r3, [r3]
 246 0106 7E22     		movs	r2, #126
 247 0108 83F84320 		strb	r2, [r3, #67]
 181:RelayTest_Complete.c ****             pTxPacket_RelaySiren->Payload.Relay_PacketType = 'P';
 248              		.loc 1 181 0
 249 010c 6A4B     		ldr	r3, .L73+8
 250 010e 1B68     		ldr	r3, [r3]
 251 0110 5022     		movs	r2, #80
 252 0112 83F84420 		strb	r2, [r3, #68]
ARM GAS  C:\Users\MARTHN~1\AppData\Local\Temp\ccXSjyDl.s 			page 9


 182:RelayTest_Complete.c ****             pTxPacket_RelaySiren->Payload.StopByte1_Relay = 0x0D;
 253              		.loc 1 182 0
 254 0116 684B     		ldr	r3, .L73+8
 255 0118 1B68     		ldr	r3, [r3]
 256 011a 0D22     		movs	r2, #13
 257 011c 83F84D20 		strb	r2, [r3, #77]
 183:RelayTest_Complete.c ****             pTxPacket_RelaySiren->Payload.StopByte2_Relay = 0x0A;                    
 258              		.loc 1 183 0
 259 0120 654B     		ldr	r3, .L73+8
 260 0122 1B68     		ldr	r3, [r3]
 261 0124 0A22     		movs	r2, #10
 262 0126 83F84E20 		strb	r2, [r3, #78]
 184:RelayTest_Complete.c ****  
 185:RelayTest_Complete.c ****             // Deactivate each input
 186:RelayTest_Complete.c ****             // RTest_HSide1_Write(0);
 187:RelayTest_Complete.c ****             // RTest_HSide2_Write(0);
 188:RelayTest_Complete.c ****             // RTest_HSide3_Write(0);
 189:RelayTest_Complete.c ****             // RTest_HSide4_Write(0);
 190:RelayTest_Complete.c ****             // RTest_HSide5_Write(0);
 191:RelayTest_Complete.c ****             // RTest_HSide6_Write(0);
 192:RelayTest_Complete.c ****             // RTest_HSide7_Write(0);
 193:RelayTest_Complete.c ****             // RTest_HSide8_Write(0);
 194:RelayTest_Complete.c ****                 
 195:RelayTest_Complete.c ****             RTest_CompleteStatus[CurrentTest.TestStep] = 'P';
 263              		.loc 1 195 0
 264 012a 614B     		ldr	r3, .L73
 265 012c 5B78     		ldrb	r3, [r3, #1]	@ zero_extendqisi2
 266 012e 1A46     		mov	r2, r3
 267 0130 604B     		ldr	r3, .L73+4
 268 0132 5021     		movs	r1, #80
 269 0134 9954     		strb	r1, [r3, r2]
 196:RelayTest_Complete.c ****             CurrentTest.Status = 'P'; 
 270              		.loc 1 196 0
 271 0136 5E4B     		ldr	r3, .L73
 272 0138 5022     		movs	r2, #80
 273 013a 9A70     		strb	r2, [r3, #2]
 197:RelayTest_Complete.c ****             
 198:RelayTest_Complete.c **** //            STest_SIREN_EN_Write(0);
 199:RelayTest_Complete.c **** //            CyDelay(1000);
 200:RelayTest_Complete.c **** //            STest_SIREN_EN_Write(1);
 201:RelayTest_Complete.c **** //            CyDelay(1000);
 202:RelayTest_Complete.c ****                     
 203:RelayTest_Complete.c ****             CyDelay(CONFIRM_TIME);
 274              		.loc 1 203 0
 275 013c 6420     		movs	r0, #100
 276 013e FFF7FEFF 		bl	CyDelay
 204:RelayTest_Complete.c ****             
 205:RelayTest_Complete.c ****             //CurrentTest.TestStep = INITIALIZE_TEST;
 206:RelayTest_Complete.c ****             CurrentTest.TestStep = TEST_OUTPUTS;
 277              		.loc 1 206 0
 278 0142 5B4B     		ldr	r3, .L73
 279 0144 0122     		movs	r2, #1
 280 0146 5A70     		strb	r2, [r3, #1]
 207:RelayTest_Complete.c ****             //CurrentTest.TestStep = DATALINK;
 208:RelayTest_Complete.c ****             //CurrentTest.TestStep = QUAD_PORTS;
 209:RelayTest_Complete.c ****             //CurrentTest.TestStep = UART_SIREN;
 210:RelayTest_Complete.c ****             //CurrentTest.TestStep = INPUTS;
ARM GAS  C:\Users\MARTHN~1\AppData\Local\Temp\ccXSjyDl.s 			page 10


 211:RelayTest_Complete.c ****             //CurrentTest.TestStep = VBATT; 
 212:RelayTest_Complete.c ****             //CurrentTest.TestStep = BLOCK_CURRENTS; 
 213:RelayTest_Complete.c ****             //CurrentTest.TestStep = GPS; 
 214:RelayTest_Complete.c ****             
 215:RelayTest_Complete.c ****             //CurrentTest.TestStep = AMP1;
 216:RelayTest_Complete.c ****             //CurrentTest.TestStep = RRB;
 217:RelayTest_Complete.c ****             //CurrentTest.TestStep = MIC;
 218:RelayTest_Complete.c ****             //CurrentTest.TestStep = FLASH;
 219:RelayTest_Complete.c ****             //CurrentTest.TestStep = OVERLOAD;
 220:RelayTest_Complete.c ****                    
 221:RelayTest_Complete.c ****         break;      
 281              		.loc 1 221 0
 282 0148 2CE3     		b	.L2
 283              	.L5:
 222:RelayTest_Complete.c ****               
 223:RelayTest_Complete.c ****         case TEST_OUTPUTS:  
 224:RelayTest_Complete.c ****                 
 225:RelayTest_Complete.c ****             RTest_Complete_StartAutomatedStep(); 
 284              		.loc 1 225 0
 285 014a FFF7FEFF 		bl	RTest_Complete_StartAutomatedStep
 226:RelayTest_Complete.c ****             //SetRelayOutputs(1);
 227:RelayTest_Complete.c ****             //While(1);
 228:RelayTest_Complete.c ****             while( (!RTest_Test_Outputs()) && (RTest_CompleteStatus[CurrentTest.TestStep] != 'F') )
 286              		.loc 1 228 0
 287 014e 00BF     		nop
 288              	.L25:
 289              		.loc 1 228 0 is_stmt 0 discriminator 2
 290 0150 FFF7FEFF 		bl	RTest_Test_Outputs
 291 0154 0346     		mov	r3, r0
 292 0156 002B     		cmp	r3, #0
 293 0158 06D1     		bne	.L24
 294              		.loc 1 228 0 discriminator 1
 295 015a 554B     		ldr	r3, .L73
 296 015c 5B78     		ldrb	r3, [r3, #1]	@ zero_extendqisi2
 297 015e 1A46     		mov	r2, r3
 298 0160 544B     		ldr	r3, .L73+4
 299 0162 9B5C     		ldrb	r3, [r3, r2]	@ zero_extendqisi2
 300 0164 462B     		cmp	r3, #70
 301 0166 F3D1     		bne	.L25
 302              	.L24:
 229:RelayTest_Complete.c ****             {}   
 230:RelayTest_Complete.c ****             
 231:RelayTest_Complete.c ****             RTest_Complete_StopAutomatedStep();
 303              		.loc 1 231 0 is_stmt 1
 304 0168 FFF7FEFF 		bl	RTest_Complete_StopAutomatedStep
 232:RelayTest_Complete.c ****             
 233:RelayTest_Complete.c ****             CyDelay(CONFIRM_TIME);
 305              		.loc 1 233 0
 306 016c 6420     		movs	r0, #100
 307 016e FFF7FEFF 		bl	CyDelay
 234:RelayTest_Complete.c ****             
 235:RelayTest_Complete.c ****             if(RTest_CompleteStatus[CurrentTest.TestStep] == 'F')
 308              		.loc 1 235 0
 309 0172 4F4B     		ldr	r3, .L73
 310 0174 5B78     		ldrb	r3, [r3, #1]	@ zero_extendqisi2
 311 0176 1A46     		mov	r2, r3
 312 0178 4E4B     		ldr	r3, .L73+4
ARM GAS  C:\Users\MARTHN~1\AppData\Local\Temp\ccXSjyDl.s 			page 11


 313 017a 9B5C     		ldrb	r3, [r3, r2]	@ zero_extendqisi2
 314 017c 462B     		cmp	r3, #70
 315 017e 03D1     		bne	.L26
 236:RelayTest_Complete.c ****             {
 237:RelayTest_Complete.c ****                 CurrentTest.TestStep = PASS;
 316              		.loc 1 237 0
 317 0180 4B4B     		ldr	r3, .L73
 318 0182 0F22     		movs	r2, #15
 319 0184 5A70     		strb	r2, [r3, #1]
 238:RelayTest_Complete.c ****             }
 239:RelayTest_Complete.c ****             else
 240:RelayTest_Complete.c ****             {
 241:RelayTest_Complete.c ****                 //CurrentTest.TestStep = INITIALIZE_TEST;
 242:RelayTest_Complete.c ****                 //CurrentTest.TestStep = TEST_OUTPUTS;
 243:RelayTest_Complete.c ****                 CurrentTest.TestStep = DATALINK;    
 244:RelayTest_Complete.c ****             }
 245:RelayTest_Complete.c ****             
 246:RelayTest_Complete.c ****         break;        
 320              		.loc 1 246 0
 321 0186 0DE3     		b	.L2
 322              	.L26:
 243:RelayTest_Complete.c ****             }
 323              		.loc 1 243 0
 324 0188 494B     		ldr	r3, .L73
 325 018a 0222     		movs	r2, #2
 326 018c 5A70     		strb	r2, [r3, #1]
 327              		.loc 1 246 0
 328 018e 09E3     		b	.L2
 329              	.L6:
 247:RelayTest_Complete.c ****               
 248:RelayTest_Complete.c ****         case DATALINK: 
 249:RelayTest_Complete.c **** 
 250:RelayTest_Complete.c ****             RTest_Complete_StartAutomatedStep();
 330              		.loc 1 250 0
 331 0190 FFF7FEFF 		bl	RTest_Complete_StartAutomatedStep
 251:RelayTest_Complete.c ****             
 252:RelayTest_Complete.c ****             while( (!RTest_Complete_Test_DataLink()) && (RTest_CompleteStatus[CurrentTest.TestStep]
 332              		.loc 1 252 0
 333 0194 00BF     		nop
 334              	.L29:
 335              		.loc 1 252 0 is_stmt 0 discriminator 2
 336 0196 FFF7FEFF 		bl	RTest_Complete_Test_DataLink
 337 019a 0346     		mov	r3, r0
 338 019c 002B     		cmp	r3, #0
 339 019e 06D1     		bne	.L28
 340              		.loc 1 252 0 discriminator 1
 341 01a0 434B     		ldr	r3, .L73
 342 01a2 5B78     		ldrb	r3, [r3, #1]	@ zero_extendqisi2
 343 01a4 1A46     		mov	r2, r3
 344 01a6 434B     		ldr	r3, .L73+4
 345 01a8 9B5C     		ldrb	r3, [r3, r2]	@ zero_extendqisi2
 346 01aa 462B     		cmp	r3, #70
 347 01ac F3D1     		bne	.L29
 348              	.L28:
 253:RelayTest_Complete.c ****             {}          
 254:RelayTest_Complete.c ****  
 255:RelayTest_Complete.c ****             RTest_Complete_StopAutomatedStep();
ARM GAS  C:\Users\MARTHN~1\AppData\Local\Temp\ccXSjyDl.s 			page 12


 349              		.loc 1 255 0 is_stmt 1
 350 01ae FFF7FEFF 		bl	RTest_Complete_StopAutomatedStep
 256:RelayTest_Complete.c ****             
 257:RelayTest_Complete.c ****             CyDelay(CONFIRM_TIME);
 351              		.loc 1 257 0
 352 01b2 6420     		movs	r0, #100
 353 01b4 FFF7FEFF 		bl	CyDelay
 258:RelayTest_Complete.c ****             
 259:RelayTest_Complete.c ****             if(RTest_CompleteStatus[CurrentTest.TestStep] == 'F')
 354              		.loc 1 259 0
 355 01b8 3D4B     		ldr	r3, .L73
 356 01ba 5B78     		ldrb	r3, [r3, #1]	@ zero_extendqisi2
 357 01bc 1A46     		mov	r2, r3
 358 01be 3D4B     		ldr	r3, .L73+4
 359 01c0 9B5C     		ldrb	r3, [r3, r2]	@ zero_extendqisi2
 360 01c2 462B     		cmp	r3, #70
 361 01c4 03D1     		bne	.L30
 260:RelayTest_Complete.c ****             {
 261:RelayTest_Complete.c ****                 CurrentTest.TestStep = PASS;
 362              		.loc 1 261 0
 363 01c6 3A4B     		ldr	r3, .L73
 364 01c8 0F22     		movs	r2, #15
 365 01ca 5A70     		strb	r2, [r3, #1]
 262:RelayTest_Complete.c ****             }
 263:RelayTest_Complete.c ****             else
 264:RelayTest_Complete.c ****             {
 265:RelayTest_Complete.c ****                 //CurrentTest.TestStep = INITIALIZE_TEST;
 266:RelayTest_Complete.c ****                 CurrentTest.TestStep = QUAD_PORTS; 
 267:RelayTest_Complete.c ****             }
 268:RelayTest_Complete.c ****             
 269:RelayTest_Complete.c ****         break;  
 366              		.loc 1 269 0
 367 01cc EAE2     		b	.L2
 368              	.L30:
 266:RelayTest_Complete.c ****             }
 369              		.loc 1 266 0
 370 01ce 384B     		ldr	r3, .L73
 371 01d0 0322     		movs	r2, #3
 372 01d2 5A70     		strb	r2, [r3, #1]
 373              		.loc 1 269 0
 374 01d4 E6E2     		b	.L2
 375              	.L7:
 270:RelayTest_Complete.c ****             
 271:RelayTest_Complete.c ****         case QUAD_PORTS: 
 272:RelayTest_Complete.c ****                 
 273:RelayTest_Complete.c ****             RTest_Complete_StartAutomatedStep();  
 376              		.loc 1 273 0
 377 01d6 FFF7FEFF 		bl	RTest_Complete_StartAutomatedStep
 274:RelayTest_Complete.c ****                 
 275:RelayTest_Complete.c ****             DEMUX_CTRL_460800_Write(RTEST_QUAD_TX);             // Select TX xhannel
 378              		.loc 1 275 0
 379 01da 0120     		movs	r0, #1
 380 01dc FFF7FEFF 		bl	DEMUX_CTRL_460800_Write
 276:RelayTest_Complete.c ****                       
 277:RelayTest_Complete.c ****             while( (!RTest_Test_QuadPorts()) && (RTest_CompleteStatus[CurrentTest.TestStep] != 'F')
 381              		.loc 1 277 0
 382 01e0 00BF     		nop
ARM GAS  C:\Users\MARTHN~1\AppData\Local\Temp\ccXSjyDl.s 			page 13


 383              	.L33:
 384              		.loc 1 277 0 is_stmt 0 discriminator 2
 385 01e2 FFF7FEFF 		bl	RTest_Test_QuadPorts
 386 01e6 0346     		mov	r3, r0
 387 01e8 002B     		cmp	r3, #0
 388 01ea 06D1     		bne	.L32
 389              		.loc 1 277 0 discriminator 1
 390 01ec 304B     		ldr	r3, .L73
 391 01ee 5B78     		ldrb	r3, [r3, #1]	@ zero_extendqisi2
 392 01f0 1A46     		mov	r2, r3
 393 01f2 304B     		ldr	r3, .L73+4
 394 01f4 9B5C     		ldrb	r3, [r3, r2]	@ zero_extendqisi2
 395 01f6 462B     		cmp	r3, #70
 396 01f8 F3D1     		bne	.L33
 397              	.L32:
 278:RelayTest_Complete.c ****             {}    
 279:RelayTest_Complete.c ****             
 280:RelayTest_Complete.c ****             RTest_Complete_StopAutomatedStep();
 398              		.loc 1 280 0 is_stmt 1
 399 01fa FFF7FEFF 		bl	RTest_Complete_StopAutomatedStep
 281:RelayTest_Complete.c ****             
 282:RelayTest_Complete.c ****             CyDelay(CONFIRM_TIME);
 400              		.loc 1 282 0
 401 01fe 6420     		movs	r0, #100
 402 0200 FFF7FEFF 		bl	CyDelay
 283:RelayTest_Complete.c ****                   
 284:RelayTest_Complete.c ****             if(RTest_CompleteStatus[CurrentTest.TestStep] == 'F')
 403              		.loc 1 284 0
 404 0204 2A4B     		ldr	r3, .L73
 405 0206 5B78     		ldrb	r3, [r3, #1]	@ zero_extendqisi2
 406 0208 1A46     		mov	r2, r3
 407 020a 2A4B     		ldr	r3, .L73+4
 408 020c 9B5C     		ldrb	r3, [r3, r2]	@ zero_extendqisi2
 409 020e 462B     		cmp	r3, #70
 410 0210 03D1     		bne	.L34
 285:RelayTest_Complete.c ****             {
 286:RelayTest_Complete.c ****                 CurrentTest.TestStep = PASS;
 411              		.loc 1 286 0
 412 0212 274B     		ldr	r3, .L73
 413 0214 0F22     		movs	r2, #15
 414 0216 5A70     		strb	r2, [r3, #1]
 287:RelayTest_Complete.c ****             }
 288:RelayTest_Complete.c ****             else
 289:RelayTest_Complete.c ****             {
 290:RelayTest_Complete.c ****                 //CurrentTest.TestStep = INITIALIZE_TEST;
 291:RelayTest_Complete.c ****                 CurrentTest.TestStep = INPUTS;   
 292:RelayTest_Complete.c ****             }
 293:RelayTest_Complete.c ****             
 294:RelayTest_Complete.c ****         break;      
 415              		.loc 1 294 0
 416 0218 C4E2     		b	.L2
 417              	.L34:
 291:RelayTest_Complete.c ****             }
 418              		.loc 1 291 0
 419 021a 254B     		ldr	r3, .L73
 420 021c 0422     		movs	r2, #4
 421 021e 5A70     		strb	r2, [r3, #1]
ARM GAS  C:\Users\MARTHN~1\AppData\Local\Temp\ccXSjyDl.s 			page 14


 422              		.loc 1 294 0
 423 0220 C0E2     		b	.L2
 424              	.L8:
 295:RelayTest_Complete.c ****               
 296:RelayTest_Complete.c ****         case INPUTS:          
 297:RelayTest_Complete.c ****                 
 298:RelayTest_Complete.c ****             RTest_Complete_StartAutomatedStep();          
 425              		.loc 1 298 0
 426 0222 FFF7FEFF 		bl	RTest_Complete_StartAutomatedStep
 299:RelayTest_Complete.c ****                 
 300:RelayTest_Complete.c ****             while( (!RTest_Test_Inputs()) && (RTest_CompleteStatus[CurrentTest.TestStep] != 'F') )
 427              		.loc 1 300 0
 428 0226 00BF     		nop
 429              	.L37:
 430              		.loc 1 300 0 is_stmt 0 discriminator 2
 431 0228 FFF7FEFF 		bl	RTest_Test_Inputs
 432 022c 0346     		mov	r3, r0
 433 022e 002B     		cmp	r3, #0
 434 0230 06D1     		bne	.L36
 435              		.loc 1 300 0 discriminator 1
 436 0232 1F4B     		ldr	r3, .L73
 437 0234 5B78     		ldrb	r3, [r3, #1]	@ zero_extendqisi2
 438 0236 1A46     		mov	r2, r3
 439 0238 1E4B     		ldr	r3, .L73+4
 440 023a 9B5C     		ldrb	r3, [r3, r2]	@ zero_extendqisi2
 441 023c 462B     		cmp	r3, #70
 442 023e F3D1     		bne	.L37
 443              	.L36:
 301:RelayTest_Complete.c ****             {}   
 302:RelayTest_Complete.c ****             
 303:RelayTest_Complete.c ****             RTest_Complete_StopAutomatedStep();
 444              		.loc 1 303 0 is_stmt 1
 445 0240 FFF7FEFF 		bl	RTest_Complete_StopAutomatedStep
 304:RelayTest_Complete.c ****             
 305:RelayTest_Complete.c ****             CyDelay(CONFIRM_TIME);
 446              		.loc 1 305 0
 447 0244 6420     		movs	r0, #100
 448 0246 FFF7FEFF 		bl	CyDelay
 306:RelayTest_Complete.c ****              
 307:RelayTest_Complete.c ****             if(RTest_CompleteStatus[CurrentTest.TestStep] == 'F')
 449              		.loc 1 307 0
 450 024a 194B     		ldr	r3, .L73
 451 024c 5B78     		ldrb	r3, [r3, #1]	@ zero_extendqisi2
 452 024e 1A46     		mov	r2, r3
 453 0250 184B     		ldr	r3, .L73+4
 454 0252 9B5C     		ldrb	r3, [r3, r2]	@ zero_extendqisi2
 455 0254 462B     		cmp	r3, #70
 456 0256 03D1     		bne	.L38
 308:RelayTest_Complete.c ****             {
 309:RelayTest_Complete.c ****                 CurrentTest.TestStep = PASS;
 457              		.loc 1 309 0
 458 0258 154B     		ldr	r3, .L73
 459 025a 0F22     		movs	r2, #15
 460 025c 5A70     		strb	r2, [r3, #1]
 310:RelayTest_Complete.c ****             }
 311:RelayTest_Complete.c ****             else
 312:RelayTest_Complete.c ****             {
ARM GAS  C:\Users\MARTHN~1\AppData\Local\Temp\ccXSjyDl.s 			page 15


 313:RelayTest_Complete.c ****                 //CurrentTest.TestStep = INITIALIZE_TEST;  
 314:RelayTest_Complete.c ****                 CurrentTest.TestStep = VBATT;  
 315:RelayTest_Complete.c ****             }
 316:RelayTest_Complete.c ****             
 317:RelayTest_Complete.c ****         break;          
 461              		.loc 1 317 0
 462 025e A1E2     		b	.L2
 463              	.L38:
 314:RelayTest_Complete.c ****             }
 464              		.loc 1 314 0
 465 0260 134B     		ldr	r3, .L73
 466 0262 0522     		movs	r2, #5
 467 0264 5A70     		strb	r2, [r3, #1]
 468              		.loc 1 317 0
 469 0266 9DE2     		b	.L2
 470              	.L9:
 318:RelayTest_Complete.c **** 
 319:RelayTest_Complete.c ****         case VBATT:                                     // Tested and working
 320:RelayTest_Complete.c ****                 
 321:RelayTest_Complete.c ****             RTest_Complete_StartAutomatedStep();
 471              		.loc 1 321 0
 472 0268 FFF7FEFF 		bl	RTest_Complete_StartAutomatedStep
 322:RelayTest_Complete.c ****                 
 323:RelayTest_Complete.c ****             while( (!RTest_Test_Vbatt()) && (RTest_CompleteStatus[CurrentTest.TestStep] != 'F') )
 473              		.loc 1 323 0
 474 026c 00BF     		nop
 475              	.L41:
 476              		.loc 1 323 0 is_stmt 0 discriminator 2
 477 026e FFF7FEFF 		bl	RTest_Test_Vbatt
 478 0272 0346     		mov	r3, r0
 479 0274 002B     		cmp	r3, #0
 480 0276 06D1     		bne	.L40
 481              		.loc 1 323 0 discriminator 1
 482 0278 0D4B     		ldr	r3, .L73
 483 027a 5B78     		ldrb	r3, [r3, #1]	@ zero_extendqisi2
 484 027c 1A46     		mov	r2, r3
 485 027e 0D4B     		ldr	r3, .L73+4
 486 0280 9B5C     		ldrb	r3, [r3, r2]	@ zero_extendqisi2
 487 0282 462B     		cmp	r3, #70
 488 0284 F3D1     		bne	.L41
 489              	.L40:
 324:RelayTest_Complete.c ****             {}    
 325:RelayTest_Complete.c ****             
 326:RelayTest_Complete.c ****             RTest_Complete_StopAutomatedStep();
 490              		.loc 1 326 0 is_stmt 1
 491 0286 FFF7FEFF 		bl	RTest_Complete_StopAutomatedStep
 327:RelayTest_Complete.c ****             
 328:RelayTest_Complete.c ****             CyDelay(CONFIRM_TIME);
 492              		.loc 1 328 0
 493 028a 6420     		movs	r0, #100
 494 028c FFF7FEFF 		bl	CyDelay
 329:RelayTest_Complete.c ****              
 330:RelayTest_Complete.c ****             if(RTest_CompleteStatus[CurrentTest.TestStep] == 'F')
 495              		.loc 1 330 0
 496 0290 074B     		ldr	r3, .L73
 497 0292 5B78     		ldrb	r3, [r3, #1]	@ zero_extendqisi2
 498 0294 1A46     		mov	r2, r3
ARM GAS  C:\Users\MARTHN~1\AppData\Local\Temp\ccXSjyDl.s 			page 16


 499 0296 074B     		ldr	r3, .L73+4
 500 0298 9B5C     		ldrb	r3, [r3, r2]	@ zero_extendqisi2
 501 029a 462B     		cmp	r3, #70
 502 029c 03D1     		bne	.L42
 331:RelayTest_Complete.c ****             {
 332:RelayTest_Complete.c ****                 CurrentTest.TestStep = PASS;
 503              		.loc 1 332 0
 504 029e 044B     		ldr	r3, .L73
 505 02a0 0F22     		movs	r2, #15
 506 02a2 5A70     		strb	r2, [r3, #1]
 333:RelayTest_Complete.c ****             }
 334:RelayTest_Complete.c ****             else
 335:RelayTest_Complete.c ****             {
 336:RelayTest_Complete.c ****                 //CurrentTest.TestStep = INITIALIZE_TEST; 
 337:RelayTest_Complete.c ****                 CurrentTest.TestStep = BLOCK_CURRENTS; 
 338:RelayTest_Complete.c ****             }
 339:RelayTest_Complete.c ****             
 340:RelayTest_Complete.c ****         break; 
 507              		.loc 1 340 0
 508 02a4 7EE2     		b	.L2
 509              	.L42:
 337:RelayTest_Complete.c ****             }
 510              		.loc 1 337 0
 511 02a6 024B     		ldr	r3, .L73
 512 02a8 0622     		movs	r2, #6
 513 02aa 5A70     		strb	r2, [r3, #1]
 514              		.loc 1 340 0
 515 02ac 7AE2     		b	.L2
 516              	.L74:
 517 02ae 00BF     		.align	2
 518              	.L73:
 519 02b0 00000000 		.word	CurrentTest
 520 02b4 10010000 		.word	RTest_CompleteStatus
 521 02b8 78000000 		.word	pTxPacket_RelaySiren
 522              	.L10:
 341:RelayTest_Complete.c ****          
 342:RelayTest_Complete.c ****         case BLOCK_CURRENTS:                            //*** Tested and working
 343:RelayTest_Complete.c ****             
 344:RelayTest_Complete.c ****             SetRelayOutputs(1);                         // Send command to turn on relay outputs
 523              		.loc 1 344 0
 524 02bc 0120     		movs	r0, #1
 525 02be FFF7FEFF 		bl	SetRelayOutputs
 345:RelayTest_Complete.c ****                 
 346:RelayTest_Complete.c ****             RTest_Complete_StartAutomatedStep();
 526              		.loc 1 346 0
 527 02c2 FFF7FEFF 		bl	RTest_Complete_StartAutomatedStep
 347:RelayTest_Complete.c ****              
 348:RelayTest_Complete.c ****             while( (!RTest_Test_BlockCurrents()) && (RTest_CompleteStatus[CurrentTest.TestStep] != 
 528              		.loc 1 348 0
 529 02c6 00BF     		nop
 530              	.L45:
 531              		.loc 1 348 0 is_stmt 0 discriminator 2
 532 02c8 FFF7FEFF 		bl	RTest_Test_BlockCurrents
 533 02cc 0346     		mov	r3, r0
 534 02ce 002B     		cmp	r3, #0
 535 02d0 06D1     		bne	.L44
 536              		.loc 1 348 0 discriminator 1
ARM GAS  C:\Users\MARTHN~1\AppData\Local\Temp\ccXSjyDl.s 			page 17


 537 02d2 AA4B     		ldr	r3, .L75
 538 02d4 5B78     		ldrb	r3, [r3, #1]	@ zero_extendqisi2
 539 02d6 1A46     		mov	r2, r3
 540 02d8 A94B     		ldr	r3, .L75+4
 541 02da 9B5C     		ldrb	r3, [r3, r2]	@ zero_extendqisi2
 542 02dc 462B     		cmp	r3, #70
 543 02de F3D1     		bne	.L45
 544              	.L44:
 349:RelayTest_Complete.c ****             {} 
 350:RelayTest_Complete.c ****             
 351:RelayTest_Complete.c ****             RTest_Complete_StopAutomatedStep();
 545              		.loc 1 351 0 is_stmt 1
 546 02e0 FFF7FEFF 		bl	RTest_Complete_StopAutomatedStep
 352:RelayTest_Complete.c ****             
 353:RelayTest_Complete.c ****             CyDelay(CONFIRM_TIME);
 547              		.loc 1 353 0
 548 02e4 6420     		movs	r0, #100
 549 02e6 FFF7FEFF 		bl	CyDelay
 354:RelayTest_Complete.c ****              
 355:RelayTest_Complete.c ****             SetRelayOutputs(0);                         // Send command to turn off relay outputs
 550              		.loc 1 355 0
 551 02ea 0020     		movs	r0, #0
 552 02ec FFF7FEFF 		bl	SetRelayOutputs
 356:RelayTest_Complete.c ****             
 357:RelayTest_Complete.c ****             CyDelay(100);
 553              		.loc 1 357 0
 554 02f0 6420     		movs	r0, #100
 555 02f2 FFF7FEFF 		bl	CyDelay
 358:RelayTest_Complete.c ****             
 359:RelayTest_Complete.c ****             if(RTest_CompleteStatus[CurrentTest.TestStep] == 'F')
 556              		.loc 1 359 0
 557 02f6 A14B     		ldr	r3, .L75
 558 02f8 5B78     		ldrb	r3, [r3, #1]	@ zero_extendqisi2
 559 02fa 1A46     		mov	r2, r3
 560 02fc A04B     		ldr	r3, .L75+4
 561 02fe 9B5C     		ldrb	r3, [r3, r2]	@ zero_extendqisi2
 562 0300 462B     		cmp	r3, #70
 563 0302 03D1     		bne	.L46
 360:RelayTest_Complete.c ****             {
 361:RelayTest_Complete.c ****                 CurrentTest.TestStep = PASS;
 564              		.loc 1 361 0
 565 0304 9D4B     		ldr	r3, .L75
 566 0306 0F22     		movs	r2, #15
 567 0308 5A70     		strb	r2, [r3, #1]
 362:RelayTest_Complete.c ****             }
 363:RelayTest_Complete.c ****             else
 364:RelayTest_Complete.c ****             {
 365:RelayTest_Complete.c ****                 //CurrentTest.TestStep = INITIALIZE_TEST;
 366:RelayTest_Complete.c ****                 CurrentTest.TestStep = GPS;
 367:RelayTest_Complete.c ****                 //CurrentTest.TestStep = PASS;
 368:RelayTest_Complete.c ****                 CurrentTest.TestStep = UART_TX;
 369:RelayTest_Complete.c ****             }
 370:RelayTest_Complete.c ****             
 371:RelayTest_Complete.c ****         break; 
 568              		.loc 1 371 0
 569 030a 4BE2     		b	.L2
 570              	.L46:
ARM GAS  C:\Users\MARTHN~1\AppData\Local\Temp\ccXSjyDl.s 			page 18


 366:RelayTest_Complete.c ****                 //CurrentTest.TestStep = PASS;
 571              		.loc 1 366 0
 572 030c 9B4B     		ldr	r3, .L75
 573 030e 0E22     		movs	r2, #14
 574 0310 5A70     		strb	r2, [r3, #1]
 368:RelayTest_Complete.c ****             }
 575              		.loc 1 368 0
 576 0312 9A4B     		ldr	r3, .L75
 577 0314 0722     		movs	r2, #7
 578 0316 5A70     		strb	r2, [r3, #1]
 579              		.loc 1 371 0
 580 0318 44E2     		b	.L2
 581              	.L11:
 372:RelayTest_Complete.c ****                     
 373:RelayTest_Complete.c ****         case UART_TX:                               // Automated - 
 374:RelayTest_Complete.c ****             
 375:RelayTest_Complete.c ****             RTest_CompleteStatus[CurrentTest.TestStep] = 'U';
 582              		.loc 1 375 0
 583 031a 984B     		ldr	r3, .L75
 584 031c 5B78     		ldrb	r3, [r3, #1]	@ zero_extendqisi2
 585 031e 1A46     		mov	r2, r3
 586 0320 974B     		ldr	r3, .L75+4
 587 0322 5521     		movs	r1, #85
 588 0324 9954     		strb	r1, [r3, r2]
 376:RelayTest_Complete.c ****             CurrentTest.Status = 'U';
 589              		.loc 1 376 0
 590 0326 954B     		ldr	r3, .L75
 591 0328 5522     		movs	r2, #85
 592 032a 9A70     		strb	r2, [r3, #2]
 377:RelayTest_Complete.c ****                 
 378:RelayTest_Complete.c **** //            RTest_Complete_StartAutomatedStep();
 379:RelayTest_Complete.c **** //        
 380:RelayTest_Complete.c **** //            //MUX_CTRL_230400_Write(STEST_RELAY);     // Mux 230400 from siren
 381:RelayTest_Complete.c **** //            MUX_CTRL_230400_Write(CTEST_RELAY);     // Mux 230400 from relay
 382:RelayTest_Complete.c **** //            
 383:RelayTest_Complete.c **** //            //VerifyPacket_230400(RTEST_SIREN);       // Verify a 'H' packet
 384:RelayTest_Complete.c **** //            while( (!VerifyPacket_230400(RTEST_SIREN)) && (RTest_CompleteStatus[CurrentTest.TestS
 385:RelayTest_Complete.c **** //            {} 
 386:RelayTest_Complete.c **** //            
 387:RelayTest_Complete.c **** //            RTest_Complete_StopAutomatedStep();
 388:RelayTest_Complete.c ****             
 389:RelayTest_Complete.c ****             CyDelay(CONFIRM_TIME);
 593              		.loc 1 389 0
 594 032c 6420     		movs	r0, #100
 595 032e FFF7FEFF 		bl	CyDelay
 390:RelayTest_Complete.c ****             
 391:RelayTest_Complete.c ****             if(RTest_CompleteStatus[CurrentTest.TestStep] == 'F')
 596              		.loc 1 391 0
 597 0332 924B     		ldr	r3, .L75
 598 0334 5B78     		ldrb	r3, [r3, #1]	@ zero_extendqisi2
 599 0336 1A46     		mov	r2, r3
 600 0338 914B     		ldr	r3, .L75+4
 601 033a 9B5C     		ldrb	r3, [r3, r2]	@ zero_extendqisi2
 602 033c 462B     		cmp	r3, #70
 603 033e 03D1     		bne	.L48
 392:RelayTest_Complete.c ****             {
 393:RelayTest_Complete.c ****                 CurrentTest.TestStep = PASS;
ARM GAS  C:\Users\MARTHN~1\AppData\Local\Temp\ccXSjyDl.s 			page 19


 604              		.loc 1 393 0
 605 0340 8E4B     		ldr	r3, .L75
 606 0342 0F22     		movs	r2, #15
 607 0344 5A70     		strb	r2, [r3, #1]
 394:RelayTest_Complete.c ****             }
 395:RelayTest_Complete.c ****             else
 396:RelayTest_Complete.c ****             {
 397:RelayTest_Complete.c ****                 CurrentTest.TestStep = AMP1;
 398:RelayTest_Complete.c ****                 //CurrentTest.TestStep = INITIALIZE_TEST;
 399:RelayTest_Complete.c ****                 //CurrentTest.TestStep = PASS;
 400:RelayTest_Complete.c ****             }
 401:RelayTest_Complete.c ****         
 402:RelayTest_Complete.c ****         break;  
 608              		.loc 1 402 0
 609 0346 2DE2     		b	.L2
 610              	.L48:
 397:RelayTest_Complete.c ****                 //CurrentTest.TestStep = INITIALIZE_TEST;
 611              		.loc 1 397 0
 612 0348 8C4B     		ldr	r3, .L75
 613 034a 0822     		movs	r2, #8
 614 034c 5A70     		strb	r2, [r3, #1]
 615              		.loc 1 402 0
 616 034e 29E2     		b	.L2
 617              	.L12:
 403:RelayTest_Complete.c ****                   
 404:RelayTest_Complete.c ****         case AMP1:                                  // Manual - 
 405:RelayTest_Complete.c ****             
 406:RelayTest_Complete.c ****             STest_SIREN_EN_Write(0);        // Turn on muted speaker load
 618              		.loc 1 406 0
 619 0350 0020     		movs	r0, #0
 620 0352 FFF7FEFF 		bl	STest_SIREN_EN_Write
 407:RelayTest_Complete.c ****             CyDelay(250);
 621              		.loc 1 407 0
 622 0356 FA20     		movs	r0, #250
 623 0358 FFF7FEFF 		bl	CyDelay
 408:RelayTest_Complete.c ****                   
 409:RelayTest_Complete.c ****             DEMUX_CTRL_230400_Write(RTEST_CONT);
 624              		.loc 1 409 0
 625 035c 0120     		movs	r0, #1
 626 035e FFF7FEFF 		bl	DEMUX_CTRL_230400_Write
 410:RelayTest_Complete.c ****             pTxPacket_RelaySiren = getTxPacket_RelaySiren();    
 627              		.loc 1 410 0
 628 0362 FFF7FEFF 		bl	getTxPacket_RelaySiren
 629 0366 0246     		mov	r2, r0
 630 0368 864B     		ldr	r3, .L75+8
 631 036a 1A60     		str	r2, [r3]
 411:RelayTest_Complete.c ****             pTxPacket_RelaySiren->Payload.Siren1Tone = 0x01; 
 632              		.loc 1 411 0
 633 036c 854B     		ldr	r3, .L75+8
 634 036e 1B68     		ldr	r3, [r3]
 635 0370 0122     		movs	r2, #1
 636 0372 83F83E20 		strb	r2, [r3, #62]
 412:RelayTest_Complete.c ****             
 413:RelayTest_Complete.c ****             RTest_CompleteStatus[CurrentTest.TestStep] = 'B';            // Let tone play for 3sec
 637              		.loc 1 413 0
 638 0376 814B     		ldr	r3, .L75
 639 0378 5B78     		ldrb	r3, [r3, #1]	@ zero_extendqisi2
ARM GAS  C:\Users\MARTHN~1\AppData\Local\Temp\ccXSjyDl.s 			page 20


 640 037a 1A46     		mov	r2, r3
 641 037c 804B     		ldr	r3, .L75+4
 642 037e 4221     		movs	r1, #66
 643 0380 9954     		strb	r1, [r3, r2]
 414:RelayTest_Complete.c ****             CurrentTest.Status = 'B'; 
 644              		.loc 1 414 0
 645 0382 7E4B     		ldr	r3, .L75
 646 0384 4222     		movs	r2, #66
 647 0386 9A70     		strb	r2, [r3, #2]
 415:RelayTest_Complete.c ****             CyDelay(1000);
 648              		.loc 1 415 0
 649 0388 4FF47A70 		mov	r0, #1000
 650 038c FFF7FEFF 		bl	CyDelay
 416:RelayTest_Complete.c ****         
 417:RelayTest_Complete.c ****             RTest_Complete_PB_WaitForAction();
 651              		.loc 1 417 0
 652 0390 FFF7FEFF 		bl	RTest_Complete_PB_WaitForAction
 418:RelayTest_Complete.c ****             
 419:RelayTest_Complete.c ****             pTxPacket_RelaySiren->Payload.Siren1Tone = 0x00;    // Turn off wail tone
 653              		.loc 1 419 0
 654 0394 7B4B     		ldr	r3, .L75+8
 655 0396 1B68     		ldr	r3, [r3]
 656 0398 0022     		movs	r2, #0
 657 039a 83F83E20 		strb	r2, [r3, #62]
 420:RelayTest_Complete.c ****             
 421:RelayTest_Complete.c ****             CyDelay(CONFIRM_TIME);
 658              		.loc 1 421 0
 659 039e 6420     		movs	r0, #100
 660 03a0 FFF7FEFF 		bl	CyDelay
 422:RelayTest_Complete.c ****             
 423:RelayTest_Complete.c ****             if(RTest_CompleteStatus[CurrentTest.TestStep] == 'F')
 661              		.loc 1 423 0
 662 03a4 754B     		ldr	r3, .L75
 663 03a6 5B78     		ldrb	r3, [r3, #1]	@ zero_extendqisi2
 664 03a8 1A46     		mov	r2, r3
 665 03aa 754B     		ldr	r3, .L75+4
 666 03ac 9B5C     		ldrb	r3, [r3, r2]	@ zero_extendqisi2
 667 03ae 462B     		cmp	r3, #70
 668 03b0 03D1     		bne	.L50
 424:RelayTest_Complete.c ****             {
 425:RelayTest_Complete.c ****                 CurrentTest.TestStep = PASS;
 669              		.loc 1 425 0
 670 03b2 724B     		ldr	r3, .L75
 671 03b4 0F22     		movs	r2, #15
 672 03b6 5A70     		strb	r2, [r3, #1]
 426:RelayTest_Complete.c ****             }
 427:RelayTest_Complete.c ****             else
 428:RelayTest_Complete.c ****             {
 429:RelayTest_Complete.c ****                 //CurrentTest.TestStep = AMP1;
 430:RelayTest_Complete.c ****                 CurrentTest.TestStep = AMP2;
 431:RelayTest_Complete.c ****             }
 432:RelayTest_Complete.c ****         
 433:RelayTest_Complete.c ****         break;    
 673              		.loc 1 433 0
 674 03b8 F4E1     		b	.L2
 675              	.L50:
 430:RelayTest_Complete.c ****             }
ARM GAS  C:\Users\MARTHN~1\AppData\Local\Temp\ccXSjyDl.s 			page 21


 676              		.loc 1 430 0
 677 03ba 704B     		ldr	r3, .L75
 678 03bc 0922     		movs	r2, #9
 679 03be 5A70     		strb	r2, [r3, #1]
 680              		.loc 1 433 0
 681 03c0 F0E1     		b	.L2
 682              	.L13:
 434:RelayTest_Complete.c ****              
 435:RelayTest_Complete.c ****         case AMP2:                                  // Manual - 
 436:RelayTest_Complete.c ****             
 437:RelayTest_Complete.c ****             STest_SIREN_EN_Write(0);        // Turn on muted speaker load
 683              		.loc 1 437 0
 684 03c2 0020     		movs	r0, #0
 685 03c4 FFF7FEFF 		bl	STest_SIREN_EN_Write
 438:RelayTest_Complete.c ****             CyDelay(250);
 686              		.loc 1 438 0
 687 03c8 FA20     		movs	r0, #250
 688 03ca FFF7FEFF 		bl	CyDelay
 439:RelayTest_Complete.c ****                        
 440:RelayTest_Complete.c ****             DEMUX_CTRL_230400_Write(RTEST_CONT);
 689              		.loc 1 440 0
 690 03ce 0120     		movs	r0, #1
 691 03d0 FFF7FEFF 		bl	DEMUX_CTRL_230400_Write
 441:RelayTest_Complete.c ****             pTxPacket_RelaySiren = getTxPacket_RelaySiren();    
 692              		.loc 1 441 0
 693 03d4 FFF7FEFF 		bl	getTxPacket_RelaySiren
 694 03d8 0246     		mov	r2, r0
 695 03da 6A4B     		ldr	r3, .L75+8
 696 03dc 1A60     		str	r2, [r3]
 442:RelayTest_Complete.c ****             pTxPacket_RelaySiren->Payload.Siren2Tone = 0x01;   
 697              		.loc 1 442 0
 698 03de 694B     		ldr	r3, .L75+8
 699 03e0 1B68     		ldr	r3, [r3]
 700 03e2 0122     		movs	r2, #1
 701 03e4 83F83F20 		strb	r2, [r3, #63]
 443:RelayTest_Complete.c ****             
 444:RelayTest_Complete.c ****             RTest_CompleteStatus[CurrentTest.TestStep] = 'B';            // Let tone play for 3sec
 702              		.loc 1 444 0
 703 03e8 644B     		ldr	r3, .L75
 704 03ea 5B78     		ldrb	r3, [r3, #1]	@ zero_extendqisi2
 705 03ec 1A46     		mov	r2, r3
 706 03ee 644B     		ldr	r3, .L75+4
 707 03f0 4221     		movs	r1, #66
 708 03f2 9954     		strb	r1, [r3, r2]
 445:RelayTest_Complete.c ****             CurrentTest.Status = 'B'; 
 709              		.loc 1 445 0
 710 03f4 614B     		ldr	r3, .L75
 711 03f6 4222     		movs	r2, #66
 712 03f8 9A70     		strb	r2, [r3, #2]
 446:RelayTest_Complete.c ****             CyDelay(1000);
 713              		.loc 1 446 0
 714 03fa 4FF47A70 		mov	r0, #1000
 715 03fe FFF7FEFF 		bl	CyDelay
 447:RelayTest_Complete.c ****              
 448:RelayTest_Complete.c ****             RTest_Complete_PB_WaitForAction();                         
 716              		.loc 1 448 0
 717 0402 FFF7FEFF 		bl	RTest_Complete_PB_WaitForAction
ARM GAS  C:\Users\MARTHN~1\AppData\Local\Temp\ccXSjyDl.s 			page 22


 449:RelayTest_Complete.c ****             
 450:RelayTest_Complete.c ****             pTxPacket_RelaySiren->Payload.Siren2Tone = 0x00;    // Turn off wail tone
 718              		.loc 1 450 0
 719 0406 5F4B     		ldr	r3, .L75+8
 720 0408 1B68     		ldr	r3, [r3]
 721 040a 0022     		movs	r2, #0
 722 040c 83F83F20 		strb	r2, [r3, #63]
 451:RelayTest_Complete.c ****             //CyDelay(1000);
 452:RelayTest_Complete.c ****             
 453:RelayTest_Complete.c ****             CyDelay(CONFIRM_TIME);
 723              		.loc 1 453 0
 724 0410 6420     		movs	r0, #100
 725 0412 FFF7FEFF 		bl	CyDelay
 454:RelayTest_Complete.c ****             
 455:RelayTest_Complete.c ****             if(RTest_CompleteStatus[CurrentTest.TestStep] == 'F')
 726              		.loc 1 455 0
 727 0416 594B     		ldr	r3, .L75
 728 0418 5B78     		ldrb	r3, [r3, #1]	@ zero_extendqisi2
 729 041a 1A46     		mov	r2, r3
 730 041c 584B     		ldr	r3, .L75+4
 731 041e 9B5C     		ldrb	r3, [r3, r2]	@ zero_extendqisi2
 732 0420 462B     		cmp	r3, #70
 733 0422 03D1     		bne	.L52
 456:RelayTest_Complete.c ****             {
 457:RelayTest_Complete.c ****                 CurrentTest.TestStep = PASS;
 734              		.loc 1 457 0
 735 0424 554B     		ldr	r3, .L75
 736 0426 0F22     		movs	r2, #15
 737 0428 5A70     		strb	r2, [r3, #1]
 458:RelayTest_Complete.c ****             }
 459:RelayTest_Complete.c ****             else
 460:RelayTest_Complete.c ****             {
 461:RelayTest_Complete.c ****                 CurrentTest.TestStep = RRB;
 462:RelayTest_Complete.c ****                 //CurrentTest.TestStep = FLASH;
 463:RelayTest_Complete.c ****                 //CurrentTest.TestStep = INITIALIZE_TEST;
 464:RelayTest_Complete.c ****                 //CurrentTest.TestStep = PASS;
 465:RelayTest_Complete.c ****             }
 466:RelayTest_Complete.c ****                 
 467:RelayTest_Complete.c ****         break;
 738              		.loc 1 467 0
 739 042a BBE1     		b	.L2
 740              	.L52:
 461:RelayTest_Complete.c ****                 //CurrentTest.TestStep = FLASH;
 741              		.loc 1 461 0
 742 042c 534B     		ldr	r3, .L75
 743 042e 0A22     		movs	r2, #10
 744 0430 5A70     		strb	r2, [r3, #1]
 745              		.loc 1 467 0
 746 0432 B7E1     		b	.L2
 747              	.L14:
 468:RelayTest_Complete.c ****             
 469:RelayTest_Complete.c ****         case RRB:    
 470:RelayTest_Complete.c ****             
 471:RelayTest_Complete.c **** //            RTest_CompleteStatus[CurrentTest.TestStep] = 'U';           
 472:RelayTest_Complete.c **** //            CurrentTest.Status = 'U'; 
 473:RelayTest_Complete.c ****             RTest_CompleteStatus[CurrentTest.TestStep] = 'B';            // Let tone play for 3sec
 748              		.loc 1 473 0
ARM GAS  C:\Users\MARTHN~1\AppData\Local\Temp\ccXSjyDl.s 			page 23


 749 0434 514B     		ldr	r3, .L75
 750 0436 5B78     		ldrb	r3, [r3, #1]	@ zero_extendqisi2
 751 0438 1A46     		mov	r2, r3
 752 043a 514B     		ldr	r3, .L75+4
 753 043c 4221     		movs	r1, #66
 754 043e 9954     		strb	r1, [r3, r2]
 474:RelayTest_Complete.c ****             CurrentTest.Status = 'B'; 
 755              		.loc 1 474 0
 756 0440 4E4B     		ldr	r3, .L75
 757 0442 4222     		movs	r2, #66
 758 0444 9A70     		strb	r2, [r3, #2]
 475:RelayTest_Complete.c ****             
 476:RelayTest_Complete.c ****             STest_SIREN_EN_Write(1);        // Turn on the less muted speaker load
 759              		.loc 1 476 0
 760 0446 0120     		movs	r0, #1
 761 0448 FFF7FEFF 		bl	STest_SIREN_EN_Write
 477:RelayTest_Complete.c ****             CyDelay(250);
 762              		.loc 1 477 0
 763 044c FA20     		movs	r0, #250
 764 044e FFF7FEFF 		bl	CyDelay
 478:RelayTest_Complete.c ****                          
 479:RelayTest_Complete.c ****             DEMUX_CTRL_230400_Write(RTEST_CONT);             // 230400 - 'S' - Send a command to en
 765              		.loc 1 479 0
 766 0452 0120     		movs	r0, #1
 767 0454 FFF7FEFF 		bl	DEMUX_CTRL_230400_Write
 480:RelayTest_Complete.c ****             pTxPacket_RelaySiren = getTxPacket_RelaySiren();    
 768              		.loc 1 480 0
 769 0458 FFF7FEFF 		bl	getTxPacket_RelaySiren
 770 045c 0246     		mov	r2, r0
 771 045e 494B     		ldr	r3, .L75+8
 772 0460 1A60     		str	r2, [r3]
 481:RelayTest_Complete.c ****             pTxPacket_RelaySiren->Payload.RRB = 0x01;  
 773              		.loc 1 481 0
 774 0462 484B     		ldr	r3, .L75+8
 775 0464 1B68     		ldr	r3, [r3]
 776 0466 0122     		movs	r2, #1
 777 0468 83F84B20 		strb	r2, [r3, #75]
 482:RelayTest_Complete.c ****             
 483:RelayTest_Complete.c ****             WaveDAC_Start();  
 778              		.loc 1 483 0
 779 046c FFF7FEFF 		bl	WaveDAC_Start
 484:RelayTest_Complete.c ****             //STest_PlayTestTone();                               // Play test tone for 3sec
 485:RelayTest_Complete.c ****             
 486:RelayTest_Complete.c ****             CyDelay(1000);
 780              		.loc 1 486 0
 781 0470 4FF47A70 		mov	r0, #1000
 782 0474 FFF7FEFF 		bl	CyDelay
 487:RelayTest_Complete.c ****  
 488:RelayTest_Complete.c ****             RTest_Complete_PB_WaitForAction();
 783              		.loc 1 488 0
 784 0478 FFF7FEFF 		bl	RTest_Complete_PB_WaitForAction
 489:RelayTest_Complete.c ****             
 490:RelayTest_Complete.c ****             WaveDAC_Stop();  
 785              		.loc 1 490 0
 786 047c FFF7FEFF 		bl	WaveDAC_Stop
 491:RelayTest_Complete.c ****             pTxPacket_RelaySiren->Payload.RRB = 0x00;  
 787              		.loc 1 491 0
ARM GAS  C:\Users\MARTHN~1\AppData\Local\Temp\ccXSjyDl.s 			page 24


 788 0480 404B     		ldr	r3, .L75+8
 789 0482 1B68     		ldr	r3, [r3]
 790 0484 0022     		movs	r2, #0
 791 0486 83F84B20 		strb	r2, [r3, #75]
 492:RelayTest_Complete.c ****          
 493:RelayTest_Complete.c ****             CyDelay(CONFIRM_TIME);
 792              		.loc 1 493 0
 793 048a 6420     		movs	r0, #100
 794 048c FFF7FEFF 		bl	CyDelay
 494:RelayTest_Complete.c **** 
 495:RelayTest_Complete.c ****             if(RTest_CompleteStatus[CurrentTest.TestStep] == 'F')
 795              		.loc 1 495 0
 796 0490 3A4B     		ldr	r3, .L75
 797 0492 5B78     		ldrb	r3, [r3, #1]	@ zero_extendqisi2
 798 0494 1A46     		mov	r2, r3
 799 0496 3A4B     		ldr	r3, .L75+4
 800 0498 9B5C     		ldrb	r3, [r3, r2]	@ zero_extendqisi2
 801 049a 462B     		cmp	r3, #70
 802 049c 03D1     		bne	.L54
 496:RelayTest_Complete.c ****             {
 497:RelayTest_Complete.c ****                 CurrentTest.TestStep = PASS;
 803              		.loc 1 497 0
 804 049e 374B     		ldr	r3, .L75
 805 04a0 0F22     		movs	r2, #15
 806 04a2 5A70     		strb	r2, [r3, #1]
 498:RelayTest_Complete.c ****             }
 499:RelayTest_Complete.c ****             else
 500:RelayTest_Complete.c ****             {
 501:RelayTest_Complete.c ****                 //CurrentTest.TestStep = AMP1;
 502:RelayTest_Complete.c ****                 //CurrentTest.TestStep = RRB;
 503:RelayTest_Complete.c ****                 CurrentTest.TestStep = MIC;
 504:RelayTest_Complete.c ****                 //CurrentTest.TestStep = INITIALIZE_TEST;
 505:RelayTest_Complete.c ****             }
 506:RelayTest_Complete.c ****         
 507:RelayTest_Complete.c ****         break;   
 807              		.loc 1 507 0
 808 04a4 7EE1     		b	.L2
 809              	.L54:
 503:RelayTest_Complete.c ****                 //CurrentTest.TestStep = INITIALIZE_TEST;
 810              		.loc 1 503 0
 811 04a6 354B     		ldr	r3, .L75
 812 04a8 0B22     		movs	r2, #11
 813 04aa 5A70     		strb	r2, [r3, #1]
 814              		.loc 1 507 0
 815 04ac 7AE1     		b	.L2
 816              	.L15:
 508:RelayTest_Complete.c ****             
 509:RelayTest_Complete.c ****         case MIC:                               
 510:RelayTest_Complete.c **** 
 511:RelayTest_Complete.c ****             STest_SIREN_EN_Write(1);  // Less muted
 817              		.loc 1 511 0
 818 04ae 0120     		movs	r0, #1
 819 04b0 FFF7FEFF 		bl	STest_SIREN_EN_Write
 512:RelayTest_Complete.c ****             CyDelay(250);
 820              		.loc 1 512 0
 821 04b4 FA20     		movs	r0, #250
 822 04b6 FFF7FEFF 		bl	CyDelay
ARM GAS  C:\Users\MARTHN~1\AppData\Local\Temp\ccXSjyDl.s 			page 25


 513:RelayTest_Complete.c ****             
 514:RelayTest_Complete.c ****             RTest_CompleteStatus[CurrentTest.TestStep] = 'W';  
 823              		.loc 1 514 0
 824 04ba 304B     		ldr	r3, .L75
 825 04bc 5B78     		ldrb	r3, [r3, #1]	@ zero_extendqisi2
 826 04be 1A46     		mov	r2, r3
 827 04c0 2F4B     		ldr	r3, .L75+4
 828 04c2 5721     		movs	r1, #87
 829 04c4 9954     		strb	r1, [r3, r2]
 515:RelayTest_Complete.c ****             CurrentTest.Status = 'W'; 
 830              		.loc 1 515 0
 831 04c6 2D4B     		ldr	r3, .L75
 832 04c8 5722     		movs	r2, #87
 833 04ca 9A70     		strb	r2, [r3, #2]
 516:RelayTest_Complete.c ****             
 517:RelayTest_Complete.c ****             //STest_SIREN_EN_Write(1);  // Less muted
 518:RelayTest_Complete.c ****             
 519:RelayTest_Complete.c ****             RTest_Complete_PB_WaitForAction();        
 834              		.loc 1 519 0
 835 04cc FFF7FEFF 		bl	RTest_Complete_PB_WaitForAction
 520:RelayTest_Complete.c ****             
 521:RelayTest_Complete.c ****             CyDelay(CONFIRM_TIME);
 836              		.loc 1 521 0
 837 04d0 6420     		movs	r0, #100
 838 04d2 FFF7FEFF 		bl	CyDelay
 522:RelayTest_Complete.c ****             
 523:RelayTest_Complete.c ****             if(RTest_CompleteStatus[CurrentTest.TestStep] == 'F')
 839              		.loc 1 523 0
 840 04d6 294B     		ldr	r3, .L75
 841 04d8 5B78     		ldrb	r3, [r3, #1]	@ zero_extendqisi2
 842 04da 1A46     		mov	r2, r3
 843 04dc 284B     		ldr	r3, .L75+4
 844 04de 9B5C     		ldrb	r3, [r3, r2]	@ zero_extendqisi2
 845 04e0 462B     		cmp	r3, #70
 846 04e2 03D1     		bne	.L56
 524:RelayTest_Complete.c ****             {
 525:RelayTest_Complete.c ****                 CurrentTest.TestStep = PASS;
 847              		.loc 1 525 0
 848 04e4 254B     		ldr	r3, .L75
 849 04e6 0F22     		movs	r2, #15
 850 04e8 5A70     		strb	r2, [r3, #1]
 526:RelayTest_Complete.c ****             }
 527:RelayTest_Complete.c ****             else
 528:RelayTest_Complete.c ****             {
 529:RelayTest_Complete.c ****                 //CurrentTest.TestStep = MIC;
 530:RelayTest_Complete.c ****                 CurrentTest.TestStep = FLASH;
 531:RelayTest_Complete.c ****                 //CurrentTest.TestStep = INITIALIZE_TEST;
 532:RelayTest_Complete.c ****             }
 533:RelayTest_Complete.c ****         
 534:RelayTest_Complete.c ****         break;    
 851              		.loc 1 534 0
 852 04ea 5BE1     		b	.L2
 853              	.L56:
 530:RelayTest_Complete.c ****                 //CurrentTest.TestStep = INITIALIZE_TEST;
 854              		.loc 1 530 0
 855 04ec 234B     		ldr	r3, .L75
 856 04ee 0C22     		movs	r2, #12
ARM GAS  C:\Users\MARTHN~1\AppData\Local\Temp\ccXSjyDl.s 			page 26


 857 04f0 5A70     		strb	r2, [r3, #1]
 858              		.loc 1 534 0
 859 04f2 57E1     		b	.L2
 860              	.L16:
 535:RelayTest_Complete.c ****                
 536:RelayTest_Complete.c ****         case FLASH:                                         // Manual - 
 537:RelayTest_Complete.c ****             
 538:RelayTest_Complete.c ****             RTest_CompleteStatus[CurrentTest.TestStep] = 'B';  
 861              		.loc 1 538 0
 862 04f4 214B     		ldr	r3, .L75
 863 04f6 5B78     		ldrb	r3, [r3, #1]	@ zero_extendqisi2
 864 04f8 1A46     		mov	r2, r3
 865 04fa 214B     		ldr	r3, .L75+4
 866 04fc 4221     		movs	r1, #66
 867 04fe 9954     		strb	r1, [r3, r2]
 539:RelayTest_Complete.c ****             CurrentTest.Status = 'B'; 
 868              		.loc 1 539 0
 869 0500 1E4B     		ldr	r3, .L75
 870 0502 4222     		movs	r2, #66
 871 0504 9A70     		strb	r2, [r3, #2]
 540:RelayTest_Complete.c ****             
 541:RelayTest_Complete.c ****             STest_SIREN_EN_Write(1);  // 
 872              		.loc 1 541 0
 873 0506 0120     		movs	r0, #1
 874 0508 FFF7FEFF 		bl	STest_SIREN_EN_Write
 542:RelayTest_Complete.c ****             CyDelay(250);
 875              		.loc 1 542 0
 876 050c FA20     		movs	r0, #250
 877 050e FFF7FEFF 		bl	CyDelay
 543:RelayTest_Complete.c ****             
 544:RelayTest_Complete.c ****             /*this is test code to scroll through tones with PB*/
 545:RelayTest_Complete.c ****             DEMUX_CTRL_230400_Write(RTEST_CONT);             // 230400 - 'S' - Send a command to pl
 878              		.loc 1 545 0
 879 0512 0120     		movs	r0, #1
 880 0514 FFF7FEFF 		bl	DEMUX_CTRL_230400_Write
 546:RelayTest_Complete.c ****             pTxPacket_RelaySiren = getTxPacket_RelaySiren();    
 881              		.loc 1 546 0
 882 0518 FFF7FEFF 		bl	getTxPacket_RelaySiren
 883 051c 0246     		mov	r2, r0
 884 051e 194B     		ldr	r3, .L75+8
 885 0520 1A60     		str	r2, [r3]
 547:RelayTest_Complete.c ****             
 548:RelayTest_Complete.c ****             pTxPacket_RelaySiren->Payload.Siren1Tone = 16; 
 886              		.loc 1 548 0
 887 0522 184B     		ldr	r3, .L75+8
 888 0524 1B68     		ldr	r3, [r3]
 889 0526 1022     		movs	r2, #16
 890 0528 83F83E20 		strb	r2, [r3, #62]
 549:RelayTest_Complete.c ****             pTxPacket_RelaySiren->Payload.Siren2Tone = 16; 
 891              		.loc 1 549 0
 892 052c 154B     		ldr	r3, .L75+8
 893 052e 1B68     		ldr	r3, [r3]
 894 0530 1022     		movs	r2, #16
 895 0532 83F83F20 		strb	r2, [r3, #63]
 550:RelayTest_Complete.c ****             
 551:RelayTest_Complete.c ****             CyDelay(1000);
 896              		.loc 1 551 0
ARM GAS  C:\Users\MARTHN~1\AppData\Local\Temp\ccXSjyDl.s 			page 27


 897 0536 4FF47A70 		mov	r0, #1000
 898 053a FFF7FEFF 		bl	CyDelay
 552:RelayTest_Complete.c **** 
 553:RelayTest_Complete.c ****             RTest_Complete_PB_WaitForAction();
 899              		.loc 1 553 0
 900 053e FFF7FEFF 		bl	RTest_Complete_PB_WaitForAction
 554:RelayTest_Complete.c ****        
 555:RelayTest_Complete.c ****             pTxPacket_RelaySiren->Payload.Siren1Tone = 0; 
 901              		.loc 1 555 0
 902 0542 104B     		ldr	r3, .L75+8
 903 0544 1B68     		ldr	r3, [r3]
 904 0546 0022     		movs	r2, #0
 905 0548 83F83E20 		strb	r2, [r3, #62]
 556:RelayTest_Complete.c ****             pTxPacket_RelaySiren->Payload.Siren2Tone = 0; 
 906              		.loc 1 556 0
 907 054c 0D4B     		ldr	r3, .L75+8
 908 054e 1B68     		ldr	r3, [r3]
 909 0550 0022     		movs	r2, #0
 910 0552 83F83F20 		strb	r2, [r3, #63]
 557:RelayTest_Complete.c **** 
 558:RelayTest_Complete.c ****             CyDelay(CONFIRM_TIME);
 911              		.loc 1 558 0
 912 0556 6420     		movs	r0, #100
 913 0558 FFF7FEFF 		bl	CyDelay
 559:RelayTest_Complete.c ****             
 560:RelayTest_Complete.c ****             if(RTest_CompleteStatus[CurrentTest.TestStep] == 'F')
 914              		.loc 1 560 0
 915 055c 074B     		ldr	r3, .L75
 916 055e 5B78     		ldrb	r3, [r3, #1]	@ zero_extendqisi2
 917 0560 1A46     		mov	r2, r3
 918 0562 074B     		ldr	r3, .L75+4
 919 0564 9B5C     		ldrb	r3, [r3, r2]	@ zero_extendqisi2
 920 0566 462B     		cmp	r3, #70
 921 0568 03D1     		bne	.L58
 561:RelayTest_Complete.c ****             {
 562:RelayTest_Complete.c ****                 CurrentTest.TestStep = PASS;
 922              		.loc 1 562 0
 923 056a 044B     		ldr	r3, .L75
 924 056c 0F22     		movs	r2, #15
 925 056e 5A70     		strb	r2, [r3, #1]
 563:RelayTest_Complete.c ****             }
 564:RelayTest_Complete.c ****             else
 565:RelayTest_Complete.c ****             {
 566:RelayTest_Complete.c ****                 CurrentTest.TestStep = OVERLOAD;
 567:RelayTest_Complete.c ****                 //CurrentTest.TestStep = MIC;
 568:RelayTest_Complete.c ****                 //CurrentTest.TestStep = FLASH;
 569:RelayTest_Complete.c ****                 //CurrentTest.TestStep = INITIALIZE_TEST;
 570:RelayTest_Complete.c ****             }
 571:RelayTest_Complete.c ****                 
 572:RelayTest_Complete.c ****         break;  
 926              		.loc 1 572 0
 927 0570 18E1     		b	.L2
 928              	.L58:
 566:RelayTest_Complete.c ****                 //CurrentTest.TestStep = MIC;
 929              		.loc 1 566 0
 930 0572 024B     		ldr	r3, .L75
 931 0574 0D22     		movs	r2, #13
ARM GAS  C:\Users\MARTHN~1\AppData\Local\Temp\ccXSjyDl.s 			page 28


 932 0576 5A70     		strb	r2, [r3, #1]
 933              		.loc 1 572 0
 934 0578 14E1     		b	.L2
 935              	.L76:
 936 057a 00BF     		.align	2
 937              	.L75:
 938 057c 00000000 		.word	CurrentTest
 939 0580 10010000 		.word	RTest_CompleteStatus
 940 0584 78000000 		.word	pTxPacket_RelaySiren
 941              	.L17:
 573:RelayTest_Complete.c ****              
 574:RelayTest_Complete.c ****         case OVERLOAD:     
 575:RelayTest_Complete.c ****             
 576:RelayTest_Complete.c ****             RTest_CompleteStatus[CurrentTest.TestStep] = 'B';           
 942              		.loc 1 576 0
 943 0588 894B     		ldr	r3, .L77
 944 058a 5B78     		ldrb	r3, [r3, #1]	@ zero_extendqisi2
 945 058c 1A46     		mov	r2, r3
 946 058e 894B     		ldr	r3, .L77+4
 947 0590 4221     		movs	r1, #66
 948 0592 9954     		strb	r1, [r3, r2]
 577:RelayTest_Complete.c ****             CurrentTest.Status = 'B'; 
 949              		.loc 1 577 0
 950 0594 864B     		ldr	r3, .L77
 951 0596 4222     		movs	r2, #66
 952 0598 9A70     		strb	r2, [r3, #2]
 578:RelayTest_Complete.c ****             
 579:RelayTest_Complete.c ****             CyDelay(5000);
 953              		.loc 1 579 0
 954 059a 41F28830 		movw	r0, #5000
 955 059e FFF7FEFF 		bl	CyDelay
 580:RelayTest_Complete.c ****             STest_SIREN_EN_Write(0);  // 
 956              		.loc 1 580 0
 957 05a2 0020     		movs	r0, #0
 958 05a4 FFF7FEFF 		bl	STest_SIREN_EN_Write
 581:RelayTest_Complete.c ****             CyDelay(250);
 959              		.loc 1 581 0
 960 05a8 FA20     		movs	r0, #250
 961 05aa FFF7FEFF 		bl	CyDelay
 582:RelayTest_Complete.c **** 
 583:RelayTest_Complete.c ****             //MUX_CTRL_230400_Write(STEST_RELAY);     // Rx - 'D' packet
 584:RelayTest_Complete.c ****             MUX_CTRL_230400_Write(RTEST_CONT);          // Rx - 'D' packet
 962              		.loc 1 584 0
 963 05ae 0120     		movs	r0, #1
 964 05b0 FFF7FEFF 		bl	MUX_CTRL_230400_Write
 585:RelayTest_Complete.c ****     
 586:RelayTest_Complete.c ****             //DEMUX_CTRL_230400_Write(STEST_RELAY);   // Tx - 'S' packet
 587:RelayTest_Complete.c ****             DEMUX_CTRL_230400_Write(RTEST_CONT);        // Tx - 'I' packet (includes 'S' packet)
 965              		.loc 1 587 0
 966 05b4 0120     		movs	r0, #1
 967 05b6 FFF7FEFF 		bl	DEMUX_CTRL_230400_Write
 588:RelayTest_Complete.c **** 
 589:RelayTest_Complete.c ****             RTest_Complete_StartAutomatedStep();
 968              		.loc 1 589 0
 969 05ba FFF7FEFF 		bl	RTest_Complete_StartAutomatedStep
 590:RelayTest_Complete.c ****             
 591:RelayTest_Complete.c ****             Overload1_Write(0);                
ARM GAS  C:\Users\MARTHN~1\AppData\Local\Temp\ccXSjyDl.s 			page 29


 970              		.loc 1 591 0
 971 05be 0020     		movs	r0, #0
 972 05c0 FFF7FEFF 		bl	Overload1_Write
 592:RelayTest_Complete.c ****             Overload2_Write(1);                
 973              		.loc 1 592 0
 974 05c4 0120     		movs	r0, #1
 975 05c6 FFF7FEFF 		bl	Overload2_Write
 593:RelayTest_Complete.c ****             
 594:RelayTest_Complete.c ****             CyDelay(100);
 976              		.loc 1 594 0
 977 05ca 6420     		movs	r0, #100
 978 05cc FFF7FEFF 		bl	CyDelay
 595:RelayTest_Complete.c ****             
 596:RelayTest_Complete.c ****             pTxPacket_RelaySiren = getTxPacket_RelaySiren();                // 230400 - 'S' - Send 
 979              		.loc 1 596 0
 980 05d0 FFF7FEFF 		bl	getTxPacket_RelaySiren
 981 05d4 0246     		mov	r2, r0
 982 05d6 784B     		ldr	r3, .L77+8
 983 05d8 1A60     		str	r2, [r3]
 597:RelayTest_Complete.c ****             pTxPacket_RelaySiren->Payload.Siren1Tone = 0; 
 984              		.loc 1 597 0
 985 05da 774B     		ldr	r3, .L77+8
 986 05dc 1B68     		ldr	r3, [r3]
 987 05de 0022     		movs	r2, #0
 988 05e0 83F83E20 		strb	r2, [r3, #62]
 598:RelayTest_Complete.c ****             pTxPacket_RelaySiren->Payload.Siren2Tone = 1;     
 989              		.loc 1 598 0
 990 05e4 744B     		ldr	r3, .L77+8
 991 05e6 1B68     		ldr	r3, [r3]
 992 05e8 0122     		movs	r2, #1
 993 05ea 83F83F20 		strb	r2, [r3, #63]
 599:RelayTest_Complete.c ****             
 600:RelayTest_Complete.c ****             CyDelay(100);
 994              		.loc 1 600 0
 995 05ee 6420     		movs	r0, #100
 996 05f0 FFF7FEFF 		bl	CyDelay
 601:RelayTest_Complete.c ****              
 602:RelayTest_Complete.c ****             pRxPacket_RelaySiren = getRxPacket_RelaySiren();
 997              		.loc 1 602 0
 998 05f4 FFF7FEFF 		bl	getRxPacket_RelaySiren
 999 05f8 0246     		mov	r2, r0
 1000 05fa 704B     		ldr	r3, .L77+12
 1001 05fc 1A60     		str	r2, [r3]
 603:RelayTest_Complete.c ****             while( (pRxPacket_RelaySiren->Payload.Speaker2_Overcurrent != 1) && (RTest_CompleteStat
 1002              		.loc 1 603 0
 1003 05fe 00BF     		nop
 1004              	.L61:
 1005              		.loc 1 603 0 is_stmt 0 discriminator 2
 1006 0600 6E4B     		ldr	r3, .L77+12
 1007 0602 1B68     		ldr	r3, [r3]
 1008 0604 9B79     		ldrb	r3, [r3, #6]	@ zero_extendqisi2
 1009 0606 012B     		cmp	r3, #1
 1010 0608 06D0     		beq	.L60
 1011              		.loc 1 603 0 discriminator 1
 1012 060a 694B     		ldr	r3, .L77
 1013 060c 5B78     		ldrb	r3, [r3, #1]	@ zero_extendqisi2
 1014 060e 1A46     		mov	r2, r3
ARM GAS  C:\Users\MARTHN~1\AppData\Local\Temp\ccXSjyDl.s 			page 30


 1015 0610 684B     		ldr	r3, .L77+4
 1016 0612 9B5C     		ldrb	r3, [r3, r2]	@ zero_extendqisi2
 1017 0614 462B     		cmp	r3, #70
 1018 0616 F3D1     		bne	.L61
 1019              	.L60:
 604:RelayTest_Complete.c ****             {}
 605:RelayTest_Complete.c ****                 
 606:RelayTest_Complete.c ****             RTest_Complete_StopAutomatedStep();
 1020              		.loc 1 606 0 is_stmt 1
 1021 0618 FFF7FEFF 		bl	RTest_Complete_StopAutomatedStep
 607:RelayTest_Complete.c ****             
 608:RelayTest_Complete.c ****             Overload1_Write(0);               
 1022              		.loc 1 608 0
 1023 061c 0020     		movs	r0, #0
 1024 061e FFF7FEFF 		bl	Overload1_Write
 609:RelayTest_Complete.c ****             Overload2_Write(0);
 1025              		.loc 1 609 0
 1026 0622 0020     		movs	r0, #0
 1027 0624 FFF7FEFF 		bl	Overload2_Write
 610:RelayTest_Complete.c ****                 
 611:RelayTest_Complete.c ****             CyDelay(1000);
 1028              		.loc 1 611 0
 1029 0628 4FF47A70 		mov	r0, #1000
 1030 062c FFF7FEFF 		bl	CyDelay
 612:RelayTest_Complete.c ****             
 613:RelayTest_Complete.c ****             Overload1_Write(0);                                 // Turn everything off
 1031              		.loc 1 613 0
 1032 0630 0020     		movs	r0, #0
 1033 0632 FFF7FEFF 		bl	Overload1_Write
 614:RelayTest_Complete.c ****             Overload2_Write(0);
 1034              		.loc 1 614 0
 1035 0636 0020     		movs	r0, #0
 1036 0638 FFF7FEFF 		bl	Overload2_Write
 615:RelayTest_Complete.c ****             pTxPacket_RelaySiren->Payload.Siren1Tone = 0;  
 1037              		.loc 1 615 0
 1038 063c 5E4B     		ldr	r3, .L77+8
 1039 063e 1B68     		ldr	r3, [r3]
 1040 0640 0022     		movs	r2, #0
 1041 0642 83F83E20 		strb	r2, [r3, #62]
 616:RelayTest_Complete.c ****             pTxPacket_RelaySiren->Payload.Siren2Tone = 0; 
 1042              		.loc 1 616 0
 1043 0646 5C4B     		ldr	r3, .L77+8
 1044 0648 1B68     		ldr	r3, [r3]
 1045 064a 0022     		movs	r2, #0
 1046 064c 83F83F20 		strb	r2, [r3, #63]
 617:RelayTest_Complete.c ****                 
 618:RelayTest_Complete.c ****             //--------------------------------------
 619:RelayTest_Complete.c ****             
 620:RelayTest_Complete.c ****             if(RTest_CompleteStatus[CurrentTest.TestStep] == 'F')
 1047              		.loc 1 620 0
 1048 0650 574B     		ldr	r3, .L77
 1049 0652 5B78     		ldrb	r3, [r3, #1]	@ zero_extendqisi2
 1050 0654 1A46     		mov	r2, r3
 1051 0656 574B     		ldr	r3, .L77+4
 1052 0658 9B5C     		ldrb	r3, [r3, r2]	@ zero_extendqisi2
 1053 065a 462B     		cmp	r3, #70
 1054 065c 02D1     		bne	.L62
ARM GAS  C:\Users\MARTHN~1\AppData\Local\Temp\ccXSjyDl.s 			page 31


 621:RelayTest_Complete.c ****             {
 622:RelayTest_Complete.c ****                 CurrentTest.TestStep = PASS;
 1055              		.loc 1 622 0
 1056 065e 544B     		ldr	r3, .L77
 1057 0660 0F22     		movs	r2, #15
 1058 0662 5A70     		strb	r2, [r3, #1]
 1059              	.L62:
 623:RelayTest_Complete.c ****             }
 624:RelayTest_Complete.c ****             
 625:RelayTest_Complete.c ****             RTest_CompleteStatus[CurrentTest.TestStep] = 'B';
 1060              		.loc 1 625 0
 1061 0664 524B     		ldr	r3, .L77
 1062 0666 5B78     		ldrb	r3, [r3, #1]	@ zero_extendqisi2
 1063 0668 1A46     		mov	r2, r3
 1064 066a 524B     		ldr	r3, .L77+4
 1065 066c 4221     		movs	r1, #66
 1066 066e 9954     		strb	r1, [r3, r2]
 626:RelayTest_Complete.c ****             CurrentTest.Status = 'B';
 1067              		.loc 1 626 0
 1068 0670 4F4B     		ldr	r3, .L77
 1069 0672 4222     		movs	r2, #66
 1070 0674 9A70     		strb	r2, [r3, #2]
 627:RelayTest_Complete.c ****             while( (pRxPacket_RelaySiren->Payload.Speaker1_Overcurrent != 0) || (pRxPacket_RelaySir
 1071              		.loc 1 627 0
 1072 0676 00BF     		nop
 1073              	.L63:
 1074              		.loc 1 627 0 is_stmt 0 discriminator 3
 1075 0678 504B     		ldr	r3, .L77+12
 1076 067a 1B68     		ldr	r3, [r3]
 1077 067c 5B79     		ldrb	r3, [r3, #5]	@ zero_extendqisi2
 1078 067e 002B     		cmp	r3, #0
 1079 0680 FAD1     		bne	.L63
 1080              		.loc 1 627 0 discriminator 2
 1081 0682 4E4B     		ldr	r3, .L77+12
 1082 0684 1B68     		ldr	r3, [r3]
 1083 0686 9B79     		ldrb	r3, [r3, #6]	@ zero_extendqisi2
 1084 0688 002B     		cmp	r3, #0
 1085 068a F5D1     		bne	.L63
 628:RelayTest_Complete.c ****             {}
 629:RelayTest_Complete.c ****             
 630:RelayTest_Complete.c ****             //--------------------------------------
 631:RelayTest_Complete.c **** 
 632:RelayTest_Complete.c ****             RTest_Complete_StartAutomatedStep();
 1086              		.loc 1 632 0 is_stmt 1
 1087 068c FFF7FEFF 		bl	RTest_Complete_StartAutomatedStep
 633:RelayTest_Complete.c ****             
 634:RelayTest_Complete.c ****             Overload1_Write(1);               
 1088              		.loc 1 634 0
 1089 0690 0120     		movs	r0, #1
 1090 0692 FFF7FEFF 		bl	Overload1_Write
 635:RelayTest_Complete.c ****             Overload2_Write(0);              
 1091              		.loc 1 635 0
 1092 0696 0020     		movs	r0, #0
 1093 0698 FFF7FEFF 		bl	Overload2_Write
 636:RelayTest_Complete.c ****             
 637:RelayTest_Complete.c ****             CyDelay(100);
 1094              		.loc 1 637 0
ARM GAS  C:\Users\MARTHN~1\AppData\Local\Temp\ccXSjyDl.s 			page 32


 1095 069c 6420     		movs	r0, #100
 1096 069e FFF7FEFF 		bl	CyDelay
 638:RelayTest_Complete.c ****             
 639:RelayTest_Complete.c ****             pTxPacket_RelaySiren = getTxPacket_RelaySiren();                // 230400 - 'S' - Send 
 1097              		.loc 1 639 0
 1098 06a2 FFF7FEFF 		bl	getTxPacket_RelaySiren
 1099 06a6 0246     		mov	r2, r0
 1100 06a8 434B     		ldr	r3, .L77+8
 1101 06aa 1A60     		str	r2, [r3]
 640:RelayTest_Complete.c ****             pTxPacket_RelaySiren->Payload.Siren1Tone = 1;     
 1102              		.loc 1 640 0
 1103 06ac 424B     		ldr	r3, .L77+8
 1104 06ae 1B68     		ldr	r3, [r3]
 1105 06b0 0122     		movs	r2, #1
 1106 06b2 83F83E20 		strb	r2, [r3, #62]
 641:RelayTest_Complete.c ****             pTxPacket_RelaySiren->Payload.Siren2Tone = 0;    
 1107              		.loc 1 641 0
 1108 06b6 404B     		ldr	r3, .L77+8
 1109 06b8 1B68     		ldr	r3, [r3]
 1110 06ba 0022     		movs	r2, #0
 1111 06bc 83F83F20 		strb	r2, [r3, #63]
 642:RelayTest_Complete.c ****             
 643:RelayTest_Complete.c ****             CyDelay(100);
 1112              		.loc 1 643 0
 1113 06c0 6420     		movs	r0, #100
 1114 06c2 FFF7FEFF 		bl	CyDelay
 644:RelayTest_Complete.c ****                 
 645:RelayTest_Complete.c ****             while( (pRxPacket_RelaySiren->Payload.Speaker1_Overcurrent != 1) && (RTest_CompleteStat
 1115              		.loc 1 645 0
 1116 06c6 00BF     		nop
 1117              	.L65:
 1118              		.loc 1 645 0 is_stmt 0 discriminator 2
 1119 06c8 3C4B     		ldr	r3, .L77+12
 1120 06ca 1B68     		ldr	r3, [r3]
 1121 06cc 5B79     		ldrb	r3, [r3, #5]	@ zero_extendqisi2
 1122 06ce 012B     		cmp	r3, #1
 1123 06d0 06D0     		beq	.L64
 1124              		.loc 1 645 0 discriminator 1
 1125 06d2 374B     		ldr	r3, .L77
 1126 06d4 5B78     		ldrb	r3, [r3, #1]	@ zero_extendqisi2
 1127 06d6 1A46     		mov	r2, r3
 1128 06d8 364B     		ldr	r3, .L77+4
 1129 06da 9B5C     		ldrb	r3, [r3, r2]	@ zero_extendqisi2
 1130 06dc 462B     		cmp	r3, #70
 1131 06de F3D1     		bne	.L65
 1132              	.L64:
 646:RelayTest_Complete.c ****             {}
 647:RelayTest_Complete.c ****                 
 648:RelayTest_Complete.c ****             RTest_Complete_StopAutomatedStep();
 1133              		.loc 1 648 0 is_stmt 1
 1134 06e0 FFF7FEFF 		bl	RTest_Complete_StopAutomatedStep
 649:RelayTest_Complete.c ****             
 650:RelayTest_Complete.c ****             Overload1_Write(0);                                 // Turn everything off
 1135              		.loc 1 650 0
 1136 06e4 0020     		movs	r0, #0
 1137 06e6 FFF7FEFF 		bl	Overload1_Write
 651:RelayTest_Complete.c ****             Overload2_Write(0);
ARM GAS  C:\Users\MARTHN~1\AppData\Local\Temp\ccXSjyDl.s 			page 33


 1138              		.loc 1 651 0
 1139 06ea 0020     		movs	r0, #0
 1140 06ec FFF7FEFF 		bl	Overload2_Write
 652:RelayTest_Complete.c **** 
 653:RelayTest_Complete.c ****             pTxPacket_RelaySiren->Payload.Siren1Tone = 0; 
 1141              		.loc 1 653 0
 1142 06f0 314B     		ldr	r3, .L77+8
 1143 06f2 1B68     		ldr	r3, [r3]
 1144 06f4 0022     		movs	r2, #0
 1145 06f6 83F83E20 		strb	r2, [r3, #62]
 654:RelayTest_Complete.c ****             pTxPacket_RelaySiren->Payload.Siren2Tone = 0; 
 1146              		.loc 1 654 0
 1147 06fa 2F4B     		ldr	r3, .L77+8
 1148 06fc 1B68     		ldr	r3, [r3]
 1149 06fe 0022     		movs	r2, #0
 1150 0700 83F83F20 		strb	r2, [r3, #63]
 655:RelayTest_Complete.c ****             
 656:RelayTest_Complete.c ****             CyDelay(1000);
 1151              		.loc 1 656 0
 1152 0704 4FF47A70 		mov	r0, #1000
 1153 0708 FFF7FEFF 		bl	CyDelay
 657:RelayTest_Complete.c ****             
 658:RelayTest_Complete.c ****             if(RTest_CompleteStatus[CurrentTest.TestStep] == 'F')
 1154              		.loc 1 658 0
 1155 070c 284B     		ldr	r3, .L77
 1156 070e 5B78     		ldrb	r3, [r3, #1]	@ zero_extendqisi2
 1157 0710 1A46     		mov	r2, r3
 1158 0712 284B     		ldr	r3, .L77+4
 1159 0714 9B5C     		ldrb	r3, [r3, r2]	@ zero_extendqisi2
 1160 0716 462B     		cmp	r3, #70
 1161 0718 03D1     		bne	.L66
 659:RelayTest_Complete.c ****             {
 660:RelayTest_Complete.c ****                 CurrentTest.TestStep = PASS;
 1162              		.loc 1 660 0
 1163 071a 254B     		ldr	r3, .L77
 1164 071c 0F22     		movs	r2, #15
 1165 071e 5A70     		strb	r2, [r3, #1]
 661:RelayTest_Complete.c ****             }
 662:RelayTest_Complete.c ****             else
 663:RelayTest_Complete.c ****             {
 664:RelayTest_Complete.c ****                 //CurrentTest.TestStep = INITIALIZE_TEST;
 665:RelayTest_Complete.c ****                 //CurrentTest.TestStep = MIC;
 666:RelayTest_Complete.c ****                 //CurrentTest.TestStep = OVERLOAD;
 667:RelayTest_Complete.c ****                 CurrentTest.TestStep = GPS;
 668:RelayTest_Complete.c ****                 //CurrentTest.TestStep = PASS;
 669:RelayTest_Complete.c ****             }
 670:RelayTest_Complete.c ****             
 671:RelayTest_Complete.c ****         break;  
 1166              		.loc 1 671 0
 1167 0720 40E0     		b	.L2
 1168              	.L66:
 667:RelayTest_Complete.c ****                 //CurrentTest.TestStep = PASS;
 1169              		.loc 1 667 0
 1170 0722 234B     		ldr	r3, .L77
 1171 0724 0E22     		movs	r2, #14
 1172 0726 5A70     		strb	r2, [r3, #1]
 1173              		.loc 1 671 0
ARM GAS  C:\Users\MARTHN~1\AppData\Local\Temp\ccXSjyDl.s 			page 34


 1174 0728 3CE0     		b	.L2
 1175              	.L18:
 672:RelayTest_Complete.c ****             
 673:RelayTest_Complete.c ****         case GPS:         
 674:RelayTest_Complete.c ****             
 675:RelayTest_Complete.c ****             RTest_CompleteStatus[CurrentTest.TestStep] = 'U';
 1176              		.loc 1 675 0
 1177 072a 214B     		ldr	r3, .L77
 1178 072c 5B78     		ldrb	r3, [r3, #1]	@ zero_extendqisi2
 1179 072e 1A46     		mov	r2, r3
 1180 0730 204B     		ldr	r3, .L77+4
 1181 0732 5521     		movs	r1, #85
 1182 0734 9954     		strb	r1, [r3, r2]
 676:RelayTest_Complete.c ****             CurrentTest.Status = 'U';
 1183              		.loc 1 676 0
 1184 0736 1E4B     		ldr	r3, .L77
 1185 0738 5522     		movs	r2, #85
 1186 073a 9A70     		strb	r2, [r3, #2]
 677:RelayTest_Complete.c **** 
 678:RelayTest_Complete.c **** //            RTest_Complete_StartAutomatedStep();
 679:RelayTest_Complete.c **** //
 680:RelayTest_Complete.c **** //            MUX_CTRL_230400_Write(RTEST_CONT);
 681:RelayTest_Complete.c **** //               
 682:RelayTest_Complete.c **** //            while( (!VerifyPacket_GPS()) && (RTest_CompleteStatus[CurrentTest.TestStep] != 'F') )
 683:RelayTest_Complete.c **** //            {}        
 684:RelayTest_Complete.c **** //            
 685:RelayTest_Complete.c **** //            RTest_Complete_StopAutomatedStep();
 686:RelayTest_Complete.c **** 
 687:RelayTest_Complete.c ****             CyDelay(CONFIRM_TIME);
 1187              		.loc 1 687 0
 1188 073c 6420     		movs	r0, #100
 1189 073e FFF7FEFF 		bl	CyDelay
 688:RelayTest_Complete.c ****              
 689:RelayTest_Complete.c ****             //CurrentTest.TestStep = INITIALIZE_TEST; 
 690:RelayTest_Complete.c ****             //CurrentTest.TestStep = GPS;
 691:RelayTest_Complete.c ****             //CurrentTest.TestStep = UART_TX;
 692:RelayTest_Complete.c ****             CurrentTest.TestStep = PASS;
 1190              		.loc 1 692 0
 1191 0742 1B4B     		ldr	r3, .L77
 1192 0744 0F22     		movs	r2, #15
 1193 0746 5A70     		strb	r2, [r3, #1]
 693:RelayTest_Complete.c ****             
 694:RelayTest_Complete.c ****         break;   
 1194              		.loc 1 694 0
 1195 0748 2CE0     		b	.L2
 1196              	.L19:
 1197              	.LBB4:
 695:RelayTest_Complete.c ****             
 696:RelayTest_Complete.c ****         case PASS:  
 697:RelayTest_Complete.c ****             
 698:RelayTest_Complete.c ****             for(uint8 i=0;i<(NUMBER_TEST_STEPS-1);i++)
 1198              		.loc 1 698 0
 1199 074a 0023     		movs	r3, #0
 1200 074c 7B71     		strb	r3, [r7, #5]
 1201 074e 15E0     		b	.L68
 1202              	.L70:
 699:RelayTest_Complete.c ****             {
ARM GAS  C:\Users\MARTHN~1\AppData\Local\Temp\ccXSjyDl.s 			page 35


 700:RelayTest_Complete.c ****                 if( (RTest_CompleteStatus[i] != 'P') && (RTest_CompleteStatus[i] != 'U') )
 1203              		.loc 1 700 0
 1204 0750 7B79     		ldrb	r3, [r7, #5]	@ zero_extendqisi2
 1205 0752 184A     		ldr	r2, .L77+4
 1206 0754 D35C     		ldrb	r3, [r2, r3]	@ zero_extendqisi2
 1207 0756 502B     		cmp	r3, #80
 1208 0758 0DD0     		beq	.L69
 1209              		.loc 1 700 0 is_stmt 0 discriminator 1
 1210 075a 7B79     		ldrb	r3, [r7, #5]	@ zero_extendqisi2
 1211 075c 154A     		ldr	r2, .L77+4
 1212 075e D35C     		ldrb	r3, [r2, r3]	@ zero_extendqisi2
 1213 0760 552B     		cmp	r3, #85
 1214 0762 08D0     		beq	.L69
 701:RelayTest_Complete.c ****                 {
 702:RelayTest_Complete.c ****                     RTest_CompleteStatus[CurrentTest.TestStep] = 'f';
 1215              		.loc 1 702 0 is_stmt 1
 1216 0764 124B     		ldr	r3, .L77
 1217 0766 5B78     		ldrb	r3, [r3, #1]	@ zero_extendqisi2
 1218 0768 1A46     		mov	r2, r3
 1219 076a 124B     		ldr	r3, .L77+4
 1220 076c 6621     		movs	r1, #102
 1221 076e 9954     		strb	r1, [r3, r2]
 703:RelayTest_Complete.c ****                     CurrentTest.Status = 'f';                      
 1222              		.loc 1 703 0
 1223 0770 0F4B     		ldr	r3, .L77
 1224 0772 6622     		movs	r2, #102
 1225 0774 9A70     		strb	r2, [r3, #2]
 1226              	.L69:
 698:RelayTest_Complete.c ****             {
 1227              		.loc 1 698 0 discriminator 2
 1228 0776 7B79     		ldrb	r3, [r7, #5]	@ zero_extendqisi2
 1229 0778 0133     		adds	r3, r3, #1
 1230 077a 7B71     		strb	r3, [r7, #5]
 1231              	.L68:
 698:RelayTest_Complete.c ****             {
 1232              		.loc 1 698 0 is_stmt 0 discriminator 1
 1233 077c 7B79     		ldrb	r3, [r7, #5]	@ zero_extendqisi2
 1234 077e 0E2B     		cmp	r3, #14
 1235 0780 E6D9     		bls	.L70
 1236              	.LBE4:
 704:RelayTest_Complete.c ****                 }    
 705:RelayTest_Complete.c ****             }
 706:RelayTest_Complete.c ****  
 707:RelayTest_Complete.c ****             if(RTest_CompleteStatus[CurrentTest.TestStep] != 'f')
 1237              		.loc 1 707 0 is_stmt 1
 1238 0782 0B4B     		ldr	r3, .L77
 1239 0784 5B78     		ldrb	r3, [r3, #1]	@ zero_extendqisi2
 1240 0786 1A46     		mov	r2, r3
 1241 0788 0A4B     		ldr	r3, .L77+4
 1242 078a 9B5C     		ldrb	r3, [r3, r2]	@ zero_extendqisi2
 1243 078c 662B     		cmp	r3, #102
 1244 078e 08D0     		beq	.L71
 708:RelayTest_Complete.c ****             {
 709:RelayTest_Complete.c ****                 RTest_CompleteStatus[CurrentTest.TestStep] = 'p';
 1245              		.loc 1 709 0
 1246 0790 074B     		ldr	r3, .L77
 1247 0792 5B78     		ldrb	r3, [r3, #1]	@ zero_extendqisi2
ARM GAS  C:\Users\MARTHN~1\AppData\Local\Temp\ccXSjyDl.s 			page 36


 1248 0794 1A46     		mov	r2, r3
 1249 0796 074B     		ldr	r3, .L77+4
 1250 0798 7021     		movs	r1, #112
 1251 079a 9954     		strb	r1, [r3, r2]
 710:RelayTest_Complete.c ****                 CurrentTest.Status = 'p'; 
 1252              		.loc 1 710 0
 1253 079c 044B     		ldr	r3, .L77
 1254 079e 7022     		movs	r2, #112
 1255 07a0 9A70     		strb	r2, [r3, #2]
 1256              	.L71:
 711:RelayTest_Complete.c ****             }
 712:RelayTest_Complete.c ****             
 713:RelayTest_Complete.c ****             while(1);            
 1257              		.loc 1 713 0 discriminator 1
 1258 07a2 FEE7     		b	.L71
 1259              	.L2:
 714:RelayTest_Complete.c **** //            while(PB_NextAction_Read() != 1){};
 715:RelayTest_Complete.c **** //            RTestStatus[CurrentTest.TestStep] = 'r';
 716:RelayTest_Complete.c **** //            CurrentTest.Status = 'r'; 
 717:RelayTest_Complete.c **** //            CyDelay(1000);
 718:RelayTest_Complete.c **** //            CurrentTest.TestStep = INITIALIZE_TEST;
 719:RelayTest_Complete.c **** 
 720:RelayTest_Complete.c ****         break;          
 721:RelayTest_Complete.c ****            
 722:RelayTest_Complete.c ****     }
 723:RelayTest_Complete.c ****       
 724:RelayTest_Complete.c ****     return(0);
 1260              		.loc 1 724 0
 1261 07a4 0023     		movs	r3, #0
 725:RelayTest_Complete.c ****     
 726:RelayTest_Complete.c **** }
 1262              		.loc 1 726 0
 1263 07a6 1846     		mov	r0, r3
 1264 07a8 0837     		adds	r7, r7, #8
 1265              		.cfi_def_cfa_offset 8
 1266 07aa BD46     		mov	sp, r7
 1267              		.cfi_def_cfa_register 13
 1268              		@ sp needed
 1269 07ac 80BD     		pop	{r7, pc}
 1270              	.L78:
 1271 07ae 00BF     		.align	2
 1272              	.L77:
 1273 07b0 00000000 		.word	CurrentTest
 1274 07b4 10010000 		.word	RTest_CompleteStatus
 1275 07b8 78000000 		.word	pTxPacket_RelaySiren
 1276 07bc 24000000 		.word	pRxPacket_RelaySiren
 1277              		.cfi_endproc
 1278              	.LFE63:
 1279              		.size	RelayTest_Complete, .-RelayTest_Complete
 1280              		.section	.text.RTest_Complete_Test_DataLink,"ax",%progbits
 1281              		.align	2
 1282              		.global	RTest_Complete_Test_DataLink
 1283              		.thumb
 1284              		.thumb_func
 1285              		.type	RTest_Complete_Test_DataLink, %function
 1286              	RTest_Complete_Test_DataLink:
 1287              	.LFB64:
ARM GAS  C:\Users\MARTHN~1\AppData\Local\Temp\ccXSjyDl.s 			page 37


 727:RelayTest_Complete.c **** 
 728:RelayTest_Complete.c **** /* 230400bps ********************************************************************************
 729:RelayTest_Complete.c **** *  Send 'P' packet (or 'I' packet)   (controller to relay)  - turn on all relay outputs
 730:RelayTest_Complete.c **** *  Read Hardware                            - read each input, verify all are active
 731:RelayTest_Complete.c **** *  Return: Pass/Fail
 732:RelayTest_Complete.c **** *********************************************************************************************/
 733:RelayTest_Complete.c **** //uint8 RTest_Test_Outputs(void)
 734:RelayTest_Complete.c **** //{
 735:RelayTest_Complete.c **** //
 736:RelayTest_Complete.c **** //    uint32 OutputsState = 0;
 737:RelayTest_Complete.c **** //    uint32 testval = 0;
 738:RelayTest_Complete.c **** //    
 739:RelayTest_Complete.c **** //    SetRelayOutputs(1);                                                     // Send command to tu
 740:RelayTest_Complete.c **** //    //while(1);
 741:RelayTest_Complete.c **** //    for (uint8 channel=0; channel<32; channel++)                            // Address and read c
 742:RelayTest_Complete.c **** //    {
 743:RelayTest_Complete.c **** //        selectADCChannelMux(channel);                                       //*** This needs to b
 744:RelayTest_Complete.c **** //        CyDelay(1);
 745:RelayTest_Complete.c **** //        testval = RTest_DEMUX_COM_Read();
 746:RelayTest_Complete.c **** //
 747:RelayTest_Complete.c **** //        OutputsState = ( OutputsState | (testval << channel) );             // Read RTest_INPUT_D
 748:RelayTest_Complete.c **** //    }
 749:RelayTest_Complete.c **** //    
 750:RelayTest_Complete.c **** //    //SetRelayOutputs(0);                                                     // Send command to 
 751:RelayTest_Complete.c **** //    
 752:RelayTest_Complete.c **** //    if(OutputsState == 0xFFFFFFFF)
 753:RelayTest_Complete.c **** //        return(1);                                                          // If all outputs are
 754:RelayTest_Complete.c **** //    else
 755:RelayTest_Complete.c **** //        return(0);                                                          // If not pass, then 
 756:RelayTest_Complete.c **** //}
 757:RelayTest_Complete.c **** 
 758:RelayTest_Complete.c **** /* 230400/115200bps **************************************************************************
 759:RelayTest_Complete.c **** *  230400 - Tx - Send 'S' packet   (controller to relay/siren)    - turn on all relay outputs
 760:RelayTest_Complete.c **** *  115200 - Rx - Read 'S' packet   (relay to datalink device)     - verify successful packet recept
 761:RelayTest_Complete.c **** *  Return: Pass/Fail
 762:RelayTest_Complete.c **** *********************************************************************************************/
 763:RelayTest_Complete.c **** uint8 RTest_Complete_Test_DataLink(void)
 764:RelayTest_Complete.c **** {
 1288              		.loc 1 764 0
 1289              		.cfi_startproc
 1290              		@ args = 0, pretend = 0, frame = 0
 1291              		@ frame_needed = 1, uses_anonymous_args = 0
 1292 0000 80B5     		push	{r7, lr}
 1293              		.cfi_def_cfa_offset 8
 1294              		.cfi_offset 7, -8
 1295              		.cfi_offset 14, -4
 1296 0002 00AF     		add	r7, sp, #0
 1297              		.cfi_def_cfa_register 7
 765:RelayTest_Complete.c ****     
 766:RelayTest_Complete.c ****     MUX_CTRL_115200_Write(RTEST_DLINK1);            //Select the RTest_RS485_DLink1_RX channel 
 1298              		.loc 1 766 0
 1299 0004 0020     		movs	r0, #0
 1300 0006 FFF7FEFF 		bl	MUX_CTRL_115200_Write
 767:RelayTest_Complete.c ****     while( (!VerifyPacket_115200(RTEST_DLINK)) && (RTest_CompleteStatus[CurrentTest.TestStep] != 'F
 1301              		.loc 1 767 0
 1302 000a 00BF     		nop
 1303              	.L81:
ARM GAS  C:\Users\MARTHN~1\AppData\Local\Temp\ccXSjyDl.s 			page 38


 1304              		.loc 1 767 0 is_stmt 0 discriminator 2
 1305 000c 0020     		movs	r0, #0
 1306 000e FFF7FEFF 		bl	VerifyPacket_115200
 1307 0012 0346     		mov	r3, r0
 1308 0014 002B     		cmp	r3, #0
 1309 0016 06D1     		bne	.L80
 1310              		.loc 1 767 0 discriminator 1
 1311 0018 114B     		ldr	r3, .L86
 1312 001a 5B78     		ldrb	r3, [r3, #1]	@ zero_extendqisi2
 1313 001c 1A46     		mov	r2, r3
 1314 001e 114B     		ldr	r3, .L86+4
 1315 0020 9B5C     		ldrb	r3, [r3, r2]	@ zero_extendqisi2
 1316 0022 462B     		cmp	r3, #70
 1317 0024 F2D1     		bne	.L81
 1318              	.L80:
 768:RelayTest_Complete.c ****     {}  
 769:RelayTest_Complete.c ****     
 770:RelayTest_Complete.c ****     MUX_CTRL_115200_Write(RTEST_DLINK2);            //Select the RTest_RS485_DLink2_RX channel     
 1319              		.loc 1 770 0 is_stmt 1
 1320 0026 0120     		movs	r0, #1
 1321 0028 FFF7FEFF 		bl	MUX_CTRL_115200_Write
 771:RelayTest_Complete.c ****     while( (!VerifyPacket_115200(RTEST_DLINK)) && (RTest_CompleteStatus[CurrentTest.TestStep] != 'F
 1322              		.loc 1 771 0
 1323 002c 00BF     		nop
 1324              	.L83:
 1325              		.loc 1 771 0 is_stmt 0 discriminator 2
 1326 002e 0020     		movs	r0, #0
 1327 0030 FFF7FEFF 		bl	VerifyPacket_115200
 1328 0034 0346     		mov	r3, r0
 1329 0036 002B     		cmp	r3, #0
 1330 0038 06D1     		bne	.L82
 1331              		.loc 1 771 0 discriminator 1
 1332 003a 094B     		ldr	r3, .L86
 1333 003c 5B78     		ldrb	r3, [r3, #1]	@ zero_extendqisi2
 1334 003e 1A46     		mov	r2, r3
 1335 0040 084B     		ldr	r3, .L86+4
 1336 0042 9B5C     		ldrb	r3, [r3, r2]	@ zero_extendqisi2
 1337 0044 462B     		cmp	r3, #70
 1338 0046 F2D1     		bne	.L83
 1339              	.L82:
 772:RelayTest_Complete.c ****     {} 
 773:RelayTest_Complete.c ****     
 774:RelayTest_Complete.c ****     if(RTest_CompleteStatus[CurrentTest.TestStep] != 'F')
 1340              		.loc 1 774 0 is_stmt 1
 1341 0048 054B     		ldr	r3, .L86
 1342 004a 5B78     		ldrb	r3, [r3, #1]	@ zero_extendqisi2
 1343 004c 1A46     		mov	r2, r3
 1344 004e 054B     		ldr	r3, .L86+4
 1345 0050 9B5C     		ldrb	r3, [r3, r2]	@ zero_extendqisi2
 1346 0052 462B     		cmp	r3, #70
 1347 0054 01D0     		beq	.L84
 775:RelayTest_Complete.c ****         return(1);                                      // If both packets get verified, then retur
 1348              		.loc 1 775 0
 1349 0056 0123     		movs	r3, #1
 1350 0058 00E0     		b	.L85
 1351              	.L84:
 776:RelayTest_Complete.c ****     else
ARM GAS  C:\Users\MARTHN~1\AppData\Local\Temp\ccXSjyDl.s 			page 39


 777:RelayTest_Complete.c ****         return(0); 
 1352              		.loc 1 777 0
 1353 005a 0023     		movs	r3, #0
 1354              	.L85:
 778:RelayTest_Complete.c **** }
 1355              		.loc 1 778 0
 1356 005c 1846     		mov	r0, r3
 1357 005e 80BD     		pop	{r7, pc}
 1358              	.L87:
 1359              		.align	2
 1360              	.L86:
 1361 0060 00000000 		.word	CurrentTest
 1362 0064 10010000 		.word	RTest_CompleteStatus
 1363              		.cfi_endproc
 1364              	.LFE64:
 1365              		.size	RTest_Complete_Test_DataLink, .-RTest_Complete_Test_DataLink
 1366              		.section	.text.RTest_Complete_sendDiagPacket,"ax",%progbits
 1367              		.align	2
 1368              		.global	RTest_Complete_sendDiagPacket
 1369              		.thumb
 1370              		.thumb_func
 1371              		.type	RTest_Complete_sendDiagPacket, %function
 1372              	RTest_Complete_sendDiagPacket:
 1373              	.LFB65:
 779:RelayTest_Complete.c **** 
 780:RelayTest_Complete.c **** /* 460800bps ********************************************************************************
 781:RelayTest_Complete.c **** *  Send 'L' packet   (controller to relay)
 782:RelayTest_Complete.c **** *  Read 'L' packet   (relay to quad device)  - verify successful packet reception
 783:RelayTest_Complete.c **** *  Return: Pass/Fail
 784:RelayTest_Complete.c **** *********************************************************************************************/
 785:RelayTest_Complete.c **** //uint8 RTest_Test_QuadPorts(void)
 786:RelayTest_Complete.c **** //{
 787:RelayTest_Complete.c **** //    for(uint8 i=0;i<8;i++)
 788:RelayTest_Complete.c **** //    {
 789:RelayTest_Complete.c **** //        MUX_CTRL_460800_Write(RTEST_QUAD_1 + i);                // Select RX channel         
 790:RelayTest_Complete.c **** //        while( (!VerifyPacket_460800(CTEST_RTEST_QUAD)) && (RTest_CompleteStatus[CurrentTest.Test
 791:RelayTest_Complete.c **** //        {}
 792:RelayTest_Complete.c **** //    }
 793:RelayTest_Complete.c **** //    
 794:RelayTest_Complete.c **** //    return(1);
 795:RelayTest_Complete.c **** //
 796:RelayTest_Complete.c **** //}
 797:RelayTest_Complete.c **** 
 798:RelayTest_Complete.c **** //*** This needs some work
 799:RelayTest_Complete.c **** /* 230400bps ********************************************************************************
 800:RelayTest_Complete.c **** *  ***Send 'H' packet   (siren to relay)
 801:RelayTest_Complete.c **** *  ***Read 'D' packet   (relay to controller)   - verify successful packet reception
 802:RelayTest_Complete.c **** *  Return: Pass/Fail
 803:RelayTest_Complete.c **** *********************************************************************************************/
 804:RelayTest_Complete.c **** //uint8 RTest_Test_UART_Siren(void)
 805:RelayTest_Complete.c **** //{
 806:RelayTest_Complete.c **** //           
 807:RelayTest_Complete.c **** //    pTxPacket_H = getTxPacket_H();                          // Tx - Send a 'H' packet from siren 
 808:RelayTest_Complete.c **** //    pTxPacket_H->Payload.SirenFirm_0 = 's';
 809:RelayTest_Complete.c **** //    pTxPacket_H->Payload.SirenFirm_1 = 's';
 810:RelayTest_Complete.c **** //    pTxPacket_H->Payload.SirenFirm_2 = 's';
 811:RelayTest_Complete.c **** //    pTxPacket_H->Payload.Speaker1_Overcurrent = 's';
ARM GAS  C:\Users\MARTHN~1\AppData\Local\Temp\ccXSjyDl.s 			page 40


 812:RelayTest_Complete.c **** //    pTxPacket_H->Payload.Speaker2_Overcurrent = 's';
 813:RelayTest_Complete.c **** //
 814:RelayTest_Complete.c **** //    MUX_CTRL_230400_Write(RTEST_CONT);                      // Rx - Verify data sent from relay t
 815:RelayTest_Complete.c **** //    
 816:RelayTest_Complete.c **** //    pRxPacket_Relay = getRxPacket_RelaySiren();                              // Rx - Get pointers
 817:RelayTest_Complete.c **** //    while(  ( (pRxPacket_RelaySiren->Payload.SirenFirm_0 != 's' ) &&           // Wait for the pa
 818:RelayTest_Complete.c **** //            (pRxPacket_RelaySiren->Payload.SirenFirm_1 != 's' ) &&
 819:RelayTest_Complete.c **** //            (pRxPacket_RelaySiren->Payload.SirenFirm_2 != 's' ) //&&
 820:RelayTest_Complete.c **** //            //(pRxPacket_RelaySiren->Payload.Speaker1_Overcurrent != 's' ) &&
 821:RelayTest_Complete.c **** //            //(pRxPacket_RelaySiren->Payload.Speaker2_Overcurrent != 's' )
 822:RelayTest_Complete.c **** //            ) && (RTest_CompleteStatus[CurrentTest.TestStep] != 'F') )
 823:RelayTest_Complete.c **** //    {}
 824:RelayTest_Complete.c **** //          
 825:RelayTest_Complete.c **** //
 826:RelayTest_Complete.c **** //    //DEMUX_CTRL_230400_Write(RTEST_CONT);                            // Tx - Send a 'S' packet t
 827:RelayTest_Complete.c **** //    
 828:RelayTest_Complete.c **** ////    MUX_CTRL_230400_Write(RTEST_SIREN);                             // Rx - Verify a 'S' packet
 829:RelayTest_Complete.c **** ////    while( (!VerifyPacket_230400(STEST_RELAY)) && (RTestStatus[CurrentTest.TestStep] != 'F') )
 830:RelayTest_Complete.c **** ////    {}
 831:RelayTest_Complete.c **** //
 832:RelayTest_Complete.c **** //    return(1);
 833:RelayTest_Complete.c **** //}
 834:RelayTest_Complete.c **** 
 835:RelayTest_Complete.c **** 
 836:RelayTest_Complete.c **** /* 230400bps *****************************************************************************
 837:RelayTest_Complete.c **** *  Send 'P' packet (controller to relay) - set input logic  
 838:RelayTest_Complete.c **** *  Read 'D' packet (relay to controller) - verify the 'RelayInputs' byte 
 839:RelayTest_Complete.c **** *  Return: Pass/Fail
 840:RelayTest_Complete.c **** ******************************************************************************************/
 841:RelayTest_Complete.c **** //uint8 RTest_Test_Inputs(void)
 842:RelayTest_Complete.c **** //{
 843:RelayTest_Complete.c **** //    
 844:RelayTest_Complete.c **** ////    DEMUX_CTRL_230400_Write(RTEST_CONT);                // Tx - Send a 'P' packet to set input 
 845:RelayTest_Complete.c **** ////    pTxPacket_RelaySiren = getTxPacket_RelaySiren();   
 846:RelayTest_Complete.c **** ////    pTxPacket_RelaySiren->Payload.HiLoInputLogic = 0x00; 
 847:RelayTest_Complete.c **** ////    
 848:RelayTest_Complete.c **** ////    SetRelayInputs(0);
 849:RelayTest_Complete.c **** ////    
 850:RelayTest_Complete.c **** ////    MUX_CTRL_230400_Write(RTEST_CONT);                  // Rx - Verify all inputs are deactivat
 851:RelayTest_Complete.c **** ////    pRxPacket_Relay = getRxPacket_Relay();              
 852:RelayTest_Complete.c **** ////    if(pRxPacket_Relay->Payload.RelayInputs != 0x00) 
 853:RelayTest_Complete.c **** ////        return(0);
 854:RelayTest_Complete.c **** //    
 855:RelayTest_Complete.c **** //    DEMUX_CTRL_230400_Write(RTEST_CONT);                // Tx - Send a 'P' packet to set input lo
 856:RelayTest_Complete.c **** //    pTxPacket_RelaySiren = getTxPacket_RelaySiren();  
 857:RelayTest_Complete.c **** //    pTxPacket_RelaySiren->Payload.HiLoInputLogic = 0xFF; 
 858:RelayTest_Complete.c **** //
 859:RelayTest_Complete.c **** ////    MUX_CTRL_230400_Write(RTEST_CONT);                  // Rx - Verify all inputs are deactivat
 860:RelayTest_Complete.c **** ////    pRxPacket_Relay = getRxPacket_Relay();              
 861:RelayTest_Complete.c **** ////    if(pRxPacket_Relay->Payload.RelayInputs != 0x00) 
 862:RelayTest_Complete.c **** ////        return(0);
 863:RelayTest_Complete.c **** //    
 864:RelayTest_Complete.c **** //    SetRelayInputs(1);
 865:RelayTest_Complete.c **** //
 866:RelayTest_Complete.c **** //    MUX_CTRL_230400_Write(RTEST_CONT);                  // Rx - Verify all inputs are deactivated
 867:RelayTest_Complete.c **** //    pRxPacket_Relay = getRxPacket_Relay();  
 868:RelayTest_Complete.c **** //    if(pRxPacket_RelaySiren->Payload.RelayInputs == 0xFF)    // Verify all inputs are activated, 
ARM GAS  C:\Users\MARTHN~1\AppData\Local\Temp\ccXSjyDl.s 			page 41


 869:RelayTest_Complete.c **** //        return(1);
 870:RelayTest_Complete.c **** //    
 871:RelayTest_Complete.c **** //    return(0);                                          // If this step was not failed, return pa
 872:RelayTest_Complete.c **** //}
 873:RelayTest_Complete.c **** 
 874:RelayTest_Complete.c **** 
 875:RelayTest_Complete.c **** /* 230400bps *****************************************************************************
 876:RelayTest_Complete.c **** *  Read a 'D' packet (relay to controller)  - verify the 'Voltage_BATT' byte
 877:RelayTest_Complete.c **** *  Return: Pass/Fail
 878:RelayTest_Complete.c **** ******************************************************************************************/
 879:RelayTest_Complete.c **** //uint8 RTest_Test_Vbatt(void)
 880:RelayTest_Complete.c **** //{
 881:RelayTest_Complete.c **** //    MUX_CTRL_230400_Write(RTEST_CONT);                              // Rx - Select the mux channe
 882:RelayTest_Complete.c **** //    pRxPacket_RelaySiren = getRxPacket_RelaySiren();                          // Rx - Get pointer
 883:RelayTest_Complete.c **** //    
 884:RelayTest_Complete.c **** //    uint8 Vbatt_Reading = 0;
 885:RelayTest_Complete.c **** //    
 886:RelayTest_Complete.c **** //    Vbatt_Reading = pRxPacket_RelaySiren->Payload.Voltage_BATT;          // Read Vbatt value
 887:RelayTest_Complete.c **** //    
 888:RelayTest_Complete.c **** //    if( (Vbatt_Reading < (VOLTAGE_SYSTEM + TOLERANCE_VOLTAGE) ) &&
 889:RelayTest_Complete.c **** //        (Vbatt_Reading > (VOLTAGE_SYSTEM - TOLERANCE_VOLTAGE) ) )
 890:RelayTest_Complete.c **** //        return(1);                                                  // If Vbatt is within TOLERAN
 891:RelayTest_Complete.c **** //    else
 892:RelayTest_Complete.c **** //        return(0);                                                  // If not pass, then return f
 893:RelayTest_Complete.c **** //}
 894:RelayTest_Complete.c **** 
 895:RelayTest_Complete.c **** /* 230400bps ***************************************************************
 896:RelayTest_Complete.c **** *  Send a 'P'/'I' packet (controller to relay)  - Controller packet to turn on all the Relay output
 897:RelayTest_Complete.c **** *  Read a 'D' packet (relay to controller)  - verify block currents are within a tolerance
 898:RelayTest_Complete.c **** ****************************************************************************/
 899:RelayTest_Complete.c **** //uint8 RTest_Test_BlockCurrents(void)
 900:RelayTest_Complete.c **** //{
 901:RelayTest_Complete.c **** //    
 902:RelayTest_Complete.c **** //    uint8 BlockCurrentPass = 0x00;
 903:RelayTest_Complete.c **** //    uint8 BlockCurrentValue = 0x00;
 904:RelayTest_Complete.c **** //    
 905:RelayTest_Complete.c **** //    MUX_CTRL_230400_Write(RTEST_CONT);                  // Rx - Select the mux channel 
 906:RelayTest_Complete.c **** //    pRxPacket_RelaySiren = getRxPacket_RelaySiren();              // Rx - Get pointers to packet
 907:RelayTest_Complete.c **** //    
 908:RelayTest_Complete.c **** //    DEMUX_CTRL_230400_Write(RTEST_CONT);                // Tx - Select the demux channel
 909:RelayTest_Complete.c **** //    pTxPacket_RelaySiren = getTxPacket_RelaySiren();              // Tx - Get pointers to packet
 910:RelayTest_Complete.c **** //    
 911:RelayTest_Complete.c **** //    for(uint8 i=0;i<4;i++)                              // Save pass/fail for each block channel
 912:RelayTest_Complete.c **** //    {
 913:RelayTest_Complete.c **** //        BlockCurrentValue = RTest_BlockCurrent(i);
 914:RelayTest_Complete.c **** //        BlockCurrentPass = (BlockCurrentPass << 1) | BlockCurrentValue;
 915:RelayTest_Complete.c **** //    }
 916:RelayTest_Complete.c **** //    
 917:RelayTest_Complete.c **** //    if( (BlockCurrentPass & 0x0F) == 0x0F)
 918:RelayTest_Complete.c **** //        return(1);                                      // If all block currents are within TOLER
 919:RelayTest_Complete.c **** //    else
 920:RelayTest_Complete.c **** //        return(0);                                      // If not pass, then return fail
 921:RelayTest_Complete.c **** //
 922:RelayTest_Complete.c **** //}
 923:RelayTest_Complete.c **** 
 924:RelayTest_Complete.c **** ///* 230400bps ****************************************************
 925:RelayTest_Complete.c **** //*   (wait for the GPS hardware to acquire a signal)
ARM GAS  C:\Users\MARTHN~1\AppData\Local\Temp\ccXSjyDl.s 			page 42


 926:RelayTest_Complete.c **** //*   Read the GPS packet - search for the GPS formated data
 927:RelayTest_Complete.c **** //*****************************************************************/
 928:RelayTest_Complete.c **** //uint8 RTest_Test_GPS(void)
 929:RelayTest_Complete.c **** //{
 930:RelayTest_Complete.c **** //    
 931:RelayTest_Complete.c **** //    //static uint8 targetstring[6] = {'$','G','P','M','R','C'};
 932:RelayTest_Complete.c **** //
 933:RelayTest_Complete.c **** //    uint8 findpacket(uint8 dataByte);  // - this should pass the target string
 934:RelayTest_Complete.c **** //    //processByteReceivedHandler_230400(&targetstring);
 935:RelayTest_Complete.c **** //
 936:RelayTest_Complete.c **** //    
 937:RelayTest_Complete.c **** //    
 938:RelayTest_Complete.c **** //    return(0);
 939:RelayTest_Complete.c **** //}
 940:RelayTest_Complete.c **** 
 941:RelayTest_Complete.c **** //RxPacket_RelaySiren * getRxPacket_Relay(void)
 942:RelayTest_Complete.c **** //{
 943:RelayTest_Complete.c **** //    pRxPacket_Relay = &rxPacket_Relay;
 944:RelayTest_Complete.c **** //    
 945:RelayTest_Complete.c **** //    return pRxPacket_Relay;
 946:RelayTest_Complete.c **** //}
 947:RelayTest_Complete.c **** 
 948:RelayTest_Complete.c **** //RxPacket_RelaySiren * getRxPacket_RelayS(void)
 949:RelayTest_Complete.c **** //{
 950:RelayTest_Complete.c **** //    pRxPacket_Relay = &rxPacket_Relay;
 951:RelayTest_Complete.c **** //    
 952:RelayTest_Complete.c **** //    return pRxPacket_Relay;
 953:RelayTest_Complete.c **** 
 954:RelayTest_Complete.c **** //TxPacket_Relay * getTxPacket_Relay()
 955:RelayTest_Complete.c **** //{
 956:RelayTest_Complete.c **** //    pTxPacket_Relay = &txPacket_Relay;
 957:RelayTest_Complete.c **** //    
 958:RelayTest_Complete.c **** //    return pTxPacket_Relay;
 959:RelayTest_Complete.c **** //}
 960:RelayTest_Complete.c **** 
 961:RelayTest_Complete.c **** //RxPacket_Siren * getRxPacket_Siren()
 962:RelayTest_Complete.c **** //{
 963:RelayTest_Complete.c **** //    pRxPacket_Siren = &rxPacket_Siren;
 964:RelayTest_Complete.c **** //    
 965:RelayTest_Complete.c **** //    return pRxPacket_Siren;
 966:RelayTest_Complete.c **** //}
 967:RelayTest_Complete.c **** 
 968:RelayTest_Complete.c **** //TxPacket_RelaySiren * getTxPacket_RelaySiren()          // STest Tx - 'I' packet sent to relay an
 969:RelayTest_Complete.c **** //{
 970:RelayTest_Complete.c **** //    pTxPacket_RelaySiren = &txPacket_RelaySiren;
 971:RelayTest_Complete.c **** //    
 972:RelayTest_Complete.c **** //    return pTxPacket_RelaySiren;
 973:RelayTest_Complete.c **** //}
 974:RelayTest_Complete.c **** 
 975:RelayTest_Complete.c **** //RxPacket_RelaySiren * getRxPacket_RelaySiren()          // STest - 'D' packet sent to controller 
 976:RelayTest_Complete.c **** //{
 977:RelayTest_Complete.c **** //    pRxPacket_RelaySiren = &rxPacket_RelaySiren;
 978:RelayTest_Complete.c **** //    
 979:RelayTest_Complete.c **** //    return pRxPacket_RelaySiren;
 980:RelayTest_Complete.c **** //}
 981:RelayTest_Complete.c **** 
 982:RelayTest_Complete.c **** //Packet_H * getPacket_H(void);
ARM GAS  C:\Users\MARTHN~1\AppData\Local\Temp\ccXSjyDl.s 			page 43


 983:RelayTest_Complete.c **** //Packet_H * getTxPacket_H()
 984:RelayTest_Complete.c **** //{
 985:RelayTest_Complete.c **** //    pTxPacket_H = &txPacket_H;
 986:RelayTest_Complete.c **** //    
 987:RelayTest_Complete.c **** //    return pTxPacket_H;
 988:RelayTest_Complete.c **** //}
 989:RelayTest_Complete.c **** 
 990:RelayTest_Complete.c **** //Packet_H * getRxPacket_H()
 991:RelayTest_Complete.c **** //{
 992:RelayTest_Complete.c **** //    pRxPacket_H = &rxPacket_H;
 993:RelayTest_Complete.c **** //    
 994:RelayTest_Complete.c **** //    return pRxPacket_H;
 995:RelayTest_Complete.c **** //}
 996:RelayTest_Complete.c **** 
 997:RelayTest_Complete.c **** 
 998:RelayTest_Complete.c **** //RxPacket_Quad * getTxPacket_Quad()              //***
 999:RelayTest_Complete.c **** //{
1000:RelayTest_Complete.c **** //    pTxPacket_Quad = &txPacket_Quad;
1001:RelayTest_Complete.c **** //    
1002:RelayTest_Complete.c **** //    return pTxPacket_Quad;
1003:RelayTest_Complete.c **** //}
1004:RelayTest_Complete.c **** 
1005:RelayTest_Complete.c **** void RTest_Complete_sendDiagPacket(void)
1006:RelayTest_Complete.c **** {
 1374              		.loc 1 1006 0
 1375              		.cfi_startproc
 1376              		@ args = 0, pretend = 0, frame = 8
 1377              		@ frame_needed = 1, uses_anonymous_args = 0
 1378 0000 80B5     		push	{r7, lr}
 1379              		.cfi_def_cfa_offset 8
 1380              		.cfi_offset 7, -8
 1381              		.cfi_offset 14, -4
 1382 0002 82B0     		sub	sp, sp, #8
 1383              		.cfi_def_cfa_offset 16
 1384 0004 00AF     		add	r7, sp, #0
 1385              		.cfi_def_cfa_register 7
 1386              	.LBB5:
1007:RelayTest_Complete.c **** 
1008:RelayTest_Complete.c ****     static uint8 RelayTestStatus_display[ (NUMBER_TEST_STEPS*2) ];
1009:RelayTest_Complete.c ****     
1010:RelayTest_Complete.c ****     for(uint8 i=0;i<NUMBER_TEST_STEPS;i++)
 1387              		.loc 1 1010 0
 1388 0006 0023     		movs	r3, #0
 1389 0008 FB71     		strb	r3, [r7, #7]
 1390 000a 0FE0     		b	.L89
 1391              	.L90:
1011:RelayTest_Complete.c ****     {
1012:RelayTest_Complete.c ****         RelayTestStatus_display[i*2] = RTest_CompleteStatus[i];
 1392              		.loc 1 1012 0 discriminator 3
 1393 000c FB79     		ldrb	r3, [r7, #7]	@ zero_extendqisi2
 1394 000e 5B00     		lsls	r3, r3, #1
 1395 0010 FA79     		ldrb	r2, [r7, #7]	@ zero_extendqisi2
 1396 0012 0F49     		ldr	r1, .L92
 1397 0014 895C     		ldrb	r1, [r1, r2]	@ zero_extendqisi2
 1398 0016 0F4A     		ldr	r2, .L92+4
 1399 0018 D154     		strb	r1, [r2, r3]
1013:RelayTest_Complete.c ****         RelayTestStatus_display[(i*2) + 1] = ' ';
ARM GAS  C:\Users\MARTHN~1\AppData\Local\Temp\ccXSjyDl.s 			page 44


 1400              		.loc 1 1013 0 discriminator 3
 1401 001a FB79     		ldrb	r3, [r7, #7]	@ zero_extendqisi2
 1402 001c 5B00     		lsls	r3, r3, #1
 1403 001e 0133     		adds	r3, r3, #1
 1404 0020 0C4A     		ldr	r2, .L92+4
 1405 0022 2021     		movs	r1, #32
 1406 0024 D154     		strb	r1, [r2, r3]
1010:RelayTest_Complete.c ****     {
 1407              		.loc 1 1010 0 discriminator 3
 1408 0026 FB79     		ldrb	r3, [r7, #7]	@ zero_extendqisi2
 1409 0028 0133     		adds	r3, r3, #1
 1410 002a FB71     		strb	r3, [r7, #7]
 1411              	.L89:
1010:RelayTest_Complete.c ****     {
 1412              		.loc 1 1010 0 is_stmt 0 discriminator 1
 1413 002c FB79     		ldrb	r3, [r7, #7]	@ zero_extendqisi2
 1414 002e 0F2B     		cmp	r3, #15
 1415 0030 ECD9     		bls	.L90
 1416              	.LBE5:
1014:RelayTest_Complete.c ****     }
1015:RelayTest_Complete.c ****     
1016:RelayTest_Complete.c ****     //DEMUX_CTRL_115200_Write(RTEST_SIREN);
1017:RelayTest_Complete.c ****     
1018:RelayTest_Complete.c ****     UART_115200_PutArray(RelayTestStatus_display, (NUMBER_TEST_STEPS*2) );
 1417              		.loc 1 1018 0 is_stmt 1
 1418 0032 2021     		movs	r1, #32
 1419 0034 0748     		ldr	r0, .L92+4
 1420 0036 FFF7FEFF 		bl	UART_115200_PutArray
1019:RelayTest_Complete.c ****     
1020:RelayTest_Complete.c ****     UART_115200_PutChar('\r');
 1421              		.loc 1 1020 0
 1422 003a 0D20     		movs	r0, #13
 1423 003c FFF7FEFF 		bl	UART_115200_PutChar
1021:RelayTest_Complete.c ****     UART_115200_PutChar('\n');
 1424              		.loc 1 1021 0
 1425 0040 0A20     		movs	r0, #10
 1426 0042 FFF7FEFF 		bl	UART_115200_PutChar
1022:RelayTest_Complete.c ****     
1023:RelayTest_Complete.c ****     return;
 1427              		.loc 1 1023 0
 1428 0046 00BF     		nop
1024:RelayTest_Complete.c **** }
 1429              		.loc 1 1024 0
 1430 0048 0837     		adds	r7, r7, #8
 1431              		.cfi_def_cfa_offset 8
 1432 004a BD46     		mov	sp, r7
 1433              		.cfi_def_cfa_register 13
 1434              		@ sp needed
 1435 004c 80BD     		pop	{r7, pc}
 1436              	.L93:
 1437 004e 00BF     		.align	2
 1438              	.L92:
 1439 0050 10010000 		.word	RTest_CompleteStatus
 1440 0054 20010000 		.word	RelayTestStatus_display.7555
 1441              		.cfi_endproc
 1442              	.LFE65:
 1443              		.size	RTest_Complete_sendDiagPacket, .-RTest_Complete_sendDiagPacket
ARM GAS  C:\Users\MARTHN~1\AppData\Local\Temp\ccXSjyDl.s 			page 45


 1444              		.section	.text.RTest_Complete_isr_PB,"ax",%progbits
 1445              		.align	2
 1446              		.global	RTest_Complete_isr_PB
 1447              		.thumb
 1448              		.thumb_func
 1449              		.type	RTest_Complete_isr_PB, %function
 1450              	RTest_Complete_isr_PB:
 1451              	.LFB66:
1025:RelayTest_Complete.c **** 
1026:RelayTest_Complete.c **** //void ProcessFailure(void)
1027:RelayTest_Complete.c **** //{
1028:RelayTest_Complete.c **** ////    
1029:RelayTest_Complete.c **** ////    RelayTestStatus[TestState] = 'F';
1030:RelayTest_Complete.c **** ////    //RelayTestStatus[TestState] = 'B';                   // *** dont fail the unit, keep tryin
1031:RelayTest_Complete.c **** ////    
1032:RelayTest_Complete.c **** //////    TestState++;
1033:RelayTest_Complete.c **** //////    if(TestState >=10)
1034:RelayTest_Complete.c **** //////        TestState = 0;
1035:RelayTest_Complete.c **** ////    
1036:RelayTest_Complete.c **** ////    LED_EN_Write(1);
1037:RelayTest_Complete.c **** ////    
1038:RelayTest_Complete.c **** ////    return;
1039:RelayTest_Complete.c **** //}
1040:RelayTest_Complete.c **** 
1041:RelayTest_Complete.c **** /**********************************************************************
1042:RelayTest_Complete.c **** *   230400bps
1043:RelayTest_Complete.c **** *   - Read (the output bytes) and see that they are within TOLERANCE_CURRENT
1044:RelayTest_Complete.c **** *   - Return: pass/fail
1045:RelayTest_Complete.c **** **********************************************************************/
1046:RelayTest_Complete.c **** //uint8 RTest_BlockCurrent(uint8 block)
1047:RelayTest_Complete.c **** //{
1048:RelayTest_Complete.c **** //    
1049:RelayTest_Complete.c **** //    uint8 Current_Reading = 0;
1050:RelayTest_Complete.c **** //    
1051:RelayTest_Complete.c **** //    pRxPacket_RelaySiren = getRxPacket_RelaySiren();
1052:RelayTest_Complete.c **** //    
1053:RelayTest_Complete.c **** //    if(block == 0)
1054:RelayTest_Complete.c **** //        Current_Reading = pRxPacket_RelaySiren->Payload.BlockCurrent_1;
1055:RelayTest_Complete.c **** //    else if(block == 1)
1056:RelayTest_Complete.c **** //        Current_Reading = pRxPacket_RelaySiren->Payload.BlockCurrent_2;
1057:RelayTest_Complete.c **** //    else if(block == 2)
1058:RelayTest_Complete.c **** //        Current_Reading = pRxPacket_RelaySiren->Payload.BlockCurrent_3;
1059:RelayTest_Complete.c **** //    else if(block == 3)
1060:RelayTest_Complete.c **** //        Current_Reading = pRxPacket_RelaySiren->Payload.BlockCurrent_4;
1061:RelayTest_Complete.c **** //    else 
1062:RelayTest_Complete.c **** //        return(0);
1063:RelayTest_Complete.c **** //    
1064:RelayTest_Complete.c **** //    if( (Current_Reading < (CURRENT_LOAD + TOLERANCE_CURRENT) ) &&
1065:RelayTest_Complete.c **** //        (Current_Reading > (CURRENT_LOAD - TOLERANCE_CURRENT) ) )
1066:RelayTest_Complete.c **** //        return(1);
1067:RelayTest_Complete.c **** //    else
1068:RelayTest_Complete.c **** //        return(0);
1069:RelayTest_Complete.c **** //        
1070:RelayTest_Complete.c **** //}
1071:RelayTest_Complete.c **** 
1072:RelayTest_Complete.c **** //void RTest_10ms_isr(void)                       // Times Quad and Audio packets
1073:RelayTest_Complete.c **** //{
ARM GAS  C:\Users\MARTHN~1\AppData\Local\Temp\ccXSjyDl.s 			page 46


1074:RelayTest_Complete.c **** //
1075:RelayTest_Complete.c **** //    if(CurrentTest.TestStep == QUAD_PORTS)        // *** moved to 20ms  
1076:RelayTest_Complete.c **** //        sendPacketToRelay_Quad();
1077:RelayTest_Complete.c **** //
1078:RelayTest_Complete.c **** //    return;
1079:RelayTest_Complete.c **** //    
1080:RelayTest_Complete.c **** //}
1081:RelayTest_Complete.c **** 
1082:RelayTest_Complete.c **** void RTest_Complete_isr_PB(void)
1083:RelayTest_Complete.c **** {
 1452              		.loc 1 1083 0
 1453              		.cfi_startproc
 1454              		@ args = 0, pretend = 0, frame = 0
 1455              		@ frame_needed = 1, uses_anonymous_args = 0
 1456 0000 80B5     		push	{r7, lr}
 1457              		.cfi_def_cfa_offset 8
 1458              		.cfi_offset 7, -8
 1459              		.cfi_offset 14, -4
 1460 0002 00AF     		add	r7, sp, #0
 1461              		.cfi_def_cfa_register 7
1084:RelayTest_Complete.c ****     static uint8 PB_NextAction_debouncecount = 0;
1085:RelayTest_Complete.c ****     static uint8 PB_NextAction_failcount = 0;
1086:RelayTest_Complete.c ****     static uint8 PB_NextAction_prevstate = 0;
1087:RelayTest_Complete.c ****     
1088:RelayTest_Complete.c ****     static uint8 debouncetrue = 0;
1089:RelayTest_Complete.c ****     
1090:RelayTest_Complete.c ****     static uint8 PB_reading = 0;
1091:RelayTest_Complete.c ****     static uint8 PB_reading_previous = 0;
1092:RelayTest_Complete.c ****     PB_reading = PB_NextAction_Read();
 1462              		.loc 1 1092 0
 1463 0004 FFF7FEFF 		bl	PB_NextAction_Read
 1464 0008 0346     		mov	r3, r0
 1465 000a 1A46     		mov	r2, r3
 1466 000c 2C4B     		ldr	r3, .L104
 1467 000e 1A70     		strb	r2, [r3]
1093:RelayTest_Complete.c ****     
1094:RelayTest_Complete.c ****     
1095:RelayTest_Complete.c ****     if(PB_reading == PB_reading_previous)               // If reading is the same as the last, incr
 1468              		.loc 1 1095 0
 1469 0010 2B4B     		ldr	r3, .L104
 1470 0012 1A78     		ldrb	r2, [r3]	@ zero_extendqisi2
 1471 0014 2B4B     		ldr	r3, .L104+4
 1472 0016 1B78     		ldrb	r3, [r3]	@ zero_extendqisi2
 1473 0018 9A42     		cmp	r2, r3
 1474 001a 06D1     		bne	.L95
1096:RelayTest_Complete.c ****         PB_NextAction_debouncecount++;
 1475              		.loc 1 1096 0
 1476 001c 2A4B     		ldr	r3, .L104+8
 1477 001e 1B78     		ldrb	r3, [r3]	@ zero_extendqisi2
 1478 0020 0133     		adds	r3, r3, #1
 1479 0022 DAB2     		uxtb	r2, r3
 1480 0024 284B     		ldr	r3, .L104+8
 1481 0026 1A70     		strb	r2, [r3]
 1482 0028 02E0     		b	.L96
 1483              	.L95:
1097:RelayTest_Complete.c ****     else
1098:RelayTest_Complete.c ****         PB_NextAction_debouncecount = 0;
ARM GAS  C:\Users\MARTHN~1\AppData\Local\Temp\ccXSjyDl.s 			page 47


 1484              		.loc 1 1098 0
 1485 002a 274B     		ldr	r3, .L104+8
 1486 002c 0022     		movs	r2, #0
 1487 002e 1A70     		strb	r2, [r3]
 1488              	.L96:
1099:RelayTest_Complete.c ****     
1100:RelayTest_Complete.c ****     if(PB_NextAction_debouncecount > DEBOUNCE_COUNT)    // Set debouncetrue
 1489              		.loc 1 1100 0
 1490 0030 254B     		ldr	r3, .L104+8
 1491 0032 1B78     		ldrb	r3, [r3]	@ zero_extendqisi2
 1492 0034 022B     		cmp	r3, #2
 1493 0036 06D9     		bls	.L97
1101:RelayTest_Complete.c ****     {
1102:RelayTest_Complete.c ****         debouncetrue = PB_reading;
 1494              		.loc 1 1102 0
 1495 0038 214B     		ldr	r3, .L104
 1496 003a 1A78     		ldrb	r2, [r3]	@ zero_extendqisi2
 1497 003c 234B     		ldr	r3, .L104+12
 1498 003e 1A70     		strb	r2, [r3]
1103:RelayTest_Complete.c ****         PB_NextAction_debouncecount = 0;
 1499              		.loc 1 1103 0
 1500 0040 214B     		ldr	r3, .L104+8
 1501 0042 0022     		movs	r2, #0
 1502 0044 1A70     		strb	r2, [r3]
 1503              	.L97:
1104:RelayTest_Complete.c ****     }
1105:RelayTest_Complete.c **** 
1106:RelayTest_Complete.c ****     PB_reading_previous = PB_reading;                   // Save current reading for next interrupt
 1504              		.loc 1 1106 0
 1505 0046 1E4B     		ldr	r3, .L104
 1506 0048 1A78     		ldrb	r2, [r3]	@ zero_extendqisi2
 1507 004a 1E4B     		ldr	r3, .L104+4
 1508 004c 1A70     		strb	r2, [r3]
1107:RelayTest_Complete.c ****     
1108:RelayTest_Complete.c ****     if(debouncetrue == 1)                               // If debounced and asserted
 1509              		.loc 1 1108 0
 1510 004e 1F4B     		ldr	r3, .L104+12
 1511 0050 1B78     		ldrb	r3, [r3]	@ zero_extendqisi2
 1512 0052 012B     		cmp	r3, #1
 1513 0054 09D1     		bne	.L98
1109:RelayTest_Complete.c ****     {
1110:RelayTest_Complete.c ****         PB_NextAction_Pressed = 1;
 1514              		.loc 1 1110 0
 1515 0056 1E4B     		ldr	r3, .L104+16
 1516 0058 0122     		movs	r2, #1
 1517 005a 1A70     		strb	r2, [r3]
1111:RelayTest_Complete.c ****         PB_NextAction_failcount++;
 1518              		.loc 1 1111 0
 1519 005c 1D4B     		ldr	r3, .L104+20
 1520 005e 1B78     		ldrb	r3, [r3]	@ zero_extendqisi2
 1521 0060 0133     		adds	r3, r3, #1
 1522 0062 DAB2     		uxtb	r2, r3
 1523 0064 1B4B     		ldr	r3, .L104+20
 1524 0066 1A70     		strb	r2, [r3]
 1525 0068 05E0     		b	.L99
 1526              	.L98:
1112:RelayTest_Complete.c ****     }
ARM GAS  C:\Users\MARTHN~1\AppData\Local\Temp\ccXSjyDl.s 			page 48


1113:RelayTest_Complete.c ****     else
1114:RelayTest_Complete.c ****     {
1115:RelayTest_Complete.c ****         PB_NextAction_Pressed = 0;
 1527              		.loc 1 1115 0
 1528 006a 194B     		ldr	r3, .L104+16
 1529 006c 0022     		movs	r2, #0
 1530 006e 1A70     		strb	r2, [r3]
1116:RelayTest_Complete.c ****         PB_NextAction_failcount = 0;
 1531              		.loc 1 1116 0
 1532 0070 184B     		ldr	r3, .L104+20
 1533 0072 0022     		movs	r2, #0
 1534 0074 1A70     		strb	r2, [r3]
 1535              	.L99:
1117:RelayTest_Complete.c ****     }
1118:RelayTest_Complete.c ****     
1119:RelayTest_Complete.c **** 
1120:RelayTest_Complete.c ****     if(PB_NextAction_failcount > 75)                       // If PB is held for (150 * 20msec = 3se
 1536              		.loc 1 1120 0
 1537 0076 174B     		ldr	r3, .L104+20
 1538 0078 1B78     		ldrb	r3, [r3]	@ zero_extendqisi2
 1539 007a 4B2B     		cmp	r3, #75
 1540 007c 0BD9     		bls	.L100
1121:RelayTest_Complete.c ****     {  
1122:RelayTest_Complete.c ****         RTest_CompleteStatus[CurrentTest.TestStep] = 'F';
 1541              		.loc 1 1122 0
 1542 007e 164B     		ldr	r3, .L104+24
 1543 0080 5B78     		ldrb	r3, [r3, #1]	@ zero_extendqisi2
 1544 0082 1A46     		mov	r2, r3
 1545 0084 154B     		ldr	r3, .L104+28
 1546 0086 4621     		movs	r1, #70
 1547 0088 9954     		strb	r1, [r3, r2]
1123:RelayTest_Complete.c ****         CurrentTest.Status = 'F';
 1548              		.loc 1 1123 0
 1549 008a 134B     		ldr	r3, .L104+24
 1550 008c 4622     		movs	r2, #70
 1551 008e 9A70     		strb	r2, [r3, #2]
1124:RelayTest_Complete.c ****         PB_NextAction_failcount = 0;
 1552              		.loc 1 1124 0
 1553 0090 104B     		ldr	r3, .L104+20
 1554 0092 0022     		movs	r2, #0
 1555 0094 1A70     		strb	r2, [r3]
 1556              	.L100:
1125:RelayTest_Complete.c ****     }
1126:RelayTest_Complete.c ****     
1127:RelayTest_Complete.c **** 
1128:RelayTest_Complete.c ****     if( (PB_NextAction_prevstate == 1) && (PB_NextAction_Pressed == 0) )        // Determine if PB 
 1557              		.loc 1 1128 0
 1558 0096 124B     		ldr	r3, .L104+32
 1559 0098 1B78     		ldrb	r3, [r3]	@ zero_extendqisi2
 1560 009a 012B     		cmp	r3, #1
 1561 009c 07D1     		bne	.L101
 1562              		.loc 1 1128 0 is_stmt 0 discriminator 1
 1563 009e 0C4B     		ldr	r3, .L104+16
 1564 00a0 1B78     		ldrb	r3, [r3]	@ zero_extendqisi2
 1565 00a2 002B     		cmp	r3, #0
 1566 00a4 03D1     		bne	.L101
1129:RelayTest_Complete.c ****     {
ARM GAS  C:\Users\MARTHN~1\AppData\Local\Temp\ccXSjyDl.s 			page 49


1130:RelayTest_Complete.c ****         PB_NextAction_Released = 1;
 1567              		.loc 1 1130 0 is_stmt 1
 1568 00a6 0F4B     		ldr	r3, .L104+36
 1569 00a8 0122     		movs	r2, #1
 1570 00aa 1A70     		strb	r2, [r3]
 1571 00ac 02E0     		b	.L102
 1572              	.L101:
1131:RelayTest_Complete.c ****     }
1132:RelayTest_Complete.c ****     else
1133:RelayTest_Complete.c ****         PB_NextAction_Released = 0;
 1573              		.loc 1 1133 0
 1574 00ae 0D4B     		ldr	r3, .L104+36
 1575 00b0 0022     		movs	r2, #0
 1576 00b2 1A70     		strb	r2, [r3]
 1577              	.L102:
1134:RelayTest_Complete.c ****     
1135:RelayTest_Complete.c ****     PB_NextAction_prevstate = PB_NextAction_Pressed;
 1578              		.loc 1 1135 0
 1579 00b4 064B     		ldr	r3, .L104+16
 1580 00b6 1A78     		ldrb	r2, [r3]	@ zero_extendqisi2
 1581 00b8 094B     		ldr	r3, .L104+32
 1582 00ba 1A70     		strb	r2, [r3]
1136:RelayTest_Complete.c ****     
1137:RelayTest_Complete.c ****     return;
 1583              		.loc 1 1137 0
 1584 00bc 00BF     		nop
1138:RelayTest_Complete.c **** }
 1585              		.loc 1 1138 0
 1586 00be 80BD     		pop	{r7, pc}
 1587              	.L105:
 1588              		.align	2
 1589              	.L104:
 1590 00c0 40010000 		.word	PB_reading.7567
 1591 00c4 41010000 		.word	PB_reading_previous.7568
 1592 00c8 42010000 		.word	PB_NextAction_debouncecount.7563
 1593 00cc 43010000 		.word	debouncetrue.7566
 1594 00d0 0C010000 		.word	PB_NextAction_Pressed
 1595 00d4 44010000 		.word	PB_NextAction_failcount.7564
 1596 00d8 00000000 		.word	CurrentTest
 1597 00dc 10010000 		.word	RTest_CompleteStatus
 1598 00e0 45010000 		.word	PB_NextAction_prevstate.7565
 1599 00e4 0D010000 		.word	PB_NextAction_Released
 1600              		.cfi_endproc
 1601              	.LFE66:
 1602              		.size	RTest_Complete_isr_PB, .-RTest_Complete_isr_PB
 1603              		.section	.text.RTest_Complete_20ms_isr,"ax",%progbits
 1604              		.align	2
 1605              		.global	RTest_Complete_20ms_isr
 1606              		.thumb
 1607              		.thumb_func
 1608              		.type	RTest_Complete_20ms_isr, %function
 1609              	RTest_Complete_20ms_isr:
 1610              	.LFB67:
1139:RelayTest_Complete.c **** 
1140:RelayTest_Complete.c **** void RTest_Complete_20ms_isr(void)                       // Manage Timeout for failure
1141:RelayTest_Complete.c **** {
 1611              		.loc 1 1141 0
ARM GAS  C:\Users\MARTHN~1\AppData\Local\Temp\ccXSjyDl.s 			page 50


 1612              		.cfi_startproc
 1613              		@ args = 0, pretend = 0, frame = 0
 1614              		@ frame_needed = 1, uses_anonymous_args = 0
 1615 0000 80B5     		push	{r7, lr}
 1616              		.cfi_def_cfa_offset 8
 1617              		.cfi_offset 7, -8
 1618              		.cfi_offset 14, -4
 1619 0002 00AF     		add	r7, sp, #0
 1620              		.cfi_def_cfa_register 7
1142:RelayTest_Complete.c ****     if(CurrentTest.TestStep == QUAD_PORTS)       // *** send quad packet if needed 
 1621              		.loc 1 1142 0
 1622 0004 1A4B     		ldr	r3, .L114
 1623 0006 5B78     		ldrb	r3, [r3, #1]	@ zero_extendqisi2
 1624 0008 032B     		cmp	r3, #3
 1625 000a 01D1     		bne	.L107
1143:RelayTest_Complete.c ****     {
1144:RelayTest_Complete.c ****         sendPacketToRelay_Quad();
 1626              		.loc 1 1144 0
 1627 000c FFF7FEFF 		bl	sendPacketToRelay_Quad
 1628              	.L107:
1145:RelayTest_Complete.c ****     }
1146:RelayTest_Complete.c ****     
1147:RelayTest_Complete.c ****     RTest_Complete_20ms_isr_count++;                                         // 
 1629              		.loc 1 1147 0
 1630 0010 184B     		ldr	r3, .L114+4
 1631 0012 1B88     		ldrh	r3, [r3]
 1632 0014 0133     		adds	r3, r3, #1
 1633 0016 9AB2     		uxth	r2, r3
 1634 0018 164B     		ldr	r3, .L114+4
 1635 001a 1A80     		strh	r2, [r3]	@ movhi
1148:RelayTest_Complete.c **** 
1149:RelayTest_Complete.c ****     if(RTest_Complete_20ms_isr_count > RTest_Complete_TimeoutCount[CurrentTest.TestStep])
 1636              		.loc 1 1149 0
 1637 001c 144B     		ldr	r3, .L114
 1638 001e 5B78     		ldrb	r3, [r3, #1]	@ zero_extendqisi2
 1639 0020 1A46     		mov	r2, r3
 1640 0022 154B     		ldr	r3, .L114+8
 1641 0024 33F81220 		ldrh	r2, [r3, r2, lsl #1]
 1642 0028 124B     		ldr	r3, .L114+4
 1643 002a 1B88     		ldrh	r3, [r3]
 1644 002c 9A42     		cmp	r2, r3
 1645 002e 10D2     		bcs	.L108
1150:RelayTest_Complete.c ****     {
1151:RelayTest_Complete.c ****         RTest_Complete_20ms_isr_count = 0;
 1646              		.loc 1 1151 0
 1647 0030 104B     		ldr	r3, .L114+4
 1648 0032 0022     		movs	r2, #0
 1649 0034 1A80     		strh	r2, [r3]	@ movhi
1152:RelayTest_Complete.c ****         
1153:RelayTest_Complete.c ****         if(RTest_Complete_20ms_isr_EN == 1)
 1650              		.loc 1 1153 0
 1651 0036 114B     		ldr	r3, .L114+12
 1652 0038 1B88     		ldrh	r3, [r3]
 1653 003a 012B     		cmp	r3, #1
 1654 003c 14D1     		bne	.L112
1154:RelayTest_Complete.c ****         {
1155:RelayTest_Complete.c ****             RTest_CompleteStatus[CurrentTest.TestStep] = 'F';
ARM GAS  C:\Users\MARTHN~1\AppData\Local\Temp\ccXSjyDl.s 			page 51


 1655              		.loc 1 1155 0
 1656 003e 0C4B     		ldr	r3, .L114
 1657 0040 5B78     		ldrb	r3, [r3, #1]	@ zero_extendqisi2
 1658 0042 1A46     		mov	r2, r3
 1659 0044 0E4B     		ldr	r3, .L114+16
 1660 0046 4621     		movs	r1, #70
 1661 0048 9954     		strb	r1, [r3, r2]
1156:RelayTest_Complete.c ****             CurrentTest.Status = 'F';
 1662              		.loc 1 1156 0
 1663 004a 094B     		ldr	r3, .L114
 1664 004c 4622     		movs	r2, #70
 1665 004e 9A70     		strb	r2, [r3, #2]
1157:RelayTest_Complete.c ****         }
1158:RelayTest_Complete.c ****             
1159:RelayTest_Complete.c ****         return;
 1666              		.loc 1 1159 0
 1667 0050 0AE0     		b	.L112
 1668              	.L108:
1160:RelayTest_Complete.c ****     }
1161:RelayTest_Complete.c ****     
1162:RelayTest_Complete.c ****     if(RTest_Complete_20ms_isr_count > 65000)
 1669              		.loc 1 1162 0
 1670 0052 084B     		ldr	r3, .L114+4
 1671 0054 1B88     		ldrh	r3, [r3]
 1672 0056 4FF6E852 		movw	r2, #65000
 1673 005a 9342     		cmp	r3, r2
 1674 005c 06D9     		bls	.L113
1163:RelayTest_Complete.c ****         RTest_Complete_20ms_isr_count = 0;
 1675              		.loc 1 1163 0
 1676 005e 054B     		ldr	r3, .L114+4
 1677 0060 0022     		movs	r2, #0
 1678 0062 1A80     		strh	r2, [r3]	@ movhi
1164:RelayTest_Complete.c ****     
1165:RelayTest_Complete.c ****     return;
 1679              		.loc 1 1165 0
 1680 0064 00BF     		nop
 1681 0066 01E0     		b	.L113
 1682              	.L112:
1159:RelayTest_Complete.c ****     }
 1683              		.loc 1 1159 0
 1684 0068 00BF     		nop
 1685 006a 00E0     		b	.L106
 1686              	.L113:
 1687              		.loc 1 1165 0
 1688 006c 00BF     		nop
 1689              	.L106:
1166:RelayTest_Complete.c ****     
1167:RelayTest_Complete.c **** }
 1690              		.loc 1 1167 0
 1691 006e 80BD     		pop	{r7, pc}
 1692              	.L115:
 1693              		.align	2
 1694              	.L114:
 1695 0070 00000000 		.word	CurrentTest
 1696 0074 08010000 		.word	RTest_Complete_20ms_isr_count
 1697 0078 00000000 		.word	RTest_Complete_TimeoutCount
 1698 007c 0A010000 		.word	RTest_Complete_20ms_isr_EN
ARM GAS  C:\Users\MARTHN~1\AppData\Local\Temp\ccXSjyDl.s 			page 52


 1699 0080 10010000 		.word	RTest_CompleteStatus
 1700              		.cfi_endproc
 1701              	.LFE67:
 1702              		.size	RTest_Complete_20ms_isr, .-RTest_Complete_20ms_isr
 1703              		.section	.text.RTest_Complete_50ms_isr,"ax",%progbits
 1704              		.align	2
 1705              		.global	RTest_Complete_50ms_isr
 1706              		.thumb
 1707              		.thumb_func
 1708              		.type	RTest_Complete_50ms_isr, %function
 1709              	RTest_Complete_50ms_isr:
 1710              	.LFB68:
1168:RelayTest_Complete.c **** 
1169:RelayTest_Complete.c **** void RTest_Complete_50ms_isr(void)                       // Times interboard comms, and serial diag
1170:RelayTest_Complete.c **** {
 1711              		.loc 1 1170 0
 1712              		.cfi_startproc
 1713              		@ args = 0, pretend = 0, frame = 0
 1714              		@ frame_needed = 1, uses_anonymous_args = 0
 1715 0000 80B5     		push	{r7, lr}
 1716              		.cfi_def_cfa_offset 8
 1717              		.cfi_offset 7, -8
 1718              		.cfi_offset 14, -4
 1719 0002 00AF     		add	r7, sp, #0
 1720              		.cfi_def_cfa_register 7
1171:RelayTest_Complete.c ****     
1172:RelayTest_Complete.c ****     RTest_Complete_sendDiagPacket();
 1721              		.loc 1 1172 0
 1722 0004 FFF7FEFF 		bl	RTest_Complete_sendDiagPacket
1173:RelayTest_Complete.c ****     
1174:RelayTest_Complete.c ****     if( (CurrentTest.TestStep == INITIALIZE_TEST) ||
 1723              		.loc 1 1174 0
 1724 0008 174B     		ldr	r3, .L120
 1725 000a 5B78     		ldrb	r3, [r3, #1]	@ zero_extendqisi2
 1726 000c 002B     		cmp	r3, #0
 1727 000e 23D0     		beq	.L117
1175:RelayTest_Complete.c ****         (CurrentTest.TestStep == TEST_OUTPUTS) ||
 1728              		.loc 1 1175 0 discriminator 1
 1729 0010 154B     		ldr	r3, .L120
 1730 0012 5B78     		ldrb	r3, [r3, #1]	@ zero_extendqisi2
1174:RelayTest_Complete.c ****         (CurrentTest.TestStep == TEST_OUTPUTS) ||
 1731              		.loc 1 1174 0 discriminator 1
 1732 0014 012B     		cmp	r3, #1
 1733 0016 1FD0     		beq	.L117
1176:RelayTest_Complete.c ****         (CurrentTest.TestStep == DATALINK) ||
 1734              		.loc 1 1176 0
 1735 0018 134B     		ldr	r3, .L120
 1736 001a 5B78     		ldrb	r3, [r3, #1]	@ zero_extendqisi2
1175:RelayTest_Complete.c ****         (CurrentTest.TestStep == TEST_OUTPUTS) ||
 1737              		.loc 1 1175 0
 1738 001c 022B     		cmp	r3, #2
 1739 001e 1BD0     		beq	.L117
1177:RelayTest_Complete.c ****         //(CurrentTest.TestStep == UART_SIREN) ||
1178:RelayTest_Complete.c ****         (CurrentTest.TestStep == INPUTS) ||
 1740              		.loc 1 1178 0
 1741 0020 114B     		ldr	r3, .L120
 1742 0022 5B78     		ldrb	r3, [r3, #1]	@ zero_extendqisi2
ARM GAS  C:\Users\MARTHN~1\AppData\Local\Temp\ccXSjyDl.s 			page 53


1176:RelayTest_Complete.c ****         (CurrentTest.TestStep == DATALINK) ||
 1743              		.loc 1 1176 0
 1744 0024 042B     		cmp	r3, #4
 1745 0026 17D0     		beq	.L117
1179:RelayTest_Complete.c ****         (CurrentTest.TestStep == BLOCK_CURRENTS) ||
 1746              		.loc 1 1179 0
 1747 0028 0F4B     		ldr	r3, .L120
 1748 002a 5B78     		ldrb	r3, [r3, #1]	@ zero_extendqisi2
1178:RelayTest_Complete.c ****         (CurrentTest.TestStep == BLOCK_CURRENTS) ||
 1749              		.loc 1 1178 0
 1750 002c 062B     		cmp	r3, #6
 1751 002e 13D0     		beq	.L117
1180:RelayTest_Complete.c ****         (CurrentTest.TestStep == AMP1) ||
 1752              		.loc 1 1180 0
 1753 0030 0D4B     		ldr	r3, .L120
 1754 0032 5B78     		ldrb	r3, [r3, #1]	@ zero_extendqisi2
1179:RelayTest_Complete.c ****         (CurrentTest.TestStep == BLOCK_CURRENTS) ||
 1755              		.loc 1 1179 0
 1756 0034 082B     		cmp	r3, #8
 1757 0036 0FD0     		beq	.L117
1181:RelayTest_Complete.c ****         (CurrentTest.TestStep == AMP2) ||
 1758              		.loc 1 1181 0
 1759 0038 0B4B     		ldr	r3, .L120
 1760 003a 5B78     		ldrb	r3, [r3, #1]	@ zero_extendqisi2
1180:RelayTest_Complete.c ****         (CurrentTest.TestStep == AMP1) ||
 1761              		.loc 1 1180 0
 1762 003c 092B     		cmp	r3, #9
 1763 003e 0BD0     		beq	.L117
1182:RelayTest_Complete.c ****         (CurrentTest.TestStep == RRB) ||
 1764              		.loc 1 1182 0
 1765 0040 094B     		ldr	r3, .L120
 1766 0042 5B78     		ldrb	r3, [r3, #1]	@ zero_extendqisi2
1181:RelayTest_Complete.c ****         (CurrentTest.TestStep == AMP2) ||
 1767              		.loc 1 1181 0
 1768 0044 0A2B     		cmp	r3, #10
 1769 0046 07D0     		beq	.L117
1183:RelayTest_Complete.c ****         (CurrentTest.TestStep == FLASH) ||
 1770              		.loc 1 1183 0
 1771 0048 074B     		ldr	r3, .L120
 1772 004a 5B78     		ldrb	r3, [r3, #1]	@ zero_extendqisi2
1182:RelayTest_Complete.c ****         (CurrentTest.TestStep == RRB) ||
 1773              		.loc 1 1182 0
 1774 004c 0C2B     		cmp	r3, #12
 1775 004e 03D0     		beq	.L117
1184:RelayTest_Complete.c ****         (CurrentTest.TestStep == OVERLOAD) )
 1776              		.loc 1 1184 0
 1777 0050 054B     		ldr	r3, .L120
 1778 0052 5B78     		ldrb	r3, [r3, #1]	@ zero_extendqisi2
1183:RelayTest_Complete.c ****         (CurrentTest.TestStep == FLASH) ||
 1779              		.loc 1 1183 0
 1780 0054 0D2B     		cmp	r3, #13
 1781 0056 01D1     		bne	.L118
 1782              	.L117:
1185:RelayTest_Complete.c ****     {      
1186:RelayTest_Complete.c ****         sendPacketToRelaySiren();               //*** used for UART_SIREN
 1783              		.loc 1 1186 0
 1784 0058 FFF7FEFF 		bl	sendPacketToRelaySiren
ARM GAS  C:\Users\MARTHN~1\AppData\Local\Temp\ccXSjyDl.s 			page 54


 1785              	.L118:
1187:RelayTest_Complete.c ****     }
1188:RelayTest_Complete.c ****         
1189:RelayTest_Complete.c ****     CyDelay(5);                                 // *** Give some time for first transmit to finish 
 1786              		.loc 1 1189 0
 1787 005c 0520     		movs	r0, #5
 1788 005e FFF7FEFF 		bl	CyDelay
1190:RelayTest_Complete.c ****     
1191:RelayTest_Complete.c **** //    if( CurrentTest.TestStep == UART_SIREN )
1192:RelayTest_Complete.c **** //    {   
1193:RelayTest_Complete.c **** //        sendPacket_SirenToRelay();              //*** used for UART_SIREN
1194:RelayTest_Complete.c **** //    }
1195:RelayTest_Complete.c ****     
1196:RelayTest_Complete.c ****     return;
 1789              		.loc 1 1196 0
 1790 0062 00BF     		nop
1197:RelayTest_Complete.c ****     
1198:RelayTest_Complete.c **** }
 1791              		.loc 1 1198 0
 1792 0064 80BD     		pop	{r7, pc}
 1793              	.L121:
 1794 0066 00BF     		.align	2
 1795              	.L120:
 1796 0068 00000000 		.word	CurrentTest
 1797              		.cfi_endproc
 1798              	.LFE68:
 1799              		.size	RTest_Complete_50ms_isr, .-RTest_Complete_50ms_isr
 1800              		.section	.text.RTest_Complete_StartAutomatedStep,"ax",%progbits
 1801              		.align	2
 1802              		.global	RTest_Complete_StartAutomatedStep
 1803              		.thumb
 1804              		.thumb_func
 1805              		.type	RTest_Complete_StartAutomatedStep, %function
 1806              	RTest_Complete_StartAutomatedStep:
 1807              	.LFB69:
1199:RelayTest_Complete.c **** 
1200:RelayTest_Complete.c **** //void SetRelayOutputs(uint8 enable)
1201:RelayTest_Complete.c **** //{
1202:RelayTest_Complete.c **** //    
1203:RelayTest_Complete.c **** //    DEMUX_CTRL_230400_Write(RTEST_CONT);                        // Tx - Select the demux channel
1204:RelayTest_Complete.c **** //    pTxPacket_RelaySiren = getTxPacket_RelaySiren();            // Tx - Get pointers to packet   
1205:RelayTest_Complete.c **** //    
1206:RelayTest_Complete.c **** //    if(enable == 1)
1207:RelayTest_Complete.c **** //    {
1208:RelayTest_Complete.c **** //        pTxPacket_RelaySiren->Payload.Outputs_1to8 = 0xFF;       // Turn on all Relay outputs
1209:RelayTest_Complete.c **** //        pTxPacket_RelaySiren->Payload.Outputs_9to16 = 0xFF;
1210:RelayTest_Complete.c **** //        pTxPacket_RelaySiren->Payload.Outputs_17to24 = 0xFF;
1211:RelayTest_Complete.c **** //        pTxPacket_RelaySiren->Payload.Outputs_25to32 = 0xFF;
1212:RelayTest_Complete.c **** //    }
1213:RelayTest_Complete.c **** //    else
1214:RelayTest_Complete.c **** //    {
1215:RelayTest_Complete.c **** //        pTxPacket_RelaySiren->Payload.Outputs_1to8 = 0x00;       // Turn off all Relay outputs
1216:RelayTest_Complete.c **** //        pTxPacket_RelaySiren->Payload.Outputs_9to16 = 0x00;
1217:RelayTest_Complete.c **** //        pTxPacket_RelaySiren->Payload.Outputs_17to24 = 0x00;
1218:RelayTest_Complete.c **** //        pTxPacket_RelaySiren->Payload.Outputs_25to32 = 0x00;
1219:RelayTest_Complete.c **** //    }
1220:RelayTest_Complete.c **** //        
ARM GAS  C:\Users\MARTHN~1\AppData\Local\Temp\ccXSjyDl.s 			page 55


1221:RelayTest_Complete.c **** //    return;
1222:RelayTest_Complete.c **** //    
1223:RelayTest_Complete.c **** //}
1224:RelayTest_Complete.c **** 
1225:RelayTest_Complete.c **** //void RTest_20ms_isr_start(void)
1226:RelayTest_Complete.c **** //{
1227:RelayTest_Complete.c **** //    
1228:RelayTest_Complete.c **** //    RTest_20ms_isr_count = 0;
1229:RelayTest_Complete.c **** //    
1230:RelayTest_Complete.c **** //    return;
1231:RelayTest_Complete.c **** //    
1232:RelayTest_Complete.c **** //}
1233:RelayTest_Complete.c **** 
1234:RelayTest_Complete.c **** void RTest_Complete_StartAutomatedStep(void)
1235:RelayTest_Complete.c **** {
 1808              		.loc 1 1235 0
 1809              		.cfi_startproc
 1810              		@ args = 0, pretend = 0, frame = 0
 1811              		@ frame_needed = 1, uses_anonymous_args = 0
 1812              		@ link register save eliminated.
 1813 0000 80B4     		push	{r7}
 1814              		.cfi_def_cfa_offset 4
 1815              		.cfi_offset 7, -4
 1816 0002 00AF     		add	r7, sp, #0
 1817              		.cfi_def_cfa_register 7
1236:RelayTest_Complete.c ****     
1237:RelayTest_Complete.c ****     RTest_CompleteStatus[CurrentTest.TestStep] = 'B';
 1818              		.loc 1 1237 0
 1819 0004 094B     		ldr	r3, .L124
 1820 0006 5B78     		ldrb	r3, [r3, #1]	@ zero_extendqisi2
 1821 0008 1A46     		mov	r2, r3
 1822 000a 094B     		ldr	r3, .L124+4
 1823 000c 4221     		movs	r1, #66
 1824 000e 9954     		strb	r1, [r3, r2]
1238:RelayTest_Complete.c ****     CurrentTest.Status = 'B';
 1825              		.loc 1 1238 0
 1826 0010 064B     		ldr	r3, .L124
 1827 0012 4222     		movs	r2, #66
 1828 0014 9A70     		strb	r2, [r3, #2]
1239:RelayTest_Complete.c ****     
1240:RelayTest_Complete.c ****     RTest_Complete_20ms_isr_count = 0;
 1829              		.loc 1 1240 0
 1830 0016 074B     		ldr	r3, .L124+8
 1831 0018 0022     		movs	r2, #0
 1832 001a 1A80     		strh	r2, [r3]	@ movhi
1241:RelayTest_Complete.c ****     RTest_Complete_20ms_isr_EN = 1;
 1833              		.loc 1 1241 0
 1834 001c 064B     		ldr	r3, .L124+12
 1835 001e 0122     		movs	r2, #1
 1836 0020 1A80     		strh	r2, [r3]	@ movhi
1242:RelayTest_Complete.c ****     
1243:RelayTest_Complete.c ****     return;
 1837              		.loc 1 1243 0
 1838 0022 00BF     		nop
1244:RelayTest_Complete.c ****     
1245:RelayTest_Complete.c **** }
 1839              		.loc 1 1245 0
ARM GAS  C:\Users\MARTHN~1\AppData\Local\Temp\ccXSjyDl.s 			page 56


 1840 0024 BD46     		mov	sp, r7
 1841              		.cfi_def_cfa_register 13
 1842              		@ sp needed
 1843 0026 80BC     		pop	{r7}
 1844              		.cfi_restore 7
 1845              		.cfi_def_cfa_offset 0
 1846 0028 7047     		bx	lr
 1847              	.L125:
 1848 002a 00BF     		.align	2
 1849              	.L124:
 1850 002c 00000000 		.word	CurrentTest
 1851 0030 10010000 		.word	RTest_CompleteStatus
 1852 0034 08010000 		.word	RTest_Complete_20ms_isr_count
 1853 0038 0A010000 		.word	RTest_Complete_20ms_isr_EN
 1854              		.cfi_endproc
 1855              	.LFE69:
 1856              		.size	RTest_Complete_StartAutomatedStep, .-RTest_Complete_StartAutomatedStep
 1857              		.section	.text.RTest_Complete_StopAutomatedStep,"ax",%progbits
 1858              		.align	2
 1859              		.global	RTest_Complete_StopAutomatedStep
 1860              		.thumb
 1861              		.thumb_func
 1862              		.type	RTest_Complete_StopAutomatedStep, %function
 1863              	RTest_Complete_StopAutomatedStep:
 1864              	.LFB70:
1246:RelayTest_Complete.c **** 
1247:RelayTest_Complete.c **** void RTest_Complete_StopAutomatedStep(void)
1248:RelayTest_Complete.c **** {
 1865              		.loc 1 1248 0
 1866              		.cfi_startproc
 1867              		@ args = 0, pretend = 0, frame = 0
 1868              		@ frame_needed = 1, uses_anonymous_args = 0
 1869              		@ link register save eliminated.
 1870 0000 80B4     		push	{r7}
 1871              		.cfi_def_cfa_offset 4
 1872              		.cfi_offset 7, -4
 1873 0002 00AF     		add	r7, sp, #0
 1874              		.cfi_def_cfa_register 7
1249:RelayTest_Complete.c ****     
1250:RelayTest_Complete.c ****     RTest_Complete_20ms_isr_EN = 0;
 1875              		.loc 1 1250 0
 1876 0004 0B4B     		ldr	r3, .L130
 1877 0006 0022     		movs	r2, #0
 1878 0008 1A80     		strh	r2, [r3]	@ movhi
1251:RelayTest_Complete.c ****     if(RTest_CompleteStatus[CurrentTest.TestStep] != 'F')       // If not failed, then pass
 1879              		.loc 1 1251 0
 1880 000a 0B4B     		ldr	r3, .L130+4
 1881 000c 5B78     		ldrb	r3, [r3, #1]	@ zero_extendqisi2
 1882 000e 1A46     		mov	r2, r3
 1883 0010 0A4B     		ldr	r3, .L130+8
 1884 0012 9B5C     		ldrb	r3, [r3, r2]	@ zero_extendqisi2
 1885 0014 462B     		cmp	r3, #70
 1886 0016 09D0     		beq	.L129
1252:RelayTest_Complete.c ****     {
1253:RelayTest_Complete.c ****         RTest_CompleteStatus[CurrentTest.TestStep] = 'P';
 1887              		.loc 1 1253 0
 1888 0018 074B     		ldr	r3, .L130+4
ARM GAS  C:\Users\MARTHN~1\AppData\Local\Temp\ccXSjyDl.s 			page 57


 1889 001a 5B78     		ldrb	r3, [r3, #1]	@ zero_extendqisi2
 1890 001c 1A46     		mov	r2, r3
 1891 001e 074B     		ldr	r3, .L130+8
 1892 0020 5021     		movs	r1, #80
 1893 0022 9954     		strb	r1, [r3, r2]
1254:RelayTest_Complete.c ****         CurrentTest.Status = 'P';
 1894              		.loc 1 1254 0
 1895 0024 044B     		ldr	r3, .L130+4
 1896 0026 5022     		movs	r2, #80
 1897 0028 9A70     		strb	r2, [r3, #2]
1255:RelayTest_Complete.c ****     }
1256:RelayTest_Complete.c ****     
1257:RelayTest_Complete.c ****     return;
 1898              		.loc 1 1257 0
 1899 002a 00BF     		nop
 1900              	.L129:
 1901 002c 00BF     		nop
1258:RelayTest_Complete.c ****     
1259:RelayTest_Complete.c **** }
 1902              		.loc 1 1259 0
 1903 002e BD46     		mov	sp, r7
 1904              		.cfi_def_cfa_register 13
 1905              		@ sp needed
 1906 0030 80BC     		pop	{r7}
 1907              		.cfi_restore 7
 1908              		.cfi_def_cfa_offset 0
 1909 0032 7047     		bx	lr
 1910              	.L131:
 1911              		.align	2
 1912              	.L130:
 1913 0034 0A010000 		.word	RTest_Complete_20ms_isr_EN
 1914 0038 00000000 		.word	CurrentTest
 1915 003c 10010000 		.word	RTest_CompleteStatus
 1916              		.cfi_endproc
 1917              	.LFE70:
 1918              		.size	RTest_Complete_StopAutomatedStep, .-RTest_Complete_StopAutomatedStep
 1919              		.section	.text.RTest_Complete_PB_WaitForAction,"ax",%progbits
 1920              		.align	2
 1921              		.global	RTest_Complete_PB_WaitForAction
 1922              		.thumb
 1923              		.thumb_func
 1924              		.type	RTest_Complete_PB_WaitForAction, %function
 1925              	RTest_Complete_PB_WaitForAction:
 1926              	.LFB71:
1260:RelayTest_Complete.c **** 
1261:RelayTest_Complete.c **** //void SetRelayInputs(uint8 enable)
1262:RelayTest_Complete.c **** //{
1263:RelayTest_Complete.c **** //    
1264:RelayTest_Complete.c **** //    if(enable == 1)
1265:RelayTest_Complete.c **** //    {
1266:RelayTest_Complete.c **** //        RTest_HSide1_Write(1);       // Activate all inputs
1267:RelayTest_Complete.c **** //        RTest_HSide2_Write(1);
1268:RelayTest_Complete.c **** //        RTest_HSide3_Write(1);
1269:RelayTest_Complete.c **** //        RTest_HSide4_Write(1);
1270:RelayTest_Complete.c **** //        RTest_HSide5_Write(1);
1271:RelayTest_Complete.c **** //        RTest_HSide6_Write(1);
1272:RelayTest_Complete.c **** //        RTest_HSide7_Write(1);
ARM GAS  C:\Users\MARTHN~1\AppData\Local\Temp\ccXSjyDl.s 			page 58


1273:RelayTest_Complete.c **** //        RTest_HSide8_Write(1);
1274:RelayTest_Complete.c **** //    }
1275:RelayTest_Complete.c **** //    
1276:RelayTest_Complete.c **** //    else
1277:RelayTest_Complete.c **** //    {
1278:RelayTest_Complete.c **** //        RTest_HSide1_Write(0);      // Deactivate all inputs
1279:RelayTest_Complete.c **** //        RTest_HSide2_Write(0);
1280:RelayTest_Complete.c **** //        RTest_HSide3_Write(0);
1281:RelayTest_Complete.c **** //        RTest_HSide4_Write(0);
1282:RelayTest_Complete.c **** //        RTest_HSide5_Write(0);
1283:RelayTest_Complete.c **** //        RTest_HSide6_Write(0);
1284:RelayTest_Complete.c **** //        RTest_HSide7_Write(0);
1285:RelayTest_Complete.c **** //        RTest_HSide8_Write(0);   
1286:RelayTest_Complete.c **** //    }
1287:RelayTest_Complete.c **** //    
1288:RelayTest_Complete.c **** //    return;
1289:RelayTest_Complete.c **** //}
1290:RelayTest_Complete.c **** 
1291:RelayTest_Complete.c **** void RTest_Complete_PB_WaitForAction(void)
1292:RelayTest_Complete.c **** {
 1927              		.loc 1 1292 0
 1928              		.cfi_startproc
 1929              		@ args = 0, pretend = 0, frame = 0
 1930              		@ frame_needed = 1, uses_anonymous_args = 0
 1931 0000 80B5     		push	{r7, lr}
 1932              		.cfi_def_cfa_offset 8
 1933              		.cfi_offset 7, -8
 1934              		.cfi_offset 14, -4
 1935 0002 00AF     		add	r7, sp, #0
 1936              		.cfi_def_cfa_register 7
1293:RelayTest_Complete.c ****     
1294:RelayTest_Complete.c ****     RTest_CompleteStatus[CurrentTest.TestStep] = 'W';                                        // Set
 1937              		.loc 1 1294 0
 1938 0004 164B     		ldr	r3, .L137
 1939 0006 5B78     		ldrb	r3, [r3, #1]	@ zero_extendqisi2
 1940 0008 1A46     		mov	r2, r3
 1941 000a 164B     		ldr	r3, .L137+4
 1942 000c 5721     		movs	r1, #87
 1943 000e 9954     		strb	r1, [r3, r2]
1295:RelayTest_Complete.c ****     CurrentTest.Status = 'W';
 1944              		.loc 1 1295 0
 1945 0010 134B     		ldr	r3, .L137
 1946 0012 5722     		movs	r2, #87
 1947 0014 9A70     		strb	r2, [r3, #2]
1296:RelayTest_Complete.c ****             
1297:RelayTest_Complete.c **** //            while( (!PB_NextAction_Released) && (STestStatus[CurrentTest.TestStep] != 'F') )
1298:RelayTest_Complete.c **** //            {} 
1299:RelayTest_Complete.c **** //            PB_NextAction_Released = 0;
1300:RelayTest_Complete.c **** //            
1301:RelayTest_Complete.c **** //            if(STestStatus[CurrentTest.TestStep] != 'F')       // If not failed, then pass
1302:RelayTest_Complete.c **** //                STestStatus[CurrentTest.TestStep] = 'P';                                        /
1303:RelayTest_Complete.c **** 
1304:RelayTest_Complete.c ****             
1305:RelayTest_Complete.c **** //            if(STestStatus[CurrentTest.TestStep] != 'F')       // If not failed, then pass
1306:RelayTest_Complete.c **** //            {
1307:RelayTest_Complete.c **** //                STestStatus[CurrentTest.TestStep] = 'P';                                        /
1308:RelayTest_Complete.c **** //                //CyDelay(1000);
ARM GAS  C:\Users\MARTHN~1\AppData\Local\Temp\ccXSjyDl.s 			page 59


1309:RelayTest_Complete.c **** //            }
1310:RelayTest_Complete.c ****             
1311:RelayTest_Complete.c ****     while( (RTest_CompleteStatus[CurrentTest.TestStep] != 'P') && (RTest_CompleteStatus[CurrentTest
 1948              		.loc 1 1311 0
 1949 0016 0FE0     		b	.L133
 1950              	.L135:
1312:RelayTest_Complete.c ****     {
1313:RelayTest_Complete.c ****         if(PB_NextAction_Released) 
 1951              		.loc 1 1313 0
 1952 0018 134B     		ldr	r3, .L137+8
 1953 001a 1B78     		ldrb	r3, [r3]	@ zero_extendqisi2
 1954 001c 002B     		cmp	r3, #0
 1955 001e 0BD0     		beq	.L133
1314:RelayTest_Complete.c ****         {
1315:RelayTest_Complete.c ****             //LED_EN_Write(1);
1316:RelayTest_Complete.c ****             RTest_CompleteStatus[CurrentTest.TestStep] = 'P'; 
 1956              		.loc 1 1316 0
 1957 0020 0F4B     		ldr	r3, .L137
 1958 0022 5B78     		ldrb	r3, [r3, #1]	@ zero_extendqisi2
 1959 0024 1A46     		mov	r2, r3
 1960 0026 0F4B     		ldr	r3, .L137+4
 1961 0028 5021     		movs	r1, #80
 1962 002a 9954     		strb	r1, [r3, r2]
1317:RelayTest_Complete.c ****             CurrentTest.Status = 'P';
 1963              		.loc 1 1317 0
 1964 002c 0C4B     		ldr	r3, .L137
 1965 002e 5022     		movs	r2, #80
 1966 0030 9A70     		strb	r2, [r3, #2]
1318:RelayTest_Complete.c ****             PB_NextAction_Released = 0;
 1967              		.loc 1 1318 0
 1968 0032 0D4B     		ldr	r3, .L137+8
 1969 0034 0022     		movs	r2, #0
 1970 0036 1A70     		strb	r2, [r3]
 1971              	.L133:
1311:RelayTest_Complete.c ****     {
 1972              		.loc 1 1311 0
 1973 0038 094B     		ldr	r3, .L137
 1974 003a 5B78     		ldrb	r3, [r3, #1]	@ zero_extendqisi2
 1975 003c 1A46     		mov	r2, r3
 1976 003e 094B     		ldr	r3, .L137+4
 1977 0040 9B5C     		ldrb	r3, [r3, r2]	@ zero_extendqisi2
 1978 0042 502B     		cmp	r3, #80
 1979 0044 06D0     		beq	.L134
1311:RelayTest_Complete.c ****     {
 1980              		.loc 1 1311 0 is_stmt 0 discriminator 1
 1981 0046 064B     		ldr	r3, .L137
 1982 0048 5B78     		ldrb	r3, [r3, #1]	@ zero_extendqisi2
 1983 004a 1A46     		mov	r2, r3
 1984 004c 054B     		ldr	r3, .L137+4
 1985 004e 9B5C     		ldrb	r3, [r3, r2]	@ zero_extendqisi2
 1986 0050 462B     		cmp	r3, #70
 1987 0052 E1D1     		bne	.L135
 1988              	.L134:
1319:RelayTest_Complete.c ****         }
1320:RelayTest_Complete.c ****     }
1321:RelayTest_Complete.c ****             
1322:RelayTest_Complete.c ****     //CyDelay(1000);
ARM GAS  C:\Users\MARTHN~1\AppData\Local\Temp\ccXSjyDl.s 			page 60


1323:RelayTest_Complete.c ****     LED_EN_Write(0);    // ***not sure why this seems to be needed to make it work
 1989              		.loc 1 1323 0 is_stmt 1
 1990 0054 0020     		movs	r0, #0
 1991 0056 FFF7FEFF 		bl	LED_EN_Write
1324:RelayTest_Complete.c ****     
1325:RelayTest_Complete.c ****     
1326:RelayTest_Complete.c ****     return;
 1992              		.loc 1 1326 0
 1993 005a 00BF     		nop
1327:RelayTest_Complete.c **** }
 1994              		.loc 1 1327 0
 1995 005c 80BD     		pop	{r7, pc}
 1996              	.L138:
 1997 005e 00BF     		.align	2
 1998              	.L137:
 1999 0060 00000000 		.word	CurrentTest
 2000 0064 10010000 		.word	RTest_CompleteStatus
 2001 0068 0D010000 		.word	PB_NextAction_Released
 2002              		.cfi_endproc
 2003              	.LFE71:
 2004              		.size	RTest_Complete_PB_WaitForAction, .-RTest_Complete_PB_WaitForAction
 2005              		.bss
 2006              		.align	2
 2007              	RelayTestStatus_display.7555:
 2008 0120 00000000 		.space	32
 2008      00000000 
 2008      00000000 
 2008      00000000 
 2008      00000000 
 2009              	PB_reading.7567:
 2010 0140 00       		.space	1
 2011              	PB_reading_previous.7568:
 2012 0141 00       		.space	1
 2013              	PB_NextAction_debouncecount.7563:
 2014 0142 00       		.space	1
 2015              	debouncetrue.7566:
 2016 0143 00       		.space	1
 2017              	PB_NextAction_failcount.7564:
 2018 0144 00       		.space	1
 2019              	PB_NextAction_prevstate.7565:
 2020 0145 00       		.space	1
 2021              		.text
 2022              	.Letext0:
 2023              		.file 2 "c:\\program files (x86)\\cypress\\psoc creator\\4.3\\psoc creator\\import\\gnu\\arm\\5.4.
 2024              		.file 3 "c:\\program files (x86)\\cypress\\psoc creator\\4.3\\psoc creator\\import\\gnu\\arm\\5.4.
 2025              		.file 4 "Generated_Source\\PSoC5/cytypes.h"
 2026              		.file 5 "CommonVariables.h"
 2027              		.file 6 "UART_230400_Functions.h"
 2028              		.file 7 "UART_460800_Functions.h"
 2029              		.file 8 "Generated_Source\\PSoC5/core_cm3.h"
 2030              		.section	.debug_info,"",%progbits
 2031              	.Ldebug_info0:
 2032 0000 A0100000 		.4byte	0x10a0
 2033 0004 0400     		.2byte	0x4
 2034 0006 00000000 		.4byte	.Ldebug_abbrev0
 2035 000a 04       		.byte	0x4
 2036 000b 01       		.uleb128 0x1
ARM GAS  C:\Users\MARTHN~1\AppData\Local\Temp\ccXSjyDl.s 			page 61


 2037 000c 8F090000 		.4byte	.LASF304
 2038 0010 0C       		.byte	0xc
 2039 0011 44040000 		.4byte	.LASF305
 2040 0015 BA040000 		.4byte	.LASF306
 2041 0019 00000000 		.4byte	.Ldebug_ranges0+0
 2042 001d 00000000 		.4byte	0
 2043 0021 00000000 		.4byte	.Ldebug_line0
 2044 0025 02       		.uleb128 0x2
 2045 0026 01       		.byte	0x1
 2046 0027 06       		.byte	0x6
 2047 0028 38040000 		.4byte	.LASF0
 2048 002c 02       		.uleb128 0x2
 2049 002d 01       		.byte	0x1
 2050 002e 08       		.byte	0x8
 2051 002f 8F040000 		.4byte	.LASF1
 2052 0033 02       		.uleb128 0x2
 2053 0034 02       		.byte	0x2
 2054 0035 05       		.byte	0x5
 2055 0036 7B0F0000 		.4byte	.LASF2
 2056 003a 02       		.uleb128 0x2
 2057 003b 02       		.byte	0x2
 2058 003c 07       		.byte	0x7
 2059 003d A5100000 		.4byte	.LASF3
 2060 0041 03       		.uleb128 0x3
 2061 0042 B8100000 		.4byte	.LASF9
 2062 0046 02       		.byte	0x2
 2063 0047 3F       		.byte	0x3f
 2064 0048 4C000000 		.4byte	0x4c
 2065 004c 02       		.uleb128 0x2
 2066 004d 04       		.byte	0x4
 2067 004e 05       		.byte	0x5
 2068 004f 64030000 		.4byte	.LASF4
 2069 0053 02       		.uleb128 0x2
 2070 0054 04       		.byte	0x4
 2071 0055 07       		.byte	0x7
 2072 0056 40080000 		.4byte	.LASF5
 2073 005a 02       		.uleb128 0x2
 2074 005b 08       		.byte	0x8
 2075 005c 05       		.byte	0x5
 2076 005d 570A0000 		.4byte	.LASF6
 2077 0061 02       		.uleb128 0x2
 2078 0062 08       		.byte	0x8
 2079 0063 07       		.byte	0x7
 2080 0064 D90C0000 		.4byte	.LASF7
 2081 0068 04       		.uleb128 0x4
 2082 0069 04       		.byte	0x4
 2083 006a 05       		.byte	0x5
 2084 006b 696E7400 		.ascii	"int\000"
 2085 006f 02       		.uleb128 0x2
 2086 0070 04       		.byte	0x4
 2087 0071 07       		.byte	0x7
 2088 0072 FF0A0000 		.4byte	.LASF8
 2089 0076 03       		.uleb128 0x3
 2090 0077 40000000 		.4byte	.LASF10
 2091 007b 03       		.byte	0x3
 2092 007c 2C       		.byte	0x2c
 2093 007d 41000000 		.4byte	0x41
ARM GAS  C:\Users\MARTHN~1\AppData\Local\Temp\ccXSjyDl.s 			page 62


 2094 0081 05       		.uleb128 0x5
 2095 0082 4E0F0000 		.4byte	.LASF11
 2096 0086 04       		.byte	0x4
 2097 0087 E401     		.2byte	0x1e4
 2098 0089 2C000000 		.4byte	0x2c
 2099 008d 05       		.uleb128 0x5
 2100 008e 32110000 		.4byte	.LASF12
 2101 0092 04       		.byte	0x4
 2102 0093 E501     		.2byte	0x1e5
 2103 0095 3A000000 		.4byte	0x3a
 2104 0099 02       		.uleb128 0x2
 2105 009a 04       		.byte	0x4
 2106 009b 04       		.byte	0x4
 2107 009c C70A0000 		.4byte	.LASF13
 2108 00a0 02       		.uleb128 0x2
 2109 00a1 08       		.byte	0x8
 2110 00a2 04       		.byte	0x4
 2111 00a3 970A0000 		.4byte	.LASF14
 2112 00a7 02       		.uleb128 0x2
 2113 00a8 01       		.byte	0x1
 2114 00a9 08       		.byte	0x8
 2115 00aa 2C050000 		.4byte	.LASF15
 2116 00ae 02       		.uleb128 0x2
 2117 00af 08       		.byte	0x8
 2118 00b0 04       		.byte	0x4
 2119 00b1 F60B0000 		.4byte	.LASF16
 2120 00b5 02       		.uleb128 0x2
 2121 00b6 04       		.byte	0x4
 2122 00b7 07       		.byte	0x7
 2123 00b8 20000000 		.4byte	.LASF17
 2124 00bc 06       		.uleb128 0x6
 2125 00bd F00A0000 		.4byte	.LASF22
 2126 00c1 03       		.byte	0x3
 2127 00c2 05       		.byte	0x5
 2128 00c3 10       		.byte	0x10
 2129 00c4 ED000000 		.4byte	0xed
 2130 00c8 07       		.uleb128 0x7
 2131 00c9 69080000 		.4byte	.LASF18
 2132 00cd 05       		.byte	0x5
 2133 00ce 12       		.byte	0x12
 2134 00cf 81000000 		.4byte	0x81
 2135 00d3 00       		.byte	0
 2136 00d4 07       		.uleb128 0x7
 2137 00d5 1D0A0000 		.4byte	.LASF19
 2138 00d9 05       		.byte	0x5
 2139 00da 13       		.byte	0x13
 2140 00db 81000000 		.4byte	0x81
 2141 00df 01       		.byte	0x1
 2142 00e0 07       		.uleb128 0x7
 2143 00e1 350A0000 		.4byte	.LASF20
 2144 00e5 05       		.byte	0x5
 2145 00e6 14       		.byte	0x14
 2146 00e7 81000000 		.4byte	0x81
 2147 00eb 02       		.byte	0x2
 2148 00ec 00       		.byte	0
 2149 00ed 03       		.uleb128 0x3
 2150 00ee 160F0000 		.4byte	.LASF21
ARM GAS  C:\Users\MARTHN~1\AppData\Local\Temp\ccXSjyDl.s 			page 63


 2151 00f2 05       		.byte	0x5
 2152 00f3 18       		.byte	0x18
 2153 00f4 BC000000 		.4byte	0xbc
 2154 00f8 08       		.uleb128 0x8
 2155 00f9 81000000 		.4byte	0x81
 2156 00fd 08010000 		.4byte	0x108
 2157 0101 09       		.uleb128 0x9
 2158 0102 B5000000 		.4byte	0xb5
 2159 0106 0E       		.byte	0xe
 2160 0107 00       		.byte	0
 2161 0108 06       		.uleb128 0x6
 2162 0109 5D0F0000 		.4byte	.LASF23
 2163 010d 0F       		.byte	0xf
 2164 010e 06       		.byte	0x6
 2165 010f BB       		.byte	0xbb
 2166 0110 C9010000 		.4byte	0x1c9
 2167 0114 07       		.uleb128 0x7
 2168 0115 95020000 		.4byte	.LASF24
 2169 0119 06       		.byte	0x6
 2170 011a BD       		.byte	0xbd
 2171 011b 81000000 		.4byte	0x81
 2172 011f 00       		.byte	0
 2173 0120 07       		.uleb128 0x7
 2174 0121 A4020000 		.4byte	.LASF25
 2175 0125 06       		.byte	0x6
 2176 0126 BE       		.byte	0xbe
 2177 0127 81000000 		.4byte	0x81
 2178 012b 01       		.byte	0x1
 2179 012c 07       		.uleb128 0x7
 2180 012d B3020000 		.4byte	.LASF26
 2181 0131 06       		.byte	0x6
 2182 0132 BF       		.byte	0xbf
 2183 0133 81000000 		.4byte	0x81
 2184 0137 02       		.byte	0x2
 2185 0138 07       		.uleb128 0x7
 2186 0139 C2020000 		.4byte	.LASF27
 2187 013d 06       		.byte	0x6
 2188 013e C0       		.byte	0xc0
 2189 013f 81000000 		.4byte	0x81
 2190 0143 03       		.byte	0x3
 2191 0144 07       		.uleb128 0x7
 2192 0145 DA0B0000 		.4byte	.LASF28
 2193 0149 06       		.byte	0x6
 2194 014a C1       		.byte	0xc1
 2195 014b 81000000 		.4byte	0x81
 2196 014f 04       		.byte	0x4
 2197 0150 07       		.uleb128 0x7
 2198 0151 CB050000 		.4byte	.LASF29
 2199 0155 06       		.byte	0x6
 2200 0156 C2       		.byte	0xc2
 2201 0157 81000000 		.4byte	0x81
 2202 015b 05       		.byte	0x5
 2203 015c 07       		.uleb128 0x7
 2204 015d 270E0000 		.4byte	.LASF30
 2205 0161 06       		.byte	0x6
 2206 0162 C3       		.byte	0xc3
 2207 0163 81000000 		.4byte	0x81
ARM GAS  C:\Users\MARTHN~1\AppData\Local\Temp\ccXSjyDl.s 			page 64


 2208 0167 06       		.byte	0x6
 2209 0168 07       		.uleb128 0x7
 2210 0169 1A0D0000 		.4byte	.LASF31
 2211 016d 06       		.byte	0x6
 2212 016e C4       		.byte	0xc4
 2213 016f 81000000 		.4byte	0x81
 2214 0173 07       		.byte	0x7
 2215 0174 07       		.uleb128 0x7
 2216 0175 0C0B0000 		.4byte	.LASF32
 2217 0179 06       		.byte	0x6
 2218 017a C5       		.byte	0xc5
 2219 017b 81000000 		.4byte	0x81
 2220 017f 08       		.byte	0x8
 2221 0180 07       		.uleb128 0x7
 2222 0181 180B0000 		.4byte	.LASF33
 2223 0185 06       		.byte	0x6
 2224 0186 C6       		.byte	0xc6
 2225 0187 81000000 		.4byte	0x81
 2226 018b 09       		.byte	0x9
 2227 018c 07       		.uleb128 0x7
 2228 018d 240B0000 		.4byte	.LASF34
 2229 0191 06       		.byte	0x6
 2230 0192 C7       		.byte	0xc7
 2231 0193 81000000 		.4byte	0x81
 2232 0197 0A       		.byte	0xa
 2233 0198 07       		.uleb128 0x7
 2234 0199 0E110000 		.4byte	.LASF35
 2235 019d 06       		.byte	0x6
 2236 019e C8       		.byte	0xc8
 2237 019f 81000000 		.4byte	0x81
 2238 01a3 0B       		.byte	0xb
 2239 01a4 07       		.uleb128 0x7
 2240 01a5 1A110000 		.4byte	.LASF36
 2241 01a9 06       		.byte	0x6
 2242 01aa C9       		.byte	0xc9
 2243 01ab 81000000 		.4byte	0x81
 2244 01af 0C       		.byte	0xc
 2245 01b0 07       		.uleb128 0x7
 2246 01b1 26110000 		.4byte	.LASF37
 2247 01b5 06       		.byte	0x6
 2248 01b6 CA       		.byte	0xca
 2249 01b7 81000000 		.4byte	0x81
 2250 01bb 0D       		.byte	0xd
 2251 01bc 07       		.uleb128 0x7
 2252 01bd 73040000 		.4byte	.LASF38
 2253 01c1 06       		.byte	0x6
 2254 01c2 CB       		.byte	0xcb
 2255 01c3 81000000 		.4byte	0x81
 2256 01c7 0E       		.byte	0xe
 2257 01c8 00       		.byte	0
 2258 01c9 0A       		.uleb128 0xa
 2259 01ca 4B0E0000 		.4byte	.LASF122
 2260 01ce 0F       		.byte	0xf
 2261 01cf 06       		.byte	0x6
 2262 01d0 B7       		.byte	0xb7
 2263 01d1 EC010000 		.4byte	0x1ec
 2264 01d5 0B       		.uleb128 0xb
ARM GAS  C:\Users\MARTHN~1\AppData\Local\Temp\ccXSjyDl.s 			page 65


 2265 01d6 26050000 		.4byte	.LASF39
 2266 01da 06       		.byte	0x6
 2267 01db B9       		.byte	0xb9
 2268 01dc F8000000 		.4byte	0xf8
 2269 01e0 0B       		.uleb128 0xb
 2270 01e1 7C040000 		.4byte	.LASF40
 2271 01e5 06       		.byte	0x6
 2272 01e6 CC       		.byte	0xcc
 2273 01e7 08010000 		.4byte	0x108
 2274 01eb 00       		.byte	0
 2275 01ec 03       		.uleb128 0x3
 2276 01ed 900F0000 		.4byte	.LASF41
 2277 01f1 06       		.byte	0x6
 2278 01f2 CD       		.byte	0xcd
 2279 01f3 C9010000 		.4byte	0x1c9
 2280 01f7 0C       		.uleb128 0xc
 2281 01f8 30100000 		.4byte	.LASF42
 2282 01fc 50       		.byte	0x50
 2283 01fd 06       		.byte	0x6
 2284 01fe 2D01     		.2byte	0x12d
 2285 0200 15060000 		.4byte	0x615
 2286 0204 0D       		.uleb128 0xd
 2287 0205 EE060000 		.4byte	.LASF43
 2288 0209 06       		.byte	0x6
 2289 020a 2F01     		.2byte	0x12f
 2290 020c 81000000 		.4byte	0x81
 2291 0210 00       		.byte	0
 2292 0211 0D       		.uleb128 0xd
 2293 0212 D0060000 		.4byte	.LASF44
 2294 0216 06       		.byte	0x6
 2295 0217 3001     		.2byte	0x130
 2296 0219 81000000 		.4byte	0x81
 2297 021d 01       		.byte	0x1
 2298 021e 0D       		.uleb128 0xd
 2299 021f C7060000 		.4byte	.LASF45
 2300 0223 06       		.byte	0x6
 2301 0224 3101     		.2byte	0x131
 2302 0226 81000000 		.4byte	0x81
 2303 022a 02       		.byte	0x2
 2304 022b 0D       		.uleb128 0xd
 2305 022c 1E040000 		.4byte	.LASF46
 2306 0230 06       		.byte	0x6
 2307 0231 3201     		.2byte	0x132
 2308 0233 81000000 		.4byte	0x81
 2309 0237 03       		.byte	0x3
 2310 0238 0D       		.uleb128 0xd
 2311 0239 09040000 		.4byte	.LASF47
 2312 023d 06       		.byte	0x6
 2313 023e 3301     		.2byte	0x133
 2314 0240 81000000 		.4byte	0x81
 2315 0244 04       		.byte	0x4
 2316 0245 0D       		.uleb128 0xd
 2317 0246 00040000 		.4byte	.LASF48
 2318 024a 06       		.byte	0x6
 2319 024b 3401     		.2byte	0x134
 2320 024d 81000000 		.4byte	0x81
 2321 0251 05       		.byte	0x5
ARM GAS  C:\Users\MARTHN~1\AppData\Local\Temp\ccXSjyDl.s 			page 66


 2322 0252 0D       		.uleb128 0xd
 2323 0253 4B110000 		.4byte	.LASF49
 2324 0257 06       		.byte	0x6
 2325 0258 3501     		.2byte	0x135
 2326 025a 81000000 		.4byte	0x81
 2327 025e 06       		.byte	0x6
 2328 025f 0D       		.uleb128 0xd
 2329 0260 42110000 		.4byte	.LASF50
 2330 0264 06       		.byte	0x6
 2331 0265 3601     		.2byte	0x136
 2332 0267 81000000 		.4byte	0x81
 2333 026b 07       		.byte	0x7
 2334 026c 0D       		.uleb128 0xd
 2335 026d 39110000 		.4byte	.LASF51
 2336 0271 06       		.byte	0x6
 2337 0272 3701     		.2byte	0x137
 2338 0274 81000000 		.4byte	0x81
 2339 0278 08       		.byte	0x8
 2340 0279 0D       		.uleb128 0xd
 2341 027a AD0E0000 		.4byte	.LASF52
 2342 027e 06       		.byte	0x6
 2343 027f 3801     		.2byte	0x138
 2344 0281 81000000 		.4byte	0x81
 2345 0285 09       		.byte	0x9
 2346 0286 0D       		.uleb128 0xd
 2347 0287 840E0000 		.4byte	.LASF53
 2348 028b 06       		.byte	0x6
 2349 028c 3901     		.2byte	0x139
 2350 028e 81000000 		.4byte	0x81
 2351 0292 0A       		.byte	0xa
 2352 0293 0D       		.uleb128 0xd
 2353 0294 7B0E0000 		.4byte	.LASF54
 2354 0298 06       		.byte	0x6
 2355 0299 3A01     		.2byte	0x13a
 2356 029b 81000000 		.4byte	0x81
 2357 029f 0B       		.byte	0xb
 2358 02a0 0D       		.uleb128 0xd
 2359 02a1 6A0B0000 		.4byte	.LASF55
 2360 02a5 06       		.byte	0x6
 2361 02a6 3B01     		.2byte	0x13b
 2362 02a8 81000000 		.4byte	0x81
 2363 02ac 0C       		.byte	0xc
 2364 02ad 0D       		.uleb128 0xd
 2365 02ae 530B0000 		.4byte	.LASF56
 2366 02b2 06       		.byte	0x6
 2367 02b3 3C01     		.2byte	0x13c
 2368 02b5 81000000 		.4byte	0x81
 2369 02b9 0D       		.byte	0xd
 2370 02ba 0D       		.uleb128 0xd
 2371 02bb 3B0B0000 		.4byte	.LASF57
 2372 02bf 06       		.byte	0x6
 2373 02c0 3D01     		.2byte	0x13d
 2374 02c2 81000000 		.4byte	0x81
 2375 02c6 0E       		.byte	0xe
 2376 02c7 0D       		.uleb128 0xd
 2377 02c8 11010000 		.4byte	.LASF58
 2378 02cc 06       		.byte	0x6
ARM GAS  C:\Users\MARTHN~1\AppData\Local\Temp\ccXSjyDl.s 			page 67


 2379 02cd 3E01     		.2byte	0x13e
 2380 02cf 81000000 		.4byte	0x81
 2381 02d3 0F       		.byte	0xf
 2382 02d4 0D       		.uleb128 0xd
 2383 02d5 BE060000 		.4byte	.LASF59
 2384 02d9 06       		.byte	0x6
 2385 02da 3F01     		.2byte	0x13f
 2386 02dc 81000000 		.4byte	0x81
 2387 02e0 10       		.byte	0x10
 2388 02e1 0D       		.uleb128 0xd
 2389 02e2 A5060000 		.4byte	.LASF60
 2390 02e6 06       		.byte	0x6
 2391 02e7 4001     		.2byte	0x140
 2392 02e9 81000000 		.4byte	0x81
 2393 02ed 11       		.byte	0x11
 2394 02ee 0D       		.uleb128 0xd
 2395 02ef 420C0000 		.4byte	.LASF61
 2396 02f3 06       		.byte	0x6
 2397 02f4 4101     		.2byte	0x141
 2398 02f6 81000000 		.4byte	0x81
 2399 02fa 12       		.byte	0x12
 2400 02fb 0D       		.uleb128 0xd
 2401 02fc F7030000 		.4byte	.LASF62
 2402 0300 06       		.byte	0x6
 2403 0301 4201     		.2byte	0x142
 2404 0303 81000000 		.4byte	0x81
 2405 0307 13       		.byte	0x13
 2406 0308 0D       		.uleb128 0xd
 2407 0309 EE030000 		.4byte	.LASF63
 2408 030d 06       		.byte	0x6
 2409 030e 4301     		.2byte	0x143
 2410 0310 81000000 		.4byte	0x81
 2411 0314 14       		.byte	0x14
 2412 0315 0D       		.uleb128 0xd
 2413 0316 650A0000 		.4byte	.LASF64
 2414 031a 06       		.byte	0x6
 2415 031b 4401     		.2byte	0x144
 2416 031d 81000000 		.4byte	0x81
 2417 0321 15       		.byte	0x15
 2418 0322 0D       		.uleb128 0xd
 2419 0323 4E0A0000 		.4byte	.LASF65
 2420 0327 06       		.byte	0x6
 2421 0328 4501     		.2byte	0x145
 2422 032a 81000000 		.4byte	0x81
 2423 032e 16       		.byte	0x16
 2424 032f 0D       		.uleb128 0xd
 2425 0330 450A0000 		.4byte	.LASF66
 2426 0334 06       		.byte	0x6
 2427 0335 4601     		.2byte	0x146
 2428 0337 81000000 		.4byte	0x81
 2429 033b 17       		.byte	0x17
 2430 033c 0D       		.uleb128 0xd
 2431 033d 8C050000 		.4byte	.LASF67
 2432 0341 06       		.byte	0x6
 2433 0342 4701     		.2byte	0x147
 2434 0344 81000000 		.4byte	0x81
 2435 0348 18       		.byte	0x18
ARM GAS  C:\Users\MARTHN~1\AppData\Local\Temp\ccXSjyDl.s 			page 68


 2436 0349 0D       		.uleb128 0xd
 2437 034a 83050000 		.4byte	.LASF68
 2438 034e 06       		.byte	0x6
 2439 034f 4801     		.2byte	0x148
 2440 0351 81000000 		.4byte	0x81
 2441 0355 19       		.byte	0x19
 2442 0356 0D       		.uleb128 0xd
 2443 0357 7A050000 		.4byte	.LASF69
 2444 035b 06       		.byte	0x6
 2445 035c 4901     		.2byte	0x149
 2446 035e 81000000 		.4byte	0x81
 2447 0362 1A       		.byte	0x1a
 2448 0363 0D       		.uleb128 0xd
 2449 0364 75010000 		.4byte	.LASF70
 2450 0368 06       		.byte	0x6
 2451 0369 4A01     		.2byte	0x14a
 2452 036b 81000000 		.4byte	0x81
 2453 036f 1B       		.byte	0x1b
 2454 0370 0D       		.uleb128 0xd
 2455 0371 60010000 		.4byte	.LASF71
 2456 0375 06       		.byte	0x6
 2457 0376 4B01     		.2byte	0x14b
 2458 0378 81000000 		.4byte	0x81
 2459 037c 1C       		.byte	0x1c
 2460 037d 0D       		.uleb128 0xd
 2461 037e 57010000 		.4byte	.LASF72
 2462 0382 06       		.byte	0x6
 2463 0383 4C01     		.2byte	0x14c
 2464 0385 81000000 		.4byte	0x81
 2465 0389 1D       		.byte	0x1d
 2466 038a 0D       		.uleb128 0xd
 2467 038b 27100000 		.4byte	.LASF73
 2468 038f 06       		.byte	0x6
 2469 0390 4D01     		.2byte	0x14d
 2470 0392 81000000 		.4byte	0x81
 2471 0396 1E       		.byte	0x1e
 2472 0397 0D       		.uleb128 0xd
 2473 0398 1E100000 		.4byte	.LASF74
 2474 039c 06       		.byte	0x6
 2475 039d 4E01     		.2byte	0x14e
 2476 039f 81000000 		.4byte	0x81
 2477 03a3 1F       		.byte	0x1f
 2478 03a4 0D       		.uleb128 0xd
 2479 03a5 15100000 		.4byte	.LASF75
 2480 03a9 06       		.byte	0x6
 2481 03aa 4F01     		.2byte	0x14f
 2482 03ac 81000000 		.4byte	0x81
 2483 03b0 20       		.byte	0x20
 2484 03b1 0D       		.uleb128 0xd
 2485 03b2 F00C0000 		.4byte	.LASF76
 2486 03b6 06       		.byte	0x6
 2487 03b7 5001     		.2byte	0x150
 2488 03b9 81000000 		.4byte	0x81
 2489 03bd 21       		.byte	0x21
 2490 03be 0D       		.uleb128 0xd
 2491 03bf BC0C0000 		.4byte	.LASF77
 2492 03c3 06       		.byte	0x6
ARM GAS  C:\Users\MARTHN~1\AppData\Local\Temp\ccXSjyDl.s 			page 69


 2493 03c4 5101     		.2byte	0x151
 2494 03c6 81000000 		.4byte	0x81
 2495 03ca 22       		.byte	0x22
 2496 03cb 0D       		.uleb128 0xd
 2497 03cc B30C0000 		.4byte	.LASF78
 2498 03d0 06       		.byte	0x6
 2499 03d1 5201     		.2byte	0x152
 2500 03d3 81000000 		.4byte	0x81
 2501 03d7 23       		.byte	0x23
 2502 03d8 0D       		.uleb128 0xd
 2503 03d9 23030000 		.4byte	.LASF79
 2504 03dd 06       		.byte	0x6
 2505 03de 5301     		.2byte	0x153
 2506 03e0 81000000 		.4byte	0x81
 2507 03e4 24       		.byte	0x24
 2508 03e5 0D       		.uleb128 0xd
 2509 03e6 3C0A0000 		.4byte	.LASF80
 2510 03ea 06       		.byte	0x6
 2511 03eb 5401     		.2byte	0x154
 2512 03ed 81000000 		.4byte	0x81
 2513 03f1 25       		.byte	0x25
 2514 03f2 0D       		.uleb128 0xd
 2515 03f3 2C0A0000 		.4byte	.LASF81
 2516 03f7 06       		.byte	0x6
 2517 03f8 5501     		.2byte	0x155
 2518 03fa 81000000 		.4byte	0x81
 2519 03fe 26       		.byte	0x26
 2520 03ff 0D       		.uleb128 0xd
 2521 0400 D80D0000 		.4byte	.LASF82
 2522 0404 06       		.byte	0x6
 2523 0405 5601     		.2byte	0x156
 2524 0407 81000000 		.4byte	0x81
 2525 040b 27       		.byte	0x27
 2526 040c 0D       		.uleb128 0xd
 2527 040d 63050000 		.4byte	.LASF83
 2528 0411 06       		.byte	0x6
 2529 0412 5701     		.2byte	0x157
 2530 0414 81000000 		.4byte	0x81
 2531 0418 28       		.byte	0x28
 2532 0419 0D       		.uleb128 0xd
 2533 041a 5A050000 		.4byte	.LASF84
 2534 041e 06       		.byte	0x6
 2535 041f 5801     		.2byte	0x158
 2536 0421 81000000 		.4byte	0x81
 2537 0425 29       		.byte	0x29
 2538 0426 0D       		.uleb128 0xd
 2539 0427 E0050000 		.4byte	.LASF85
 2540 042b 06       		.byte	0x6
 2541 042c 5901     		.2byte	0x159
 2542 042e 81000000 		.4byte	0x81
 2543 0432 2A       		.byte	0x2a
 2544 0433 0D       		.uleb128 0xd
 2545 0434 29010000 		.4byte	.LASF86
 2546 0438 06       		.byte	0x6
 2547 0439 5A01     		.2byte	0x15a
 2548 043b 81000000 		.4byte	0x81
 2549 043f 2B       		.byte	0x2b
ARM GAS  C:\Users\MARTHN~1\AppData\Local\Temp\ccXSjyDl.s 			page 70


 2550 0440 0D       		.uleb128 0xd
 2551 0441 C2050000 		.4byte	.LASF87
 2552 0445 06       		.byte	0x6
 2553 0446 5B01     		.2byte	0x15b
 2554 0448 81000000 		.4byte	0x81
 2555 044c 2C       		.byte	0x2c
 2556 044d 0D       		.uleb128 0xd
 2557 044e 9C100000 		.4byte	.LASF88
 2558 0452 06       		.byte	0x6
 2559 0453 5C01     		.2byte	0x15c
 2560 0455 81000000 		.4byte	0x81
 2561 0459 2D       		.byte	0x2d
 2562 045a 0D       		.uleb128 0xd
 2563 045b 0C100000 		.4byte	.LASF89
 2564 045f 06       		.byte	0x6
 2565 0460 5D01     		.2byte	0x15d
 2566 0462 81000000 		.4byte	0x81
 2567 0466 2E       		.byte	0x2e
 2568 0467 0D       		.uleb128 0xd
 2569 0468 03100000 		.4byte	.LASF90
 2570 046c 06       		.byte	0x6
 2571 046d 5E01     		.2byte	0x15e
 2572 046f 81000000 		.4byte	0x81
 2573 0473 2F       		.byte	0x2f
 2574 0474 0D       		.uleb128 0xd
 2575 0475 54110000 		.4byte	.LASF91
 2576 0479 06       		.byte	0x6
 2577 047a 5F01     		.2byte	0x15f
 2578 047c 81000000 		.4byte	0x81
 2579 0480 30       		.byte	0x30
 2580 0481 0D       		.uleb128 0xd
 2581 0482 00000000 		.4byte	.LASF92
 2582 0486 06       		.byte	0x6
 2583 0487 6001     		.2byte	0x160
 2584 0489 81000000 		.4byte	0x81
 2585 048d 31       		.byte	0x31
 2586 048e 0D       		.uleb128 0xd
 2587 048f DA020000 		.4byte	.LASF93
 2588 0493 06       		.byte	0x6
 2589 0494 6101     		.2byte	0x161
 2590 0496 81000000 		.4byte	0x81
 2591 049a 32       		.byte	0x32
 2592 049b 0D       		.uleb128 0xd
 2593 049c A2010000 		.4byte	.LASF94
 2594 04a0 06       		.byte	0x6
 2595 04a1 6201     		.2byte	0x162
 2596 04a3 81000000 		.4byte	0x81
 2597 04a7 33       		.byte	0x33
 2598 04a8 0D       		.uleb128 0xd
 2599 04a9 920B0000 		.4byte	.LASF95
 2600 04ad 06       		.byte	0x6
 2601 04ae 6301     		.2byte	0x163
 2602 04b0 81000000 		.4byte	0x81
 2603 04b4 34       		.byte	0x34
 2604 04b5 0D       		.uleb128 0xd
 2605 04b6 00110000 		.4byte	.LASF96
 2606 04ba 06       		.byte	0x6
ARM GAS  C:\Users\MARTHN~1\AppData\Local\Temp\ccXSjyDl.s 			page 71


 2607 04bb 6401     		.2byte	0x164
 2608 04bd 81000000 		.4byte	0x81
 2609 04c1 35       		.byte	0x35
 2610 04c2 0D       		.uleb128 0xd
 2611 04c3 96060000 		.4byte	.LASF97
 2612 04c7 06       		.byte	0x6
 2613 04c8 6501     		.2byte	0x165
 2614 04ca 81000000 		.4byte	0x81
 2615 04ce 36       		.byte	0x36
 2616 04cf 0D       		.uleb128 0xd
 2617 04d0 97030000 		.4byte	.LASF98
 2618 04d4 06       		.byte	0x6
 2619 04d5 6601     		.2byte	0x166
 2620 04d7 81000000 		.4byte	0x81
 2621 04db 37       		.byte	0x37
 2622 04dc 0D       		.uleb128 0xd
 2623 04dd A7030000 		.4byte	.LASF99
 2624 04e1 06       		.byte	0x6
 2625 04e2 6701     		.2byte	0x167
 2626 04e4 81000000 		.4byte	0x81
 2627 04e8 38       		.byte	0x38
 2628 04e9 0D       		.uleb128 0xd
 2629 04ea B7030000 		.4byte	.LASF100
 2630 04ee 06       		.byte	0x6
 2631 04ef 6801     		.2byte	0x168
 2632 04f1 81000000 		.4byte	0x81
 2633 04f5 39       		.byte	0x39
 2634 04f6 0D       		.uleb128 0xd
 2635 04f7 7A0A0000 		.4byte	.LASF101
 2636 04fb 06       		.byte	0x6
 2637 04fc 6901     		.2byte	0x169
 2638 04fe 81000000 		.4byte	0x81
 2639 0502 3A       		.byte	0x3a
 2640 0503 0D       		.uleb128 0xd
 2641 0504 EE050000 		.4byte	.LASF102
 2642 0508 06       		.byte	0x6
 2643 0509 6A01     		.2byte	0x16a
 2644 050b 81000000 		.4byte	0x81
 2645 050f 3B       		.byte	0x3b
 2646 0510 0D       		.uleb128 0xd
 2647 0511 B1050000 		.4byte	.LASF103
 2648 0515 06       		.byte	0x6
 2649 0516 6B01     		.2byte	0x16b
 2650 0518 81000000 		.4byte	0x81
 2651 051c 3C       		.byte	0x3c
 2652 051d 0D       		.uleb128 0xd
 2653 051e 9D040000 		.4byte	.LASF104
 2654 0522 06       		.byte	0x6
 2655 0523 6C01     		.2byte	0x16c
 2656 0525 81000000 		.4byte	0x81
 2657 0529 3D       		.byte	0x3d
 2658 052a 0D       		.uleb128 0xd
 2659 052b 730B0000 		.4byte	.LASF105
 2660 052f 06       		.byte	0x6
 2661 0530 6D01     		.2byte	0x16d
 2662 0532 81000000 		.4byte	0x81
 2663 0536 3E       		.byte	0x3e
ARM GAS  C:\Users\MARTHN~1\AppData\Local\Temp\ccXSjyDl.s 			page 72


 2664 0537 0D       		.uleb128 0xd
 2665 0538 A1080000 		.4byte	.LASF106
 2666 053c 06       		.byte	0x6
 2667 053d 6E01     		.2byte	0x16e
 2668 053f 81000000 		.4byte	0x81
 2669 0543 3F       		.byte	0x3f
 2670 0544 0D       		.uleb128 0xd
 2671 0545 FA020000 		.4byte	.LASF107
 2672 0549 06       		.byte	0x6
 2673 054a 6F01     		.2byte	0x16f
 2674 054c 81000000 		.4byte	0x81
 2675 0550 40       		.byte	0x40
 2676 0551 0D       		.uleb128 0xd
 2677 0552 F6010000 		.4byte	.LASF108
 2678 0556 06       		.byte	0x6
 2679 0557 7001     		.2byte	0x170
 2680 0559 81000000 		.4byte	0x81
 2681 055d 41       		.byte	0x41
 2682 055e 0D       		.uleb128 0xd
 2683 055f AE060000 		.4byte	.LASF109
 2684 0563 06       		.byte	0x6
 2685 0564 7101     		.2byte	0x171
 2686 0566 81000000 		.4byte	0x81
 2687 056a 42       		.byte	0x42
 2688 056b 0D       		.uleb128 0xd
 2689 056c 84020000 		.4byte	.LASF110
 2690 0570 06       		.byte	0x6
 2691 0571 7201     		.2byte	0x172
 2692 0573 81000000 		.4byte	0x81
 2693 0577 43       		.byte	0x43
 2694 0578 0D       		.uleb128 0xd
 2695 0579 27040000 		.4byte	.LASF111
 2696 057d 06       		.byte	0x6
 2697 057e 7301     		.2byte	0x173
 2698 0580 81000000 		.4byte	0x81
 2699 0584 44       		.byte	0x44
 2700 0585 0D       		.uleb128 0xd
 2701 0586 31050000 		.4byte	.LASF112
 2702 058a 06       		.byte	0x6
 2703 058b 7401     		.2byte	0x174
 2704 058d 81000000 		.4byte	0x81
 2705 0591 45       		.byte	0x45
 2706 0592 0D       		.uleb128 0xd
 2707 0593 6C050000 		.4byte	.LASF113
 2708 0597 06       		.byte	0x6
 2709 0598 7501     		.2byte	0x175
 2710 059a 81000000 		.4byte	0x81
 2711 059e 46       		.byte	0x46
 2712 059f 0D       		.uleb128 0xd
 2713 05a0 250F0000 		.4byte	.LASF114
 2714 05a4 06       		.byte	0x6
 2715 05a5 7601     		.2byte	0x176
 2716 05a7 81000000 		.4byte	0x81
 2717 05ab 47       		.byte	0x47
 2718 05ac 0D       		.uleb128 0xd
 2719 05ad 32010000 		.4byte	.LASF115
 2720 05b1 06       		.byte	0x6
ARM GAS  C:\Users\MARTHN~1\AppData\Local\Temp\ccXSjyDl.s 			page 73


 2721 05b2 7701     		.2byte	0x177
 2722 05b4 81000000 		.4byte	0x81
 2723 05b8 48       		.byte	0x48
 2724 05b9 0D       		.uleb128 0xd
 2725 05ba E70B0000 		.4byte	.LASF116
 2726 05be 06       		.byte	0x6
 2727 05bf 7801     		.2byte	0x178
 2728 05c1 81000000 		.4byte	0x81
 2729 05c5 49       		.byte	0x49
 2730 05c6 0D       		.uleb128 0xd
 2731 05c7 35000000 		.4byte	.LASF117
 2732 05cb 06       		.byte	0x6
 2733 05cc 7901     		.2byte	0x179
 2734 05ce 81000000 		.4byte	0x81
 2735 05d2 4A       		.byte	0x4a
 2736 05d3 0E       		.uleb128 0xe
 2737 05d4 52524200 		.ascii	"RRB\000"
 2738 05d8 06       		.byte	0x6
 2739 05d9 7A01     		.2byte	0x17a
 2740 05db 81000000 		.4byte	0x81
 2741 05df 4B       		.byte	0x4b
 2742 05e0 0D       		.uleb128 0xd
 2743 05e1 6E0A0000 		.4byte	.LASF118
 2744 05e5 06       		.byte	0x6
 2745 05e6 7B01     		.2byte	0x17b
 2746 05e8 81000000 		.4byte	0x81
 2747 05ec 4C       		.byte	0x4c
 2748 05ed 0D       		.uleb128 0xd
 2749 05ee 52100000 		.4byte	.LASF119
 2750 05f2 06       		.byte	0x6
 2751 05f3 7C01     		.2byte	0x17c
 2752 05f5 81000000 		.4byte	0x81
 2753 05f9 4D       		.byte	0x4d
 2754 05fa 0D       		.uleb128 0xd
 2755 05fb C2100000 		.4byte	.LASF120
 2756 05ff 06       		.byte	0x6
 2757 0600 7D01     		.2byte	0x17d
 2758 0602 81000000 		.4byte	0x81
 2759 0606 4E       		.byte	0x4e
 2760 0607 0D       		.uleb128 0xd
 2761 0608 880A0000 		.4byte	.LASF121
 2762 060c 06       		.byte	0x6
 2763 060d 7E01     		.2byte	0x17e
 2764 060f 81000000 		.4byte	0x81
 2765 0613 4F       		.byte	0x4f
 2766 0614 00       		.byte	0
 2767 0615 0F       		.uleb128 0xf
 2768 0616 C50C0000 		.4byte	.LASF123
 2769 061a 50       		.byte	0x50
 2770 061b 06       		.byte	0x6
 2771 061c 2901     		.2byte	0x129
 2772 061e 3B060000 		.4byte	0x63b
 2773 0622 10       		.uleb128 0x10
 2774 0623 26050000 		.4byte	.LASF39
 2775 0627 06       		.byte	0x6
 2776 0628 2B01     		.2byte	0x12b
 2777 062a 3B060000 		.4byte	0x63b
ARM GAS  C:\Users\MARTHN~1\AppData\Local\Temp\ccXSjyDl.s 			page 74


 2778 062e 10       		.uleb128 0x10
 2779 062f 7C040000 		.4byte	.LASF40
 2780 0633 06       		.byte	0x6
 2781 0634 7F01     		.2byte	0x17f
 2782 0636 F7010000 		.4byte	0x1f7
 2783 063a 00       		.byte	0
 2784 063b 08       		.uleb128 0x8
 2785 063c 81000000 		.4byte	0x81
 2786 0640 4B060000 		.4byte	0x64b
 2787 0644 09       		.uleb128 0x9
 2788 0645 B5000000 		.4byte	0xb5
 2789 0649 4F       		.byte	0x4f
 2790 064a 00       		.byte	0
 2791 064b 05       		.uleb128 0x5
 2792 064c 130E0000 		.4byte	.LASF124
 2793 0650 06       		.byte	0x6
 2794 0651 8001     		.2byte	0x180
 2795 0653 15060000 		.4byte	0x615
 2796 0657 0C       		.uleb128 0xc
 2797 0658 19000000 		.4byte	.LASF125
 2798 065c 05       		.byte	0x5
 2799 065d 06       		.byte	0x6
 2800 065e 9801     		.2byte	0x198
 2801 0660 A6060000 		.4byte	0x6a6
 2802 0664 0D       		.uleb128 0xd
 2803 0665 0C0B0000 		.4byte	.LASF32
 2804 0669 06       		.byte	0x6
 2805 066a 9B01     		.2byte	0x19b
 2806 066c 81000000 		.4byte	0x81
 2807 0670 00       		.byte	0
 2808 0671 0D       		.uleb128 0xd
 2809 0672 180B0000 		.4byte	.LASF33
 2810 0676 06       		.byte	0x6
 2811 0677 9C01     		.2byte	0x19c
 2812 0679 81000000 		.4byte	0x81
 2813 067d 01       		.byte	0x1
 2814 067e 0D       		.uleb128 0xd
 2815 067f 240B0000 		.4byte	.LASF34
 2816 0683 06       		.byte	0x6
 2817 0684 9D01     		.2byte	0x19d
 2818 0686 81000000 		.4byte	0x81
 2819 068a 02       		.byte	0x2
 2820 068b 0D       		.uleb128 0xd
 2821 068c CB050000 		.4byte	.LASF29
 2822 0690 06       		.byte	0x6
 2823 0691 9E01     		.2byte	0x19e
 2824 0693 81000000 		.4byte	0x81
 2825 0697 03       		.byte	0x3
 2826 0698 0D       		.uleb128 0xd
 2827 0699 270E0000 		.4byte	.LASF30
 2828 069d 06       		.byte	0x6
 2829 069e 9F01     		.2byte	0x19f
 2830 06a0 81000000 		.4byte	0x81
 2831 06a4 04       		.byte	0x4
 2832 06a5 00       		.byte	0
 2833 06a6 0F       		.uleb128 0xf
 2834 06a7 EC0F0000 		.4byte	.LASF126
ARM GAS  C:\Users\MARTHN~1\AppData\Local\Temp\ccXSjyDl.s 			page 75


 2835 06ab 05       		.byte	0x5
 2836 06ac 06       		.byte	0x6
 2837 06ad 9401     		.2byte	0x194
 2838 06af CC060000 		.4byte	0x6cc
 2839 06b3 10       		.uleb128 0x10
 2840 06b4 26050000 		.4byte	.LASF39
 2841 06b8 06       		.byte	0x6
 2842 06b9 9601     		.2byte	0x196
 2843 06bb CC060000 		.4byte	0x6cc
 2844 06bf 10       		.uleb128 0x10
 2845 06c0 7C040000 		.4byte	.LASF40
 2846 06c4 06       		.byte	0x6
 2847 06c5 A101     		.2byte	0x1a1
 2848 06c7 57060000 		.4byte	0x657
 2849 06cb 00       		.byte	0
 2850 06cc 08       		.uleb128 0x8
 2851 06cd 81000000 		.4byte	0x81
 2852 06d1 DC060000 		.4byte	0x6dc
 2853 06d5 09       		.uleb128 0x9
 2854 06d6 B5000000 		.4byte	0xb5
 2855 06da 04       		.byte	0x4
 2856 06db 00       		.byte	0
 2857 06dc 05       		.uleb128 0x5
 2858 06dd 6A040000 		.4byte	.LASF127
 2859 06e1 06       		.byte	0x6
 2860 06e2 A201     		.2byte	0x1a2
 2861 06e4 A6060000 		.4byte	0x6a6
 2862 06e8 06       		.uleb128 0x6
 2863 06e9 12040000 		.4byte	.LASF128
 2864 06ed 6F       		.byte	0x6f
 2865 06ee 07       		.byte	0x7
 2866 06ef 20       		.byte	0x20
 2867 06f0 290C0000 		.4byte	0xc29
 2868 06f4 07       		.uleb128 0x7
 2869 06f5 E10D0000 		.4byte	.LASF129
 2870 06f9 07       		.byte	0x7
 2871 06fa 22       		.byte	0x22
 2872 06fb 81000000 		.4byte	0x81
 2873 06ff 00       		.byte	0
 2874 0700 07       		.uleb128 0x7
 2875 0701 7E010000 		.4byte	.LASF130
 2876 0705 07       		.byte	0x7
 2877 0706 23       		.byte	0x23
 2878 0707 81000000 		.4byte	0x81
 2879 070b 01       		.byte	0x1
 2880 070c 07       		.uleb128 0x7
 2881 070d 8A010000 		.4byte	.LASF131
 2882 0711 07       		.byte	0x7
 2883 0712 24       		.byte	0x24
 2884 0713 81000000 		.4byte	0x81
 2885 0717 02       		.byte	0x2
 2886 0718 07       		.uleb128 0x7
 2887 0719 96010000 		.4byte	.LASF132
 2888 071d 07       		.byte	0x7
 2889 071e 25       		.byte	0x25
 2890 071f 81000000 		.4byte	0x81
 2891 0723 03       		.byte	0x3
ARM GAS  C:\Users\MARTHN~1\AppData\Local\Temp\ccXSjyDl.s 			page 76


 2892 0724 07       		.uleb128 0x7
 2893 0725 6F0F0000 		.4byte	.LASF133
 2894 0729 07       		.byte	0x7
 2895 072a 26       		.byte	0x26
 2896 072b 81000000 		.4byte	0x81
 2897 072f 04       		.byte	0x4
 2898 0730 07       		.uleb128 0x7
 2899 0731 BA010000 		.4byte	.LASF134
 2900 0735 07       		.byte	0x7
 2901 0736 27       		.byte	0x27
 2902 0737 81000000 		.4byte	0x81
 2903 073b 05       		.byte	0x5
 2904 073c 07       		.uleb128 0x7
 2905 073d C6010000 		.4byte	.LASF135
 2906 0741 07       		.byte	0x7
 2907 0742 28       		.byte	0x28
 2908 0743 81000000 		.4byte	0x81
 2909 0747 06       		.byte	0x6
 2910 0748 07       		.uleb128 0x7
 2911 0749 D2010000 		.4byte	.LASF136
 2912 074d 07       		.byte	0x7
 2913 074e 29       		.byte	0x29
 2914 074f 81000000 		.4byte	0x81
 2915 0753 07       		.byte	0x7
 2916 0754 07       		.uleb128 0x7
 2917 0755 DE010000 		.4byte	.LASF137
 2918 0759 07       		.byte	0x7
 2919 075a 2A       		.byte	0x2a
 2920 075b 81000000 		.4byte	0x81
 2921 075f 08       		.byte	0x8
 2922 0760 07       		.uleb128 0x7
 2923 0761 EA010000 		.4byte	.LASF138
 2924 0765 07       		.byte	0x7
 2925 0766 2B       		.byte	0x2b
 2926 0767 81000000 		.4byte	0x81
 2927 076b 09       		.byte	0x9
 2928 076c 07       		.uleb128 0x7
 2929 076d 14060000 		.4byte	.LASF139
 2930 0771 07       		.byte	0x7
 2931 0772 2C       		.byte	0x2c
 2932 0773 81000000 		.4byte	0x81
 2933 0777 0A       		.byte	0xa
 2934 0778 07       		.uleb128 0x7
 2935 0779 21060000 		.4byte	.LASF140
 2936 077d 07       		.byte	0x7
 2937 077e 2D       		.byte	0x2d
 2938 077f 81000000 		.4byte	0x81
 2939 0783 0B       		.byte	0xb
 2940 0784 07       		.uleb128 0x7
 2941 0785 2E060000 		.4byte	.LASF141
 2942 0789 07       		.byte	0x7
 2943 078a 2E       		.byte	0x2e
 2944 078b 81000000 		.4byte	0x81
 2945 078f 0C       		.byte	0xc
 2946 0790 07       		.uleb128 0x7
 2947 0791 3B060000 		.4byte	.LASF142
 2948 0795 07       		.byte	0x7
ARM GAS  C:\Users\MARTHN~1\AppData\Local\Temp\ccXSjyDl.s 			page 77


 2949 0796 2F       		.byte	0x2f
 2950 0797 81000000 		.4byte	0x81
 2951 079b 0D       		.byte	0xd
 2952 079c 07       		.uleb128 0x7
 2953 079d 48060000 		.4byte	.LASF143
 2954 07a1 07       		.byte	0x7
 2955 07a2 30       		.byte	0x30
 2956 07a3 81000000 		.4byte	0x81
 2957 07a7 0E       		.byte	0xe
 2958 07a8 07       		.uleb128 0x7
 2959 07a9 55060000 		.4byte	.LASF144
 2960 07ad 07       		.byte	0x7
 2961 07ae 31       		.byte	0x31
 2962 07af 81000000 		.4byte	0x81
 2963 07b3 0F       		.byte	0xf
 2964 07b4 07       		.uleb128 0x7
 2965 07b5 62060000 		.4byte	.LASF145
 2966 07b9 07       		.byte	0x7
 2967 07ba 32       		.byte	0x32
 2968 07bb 81000000 		.4byte	0x81
 2969 07bf 10       		.byte	0x10
 2970 07c0 07       		.uleb128 0x7
 2971 07c1 6F060000 		.4byte	.LASF146
 2972 07c5 07       		.byte	0x7
 2973 07c6 33       		.byte	0x33
 2974 07c7 81000000 		.4byte	0x81
 2975 07cb 11       		.byte	0x11
 2976 07cc 07       		.uleb128 0x7
 2977 07cd 7C060000 		.4byte	.LASF147
 2978 07d1 07       		.byte	0x7
 2979 07d2 34       		.byte	0x34
 2980 07d3 81000000 		.4byte	0x81
 2981 07d7 12       		.byte	0x12
 2982 07d8 07       		.uleb128 0x7
 2983 07d9 89060000 		.4byte	.LASF148
 2984 07dd 07       		.byte	0x7
 2985 07de 35       		.byte	0x35
 2986 07df 81000000 		.4byte	0x81
 2987 07e3 13       		.byte	0x13
 2988 07e4 07       		.uleb128 0x7
 2989 07e5 F7060000 		.4byte	.LASF149
 2990 07e9 07       		.byte	0x7
 2991 07ea 36       		.byte	0x36
 2992 07eb 81000000 		.4byte	0x81
 2993 07ef 14       		.byte	0x14
 2994 07f0 07       		.uleb128 0x7
 2995 07f1 04070000 		.4byte	.LASF150
 2996 07f5 07       		.byte	0x7
 2997 07f6 37       		.byte	0x37
 2998 07f7 81000000 		.4byte	0x81
 2999 07fb 15       		.byte	0x15
 3000 07fc 07       		.uleb128 0x7
 3001 07fd 11070000 		.4byte	.LASF151
 3002 0801 07       		.byte	0x7
 3003 0802 38       		.byte	0x38
 3004 0803 81000000 		.4byte	0x81
 3005 0807 16       		.byte	0x16
ARM GAS  C:\Users\MARTHN~1\AppData\Local\Temp\ccXSjyDl.s 			page 78


 3006 0808 07       		.uleb128 0x7
 3007 0809 1E070000 		.4byte	.LASF152
 3008 080d 07       		.byte	0x7
 3009 080e 39       		.byte	0x39
 3010 080f 81000000 		.4byte	0x81
 3011 0813 17       		.byte	0x17
 3012 0814 07       		.uleb128 0x7
 3013 0815 2B070000 		.4byte	.LASF153
 3014 0819 07       		.byte	0x7
 3015 081a 3A       		.byte	0x3a
 3016 081b 81000000 		.4byte	0x81
 3017 081f 18       		.byte	0x18
 3018 0820 07       		.uleb128 0x7
 3019 0821 38070000 		.4byte	.LASF154
 3020 0825 07       		.byte	0x7
 3021 0826 3B       		.byte	0x3b
 3022 0827 81000000 		.4byte	0x81
 3023 082b 19       		.byte	0x19
 3024 082c 07       		.uleb128 0x7
 3025 082d 45070000 		.4byte	.LASF155
 3026 0831 07       		.byte	0x7
 3027 0832 3C       		.byte	0x3c
 3028 0833 81000000 		.4byte	0x81
 3029 0837 1A       		.byte	0x1a
 3030 0838 07       		.uleb128 0x7
 3031 0839 52070000 		.4byte	.LASF156
 3032 083d 07       		.byte	0x7
 3033 083e 3D       		.byte	0x3d
 3034 083f 81000000 		.4byte	0x81
 3035 0843 1B       		.byte	0x1b
 3036 0844 07       		.uleb128 0x7
 3037 0845 5F070000 		.4byte	.LASF157
 3038 0849 07       		.byte	0x7
 3039 084a 3E       		.byte	0x3e
 3040 084b 81000000 		.4byte	0x81
 3041 084f 1C       		.byte	0x1c
 3042 0850 07       		.uleb128 0x7
 3043 0851 6C070000 		.4byte	.LASF158
 3044 0855 07       		.byte	0x7
 3045 0856 3F       		.byte	0x3f
 3046 0857 81000000 		.4byte	0x81
 3047 085b 1D       		.byte	0x1d
 3048 085c 07       		.uleb128 0x7
 3049 085d 94080000 		.4byte	.LASF159
 3050 0861 07       		.byte	0x7
 3051 0862 40       		.byte	0x40
 3052 0863 81000000 		.4byte	0x81
 3053 0867 1E       		.byte	0x1e
 3054 0868 07       		.uleb128 0x7
 3055 0869 590C0000 		.4byte	.LASF160
 3056 086d 07       		.byte	0x7
 3057 086e 42       		.byte	0x42
 3058 086f 81000000 		.4byte	0x81
 3059 0873 1F       		.byte	0x1f
 3060 0874 07       		.uleb128 0x7
 3061 0875 620C0000 		.4byte	.LASF161
 3062 0879 07       		.byte	0x7
ARM GAS  C:\Users\MARTHN~1\AppData\Local\Temp\ccXSjyDl.s 			page 79


 3063 087a 43       		.byte	0x43
 3064 087b 81000000 		.4byte	0x81
 3065 087f 20       		.byte	0x20
 3066 0880 07       		.uleb128 0x7
 3067 0881 6B0C0000 		.4byte	.LASF162
 3068 0885 07       		.byte	0x7
 3069 0886 44       		.byte	0x44
 3070 0887 81000000 		.4byte	0x81
 3071 088b 21       		.byte	0x21
 3072 088c 07       		.uleb128 0x7
 3073 088d D00F0000 		.4byte	.LASF163
 3074 0891 07       		.byte	0x7
 3075 0892 46       		.byte	0x46
 3076 0893 81000000 		.4byte	0x81
 3077 0897 22       		.byte	0x22
 3078 0898 07       		.uleb128 0x7
 3079 0899 DE0F0000 		.4byte	.LASF164
 3080 089d 07       		.byte	0x7
 3081 089e 47       		.byte	0x47
 3082 089f 81000000 		.4byte	0x81
 3083 08a3 23       		.byte	0x23
 3084 08a4 07       		.uleb128 0x7
 3085 08a5 5C0B0000 		.4byte	.LASF165
 3086 08a9 07       		.byte	0x7
 3087 08aa 48       		.byte	0x48
 3088 08ab 81000000 		.4byte	0x81
 3089 08af 24       		.byte	0x24
 3090 08b0 07       		.uleb128 0x7
 3091 08b1 F50F0000 		.4byte	.LASF166
 3092 08b5 07       		.byte	0x7
 3093 08b6 49       		.byte	0x49
 3094 08b7 81000000 		.4byte	0x81
 3095 08bb 25       		.byte	0x25
 3096 08bc 07       		.uleb128 0x7
 3097 08bd 740C0000 		.4byte	.LASF167
 3098 08c1 07       		.byte	0x7
 3099 08c2 4B       		.byte	0x4b
 3100 08c3 81000000 		.4byte	0x81
 3101 08c7 26       		.byte	0x26
 3102 08c8 07       		.uleb128 0x7
 3103 08c9 7D0C0000 		.4byte	.LASF168
 3104 08cd 07       		.byte	0x7
 3105 08ce 4C       		.byte	0x4c
 3106 08cf 81000000 		.4byte	0x81
 3107 08d3 27       		.byte	0x27
 3108 08d4 07       		.uleb128 0x7
 3109 08d5 860C0000 		.4byte	.LASF169
 3110 08d9 07       		.byte	0x7
 3111 08da 4D       		.byte	0x4d
 3112 08db 81000000 		.4byte	0x81
 3113 08df 28       		.byte	0x28
 3114 08e0 07       		.uleb128 0x7
 3115 08e1 8F0C0000 		.4byte	.LASF170
 3116 08e5 07       		.byte	0x7
 3117 08e6 4E       		.byte	0x4e
 3118 08e7 81000000 		.4byte	0x81
 3119 08eb 29       		.byte	0x29
ARM GAS  C:\Users\MARTHN~1\AppData\Local\Temp\ccXSjyDl.s 			page 80


 3120 08ec 07       		.uleb128 0x7
 3121 08ed AC080000 		.4byte	.LASF171
 3122 08f1 07       		.byte	0x7
 3123 08f2 50       		.byte	0x50
 3124 08f3 81000000 		.4byte	0x81
 3125 08f7 2A       		.byte	0x2a
 3126 08f8 07       		.uleb128 0x7
 3127 08f9 BD080000 		.4byte	.LASF172
 3128 08fd 07       		.byte	0x7
 3129 08fe 51       		.byte	0x51
 3130 08ff 81000000 		.4byte	0x81
 3131 0903 2B       		.byte	0x2b
 3132 0904 07       		.uleb128 0x7
 3133 0905 CE080000 		.4byte	.LASF173
 3134 0909 07       		.byte	0x7
 3135 090a 52       		.byte	0x52
 3136 090b 81000000 		.4byte	0x81
 3137 090f 2C       		.byte	0x2c
 3138 0910 07       		.uleb128 0x7
 3139 0911 DF080000 		.4byte	.LASF174
 3140 0915 07       		.byte	0x7
 3141 0916 53       		.byte	0x53
 3142 0917 81000000 		.4byte	0x81
 3143 091b 2D       		.byte	0x2d
 3144 091c 07       		.uleb128 0x7
 3145 091d F0080000 		.4byte	.LASF175
 3146 0921 07       		.byte	0x7
 3147 0922 54       		.byte	0x54
 3148 0923 81000000 		.4byte	0x81
 3149 0927 2E       		.byte	0x2e
 3150 0928 07       		.uleb128 0x7
 3151 0929 01090000 		.4byte	.LASF176
 3152 092d 07       		.byte	0x7
 3153 092e 55       		.byte	0x55
 3154 092f 81000000 		.4byte	0x81
 3155 0933 2F       		.byte	0x2f
 3156 0934 07       		.uleb128 0x7
 3157 0935 12090000 		.4byte	.LASF177
 3158 0939 07       		.byte	0x7
 3159 093a 56       		.byte	0x56
 3160 093b 81000000 		.4byte	0x81
 3161 093f 30       		.byte	0x30
 3162 0940 07       		.uleb128 0x7
 3163 0941 23090000 		.4byte	.LASF178
 3164 0945 07       		.byte	0x7
 3165 0946 57       		.byte	0x57
 3166 0947 81000000 		.4byte	0x81
 3167 094b 31       		.byte	0x31
 3168 094c 07       		.uleb128 0x7
 3169 094d 980C0000 		.4byte	.LASF179
 3170 0951 07       		.byte	0x7
 3171 0952 59       		.byte	0x59
 3172 0953 81000000 		.4byte	0x81
 3173 0957 32       		.byte	0x32
 3174 0958 07       		.uleb128 0x7
 3175 0959 DF030000 		.4byte	.LASF180
 3176 095d 07       		.byte	0x7
ARM GAS  C:\Users\MARTHN~1\AppData\Local\Temp\ccXSjyDl.s 			page 81


 3177 095e 5A       		.byte	0x5a
 3178 095f 81000000 		.4byte	0x81
 3179 0963 33       		.byte	0x33
 3180 0964 07       		.uleb128 0x7
 3181 0965 2C030000 		.4byte	.LASF181
 3182 0969 07       		.byte	0x7
 3183 096a 5C       		.byte	0x5c
 3184 096b 81000000 		.4byte	0x81
 3185 096f 34       		.byte	0x34
 3186 0970 07       		.uleb128 0x7
 3187 0971 3A030000 		.4byte	.LASF182
 3188 0975 07       		.byte	0x7
 3189 0976 5D       		.byte	0x5d
 3190 0977 81000000 		.4byte	0x81
 3191 097b 35       		.byte	0x35
 3192 097c 07       		.uleb128 0x7
 3193 097d 48030000 		.4byte	.LASF183
 3194 0981 07       		.byte	0x7
 3195 0982 5E       		.byte	0x5e
 3196 0983 81000000 		.4byte	0x81
 3197 0987 36       		.byte	0x36
 3198 0988 07       		.uleb128 0x7
 3199 0989 56030000 		.4byte	.LASF184
 3200 098d 07       		.byte	0x7
 3201 098e 5F       		.byte	0x5f
 3202 098f 81000000 		.4byte	0x81
 3203 0993 37       		.byte	0x37
 3204 0994 07       		.uleb128 0x7
 3205 0995 AC0A0000 		.4byte	.LASF185
 3206 0999 07       		.byte	0x7
 3207 099a 60       		.byte	0x60
 3208 099b 81000000 		.4byte	0x81
 3209 099f 38       		.byte	0x38
 3210 09a0 07       		.uleb128 0x7
 3211 09a1 6D030000 		.4byte	.LASF186
 3212 09a5 07       		.byte	0x7
 3213 09a6 61       		.byte	0x61
 3214 09a7 81000000 		.4byte	0x81
 3215 09ab 39       		.byte	0x39
 3216 09ac 07       		.uleb128 0x7
 3217 09ad 7B030000 		.4byte	.LASF187
 3218 09b1 07       		.byte	0x7
 3219 09b2 62       		.byte	0x62
 3220 09b3 81000000 		.4byte	0x81
 3221 09b7 3A       		.byte	0x3a
 3222 09b8 07       		.uleb128 0x7
 3223 09b9 89030000 		.4byte	.LASF188
 3224 09bd 07       		.byte	0x7
 3225 09be 63       		.byte	0x63
 3226 09bf 81000000 		.4byte	0x81
 3227 09c3 3B       		.byte	0x3b
 3228 09c4 07       		.uleb128 0x7
 3229 09c5 43100000 		.4byte	.LASF189
 3230 09c9 07       		.byte	0x7
 3231 09ca 64       		.byte	0x64
 3232 09cb 81000000 		.4byte	0x81
 3233 09cf 3C       		.byte	0x3c
ARM GAS  C:\Users\MARTHN~1\AppData\Local\Temp\ccXSjyDl.s 			page 82


 3234 09d0 07       		.uleb128 0x7
 3235 09d1 06020000 		.4byte	.LASF190
 3236 09d5 07       		.byte	0x7
 3237 09d6 66       		.byte	0x66
 3238 09d7 81000000 		.4byte	0x81
 3239 09db 3D       		.byte	0x3d
 3240 09dc 07       		.uleb128 0x7
 3241 09dd 14020000 		.4byte	.LASF191
 3242 09e1 07       		.byte	0x7
 3243 09e2 67       		.byte	0x67
 3244 09e3 81000000 		.4byte	0x81
 3245 09e7 3E       		.byte	0x3e
 3246 09e8 07       		.uleb128 0x7
 3247 09e9 22020000 		.4byte	.LASF192
 3248 09ed 07       		.byte	0x7
 3249 09ee 68       		.byte	0x68
 3250 09ef 81000000 		.4byte	0x81
 3251 09f3 3F       		.byte	0x3f
 3252 09f4 07       		.uleb128 0x7
 3253 09f5 30020000 		.4byte	.LASF193
 3254 09f9 07       		.byte	0x7
 3255 09fa 69       		.byte	0x69
 3256 09fb 81000000 		.4byte	0x81
 3257 09ff 40       		.byte	0x40
 3258 0a00 07       		.uleb128 0x7
 3259 0a01 3E020000 		.4byte	.LASF194
 3260 0a05 07       		.byte	0x7
 3261 0a06 6A       		.byte	0x6a
 3262 0a07 81000000 		.4byte	0x81
 3263 0a0b 41       		.byte	0x41
 3264 0a0c 07       		.uleb128 0x7
 3265 0a0d 4C020000 		.4byte	.LASF195
 3266 0a11 07       		.byte	0x7
 3267 0a12 6B       		.byte	0x6b
 3268 0a13 81000000 		.4byte	0x81
 3269 0a17 42       		.byte	0x42
 3270 0a18 07       		.uleb128 0x7
 3271 0a19 5A020000 		.4byte	.LASF196
 3272 0a1d 07       		.byte	0x7
 3273 0a1e 6C       		.byte	0x6c
 3274 0a1f 81000000 		.4byte	0x81
 3275 0a23 43       		.byte	0x43
 3276 0a24 07       		.uleb128 0x7
 3277 0a25 68020000 		.4byte	.LASF197
 3278 0a29 07       		.byte	0x7
 3279 0a2a 6D       		.byte	0x6d
 3280 0a2b 81000000 		.4byte	0x81
 3281 0a2f 44       		.byte	0x44
 3282 0a30 07       		.uleb128 0x7
 3283 0a31 76020000 		.4byte	.LASF198
 3284 0a35 07       		.byte	0x7
 3285 0a36 6E       		.byte	0x6e
 3286 0a37 81000000 		.4byte	0x81
 3287 0a3b 45       		.byte	0x45
 3288 0a3c 07       		.uleb128 0x7
 3289 0a3d 3C0E0000 		.4byte	.LASF199
 3290 0a41 07       		.byte	0x7
ARM GAS  C:\Users\MARTHN~1\AppData\Local\Temp\ccXSjyDl.s 			page 83


 3291 0a42 6F       		.byte	0x6f
 3292 0a43 81000000 		.4byte	0x81
 3293 0a47 46       		.byte	0x46
 3294 0a48 07       		.uleb128 0x7
 3295 0a49 8D0E0000 		.4byte	.LASF200
 3296 0a4d 07       		.byte	0x7
 3297 0a4e 71       		.byte	0x71
 3298 0a4f 81000000 		.4byte	0x81
 3299 0a53 47       		.byte	0x47
 3300 0a54 07       		.uleb128 0x7
 3301 0a55 9D0E0000 		.4byte	.LASF201
 3302 0a59 07       		.byte	0x7
 3303 0a5a 72       		.byte	0x72
 3304 0a5b 81000000 		.4byte	0x81
 3305 0a5f 48       		.byte	0x48
 3306 0a60 07       		.uleb128 0x7
 3307 0a61 FE040000 		.4byte	.LASF202
 3308 0a65 07       		.byte	0x7
 3309 0a66 73       		.byte	0x73
 3310 0a67 81000000 		.4byte	0x81
 3311 0a6b 49       		.byte	0x49
 3312 0a6c 07       		.uleb128 0x7
 3313 0a6d B60E0000 		.4byte	.LASF203
 3314 0a71 07       		.byte	0x7
 3315 0a72 74       		.byte	0x74
 3316 0a73 81000000 		.4byte	0x81
 3317 0a77 4A       		.byte	0x4a
 3318 0a78 07       		.uleb128 0x7
 3319 0a79 C60E0000 		.4byte	.LASF204
 3320 0a7d 07       		.byte	0x7
 3321 0a7e 75       		.byte	0x75
 3322 0a7f 81000000 		.4byte	0x81
 3323 0a83 4B       		.byte	0x4b
 3324 0a84 07       		.uleb128 0x7
 3325 0a85 D60E0000 		.4byte	.LASF205
 3326 0a89 07       		.byte	0x7
 3327 0a8a 76       		.byte	0x76
 3328 0a8b 81000000 		.4byte	0x81
 3329 0a8f 4C       		.byte	0x4c
 3330 0a90 07       		.uleb128 0x7
 3331 0a91 E60E0000 		.4byte	.LASF206
 3332 0a95 07       		.byte	0x7
 3333 0a96 77       		.byte	0x77
 3334 0a97 81000000 		.4byte	0x81
 3335 0a9b 4D       		.byte	0x4d
 3336 0a9c 07       		.uleb128 0x7
 3337 0a9d F60E0000 		.4byte	.LASF207
 3338 0aa1 07       		.byte	0x7
 3339 0aa2 78       		.byte	0x78
 3340 0aa3 81000000 		.4byte	0x81
 3341 0aa7 4E       		.byte	0x4e
 3342 0aa8 07       		.uleb128 0x7
 3343 0aa9 060F0000 		.4byte	.LASF208
 3344 0aad 07       		.byte	0x7
 3345 0aae 79       		.byte	0x79
 3346 0aaf 81000000 		.4byte	0x81
 3347 0ab3 4F       		.byte	0x4f
ARM GAS  C:\Users\MARTHN~1\AppData\Local\Temp\ccXSjyDl.s 			page 84


 3348 0ab4 07       		.uleb128 0x7
 3349 0ab5 59040000 		.4byte	.LASF209
 3350 0ab9 07       		.byte	0x7
 3351 0aba 7A       		.byte	0x7a
 3352 0abb 81000000 		.4byte	0x81
 3353 0abf 50       		.byte	0x50
 3354 0ac0 07       		.uleb128 0x7
 3355 0ac1 79070000 		.4byte	.LASF210
 3356 0ac5 07       		.byte	0x7
 3357 0ac6 7C       		.byte	0x7c
 3358 0ac7 81000000 		.4byte	0x81
 3359 0acb 51       		.byte	0x51
 3360 0acc 07       		.uleb128 0x7
 3361 0acd 8A070000 		.4byte	.LASF211
 3362 0ad1 07       		.byte	0x7
 3363 0ad2 7D       		.byte	0x7d
 3364 0ad3 81000000 		.4byte	0x81
 3365 0ad7 52       		.byte	0x52
 3366 0ad8 07       		.uleb128 0x7
 3367 0ad9 9B070000 		.4byte	.LASF212
 3368 0add 07       		.byte	0x7
 3369 0ade 7E       		.byte	0x7e
 3370 0adf 81000000 		.4byte	0x81
 3371 0ae3 53       		.byte	0x53
 3372 0ae4 07       		.uleb128 0x7
 3373 0ae5 AC070000 		.4byte	.LASF213
 3374 0ae9 07       		.byte	0x7
 3375 0aea 7F       		.byte	0x7f
 3376 0aeb 81000000 		.4byte	0x81
 3377 0aef 54       		.byte	0x54
 3378 0af0 07       		.uleb128 0x7
 3379 0af1 BD070000 		.4byte	.LASF214
 3380 0af5 07       		.byte	0x7
 3381 0af6 80       		.byte	0x80
 3382 0af7 81000000 		.4byte	0x81
 3383 0afb 55       		.byte	0x55
 3384 0afc 07       		.uleb128 0x7
 3385 0afd CE070000 		.4byte	.LASF215
 3386 0b01 07       		.byte	0x7
 3387 0b02 81       		.byte	0x81
 3388 0b03 81000000 		.4byte	0x81
 3389 0b07 56       		.byte	0x56
 3390 0b08 07       		.uleb128 0x7
 3391 0b09 DF070000 		.4byte	.LASF216
 3392 0b0d 07       		.byte	0x7
 3393 0b0e 82       		.byte	0x82
 3394 0b0f 81000000 		.4byte	0x81
 3395 0b13 57       		.byte	0x57
 3396 0b14 07       		.uleb128 0x7
 3397 0b15 F0070000 		.4byte	.LASF217
 3398 0b19 07       		.byte	0x7
 3399 0b1a 83       		.byte	0x83
 3400 0b1b 81000000 		.4byte	0x81
 3401 0b1f 58       		.byte	0x58
 3402 0b20 07       		.uleb128 0x7
 3403 0b21 01080000 		.4byte	.LASF218
 3404 0b25 07       		.byte	0x7
ARM GAS  C:\Users\MARTHN~1\AppData\Local\Temp\ccXSjyDl.s 			page 85


 3405 0b26 84       		.byte	0x84
 3406 0b27 81000000 		.4byte	0x81
 3407 0b2b 59       		.byte	0x59
 3408 0b2c 07       		.uleb128 0x7
 3409 0b2d 77100000 		.4byte	.LASF219
 3410 0b31 07       		.byte	0x7
 3411 0b32 85       		.byte	0x85
 3412 0b33 81000000 		.4byte	0x81
 3413 0b37 5A       		.byte	0x5a
 3414 0b38 07       		.uleb128 0x7
 3415 0b39 360D0000 		.4byte	.LASF220
 3416 0b3d 07       		.byte	0x7
 3417 0b3e 87       		.byte	0x87
 3418 0b3f 81000000 		.4byte	0x81
 3419 0b43 5B       		.byte	0x5b
 3420 0b44 07       		.uleb128 0x7
 3421 0b45 480D0000 		.4byte	.LASF221
 3422 0b49 07       		.byte	0x7
 3423 0b4a 88       		.byte	0x88
 3424 0b4b 81000000 		.4byte	0x81
 3425 0b4f 5C       		.byte	0x5c
 3426 0b50 07       		.uleb128 0x7
 3427 0b51 5A0D0000 		.4byte	.LASF222
 3428 0b55 07       		.byte	0x7
 3429 0b56 89       		.byte	0x89
 3430 0b57 81000000 		.4byte	0x81
 3431 0b5b 5D       		.byte	0x5d
 3432 0b5c 07       		.uleb128 0x7
 3433 0b5d 6C0D0000 		.4byte	.LASF223
 3434 0b61 07       		.byte	0x7
 3435 0b62 8A       		.byte	0x8a
 3436 0b63 81000000 		.4byte	0x81
 3437 0b67 5E       		.byte	0x5e
 3438 0b68 07       		.uleb128 0x7
 3439 0b69 7E0D0000 		.4byte	.LASF224
 3440 0b6d 07       		.byte	0x7
 3441 0b6e 8B       		.byte	0x8b
 3442 0b6f 81000000 		.4byte	0x81
 3443 0b73 5F       		.byte	0x5f
 3444 0b74 07       		.uleb128 0x7
 3445 0b75 900D0000 		.4byte	.LASF225
 3446 0b79 07       		.byte	0x7
 3447 0b7a 8C       		.byte	0x8c
 3448 0b7b 81000000 		.4byte	0x81
 3449 0b7f 60       		.byte	0x60
 3450 0b80 07       		.uleb128 0x7
 3451 0b81 A20D0000 		.4byte	.LASF226
 3452 0b85 07       		.byte	0x7
 3453 0b86 8D       		.byte	0x8d
 3454 0b87 81000000 		.4byte	0x81
 3455 0b8b 61       		.byte	0x61
 3456 0b8c 07       		.uleb128 0x7
 3457 0b8d B40D0000 		.4byte	.LASF227
 3458 0b91 07       		.byte	0x7
 3459 0b92 8E       		.byte	0x8e
 3460 0b93 81000000 		.4byte	0x81
 3461 0b97 62       		.byte	0x62
ARM GAS  C:\Users\MARTHN~1\AppData\Local\Temp\ccXSjyDl.s 			page 86


 3462 0b98 07       		.uleb128 0x7
 3463 0b99 C60D0000 		.4byte	.LASF228
 3464 0b9d 07       		.byte	0x7
 3465 0b9e 8F       		.byte	0x8f
 3466 0b9f 81000000 		.4byte	0x81
 3467 0ba3 63       		.byte	0x63
 3468 0ba4 07       		.uleb128 0x7
 3469 0ba5 89100000 		.4byte	.LASF229
 3470 0ba9 07       		.byte	0x7
 3471 0baa 90       		.byte	0x90
 3472 0bab 81000000 		.4byte	0x81
 3473 0baf 64       		.byte	0x64
 3474 0bb0 07       		.uleb128 0x7
 3475 0bb1 55000000 		.4byte	.LASF230
 3476 0bb5 07       		.byte	0x7
 3477 0bb6 92       		.byte	0x92
 3478 0bb7 81000000 		.4byte	0x81
 3479 0bbb 65       		.byte	0x65
 3480 0bbc 07       		.uleb128 0x7
 3481 0bbd 63000000 		.4byte	.LASF231
 3482 0bc1 07       		.byte	0x7
 3483 0bc2 93       		.byte	0x93
 3484 0bc3 81000000 		.4byte	0x81
 3485 0bc7 66       		.byte	0x66
 3486 0bc8 07       		.uleb128 0x7
 3487 0bc9 71000000 		.4byte	.LASF232
 3488 0bcd 07       		.byte	0x7
 3489 0bce 94       		.byte	0x94
 3490 0bcf 81000000 		.4byte	0x81
 3491 0bd3 67       		.byte	0x67
 3492 0bd4 07       		.uleb128 0x7
 3493 0bd5 7F000000 		.4byte	.LASF233
 3494 0bd9 07       		.byte	0x7
 3495 0bda 95       		.byte	0x95
 3496 0bdb 81000000 		.4byte	0x81
 3497 0bdf 68       		.byte	0x68
 3498 0be0 07       		.uleb128 0x7
 3499 0be1 8D000000 		.4byte	.LASF234
 3500 0be5 07       		.byte	0x7
 3501 0be6 96       		.byte	0x96
 3502 0be7 81000000 		.4byte	0x81
 3503 0beb 69       		.byte	0x69
 3504 0bec 07       		.uleb128 0x7
 3505 0bed 9B000000 		.4byte	.LASF235
 3506 0bf1 07       		.byte	0x7
 3507 0bf2 97       		.byte	0x97
 3508 0bf3 81000000 		.4byte	0x81
 3509 0bf7 6A       		.byte	0x6a
 3510 0bf8 07       		.uleb128 0x7
 3511 0bf9 A9000000 		.4byte	.LASF236
 3512 0bfd 07       		.byte	0x7
 3513 0bfe 98       		.byte	0x98
 3514 0bff 81000000 		.4byte	0x81
 3515 0c03 6B       		.byte	0x6b
 3516 0c04 07       		.uleb128 0x7
 3517 0c05 B7000000 		.4byte	.LASF237
 3518 0c09 07       		.byte	0x7
ARM GAS  C:\Users\MARTHN~1\AppData\Local\Temp\ccXSjyDl.s 			page 87


 3519 0c0a 99       		.byte	0x99
 3520 0c0b 81000000 		.4byte	0x81
 3521 0c0f 6C       		.byte	0x6c
 3522 0c10 07       		.uleb128 0x7
 3523 0c11 C5000000 		.4byte	.LASF238
 3524 0c15 07       		.byte	0x7
 3525 0c16 9A       		.byte	0x9a
 3526 0c17 81000000 		.4byte	0x81
 3527 0c1b 6D       		.byte	0x6d
 3528 0c1c 07       		.uleb128 0x7
 3529 0c1d F5000000 		.4byte	.LASF239
 3530 0c21 07       		.byte	0x7
 3531 0c22 9B       		.byte	0x9b
 3532 0c23 81000000 		.4byte	0x81
 3533 0c27 6E       		.byte	0x6e
 3534 0c28 00       		.byte	0
 3535 0c29 0A       		.uleb128 0xa
 3536 0c2a 4B0C0000 		.4byte	.LASF240
 3537 0c2e 6F       		.byte	0x6f
 3538 0c2f 07       		.byte	0x7
 3539 0c30 1C       		.byte	0x1c
 3540 0c31 4C0C0000 		.4byte	0xc4c
 3541 0c35 0B       		.uleb128 0xb
 3542 0c36 26050000 		.4byte	.LASF39
 3543 0c3a 07       		.byte	0x7
 3544 0c3b 1E       		.byte	0x1e
 3545 0c3c 4C0C0000 		.4byte	0xc4c
 3546 0c40 0B       		.uleb128 0xb
 3547 0c41 7C040000 		.4byte	.LASF40
 3548 0c45 07       		.byte	0x7
 3549 0c46 9C       		.byte	0x9c
 3550 0c47 E8060000 		.4byte	0x6e8
 3551 0c4b 00       		.byte	0
 3552 0c4c 08       		.uleb128 0x8
 3553 0c4d 81000000 		.4byte	0x81
 3554 0c51 5C0C0000 		.4byte	0xc5c
 3555 0c55 09       		.uleb128 0x9
 3556 0c56 B5000000 		.4byte	0xb5
 3557 0c5a 6E       		.byte	0x6e
 3558 0c5b 00       		.byte	0
 3559 0c5c 03       		.uleb128 0x3
 3560 0c5d EF0D0000 		.4byte	.LASF241
 3561 0c61 07       		.byte	0x7
 3562 0c62 9D       		.byte	0x9d
 3563 0c63 290C0000 		.4byte	0xc29
 3564 0c67 11       		.uleb128 0x11
 3565 0c68 0E0C0000 		.4byte	.LASF245
 3566 0c6c 01       		.byte	0x1
 3567 0c6d 2C000000 		.4byte	0x2c
 3568 0c71 01       		.byte	0x1
 3569 0c72 5A       		.byte	0x5a
 3570 0c73 8A0C0000 		.4byte	0xc8a
 3571 0c77 12       		.uleb128 0x12
 3572 0c78 04030000 		.4byte	.LASF242
 3573 0c7c 00       		.byte	0
 3574 0c7d 12       		.uleb128 0x12
 3575 0c7e 9E0A0000 		.4byte	.LASF243
ARM GAS  C:\Users\MARTHN~1\AppData\Local\Temp\ccXSjyDl.s 			page 88


 3576 0c82 01       		.byte	0x1
 3577 0c83 12       		.uleb128 0x12
 3578 0c84 440B0000 		.4byte	.LASF244
 3579 0c88 02       		.byte	0x2
 3580 0c89 00       		.byte	0
 3581 0c8a 11       		.uleb128 0x11
 3582 0c8b D2100000 		.4byte	.LASF246
 3583 0c8f 01       		.byte	0x1
 3584 0c90 2C000000 		.4byte	0x2c
 3585 0c94 01       		.byte	0x1
 3586 0c95 61       		.byte	0x61
 3587 0c96 B30C0000 		.4byte	0xcb3
 3588 0c9a 12       		.uleb128 0x12
 3589 0c9b 37100000 		.4byte	.LASF247
 3590 0c9f 00       		.byte	0
 3591 0ca0 12       		.uleb128 0x12
 3592 0ca1 850F0000 		.4byte	.LASF248
 3593 0ca5 01       		.byte	0x1
 3594 0ca6 12       		.uleb128 0x12
 3595 0ca7 69010000 		.4byte	.LASF249
 3596 0cab 02       		.byte	0x2
 3597 0cac 12       		.uleb128 0x12
 3598 0cad AE040000 		.4byte	.LASF250
 3599 0cb1 03       		.byte	0x3
 3600 0cb2 00       		.byte	0
 3601 0cb3 11       		.uleb128 0x11
 3602 0cb4 260D0000 		.4byte	.LASF251
 3603 0cb8 01       		.byte	0x1
 3604 0cb9 2C000000 		.4byte	0x2c
 3605 0cbd 01       		.byte	0x1
 3606 0cbe 69       		.byte	0x69
 3607 0cbf CA0C0000 		.4byte	0xcca
 3608 0cc3 12       		.uleb128 0x12
 3609 0cc4 12080000 		.4byte	.LASF252
 3610 0cc8 00       		.byte	0
 3611 0cc9 00       		.byte	0
 3612 0cca 11       		.uleb128 0x11
 3613 0ccb C70B0000 		.4byte	.LASF253
 3614 0ccf 01       		.byte	0x1
 3615 0cd0 2C000000 		.4byte	0x2c
 3616 0cd4 01       		.byte	0x1
 3617 0cd5 6D       		.byte	0x6d
 3618 0cd6 F30C0000 		.4byte	0xcf3
 3619 0cda 12       		.uleb128 0x12
 3620 0cdb 340F0000 		.4byte	.LASF254
 3621 0cdf 00       		.byte	0
 3622 0ce0 12       		.uleb128 0x12
 3623 0ce1 410F0000 		.4byte	.LASF255
 3624 0ce5 01       		.byte	0x1
 3625 0ce6 12       		.uleb128 0x12
 3626 0ce7 6C090000 		.4byte	.LASF256
 3627 0ceb 02       		.byte	0x2
 3628 0cec 12       		.uleb128 0x12
 3629 0ced A60C0000 		.4byte	.LASF257
 3630 0cf1 03       		.byte	0x3
 3631 0cf2 00       		.byte	0
 3632 0cf3 11       		.uleb128 0x11
ARM GAS  C:\Users\MARTHN~1\AppData\Local\Temp\ccXSjyDl.s 			page 89


 3633 0cf4 1D0A0000 		.4byte	.LASF19
 3634 0cf8 01       		.byte	0x1
 3635 0cf9 2C000000 		.4byte	0x2c
 3636 0cfd 01       		.byte	0x1
 3637 0cfe 7B       		.byte	0x7b
 3638 0cff 640D0000 		.4byte	0xd64
 3639 0d03 12       		.uleb128 0x12
 3640 0d04 13030000 		.4byte	.LASF258
 3641 0d08 00       		.byte	0
 3642 0d09 12       		.uleb128 0x12
 3643 0d0a 48000000 		.4byte	.LASF259
 3644 0d0e 01       		.byte	0x1
 3645 0d0f 12       		.uleb128 0x12
 3646 0d10 540F0000 		.4byte	.LASF260
 3647 0d14 02       		.byte	0x2
 3648 0d15 12       		.uleb128 0x12
 3649 0d16 E50A0000 		.4byte	.LASF261
 3650 0d1a 03       		.byte	0x3
 3651 0d1b 12       		.uleb128 0x12
 3652 0d1c AA050000 		.4byte	.LASF262
 3653 0d20 04       		.byte	0x4
 3654 0d21 12       		.uleb128 0x12
 3655 0d22 260A0000 		.4byte	.LASF263
 3656 0d26 05       		.byte	0x5
 3657 0d27 12       		.uleb128 0x12
 3658 0d28 1A010000 		.4byte	.LASF264
 3659 0d2c 06       		.byte	0x6
 3660 0d2d 12       		.uleb128 0x12
 3661 0d2e 230C0000 		.4byte	.LASF265
 3662 0d32 07       		.byte	0x7
 3663 0d33 12       		.uleb128 0x12
 3664 0d34 D3000000 		.4byte	.LASF266
 3665 0d38 08       		.byte	0x8
 3666 0d39 12       		.uleb128 0x12
 3667 0d3a D8000000 		.4byte	.LASF267
 3668 0d3e 09       		.byte	0x9
 3669 0d3f 13       		.uleb128 0x13
 3670 0d40 52524200 		.ascii	"RRB\000"
 3671 0d44 0A       		.byte	0xa
 3672 0d45 13       		.uleb128 0x13
 3673 0d46 4D494300 		.ascii	"MIC\000"
 3674 0d4a 0B       		.byte	0xb
 3675 0d4b 12       		.uleb128 0x12
 3676 0d4c FA100000 		.4byte	.LASF268
 3677 0d50 0C       		.byte	0xc
 3678 0d51 12       		.uleb128 0x12
 3679 0d52 D1020000 		.4byte	.LASF269
 3680 0d56 0D       		.byte	0xd
 3681 0d57 13       		.uleb128 0x13
 3682 0d58 47505300 		.ascii	"GPS\000"
 3683 0d5c 0E       		.byte	0xe
 3684 0d5d 12       		.uleb128 0x12
 3685 0d5e E9050000 		.4byte	.LASF270
 3686 0d62 0F       		.byte	0xf
 3687 0d63 00       		.byte	0
 3688 0d64 14       		.uleb128 0x14
 3689 0d65 7C090000 		.4byte	.LASF307
ARM GAS  C:\Users\MARTHN~1\AppData\Local\Temp\ccXSjyDl.s 			page 90


 3690 0d69 01       		.byte	0x1
 3691 0d6a 97       		.byte	0x97
 3692 0d6b 81000000 		.4byte	0x81
 3693 0d6f 00000000 		.4byte	.LFB63
 3694 0d73 C0070000 		.4byte	.LFE63-.LFB63
 3695 0d77 01       		.uleb128 0x1
 3696 0d78 9C       		.byte	0x9c
 3697 0d79 C90D0000 		.4byte	0xdc9
 3698 0d7d 15       		.uleb128 0x15
 3699 0d7e 64000000 		.4byte	.LBB2
 3700 0d82 1A000000 		.4byte	.LBE2-.LBB2
 3701 0d86 970D0000 		.4byte	0xd97
 3702 0d8a 16       		.uleb128 0x16
 3703 0d8b 6900     		.ascii	"i\000"
 3704 0d8d 01       		.byte	0x1
 3705 0d8e A2       		.byte	0xa2
 3706 0d8f 81000000 		.4byte	0x81
 3707 0d93 02       		.uleb128 0x2
 3708 0d94 91       		.byte	0x91
 3709 0d95 77       		.sleb128 -9
 3710 0d96 00       		.byte	0
 3711 0d97 15       		.uleb128 0x15
 3712 0d98 9A000000 		.4byte	.LBB3
 3713 0d9c 18000000 		.4byte	.LBE3-.LBB3
 3714 0da0 B10D0000 		.4byte	0xdb1
 3715 0da4 16       		.uleb128 0x16
 3716 0da5 6900     		.ascii	"i\000"
 3717 0da7 01       		.byte	0x1
 3718 0da8 A9       		.byte	0xa9
 3719 0da9 81000000 		.4byte	0x81
 3720 0dad 02       		.uleb128 0x2
 3721 0dae 91       		.byte	0x91
 3722 0daf 76       		.sleb128 -10
 3723 0db0 00       		.byte	0
 3724 0db1 17       		.uleb128 0x17
 3725 0db2 4A070000 		.4byte	.LBB4
 3726 0db6 38000000 		.4byte	.LBE4-.LBB4
 3727 0dba 18       		.uleb128 0x18
 3728 0dbb 6900     		.ascii	"i\000"
 3729 0dbd 01       		.byte	0x1
 3730 0dbe BA02     		.2byte	0x2ba
 3731 0dc0 81000000 		.4byte	0x81
 3732 0dc4 02       		.uleb128 0x2
 3733 0dc5 91       		.byte	0x91
 3734 0dc6 75       		.sleb128 -11
 3735 0dc7 00       		.byte	0
 3736 0dc8 00       		.byte	0
 3737 0dc9 19       		.uleb128 0x19
 3738 0dca 4F090000 		.4byte	.LASF308
 3739 0dce 01       		.byte	0x1
 3740 0dcf FB02     		.2byte	0x2fb
 3741 0dd1 81000000 		.4byte	0x81
 3742 0dd5 00000000 		.4byte	.LFB64
 3743 0dd9 68000000 		.4byte	.LFE64-.LFB64
 3744 0ddd 01       		.uleb128 0x1
 3745 0dde 9C       		.byte	0x9c
 3746 0ddf 1A       		.uleb128 0x1a
ARM GAS  C:\Users\MARTHN~1\AppData\Local\Temp\ccXSjyDl.s 			page 91


 3747 0de0 B20F0000 		.4byte	.LASF272
 3748 0de4 01       		.byte	0x1
 3749 0de5 ED03     		.2byte	0x3ed
 3750 0de7 00000000 		.4byte	.LFB65
 3751 0deb 58000000 		.4byte	.LFE65-.LFB65
 3752 0def 01       		.uleb128 0x1
 3753 0df0 9C       		.byte	0x9c
 3754 0df1 1F0E0000 		.4byte	0xe1f
 3755 0df5 1B       		.uleb128 0x1b
 3756 0df6 DD000000 		.4byte	.LASF271
 3757 0dfa 01       		.byte	0x1
 3758 0dfb F003     		.2byte	0x3f0
 3759 0dfd 1F0E0000 		.4byte	0xe1f
 3760 0e01 05       		.uleb128 0x5
 3761 0e02 03       		.byte	0x3
 3762 0e03 20010000 		.4byte	RelayTestStatus_display.7555
 3763 0e07 17       		.uleb128 0x17
 3764 0e08 06000000 		.4byte	.LBB5
 3765 0e0c 2C000000 		.4byte	.LBE5-.LBB5
 3766 0e10 18       		.uleb128 0x18
 3767 0e11 6900     		.ascii	"i\000"
 3768 0e13 01       		.byte	0x1
 3769 0e14 F203     		.2byte	0x3f2
 3770 0e16 81000000 		.4byte	0x81
 3771 0e1a 02       		.uleb128 0x2
 3772 0e1b 91       		.byte	0x91
 3773 0e1c 77       		.sleb128 -9
 3774 0e1d 00       		.byte	0
 3775 0e1e 00       		.byte	0
 3776 0e1f 08       		.uleb128 0x8
 3777 0e20 81000000 		.4byte	0x81
 3778 0e24 2F0E0000 		.4byte	0xe2f
 3779 0e28 09       		.uleb128 0x9
 3780 0e29 B5000000 		.4byte	0xb5
 3781 0e2d 1F       		.byte	0x1f
 3782 0e2e 00       		.byte	0
 3783 0e2f 1A       		.uleb128 0x1a
 3784 0e30 FD0D0000 		.4byte	.LASF273
 3785 0e34 01       		.byte	0x1
 3786 0e35 3A04     		.2byte	0x43a
 3787 0e37 00000000 		.4byte	.LFB66
 3788 0e3b E8000000 		.4byte	.LFE66-.LFB66
 3789 0e3f 01       		.uleb128 0x1
 3790 0e40 9C       		.byte	0x9c
 3791 0e41 B20E0000 		.4byte	0xeb2
 3792 0e45 1B       		.uleb128 0x1b
 3793 0e46 5F0E0000 		.4byte	.LASF274
 3794 0e4a 01       		.byte	0x1
 3795 0e4b 3C04     		.2byte	0x43c
 3796 0e4d 81000000 		.4byte	0x81
 3797 0e51 05       		.uleb128 0x5
 3798 0e52 03       		.byte	0x3
 3799 0e53 42010000 		.4byte	PB_NextAction_debouncecount.7563
 3800 0e57 1B       		.uleb128 0x1b
 3801 0e58 CD0A0000 		.4byte	.LASF275
 3802 0e5c 01       		.byte	0x1
 3803 0e5d 3D04     		.2byte	0x43d
ARM GAS  C:\Users\MARTHN~1\AppData\Local\Temp\ccXSjyDl.s 			page 92


 3804 0e5f 81000000 		.4byte	0x81
 3805 0e63 05       		.uleb128 0x5
 3806 0e64 03       		.byte	0x3
 3807 0e65 44010000 		.4byte	PB_NextAction_failcount.7564
 3808 0e69 1B       		.uleb128 0x1b
 3809 0e6a FC050000 		.4byte	.LASF276
 3810 0e6e 01       		.byte	0x1
 3811 0e6f 3E04     		.2byte	0x43e
 3812 0e71 81000000 		.4byte	0x81
 3813 0e75 05       		.uleb128 0x5
 3814 0e76 03       		.byte	0x3
 3815 0e77 45010000 		.4byte	PB_NextAction_prevstate.7565
 3816 0e7b 1B       		.uleb128 0x1b
 3817 0e7c 04010000 		.4byte	.LASF277
 3818 0e80 01       		.byte	0x1
 3819 0e81 4004     		.2byte	0x440
 3820 0e83 81000000 		.4byte	0x81
 3821 0e87 05       		.uleb128 0x5
 3822 0e88 03       		.byte	0x3
 3823 0e89 43010000 		.4byte	debouncetrue.7566
 3824 0e8d 1B       		.uleb128 0x1b
 3825 0e8e 370C0000 		.4byte	.LASF278
 3826 0e92 01       		.byte	0x1
 3827 0e93 4204     		.2byte	0x442
 3828 0e95 81000000 		.4byte	0x81
 3829 0e99 05       		.uleb128 0x5
 3830 0e9a 03       		.byte	0x3
 3831 0e9b 40010000 		.4byte	PB_reading.7567
 3832 0e9f 1B       		.uleb128 0x1b
 3833 0ea0 7E0B0000 		.4byte	.LASF279
 3834 0ea4 01       		.byte	0x1
 3835 0ea5 4304     		.2byte	0x443
 3836 0ea7 81000000 		.4byte	0x81
 3837 0eab 05       		.uleb128 0x5
 3838 0eac 03       		.byte	0x3
 3839 0ead 41010000 		.4byte	PB_reading_previous.7568
 3840 0eb1 00       		.byte	0
 3841 0eb2 1C       		.uleb128 0x1c
 3842 0eb3 0E050000 		.4byte	.LASF280
 3843 0eb7 01       		.byte	0x1
 3844 0eb8 7404     		.2byte	0x474
 3845 0eba 00000000 		.4byte	.LFB67
 3846 0ebe 84000000 		.4byte	.LFE67-.LFB67
 3847 0ec2 01       		.uleb128 0x1
 3848 0ec3 9C       		.byte	0x9c
 3849 0ec4 1C       		.uleb128 0x1c
 3850 0ec5 C7030000 		.4byte	.LASF281
 3851 0ec9 01       		.byte	0x1
 3852 0eca 9104     		.2byte	0x491
 3853 0ecc 00000000 		.4byte	.LFB68
 3854 0ed0 6C000000 		.4byte	.LFE68-.LFB68
 3855 0ed4 01       		.uleb128 0x1
 3856 0ed5 9C       		.byte	0x9c
 3857 0ed6 1D       		.uleb128 0x1d
 3858 0ed7 1E080000 		.4byte	.LASF282
 3859 0edb 01       		.byte	0x1
 3860 0edc D204     		.2byte	0x4d2
ARM GAS  C:\Users\MARTHN~1\AppData\Local\Temp\ccXSjyDl.s 			page 93


 3861 0ede 00000000 		.4byte	.LFB69
 3862 0ee2 3C000000 		.4byte	.LFE69-.LFB69
 3863 0ee6 01       		.uleb128 0x1
 3864 0ee7 9C       		.byte	0x9c
 3865 0ee8 1D       		.uleb128 0x1d
 3866 0ee9 F90C0000 		.4byte	.LASF283
 3867 0eed 01       		.byte	0x1
 3868 0eee DF04     		.2byte	0x4df
 3869 0ef0 00000000 		.4byte	.LFB70
 3870 0ef4 40000000 		.4byte	.LFE70-.LFB70
 3871 0ef8 01       		.uleb128 0x1
 3872 0ef9 9C       		.byte	0x9c
 3873 0efa 1C       		.uleb128 0x1c
 3874 0efb A70B0000 		.4byte	.LASF284
 3875 0eff 01       		.byte	0x1
 3876 0f00 0B05     		.2byte	0x50b
 3877 0f02 00000000 		.4byte	.LFB71
 3878 0f06 6C000000 		.4byte	.LFE71-.LFB71
 3879 0f0a 01       		.uleb128 0x1
 3880 0f0b 9C       		.byte	0x9c
 3881 0f0c 1E       		.uleb128 0x1e
 3882 0f0d EB100000 		.4byte	.LASF285
 3883 0f11 01       		.byte	0x1
 3884 0f12 1E       		.byte	0x1e
 3885 0f13 EC010000 		.4byte	0x1ec
 3886 0f17 05       		.uleb128 0x5
 3887 0f18 03       		.byte	0x3
 3888 0f19 00000000 		.4byte	rxPacket_Relay
 3889 0f1d 1E       		.uleb128 0x1e
 3890 0f1e 09000000 		.4byte	.LASF286
 3891 0f22 01       		.byte	0x1
 3892 0f23 1F       		.byte	0x1f
 3893 0f24 2E0F0000 		.4byte	0xf2e
 3894 0f28 05       		.uleb128 0x5
 3895 0f29 03       		.byte	0x3
 3896 0f2a 10000000 		.4byte	pRxPacket_Relay
 3897 0f2e 1F       		.uleb128 0x1f
 3898 0f2f 04       		.byte	0x4
 3899 0f30 EC010000 		.4byte	0x1ec
 3900 0f34 1E       		.uleb128 0x1e
 3901 0f35 4B0E0000 		.4byte	.LASF122
 3902 0f39 01       		.byte	0x1
 3903 0f3a 20       		.byte	0x20
 3904 0f3b EC010000 		.4byte	0x1ec
 3905 0f3f 05       		.uleb128 0x5
 3906 0f40 03       		.byte	0x3
 3907 0f41 14000000 		.4byte	rxPacket_RelaySiren
 3908 0f45 1E       		.uleb128 0x1e
 3909 0f46 D9060000 		.4byte	.LASF287
 3910 0f4a 01       		.byte	0x1
 3911 0f4b 21       		.byte	0x21
 3912 0f4c 2E0F0000 		.4byte	0xf2e
 3913 0f50 05       		.uleb128 0x5
 3914 0f51 03       		.byte	0x3
 3915 0f52 24000000 		.4byte	pRxPacket_RelaySiren
 3916 0f56 1E       		.uleb128 0x1e
 3917 0f57 C50C0000 		.4byte	.LASF123
ARM GAS  C:\Users\MARTHN~1\AppData\Local\Temp\ccXSjyDl.s 			page 94


 3918 0f5b 01       		.byte	0x1
 3919 0f5c 23       		.byte	0x23
 3920 0f5d 4B060000 		.4byte	0x64b
 3921 0f61 05       		.uleb128 0x5
 3922 0f62 03       		.byte	0x3
 3923 0f63 28000000 		.4byte	txPacket_RelaySiren
 3924 0f67 1E       		.uleb128 0x1e
 3925 0f68 95050000 		.4byte	.LASF288
 3926 0f6c 01       		.byte	0x1
 3927 0f6d 24       		.byte	0x24
 3928 0f6e 780F0000 		.4byte	0xf78
 3929 0f72 05       		.uleb128 0x5
 3930 0f73 03       		.byte	0x3
 3931 0f74 78000000 		.4byte	pTxPacket_RelaySiren
 3932 0f78 1F       		.uleb128 0x1f
 3933 0f79 04       		.byte	0x4
 3934 0f7a 4B060000 		.4byte	0x64b
 3935 0f7e 1E       		.uleb128 0x1e
 3936 0f7f 84040000 		.4byte	.LASF289
 3937 0f83 01       		.byte	0x1
 3938 0f84 2C       		.byte	0x2c
 3939 0f85 DC060000 		.4byte	0x6dc
 3940 0f89 05       		.uleb128 0x5
 3941 0f8a 03       		.byte	0x3
 3942 0f8b 7C000000 		.4byte	txPacket_H
 3943 0f8f 1E       		.uleb128 0x1e
 3944 0f90 020C0000 		.4byte	.LASF290
 3945 0f94 01       		.byte	0x1
 3946 0f95 2D       		.byte	0x2d
 3947 0f96 A00F0000 		.4byte	0xfa0
 3948 0f9a 05       		.uleb128 0x5
 3949 0f9b 03       		.byte	0x3
 3950 0f9c 84000000 		.4byte	pTxPacket_H
 3951 0fa0 1F       		.uleb128 0x1f
 3952 0fa1 04       		.byte	0x4
 3953 0fa2 DC060000 		.4byte	0x6dc
 3954 0fa6 1E       		.uleb128 0x1e
 3955 0fa7 300B0000 		.4byte	.LASF291
 3956 0fab 01       		.byte	0x1
 3957 0fac 2F       		.byte	0x2f
 3958 0fad DC060000 		.4byte	0x6dc
 3959 0fb1 05       		.uleb128 0x5
 3960 0fb2 03       		.byte	0x3
 3961 0fb3 88000000 		.4byte	rxPacket_H
 3962 0fb7 1E       		.uleb128 0x1e
 3963 0fb8 29000000 		.4byte	.LASF292
 3964 0fbc 01       		.byte	0x1
 3965 0fbd 30       		.byte	0x30
 3966 0fbe A00F0000 		.4byte	0xfa0
 3967 0fc2 05       		.uleb128 0x5
 3968 0fc3 03       		.byte	0x3
 3969 0fc4 90000000 		.4byte	pRxPacket_H
 3970 0fc8 1E       		.uleb128 0x1e
 3971 0fc9 A40F0000 		.4byte	.LASF293
 3972 0fcd 01       		.byte	0x1
 3973 0fce 32       		.byte	0x32
 3974 0fcf 5C0C0000 		.4byte	0xc5c
ARM GAS  C:\Users\MARTHN~1\AppData\Local\Temp\ccXSjyDl.s 			page 95


 3975 0fd3 05       		.uleb128 0x5
 3976 0fd4 03       		.byte	0x3
 3977 0fd5 94000000 		.4byte	txPacket_Quad
 3978 0fd9 1E       		.uleb128 0x1e
 3979 0fda EB020000 		.4byte	.LASF294
 3980 0fde 01       		.byte	0x1
 3981 0fdf 33       		.byte	0x33
 3982 0fe0 EA0F0000 		.4byte	0xfea
 3983 0fe4 05       		.uleb128 0x5
 3984 0fe5 03       		.byte	0x3
 3985 0fe6 04010000 		.4byte	pTxPacket_Quad
 3986 0fea 1F       		.uleb128 0x1f
 3987 0feb 04       		.byte	0x4
 3988 0fec 5C0C0000 		.4byte	0xc5c
 3989 0ff0 1E       		.uleb128 0x1e
 3990 0ff1 76080000 		.4byte	.LASF295
 3991 0ff5 01       		.byte	0x1
 3992 0ff6 3B       		.byte	0x3b
 3993 0ff7 8D000000 		.4byte	0x8d
 3994 0ffb 05       		.uleb128 0x5
 3995 0ffc 03       		.byte	0x3
 3996 0ffd 08010000 		.4byte	RTest_Complete_20ms_isr_count
 3997 1001 1E       		.uleb128 0x1e
 3998 1002 34090000 		.4byte	.LASF296
 3999 1006 01       		.byte	0x1
 4000 1007 3C       		.byte	0x3c
 4001 1008 8D000000 		.4byte	0x8d
 4002 100c 05       		.uleb128 0x5
 4003 100d 03       		.byte	0x3
 4004 100e 0A010000 		.4byte	RTest_Complete_20ms_isr_EN
 4005 1012 1E       		.uleb128 0x1e
 4006 1013 41010000 		.4byte	.LASF297
 4007 1017 01       		.byte	0x1
 4008 1018 3E       		.byte	0x3e
 4009 1019 81000000 		.4byte	0x81
 4010 101d 05       		.uleb128 0x5
 4011 101e 03       		.byte	0x3
 4012 101f 0C010000 		.4byte	PB_NextAction_Pressed
 4013 1023 1E       		.uleb128 0x1e
 4014 1024 52080000 		.4byte	.LASF298
 4015 1028 01       		.byte	0x1
 4016 1029 3F       		.byte	0x3f
 4017 102a 81000000 		.4byte	0x81
 4018 102e 05       		.uleb128 0x5
 4019 102f 03       		.byte	0x3
 4020 1030 0D010000 		.4byte	PB_NextAction_Released
 4021 1034 08       		.uleb128 0x8
 4022 1035 8D000000 		.4byte	0x8d
 4023 1039 44100000 		.4byte	0x1044
 4024 103d 09       		.uleb128 0x9
 4025 103e B5000000 		.4byte	0xb5
 4026 1042 0F       		.byte	0xf
 4027 1043 00       		.byte	0
 4028 1044 1E       		.uleb128 0x1e
 4029 1045 3E050000 		.4byte	.LASF299
 4030 1049 01       		.byte	0x1
 4031 104a 77       		.byte	0x77
ARM GAS  C:\Users\MARTHN~1\AppData\Local\Temp\ccXSjyDl.s 			page 96


 4032 104b 34100000 		.4byte	0x1034
 4033 104f 05       		.uleb128 0x5
 4034 1050 03       		.byte	0x3
 4035 1051 00000000 		.4byte	RTest_Complete_TimeoutCount
 4036 1055 08       		.uleb128 0x8
 4037 1056 81000000 		.4byte	0x81
 4038 105a 65100000 		.4byte	0x1065
 4039 105e 09       		.uleb128 0x9
 4040 105f B5000000 		.4byte	0xb5
 4041 1063 0F       		.byte	0xf
 4042 1064 00       		.byte	0
 4043 1065 1E       		.uleb128 0x1e
 4044 1066 62100000 		.4byte	.LASF300
 4045 106a 01       		.byte	0x1
 4046 106b 79       		.byte	0x79
 4047 106c 55100000 		.4byte	0x1055
 4048 1070 05       		.uleb128 0x5
 4049 1071 03       		.byte	0x3
 4050 1072 10010000 		.4byte	RTest_CompleteStatus
 4051 1076 20       		.uleb128 0x20
 4052 1077 BA0A0000 		.4byte	.LASF301
 4053 107b 08       		.byte	0x8
 4054 107c 1207     		.2byte	0x712
 4055 107e 82100000 		.4byte	0x1082
 4056 1082 21       		.uleb128 0x21
 4057 1083 76000000 		.4byte	0x76
 4058 1087 22       		.uleb128 0x22
 4059 1088 A10C0000 		.4byte	.LASF302
 4060 108c 05       		.byte	0x5
 4061 108d 16       		.byte	0x16
 4062 108e BC000000 		.4byte	0xbc
 4063 1092 05       		.uleb128 0x5
 4064 1093 03       		.byte	0x3
 4065 1094 00000000 		.4byte	Test
 4066 1098 23       		.uleb128 0x23
 4067 1099 2B0C0000 		.4byte	.LASF303
 4068 109d 05       		.byte	0x5
 4069 109e 1A       		.byte	0x1a
 4070 109f ED000000 		.4byte	0xed
 4071 10a3 00       		.byte	0
 4072              		.section	.debug_abbrev,"",%progbits
 4073              	.Ldebug_abbrev0:
 4074 0000 01       		.uleb128 0x1
 4075 0001 11       		.uleb128 0x11
 4076 0002 01       		.byte	0x1
 4077 0003 25       		.uleb128 0x25
 4078 0004 0E       		.uleb128 0xe
 4079 0005 13       		.uleb128 0x13
 4080 0006 0B       		.uleb128 0xb
 4081 0007 03       		.uleb128 0x3
 4082 0008 0E       		.uleb128 0xe
 4083 0009 1B       		.uleb128 0x1b
 4084 000a 0E       		.uleb128 0xe
 4085 000b 55       		.uleb128 0x55
 4086 000c 17       		.uleb128 0x17
 4087 000d 11       		.uleb128 0x11
 4088 000e 01       		.uleb128 0x1
ARM GAS  C:\Users\MARTHN~1\AppData\Local\Temp\ccXSjyDl.s 			page 97


 4089 000f 10       		.uleb128 0x10
 4090 0010 17       		.uleb128 0x17
 4091 0011 00       		.byte	0
 4092 0012 00       		.byte	0
 4093 0013 02       		.uleb128 0x2
 4094 0014 24       		.uleb128 0x24
 4095 0015 00       		.byte	0
 4096 0016 0B       		.uleb128 0xb
 4097 0017 0B       		.uleb128 0xb
 4098 0018 3E       		.uleb128 0x3e
 4099 0019 0B       		.uleb128 0xb
 4100 001a 03       		.uleb128 0x3
 4101 001b 0E       		.uleb128 0xe
 4102 001c 00       		.byte	0
 4103 001d 00       		.byte	0
 4104 001e 03       		.uleb128 0x3
 4105 001f 16       		.uleb128 0x16
 4106 0020 00       		.byte	0
 4107 0021 03       		.uleb128 0x3
 4108 0022 0E       		.uleb128 0xe
 4109 0023 3A       		.uleb128 0x3a
 4110 0024 0B       		.uleb128 0xb
 4111 0025 3B       		.uleb128 0x3b
 4112 0026 0B       		.uleb128 0xb
 4113 0027 49       		.uleb128 0x49
 4114 0028 13       		.uleb128 0x13
 4115 0029 00       		.byte	0
 4116 002a 00       		.byte	0
 4117 002b 04       		.uleb128 0x4
 4118 002c 24       		.uleb128 0x24
 4119 002d 00       		.byte	0
 4120 002e 0B       		.uleb128 0xb
 4121 002f 0B       		.uleb128 0xb
 4122 0030 3E       		.uleb128 0x3e
 4123 0031 0B       		.uleb128 0xb
 4124 0032 03       		.uleb128 0x3
 4125 0033 08       		.uleb128 0x8
 4126 0034 00       		.byte	0
 4127 0035 00       		.byte	0
 4128 0036 05       		.uleb128 0x5
 4129 0037 16       		.uleb128 0x16
 4130 0038 00       		.byte	0
 4131 0039 03       		.uleb128 0x3
 4132 003a 0E       		.uleb128 0xe
 4133 003b 3A       		.uleb128 0x3a
 4134 003c 0B       		.uleb128 0xb
 4135 003d 3B       		.uleb128 0x3b
 4136 003e 05       		.uleb128 0x5
 4137 003f 49       		.uleb128 0x49
 4138 0040 13       		.uleb128 0x13
 4139 0041 00       		.byte	0
 4140 0042 00       		.byte	0
 4141 0043 06       		.uleb128 0x6
 4142 0044 13       		.uleb128 0x13
 4143 0045 01       		.byte	0x1
 4144 0046 03       		.uleb128 0x3
 4145 0047 0E       		.uleb128 0xe
ARM GAS  C:\Users\MARTHN~1\AppData\Local\Temp\ccXSjyDl.s 			page 98


 4146 0048 0B       		.uleb128 0xb
 4147 0049 0B       		.uleb128 0xb
 4148 004a 3A       		.uleb128 0x3a
 4149 004b 0B       		.uleb128 0xb
 4150 004c 3B       		.uleb128 0x3b
 4151 004d 0B       		.uleb128 0xb
 4152 004e 01       		.uleb128 0x1
 4153 004f 13       		.uleb128 0x13
 4154 0050 00       		.byte	0
 4155 0051 00       		.byte	0
 4156 0052 07       		.uleb128 0x7
 4157 0053 0D       		.uleb128 0xd
 4158 0054 00       		.byte	0
 4159 0055 03       		.uleb128 0x3
 4160 0056 0E       		.uleb128 0xe
 4161 0057 3A       		.uleb128 0x3a
 4162 0058 0B       		.uleb128 0xb
 4163 0059 3B       		.uleb128 0x3b
 4164 005a 0B       		.uleb128 0xb
 4165 005b 49       		.uleb128 0x49
 4166 005c 13       		.uleb128 0x13
 4167 005d 38       		.uleb128 0x38
 4168 005e 0B       		.uleb128 0xb
 4169 005f 00       		.byte	0
 4170 0060 00       		.byte	0
 4171 0061 08       		.uleb128 0x8
 4172 0062 01       		.uleb128 0x1
 4173 0063 01       		.byte	0x1
 4174 0064 49       		.uleb128 0x49
 4175 0065 13       		.uleb128 0x13
 4176 0066 01       		.uleb128 0x1
 4177 0067 13       		.uleb128 0x13
 4178 0068 00       		.byte	0
 4179 0069 00       		.byte	0
 4180 006a 09       		.uleb128 0x9
 4181 006b 21       		.uleb128 0x21
 4182 006c 00       		.byte	0
 4183 006d 49       		.uleb128 0x49
 4184 006e 13       		.uleb128 0x13
 4185 006f 2F       		.uleb128 0x2f
 4186 0070 0B       		.uleb128 0xb
 4187 0071 00       		.byte	0
 4188 0072 00       		.byte	0
 4189 0073 0A       		.uleb128 0xa
 4190 0074 17       		.uleb128 0x17
 4191 0075 01       		.byte	0x1
 4192 0076 03       		.uleb128 0x3
 4193 0077 0E       		.uleb128 0xe
 4194 0078 0B       		.uleb128 0xb
 4195 0079 0B       		.uleb128 0xb
 4196 007a 3A       		.uleb128 0x3a
 4197 007b 0B       		.uleb128 0xb
 4198 007c 3B       		.uleb128 0x3b
 4199 007d 0B       		.uleb128 0xb
 4200 007e 01       		.uleb128 0x1
 4201 007f 13       		.uleb128 0x13
 4202 0080 00       		.byte	0
ARM GAS  C:\Users\MARTHN~1\AppData\Local\Temp\ccXSjyDl.s 			page 99


 4203 0081 00       		.byte	0
 4204 0082 0B       		.uleb128 0xb
 4205 0083 0D       		.uleb128 0xd
 4206 0084 00       		.byte	0
 4207 0085 03       		.uleb128 0x3
 4208 0086 0E       		.uleb128 0xe
 4209 0087 3A       		.uleb128 0x3a
 4210 0088 0B       		.uleb128 0xb
 4211 0089 3B       		.uleb128 0x3b
 4212 008a 0B       		.uleb128 0xb
 4213 008b 49       		.uleb128 0x49
 4214 008c 13       		.uleb128 0x13
 4215 008d 00       		.byte	0
 4216 008e 00       		.byte	0
 4217 008f 0C       		.uleb128 0xc
 4218 0090 13       		.uleb128 0x13
 4219 0091 01       		.byte	0x1
 4220 0092 03       		.uleb128 0x3
 4221 0093 0E       		.uleb128 0xe
 4222 0094 0B       		.uleb128 0xb
 4223 0095 0B       		.uleb128 0xb
 4224 0096 3A       		.uleb128 0x3a
 4225 0097 0B       		.uleb128 0xb
 4226 0098 3B       		.uleb128 0x3b
 4227 0099 05       		.uleb128 0x5
 4228 009a 01       		.uleb128 0x1
 4229 009b 13       		.uleb128 0x13
 4230 009c 00       		.byte	0
 4231 009d 00       		.byte	0
 4232 009e 0D       		.uleb128 0xd
 4233 009f 0D       		.uleb128 0xd
 4234 00a0 00       		.byte	0
 4235 00a1 03       		.uleb128 0x3
 4236 00a2 0E       		.uleb128 0xe
 4237 00a3 3A       		.uleb128 0x3a
 4238 00a4 0B       		.uleb128 0xb
 4239 00a5 3B       		.uleb128 0x3b
 4240 00a6 05       		.uleb128 0x5
 4241 00a7 49       		.uleb128 0x49
 4242 00a8 13       		.uleb128 0x13
 4243 00a9 38       		.uleb128 0x38
 4244 00aa 0B       		.uleb128 0xb
 4245 00ab 00       		.byte	0
 4246 00ac 00       		.byte	0
 4247 00ad 0E       		.uleb128 0xe
 4248 00ae 0D       		.uleb128 0xd
 4249 00af 00       		.byte	0
 4250 00b0 03       		.uleb128 0x3
 4251 00b1 08       		.uleb128 0x8
 4252 00b2 3A       		.uleb128 0x3a
 4253 00b3 0B       		.uleb128 0xb
 4254 00b4 3B       		.uleb128 0x3b
 4255 00b5 05       		.uleb128 0x5
 4256 00b6 49       		.uleb128 0x49
 4257 00b7 13       		.uleb128 0x13
 4258 00b8 38       		.uleb128 0x38
 4259 00b9 0B       		.uleb128 0xb
ARM GAS  C:\Users\MARTHN~1\AppData\Local\Temp\ccXSjyDl.s 			page 100


 4260 00ba 00       		.byte	0
 4261 00bb 00       		.byte	0
 4262 00bc 0F       		.uleb128 0xf
 4263 00bd 17       		.uleb128 0x17
 4264 00be 01       		.byte	0x1
 4265 00bf 03       		.uleb128 0x3
 4266 00c0 0E       		.uleb128 0xe
 4267 00c1 0B       		.uleb128 0xb
 4268 00c2 0B       		.uleb128 0xb
 4269 00c3 3A       		.uleb128 0x3a
 4270 00c4 0B       		.uleb128 0xb
 4271 00c5 3B       		.uleb128 0x3b
 4272 00c6 05       		.uleb128 0x5
 4273 00c7 01       		.uleb128 0x1
 4274 00c8 13       		.uleb128 0x13
 4275 00c9 00       		.byte	0
 4276 00ca 00       		.byte	0
 4277 00cb 10       		.uleb128 0x10
 4278 00cc 0D       		.uleb128 0xd
 4279 00cd 00       		.byte	0
 4280 00ce 03       		.uleb128 0x3
 4281 00cf 0E       		.uleb128 0xe
 4282 00d0 3A       		.uleb128 0x3a
 4283 00d1 0B       		.uleb128 0xb
 4284 00d2 3B       		.uleb128 0x3b
 4285 00d3 05       		.uleb128 0x5
 4286 00d4 49       		.uleb128 0x49
 4287 00d5 13       		.uleb128 0x13
 4288 00d6 00       		.byte	0
 4289 00d7 00       		.byte	0
 4290 00d8 11       		.uleb128 0x11
 4291 00d9 04       		.uleb128 0x4
 4292 00da 01       		.byte	0x1
 4293 00db 03       		.uleb128 0x3
 4294 00dc 0E       		.uleb128 0xe
 4295 00dd 0B       		.uleb128 0xb
 4296 00de 0B       		.uleb128 0xb
 4297 00df 49       		.uleb128 0x49
 4298 00e0 13       		.uleb128 0x13
 4299 00e1 3A       		.uleb128 0x3a
 4300 00e2 0B       		.uleb128 0xb
 4301 00e3 3B       		.uleb128 0x3b
 4302 00e4 0B       		.uleb128 0xb
 4303 00e5 01       		.uleb128 0x1
 4304 00e6 13       		.uleb128 0x13
 4305 00e7 00       		.byte	0
 4306 00e8 00       		.byte	0
 4307 00e9 12       		.uleb128 0x12
 4308 00ea 28       		.uleb128 0x28
 4309 00eb 00       		.byte	0
 4310 00ec 03       		.uleb128 0x3
 4311 00ed 0E       		.uleb128 0xe
 4312 00ee 1C       		.uleb128 0x1c
 4313 00ef 0B       		.uleb128 0xb
 4314 00f0 00       		.byte	0
 4315 00f1 00       		.byte	0
 4316 00f2 13       		.uleb128 0x13
ARM GAS  C:\Users\MARTHN~1\AppData\Local\Temp\ccXSjyDl.s 			page 101


 4317 00f3 28       		.uleb128 0x28
 4318 00f4 00       		.byte	0
 4319 00f5 03       		.uleb128 0x3
 4320 00f6 08       		.uleb128 0x8
 4321 00f7 1C       		.uleb128 0x1c
 4322 00f8 0B       		.uleb128 0xb
 4323 00f9 00       		.byte	0
 4324 00fa 00       		.byte	0
 4325 00fb 14       		.uleb128 0x14
 4326 00fc 2E       		.uleb128 0x2e
 4327 00fd 01       		.byte	0x1
 4328 00fe 3F       		.uleb128 0x3f
 4329 00ff 19       		.uleb128 0x19
 4330 0100 03       		.uleb128 0x3
 4331 0101 0E       		.uleb128 0xe
 4332 0102 3A       		.uleb128 0x3a
 4333 0103 0B       		.uleb128 0xb
 4334 0104 3B       		.uleb128 0x3b
 4335 0105 0B       		.uleb128 0xb
 4336 0106 27       		.uleb128 0x27
 4337 0107 19       		.uleb128 0x19
 4338 0108 49       		.uleb128 0x49
 4339 0109 13       		.uleb128 0x13
 4340 010a 11       		.uleb128 0x11
 4341 010b 01       		.uleb128 0x1
 4342 010c 12       		.uleb128 0x12
 4343 010d 06       		.uleb128 0x6
 4344 010e 40       		.uleb128 0x40
 4345 010f 18       		.uleb128 0x18
 4346 0110 9642     		.uleb128 0x2116
 4347 0112 19       		.uleb128 0x19
 4348 0113 01       		.uleb128 0x1
 4349 0114 13       		.uleb128 0x13
 4350 0115 00       		.byte	0
 4351 0116 00       		.byte	0
 4352 0117 15       		.uleb128 0x15
 4353 0118 0B       		.uleb128 0xb
 4354 0119 01       		.byte	0x1
 4355 011a 11       		.uleb128 0x11
 4356 011b 01       		.uleb128 0x1
 4357 011c 12       		.uleb128 0x12
 4358 011d 06       		.uleb128 0x6
 4359 011e 01       		.uleb128 0x1
 4360 011f 13       		.uleb128 0x13
 4361 0120 00       		.byte	0
 4362 0121 00       		.byte	0
 4363 0122 16       		.uleb128 0x16
 4364 0123 34       		.uleb128 0x34
 4365 0124 00       		.byte	0
 4366 0125 03       		.uleb128 0x3
 4367 0126 08       		.uleb128 0x8
 4368 0127 3A       		.uleb128 0x3a
 4369 0128 0B       		.uleb128 0xb
 4370 0129 3B       		.uleb128 0x3b
 4371 012a 0B       		.uleb128 0xb
 4372 012b 49       		.uleb128 0x49
 4373 012c 13       		.uleb128 0x13
ARM GAS  C:\Users\MARTHN~1\AppData\Local\Temp\ccXSjyDl.s 			page 102


 4374 012d 02       		.uleb128 0x2
 4375 012e 18       		.uleb128 0x18
 4376 012f 00       		.byte	0
 4377 0130 00       		.byte	0
 4378 0131 17       		.uleb128 0x17
 4379 0132 0B       		.uleb128 0xb
 4380 0133 01       		.byte	0x1
 4381 0134 11       		.uleb128 0x11
 4382 0135 01       		.uleb128 0x1
 4383 0136 12       		.uleb128 0x12
 4384 0137 06       		.uleb128 0x6
 4385 0138 00       		.byte	0
 4386 0139 00       		.byte	0
 4387 013a 18       		.uleb128 0x18
 4388 013b 34       		.uleb128 0x34
 4389 013c 00       		.byte	0
 4390 013d 03       		.uleb128 0x3
 4391 013e 08       		.uleb128 0x8
 4392 013f 3A       		.uleb128 0x3a
 4393 0140 0B       		.uleb128 0xb
 4394 0141 3B       		.uleb128 0x3b
 4395 0142 05       		.uleb128 0x5
 4396 0143 49       		.uleb128 0x49
 4397 0144 13       		.uleb128 0x13
 4398 0145 02       		.uleb128 0x2
 4399 0146 18       		.uleb128 0x18
 4400 0147 00       		.byte	0
 4401 0148 00       		.byte	0
 4402 0149 19       		.uleb128 0x19
 4403 014a 2E       		.uleb128 0x2e
 4404 014b 00       		.byte	0
 4405 014c 3F       		.uleb128 0x3f
 4406 014d 19       		.uleb128 0x19
 4407 014e 03       		.uleb128 0x3
 4408 014f 0E       		.uleb128 0xe
 4409 0150 3A       		.uleb128 0x3a
 4410 0151 0B       		.uleb128 0xb
 4411 0152 3B       		.uleb128 0x3b
 4412 0153 05       		.uleb128 0x5
 4413 0154 27       		.uleb128 0x27
 4414 0155 19       		.uleb128 0x19
 4415 0156 49       		.uleb128 0x49
 4416 0157 13       		.uleb128 0x13
 4417 0158 11       		.uleb128 0x11
 4418 0159 01       		.uleb128 0x1
 4419 015a 12       		.uleb128 0x12
 4420 015b 06       		.uleb128 0x6
 4421 015c 40       		.uleb128 0x40
 4422 015d 18       		.uleb128 0x18
 4423 015e 9642     		.uleb128 0x2116
 4424 0160 19       		.uleb128 0x19
 4425 0161 00       		.byte	0
 4426 0162 00       		.byte	0
 4427 0163 1A       		.uleb128 0x1a
 4428 0164 2E       		.uleb128 0x2e
 4429 0165 01       		.byte	0x1
 4430 0166 3F       		.uleb128 0x3f
ARM GAS  C:\Users\MARTHN~1\AppData\Local\Temp\ccXSjyDl.s 			page 103


 4431 0167 19       		.uleb128 0x19
 4432 0168 03       		.uleb128 0x3
 4433 0169 0E       		.uleb128 0xe
 4434 016a 3A       		.uleb128 0x3a
 4435 016b 0B       		.uleb128 0xb
 4436 016c 3B       		.uleb128 0x3b
 4437 016d 05       		.uleb128 0x5
 4438 016e 27       		.uleb128 0x27
 4439 016f 19       		.uleb128 0x19
 4440 0170 11       		.uleb128 0x11
 4441 0171 01       		.uleb128 0x1
 4442 0172 12       		.uleb128 0x12
 4443 0173 06       		.uleb128 0x6
 4444 0174 40       		.uleb128 0x40
 4445 0175 18       		.uleb128 0x18
 4446 0176 9642     		.uleb128 0x2116
 4447 0178 19       		.uleb128 0x19
 4448 0179 01       		.uleb128 0x1
 4449 017a 13       		.uleb128 0x13
 4450 017b 00       		.byte	0
 4451 017c 00       		.byte	0
 4452 017d 1B       		.uleb128 0x1b
 4453 017e 34       		.uleb128 0x34
 4454 017f 00       		.byte	0
 4455 0180 03       		.uleb128 0x3
 4456 0181 0E       		.uleb128 0xe
 4457 0182 3A       		.uleb128 0x3a
 4458 0183 0B       		.uleb128 0xb
 4459 0184 3B       		.uleb128 0x3b
 4460 0185 05       		.uleb128 0x5
 4461 0186 49       		.uleb128 0x49
 4462 0187 13       		.uleb128 0x13
 4463 0188 02       		.uleb128 0x2
 4464 0189 18       		.uleb128 0x18
 4465 018a 00       		.byte	0
 4466 018b 00       		.byte	0
 4467 018c 1C       		.uleb128 0x1c
 4468 018d 2E       		.uleb128 0x2e
 4469 018e 00       		.byte	0
 4470 018f 3F       		.uleb128 0x3f
 4471 0190 19       		.uleb128 0x19
 4472 0191 03       		.uleb128 0x3
 4473 0192 0E       		.uleb128 0xe
 4474 0193 3A       		.uleb128 0x3a
 4475 0194 0B       		.uleb128 0xb
 4476 0195 3B       		.uleb128 0x3b
 4477 0196 05       		.uleb128 0x5
 4478 0197 27       		.uleb128 0x27
 4479 0198 19       		.uleb128 0x19
 4480 0199 11       		.uleb128 0x11
 4481 019a 01       		.uleb128 0x1
 4482 019b 12       		.uleb128 0x12
 4483 019c 06       		.uleb128 0x6
 4484 019d 40       		.uleb128 0x40
 4485 019e 18       		.uleb128 0x18
 4486 019f 9642     		.uleb128 0x2116
 4487 01a1 19       		.uleb128 0x19
ARM GAS  C:\Users\MARTHN~1\AppData\Local\Temp\ccXSjyDl.s 			page 104


 4488 01a2 00       		.byte	0
 4489 01a3 00       		.byte	0
 4490 01a4 1D       		.uleb128 0x1d
 4491 01a5 2E       		.uleb128 0x2e
 4492 01a6 00       		.byte	0
 4493 01a7 3F       		.uleb128 0x3f
 4494 01a8 19       		.uleb128 0x19
 4495 01a9 03       		.uleb128 0x3
 4496 01aa 0E       		.uleb128 0xe
 4497 01ab 3A       		.uleb128 0x3a
 4498 01ac 0B       		.uleb128 0xb
 4499 01ad 3B       		.uleb128 0x3b
 4500 01ae 05       		.uleb128 0x5
 4501 01af 27       		.uleb128 0x27
 4502 01b0 19       		.uleb128 0x19
 4503 01b1 11       		.uleb128 0x11
 4504 01b2 01       		.uleb128 0x1
 4505 01b3 12       		.uleb128 0x12
 4506 01b4 06       		.uleb128 0x6
 4507 01b5 40       		.uleb128 0x40
 4508 01b6 18       		.uleb128 0x18
 4509 01b7 9742     		.uleb128 0x2117
 4510 01b9 19       		.uleb128 0x19
 4511 01ba 00       		.byte	0
 4512 01bb 00       		.byte	0
 4513 01bc 1E       		.uleb128 0x1e
 4514 01bd 34       		.uleb128 0x34
 4515 01be 00       		.byte	0
 4516 01bf 03       		.uleb128 0x3
 4517 01c0 0E       		.uleb128 0xe
 4518 01c1 3A       		.uleb128 0x3a
 4519 01c2 0B       		.uleb128 0xb
 4520 01c3 3B       		.uleb128 0x3b
 4521 01c4 0B       		.uleb128 0xb
 4522 01c5 49       		.uleb128 0x49
 4523 01c6 13       		.uleb128 0x13
 4524 01c7 02       		.uleb128 0x2
 4525 01c8 18       		.uleb128 0x18
 4526 01c9 00       		.byte	0
 4527 01ca 00       		.byte	0
 4528 01cb 1F       		.uleb128 0x1f
 4529 01cc 0F       		.uleb128 0xf
 4530 01cd 00       		.byte	0
 4531 01ce 0B       		.uleb128 0xb
 4532 01cf 0B       		.uleb128 0xb
 4533 01d0 49       		.uleb128 0x49
 4534 01d1 13       		.uleb128 0x13
 4535 01d2 00       		.byte	0
 4536 01d3 00       		.byte	0
 4537 01d4 20       		.uleb128 0x20
 4538 01d5 34       		.uleb128 0x34
 4539 01d6 00       		.byte	0
 4540 01d7 03       		.uleb128 0x3
 4541 01d8 0E       		.uleb128 0xe
 4542 01d9 3A       		.uleb128 0x3a
 4543 01da 0B       		.uleb128 0xb
 4544 01db 3B       		.uleb128 0x3b
ARM GAS  C:\Users\MARTHN~1\AppData\Local\Temp\ccXSjyDl.s 			page 105


 4545 01dc 05       		.uleb128 0x5
 4546 01dd 49       		.uleb128 0x49
 4547 01de 13       		.uleb128 0x13
 4548 01df 3F       		.uleb128 0x3f
 4549 01e0 19       		.uleb128 0x19
 4550 01e1 3C       		.uleb128 0x3c
 4551 01e2 19       		.uleb128 0x19
 4552 01e3 00       		.byte	0
 4553 01e4 00       		.byte	0
 4554 01e5 21       		.uleb128 0x21
 4555 01e6 35       		.uleb128 0x35
 4556 01e7 00       		.byte	0
 4557 01e8 49       		.uleb128 0x49
 4558 01e9 13       		.uleb128 0x13
 4559 01ea 00       		.byte	0
 4560 01eb 00       		.byte	0
 4561 01ec 22       		.uleb128 0x22
 4562 01ed 34       		.uleb128 0x34
 4563 01ee 00       		.byte	0
 4564 01ef 03       		.uleb128 0x3
 4565 01f0 0E       		.uleb128 0xe
 4566 01f1 3A       		.uleb128 0x3a
 4567 01f2 0B       		.uleb128 0xb
 4568 01f3 3B       		.uleb128 0x3b
 4569 01f4 0B       		.uleb128 0xb
 4570 01f5 49       		.uleb128 0x49
 4571 01f6 13       		.uleb128 0x13
 4572 01f7 3F       		.uleb128 0x3f
 4573 01f8 19       		.uleb128 0x19
 4574 01f9 02       		.uleb128 0x2
 4575 01fa 18       		.uleb128 0x18
 4576 01fb 00       		.byte	0
 4577 01fc 00       		.byte	0
 4578 01fd 23       		.uleb128 0x23
 4579 01fe 34       		.uleb128 0x34
 4580 01ff 00       		.byte	0
 4581 0200 03       		.uleb128 0x3
 4582 0201 0E       		.uleb128 0xe
 4583 0202 3A       		.uleb128 0x3a
 4584 0203 0B       		.uleb128 0xb
 4585 0204 3B       		.uleb128 0x3b
 4586 0205 0B       		.uleb128 0xb
 4587 0206 49       		.uleb128 0x49
 4588 0207 13       		.uleb128 0x13
 4589 0208 3F       		.uleb128 0x3f
 4590 0209 19       		.uleb128 0x19
 4591 020a 3C       		.uleb128 0x3c
 4592 020b 19       		.uleb128 0x19
 4593 020c 00       		.byte	0
 4594 020d 00       		.byte	0
 4595 020e 00       		.byte	0
 4596              		.section	.debug_aranges,"",%progbits
 4597 0000 5C000000 		.4byte	0x5c
 4598 0004 0200     		.2byte	0x2
 4599 0006 00000000 		.4byte	.Ldebug_info0
 4600 000a 04       		.byte	0x4
 4601 000b 00       		.byte	0
ARM GAS  C:\Users\MARTHN~1\AppData\Local\Temp\ccXSjyDl.s 			page 106


 4602 000c 0000     		.2byte	0
 4603 000e 0000     		.2byte	0
 4604 0010 00000000 		.4byte	.LFB63
 4605 0014 C0070000 		.4byte	.LFE63-.LFB63
 4606 0018 00000000 		.4byte	.LFB64
 4607 001c 68000000 		.4byte	.LFE64-.LFB64
 4608 0020 00000000 		.4byte	.LFB65
 4609 0024 58000000 		.4byte	.LFE65-.LFB65
 4610 0028 00000000 		.4byte	.LFB66
 4611 002c E8000000 		.4byte	.LFE66-.LFB66
 4612 0030 00000000 		.4byte	.LFB67
 4613 0034 84000000 		.4byte	.LFE67-.LFB67
 4614 0038 00000000 		.4byte	.LFB68
 4615 003c 6C000000 		.4byte	.LFE68-.LFB68
 4616 0040 00000000 		.4byte	.LFB69
 4617 0044 3C000000 		.4byte	.LFE69-.LFB69
 4618 0048 00000000 		.4byte	.LFB70
 4619 004c 40000000 		.4byte	.LFE70-.LFB70
 4620 0050 00000000 		.4byte	.LFB71
 4621 0054 6C000000 		.4byte	.LFE71-.LFB71
 4622 0058 00000000 		.4byte	0
 4623 005c 00000000 		.4byte	0
 4624              		.section	.debug_ranges,"",%progbits
 4625              	.Ldebug_ranges0:
 4626 0000 00000000 		.4byte	.LFB63
 4627 0004 C0070000 		.4byte	.LFE63
 4628 0008 00000000 		.4byte	.LFB64
 4629 000c 68000000 		.4byte	.LFE64
 4630 0010 00000000 		.4byte	.LFB65
 4631 0014 58000000 		.4byte	.LFE65
 4632 0018 00000000 		.4byte	.LFB66
 4633 001c E8000000 		.4byte	.LFE66
 4634 0020 00000000 		.4byte	.LFB67
 4635 0024 84000000 		.4byte	.LFE67
 4636 0028 00000000 		.4byte	.LFB68
 4637 002c 6C000000 		.4byte	.LFE68
 4638 0030 00000000 		.4byte	.LFB69
 4639 0034 3C000000 		.4byte	.LFE69
 4640 0038 00000000 		.4byte	.LFB70
 4641 003c 40000000 		.4byte	.LFE70
 4642 0040 00000000 		.4byte	.LFB71
 4643 0044 6C000000 		.4byte	.LFE71
 4644 0048 00000000 		.4byte	0
 4645 004c 00000000 		.4byte	0
 4646              		.section	.debug_line,"",%progbits
 4647              	.Ldebug_line0:
 4648 0000 9F040000 		.section	.debug_str,"MS",%progbits,1
 4648      0200A501 
 4648      00000201 
 4648      FB0E0D00 
 4648      01010101 
 4649              	.LASF92:
 4650 0000 42757A7A 		.ascii	"Buzzer_L\000"
 4650      65725F4C 
 4650      00
 4651              	.LASF286:
 4652 0009 70527850 		.ascii	"pRxPacket_Relay\000"
ARM GAS  C:\Users\MARTHN~1\AppData\Local\Temp\ccXSjyDl.s 			page 107


 4652      61636B65 
 4652      745F5265 
 4652      6C617900 
 4653              	.LASF125:
 4654 0019 44617461 		.ascii	"Data_H\000"
 4654      5F4800
 4655              	.LASF17:
 4656 0020 73697A65 		.ascii	"sizetype\000"
 4656      74797065 
 4656      00
 4657              	.LASF292:
 4658 0029 70527850 		.ascii	"pRxPacket_H\000"
 4658      61636B65 
 4658      745F4800 
 4659              	.LASF117:
 4660 0035 506F7765 		.ascii	"PowerState\000"
 4660      72537461 
 4660      746500
 4661              	.LASF10:
 4662 0040 696E7433 		.ascii	"int32_t\000"
 4662      325F7400 
 4663              	.LASF259:
 4664 0048 54455354 		.ascii	"TEST_OUTPUTS\000"
 4664      5F4F5554 
 4664      50555453 
 4664      00
 4665              	.LASF230:
 4666 0055 4172726F 		.ascii	"Arrow_Module1\000"
 4666      775F4D6F 
 4666      64756C65 
 4666      3100
 4667              	.LASF231:
 4668 0063 4172726F 		.ascii	"Arrow_Module2\000"
 4668      775F4D6F 
 4668      64756C65 
 4668      3200
 4669              	.LASF232:
 4670 0071 4172726F 		.ascii	"Arrow_Module3\000"
 4670      775F4D6F 
 4670      64756C65 
 4670      3300
 4671              	.LASF233:
 4672 007f 4172726F 		.ascii	"Arrow_Module4\000"
 4672      775F4D6F 
 4672      64756C65 
 4672      3400
 4673              	.LASF234:
 4674 008d 4172726F 		.ascii	"Arrow_Module5\000"
 4674      775F4D6F 
 4674      64756C65 
 4674      3500
 4675              	.LASF235:
 4676 009b 4172726F 		.ascii	"Arrow_Module6\000"
 4676      775F4D6F 
 4676      64756C65 
 4676      3600
 4677              	.LASF236:
ARM GAS  C:\Users\MARTHN~1\AppData\Local\Temp\ccXSjyDl.s 			page 108


 4678 00a9 4172726F 		.ascii	"Arrow_Module7\000"
 4678      775F4D6F 
 4678      64756C65 
 4678      3700
 4679              	.LASF237:
 4680 00b7 4172726F 		.ascii	"Arrow_Module8\000"
 4680      775F4D6F 
 4680      64756C65 
 4680      3800
 4681              	.LASF238:
 4682 00c5 4172726F 		.ascii	"Arrow_Module9\000"
 4682      775F4D6F 
 4682      64756C65 
 4682      3900
 4683              	.LASF266:
 4684 00d3 414D5031 		.ascii	"AMP1\000"
 4684      00
 4685              	.LASF267:
 4686 00d8 414D5032 		.ascii	"AMP2\000"
 4686      00
 4687              	.LASF271:
 4688 00dd 52656C61 		.ascii	"RelayTestStatus_display\000"
 4688      79546573 
 4688      74537461 
 4688      7475735F 
 4688      64697370 
 4689              	.LASF239:
 4690 00f5 4172726F 		.ascii	"Arrow_Module10\000"
 4690      775F4D6F 
 4690      64756C65 
 4690      313000
 4691              	.LASF277:
 4692 0104 6465626F 		.ascii	"debouncetrue\000"
 4692      756E6365 
 4692      74727565 
 4692      00
 4693              	.LASF58:
 4694 0111 4C45445F 		.ascii	"LED_11_R\000"
 4694      31315F52 
 4694      00
 4695              	.LASF264:
 4696 011a 424C4F43 		.ascii	"BLOCK_CURRENTS\000"
 4696      4B5F4355 
 4696      5252454E 
 4696      545300
 4697              	.LASF86:
 4698 0129 4C45445F 		.ascii	"LED_02_G\000"
 4698      30325F47 
 4698      00
 4699              	.LASF115:
 4700 0132 4F757470 		.ascii	"Outputs_25to32\000"
 4700      7574735F 
 4700      3235746F 
 4700      333200
 4701              	.LASF297:
 4702 0141 50425F4E 		.ascii	"PB_NextAction_Pressed\000"
 4702      65787441 
ARM GAS  C:\Users\MARTHN~1\AppData\Local\Temp\ccXSjyDl.s 			page 109


 4702      6374696F 
 4702      6E5F5072 
 4702      65737365 
 4703              	.LASF72:
 4704 0157 4C45445F 		.ascii	"LED_07_B\000"
 4704      30375F42 
 4704      00
 4705              	.LASF71:
 4706 0160 4C45445F 		.ascii	"LED_07_G\000"
 4706      30375F47 
 4706      00
 4707              	.LASF249:
 4708 0169 52544553 		.ascii	"RTEST_SIREN\000"
 4708      545F5349 
 4708      52454E00 
 4709              	.LASF70:
 4710 0175 4C45445F 		.ascii	"LED_07_R\000"
 4710      30375F52 
 4710      00
 4711              	.LASF130:
 4712 017e 464C425F 		.ascii	"FLB_Module1\000"
 4712      4D6F6475 
 4712      6C653100 
 4713              	.LASF131:
 4714 018a 464C425F 		.ascii	"FLB_Module2\000"
 4714      4D6F6475 
 4714      6C653200 
 4715              	.LASF132:
 4716 0196 464C425F 		.ascii	"FLB_Module3\000"
 4716      4D6F6475 
 4716      6C653300 
 4717              	.LASF94:
 4718 01a2 636F6E74 		.ascii	"controllerSpeakerEnable\000"
 4718      726F6C6C 
 4718      65725370 
 4718      65616B65 
 4718      72456E61 
 4719              	.LASF134:
 4720 01ba 464C425F 		.ascii	"FLB_Module5\000"
 4720      4D6F6475 
 4720      6C653500 
 4721              	.LASF135:
 4722 01c6 464C425F 		.ascii	"FLB_Module6\000"
 4722      4D6F6475 
 4722      6C653600 
 4723              	.LASF136:
 4724 01d2 464C425F 		.ascii	"FLB_Module7\000"
 4724      4D6F6475 
 4724      6C653700 
 4725              	.LASF137:
 4726 01de 464C425F 		.ascii	"FLB_Module8\000"
 4726      4D6F6475 
 4726      6C653800 
 4727              	.LASF138:
 4728 01ea 464C425F 		.ascii	"FLB_Module9\000"
 4728      4D6F6475 
 4728      6C653900 
ARM GAS  C:\Users\MARTHN~1\AppData\Local\Temp\ccXSjyDl.s 			page 110


 4729              	.LASF108:
 4730 01f6 53746F70 		.ascii	"StopByte1_Siren\000"
 4730      42797465 
 4730      315F5369 
 4730      72656E00 
 4731              	.LASF190:
 4732 0206 4C533830 		.ascii	"LS800_Module1\000"
 4732      305F4D6F 
 4732      64756C65 
 4732      3100
 4733              	.LASF191:
 4734 0214 4C533830 		.ascii	"LS800_Module2\000"
 4734      305F4D6F 
 4734      64756C65 
 4734      3200
 4735              	.LASF192:
 4736 0222 4C533830 		.ascii	"LS800_Module3\000"
 4736      305F4D6F 
 4736      64756C65 
 4736      3300
 4737              	.LASF193:
 4738 0230 4C533830 		.ascii	"LS800_Module4\000"
 4738      305F4D6F 
 4738      64756C65 
 4738      3400
 4739              	.LASF194:
 4740 023e 4C533830 		.ascii	"LS800_Module5\000"
 4740      305F4D6F 
 4740      64756C65 
 4740      3500
 4741              	.LASF195:
 4742 024c 4C533830 		.ascii	"LS800_Module6\000"
 4742      305F4D6F 
 4742      64756C65 
 4742      3600
 4743              	.LASF196:
 4744 025a 4C533830 		.ascii	"LS800_Module7\000"
 4744      305F4D6F 
 4744      64756C65 
 4744      3700
 4745              	.LASF197:
 4746 0268 4C533830 		.ascii	"LS800_Module8\000"
 4746      305F4D6F 
 4746      64756C65 
 4746      3800
 4747              	.LASF198:
 4748 0276 4C533830 		.ascii	"LS800_Module9\000"
 4748      305F4D6F 
 4748      64756C65 
 4748      3900
 4749              	.LASF110:
 4750 0284 53746172 		.ascii	"StartByte1_Relay\000"
 4750      74427974 
 4750      65315F52 
 4750      656C6179 
 4750      00
 4751              	.LASF24:
ARM GAS  C:\Users\MARTHN~1\AppData\Local\Temp\ccXSjyDl.s 			page 111


 4752 0295 426C6F63 		.ascii	"BlockCurrent_1\000"
 4752      6B437572 
 4752      72656E74 
 4752      5F3100
 4753              	.LASF25:
 4754 02a4 426C6F63 		.ascii	"BlockCurrent_2\000"
 4754      6B437572 
 4754      72656E74 
 4754      5F3200
 4755              	.LASF26:
 4756 02b3 426C6F63 		.ascii	"BlockCurrent_3\000"
 4756      6B437572 
 4756      72656E74 
 4756      5F3300
 4757              	.LASF27:
 4758 02c2 426C6F63 		.ascii	"BlockCurrent_4\000"
 4758      6B437572 
 4758      72656E74 
 4758      5F3400
 4759              	.LASF269:
 4760 02d1 4F564552 		.ascii	"OVERLOAD\000"
 4760      4C4F4144 
 4760      00
 4761              	.LASF93:
 4762 02da 53637265 		.ascii	"ScreenBrightness\000"
 4762      656E4272 
 4762      69676874 
 4762      6E657373 
 4762      00
 4763              	.LASF294:
 4764 02eb 70547850 		.ascii	"pTxPacket_Quad\000"
 4764      61636B65 
 4764      745F5175 
 4764      616400
 4765              	.LASF107:
 4766 02fa 4475616C 		.ascii	"DualDelay\000"
 4766      44656C61 
 4766      7900
 4767              	.LASF242:
 4768 0304 43544553 		.ascii	"CTEST_OBDII_TX\000"
 4768      545F4F42 
 4768      4449495F 
 4768      545800
 4769              	.LASF258:
 4770 0313 494E4954 		.ascii	"INITIALIZE_TEST\000"
 4770      49414C49 
 4770      5A455F54 
 4770      45535400 
 4771              	.LASF79:
 4772 0323 4C45445F 		.ascii	"LED_04_R\000"
 4772      30345F52 
 4772      00
 4773              	.LASF181:
 4774 032c 4C533630 		.ascii	"LS600_Module2\000"
 4774      305F4D6F 
 4774      64756C65 
 4774      3200
ARM GAS  C:\Users\MARTHN~1\AppData\Local\Temp\ccXSjyDl.s 			page 112


 4775              	.LASF182:
 4776 033a 4C533630 		.ascii	"LS600_Module3\000"
 4776      305F4D6F 
 4776      64756C65 
 4776      3300
 4777              	.LASF183:
 4778 0348 4C533630 		.ascii	"LS600_Module4\000"
 4778      305F4D6F 
 4778      64756C65 
 4778      3400
 4779              	.LASF184:
 4780 0356 4C533630 		.ascii	"LS600_Module5\000"
 4780      305F4D6F 
 4780      64756C65 
 4780      3500
 4781              	.LASF4:
 4782 0364 6C6F6E67 		.ascii	"long int\000"
 4782      20696E74 
 4782      00
 4783              	.LASF186:
 4784 036d 4C533630 		.ascii	"LS600_Module7\000"
 4784      305F4D6F 
 4784      64756C65 
 4784      3700
 4785              	.LASF187:
 4786 037b 4C533630 		.ascii	"LS600_Module8\000"
 4786      305F4D6F 
 4786      64756C65 
 4786      3800
 4787              	.LASF188:
 4788 0389 4C533630 		.ascii	"LS600_Module9\000"
 4788      305F4D6F 
 4788      64756C65 
 4788      3900
 4789              	.LASF98:
 4790 0397 57697265 		.ascii	"WireActivation1\000"
 4790      41637469 
 4790      76617469 
 4790      6F6E3100 
 4791              	.LASF99:
 4792 03a7 57697265 		.ascii	"WireActivation2\000"
 4792      41637469 
 4792      76617469 
 4792      6F6E3200 
 4793              	.LASF100:
 4794 03b7 57697265 		.ascii	"WireActivation3\000"
 4794      41637469 
 4794      76617469 
 4794      6F6E3300 
 4795              	.LASF281:
 4796 03c7 52546573 		.ascii	"RTest_Complete_50ms_isr\000"
 4796      745F436F 
 4796      6D706C65 
 4796      74655F35 
 4796      306D735F 
 4797              	.LASF180:
 4798 03df 534D5F5A 		.ascii	"SM_ZoneAddress\000"
ARM GAS  C:\Users\MARTHN~1\AppData\Local\Temp\ccXSjyDl.s 			page 113


 4798      6F6E6541 
 4798      64647265 
 4798      737300
 4799              	.LASF63:
 4800 03ee 4C45445F 		.ascii	"LED_10_B\000"
 4800      31305F42 
 4800      00
 4801              	.LASF62:
 4802 03f7 4C45445F 		.ascii	"LED_10_G\000"
 4802      31305F47 
 4802      00
 4803              	.LASF48:
 4804 0400 4C45445F 		.ascii	"LED_15_B\000"
 4804      31355F42 
 4804      00
 4805              	.LASF47:
 4806 0409 4C45445F 		.ascii	"LED_15_G\000"
 4806      31355F47 
 4806      00
 4807              	.LASF128:
 4808 0412 72784461 		.ascii	"rxData_Quad\000"
 4808      74615F51 
 4808      75616400 
 4809              	.LASF46:
 4810 041e 4C45445F 		.ascii	"LED_15_R\000"
 4810      31355F52 
 4810      00
 4811              	.LASF111:
 4812 0427 52656C61 		.ascii	"Relay_PacketType\000"
 4812      795F5061 
 4812      636B6574 
 4812      54797065 
 4812      00
 4813              	.LASF0:
 4814 0438 7369676E 		.ascii	"signed char\000"
 4814      65642063 
 4814      68617200 
 4815              	.LASF305:
 4816 0444 52656C61 		.ascii	"RelayTest_Complete.c\000"
 4816      79546573 
 4816      745F436F 
 4816      6D706C65 
 4816      74652E63 
 4817              	.LASF209:
 4818 0459 52656172 		.ascii	"RearILB_Module10\000"
 4818      494C425F 
 4818      4D6F6475 
 4818      6C653130 
 4818      00
 4819              	.LASF127:
 4820 046a 5061636B 		.ascii	"Packet_H\000"
 4820      65745F48 
 4820      00
 4821              	.LASF38:
 4822 0473 63686563 		.ascii	"checkSum\000"
 4822      6B53756D 
 4822      00
ARM GAS  C:\Users\MARTHN~1\AppData\Local\Temp\ccXSjyDl.s 			page 114


 4823              	.LASF40:
 4824 047c 5061796C 		.ascii	"Payload\000"
 4824      6F616400 
 4825              	.LASF289:
 4826 0484 74785061 		.ascii	"txPacket_H\000"
 4826      636B6574 
 4826      5F4800
 4827              	.LASF1:
 4828 048f 756E7369 		.ascii	"unsigned char\000"
 4828      676E6564 
 4828      20636861 
 4828      7200
 4829              	.LASF104:
 4830 049d 53697265 		.ascii	"Siren_PacketType\000"
 4830      6E5F5061 
 4830      636B6574 
 4830      54797065 
 4830      00
 4831              	.LASF250:
 4832 04ae 53544553 		.ascii	"STEST_RELAY\000"
 4832      545F5245 
 4832      4C415900 
 4833              	.LASF306:
 4834 04ba 433A5C55 		.ascii	"C:\\Users\\marthnick\\Desktop\\firm_F1-TestFixture\\"
 4834      73657273 
 4834      5C6D6172 
 4834      74686E69 
 4834      636B5C44 
 4835 04e9 46312D54 		.ascii	"F1-TestFixture.cydsn\000"
 4835      65737446 
 4835      69787475 
 4835      72652E63 
 4835      7964736E 
 4836              	.LASF202:
 4837 04fe 52656172 		.ascii	"RearILB_Module3\000"
 4837      494C425F 
 4837      4D6F6475 
 4837      6C653300 
 4838              	.LASF280:
 4839 050e 52546573 		.ascii	"RTest_Complete_20ms_isr\000"
 4839      745F436F 
 4839      6D706C65 
 4839      74655F32 
 4839      306D735F 
 4840              	.LASF39:
 4841 0526 62797465 		.ascii	"bytes\000"
 4841      7300
 4842              	.LASF15:
 4843 052c 63686172 		.ascii	"char\000"
 4843      00
 4844              	.LASF112:
 4845 0531 4F757470 		.ascii	"Outputs_1to8\000"
 4845      7574735F 
 4845      31746F38 
 4845      00
 4846              	.LASF299:
 4847 053e 52546573 		.ascii	"RTest_Complete_TimeoutCount\000"
ARM GAS  C:\Users\MARTHN~1\AppData\Local\Temp\ccXSjyDl.s 			page 115


 4847      745F436F 
 4847      6D706C65 
 4847      74655F54 
 4847      696D656F 
 4848              	.LASF84:
 4849 055a 4C45445F 		.ascii	"LED_03_B\000"
 4849      30335F42 
 4849      00
 4850              	.LASF83:
 4851 0563 4C45445F 		.ascii	"LED_03_G\000"
 4851      30335F47 
 4851      00
 4852              	.LASF113:
 4853 056c 4F757470 		.ascii	"Outputs_9to16\000"
 4853      7574735F 
 4853      39746F31 
 4853      3600
 4854              	.LASF69:
 4855 057a 4C45445F 		.ascii	"LED_08_B\000"
 4855      30385F42 
 4855      00
 4856              	.LASF68:
 4857 0583 4C45445F 		.ascii	"LED_08_G\000"
 4857      30385F47 
 4857      00
 4858              	.LASF67:
 4859 058c 4C45445F 		.ascii	"LED_08_R\000"
 4859      30385F52 
 4859      00
 4860              	.LASF288:
 4861 0595 70547850 		.ascii	"pTxPacket_RelaySiren\000"
 4861      61636B65 
 4861      745F5265 
 4861      6C617953 
 4861      6972656E 
 4862              	.LASF262:
 4863 05aa 494E5055 		.ascii	"INPUTS\000"
 4863      545300
 4864              	.LASF103:
 4865 05b1 53746172 		.ascii	"StartByte1_Siren\000"
 4865      74427974 
 4865      65315F53 
 4865      6972656E 
 4865      00
 4866              	.LASF87:
 4867 05c2 4C45445F 		.ascii	"LED_02_B\000"
 4867      30325F42 
 4867      00
 4868              	.LASF29:
 4869 05cb 53706561 		.ascii	"Speaker1_Overcurrent\000"
 4869      6B657231 
 4869      5F4F7665 
 4869      72637572 
 4869      72656E74 
 4870              	.LASF85:
 4871 05e0 4C45445F 		.ascii	"LED_02_R\000"
 4871      30325F52 
ARM GAS  C:\Users\MARTHN~1\AppData\Local\Temp\ccXSjyDl.s 			page 116


 4871      00
 4872              	.LASF270:
 4873 05e9 50415353 		.ascii	"PASS\000"
 4873      00
 4874              	.LASF102:
 4875 05ee 53746F70 		.ascii	"StopByte2_FLB\000"
 4875      42797465 
 4875      325F464C 
 4875      4200
 4876              	.LASF276:
 4877 05fc 50425F4E 		.ascii	"PB_NextAction_prevstate\000"
 4877      65787441 
 4877      6374696F 
 4877      6E5F7072 
 4877      65767374 
 4878              	.LASF139:
 4879 0614 464C425F 		.ascii	"FLB_Module10\000"
 4879      4D6F6475 
 4879      6C653130 
 4879      00
 4880              	.LASF140:
 4881 0621 464C425F 		.ascii	"FLB_Module11\000"
 4881      4D6F6475 
 4881      6C653131 
 4881      00
 4882              	.LASF141:
 4883 062e 464C425F 		.ascii	"FLB_Module12\000"
 4883      4D6F6475 
 4883      6C653132 
 4883      00
 4884              	.LASF142:
 4885 063b 464C425F 		.ascii	"FLB_Module13\000"
 4885      4D6F6475 
 4885      6C653133 
 4885      00
 4886              	.LASF143:
 4887 0648 464C425F 		.ascii	"FLB_Module14\000"
 4887      4D6F6475 
 4887      6C653134 
 4887      00
 4888              	.LASF144:
 4889 0655 464C425F 		.ascii	"FLB_Module15\000"
 4889      4D6F6475 
 4889      6C653135 
 4889      00
 4890              	.LASF145:
 4891 0662 464C425F 		.ascii	"FLB_Module16\000"
 4891      4D6F6475 
 4891      6C653136 
 4891      00
 4892              	.LASF146:
 4893 066f 464C425F 		.ascii	"FLB_Module17\000"
 4893      4D6F6475 
 4893      6C653137 
 4893      00
 4894              	.LASF147:
 4895 067c 464C425F 		.ascii	"FLB_Module18\000"
ARM GAS  C:\Users\MARTHN~1\AppData\Local\Temp\ccXSjyDl.s 			page 117


 4895      4D6F6475 
 4895      6C653138 
 4895      00
 4896              	.LASF148:
 4897 0689 464C425F 		.ascii	"FLB_Module19\000"
 4897      4D6F6475 
 4897      6C653139 
 4897      00
 4898              	.LASF97:
 4899 0696 464C425F 		.ascii	"FLB_PacketType\000"
 4899      5061636B 
 4899      65745479 
 4899      706500
 4900              	.LASF60:
 4901 06a5 4C45445F 		.ascii	"LED_11_B\000"
 4901      31315F42 
 4901      00
 4902              	.LASF109:
 4903 06ae 53746F70 		.ascii	"StopByte2_Siren\000"
 4903      42797465 
 4903      325F5369 
 4903      72656E00 
 4904              	.LASF59:
 4905 06be 4C45445F 		.ascii	"LED_11_G\000"
 4905      31315F47 
 4905      00
 4906              	.LASF45:
 4907 06c7 4C45445F 		.ascii	"LED_16_B\000"
 4907      31365F42 
 4907      00
 4908              	.LASF44:
 4909 06d0 4C45445F 		.ascii	"LED_16_G\000"
 4909      31365F47 
 4909      00
 4910              	.LASF287:
 4911 06d9 70527850 		.ascii	"pRxPacket_RelaySiren\000"
 4911      61636B65 
 4911      745F5265 
 4911      6C617953 
 4911      6972656E 
 4912              	.LASF43:
 4913 06ee 4C45445F 		.ascii	"LED_16_R\000"
 4913      31365F52 
 4913      00
 4914              	.LASF149:
 4915 06f7 464C425F 		.ascii	"FLB_Module20\000"
 4915      4D6F6475 
 4915      6C653230 
 4915      00
 4916              	.LASF150:
 4917 0704 464C425F 		.ascii	"FLB_Module21\000"
 4917      4D6F6475 
 4917      6C653231 
 4917      00
 4918              	.LASF151:
 4919 0711 464C425F 		.ascii	"FLB_Module22\000"
 4919      4D6F6475 
ARM GAS  C:\Users\MARTHN~1\AppData\Local\Temp\ccXSjyDl.s 			page 118


 4919      6C653232 
 4919      00
 4920              	.LASF152:
 4921 071e 464C425F 		.ascii	"FLB_Module23\000"
 4921      4D6F6475 
 4921      6C653233 
 4921      00
 4922              	.LASF153:
 4923 072b 464C425F 		.ascii	"FLB_Module24\000"
 4923      4D6F6475 
 4923      6C653234 
 4923      00
 4924              	.LASF154:
 4925 0738 464C425F 		.ascii	"FLB_Module25\000"
 4925      4D6F6475 
 4925      6C653235 
 4925      00
 4926              	.LASF155:
 4927 0745 464C425F 		.ascii	"FLB_Module26\000"
 4927      4D6F6475 
 4927      6C653236 
 4927      00
 4928              	.LASF156:
 4929 0752 464C425F 		.ascii	"FLB_Module27\000"
 4929      4D6F6475 
 4929      6C653237 
 4929      00
 4930              	.LASF157:
 4931 075f 464C425F 		.ascii	"FLB_Module28\000"
 4931      4D6F6475 
 4931      6C653238 
 4931      00
 4932              	.LASF158:
 4933 076c 464C425F 		.ascii	"FLB_Module29\000"
 4933      4D6F6475 
 4933      6C653239 
 4933      00
 4934              	.LASF210:
 4935 0779 526F636B 		.ascii	"RockLeft_Module1\000"
 4935      4C656674 
 4935      5F4D6F64 
 4935      756C6531 
 4935      00
 4936              	.LASF211:
 4937 078a 526F636B 		.ascii	"RockLeft_Module2\000"
 4937      4C656674 
 4937      5F4D6F64 
 4937      756C6532 
 4937      00
 4938              	.LASF212:
 4939 079b 526F636B 		.ascii	"RockLeft_Module3\000"
 4939      4C656674 
 4939      5F4D6F64 
 4939      756C6533 
 4939      00
 4940              	.LASF213:
 4941 07ac 526F636B 		.ascii	"RockLeft_Module4\000"
ARM GAS  C:\Users\MARTHN~1\AppData\Local\Temp\ccXSjyDl.s 			page 119


 4941      4C656674 
 4941      5F4D6F64 
 4941      756C6534 
 4941      00
 4942              	.LASF214:
 4943 07bd 526F636B 		.ascii	"RockLeft_Module5\000"
 4943      4C656674 
 4943      5F4D6F64 
 4943      756C6535 
 4943      00
 4944              	.LASF215:
 4945 07ce 526F636B 		.ascii	"RockLeft_Module6\000"
 4945      4C656674 
 4945      5F4D6F64 
 4945      756C6536 
 4945      00
 4946              	.LASF216:
 4947 07df 526F636B 		.ascii	"RockLeft_Module7\000"
 4947      4C656674 
 4947      5F4D6F64 
 4947      756C6537 
 4947      00
 4948              	.LASF217:
 4949 07f0 526F636B 		.ascii	"RockLeft_Module8\000"
 4949      4C656674 
 4949      5F4D6F64 
 4949      756C6538 
 4949      00
 4950              	.LASF218:
 4951 0801 526F636B 		.ascii	"RockLeft_Module9\000"
 4951      4C656674 
 4951      5F4D6F64 
 4951      756C6539 
 4951      00
 4952              	.LASF252:
 4953 0812 52544553 		.ascii	"RTEST_DLINK\000"
 4953      545F444C 
 4953      494E4B00 
 4954              	.LASF282:
 4955 081e 52546573 		.ascii	"RTest_Complete_StartAutomatedStep\000"
 4955      745F436F 
 4955      6D706C65 
 4955      74655F53 
 4955      74617274 
 4956              	.LASF5:
 4957 0840 6C6F6E67 		.ascii	"long unsigned int\000"
 4957      20756E73 
 4957      69676E65 
 4957      6420696E 
 4957      7400
 4958              	.LASF298:
 4959 0852 50425F4E 		.ascii	"PB_NextAction_Released\000"
 4959      65787441 
 4959      6374696F 
 4959      6E5F5265 
 4959      6C656173 
 4960              	.LASF18:
ARM GAS  C:\Users\MARTHN~1\AppData\Local\Temp\ccXSjyDl.s 			page 120


 4961 0869 53656C65 		.ascii	"SelectedTest\000"
 4961      63746564 
 4961      54657374 
 4961      00
 4962              	.LASF295:
 4963 0876 52546573 		.ascii	"RTest_Complete_20ms_isr_count\000"
 4963      745F436F 
 4963      6D706C65 
 4963      74655F32 
 4963      306D735F 
 4964              	.LASF159:
 4965 0894 464C425F 		.ascii	"FLB_Module30\000"
 4965      4D6F6475 
 4965      6C653330 
 4965      00
 4966              	.LASF106:
 4967 08a1 53697265 		.ascii	"Siren2Tone\000"
 4967      6E32546F 
 4967      6E6500
 4968              	.LASF171:
 4969 08ac 46726F6E 		.ascii	"FrontILB_Module2\000"
 4969      74494C42 
 4969      5F4D6F64 
 4969      756C6532 
 4969      00
 4970              	.LASF172:
 4971 08bd 46726F6E 		.ascii	"FrontILB_Module3\000"
 4971      74494C42 
 4971      5F4D6F64 
 4971      756C6533 
 4971      00
 4972              	.LASF173:
 4973 08ce 46726F6E 		.ascii	"FrontILB_Module4\000"
 4973      74494C42 
 4973      5F4D6F64 
 4973      756C6534 
 4973      00
 4974              	.LASF174:
 4975 08df 46726F6E 		.ascii	"FrontILB_Module5\000"
 4975      74494C42 
 4975      5F4D6F64 
 4975      756C6535 
 4975      00
 4976              	.LASF175:
 4977 08f0 46726F6E 		.ascii	"FrontILB_Module6\000"
 4977      74494C42 
 4977      5F4D6F64 
 4977      756C6536 
 4977      00
 4978              	.LASF176:
 4979 0901 46726F6E 		.ascii	"FrontILB_Module7\000"
 4979      74494C42 
 4979      5F4D6F64 
 4979      756C6537 
 4979      00
 4980              	.LASF177:
 4981 0912 46726F6E 		.ascii	"FrontILB_Module8\000"
ARM GAS  C:\Users\MARTHN~1\AppData\Local\Temp\ccXSjyDl.s 			page 121


 4981      74494C42 
 4981      5F4D6F64 
 4981      756C6538 
 4981      00
 4982              	.LASF178:
 4983 0923 46726F6E 		.ascii	"FrontILB_Module9\000"
 4983      74494C42 
 4983      5F4D6F64 
 4983      756C6539 
 4983      00
 4984              	.LASF296:
 4985 0934 52546573 		.ascii	"RTest_Complete_20ms_isr_EN\000"
 4985      745F436F 
 4985      6D706C65 
 4985      74655F32 
 4985      306D735F 
 4986              	.LASF308:
 4987 094f 52546573 		.ascii	"RTest_Complete_Test_DataLink\000"
 4987      745F436F 
 4987      6D706C65 
 4987      74655F54 
 4987      6573745F 
 4988              	.LASF256:
 4989 096c 43544553 		.ascii	"CTEST_USB_DEBUG\000"
 4989      545F5553 
 4989      425F4445 
 4989      42554700 
 4990              	.LASF307:
 4991 097c 52656C61 		.ascii	"RelayTest_Complete\000"
 4991      79546573 
 4991      745F436F 
 4991      6D706C65 
 4991      746500
 4992              	.LASF304:
 4993 098f 474E5520 		.ascii	"GNU C11 5.4.1 20160609 (release) [ARM/embedded-5-br"
 4993      43313120 
 4993      352E342E 
 4993      31203230 
 4993      31363036 
 4994 09c2 616E6368 		.ascii	"anch revision 237715] -mcpu=cortex-m3 -mthumb -g -O"
 4994      20726576 
 4994      6973696F 
 4994      6E203233 
 4994      37373135 
 4995 09f5 30202D66 		.ascii	"0 -ffunction-sections -ffat-lto-objects\000"
 4995      66756E63 
 4995      74696F6E 
 4995      2D736563 
 4995      74696F6E 
 4996              	.LASF19:
 4997 0a1d 54657374 		.ascii	"TestStep\000"
 4997      53746570 
 4997      00
 4998              	.LASF263:
 4999 0a26 56424154 		.ascii	"VBATT\000"
 4999      5400
 5000              	.LASF81:
ARM GAS  C:\Users\MARTHN~1\AppData\Local\Temp\ccXSjyDl.s 			page 122


 5001 0a2c 4C45445F 		.ascii	"LED_04_B\000"
 5001      30345F42 
 5001      00
 5002              	.LASF20:
 5003 0a35 53746174 		.ascii	"Status\000"
 5003      757300
 5004              	.LASF80:
 5005 0a3c 4C45445F 		.ascii	"LED_04_G\000"
 5005      30345F47 
 5005      00
 5006              	.LASF66:
 5007 0a45 4C45445F 		.ascii	"LED_09_B\000"
 5007      30395F42 
 5007      00
 5008              	.LASF65:
 5009 0a4e 4C45445F 		.ascii	"LED_09_G\000"
 5009      30395F47 
 5009      00
 5010              	.LASF6:
 5011 0a57 6C6F6E67 		.ascii	"long long int\000"
 5011      206C6F6E 
 5011      6720696E 
 5011      7400
 5012              	.LASF64:
 5013 0a65 4C45445F 		.ascii	"LED_09_R\000"
 5013      30395F52 
 5013      00
 5014              	.LASF118:
 5015 0a6e 53697265 		.ascii	"SirenEnable\000"
 5015      6E456E61 
 5015      626C6500 
 5016              	.LASF101:
 5017 0a7a 53746F70 		.ascii	"StopByte1_FLB\000"
 5017      42797465 
 5017      315F464C 
 5017      4200
 5018              	.LASF121:
 5019 0a88 43686563 		.ascii	"Checksum_Relay\000"
 5019      6B73756D 
 5019      5F52656C 
 5019      617900
 5020              	.LASF14:
 5021 0a97 646F7562 		.ascii	"double\000"
 5021      6C6500
 5022              	.LASF243:
 5023 0a9e 52544553 		.ascii	"RTEST_QUAD_TX\000"
 5023      545F5155 
 5023      41445F54 
 5023      5800
 5024              	.LASF185:
 5025 0aac 4C533630 		.ascii	"LS600_Module6\000"
 5025      305F4D6F 
 5025      64756C65 
 5025      3600
 5026              	.LASF301:
 5027 0aba 49544D5F 		.ascii	"ITM_RxBuffer\000"
 5027      52784275 
ARM GAS  C:\Users\MARTHN~1\AppData\Local\Temp\ccXSjyDl.s 			page 123


 5027      66666572 
 5027      00
 5028              	.LASF13:
 5029 0ac7 666C6F61 		.ascii	"float\000"
 5029      7400
 5030              	.LASF275:
 5031 0acd 50425F4E 		.ascii	"PB_NextAction_failcount\000"
 5031      65787441 
 5031      6374696F 
 5031      6E5F6661 
 5031      696C636F 
 5032              	.LASF261:
 5033 0ae5 51554144 		.ascii	"QUAD_PORTS\000"
 5033      5F504F52 
 5033      545300
 5034              	.LASF22:
 5035 0af0 73747275 		.ascii	"structTestInfo\000"
 5035      63745465 
 5035      7374496E 
 5035      666F00
 5036              	.LASF8:
 5037 0aff 756E7369 		.ascii	"unsigned int\000"
 5037      676E6564 
 5037      20696E74 
 5037      00
 5038              	.LASF32:
 5039 0b0c 53697265 		.ascii	"SirenFirm_0\000"
 5039      6E466972 
 5039      6D5F3000 
 5040              	.LASF33:
 5041 0b18 53697265 		.ascii	"SirenFirm_1\000"
 5041      6E466972 
 5041      6D5F3100 
 5042              	.LASF34:
 5043 0b24 53697265 		.ascii	"SirenFirm_2\000"
 5043      6E466972 
 5043      6D5F3200 
 5044              	.LASF291:
 5045 0b30 72785061 		.ascii	"rxPacket_H\000"
 5045      636B6574 
 5045      5F4800
 5046              	.LASF57:
 5047 0b3b 4C45445F 		.ascii	"LED_12_B\000"
 5047      31325F42 
 5047      00
 5048              	.LASF244:
 5049 0b44 53544553 		.ascii	"STEST_AUDIO_TX\000"
 5049      545F4155 
 5049      44494F5F 
 5049      545800
 5050              	.LASF56:
 5051 0b53 4C45445F 		.ascii	"LED_12_G\000"
 5051      31325F47 
 5051      00
 5052              	.LASF165:
 5053 0b5c 4C533430 		.ascii	"LS400_Module6\000"
 5053      305F4D6F 
ARM GAS  C:\Users\MARTHN~1\AppData\Local\Temp\ccXSjyDl.s 			page 124


 5053      64756C65 
 5053      3600
 5054              	.LASF55:
 5055 0b6a 4C45445F 		.ascii	"LED_12_R\000"
 5055      31325F52 
 5055      00
 5056              	.LASF105:
 5057 0b73 53697265 		.ascii	"Siren1Tone\000"
 5057      6E31546F 
 5057      6E6500
 5058              	.LASF279:
 5059 0b7e 50425F72 		.ascii	"PB_reading_previous\000"
 5059      65616469 
 5059      6E675F70 
 5059      72657669 
 5059      6F757300 
 5060              	.LASF95:
 5061 0b92 636F6E74 		.ascii	"controllerPowerState\000"
 5061      726F6C6C 
 5061      6572506F 
 5061      77657253 
 5061      74617465 
 5062              	.LASF284:
 5063 0ba7 52546573 		.ascii	"RTest_Complete_PB_WaitForAction\000"
 5063      745F436F 
 5063      6D706C65 
 5063      74655F50 
 5063      425F5761 
 5064              	.LASF253:
 5065 0bc7 4D55585F 		.ascii	"MUX_115200_CHANNEL\000"
 5065      31313532 
 5065      30305F43 
 5065      48414E4E 
 5065      454C00
 5066              	.LASF28:
 5067 0bda 566F6C74 		.ascii	"Voltage_BATT\000"
 5067      6167655F 
 5067      42415454 
 5067      00
 5068              	.LASF116:
 5069 0be7 48694C6F 		.ascii	"HiLoInputLogic\000"
 5069      496E7075 
 5069      744C6F67 
 5069      696300
 5070              	.LASF16:
 5071 0bf6 6C6F6E67 		.ascii	"long double\000"
 5071      20646F75 
 5071      626C6500 
 5072              	.LASF290:
 5073 0c02 70547850 		.ascii	"pTxPacket_H\000"
 5073      61636B65 
 5073      745F4800 
 5074              	.LASF245:
 5075 0c0e 44454D55 		.ascii	"DEMUX_460800_CHANNEL\000"
 5075      585F3436 
 5075      30383030 
 5075      5F434841 
ARM GAS  C:\Users\MARTHN~1\AppData\Local\Temp\ccXSjyDl.s 			page 125


 5075      4E4E454C 
 5076              	.LASF265:
 5077 0c23 55415254 		.ascii	"UART_TX\000"
 5077      5F545800 
 5078              	.LASF303:
 5079 0c2b 43757272 		.ascii	"CurrentTest\000"
 5079      656E7454 
 5079      65737400 
 5080              	.LASF278:
 5081 0c37 50425F72 		.ascii	"PB_reading\000"
 5081      65616469 
 5081      6E6700
 5082              	.LASF61:
 5083 0c42 4C45445F 		.ascii	"LED_10_R\000"
 5083      31305F52 
 5083      00
 5084              	.LASF240:
 5085 0c4b 72785061 		.ascii	"rxPacket_Quad\000"
 5085      636B6574 
 5085      5F517561 
 5085      6400
 5086              	.LASF160:
 5087 0c59 534D5F5A 		.ascii	"SM_Zone1\000"
 5087      6F6E6531 
 5087      00
 5088              	.LASF161:
 5089 0c62 534D5F5A 		.ascii	"SM_Zone2\000"
 5089      6F6E6532 
 5089      00
 5090              	.LASF162:
 5091 0c6b 534D5F5A 		.ascii	"SM_Zone3\000"
 5091      6F6E6533 
 5091      00
 5092              	.LASF167:
 5093 0c74 534D5F5A 		.ascii	"SM_Zone4\000"
 5093      6F6E6534 
 5093      00
 5094              	.LASF168:
 5095 0c7d 534D5F5A 		.ascii	"SM_Zone5\000"
 5095      6F6E6535 
 5095      00
 5096              	.LASF169:
 5097 0c86 534D5F5A 		.ascii	"SM_Zone6\000"
 5097      6F6E6536 
 5097      00
 5098              	.LASF170:
 5099 0c8f 534D5F5A 		.ascii	"SM_Zone7\000"
 5099      6F6E6537 
 5099      00
 5100              	.LASF179:
 5101 0c98 534D5F5A 		.ascii	"SM_Zone8\000"
 5101      6F6E6538 
 5101      00
 5102              	.LASF302:
 5103 0ca1 54657374 		.ascii	"Test\000"
 5103      00
 5104              	.LASF257:
ARM GAS  C:\Users\MARTHN~1\AppData\Local\Temp\ccXSjyDl.s 			page 126


 5105 0ca6 44494147 		.ascii	"DIAG_UART_RX\000"
 5105      5F554152 
 5105      545F5258 
 5105      00
 5106              	.LASF78:
 5107 0cb3 4C45445F 		.ascii	"LED_05_B\000"
 5107      30355F42 
 5107      00
 5108              	.LASF77:
 5109 0cbc 4C45445F 		.ascii	"LED_05_G\000"
 5109      30355F47 
 5109      00
 5110              	.LASF123:
 5111 0cc5 74785061 		.ascii	"txPacket_RelaySiren\000"
 5111      636B6574 
 5111      5F52656C 
 5111      61795369 
 5111      72656E00 
 5112              	.LASF7:
 5113 0cd9 6C6F6E67 		.ascii	"long long unsigned int\000"
 5113      206C6F6E 
 5113      6720756E 
 5113      7369676E 
 5113      65642069 
 5114              	.LASF76:
 5115 0cf0 4C45445F 		.ascii	"LED_05_R\000"
 5115      30355F52 
 5115      00
 5116              	.LASF283:
 5117 0cf9 52546573 		.ascii	"RTest_Complete_StopAutomatedStep\000"
 5117      745F436F 
 5117      6D706C65 
 5117      74655F53 
 5117      746F7041 
 5118              	.LASF31:
 5119 0d1a 52656C61 		.ascii	"RelayInputs\000"
 5119      79496E70 
 5119      75747300 
 5120              	.LASF251:
 5121 0d26 44415441 		.ascii	"DATATYPE_115200\000"
 5121      54595045 
 5121      5F313135 
 5121      32303000 
 5122              	.LASF220:
 5123 0d36 526F636B 		.ascii	"RockRight_Module1\000"
 5123      52696768 
 5123      745F4D6F 
 5123      64756C65 
 5123      3100
 5124              	.LASF221:
 5125 0d48 526F636B 		.ascii	"RockRight_Module2\000"
 5125      52696768 
 5125      745F4D6F 
 5125      64756C65 
 5125      3200
 5126              	.LASF222:
 5127 0d5a 526F636B 		.ascii	"RockRight_Module3\000"
ARM GAS  C:\Users\MARTHN~1\AppData\Local\Temp\ccXSjyDl.s 			page 127


 5127      52696768 
 5127      745F4D6F 
 5127      64756C65 
 5127      3300
 5128              	.LASF223:
 5129 0d6c 526F636B 		.ascii	"RockRight_Module4\000"
 5129      52696768 
 5129      745F4D6F 
 5129      64756C65 
 5129      3400
 5130              	.LASF224:
 5131 0d7e 526F636B 		.ascii	"RockRight_Module5\000"
 5131      52696768 
 5131      745F4D6F 
 5131      64756C65 
 5131      3500
 5132              	.LASF225:
 5133 0d90 526F636B 		.ascii	"RockRight_Module6\000"
 5133      52696768 
 5133      745F4D6F 
 5133      64756C65 
 5133      3600
 5134              	.LASF226:
 5135 0da2 526F636B 		.ascii	"RockRight_Module7\000"
 5135      52696768 
 5135      745F4D6F 
 5135      64756C65 
 5135      3700
 5136              	.LASF227:
 5137 0db4 526F636B 		.ascii	"RockRight_Module8\000"
 5137      52696768 
 5137      745F4D6F 
 5137      64756C65 
 5137      3800
 5138              	.LASF228:
 5139 0dc6 526F636B 		.ascii	"RockRight_Module9\000"
 5139      52696768 
 5139      745F4D6F 
 5139      64756C65 
 5139      3900
 5140              	.LASF82:
 5141 0dd8 4C45445F 		.ascii	"LED_03_R\000"
 5141      30335F52 
 5141      00
 5142              	.LASF129:
 5143 0de1 53697A65 		.ascii	"SizeOfPayload\000"
 5143      4F665061 
 5143      796C6F61 
 5143      6400
 5144              	.LASF241:
 5145 0def 52785061 		.ascii	"RxPacket_Quad\000"
 5145      636B6574 
 5145      5F517561 
 5145      6400
 5146              	.LASF273:
 5147 0dfd 52546573 		.ascii	"RTest_Complete_isr_PB\000"
 5147      745F436F 
ARM GAS  C:\Users\MARTHN~1\AppData\Local\Temp\ccXSjyDl.s 			page 128


 5147      6D706C65 
 5147      74655F69 
 5147      73725F50 
 5148              	.LASF124:
 5149 0e13 54785061 		.ascii	"TxPacket_RelaySiren\000"
 5149      636B6574 
 5149      5F52656C 
 5149      61795369 
 5149      72656E00 
 5150              	.LASF30:
 5151 0e27 53706561 		.ascii	"Speaker2_Overcurrent\000"
 5151      6B657232 
 5151      5F4F7665 
 5151      72637572 
 5151      72656E74 
 5152              	.LASF199:
 5153 0e3c 4C533830 		.ascii	"LS800_Module10\000"
 5153      305F4D6F 
 5153      64756C65 
 5153      313000
 5154              	.LASF122:
 5155 0e4b 72785061 		.ascii	"rxPacket_RelaySiren\000"
 5155      636B6574 
 5155      5F52656C 
 5155      61795369 
 5155      72656E00 
 5156              	.LASF274:
 5157 0e5f 50425F4E 		.ascii	"PB_NextAction_debouncecount\000"
 5157      65787441 
 5157      6374696F 
 5157      6E5F6465 
 5157      626F756E 
 5158              	.LASF54:
 5159 0e7b 4C45445F 		.ascii	"LED_13_B\000"
 5159      31335F42 
 5159      00
 5160              	.LASF53:
 5161 0e84 4C45445F 		.ascii	"LED_13_G\000"
 5161      31335F47 
 5161      00
 5162              	.LASF200:
 5163 0e8d 52656172 		.ascii	"RearILB_Module1\000"
 5163      494C425F 
 5163      4D6F6475 
 5163      6C653100 
 5164              	.LASF201:
 5165 0e9d 52656172 		.ascii	"RearILB_Module2\000"
 5165      494C425F 
 5165      4D6F6475 
 5165      6C653200 
 5166              	.LASF52:
 5167 0ead 4C45445F 		.ascii	"LED_13_R\000"
 5167      31335F52 
 5167      00
 5168              	.LASF203:
 5169 0eb6 52656172 		.ascii	"RearILB_Module4\000"
 5169      494C425F 
ARM GAS  C:\Users\MARTHN~1\AppData\Local\Temp\ccXSjyDl.s 			page 129


 5169      4D6F6475 
 5169      6C653400 
 5170              	.LASF204:
 5171 0ec6 52656172 		.ascii	"RearILB_Module5\000"
 5171      494C425F 
 5171      4D6F6475 
 5171      6C653500 
 5172              	.LASF205:
 5173 0ed6 52656172 		.ascii	"RearILB_Module6\000"
 5173      494C425F 
 5173      4D6F6475 
 5173      6C653600 
 5174              	.LASF206:
 5175 0ee6 52656172 		.ascii	"RearILB_Module7\000"
 5175      494C425F 
 5175      4D6F6475 
 5175      6C653700 
 5176              	.LASF207:
 5177 0ef6 52656172 		.ascii	"RearILB_Module8\000"
 5177      494C425F 
 5177      4D6F6475 
 5177      6C653800 
 5178              	.LASF208:
 5179 0f06 52656172 		.ascii	"RearILB_Module9\000"
 5179      494C425F 
 5179      4D6F6475 
 5179      6C653900 
 5180              	.LASF21:
 5181 0f16 53747275 		.ascii	"StructTestInfo\000"
 5181      63745465 
 5181      7374496E 
 5181      666F00
 5182              	.LASF114:
 5183 0f25 4F757470 		.ascii	"Outputs_17to24\000"
 5183      7574735F 
 5183      3137746F 
 5183      323400
 5184              	.LASF254:
 5185 0f34 52544553 		.ascii	"RTEST_DLINK1\000"
 5185      545F444C 
 5185      494E4B31 
 5185      00
 5186              	.LASF255:
 5187 0f41 52544553 		.ascii	"RTEST_DLINK2\000"
 5187      545F444C 
 5187      494E4B32 
 5187      00
 5188              	.LASF11:
 5189 0f4e 75696E74 		.ascii	"uint8\000"
 5189      3800
 5190              	.LASF260:
 5191 0f54 44415441 		.ascii	"DATALINK\000"
 5191      4C494E4B 
 5191      00
 5192              	.LASF23:
 5193 0f5d 72784461 		.ascii	"rxData_RelaySiren\000"
 5193      74615F52 
ARM GAS  C:\Users\MARTHN~1\AppData\Local\Temp\ccXSjyDl.s 			page 130


 5193      656C6179 
 5193      53697265 
 5193      6E00
 5194              	.LASF133:
 5195 0f6f 464C425F 		.ascii	"FLB_Module4\000"
 5195      4D6F6475 
 5195      6C653400 
 5196              	.LASF2:
 5197 0f7b 73686F72 		.ascii	"short int\000"
 5197      7420696E 
 5197      7400
 5198              	.LASF248:
 5199 0f85 52544553 		.ascii	"RTEST_CONT\000"
 5199      545F434F 
 5199      4E5400
 5200              	.LASF41:
 5201 0f90 52785061 		.ascii	"RxPacket_RelaySiren\000"
 5201      636B6574 
 5201      5F52656C 
 5201      61795369 
 5201      72656E00 
 5202              	.LASF293:
 5203 0fa4 74785061 		.ascii	"txPacket_Quad\000"
 5203      636B6574 
 5203      5F517561 
 5203      6400
 5204              	.LASF272:
 5205 0fb2 52546573 		.ascii	"RTest_Complete_sendDiagPacket\000"
 5205      745F436F 
 5205      6D706C65 
 5205      74655F73 
 5205      656E6444 
 5206              	.LASF163:
 5207 0fd0 4C533430 		.ascii	"LS400_Module4\000"
 5207      305F4D6F 
 5207      64756C65 
 5207      3400
 5208              	.LASF164:
 5209 0fde 4C533430 		.ascii	"LS400_Module5\000"
 5209      305F4D6F 
 5209      64756C65 
 5209      3500
 5210              	.LASF126:
 5211 0fec 7061636B 		.ascii	"packet_H\000"
 5211      65745F48 
 5211      00
 5212              	.LASF166:
 5213 0ff5 4C533430 		.ascii	"LS400_Module7\000"
 5213      305F4D6F 
 5213      64756C65 
 5213      3700
 5214              	.LASF90:
 5215 1003 4C45445F 		.ascii	"LED_01_B\000"
 5215      30315F42 
 5215      00
 5216              	.LASF89:
 5217 100c 4C45445F 		.ascii	"LED_01_G\000"
ARM GAS  C:\Users\MARTHN~1\AppData\Local\Temp\ccXSjyDl.s 			page 131


 5217      30315F47 
 5217      00
 5218              	.LASF75:
 5219 1015 4C45445F 		.ascii	"LED_06_B\000"
 5219      30365F42 
 5219      00
 5220              	.LASF74:
 5221 101e 4C45445F 		.ascii	"LED_06_G\000"
 5221      30365F47 
 5221      00
 5222              	.LASF73:
 5223 1027 4C45445F 		.ascii	"LED_06_R\000"
 5223      30365F52 
 5223      00
 5224              	.LASF42:
 5225 1030 74784461 		.ascii	"txData\000"
 5225      746100
 5226              	.LASF247:
 5227 1037 43544553 		.ascii	"CTEST_RELAY\000"
 5227      545F5245 
 5227      4C415900 
 5228              	.LASF189:
 5229 1043 4C533630 		.ascii	"LS600_Module10\000"
 5229      305F4D6F 
 5229      64756C65 
 5229      313000
 5230              	.LASF119:
 5231 1052 53746F70 		.ascii	"StopByte1_Relay\000"
 5231      42797465 
 5231      315F5265 
 5231      6C617900 
 5232              	.LASF300:
 5233 1062 52546573 		.ascii	"RTest_CompleteStatus\000"
 5233      745F436F 
 5233      6D706C65 
 5233      74655374 
 5233      61747573 
 5234              	.LASF219:
 5235 1077 526F636B 		.ascii	"RockLeft_Module10\000"
 5235      4C656674 
 5235      5F4D6F64 
 5235      756C6531 
 5235      3000
 5236              	.LASF229:
 5237 1089 526F636B 		.ascii	"RockRight_Module10\000"
 5237      52696768 
 5237      745F4D6F 
 5237      64756C65 
 5237      313000
 5238              	.LASF88:
 5239 109c 4C45445F 		.ascii	"LED_01_R\000"
 5239      30315F52 
 5239      00
 5240              	.LASF3:
 5241 10a5 73686F72 		.ascii	"short unsigned int\000"
 5241      7420756E 
 5241      7369676E 
ARM GAS  C:\Users\MARTHN~1\AppData\Local\Temp\ccXSjyDl.s 			page 132


 5241      65642069 
 5241      6E7400
 5242              	.LASF9:
 5243 10b8 5F5F696E 		.ascii	"__int32_t\000"
 5243      7433325F 
 5243      7400
 5244              	.LASF120:
 5245 10c2 53746F70 		.ascii	"StopByte2_Relay\000"
 5245      42797465 
 5245      325F5265 
 5245      6C617900 
 5246              	.LASF246:
 5247 10d2 4D55585F 		.ascii	"MUX_DEMUX_230400_CHANNEL\000"
 5247      44454D55 
 5247      585F3233 
 5247      30343030 
 5247      5F434841 
 5248              	.LASF285:
 5249 10eb 72785061 		.ascii	"rxPacket_Relay\000"
 5249      636B6574 
 5249      5F52656C 
 5249      617900
 5250              	.LASF268:
 5251 10fa 464C4153 		.ascii	"FLASH\000"
 5251      4800
 5252              	.LASF96:
 5253 1100 53746172 		.ascii	"StartByte_FLB\000"
 5253      74427974 
 5253      655F464C 
 5253      4200
 5254              	.LASF35:
 5255 110e 52656C61 		.ascii	"RelayFirm_0\000"
 5255      79466972 
 5255      6D5F3000 
 5256              	.LASF36:
 5257 111a 52656C61 		.ascii	"RelayFirm_1\000"
 5257      79466972 
 5257      6D5F3100 
 5258              	.LASF37:
 5259 1126 52656C61 		.ascii	"RelayFirm_2\000"
 5259      79466972 
 5259      6D5F3200 
 5260              	.LASF12:
 5261 1132 75696E74 		.ascii	"uint16\000"
 5261      313600
 5262              	.LASF51:
 5263 1139 4C45445F 		.ascii	"LED_14_B\000"
 5263      31345F42 
 5263      00
 5264              	.LASF50:
 5265 1142 4C45445F 		.ascii	"LED_14_G\000"
 5265      31345F47 
 5265      00
 5266              	.LASF49:
 5267 114b 4C45445F 		.ascii	"LED_14_R\000"
 5267      31345F52 
 5267      00
ARM GAS  C:\Users\MARTHN~1\AppData\Local\Temp\ccXSjyDl.s 			page 133


 5268              	.LASF91:
 5269 1154 42757A7A 		.ascii	"Buzzer_H\000"
 5269      65725F48 
 5269      00
 5270              		.ident	"GCC: (GNU Tools for ARM Embedded Processors) 5.4.1 20160609 (release) [ARM/embedded-5-bran
