ARM GAS  C:\Users\MARTHN~1\AppData\Local\Temp\ccHF3wZv.s 			page 1


   1              		.syntax unified
   2              		.cpu cortex-m3
   3              		.fpu softvfp
   4              		.eabi_attribute 20, 1
   5              		.eabi_attribute 21, 1
   6              		.eabi_attribute 23, 3
   7              		.eabi_attribute 24, 1
   8              		.eabi_attribute 25, 1
   9              		.eabi_attribute 26, 1
  10              		.eabi_attribute 30, 6
  11              		.eabi_attribute 34, 1
  12              		.eabi_attribute 18, 4
  13              		.thumb
  14              		.syntax unified
  15              		.file	"RelayTest.c"
  16              		.text
  17              	.Ltext0:
  18              		.cfi_sections	.debug_frame
  19              		.bss
  20              		.align	2
  21              	rxPacket_Relay:
  22 0000 00000000 		.space	15
  22      00000000 
  22      00000000 
  22      000000
  23 000f 00       		.align	2
  24              	pRxPacket_Relay:
  25 0010 00000000 		.space	4
  26              		.align	2
  27              	txPacket_RelaySiren:
  28 0014 00000000 		.space	79
  28      00000000 
  28      00000000 
  28      00000000 
  28      00000000 
  29 0063 00       		.align	2
  30              	pTxPacket_RelaySiren:
  31 0064 00000000 		.space	4
  32              		.align	2
  33              	rxPacket_Siren:
  34 0068 000000   		.space	3
  35 006b 00       		.align	2
  36              	pRxPacket_Siren:
  37 006c 00000000 		.space	4
  38              		.align	2
  39              	txPacket_H:
  40 0070 00000000 		.space	5
  40      00
  41 0075 000000   		.align	2
  42              	pTxPacket_H:
  43 0078 00000000 		.space	4
  44              		.align	2
  45              	rxPacket_H:
  46 007c 00000000 		.space	5
  46      00
  47 0081 000000   		.align	2
  48              	pRxPacket_H:
ARM GAS  C:\Users\MARTHN~1\AppData\Local\Temp\ccHF3wZv.s 			page 2


  49 0084 00000000 		.space	4
  50              		.align	2
  51              	txPacket_Quad:
  52 0088 00000000 		.space	111
  52      00000000 
  52      00000000 
  52      00000000 
  52      00000000 
  53 00f7 00       		.align	2
  54              	pTxPacket_Quad:
  55 00f8 00000000 		.space	4
  56              		.align	1
  57              	RTest_20ms_isr_count:
  58 00fc 0000     		.space	2
  59              		.align	1
  60              	RTest_20ms_isr_EN:
  61 00fe 0000     		.space	2
  62              		.align	2
  63              	RelayTestStatus:
  64 0100 00000000 		.space	10
  64      00000000 
  64      0000
  65              	TestState:
  66 010a 00       		.space	1
  67              		.section	.text.RelayTest,"ax",%progbits
  68              		.align	2
  69              		.global	RelayTest
  70              		.thumb
  71              		.thumb_func
  72              		.type	RelayTest, %function
  73              	RelayTest:
  74              	.LFB63:
  75              		.file 1 "RelayTest.c"
   1:RelayTest.c   **** /* ========================================
   2:RelayTest.c   ****  *
   3:RelayTest.c   ****  * Copyright YOUR COMPANY, THE YEAR
   4:RelayTest.c   ****  * All Rights Reserved
   5:RelayTest.c   ****  * UNPUBLISHED, LICENSED SOFTWARE.
   6:RelayTest.c   ****  *
   7:RelayTest.c   ****  * CONFIDENTIAL AND PROPRIETARY INFORMATION
   8:RelayTest.c   ****  * WHICH IS THE PROPERTY OF your company.
   9:RelayTest.c   ****  *
  10:RelayTest.c   ****  * ========================================
  11:RelayTest.c   **** */
  12:RelayTest.c   **** 
  13:RelayTest.c   **** #include <project.h>
  14:RelayTest.c   **** #include "RelayTest.h"
  15:RelayTest.c   **** #include "UART_115200_Functions.h"
  16:RelayTest.c   **** #include "UART_230400_Functions.h"
  17:RelayTest.c   **** #include "UART_460800_Functions.h"
  18:RelayTest.c   **** #include "CD4051BPW_Driver.h"
  19:RelayTest.c   **** 
  20:RelayTest.c   **** #define NUMBER_TEST_STEPS   10
  21:RelayTest.c   **** 
  22:RelayTest.c   **** #define VOLTAGE_SYSTEM      120             // (Voltage * 10)
  23:RelayTest.c   **** #define TOLERANCE_VOLTAGE   5  
  24:RelayTest.c   **** #define CURRENT_LOAD        9              // (ohms)
ARM GAS  C:\Users\MARTHN~1\AppData\Local\Temp\ccHF3wZv.s 			page 3


  25:RelayTest.c   **** #define TOLERANCE_CURRENT   2 
  26:RelayTest.c   **** #define TIMEOUT_FAIL        50              // Number of 20msec counts before failure timeout
  27:RelayTest.c   **** 
  28:RelayTest.c   **** static RxPacket_RelaySiren rxPacket_Relay;            
  29:RelayTest.c   **** static RxPacket_RelaySiren * pRxPacket_Relay; 
  30:RelayTest.c   **** 
  31:RelayTest.c   **** static TxPacket_RelaySiren txPacket_RelaySiren;            
  32:RelayTest.c   **** static TxPacket_RelaySiren * pTxPacket_RelaySiren;
  33:RelayTest.c   **** 
  34:RelayTest.c   **** //static TxPacket_Relay txPacket_Relay;            
  35:RelayTest.c   **** //static TxPacket_Relay * pTxPacket_Relay;
  36:RelayTest.c   **** 
  37:RelayTest.c   **** static RxPacket_Siren rxPacket_Siren;
  38:RelayTest.c   **** static RxPacket_Siren * pRxPacket_Siren;  
  39:RelayTest.c   **** 
  40:RelayTest.c   **** static Packet_H txPacket_H;          //     Packet 'H'
  41:RelayTest.c   **** static Packet_H * pTxPacket_H;      //
  42:RelayTest.c   **** 
  43:RelayTest.c   **** static Packet_H rxPacket_H;          //     Packet 'H'
  44:RelayTest.c   **** static Packet_H * pRxPacket_H;      //
  45:RelayTest.c   **** 
  46:RelayTest.c   **** static RxPacket_Quad txPacket_Quad;          //*** 
  47:RelayTest.c   **** static RxPacket_Quad * pTxPacket_Quad;      //***
  48:RelayTest.c   **** //RxPacket_Quad * getRxPacket_Quad(void);
  49:RelayTest.c   **** 
  50:RelayTest.c   **** //------------GLOABAL variables--------------------
  51:RelayTest.c   **** 
  52:RelayTest.c   **** //extern uint16 _100ms_flag;
  53:RelayTest.c   **** //uint16 _100ms_flag = 0;
  54:RelayTest.c   **** //uint16 isr_count;
  55:RelayTest.c   **** 
  56:RelayTest.c   **** static uint16 RTest_20ms_isr_count = 0;
  57:RelayTest.c   **** static uint16 RTest_20ms_isr_EN = 0;
  58:RelayTest.c   **** 
  59:RelayTest.c   **** void StartTimeout(void);
  60:RelayTest.c   **** void StopTimeout(void);
  61:RelayTest.c   **** 
  62:RelayTest.c   **** enum MUX_460800_CHANNEL
  63:RelayTest.c   **** { 
  64:RelayTest.c   ****     CTEST_QUAD,             // This is for both cont and relay tests
  65:RelayTest.c   ****     CTEST_QUADSERIAL,       // This is for both cont and relay tests
  66:RelayTest.c   ****     CTEST_AUDIO,
  67:RelayTest.c   ****     QTEST_QUAD              //***Not for F1 - detects Quad-Controller packets (type 'C')
  68:RelayTest.c   **** };
  69:RelayTest.c   **** enum DEMUX_460800_CHANNEL
  70:RelayTest.c   **** { 
  71:RelayTest.c   ****     CTEST_OBDII_TX,         // 
  72:RelayTest.c   ****     RTEST_QUAD_TX,          // 
  73:RelayTest.c   ****     STEST_AUDIO_TX,
  74:RelayTest.c   **** };
  75:RelayTest.c   **** 
  76:RelayTest.c   **** enum MUX_DEMUX_230400_CHANNEL              
  77:RelayTest.c   **** { 
  78:RelayTest.c   ****     CTEST_RELAY, 
  79:RelayTest.c   ****     RTEST_CONT,
  80:RelayTest.c   ****     RTEST_SIREN,
  81:RelayTest.c   ****     STEST_RELAY            
ARM GAS  C:\Users\MARTHN~1\AppData\Local\Temp\ccHF3wZv.s 			page 4


  82:RelayTest.c   **** };
  83:RelayTest.c   **** 
  84:RelayTest.c   **** enum MUX_115200_CHANNEL      
  85:RelayTest.c   **** { 
  86:RelayTest.c   ****     RTEST_DLINK1,    
  87:RelayTest.c   ****     RTEST_DLINK2,    
  88:RelayTest.c   ****     CTEST_USB_DEBUG,
  89:RelayTest.c   ****     DIAG_UART_RX        
  90:RelayTest.c   **** };
  91:RelayTest.c   **** 
  92:RelayTest.c   **** // --------------Test steps---------------
  93:RelayTest.c   **** enum TestStep               // *** Need to get muxes setup permanently, 
  94:RelayTest.c   **** { 
  95:RelayTest.c   ****     INITIALIZE_TEST, 
  96:RelayTest.c   ****     SIREN_EN,               // (Implemented - need hardware to test)
  97:RelayTest.c   ****     TEST_OUTPUTS,           //                      - 230400 TX TESTED      - (needs hardware)
  98:RelayTest.c   ****     DATALINK,               // (***115200 rx tested)
  99:RelayTest.c   ****     QUAD_PORTS,             // (460800 rx_tested, with 'C' packet, need to test for 'Y' and 'L') - 
 100:RelayTest.c   ****     UART_SIREN,             // (***230400 rx tested)    - 230400 TX TESTED  - 
 101:RelayTest.c   ****     INPUTS,                 // 230400 RX_TESTED     - 230400 TX TESTED      - (needs hardware)
 102:RelayTest.c   ****     VBATT,                  // 230400 RX_TESTED                             - COMPLETE
 103:RelayTest.c   ****     BLOCK_CURRENTS,         // 230400 RX_TESTED     - 230400 TX TESTED      - COMPLETE
 104:RelayTest.c   ****     GPS,                    // (230400 rx tested)
 105:RelayTest.c   ****     FAIL
 106:RelayTest.c   **** };
 107:RelayTest.c   **** 
 108:RelayTest.c   **** static uint8 RelayTestStatus[NUMBER_TEST_STEPS];
 109:RelayTest.c   **** 
 110:RelayTest.c   **** static uint8 TestState = INITIALIZE_TEST;
 111:RelayTest.c   **** 
 112:RelayTest.c   **** //----------------------------------------
 113:RelayTest.c   **** // Main state machine for F1-Relay Test
 114:RelayTest.c   **** //----------------------------------------
 115:RelayTest.c   **** uint8 RelayTest(void)
 116:RelayTest.c   **** {
  76              		.loc 1 116 0
  77              		.cfi_startproc
  78              		@ args = 0, pretend = 0, frame = 8
  79              		@ frame_needed = 1, uses_anonymous_args = 0
  80 0000 80B5     		push	{r7, lr}
  81              		.cfi_def_cfa_offset 8
  82              		.cfi_offset 7, -8
  83              		.cfi_offset 14, -4
  84 0002 82B0     		sub	sp, sp, #8
  85              		.cfi_def_cfa_offset 16
  86 0004 00AF     		add	r7, sp, #0
  87              		.cfi_def_cfa_register 7
 117:RelayTest.c   ****     //TestState = VBATT;                  //*** Comment this out
 118:RelayTest.c   ****     
 119:RelayTest.c   ****     switch(TestState)
  88              		.loc 1 119 0
  89 0006 AB4B     		ldr	r3, .L45
  90 0008 1B78     		ldrb	r3, [r3]	@ zero_extendqisi2
  91 000a 0A2B     		cmp	r3, #10
  92 000c 00F21A82 		bhi	.L2
  93 0010 01A2     		adr	r2, .L4
  94 0012 52F823F0 		ldr	pc, [r2, r3, lsl #2]
ARM GAS  C:\Users\MARTHN~1\AppData\Local\Temp\ccHF3wZv.s 			page 5


  95 0016 00BF     		.p2align 2
  96              	.L4:
  97 0018 45000000 		.word	.L3+1
  98 001c 01010000 		.word	.L5+1
  99 0020 41010000 		.word	.L6+1
 100 0024 A7010000 		.word	.L7+1
 101 0028 01020000 		.word	.L8+1
 102 002c 5B020000 		.word	.L9+1
 103 0030 C9020000 		.word	.L10+1
 104 0034 23030000 		.word	.L11+1
 105 0038 7D030000 		.word	.L12+1
 106 003c E3030000 		.word	.L13+1
 107 0040 45040000 		.word	.L2+1
 108              		.p2align 1
 109              	.L3:
 110              	.LBB2:
 120:RelayTest.c   ****     {   
 121:RelayTest.c   ****                
 122:RelayTest.c   ****         case INITIALIZE_TEST:
 123:RelayTest.c   ****         
 124:RelayTest.c   ****             //isr_count = 0;
 125:RelayTest.c   ****         
 126:RelayTest.c   **** //            if(_100ms_flag == 1)
 127:RelayTest.c   **** //                LED_EN_Write(0);
 128:RelayTest.c   **** //        
 129:RelayTest.c   **** //            else if(_100ms_flag == 0)
 130:RelayTest.c   **** //                LED_EN_Write(0);
 131:RelayTest.c   ****                 
 132:RelayTest.c   ****             //CyDelay(1000);                      // Pause before next test
 133:RelayTest.c   ****         
 134:RelayTest.c   ****             for (uint8 i=0;i<NUMBER_TEST_STEPS;i++)            // Reset Status of aall test steps t
 111              		.loc 1 134 0
 112 0044 0023     		movs	r3, #0
 113 0046 FB71     		strb	r3, [r7, #7]
 114 0048 06E0     		b	.L15
 115              	.L16:
 135:RelayTest.c   ****                 RelayTestStatus[i] = '_';
 116              		.loc 1 135 0 discriminator 3
 117 004a FB79     		ldrb	r3, [r7, #7]	@ zero_extendqisi2
 118 004c 9A4A     		ldr	r2, .L45+4
 119 004e 5F21     		movs	r1, #95
 120 0050 D154     		strb	r1, [r2, r3]
 134:RelayTest.c   ****                 RelayTestStatus[i] = '_';
 121              		.loc 1 134 0 discriminator 3
 122 0052 FB79     		ldrb	r3, [r7, #7]	@ zero_extendqisi2
 123 0054 0133     		adds	r3, r3, #1
 124 0056 FB71     		strb	r3, [r7, #7]
 125              	.L15:
 134:RelayTest.c   ****                 RelayTestStatus[i] = '_';
 126              		.loc 1 134 0 is_stmt 0 discriminator 1
 127 0058 FB79     		ldrb	r3, [r7, #7]	@ zero_extendqisi2
 128 005a 092B     		cmp	r3, #9
 129 005c F5D9     		bls	.L16
 130              	.LBE2:
 136:RelayTest.c   ****    
 137:RelayTest.c   ****             // Initialize TX_RelaySiren packet
 138:RelayTest.c   ****             pTxPacket_RelaySiren = getTxPacket_RelaySiren();              // Tx - Get pointers to p
ARM GAS  C:\Users\MARTHN~1\AppData\Local\Temp\ccHF3wZv.s 			page 6


 131              		.loc 1 138 0 is_stmt 1
 132 005e FFF7FEFF 		bl	getTxPacket_RelaySiren
 133 0062 0246     		mov	r2, r0
 134 0064 954B     		ldr	r3, .L45+8
 135 0066 1A60     		str	r2, [r3]
 136              	.LBB3:
 139:RelayTest.c   ****             for(uint8 i;i<79;i++)
 137              		.loc 1 139 0
 138 0068 07E0     		b	.L17
 139              	.L18:
 140:RelayTest.c   ****                 pTxPacket_RelaySiren->bytes[i] = i;
 140              		.loc 1 140 0 discriminator 2
 141 006a 944B     		ldr	r3, .L45+8
 142 006c 1A68     		ldr	r2, [r3]
 143 006e BB79     		ldrb	r3, [r7, #6]	@ zero_extendqisi2
 144 0070 B979     		ldrb	r1, [r7, #6]
 145 0072 D154     		strb	r1, [r2, r3]
 139:RelayTest.c   ****             for(uint8 i;i<79;i++)
 146              		.loc 1 139 0 discriminator 2
 147 0074 BB79     		ldrb	r3, [r7, #6]	@ zero_extendqisi2
 148 0076 0133     		adds	r3, r3, #1
 149 0078 BB71     		strb	r3, [r7, #6]
 150              	.L17:
 139:RelayTest.c   ****             for(uint8 i;i<79;i++)
 151              		.loc 1 139 0 is_stmt 0 discriminator 1
 152 007a BB79     		ldrb	r3, [r7, #6]	@ zero_extendqisi2
 153 007c 4E2B     		cmp	r3, #78
 154 007e F4D9     		bls	.L18
 155              	.LBE3:
 141:RelayTest.c   **** 
 142:RelayTest.c   ****             pTxPacket_RelaySiren->Payload.StartByte_FLB = '~';
 156              		.loc 1 142 0 is_stmt 1
 157 0080 8E4B     		ldr	r3, .L45+8
 158 0082 1B68     		ldr	r3, [r3]
 159 0084 7E22     		movs	r2, #126
 160 0086 83F83520 		strb	r2, [r3, #53]
 143:RelayTest.c   ****             pTxPacket_RelaySiren->Payload.FLB_PacketType = '3';
 161              		.loc 1 143 0
 162 008a 8C4B     		ldr	r3, .L45+8
 163 008c 1B68     		ldr	r3, [r3]
 164 008e 3322     		movs	r2, #51
 165 0090 83F83620 		strb	r2, [r3, #54]
 144:RelayTest.c   ****             pTxPacket_RelaySiren->Payload.StopByte1_FLB = 0x0D;
 166              		.loc 1 144 0
 167 0094 894B     		ldr	r3, .L45+8
 168 0096 1B68     		ldr	r3, [r3]
 169 0098 0D22     		movs	r2, #13
 170 009a 83F83A20 		strb	r2, [r3, #58]
 145:RelayTest.c   ****             pTxPacket_RelaySiren->Payload.StopByte2_FLB = 0x0A;    
 171              		.loc 1 145 0
 172 009e 874B     		ldr	r3, .L45+8
 173 00a0 1B68     		ldr	r3, [r3]
 174 00a2 0A22     		movs	r2, #10
 175 00a4 83F83B20 		strb	r2, [r3, #59]
 146:RelayTest.c   ****             pTxPacket_RelaySiren->Payload.StartByte1_Siren = '~';    
 176              		.loc 1 146 0
 177 00a8 844B     		ldr	r3, .L45+8
ARM GAS  C:\Users\MARTHN~1\AppData\Local\Temp\ccHF3wZv.s 			page 7


 178 00aa 1B68     		ldr	r3, [r3]
 179 00ac 7E22     		movs	r2, #126
 180 00ae 83F83C20 		strb	r2, [r3, #60]
 147:RelayTest.c   ****             pTxPacket_RelaySiren->Payload.Siren_PacketType = 'S';
 181              		.loc 1 147 0
 182 00b2 824B     		ldr	r3, .L45+8
 183 00b4 1B68     		ldr	r3, [r3]
 184 00b6 5322     		movs	r2, #83
 185 00b8 83F83D20 		strb	r2, [r3, #61]
 148:RelayTest.c   ****             pTxPacket_RelaySiren->Payload.StopByte1_Siren = 0x0D;
 186              		.loc 1 148 0
 187 00bc 7F4B     		ldr	r3, .L45+8
 188 00be 1B68     		ldr	r3, [r3]
 189 00c0 0D22     		movs	r2, #13
 190 00c2 83F84120 		strb	r2, [r3, #65]
 149:RelayTest.c   ****             pTxPacket_RelaySiren->Payload.StopByte2_Siren = 0x0A;                       
 191              		.loc 1 149 0
 192 00c6 7D4B     		ldr	r3, .L45+8
 193 00c8 1B68     		ldr	r3, [r3]
 194 00ca 0A22     		movs	r2, #10
 195 00cc 83F84220 		strb	r2, [r3, #66]
 150:RelayTest.c   ****             pTxPacket_RelaySiren->Payload.StartByte1_Relay = '~';
 196              		.loc 1 150 0
 197 00d0 7A4B     		ldr	r3, .L45+8
 198 00d2 1B68     		ldr	r3, [r3]
 199 00d4 7E22     		movs	r2, #126
 200 00d6 83F84320 		strb	r2, [r3, #67]
 151:RelayTest.c   ****             pTxPacket_RelaySiren->Payload.Relay_PacketType = 'P';
 201              		.loc 1 151 0
 202 00da 784B     		ldr	r3, .L45+8
 203 00dc 1B68     		ldr	r3, [r3]
 204 00de 5022     		movs	r2, #80
 205 00e0 83F84420 		strb	r2, [r3, #68]
 152:RelayTest.c   ****             pTxPacket_RelaySiren->Payload.StopByte1_Relay = 0x0D;
 206              		.loc 1 152 0
 207 00e4 754B     		ldr	r3, .L45+8
 208 00e6 1B68     		ldr	r3, [r3]
 209 00e8 0D22     		movs	r2, #13
 210 00ea 83F84D20 		strb	r2, [r3, #77]
 153:RelayTest.c   ****             pTxPacket_RelaySiren->Payload.StopByte2_Relay = 0x0A;                    
 211              		.loc 1 153 0
 212 00ee 734B     		ldr	r3, .L45+8
 213 00f0 1B68     		ldr	r3, [r3]
 214 00f2 0A22     		movs	r2, #10
 215 00f4 83F84E20 		strb	r2, [r3, #78]
 154:RelayTest.c   ****             
 155:RelayTest.c   ****                 
 156:RelayTest.c   ****                 
 157:RelayTest.c   ****             // Deactivate each input
 158:RelayTest.c   ****             // RTest_HSide1_Write(0);
 159:RelayTest.c   ****             // RTest_HSide2_Write(0);
 160:RelayTest.c   ****             // RTest_HSide3_Write(0);
 161:RelayTest.c   ****             // RTest_HSide4_Write(0);
 162:RelayTest.c   ****             // RTest_HSide5_Write(0);
 163:RelayTest.c   ****             // RTest_HSide6_Write(0);
 164:RelayTest.c   ****             // RTest_HSide7_Write(0);
 165:RelayTest.c   ****             // RTest_HSide8_Write(0);
ARM GAS  C:\Users\MARTHN~1\AppData\Local\Temp\ccHF3wZv.s 			page 8


 166:RelayTest.c   ****             
 167:RelayTest.c   ****             //TestState = SIREN_EN; 
 168:RelayTest.c   ****             //TestState = QUAD_PORTS;
 169:RelayTest.c   ****             TestState = UART_SIREN;
 216              		.loc 1 169 0
 217 00f8 6E4B     		ldr	r3, .L45
 218 00fa 0522     		movs	r2, #5
 219 00fc 1A70     		strb	r2, [r3]
 170:RelayTest.c   ****             //TestState = INPUTS;  
 171:RelayTest.c   ****             //TestState = BLOCK_CURRENTS;  
 172:RelayTest.c   ****                    
 173:RelayTest.c   ****         break;
 220              		.loc 1 173 0
 221 00fe A1E1     		b	.L2
 222              	.L5:
 174:RelayTest.c   ****              
 175:RelayTest.c   ****         case SIREN_EN:
 176:RelayTest.c   ****                 
 177:RelayTest.c   ****             RelayTestStatus[TestState] = 'B';
 223              		.loc 1 177 0
 224 0100 6C4B     		ldr	r3, .L45
 225 0102 1B78     		ldrb	r3, [r3]	@ zero_extendqisi2
 226 0104 1A46     		mov	r2, r3
 227 0106 6C4B     		ldr	r3, .L45+4
 228 0108 4221     		movs	r1, #66
 229 010a 9954     		strb	r1, [r3, r2]
 178:RelayTest.c   **** 
 179:RelayTest.c   ****             RTest_20ms_isr_count = 0;
 230              		.loc 1 179 0
 231 010c 6C4B     		ldr	r3, .L45+12
 232 010e 0022     		movs	r2, #0
 233 0110 1A80     		strh	r2, [r3]	@ movhi
 180:RelayTest.c   ****             RTest_20ms_isr_EN = 1;
 234              		.loc 1 180 0
 235 0112 6C4B     		ldr	r3, .L45+16
 236 0114 0122     		movs	r2, #1
 237 0116 1A80     		strh	r2, [r3]	@ movhi
 181:RelayTest.c   ****              
 182:RelayTest.c   ****             //while(1);
 183:RelayTest.c   ****             //while( (!RTest_SIREN_EN_Read()) && (RelayTestStatus[TestState] != 'F') )             
 184:RelayTest.c   ****             {} 
 185:RelayTest.c   ****             
 186:RelayTest.c   ****             RTest_20ms_isr_EN = 0;
 238              		.loc 1 186 0
 239 0118 6A4B     		ldr	r3, .L45+16
 240 011a 0022     		movs	r2, #0
 241 011c 1A80     		strh	r2, [r3]	@ movhi
 187:RelayTest.c   ****             
 188:RelayTest.c   ****             if(RelayTestStatus[TestState] != 'F')       // If not failed, then pass
 242              		.loc 1 188 0
 243 011e 654B     		ldr	r3, .L45
 244 0120 1B78     		ldrb	r3, [r3]	@ zero_extendqisi2
 245 0122 1A46     		mov	r2, r3
 246 0124 644B     		ldr	r3, .L45+4
 247 0126 9B5C     		ldrb	r3, [r3, r2]	@ zero_extendqisi2
 248 0128 462B     		cmp	r3, #70
 249 012a 05D0     		beq	.L19
ARM GAS  C:\Users\MARTHN~1\AppData\Local\Temp\ccHF3wZv.s 			page 9


 189:RelayTest.c   ****                 RelayTestStatus[TestState] = 'P';
 250              		.loc 1 189 0
 251 012c 614B     		ldr	r3, .L45
 252 012e 1B78     		ldrb	r3, [r3]	@ zero_extendqisi2
 253 0130 1A46     		mov	r2, r3
 254 0132 614B     		ldr	r3, .L45+4
 255 0134 5021     		movs	r1, #80
 256 0136 9954     		strb	r1, [r3, r2]
 257              	.L19:
 190:RelayTest.c   **** 
 191:RelayTest.c   ****             TestState = TEST_OUTPUTS;        
 258              		.loc 1 191 0
 259 0138 5E4B     		ldr	r3, .L45
 260 013a 0222     		movs	r2, #2
 261 013c 1A70     		strb	r2, [r3]
 192:RelayTest.c   ****         break;    
 262              		.loc 1 192 0
 263 013e 81E1     		b	.L2
 264              	.L6:
 193:RelayTest.c   ****               
 194:RelayTest.c   ****         case TEST_OUTPUTS:  
 195:RelayTest.c   ****                 
 196:RelayTest.c   ****             SetRelayOutputs(1);                         // Send command to turn on relay outputs
 265              		.loc 1 196 0
 266 0140 0120     		movs	r0, #1
 267 0142 FFF7FEFF 		bl	SetRelayOutputs
 197:RelayTest.c   ****                 
 198:RelayTest.c   ****             RelayTestStatus[TestState] = 'B';
 268              		.loc 1 198 0
 269 0146 5B4B     		ldr	r3, .L45
 270 0148 1B78     		ldrb	r3, [r3]	@ zero_extendqisi2
 271 014a 1A46     		mov	r2, r3
 272 014c 5A4B     		ldr	r3, .L45+4
 273 014e 4221     		movs	r1, #66
 274 0150 9954     		strb	r1, [r3, r2]
 199:RelayTest.c   **** 
 200:RelayTest.c   ****             RTest_20ms_isr_count = 0;
 275              		.loc 1 200 0
 276 0152 5B4B     		ldr	r3, .L45+12
 277 0154 0022     		movs	r2, #0
 278 0156 1A80     		strh	r2, [r3]	@ movhi
 201:RelayTest.c   ****             RTest_20ms_isr_EN = 1;
 279              		.loc 1 201 0
 280 0158 5A4B     		ldr	r3, .L45+16
 281 015a 0122     		movs	r2, #1
 282 015c 1A80     		strh	r2, [r3]	@ movhi
 202:RelayTest.c   ****              
 203:RelayTest.c   ****             while( (!RTest_Test_Outputs()) && (RelayTestStatus[TestState] != 'F') )    // Wait for 
 283              		.loc 1 203 0
 284 015e 00BF     		nop
 285              	.L21:
 286              		.loc 1 203 0 is_stmt 0 discriminator 2
 287 0160 FFF7FEFF 		bl	RTest_Test_Outputs
 288 0164 0346     		mov	r3, r0
 289 0166 002B     		cmp	r3, #0
 290 0168 06D1     		bne	.L20
 291              		.loc 1 203 0 discriminator 1
ARM GAS  C:\Users\MARTHN~1\AppData\Local\Temp\ccHF3wZv.s 			page 10


 292 016a 524B     		ldr	r3, .L45
 293 016c 1B78     		ldrb	r3, [r3]	@ zero_extendqisi2
 294 016e 1A46     		mov	r2, r3
 295 0170 514B     		ldr	r3, .L45+4
 296 0172 9B5C     		ldrb	r3, [r3, r2]	@ zero_extendqisi2
 297 0174 462B     		cmp	r3, #70
 298 0176 F3D1     		bne	.L21
 299              	.L20:
 204:RelayTest.c   ****             {}   
 205:RelayTest.c   ****             
 206:RelayTest.c   ****             RTest_20ms_isr_EN = 0;
 300              		.loc 1 206 0 is_stmt 1
 301 0178 524B     		ldr	r3, .L45+16
 302 017a 0022     		movs	r2, #0
 303 017c 1A80     		strh	r2, [r3]	@ movhi
 207:RelayTest.c   ****             
 208:RelayTest.c   ****             SetRelayOutputs(0);                         // Send command to turn off relay outputs
 304              		.loc 1 208 0
 305 017e 0020     		movs	r0, #0
 306 0180 FFF7FEFF 		bl	SetRelayOutputs
 209:RelayTest.c   ****             
 210:RelayTest.c   ****             if(RelayTestStatus[TestState] != 'F')       // If not failed, then pass
 307              		.loc 1 210 0
 308 0184 4B4B     		ldr	r3, .L45
 309 0186 1B78     		ldrb	r3, [r3]	@ zero_extendqisi2
 310 0188 1A46     		mov	r2, r3
 311 018a 4B4B     		ldr	r3, .L45+4
 312 018c 9B5C     		ldrb	r3, [r3, r2]	@ zero_extendqisi2
 313 018e 462B     		cmp	r3, #70
 314 0190 05D0     		beq	.L22
 211:RelayTest.c   ****                 RelayTestStatus[TestState] = 'P';
 315              		.loc 1 211 0
 316 0192 484B     		ldr	r3, .L45
 317 0194 1B78     		ldrb	r3, [r3]	@ zero_extendqisi2
 318 0196 1A46     		mov	r2, r3
 319 0198 474B     		ldr	r3, .L45+4
 320 019a 5021     		movs	r1, #80
 321 019c 9954     		strb	r1, [r3, r2]
 322              	.L22:
 212:RelayTest.c   **** 
 213:RelayTest.c   ****             TestState = DATALINK;        
 323              		.loc 1 213 0
 324 019e 454B     		ldr	r3, .L45
 325 01a0 0322     		movs	r2, #3
 326 01a2 1A70     		strb	r2, [r3]
 214:RelayTest.c   ****         break;        
 327              		.loc 1 214 0
 328 01a4 4EE1     		b	.L2
 329              	.L7:
 215:RelayTest.c   ****               
 216:RelayTest.c   ****         case DATALINK: 
 217:RelayTest.c   ****                 
 218:RelayTest.c   ****             RelayTestStatus[TestState] = 'B';
 330              		.loc 1 218 0
 331 01a6 434B     		ldr	r3, .L45
 332 01a8 1B78     		ldrb	r3, [r3]	@ zero_extendqisi2
 333 01aa 1A46     		mov	r2, r3
ARM GAS  C:\Users\MARTHN~1\AppData\Local\Temp\ccHF3wZv.s 			page 11


 334 01ac 424B     		ldr	r3, .L45+4
 335 01ae 4221     		movs	r1, #66
 336 01b0 9954     		strb	r1, [r3, r2]
 219:RelayTest.c   **** 
 220:RelayTest.c   ****             RTest_20ms_isr_count = 0;
 337              		.loc 1 220 0
 338 01b2 434B     		ldr	r3, .L45+12
 339 01b4 0022     		movs	r2, #0
 340 01b6 1A80     		strh	r2, [r3]	@ movhi
 221:RelayTest.c   ****             RTest_20ms_isr_EN = 1;            
 341              		.loc 1 221 0
 342 01b8 424B     		ldr	r3, .L45+16
 343 01ba 0122     		movs	r2, #1
 344 01bc 1A80     		strh	r2, [r3]	@ movhi
 222:RelayTest.c   ****              
 223:RelayTest.c   ****             while( (!RTest_Test_DataLink()) && (RelayTestStatus[TestState] != 'F') )    // Wait for
 345              		.loc 1 223 0
 346 01be 00BF     		nop
 347              	.L24:
 348              		.loc 1 223 0 is_stmt 0 discriminator 2
 349 01c0 FFF7FEFF 		bl	RTest_Test_DataLink
 350 01c4 0346     		mov	r3, r0
 351 01c6 002B     		cmp	r3, #0
 352 01c8 06D1     		bne	.L23
 353              		.loc 1 223 0 discriminator 1
 354 01ca 3A4B     		ldr	r3, .L45
 355 01cc 1B78     		ldrb	r3, [r3]	@ zero_extendqisi2
 356 01ce 1A46     		mov	r2, r3
 357 01d0 394B     		ldr	r3, .L45+4
 358 01d2 9B5C     		ldrb	r3, [r3, r2]	@ zero_extendqisi2
 359 01d4 462B     		cmp	r3, #70
 360 01d6 F3D1     		bne	.L24
 361              	.L23:
 224:RelayTest.c   ****             {}  
 225:RelayTest.c   ****             
 226:RelayTest.c   ****             RTest_20ms_isr_EN = 0;
 362              		.loc 1 226 0 is_stmt 1
 363 01d8 3A4B     		ldr	r3, .L45+16
 364 01da 0022     		movs	r2, #0
 365 01dc 1A80     		strh	r2, [r3]	@ movhi
 227:RelayTest.c   ****             
 228:RelayTest.c   ****             if(RelayTestStatus[TestState] != 'F')       // If not failed, then pass
 366              		.loc 1 228 0
 367 01de 354B     		ldr	r3, .L45
 368 01e0 1B78     		ldrb	r3, [r3]	@ zero_extendqisi2
 369 01e2 1A46     		mov	r2, r3
 370 01e4 344B     		ldr	r3, .L45+4
 371 01e6 9B5C     		ldrb	r3, [r3, r2]	@ zero_extendqisi2
 372 01e8 462B     		cmp	r3, #70
 373 01ea 05D0     		beq	.L25
 229:RelayTest.c   ****                 RelayTestStatus[TestState] = 'P';
 374              		.loc 1 229 0
 375 01ec 314B     		ldr	r3, .L45
 376 01ee 1B78     		ldrb	r3, [r3]	@ zero_extendqisi2
 377 01f0 1A46     		mov	r2, r3
 378 01f2 314B     		ldr	r3, .L45+4
 379 01f4 5021     		movs	r1, #80
ARM GAS  C:\Users\MARTHN~1\AppData\Local\Temp\ccHF3wZv.s 			page 12


 380 01f6 9954     		strb	r1, [r3, r2]
 381              	.L25:
 230:RelayTest.c   ****             
 231:RelayTest.c   ****             TestState = QUAD_PORTS;        
 382              		.loc 1 231 0
 383 01f8 2E4B     		ldr	r3, .L45
 384 01fa 0422     		movs	r2, #4
 385 01fc 1A70     		strb	r2, [r3]
 232:RelayTest.c   ****         break;  
 386              		.loc 1 232 0
 387 01fe 21E1     		b	.L2
 388              	.L8:
 233:RelayTest.c   ****               
 234:RelayTest.c   ****         case QUAD_PORTS: 
 235:RelayTest.c   ****                 
 236:RelayTest.c   ****             RelayTestStatus[TestState] = 'B';
 389              		.loc 1 236 0
 390 0200 2C4B     		ldr	r3, .L45
 391 0202 1B78     		ldrb	r3, [r3]	@ zero_extendqisi2
 392 0204 1A46     		mov	r2, r3
 393 0206 2C4B     		ldr	r3, .L45+4
 394 0208 4221     		movs	r1, #66
 395 020a 9954     		strb	r1, [r3, r2]
 237:RelayTest.c   **** 
 238:RelayTest.c   ****             RTest_20ms_isr_count = 0;
 396              		.loc 1 238 0
 397 020c 2C4B     		ldr	r3, .L45+12
 398 020e 0022     		movs	r2, #0
 399 0210 1A80     		strh	r2, [r3]	@ movhi
 239:RelayTest.c   ****             RTest_20ms_isr_EN = 1;            
 400              		.loc 1 239 0
 401 0212 2C4B     		ldr	r3, .L45+16
 402 0214 0122     		movs	r2, #1
 403 0216 1A80     		strh	r2, [r3]	@ movhi
 240:RelayTest.c   ****                 
 241:RelayTest.c   ****             while( (!RTest_Test_QuadPorts()) && (RelayTestStatus[TestState] != 'F') )    // Wait fo
 404              		.loc 1 241 0
 405 0218 00BF     		nop
 406              	.L27:
 407              		.loc 1 241 0 is_stmt 0 discriminator 2
 408 021a FFF7FEFF 		bl	RTest_Test_QuadPorts
 409 021e 0346     		mov	r3, r0
 410 0220 002B     		cmp	r3, #0
 411 0222 06D1     		bne	.L26
 412              		.loc 1 241 0 discriminator 1
 413 0224 234B     		ldr	r3, .L45
 414 0226 1B78     		ldrb	r3, [r3]	@ zero_extendqisi2
 415 0228 1A46     		mov	r2, r3
 416 022a 234B     		ldr	r3, .L45+4
 417 022c 9B5C     		ldrb	r3, [r3, r2]	@ zero_extendqisi2
 418 022e 462B     		cmp	r3, #70
 419 0230 F3D1     		bne	.L27
 420              	.L26:
 242:RelayTest.c   ****             {}    
 243:RelayTest.c   ****             
 244:RelayTest.c   ****             RTest_20ms_isr_EN = 0;
 421              		.loc 1 244 0 is_stmt 1
ARM GAS  C:\Users\MARTHN~1\AppData\Local\Temp\ccHF3wZv.s 			page 13


 422 0232 244B     		ldr	r3, .L45+16
 423 0234 0022     		movs	r2, #0
 424 0236 1A80     		strh	r2, [r3]	@ movhi
 245:RelayTest.c   ****             
 246:RelayTest.c   ****             if(RelayTestStatus[TestState] != 'F')                                   // If not faile
 425              		.loc 1 246 0
 426 0238 1E4B     		ldr	r3, .L45
 427 023a 1B78     		ldrb	r3, [r3]	@ zero_extendqisi2
 428 023c 1A46     		mov	r2, r3
 429 023e 1E4B     		ldr	r3, .L45+4
 430 0240 9B5C     		ldrb	r3, [r3, r2]	@ zero_extendqisi2
 431 0242 462B     		cmp	r3, #70
 432 0244 05D0     		beq	.L28
 247:RelayTest.c   ****                 RelayTestStatus[TestState] = 'P';
 433              		.loc 1 247 0
 434 0246 1B4B     		ldr	r3, .L45
 435 0248 1B78     		ldrb	r3, [r3]	@ zero_extendqisi2
 436 024a 1A46     		mov	r2, r3
 437 024c 1A4B     		ldr	r3, .L45+4
 438 024e 5021     		movs	r1, #80
 439 0250 9954     		strb	r1, [r3, r2]
 440              	.L28:
 248:RelayTest.c   ****                   
 249:RelayTest.c   ****             //TestState = QUAD_PORTS;
 250:RelayTest.c   ****             TestState = UART_SIREN;        
 441              		.loc 1 250 0
 442 0252 184B     		ldr	r3, .L45
 443 0254 0522     		movs	r2, #5
 444 0256 1A70     		strb	r2, [r3]
 251:RelayTest.c   ****         break;  
 445              		.loc 1 251 0
 446 0258 F4E0     		b	.L2
 447              	.L9:
 252:RelayTest.c   ****                 
 253:RelayTest.c   ****         case UART_SIREN: 
 254:RelayTest.c   ****                 
 255:RelayTest.c   ****             RelayTestStatus[TestState] = 'B';
 448              		.loc 1 255 0
 449 025a 164B     		ldr	r3, .L45
 450 025c 1B78     		ldrb	r3, [r3]	@ zero_extendqisi2
 451 025e 1A46     		mov	r2, r3
 452 0260 154B     		ldr	r3, .L45+4
 453 0262 4221     		movs	r1, #66
 454 0264 9954     		strb	r1, [r3, r2]
 256:RelayTest.c   **** 
 257:RelayTest.c   ****             RTest_20ms_isr_count = 0;
 455              		.loc 1 257 0
 456 0266 164B     		ldr	r3, .L45+12
 457 0268 0022     		movs	r2, #0
 458 026a 1A80     		strh	r2, [r3]	@ movhi
 258:RelayTest.c   ****             RTest_20ms_isr_EN = 1;            
 459              		.loc 1 258 0
 460 026c 154B     		ldr	r3, .L45+16
 461 026e 0122     		movs	r2, #1
 462 0270 1A80     		strh	r2, [r3]	@ movhi
 259:RelayTest.c   ****                 
 260:RelayTest.c   ****             while( (!RTest_Test_UART_Siren()) && (RelayTestStatus[TestState] != 'F') )
ARM GAS  C:\Users\MARTHN~1\AppData\Local\Temp\ccHF3wZv.s 			page 14


 463              		.loc 1 260 0
 464 0272 00BF     		nop
 465              	.L30:
 466              		.loc 1 260 0 is_stmt 0 discriminator 2
 467 0274 FFF7FEFF 		bl	RTest_Test_UART_Siren
 468 0278 0346     		mov	r3, r0
 469 027a 002B     		cmp	r3, #0
 470 027c 06D1     		bne	.L29
 471              		.loc 1 260 0 discriminator 1
 472 027e 0D4B     		ldr	r3, .L45
 473 0280 1B78     		ldrb	r3, [r3]	@ zero_extendqisi2
 474 0282 1A46     		mov	r2, r3
 475 0284 0C4B     		ldr	r3, .L45+4
 476 0286 9B5C     		ldrb	r3, [r3, r2]	@ zero_extendqisi2
 477 0288 462B     		cmp	r3, #70
 478 028a F3D1     		bne	.L30
 479              	.L29:
 261:RelayTest.c   ****             {}    
 262:RelayTest.c   ****             
 263:RelayTest.c   ****             RTest_20ms_isr_EN = 0;
 480              		.loc 1 263 0 is_stmt 1
 481 028c 0D4B     		ldr	r3, .L45+16
 482 028e 0022     		movs	r2, #0
 483 0290 1A80     		strh	r2, [r3]	@ movhi
 264:RelayTest.c   ****             
 265:RelayTest.c   ****             if(RelayTestStatus[TestState] != 'F')                                   // If not faile
 484              		.loc 1 265 0
 485 0292 084B     		ldr	r3, .L45
 486 0294 1B78     		ldrb	r3, [r3]	@ zero_extendqisi2
 487 0296 1A46     		mov	r2, r3
 488 0298 074B     		ldr	r3, .L45+4
 489 029a 9B5C     		ldrb	r3, [r3, r2]	@ zero_extendqisi2
 490 029c 462B     		cmp	r3, #70
 491 029e 05D0     		beq	.L31
 266:RelayTest.c   ****                 RelayTestStatus[TestState] = 'P';
 492              		.loc 1 266 0
 493 02a0 044B     		ldr	r3, .L45
 494 02a2 1B78     		ldrb	r3, [r3]	@ zero_extendqisi2
 495 02a4 1A46     		mov	r2, r3
 496 02a6 044B     		ldr	r3, .L45+4
 497 02a8 5021     		movs	r1, #80
 498 02aa 9954     		strb	r1, [r3, r2]
 499              	.L31:
 267:RelayTest.c   ****                 
 268:RelayTest.c   ****             TestState = INITIALIZE_TEST;  
 500              		.loc 1 268 0
 501 02ac 014B     		ldr	r3, .L45
 502 02ae 0022     		movs	r2, #0
 503 02b0 1A70     		strb	r2, [r3]
 269:RelayTest.c   ****             //TestState = INPUTS;                
 270:RelayTest.c   ****         break;  
 504              		.loc 1 270 0
 505 02b2 C7E0     		b	.L2
 506              	.L46:
 507              		.align	2
 508              	.L45:
 509 02b4 0A010000 		.word	TestState
ARM GAS  C:\Users\MARTHN~1\AppData\Local\Temp\ccHF3wZv.s 			page 15


 510 02b8 00010000 		.word	RelayTestStatus
 511 02bc 64000000 		.word	pTxPacket_RelaySiren
 512 02c0 FC000000 		.word	RTest_20ms_isr_count
 513 02c4 FE000000 		.word	RTest_20ms_isr_EN
 514              	.L10:
 271:RelayTest.c   ****               
 272:RelayTest.c   ****         case INPUTS:          
 273:RelayTest.c   ****                 
 274:RelayTest.c   ****             RelayTestStatus[TestState] = 'B';
 515              		.loc 1 274 0
 516 02c8 614B     		ldr	r3, .L47
 517 02ca 1B78     		ldrb	r3, [r3]	@ zero_extendqisi2
 518 02cc 1A46     		mov	r2, r3
 519 02ce 614B     		ldr	r3, .L47+4
 520 02d0 4221     		movs	r1, #66
 521 02d2 9954     		strb	r1, [r3, r2]
 275:RelayTest.c   **** 
 276:RelayTest.c   ****             RTest_20ms_isr_count = 0;
 522              		.loc 1 276 0
 523 02d4 604B     		ldr	r3, .L47+8
 524 02d6 0022     		movs	r2, #0
 525 02d8 1A80     		strh	r2, [r3]	@ movhi
 277:RelayTest.c   ****             RTest_20ms_isr_EN = 1;            
 526              		.loc 1 277 0
 527 02da 604B     		ldr	r3, .L47+12
 528 02dc 0122     		movs	r2, #1
 529 02de 1A80     		strh	r2, [r3]	@ movhi
 278:RelayTest.c   ****                 
 279:RelayTest.c   ****             while( (!RTest_Test_Inputs()) && (RelayTestStatus[TestState] != 'F') )
 530              		.loc 1 279 0
 531 02e0 00BF     		nop
 532              	.L33:
 533              		.loc 1 279 0 is_stmt 0 discriminator 2
 534 02e2 FFF7FEFF 		bl	RTest_Test_Inputs
 535 02e6 0346     		mov	r3, r0
 536 02e8 002B     		cmp	r3, #0
 537 02ea 06D1     		bne	.L32
 538              		.loc 1 279 0 discriminator 1
 539 02ec 584B     		ldr	r3, .L47
 540 02ee 1B78     		ldrb	r3, [r3]	@ zero_extendqisi2
 541 02f0 1A46     		mov	r2, r3
 542 02f2 584B     		ldr	r3, .L47+4
 543 02f4 9B5C     		ldrb	r3, [r3, r2]	@ zero_extendqisi2
 544 02f6 462B     		cmp	r3, #70
 545 02f8 F3D1     		bne	.L33
 546              	.L32:
 280:RelayTest.c   ****             {}   
 281:RelayTest.c   ****             
 282:RelayTest.c   ****             RTest_20ms_isr_EN = 0;
 547              		.loc 1 282 0 is_stmt 1
 548 02fa 584B     		ldr	r3, .L47+12
 549 02fc 0022     		movs	r2, #0
 550 02fe 1A80     		strh	r2, [r3]	@ movhi
 283:RelayTest.c   ****             
 284:RelayTest.c   ****             if(RelayTestStatus[TestState] != 'F')                                   // If not faile
 551              		.loc 1 284 0
 552 0300 534B     		ldr	r3, .L47
ARM GAS  C:\Users\MARTHN~1\AppData\Local\Temp\ccHF3wZv.s 			page 16


 553 0302 1B78     		ldrb	r3, [r3]	@ zero_extendqisi2
 554 0304 1A46     		mov	r2, r3
 555 0306 534B     		ldr	r3, .L47+4
 556 0308 9B5C     		ldrb	r3, [r3, r2]	@ zero_extendqisi2
 557 030a 462B     		cmp	r3, #70
 558 030c 05D0     		beq	.L34
 285:RelayTest.c   ****                 RelayTestStatus[TestState] = 'P';
 559              		.loc 1 285 0
 560 030e 504B     		ldr	r3, .L47
 561 0310 1B78     		ldrb	r3, [r3]	@ zero_extendqisi2
 562 0312 1A46     		mov	r2, r3
 563 0314 4F4B     		ldr	r3, .L47+4
 564 0316 5021     		movs	r1, #80
 565 0318 9954     		strb	r1, [r3, r2]
 566              	.L34:
 286:RelayTest.c   ****                 
 287:RelayTest.c   ****             TestState = VBATT;                
 567              		.loc 1 287 0
 568 031a 4D4B     		ldr	r3, .L47
 569 031c 0722     		movs	r2, #7
 570 031e 1A70     		strb	r2, [r3]
 288:RelayTest.c   ****         break;          
 571              		.loc 1 288 0
 572 0320 90E0     		b	.L2
 573              	.L11:
 289:RelayTest.c   **** 
 290:RelayTest.c   ****         case VBATT:                                     // Tested and working
 291:RelayTest.c   ****                 
 292:RelayTest.c   ****             RelayTestStatus[TestState] = 'B';
 574              		.loc 1 292 0
 575 0322 4B4B     		ldr	r3, .L47
 576 0324 1B78     		ldrb	r3, [r3]	@ zero_extendqisi2
 577 0326 1A46     		mov	r2, r3
 578 0328 4A4B     		ldr	r3, .L47+4
 579 032a 4221     		movs	r1, #66
 580 032c 9954     		strb	r1, [r3, r2]
 293:RelayTest.c   **** 
 294:RelayTest.c   ****             RTest_20ms_isr_count = 0;
 581              		.loc 1 294 0
 582 032e 4A4B     		ldr	r3, .L47+8
 583 0330 0022     		movs	r2, #0
 584 0332 1A80     		strh	r2, [r3]	@ movhi
 295:RelayTest.c   ****             RTest_20ms_isr_EN = 1;            
 585              		.loc 1 295 0
 586 0334 494B     		ldr	r3, .L47+12
 587 0336 0122     		movs	r2, #1
 588 0338 1A80     		strh	r2, [r3]	@ movhi
 296:RelayTest.c   ****                 
 297:RelayTest.c   ****             while( (!RTest_Test_Vbatt()) && (RelayTestStatus[TestState] != 'F') )
 589              		.loc 1 297 0
 590 033a 00BF     		nop
 591              	.L36:
 592              		.loc 1 297 0 is_stmt 0 discriminator 2
 593 033c FFF7FEFF 		bl	RTest_Test_Vbatt
 594 0340 0346     		mov	r3, r0
 595 0342 002B     		cmp	r3, #0
 596 0344 06D1     		bne	.L35
ARM GAS  C:\Users\MARTHN~1\AppData\Local\Temp\ccHF3wZv.s 			page 17


 597              		.loc 1 297 0 discriminator 1
 598 0346 424B     		ldr	r3, .L47
 599 0348 1B78     		ldrb	r3, [r3]	@ zero_extendqisi2
 600 034a 1A46     		mov	r2, r3
 601 034c 414B     		ldr	r3, .L47+4
 602 034e 9B5C     		ldrb	r3, [r3, r2]	@ zero_extendqisi2
 603 0350 462B     		cmp	r3, #70
 604 0352 F3D1     		bne	.L36
 605              	.L35:
 298:RelayTest.c   ****             {}    
 299:RelayTest.c   ****             
 300:RelayTest.c   ****             RTest_20ms_isr_EN = 0;
 606              		.loc 1 300 0 is_stmt 1
 607 0354 414B     		ldr	r3, .L47+12
 608 0356 0022     		movs	r2, #0
 609 0358 1A80     		strh	r2, [r3]	@ movhi
 301:RelayTest.c   ****             
 302:RelayTest.c   ****             if(RelayTestStatus[TestState] != 'F')                                   // If not faile
 610              		.loc 1 302 0
 611 035a 3D4B     		ldr	r3, .L47
 612 035c 1B78     		ldrb	r3, [r3]	@ zero_extendqisi2
 613 035e 1A46     		mov	r2, r3
 614 0360 3C4B     		ldr	r3, .L47+4
 615 0362 9B5C     		ldrb	r3, [r3, r2]	@ zero_extendqisi2
 616 0364 462B     		cmp	r3, #70
 617 0366 05D0     		beq	.L37
 303:RelayTest.c   ****                 RelayTestStatus[TestState] = 'P';
 618              		.loc 1 303 0
 619 0368 394B     		ldr	r3, .L47
 620 036a 1B78     		ldrb	r3, [r3]	@ zero_extendqisi2
 621 036c 1A46     		mov	r2, r3
 622 036e 394B     		ldr	r3, .L47+4
 623 0370 5021     		movs	r1, #80
 624 0372 9954     		strb	r1, [r3, r2]
 625              	.L37:
 304:RelayTest.c   ****             
 305:RelayTest.c   ****             TestState = BLOCK_CURRENTS;                
 626              		.loc 1 305 0
 627 0374 364B     		ldr	r3, .L47
 628 0376 0822     		movs	r2, #8
 629 0378 1A70     		strb	r2, [r3]
 306:RelayTest.c   ****         break; 
 630              		.loc 1 306 0
 631 037a 63E0     		b	.L2
 632              	.L12:
 307:RelayTest.c   ****          
 308:RelayTest.c   ****         case BLOCK_CURRENTS:                            //*** Tested and working
 309:RelayTest.c   ****             
 310:RelayTest.c   ****             SetRelayOutputs(1);                         // Send command to turn on relay outputs
 633              		.loc 1 310 0
 634 037c 0120     		movs	r0, #1
 635 037e FFF7FEFF 		bl	SetRelayOutputs
 311:RelayTest.c   ****                 
 312:RelayTest.c   ****             RelayTestStatus[TestState] = 'B';
 636              		.loc 1 312 0
 637 0382 334B     		ldr	r3, .L47
 638 0384 1B78     		ldrb	r3, [r3]	@ zero_extendqisi2
ARM GAS  C:\Users\MARTHN~1\AppData\Local\Temp\ccHF3wZv.s 			page 18


 639 0386 1A46     		mov	r2, r3
 640 0388 324B     		ldr	r3, .L47+4
 641 038a 4221     		movs	r1, #66
 642 038c 9954     		strb	r1, [r3, r2]
 313:RelayTest.c   **** 
 314:RelayTest.c   ****             RTest_20ms_isr_count = 0;                   // Start timeout
 643              		.loc 1 314 0
 644 038e 324B     		ldr	r3, .L47+8
 645 0390 0022     		movs	r2, #0
 646 0392 1A80     		strh	r2, [r3]	@ movhi
 315:RelayTest.c   ****             RTest_20ms_isr_EN = 1;            
 647              		.loc 1 315 0
 648 0394 314B     		ldr	r3, .L47+12
 649 0396 0122     		movs	r2, #1
 650 0398 1A80     		strh	r2, [r3]	@ movhi
 316:RelayTest.c   ****             
 317:RelayTest.c   ****             while( (!RTest_Test_BlockCurrents()) && (RelayTestStatus[TestState] != 'F') )
 651              		.loc 1 317 0
 652 039a 00BF     		nop
 653              	.L39:
 654              		.loc 1 317 0 is_stmt 0 discriminator 2
 655 039c FFF7FEFF 		bl	RTest_Test_BlockCurrents
 656 03a0 0346     		mov	r3, r0
 657 03a2 002B     		cmp	r3, #0
 658 03a4 06D1     		bne	.L38
 659              		.loc 1 317 0 discriminator 1
 660 03a6 2A4B     		ldr	r3, .L47
 661 03a8 1B78     		ldrb	r3, [r3]	@ zero_extendqisi2
 662 03aa 1A46     		mov	r2, r3
 663 03ac 294B     		ldr	r3, .L47+4
 664 03ae 9B5C     		ldrb	r3, [r3, r2]	@ zero_extendqisi2
 665 03b0 462B     		cmp	r3, #70
 666 03b2 F3D1     		bne	.L39
 667              	.L38:
 318:RelayTest.c   ****             {} 
 319:RelayTest.c   ****             
 320:RelayTest.c   ****             RTest_20ms_isr_EN = 0;                      // Stop timeout
 668              		.loc 1 320 0 is_stmt 1
 669 03b4 294B     		ldr	r3, .L47+12
 670 03b6 0022     		movs	r2, #0
 671 03b8 1A80     		strh	r2, [r3]	@ movhi
 321:RelayTest.c   ****             
 322:RelayTest.c   ****             SetRelayOutputs(0);                         // Send command to turn off relay outputs
 672              		.loc 1 322 0
 673 03ba 0020     		movs	r0, #0
 674 03bc FFF7FEFF 		bl	SetRelayOutputs
 323:RelayTest.c   ****             
 324:RelayTest.c   ****             if(RelayTestStatus[TestState] != 'F')       // If not failed, then pass
 675              		.loc 1 324 0
 676 03c0 234B     		ldr	r3, .L47
 677 03c2 1B78     		ldrb	r3, [r3]	@ zero_extendqisi2
 678 03c4 1A46     		mov	r2, r3
 679 03c6 234B     		ldr	r3, .L47+4
 680 03c8 9B5C     		ldrb	r3, [r3, r2]	@ zero_extendqisi2
 681 03ca 462B     		cmp	r3, #70
 682 03cc 05D0     		beq	.L40
 325:RelayTest.c   ****                 RelayTestStatus[TestState] = 'P';
ARM GAS  C:\Users\MARTHN~1\AppData\Local\Temp\ccHF3wZv.s 			page 19


 683              		.loc 1 325 0
 684 03ce 204B     		ldr	r3, .L47
 685 03d0 1B78     		ldrb	r3, [r3]	@ zero_extendqisi2
 686 03d2 1A46     		mov	r2, r3
 687 03d4 1F4B     		ldr	r3, .L47+4
 688 03d6 5021     		movs	r1, #80
 689 03d8 9954     		strb	r1, [r3, r2]
 690              	.L40:
 326:RelayTest.c   ****                 
 327:RelayTest.c   ****             //TestState = INITIALIZE_TEST;
 328:RelayTest.c   ****             TestState = GPS;  
 691              		.loc 1 328 0
 692 03da 1D4B     		ldr	r3, .L47
 693 03dc 0922     		movs	r2, #9
 694 03de 1A70     		strb	r2, [r3]
 329:RelayTest.c   ****         break; 
 695              		.loc 1 329 0
 696 03e0 30E0     		b	.L2
 697              	.L13:
 330:RelayTest.c   ****     //---------------------------------------------------------------------------------------------
 331:RelayTest.c   ****         case GPS:         
 332:RelayTest.c   ****                 
 333:RelayTest.c   ****             RelayTestStatus[TestState] = 'B';
 698              		.loc 1 333 0
 699 03e2 1B4B     		ldr	r3, .L47
 700 03e4 1B78     		ldrb	r3, [r3]	@ zero_extendqisi2
 701 03e6 1A46     		mov	r2, r3
 702 03e8 1A4B     		ldr	r3, .L47+4
 703 03ea 4221     		movs	r1, #66
 704 03ec 9954     		strb	r1, [r3, r2]
 334:RelayTest.c   **** 
 335:RelayTest.c   ****             RTest_20ms_isr_count = 0;
 705              		.loc 1 335 0
 706 03ee 1A4B     		ldr	r3, .L47+8
 707 03f0 0022     		movs	r2, #0
 708 03f2 1A80     		strh	r2, [r3]	@ movhi
 336:RelayTest.c   ****             RTest_20ms_isr_EN = 1;            
 709              		.loc 1 336 0
 710 03f4 194B     		ldr	r3, .L47+12
 711 03f6 0122     		movs	r2, #1
 712 03f8 1A80     		strh	r2, [r3]	@ movhi
 337:RelayTest.c   ****                 
 338:RelayTest.c   ****             while( (!RTest_Test_GPS()) && (RelayTestStatus[TestState] != 'F') )
 713              		.loc 1 338 0
 714 03fa 00BF     		nop
 715              	.L42:
 716              		.loc 1 338 0 is_stmt 0 discriminator 2
 717 03fc FFF7FEFF 		bl	RTest_Test_GPS
 718 0400 0346     		mov	r3, r0
 719 0402 002B     		cmp	r3, #0
 720 0404 06D1     		bne	.L41
 721              		.loc 1 338 0 discriminator 1
 722 0406 124B     		ldr	r3, .L47
 723 0408 1B78     		ldrb	r3, [r3]	@ zero_extendqisi2
 724 040a 1A46     		mov	r2, r3
 725 040c 114B     		ldr	r3, .L47+4
 726 040e 9B5C     		ldrb	r3, [r3, r2]	@ zero_extendqisi2
ARM GAS  C:\Users\MARTHN~1\AppData\Local\Temp\ccHF3wZv.s 			page 20


 727 0410 462B     		cmp	r3, #70
 728 0412 F3D1     		bne	.L42
 729              	.L41:
 339:RelayTest.c   ****             {}        
 340:RelayTest.c   ****             
 341:RelayTest.c   ****             RTest_20ms_isr_EN = 0;
 730              		.loc 1 341 0 is_stmt 1
 731 0414 114B     		ldr	r3, .L47+12
 732 0416 0022     		movs	r2, #0
 733 0418 1A80     		strh	r2, [r3]	@ movhi
 342:RelayTest.c   ****             
 343:RelayTest.c   ****             if(RelayTestStatus[TestState] != 'F')                                   // If not faile
 734              		.loc 1 343 0
 735 041a 0D4B     		ldr	r3, .L47
 736 041c 1B78     		ldrb	r3, [r3]	@ zero_extendqisi2
 737 041e 1A46     		mov	r2, r3
 738 0420 0C4B     		ldr	r3, .L47+4
 739 0422 9B5C     		ldrb	r3, [r3, r2]	@ zero_extendqisi2
 740 0424 462B     		cmp	r3, #70
 741 0426 05D0     		beq	.L43
 344:RelayTest.c   ****                 RelayTestStatus[TestState] = 'P';
 742              		.loc 1 344 0
 743 0428 094B     		ldr	r3, .L47
 744 042a 1B78     		ldrb	r3, [r3]	@ zero_extendqisi2
 745 042c 1A46     		mov	r2, r3
 746 042e 094B     		ldr	r3, .L47+4
 747 0430 5021     		movs	r1, #80
 748 0432 9954     		strb	r1, [r3, r2]
 749              	.L43:
 345:RelayTest.c   ****             
 346:RelayTest.c   ****             CyDelay(1000);
 750              		.loc 1 346 0
 751 0434 4FF47A70 		mov	r0, #1000
 752 0438 FFF7FEFF 		bl	CyDelay
 347:RelayTest.c   ****             TestState = INITIALIZE_TEST;                
 753              		.loc 1 347 0
 754 043c 044B     		ldr	r3, .L47
 755 043e 0022     		movs	r2, #0
 756 0440 1A70     		strb	r2, [r3]
 348:RelayTest.c   ****         break;   
 757              		.loc 1 348 0
 758 0442 00BF     		nop
 759              	.L2:
 349:RelayTest.c   ****             
 350:RelayTest.c   ****         case FAIL:  
 351:RelayTest.c   ****         
 352:RelayTest.c   ****         break;          
 353:RelayTest.c   ****            
 354:RelayTest.c   ****     }
 355:RelayTest.c   ****       
 356:RelayTest.c   ****     return(0);
 760              		.loc 1 356 0
 761 0444 0023     		movs	r3, #0
 357:RelayTest.c   ****     
 358:RelayTest.c   **** }
 762              		.loc 1 358 0
 763 0446 1846     		mov	r0, r3
ARM GAS  C:\Users\MARTHN~1\AppData\Local\Temp\ccHF3wZv.s 			page 21


 764 0448 0837     		adds	r7, r7, #8
 765              		.cfi_def_cfa_offset 8
 766 044a BD46     		mov	sp, r7
 767              		.cfi_def_cfa_register 13
 768              		@ sp needed
 769 044c 80BD     		pop	{r7, pc}
 770              	.L48:
 771 044e 00BF     		.align	2
 772              	.L47:
 773 0450 0A010000 		.word	TestState
 774 0454 00010000 		.word	RelayTestStatus
 775 0458 FC000000 		.word	RTest_20ms_isr_count
 776 045c FE000000 		.word	RTest_20ms_isr_EN
 777              		.cfi_endproc
 778              	.LFE63:
 779              		.size	RelayTest, .-RelayTest
 780              		.section	.text.RTest_Test_Outputs,"ax",%progbits
 781              		.align	2
 782              		.global	RTest_Test_Outputs
 783              		.thumb
 784              		.thumb_func
 785              		.type	RTest_Test_Outputs, %function
 786              	RTest_Test_Outputs:
 787              	.LFB64:
 359:RelayTest.c   **** 
 360:RelayTest.c   **** /* 230400bps ********************************************************************************
 361:RelayTest.c   **** *  Send 'P' packet (or 'I' packet)   (controller to relay)  - turn on all relay outputs
 362:RelayTest.c   **** *  Read Hardware                            - read each input, verify all are active
 363:RelayTest.c   **** *  Return: Pass/Fail
 364:RelayTest.c   **** *********************************************************************************************/
 365:RelayTest.c   **** uint8 RTest_Test_Outputs(void)
 366:RelayTest.c   **** {
 788              		.loc 1 366 0
 789              		.cfi_startproc
 790              		@ args = 0, pretend = 0, frame = 8
 791              		@ frame_needed = 1, uses_anonymous_args = 0
 792 0000 80B5     		push	{r7, lr}
 793              		.cfi_def_cfa_offset 8
 794              		.cfi_offset 7, -8
 795              		.cfi_offset 14, -4
 796 0002 82B0     		sub	sp, sp, #8
 797              		.cfi_def_cfa_offset 16
 798 0004 00AF     		add	r7, sp, #0
 799              		.cfi_def_cfa_register 7
 367:RelayTest.c   **** 
 368:RelayTest.c   ****     //DEMUX_CTRL_230400_Write(RTEST_CONT);                // Tx - Select the demux channel
 369:RelayTest.c   ****     pTxPacket_RelaySiren = getTxPacket_RelaySiren();              // Tx - Get pointers to packet   
 800              		.loc 1 369 0
 801 0006 FFF7FEFF 		bl	getTxPacket_RelaySiren
 802 000a 0246     		mov	r2, r0
 803 000c 204B     		ldr	r3, .L54
 804 000e 1A60     		str	r2, [r3]
 370:RelayTest.c   ****     
 371:RelayTest.c   ****     pTxPacket_RelaySiren->Payload.Outputs_1to8 = 0xFF;       // Turn on all outputs
 805              		.loc 1 371 0
 806 0010 1F4B     		ldr	r3, .L54
 807 0012 1B68     		ldr	r3, [r3]
ARM GAS  C:\Users\MARTHN~1\AppData\Local\Temp\ccHF3wZv.s 			page 22


 808 0014 FF22     		movs	r2, #255
 809 0016 83F84520 		strb	r2, [r3, #69]
 372:RelayTest.c   ****     pTxPacket_RelaySiren->Payload.Outputs_25to32 = 0xFF; 
 810              		.loc 1 372 0
 811 001a 1D4B     		ldr	r3, .L54
 812 001c 1B68     		ldr	r3, [r3]
 813 001e FF22     		movs	r2, #255
 814 0020 83F84820 		strb	r2, [r3, #72]
 373:RelayTest.c   ****     pTxPacket_RelaySiren->Payload.Outputs_9to16 = 0xFF;
 815              		.loc 1 373 0
 816 0024 1A4B     		ldr	r3, .L54
 817 0026 1B68     		ldr	r3, [r3]
 818 0028 FF22     		movs	r2, #255
 819 002a 83F84620 		strb	r2, [r3, #70]
 374:RelayTest.c   ****     pTxPacket_RelaySiren->Payload.Outputs_17to24 = 0xFF;
 820              		.loc 1 374 0
 821 002e 184B     		ldr	r3, .L54
 822 0030 1B68     		ldr	r3, [r3]
 823 0032 FF22     		movs	r2, #255
 824 0034 83F84720 		strb	r2, [r3, #71]
 375:RelayTest.c   ****     
 376:RelayTest.c   ****     //while(1);
 377:RelayTest.c   ****     
 378:RelayTest.c   ****     uint32 OutputsState = 0;
 825              		.loc 1 378 0
 826 0038 0023     		movs	r3, #0
 827 003a 3B60     		str	r3, [r7]
 828              	.LBB4:
 379:RelayTest.c   ****     static uint32 channel = 0;
 380:RelayTest.c   ****     
 381:RelayTest.c   ****     //*** Address channel 'channel 0-31' in hardware
 382:RelayTest.c   ****     //selectADCChannelMux(0);                           //*** This needs to be fleshed out when har
 383:RelayTest.c   ****     
 384:RelayTest.c   ****     for (uint8 channel=0; channel<32; channel++)
 829              		.loc 1 384 0
 830 003c 0023     		movs	r3, #0
 831 003e FB71     		strb	r3, [r7, #7]
 832 0040 02E0     		b	.L50
 833              	.L51:
 834              		.loc 1 384 0 is_stmt 0 discriminator 3
 835 0042 FB79     		ldrb	r3, [r7, #7]	@ zero_extendqisi2
 836 0044 0133     		adds	r3, r3, #1
 837 0046 FB71     		strb	r3, [r7, #7]
 838              	.L50:
 839              		.loc 1 384 0 discriminator 1
 840 0048 FB79     		ldrb	r3, [r7, #7]	@ zero_extendqisi2
 841 004a 1F2B     		cmp	r3, #31
 842 004c F9D9     		bls	.L51
 843              	.LBE4:
 385:RelayTest.c   ****     {
 386:RelayTest.c   ****         //*** Address channel 'channel'
 387:RelayTest.c   ****         // OutputsState = ( RTest_INPUT_DEMUX | (RTest_INPUT_DEMUX << channel) )    // Read RTest_I
 388:RelayTest.c   ****     }
 389:RelayTest.c   ****     
 390:RelayTest.c   ****     pTxPacket_RelaySiren->Payload.Outputs_1to8 = 0x00;       // Turn off all Relay outputs
 844              		.loc 1 390 0 is_stmt 1
 845 004e 104B     		ldr	r3, .L54
ARM GAS  C:\Users\MARTHN~1\AppData\Local\Temp\ccHF3wZv.s 			page 23


 846 0050 1B68     		ldr	r3, [r3]
 847 0052 0022     		movs	r2, #0
 848 0054 83F84520 		strb	r2, [r3, #69]
 391:RelayTest.c   ****     pTxPacket_RelaySiren->Payload.Outputs_9to16 = 0x00;
 849              		.loc 1 391 0
 850 0058 0D4B     		ldr	r3, .L54
 851 005a 1B68     		ldr	r3, [r3]
 852 005c 0022     		movs	r2, #0
 853 005e 83F84620 		strb	r2, [r3, #70]
 392:RelayTest.c   ****     pTxPacket_RelaySiren->Payload.Outputs_17to24 = 0x00;
 854              		.loc 1 392 0
 855 0062 0B4B     		ldr	r3, .L54
 856 0064 1B68     		ldr	r3, [r3]
 857 0066 0022     		movs	r2, #0
 858 0068 83F84720 		strb	r2, [r3, #71]
 393:RelayTest.c   ****     pTxPacket_RelaySiren->Payload.Outputs_25to32 = 0x00;
 859              		.loc 1 393 0
 860 006c 084B     		ldr	r3, .L54
 861 006e 1B68     		ldr	r3, [r3]
 862 0070 0022     		movs	r2, #0
 863 0072 83F84820 		strb	r2, [r3, #72]
 394:RelayTest.c   ****     
 395:RelayTest.c   ****     if(OutputsState == 0xFFFFFF)
 864              		.loc 1 395 0
 865 0076 3B68     		ldr	r3, [r7]
 866 0078 6FF07F42 		mvn	r2, #-16777216
 867 007c 9342     		cmp	r3, r2
 868 007e 01D1     		bne	.L52
 396:RelayTest.c   ****         return(1);                                      // If all outputs are turned on, then retur
 869              		.loc 1 396 0
 870 0080 0123     		movs	r3, #1
 871 0082 00E0     		b	.L53
 872              	.L52:
 397:RelayTest.c   ****     else
 398:RelayTest.c   ****         return(0);                                      // If not pass, then return fail
 873              		.loc 1 398 0
 874 0084 0023     		movs	r3, #0
 875              	.L53:
 399:RelayTest.c   **** }
 876              		.loc 1 399 0
 877 0086 1846     		mov	r0, r3
 878 0088 0837     		adds	r7, r7, #8
 879              		.cfi_def_cfa_offset 8
 880 008a BD46     		mov	sp, r7
 881              		.cfi_def_cfa_register 13
 882              		@ sp needed
 883 008c 80BD     		pop	{r7, pc}
 884              	.L55:
 885 008e 00BF     		.align	2
 886              	.L54:
 887 0090 64000000 		.word	pTxPacket_RelaySiren
 888              		.cfi_endproc
 889              	.LFE64:
 890              		.size	RTest_Test_Outputs, .-RTest_Test_Outputs
 891              		.section	.text.RTest_Test_DataLink,"ax",%progbits
 892              		.align	2
 893              		.global	RTest_Test_DataLink
ARM GAS  C:\Users\MARTHN~1\AppData\Local\Temp\ccHF3wZv.s 			page 24


 894              		.thumb
 895              		.thumb_func
 896              		.type	RTest_Test_DataLink, %function
 897              	RTest_Test_DataLink:
 898              	.LFB65:
 400:RelayTest.c   **** 
 401:RelayTest.c   **** /* 230400/115200bps **************************************************************************
 402:RelayTest.c   **** *  230400 - Tx - Send 'S' packet   (controller to relay/siren)    - turn on all relay outputs
 403:RelayTest.c   **** *  115200 - Rx - Read 'S' packet   (relay to datalink device)     - verify successful packet recept
 404:RelayTest.c   **** *  Return: Pass/Fail
 405:RelayTest.c   **** *********************************************************************************************/
 406:RelayTest.c   **** uint8 RTest_Test_DataLink(void)
 407:RelayTest.c   **** {
 899              		.loc 1 407 0
 900              		.cfi_startproc
 901              		@ args = 0, pretend = 0, frame = 0
 902              		@ frame_needed = 1, uses_anonymous_args = 0
 903              		@ link register save eliminated.
 904 0000 80B4     		push	{r7}
 905              		.cfi_def_cfa_offset 4
 906              		.cfi_offset 7, -4
 907 0002 00AF     		add	r7, sp, #0
 908              		.cfi_def_cfa_register 7
 408:RelayTest.c   ****     
 409:RelayTest.c   **** //    //*** 230400bps - Send simulated controller packet - (siren packet)
 410:RelayTest.c   **** //    //  (I think this packet should be sent all the time)
 411:RelayTest.c   **** //        pTxPacket_Relay->Payload.Siren1Tone;
 412:RelayTest.c   **** //        pTxPacket_Relay->Payload.Siren2Tone;
 413:RelayTest.c   **** //        pTxPacket_Relay->Payload.SirenEnable;
 414:RelayTest.c   ****     
 415:RelayTest.c   **** //    //MUX_CTRL_115200_Write(RTEST_DLINK1);            //Select the RTest_RS485_DLink1_RX channel 
 416:RelayTest.c   **** //    while( !VerifyPacket_115200(RTEST_DLINK1) )     //Read and verify datalink packet
 417:RelayTest.c   **** //    {}
 418:RelayTest.c   **** //    //MUX_CTRL_115200_Write(RTEST_DLINK2);            //Select the RTest_RS485_DLink1_RX channel 
 419:RelayTest.c   **** //    while( !VerifyPacket_115200(RTEST_DLINK2) )     //Read and verify datalink packet
 420:RelayTest.c   **** //    {}
 421:RelayTest.c   ****     
 422:RelayTest.c   ****     return(1);                                      // If both packets get verified, then return pa
 909              		.loc 1 422 0
 910 0004 0123     		movs	r3, #1
 423:RelayTest.c   **** }
 911              		.loc 1 423 0
 912 0006 1846     		mov	r0, r3
 913 0008 BD46     		mov	sp, r7
 914              		.cfi_def_cfa_register 13
 915              		@ sp needed
 916 000a 80BC     		pop	{r7}
 917              		.cfi_restore 7
 918              		.cfi_def_cfa_offset 0
 919 000c 7047     		bx	lr
 920              		.cfi_endproc
 921              	.LFE65:
 922              		.size	RTest_Test_DataLink, .-RTest_Test_DataLink
 923 000e 00BF     		.section	.text.RTest_Test_QuadPorts,"ax",%progbits
 924              		.align	2
 925              		.global	RTest_Test_QuadPorts
 926              		.thumb
ARM GAS  C:\Users\MARTHN~1\AppData\Local\Temp\ccHF3wZv.s 			page 25


 927              		.thumb_func
 928              		.type	RTest_Test_QuadPorts, %function
 929              	RTest_Test_QuadPorts:
 930              	.LFB66:
 424:RelayTest.c   **** 
 425:RelayTest.c   **** /* 460800bps ********************************************************************************
 426:RelayTest.c   **** *  Send 'L' packet   (controller to relay)
 427:RelayTest.c   **** *  Read 'L' packet   (relay to quad device)  - verify successful packet reception
 428:RelayTest.c   **** *  Return: Pass/Fail
 429:RelayTest.c   **** *********************************************************************************************/
 430:RelayTest.c   **** uint8 RTest_Test_QuadPorts(void)
 431:RelayTest.c   **** {
 931              		.loc 1 431 0
 932              		.cfi_startproc
 933              		@ args = 0, pretend = 0, frame = 8
 934              		@ frame_needed = 1, uses_anonymous_args = 0
 935 0000 80B5     		push	{r7, lr}
 936              		.cfi_def_cfa_offset 8
 937              		.cfi_offset 7, -8
 938              		.cfi_offset 14, -4
 939 0002 82B0     		sub	sp, sp, #8
 940              		.cfi_def_cfa_offset 16
 941 0004 00AF     		add	r7, sp, #0
 942              		.cfi_def_cfa_register 7
 943              	.LBB5:
 432:RelayTest.c   ****     //*** Next Steps
 433:RelayTest.c   ****     //  1 - Place new micro and get rev02 siren up and running
 434:RelayTest.c   ****     //  2 - Setup hardware to read in RS-485 from quad port 1 on the relay, and send quad data thro
 435:RelayTest.c   ****     //  3 - Setup relay to receive UART quad data through correct channel
 436:RelayTest.c   ****     
 437:RelayTest.c   ****     
 438:RelayTest.c   ****     
 439:RelayTest.c   ****     //DEMUX_CTRL_460800_Write(RTEST_QUAD_TX);             // Tx - Select Quad_Tx demux channel
 440:RelayTest.c   ****     
 441:RelayTest.c   ****     //*** Select the mux channel to test - need to do all of them sequentially
 442:RelayTest.c   ****     for(uint8 muxchannel = 0; muxchannel < 8; muxchannel++)
 944              		.loc 1 442 0
 945 0006 0023     		movs	r3, #0
 946 0008 FB71     		strb	r3, [r7, #7]
 947 000a 02E0     		b	.L59
 948              	.L60:
 949              		.loc 1 442 0 is_stmt 0 discriminator 3
 950 000c FB79     		ldrb	r3, [r7, #7]	@ zero_extendqisi2
 951 000e 0133     		adds	r3, r3, #1
 952 0010 FB71     		strb	r3, [r7, #7]
 953              	.L59:
 954              		.loc 1 442 0 discriminator 1
 955 0012 FB79     		ldrb	r3, [r7, #7]	@ zero_extendqisi2
 956 0014 072B     		cmp	r3, #7
 957 0016 F9D9     		bls	.L60
 958              	.LBE5:
 443:RelayTest.c   ****     {
 444:RelayTest.c   ****         //MUX_CTRL_460800_Write(muxchannel);
 445:RelayTest.c   ****         
 446:RelayTest.c   ****         // verify that channel
 447:RelayTest.c   ****     }
 448:RelayTest.c   ****     
ARM GAS  C:\Users\MARTHN~1\AppData\Local\Temp\ccHF3wZv.s 			page 26


 449:RelayTest.c   ****     return( VerifyPacket_460800(QTEST_QUAD) );
 959              		.loc 1 449 0 is_stmt 1
 960 0018 0320     		movs	r0, #3
 961 001a FFF7FEFF 		bl	VerifyPacket_460800
 962 001e 0346     		mov	r3, r0
 450:RelayTest.c   **** }
 963              		.loc 1 450 0
 964 0020 1846     		mov	r0, r3
 965 0022 0837     		adds	r7, r7, #8
 966              		.cfi_def_cfa_offset 8
 967 0024 BD46     		mov	sp, r7
 968              		.cfi_def_cfa_register 13
 969              		@ sp needed
 970 0026 80BD     		pop	{r7, pc}
 971              		.cfi_endproc
 972              	.LFE66:
 973              		.size	RTest_Test_QuadPorts, .-RTest_Test_QuadPorts
 974              		.section	.text.RTest_Test_UART_Siren,"ax",%progbits
 975              		.align	2
 976              		.global	RTest_Test_UART_Siren
 977              		.thumb
 978              		.thumb_func
 979              		.type	RTest_Test_UART_Siren, %function
 980              	RTest_Test_UART_Siren:
 981              	.LFB67:
 451:RelayTest.c   **** 
 452:RelayTest.c   **** //*** This needs some work
 453:RelayTest.c   **** /* 230400bps ********************************************************************************
 454:RelayTest.c   **** *  ***Send 'H' packet   (siren to relay)
 455:RelayTest.c   **** *  ***Read 'D' packet   (relay to controller)   - verify successful packet reception
 456:RelayTest.c   **** *  Return: Pass/Fail
 457:RelayTest.c   **** *********************************************************************************************/
 458:RelayTest.c   **** uint8 RTest_Test_UART_Siren(void)
 459:RelayTest.c   **** {
 982              		.loc 1 459 0
 983              		.cfi_startproc
 984              		@ args = 0, pretend = 0, frame = 0
 985              		@ frame_needed = 1, uses_anonymous_args = 0
 986 0000 80B5     		push	{r7, lr}
 987              		.cfi_def_cfa_offset 8
 988              		.cfi_offset 7, -8
 989              		.cfi_offset 14, -4
 990 0002 00AF     		add	r7, sp, #0
 991              		.cfi_def_cfa_register 7
 460:RelayTest.c   **** // We need to send a Siren packet (through relay to controller) - ***passes through the micro
 461:RelayTest.c   **** // Then check the packet going from the relay to the controller    
 462:RelayTest.c   ****    
 463:RelayTest.c   ****     DEMUX_CTRL_230400_Write(RTEST_SIREN);                  // Rx - Select the demux channel
 992              		.loc 1 463 0
 993 0004 0220     		movs	r0, #2
 994 0006 FFF7FEFF 		bl	DEMUX_CTRL_230400_Write
 464:RelayTest.c   ****     
 465:RelayTest.c   **** //    pTxPacket_RelaySiren = getTxPacket_RelaySiren();        // Tx - Get pointers to packet
 466:RelayTest.c   **** //        pTxPacket_RelaySiren->Payload.Siren1Tone = 0;       // Load the packet with data
 467:RelayTest.c   **** //        pTxPacket_RelaySiren->Payload.Siren2Tone = 0;
 468:RelayTest.c   **** //        pTxPacket_RelaySiren->Payload.SirenEnable = 0;
 469:RelayTest.c   ****     
ARM GAS  C:\Users\MARTHN~1\AppData\Local\Temp\ccHF3wZv.s 			page 27


 470:RelayTest.c   ****     MUX_CTRL_230400_Write(RTEST_CONT);                  // Rx - Select the mux channel
 995              		.loc 1 470 0
 996 000a 0120     		movs	r0, #1
 997 000c FFF7FEFF 		bl	MUX_CTRL_230400_Write
 471:RelayTest.c   ****     
 472:RelayTest.c   **** //        pRxPacket_Siren = getRxPacket_Siren();        // Tx - Get pointers to packet
 473:RelayTest.c   **** //        pRxPacket_Siren
 474:RelayTest.c   ****         
 475:RelayTest.c   ****     //while( !VerifyPacket_230400(RTEST_SIREN) )          // Wait for the packet to be verified
 476:RelayTest.c   ****     {}
 477:RelayTest.c   ****           
 478:RelayTest.c   ****       
 479:RelayTest.c   **** //----------------------------------------------------------------------------------------------
 480:RelayTest.c   ****     
 481:RelayTest.c   **** // ***We need to detect a packet going (from the relay to the siren)
 482:RelayTest.c   **** // Send a 'S' packet (from controller to relay/siren)
 483:RelayTest.c   **** // Read and verify 'S' packets (from relay to siren)
 484:RelayTest.c   ****     
 485:RelayTest.c   ****     //DEMUX_CTRL_230400_Write(RTEST_CONT);                // Tx - Select the demux channel
 486:RelayTest.c   **** //    pTxPacket_Relay = getTxPacket_Relay();              // Tx - Get pointers to packet
 487:RelayTest.c   **** //    
 488:RelayTest.c   **** //    pTxPacket_Relay->Payload.SirenFirm_0 = 0;          // Tx - Setup packet with test data
 489:RelayTest.c   **** //    pTxPacket_Relay->Payload.SirenFirm_1 = 1;
 490:RelayTest.c   **** //    pTxPacket_Relay->Payload.SirenFirm_2 = 2;
 491:RelayTest.c   **** //    pTxPacket_Relay->Payload.Speaker1_Overcurrent = 1;
 492:RelayTest.c   **** //    pTxPacket_Relay->Payload.Speaker2_Overcurrent = 1;
 493:RelayTest.c   ****     
 494:RelayTest.c   ****     //***
 495:RelayTest.c   ****     //return( VerifyPacket_230400(RTEST_CONT) );          // Rx - When packet has been verified, re
 496:RelayTest.c   **** 
 497:RelayTest.c   ****     return(0);
 998              		.loc 1 497 0
 999 0010 0023     		movs	r3, #0
 498:RelayTest.c   **** }
 1000              		.loc 1 498 0
 1001 0012 1846     		mov	r0, r3
 1002 0014 80BD     		pop	{r7, pc}
 1003              		.cfi_endproc
 1004              	.LFE67:
 1005              		.size	RTest_Test_UART_Siren, .-RTest_Test_UART_Siren
 1006 0016 00BF     		.section	.text.RTest_Test_Inputs,"ax",%progbits
 1007              		.align	2
 1008              		.global	RTest_Test_Inputs
 1009              		.thumb
 1010              		.thumb_func
 1011              		.type	RTest_Test_Inputs, %function
 1012              	RTest_Test_Inputs:
 1013              	.LFB68:
 499:RelayTest.c   **** 
 500:RelayTest.c   **** 
 501:RelayTest.c   **** /* 230400bps *****************************************************************************
 502:RelayTest.c   **** *  Send 'P' packet (controller to relay) - set input logic  
 503:RelayTest.c   **** *  Read 'D' packet (relay to controller) - verify the 'RelayInputs' byte 
 504:RelayTest.c   **** *  Return: Pass/Fail
 505:RelayTest.c   **** ******************************************************************************************/
 506:RelayTest.c   **** uint8 RTest_Test_Inputs(void)
 507:RelayTest.c   **** {
ARM GAS  C:\Users\MARTHN~1\AppData\Local\Temp\ccHF3wZv.s 			page 28


 1014              		.loc 1 507 0
 1015              		.cfi_startproc
 1016              		@ args = 0, pretend = 0, frame = 0
 1017              		@ frame_needed = 1, uses_anonymous_args = 0
 1018 0000 80B5     		push	{r7, lr}
 1019              		.cfi_def_cfa_offset 8
 1020              		.cfi_offset 7, -8
 1021              		.cfi_offset 14, -4
 1022 0002 00AF     		add	r7, sp, #0
 1023              		.cfi_def_cfa_register 7
 508:RelayTest.c   ****     
 509:RelayTest.c   ****     //MUX_CTRL_230400_Write(RTEST_CONT);                  // Rx - Select the mux channel
 510:RelayTest.c   ****     pRxPacket_Relay = getRxPacket_Relay();              // Rx - Get pointers to packet
 1024              		.loc 1 510 0
 1025 0004 FFF7FEFF 		bl	getRxPacket_Relay
 1026 0008 0246     		mov	r2, r0
 1027 000a 0F4B     		ldr	r3, .L67
 1028 000c 1A60     		str	r2, [r3]
 511:RelayTest.c   ****     
 512:RelayTest.c   ****     DEMUX_CTRL_230400_Write(RTEST_CONT);                // Tx - Select the demux channel
 1029              		.loc 1 512 0
 1030 000e 0120     		movs	r0, #1
 1031 0010 FFF7FEFF 		bl	DEMUX_CTRL_230400_Write
 513:RelayTest.c   ****     pTxPacket_RelaySiren = getTxPacket_RelaySiren();              // Tx - Get pointers to packet
 1032              		.loc 1 513 0
 1033 0014 FFF7FEFF 		bl	getTxPacket_RelaySiren
 1034 0018 0246     		mov	r2, r0
 1035 001a 0C4B     		ldr	r3, .L67+4
 1036 001c 1A60     		str	r2, [r3]
 514:RelayTest.c   ****     
 515:RelayTest.c   ****     // RTest_HSide1_Write(0);                           // Deactivate all inputs
 516:RelayTest.c   ****     // RTest_HSide2_Write(0);
 517:RelayTest.c   ****     // RTest_HSide3_Write(0);
 518:RelayTest.c   ****     // RTest_HSide4_Write(0);
 519:RelayTest.c   ****     // RTest_HSide5_Write(0);
 520:RelayTest.c   ****     // RTest_HSide6_Write(0);
 521:RelayTest.c   ****     // RTest_HSide7_Write(0);
 522:RelayTest.c   ****     // RTest_HSide8_Write(0);
 523:RelayTest.c   ****     
 524:RelayTest.c   ****     pTxPacket_RelaySiren->Payload.HiLoInputLogic = 0x00;     // Set the input logic to be all low
 1037              		.loc 1 524 0
 1038 001e 0B4B     		ldr	r3, .L67+4
 1039 0020 1B68     		ldr	r3, [r3]
 1040 0022 0022     		movs	r2, #0
 1041 0024 83F84920 		strb	r2, [r3, #73]
 525:RelayTest.c   ****     
 526:RelayTest.c   ****     //while(1);
 527:RelayTest.c   ****     
 528:RelayTest.c   **** //    if(pRxPacket_Relay->Payload.RelayInputs != 0x00)    // Verify all inputs are deactivated, if 
 529:RelayTest.c   **** //        return(0);
 530:RelayTest.c   ****     
 531:RelayTest.c   ****     pTxPacket_RelaySiren->Payload.HiLoInputLogic = 0xFF;     // Set the input logic to be all hi
 1042              		.loc 1 531 0
 1043 0028 084B     		ldr	r3, .L67+4
 1044 002a 1B68     		ldr	r3, [r3]
 1045 002c FF22     		movs	r2, #255
 1046 002e 83F84920 		strb	r2, [r3, #73]
ARM GAS  C:\Users\MARTHN~1\AppData\Local\Temp\ccHF3wZv.s 			page 29


 532:RelayTest.c   ****     
 533:RelayTest.c   ****     
 534:RelayTest.c   ****     
 535:RelayTest.c   **** //    if(pRxPacket_Relay->Payload.RelayInputs != 0x00)    // Verify all inputs are deactivated, if 
 536:RelayTest.c   **** //        return(0);
 537:RelayTest.c   ****     
 538:RelayTest.c   ****     // RTest_HSide1_Write(1);                           // Activate all inputs
 539:RelayTest.c   ****     // RTest_HSide2_Write(1);
 540:RelayTest.c   ****     // RTest_HSide3_Write(1);
 541:RelayTest.c   ****     // RTest_HSide4_Write(1);
 542:RelayTest.c   ****     // RTest_HSide5_Write(1);
 543:RelayTest.c   ****     // RTest_HSide6_Write(1);
 544:RelayTest.c   ****     // RTest_HSide7_Write(1);
 545:RelayTest.c   ****     // RTest_HSide8_Write(1);
 546:RelayTest.c   ****     
 547:RelayTest.c   ****     if(pRxPacket_Relay->Payload.RelayInputs != 0xFF)    // Verify all inputs are activated, if not 
 1047              		.loc 1 547 0
 1048 0032 054B     		ldr	r3, .L67
 1049 0034 1B68     		ldr	r3, [r3]
 1050 0036 DB79     		ldrb	r3, [r3, #7]	@ zero_extendqisi2
 1051 0038 FF2B     		cmp	r3, #255
 1052 003a 01D0     		beq	.L65
 548:RelayTest.c   ****         return(0);
 1053              		.loc 1 548 0
 1054 003c 0023     		movs	r3, #0
 1055 003e 00E0     		b	.L66
 1056              	.L65:
 549:RelayTest.c   ****     
 550:RelayTest.c   ****     return(1);                                          // If this step was not failed, return pass
 1057              		.loc 1 550 0
 1058 0040 0123     		movs	r3, #1
 1059              	.L66:
 551:RelayTest.c   **** }
 1060              		.loc 1 551 0
 1061 0042 1846     		mov	r0, r3
 1062 0044 80BD     		pop	{r7, pc}
 1063              	.L68:
 1064 0046 00BF     		.align	2
 1065              	.L67:
 1066 0048 10000000 		.word	pRxPacket_Relay
 1067 004c 64000000 		.word	pTxPacket_RelaySiren
 1068              		.cfi_endproc
 1069              	.LFE68:
 1070              		.size	RTest_Test_Inputs, .-RTest_Test_Inputs
 1071              		.section	.text.RTest_Test_Vbatt,"ax",%progbits
 1072              		.align	2
 1073              		.global	RTest_Test_Vbatt
 1074              		.thumb
 1075              		.thumb_func
 1076              		.type	RTest_Test_Vbatt, %function
 1077              	RTest_Test_Vbatt:
 1078              	.LFB69:
 552:RelayTest.c   **** 
 553:RelayTest.c   **** 
 554:RelayTest.c   **** /* 230400bps *****************************************************************************
 555:RelayTest.c   **** *  Read a 'D' packet (relay to controller)  - verify the 'Voltage_BATT' byte
 556:RelayTest.c   **** *  Return: Pass/Fail
ARM GAS  C:\Users\MARTHN~1\AppData\Local\Temp\ccHF3wZv.s 			page 30


 557:RelayTest.c   **** ******************************************************************************************/
 558:RelayTest.c   **** uint8 RTest_Test_Vbatt(void)
 559:RelayTest.c   **** {
 1079              		.loc 1 559 0
 1080              		.cfi_startproc
 1081              		@ args = 0, pretend = 0, frame = 8
 1082              		@ frame_needed = 1, uses_anonymous_args = 0
 1083 0000 80B5     		push	{r7, lr}
 1084              		.cfi_def_cfa_offset 8
 1085              		.cfi_offset 7, -8
 1086              		.cfi_offset 14, -4
 1087 0002 82B0     		sub	sp, sp, #8
 1088              		.cfi_def_cfa_offset 16
 1089 0004 00AF     		add	r7, sp, #0
 1090              		.cfi_def_cfa_register 7
 560:RelayTest.c   **** //    MUX_CTRL_230400_Write(RTEST_CONT);                              // Rx - Select the mux channe
 561:RelayTest.c   ****     pRxPacket_Relay = getRxPacket_Relay();                          // Rx - Get pointers to packet
 1091              		.loc 1 561 0
 1092 0006 FFF7FEFF 		bl	getRxPacket_Relay
 1093 000a 0246     		mov	r2, r0
 1094 000c 0A4B     		ldr	r3, .L72
 1095 000e 1A60     		str	r2, [r3]
 562:RelayTest.c   ****     
 563:RelayTest.c   ****     uint8 Vbatt_Reading = 0;
 1096              		.loc 1 563 0
 1097 0010 0023     		movs	r3, #0
 1098 0012 FB71     		strb	r3, [r7, #7]
 564:RelayTest.c   ****     
 565:RelayTest.c   ****     Vbatt_Reading = pRxPacket_Relay->Payload.Voltage_BATT;          // Read Vbatt value
 1099              		.loc 1 565 0
 1100 0014 084B     		ldr	r3, .L72
 1101 0016 1B68     		ldr	r3, [r3]
 1102 0018 1B79     		ldrb	r3, [r3, #4]
 1103 001a FB71     		strb	r3, [r7, #7]
 566:RelayTest.c   ****     
 567:RelayTest.c   ****     if( (Vbatt_Reading < (VOLTAGE_SYSTEM + TOLERANCE_VOLTAGE) ) &&
 1104              		.loc 1 567 0
 1105 001c FB79     		ldrb	r3, [r7, #7]	@ zero_extendqisi2
 1106 001e 7C2B     		cmp	r3, #124
 1107 0020 04D8     		bhi	.L70
 1108              		.loc 1 567 0 is_stmt 0 discriminator 1
 1109 0022 FB79     		ldrb	r3, [r7, #7]	@ zero_extendqisi2
 1110 0024 732B     		cmp	r3, #115
 1111 0026 01D9     		bls	.L70
 568:RelayTest.c   ****         (Vbatt_Reading > (VOLTAGE_SYSTEM - TOLERANCE_VOLTAGE) ) )
 569:RelayTest.c   ****         return(1);                                                  // If Vbatt is within TOLERANCE
 1112              		.loc 1 569 0 is_stmt 1
 1113 0028 0123     		movs	r3, #1
 1114 002a 00E0     		b	.L71
 1115              	.L70:
 570:RelayTest.c   ****     else
 571:RelayTest.c   ****         return(0);                                                  // If not pass, then return fai
 1116              		.loc 1 571 0
 1117 002c 0023     		movs	r3, #0
 1118              	.L71:
 572:RelayTest.c   **** }
 1119              		.loc 1 572 0
ARM GAS  C:\Users\MARTHN~1\AppData\Local\Temp\ccHF3wZv.s 			page 31


 1120 002e 1846     		mov	r0, r3
 1121 0030 0837     		adds	r7, r7, #8
 1122              		.cfi_def_cfa_offset 8
 1123 0032 BD46     		mov	sp, r7
 1124              		.cfi_def_cfa_register 13
 1125              		@ sp needed
 1126 0034 80BD     		pop	{r7, pc}
 1127              	.L73:
 1128 0036 00BF     		.align	2
 1129              	.L72:
 1130 0038 10000000 		.word	pRxPacket_Relay
 1131              		.cfi_endproc
 1132              	.LFE69:
 1133              		.size	RTest_Test_Vbatt, .-RTest_Test_Vbatt
 1134              		.section	.text.RTest_Test_BlockCurrents,"ax",%progbits
 1135              		.align	2
 1136              		.global	RTest_Test_BlockCurrents
 1137              		.thumb
 1138              		.thumb_func
 1139              		.type	RTest_Test_BlockCurrents, %function
 1140              	RTest_Test_BlockCurrents:
 1141              	.LFB70:
 573:RelayTest.c   **** 
 574:RelayTest.c   **** /* 230400bps ***************************************************************
 575:RelayTest.c   **** *  Send a 'P'/'I' packet (controller to relay)  - Controller packet to turn on all the Relay output
 576:RelayTest.c   **** *  Read a 'D' packet (relay to controller)  - verify block currents are within a tolerance
 577:RelayTest.c   **** ****************************************************************************/
 578:RelayTest.c   **** uint8 RTest_Test_BlockCurrents(void)
 579:RelayTest.c   **** {
 1142              		.loc 1 579 0
 1143              		.cfi_startproc
 1144              		@ args = 0, pretend = 0, frame = 8
 1145              		@ frame_needed = 1, uses_anonymous_args = 0
 1146 0000 80B5     		push	{r7, lr}
 1147              		.cfi_def_cfa_offset 8
 1148              		.cfi_offset 7, -8
 1149              		.cfi_offset 14, -4
 1150 0002 82B0     		sub	sp, sp, #8
 1151              		.cfi_def_cfa_offset 16
 1152 0004 00AF     		add	r7, sp, #0
 1153              		.cfi_def_cfa_register 7
 580:RelayTest.c   ****     
 581:RelayTest.c   ****     uint8 BlockCurrentPass = 0x00;
 1154              		.loc 1 581 0
 1155 0006 0023     		movs	r3, #0
 1156 0008 FB71     		strb	r3, [r7, #7]
 582:RelayTest.c   ****     uint8 BlockCurrentValue = 0x00;
 1157              		.loc 1 582 0
 1158 000a 0023     		movs	r3, #0
 1159 000c 7B71     		strb	r3, [r7, #5]
 583:RelayTest.c   ****     
 584:RelayTest.c   **** //    MUX_CTRL_230400_Write(RTEST_CONT);                  // Rx - Select the mux channel 
 585:RelayTest.c   ****     pRxPacket_Relay = getRxPacket_Relay();              // Rx - Get pointers to packet
 1160              		.loc 1 585 0
 1161 000e FFF7FEFF 		bl	getRxPacket_Relay
 1162 0012 0246     		mov	r2, r0
 1163 0014 144B     		ldr	r3, .L79
ARM GAS  C:\Users\MARTHN~1\AppData\Local\Temp\ccHF3wZv.s 			page 32


 1164 0016 1A60     		str	r2, [r3]
 586:RelayTest.c   ****     
 587:RelayTest.c   ****     //DEMUX_CTRL_230400_Write(RTEST_CONT);                // Tx - Select the demux channel
 588:RelayTest.c   ****     pTxPacket_RelaySiren = getTxPacket_RelaySiren();              // Tx - Get pointers to packet
 1165              		.loc 1 588 0
 1166 0018 FFF7FEFF 		bl	getTxPacket_RelaySiren
 1167 001c 0246     		mov	r2, r0
 1168 001e 134B     		ldr	r3, .L79+4
 1169 0020 1A60     		str	r2, [r3]
 1170              	.LBB6:
 589:RelayTest.c   ****     
 590:RelayTest.c   ****     for(uint8 i=0;i<4;i++)                              // Save pass/fail for each block channel
 1171              		.loc 1 590 0
 1172 0022 0023     		movs	r3, #0
 1173 0024 BB71     		strb	r3, [r7, #6]
 1174 0026 10E0     		b	.L75
 1175              	.L76:
 591:RelayTest.c   ****     {
 592:RelayTest.c   ****         BlockCurrentValue = RTest_BlockCurrent(i);
 1176              		.loc 1 592 0 discriminator 3
 1177 0028 BB79     		ldrb	r3, [r7, #6]	@ zero_extendqisi2
 1178 002a 1846     		mov	r0, r3
 1179 002c FFF7FEFF 		bl	RTest_BlockCurrent
 1180 0030 0346     		mov	r3, r0
 1181 0032 7B71     		strb	r3, [r7, #5]
 593:RelayTest.c   ****         BlockCurrentPass = (BlockCurrentPass << 1) | BlockCurrentValue;
 1182              		.loc 1 593 0 discriminator 3
 1183 0034 FB79     		ldrb	r3, [r7, #7]	@ zero_extendqisi2
 1184 0036 5B00     		lsls	r3, r3, #1
 1185 0038 5AB2     		sxtb	r2, r3
 1186 003a 97F90530 		ldrsb	r3, [r7, #5]
 1187 003e 1343     		orrs	r3, r3, r2
 1188 0040 5BB2     		sxtb	r3, r3
 1189 0042 FB71     		strb	r3, [r7, #7]
 590:RelayTest.c   ****     {
 1190              		.loc 1 590 0 discriminator 3
 1191 0044 BB79     		ldrb	r3, [r7, #6]	@ zero_extendqisi2
 1192 0046 0133     		adds	r3, r3, #1
 1193 0048 BB71     		strb	r3, [r7, #6]
 1194              	.L75:
 590:RelayTest.c   ****     {
 1195              		.loc 1 590 0 is_stmt 0 discriminator 1
 1196 004a BB79     		ldrb	r3, [r7, #6]	@ zero_extendqisi2
 1197 004c 032B     		cmp	r3, #3
 1198 004e EBD9     		bls	.L76
 1199              	.LBE6:
 594:RelayTest.c   ****     }
 595:RelayTest.c   ****     
 596:RelayTest.c   ****     if( (BlockCurrentPass & 0x0F) == 0x0F)
 1200              		.loc 1 596 0 is_stmt 1
 1201 0050 FB79     		ldrb	r3, [r7, #7]	@ zero_extendqisi2
 1202 0052 03F00F03 		and	r3, r3, #15
 1203 0056 0F2B     		cmp	r3, #15
 1204 0058 01D1     		bne	.L77
 597:RelayTest.c   ****         return(1);                                      // If all block currents are within TOLERAN
 1205              		.loc 1 597 0
 1206 005a 0123     		movs	r3, #1
ARM GAS  C:\Users\MARTHN~1\AppData\Local\Temp\ccHF3wZv.s 			page 33


 1207 005c 00E0     		b	.L78
 1208              	.L77:
 598:RelayTest.c   ****     else
 599:RelayTest.c   ****         return(0);                                      // If not pass, then return fail
 1209              		.loc 1 599 0
 1210 005e 0023     		movs	r3, #0
 1211              	.L78:
 600:RelayTest.c   **** 
 601:RelayTest.c   **** }
 1212              		.loc 1 601 0
 1213 0060 1846     		mov	r0, r3
 1214 0062 0837     		adds	r7, r7, #8
 1215              		.cfi_def_cfa_offset 8
 1216 0064 BD46     		mov	sp, r7
 1217              		.cfi_def_cfa_register 13
 1218              		@ sp needed
 1219 0066 80BD     		pop	{r7, pc}
 1220              	.L80:
 1221              		.align	2
 1222              	.L79:
 1223 0068 10000000 		.word	pRxPacket_Relay
 1224 006c 64000000 		.word	pTxPacket_RelaySiren
 1225              		.cfi_endproc
 1226              	.LFE70:
 1227              		.size	RTest_Test_BlockCurrents, .-RTest_Test_BlockCurrents
 1228              		.section	.text.RTest_Test_GPS,"ax",%progbits
 1229              		.align	2
 1230              		.global	RTest_Test_GPS
 1231              		.thumb
 1232              		.thumb_func
 1233              		.type	RTest_Test_GPS, %function
 1234              	RTest_Test_GPS:
 1235              	.LFB71:
 602:RelayTest.c   **** 
 603:RelayTest.c   **** /* 230400bps ****************************************************
 604:RelayTest.c   **** *   (wait for the GPS hardware to acquire a signal)
 605:RelayTest.c   **** *   Read the GPS packet - search for the GPS formated data
 606:RelayTest.c   **** *****************************************************************/
 607:RelayTest.c   **** uint8 RTest_Test_GPS(void)
 608:RelayTest.c   **** {
 1236              		.loc 1 608 0
 1237              		.cfi_startproc
 1238              		@ args = 0, pretend = 0, frame = 0
 1239              		@ frame_needed = 1, uses_anonymous_args = 0
 1240              		@ link register save eliminated.
 1241 0000 80B4     		push	{r7}
 1242              		.cfi_def_cfa_offset 4
 1243              		.cfi_offset 7, -4
 1244 0002 00AF     		add	r7, sp, #0
 1245              		.cfi_def_cfa_register 7
 609:RelayTest.c   ****     
 610:RelayTest.c   ****     static uint8 targetstring[6] = {'$','G','P','M','R','C'};
 611:RelayTest.c   **** 
 612:RelayTest.c   ****     //uint8 findpacket(uint8 dataByte) - this should pass the target string
 613:RelayTest.c   ****     //processByteReceivedHandler_230400(&targetstring);
 614:RelayTest.c   **** 
 615:RelayTest.c   ****     
ARM GAS  C:\Users\MARTHN~1\AppData\Local\Temp\ccHF3wZv.s 			page 34


 616:RelayTest.c   ****     
 617:RelayTest.c   ****     return(0);
 1246              		.loc 1 617 0
 1247 0004 0023     		movs	r3, #0
 618:RelayTest.c   **** }
 1248              		.loc 1 618 0
 1249 0006 1846     		mov	r0, r3
 1250 0008 BD46     		mov	sp, r7
 1251              		.cfi_def_cfa_register 13
 1252              		@ sp needed
 1253 000a 80BC     		pop	{r7}
 1254              		.cfi_restore 7
 1255              		.cfi_def_cfa_offset 0
 1256 000c 7047     		bx	lr
 1257              		.cfi_endproc
 1258              	.LFE71:
 1259              		.size	RTest_Test_GPS, .-RTest_Test_GPS
 1260 000e 00BF     		.section	.text.getRxPacket_Relay,"ax",%progbits
 1261              		.align	2
 1262              		.global	getRxPacket_Relay
 1263              		.thumb
 1264              		.thumb_func
 1265              		.type	getRxPacket_Relay, %function
 1266              	getRxPacket_Relay:
 1267              	.LFB72:
 619:RelayTest.c   **** 
 620:RelayTest.c   **** RxPacket_RelaySiren * getRxPacket_Relay(void)
 621:RelayTest.c   **** {
 1268              		.loc 1 621 0
 1269              		.cfi_startproc
 1270              		@ args = 0, pretend = 0, frame = 0
 1271              		@ frame_needed = 1, uses_anonymous_args = 0
 1272              		@ link register save eliminated.
 1273 0000 80B4     		push	{r7}
 1274              		.cfi_def_cfa_offset 4
 1275              		.cfi_offset 7, -4
 1276 0002 00AF     		add	r7, sp, #0
 1277              		.cfi_def_cfa_register 7
 622:RelayTest.c   ****     pRxPacket_Relay = &rxPacket_Relay;
 1278              		.loc 1 622 0
 1279 0004 044B     		ldr	r3, .L85
 1280 0006 054A     		ldr	r2, .L85+4
 1281 0008 1A60     		str	r2, [r3]
 623:RelayTest.c   ****     
 624:RelayTest.c   ****     return pRxPacket_Relay;
 1282              		.loc 1 624 0
 1283 000a 034B     		ldr	r3, .L85
 1284 000c 1B68     		ldr	r3, [r3]
 625:RelayTest.c   **** }
 1285              		.loc 1 625 0
 1286 000e 1846     		mov	r0, r3
 1287 0010 BD46     		mov	sp, r7
 1288              		.cfi_def_cfa_register 13
 1289              		@ sp needed
 1290 0012 80BC     		pop	{r7}
 1291              		.cfi_restore 7
 1292              		.cfi_def_cfa_offset 0
ARM GAS  C:\Users\MARTHN~1\AppData\Local\Temp\ccHF3wZv.s 			page 35


 1293 0014 7047     		bx	lr
 1294              	.L86:
 1295 0016 00BF     		.align	2
 1296              	.L85:
 1297 0018 10000000 		.word	pRxPacket_Relay
 1298 001c 00000000 		.word	rxPacket_Relay
 1299              		.cfi_endproc
 1300              	.LFE72:
 1301              		.size	getRxPacket_Relay, .-getRxPacket_Relay
 1302              		.section	.text.getRxPacket_Siren,"ax",%progbits
 1303              		.align	2
 1304              		.global	getRxPacket_Siren
 1305              		.thumb
 1306              		.thumb_func
 1307              		.type	getRxPacket_Siren, %function
 1308              	getRxPacket_Siren:
 1309              	.LFB73:
 626:RelayTest.c   **** 
 627:RelayTest.c   **** //TxPacket_Relay * getTxPacket_Relay()
 628:RelayTest.c   **** //{
 629:RelayTest.c   **** //    pTxPacket_Relay = &txPacket_Relay;
 630:RelayTest.c   **** //    
 631:RelayTest.c   **** //    return pTxPacket_Relay;
 632:RelayTest.c   **** //}
 633:RelayTest.c   **** 
 634:RelayTest.c   **** RxPacket_Siren * getRxPacket_Siren()
 635:RelayTest.c   **** {
 1310              		.loc 1 635 0
 1311              		.cfi_startproc
 1312              		@ args = 0, pretend = 0, frame = 0
 1313              		@ frame_needed = 1, uses_anonymous_args = 0
 1314              		@ link register save eliminated.
 1315 0000 80B4     		push	{r7}
 1316              		.cfi_def_cfa_offset 4
 1317              		.cfi_offset 7, -4
 1318 0002 00AF     		add	r7, sp, #0
 1319              		.cfi_def_cfa_register 7
 636:RelayTest.c   ****     pRxPacket_Siren = &rxPacket_Siren;
 1320              		.loc 1 636 0
 1321 0004 044B     		ldr	r3, .L89
 1322 0006 054A     		ldr	r2, .L89+4
 1323 0008 1A60     		str	r2, [r3]
 637:RelayTest.c   ****     
 638:RelayTest.c   ****     return pRxPacket_Siren;
 1324              		.loc 1 638 0
 1325 000a 034B     		ldr	r3, .L89
 1326 000c 1B68     		ldr	r3, [r3]
 639:RelayTest.c   **** }
 1327              		.loc 1 639 0
 1328 000e 1846     		mov	r0, r3
 1329 0010 BD46     		mov	sp, r7
 1330              		.cfi_def_cfa_register 13
 1331              		@ sp needed
 1332 0012 80BC     		pop	{r7}
 1333              		.cfi_restore 7
 1334              		.cfi_def_cfa_offset 0
 1335 0014 7047     		bx	lr
ARM GAS  C:\Users\MARTHN~1\AppData\Local\Temp\ccHF3wZv.s 			page 36


 1336              	.L90:
 1337 0016 00BF     		.align	2
 1338              	.L89:
 1339 0018 6C000000 		.word	pRxPacket_Siren
 1340 001c 68000000 		.word	rxPacket_Siren
 1341              		.cfi_endproc
 1342              	.LFE73:
 1343              		.size	getRxPacket_Siren, .-getRxPacket_Siren
 1344              		.section	.text.getTxPacket_RelaySiren,"ax",%progbits
 1345              		.align	2
 1346              		.global	getTxPacket_RelaySiren
 1347              		.thumb
 1348              		.thumb_func
 1349              		.type	getTxPacket_RelaySiren, %function
 1350              	getTxPacket_RelaySiren:
 1351              	.LFB74:
 640:RelayTest.c   **** 
 641:RelayTest.c   **** TxPacket_RelaySiren * getTxPacket_RelaySiren()
 642:RelayTest.c   **** {
 1352              		.loc 1 642 0
 1353              		.cfi_startproc
 1354              		@ args = 0, pretend = 0, frame = 0
 1355              		@ frame_needed = 1, uses_anonymous_args = 0
 1356              		@ link register save eliminated.
 1357 0000 80B4     		push	{r7}
 1358              		.cfi_def_cfa_offset 4
 1359              		.cfi_offset 7, -4
 1360 0002 00AF     		add	r7, sp, #0
 1361              		.cfi_def_cfa_register 7
 643:RelayTest.c   ****     pTxPacket_RelaySiren = &txPacket_RelaySiren;
 1362              		.loc 1 643 0
 1363 0004 044B     		ldr	r3, .L93
 1364 0006 054A     		ldr	r2, .L93+4
 1365 0008 1A60     		str	r2, [r3]
 644:RelayTest.c   ****     
 645:RelayTest.c   ****     return pTxPacket_RelaySiren;
 1366              		.loc 1 645 0
 1367 000a 034B     		ldr	r3, .L93
 1368 000c 1B68     		ldr	r3, [r3]
 646:RelayTest.c   **** }
 1369              		.loc 1 646 0
 1370 000e 1846     		mov	r0, r3
 1371 0010 BD46     		mov	sp, r7
 1372              		.cfi_def_cfa_register 13
 1373              		@ sp needed
 1374 0012 80BC     		pop	{r7}
 1375              		.cfi_restore 7
 1376              		.cfi_def_cfa_offset 0
 1377 0014 7047     		bx	lr
 1378              	.L94:
 1379 0016 00BF     		.align	2
 1380              	.L93:
 1381 0018 64000000 		.word	pTxPacket_RelaySiren
 1382 001c 14000000 		.word	txPacket_RelaySiren
 1383              		.cfi_endproc
 1384              	.LFE74:
 1385              		.size	getTxPacket_RelaySiren, .-getTxPacket_RelaySiren
ARM GAS  C:\Users\MARTHN~1\AppData\Local\Temp\ccHF3wZv.s 			page 37


 1386              		.section	.text.getTxPacket_H,"ax",%progbits
 1387              		.align	2
 1388              		.global	getTxPacket_H
 1389              		.thumb
 1390              		.thumb_func
 1391              		.type	getTxPacket_H, %function
 1392              	getTxPacket_H:
 1393              	.LFB75:
 647:RelayTest.c   **** 
 648:RelayTest.c   **** //Packet_H * getPacket_H(void);
 649:RelayTest.c   **** Packet_H * getTxPacket_H()
 650:RelayTest.c   **** {
 1394              		.loc 1 650 0
 1395              		.cfi_startproc
 1396              		@ args = 0, pretend = 0, frame = 0
 1397              		@ frame_needed = 1, uses_anonymous_args = 0
 1398              		@ link register save eliminated.
 1399 0000 80B4     		push	{r7}
 1400              		.cfi_def_cfa_offset 4
 1401              		.cfi_offset 7, -4
 1402 0002 00AF     		add	r7, sp, #0
 1403              		.cfi_def_cfa_register 7
 651:RelayTest.c   ****     pTxPacket_H = &txPacket_H;
 1404              		.loc 1 651 0
 1405 0004 044B     		ldr	r3, .L97
 1406 0006 054A     		ldr	r2, .L97+4
 1407 0008 1A60     		str	r2, [r3]
 652:RelayTest.c   ****     
 653:RelayTest.c   ****     return pTxPacket_H;
 1408              		.loc 1 653 0
 1409 000a 034B     		ldr	r3, .L97
 1410 000c 1B68     		ldr	r3, [r3]
 654:RelayTest.c   **** }
 1411              		.loc 1 654 0
 1412 000e 1846     		mov	r0, r3
 1413 0010 BD46     		mov	sp, r7
 1414              		.cfi_def_cfa_register 13
 1415              		@ sp needed
 1416 0012 80BC     		pop	{r7}
 1417              		.cfi_restore 7
 1418              		.cfi_def_cfa_offset 0
 1419 0014 7047     		bx	lr
 1420              	.L98:
 1421 0016 00BF     		.align	2
 1422              	.L97:
 1423 0018 78000000 		.word	pTxPacket_H
 1424 001c 70000000 		.word	txPacket_H
 1425              		.cfi_endproc
 1426              	.LFE75:
 1427              		.size	getTxPacket_H, .-getTxPacket_H
 1428              		.section	.text.getRxPacket_H,"ax",%progbits
 1429              		.align	2
 1430              		.global	getRxPacket_H
 1431              		.thumb
 1432              		.thumb_func
 1433              		.type	getRxPacket_H, %function
 1434              	getRxPacket_H:
ARM GAS  C:\Users\MARTHN~1\AppData\Local\Temp\ccHF3wZv.s 			page 38


 1435              	.LFB76:
 655:RelayTest.c   **** 
 656:RelayTest.c   **** Packet_H * getRxPacket_H()
 657:RelayTest.c   **** {
 1436              		.loc 1 657 0
 1437              		.cfi_startproc
 1438              		@ args = 0, pretend = 0, frame = 0
 1439              		@ frame_needed = 1, uses_anonymous_args = 0
 1440              		@ link register save eliminated.
 1441 0000 80B4     		push	{r7}
 1442              		.cfi_def_cfa_offset 4
 1443              		.cfi_offset 7, -4
 1444 0002 00AF     		add	r7, sp, #0
 1445              		.cfi_def_cfa_register 7
 658:RelayTest.c   ****     pRxPacket_H = &rxPacket_H;
 1446              		.loc 1 658 0
 1447 0004 044B     		ldr	r3, .L101
 1448 0006 054A     		ldr	r2, .L101+4
 1449 0008 1A60     		str	r2, [r3]
 659:RelayTest.c   ****     
 660:RelayTest.c   ****     return pRxPacket_H;
 1450              		.loc 1 660 0
 1451 000a 034B     		ldr	r3, .L101
 1452 000c 1B68     		ldr	r3, [r3]
 661:RelayTest.c   **** }
 1453              		.loc 1 661 0
 1454 000e 1846     		mov	r0, r3
 1455 0010 BD46     		mov	sp, r7
 1456              		.cfi_def_cfa_register 13
 1457              		@ sp needed
 1458 0012 80BC     		pop	{r7}
 1459              		.cfi_restore 7
 1460              		.cfi_def_cfa_offset 0
 1461 0014 7047     		bx	lr
 1462              	.L102:
 1463 0016 00BF     		.align	2
 1464              	.L101:
 1465 0018 84000000 		.word	pRxPacket_H
 1466 001c 7C000000 		.word	rxPacket_H
 1467              		.cfi_endproc
 1468              	.LFE76:
 1469              		.size	getRxPacket_H, .-getRxPacket_H
 1470              		.section	.text.RTest_sendDiagPacket,"ax",%progbits
 1471              		.align	2
 1472              		.global	RTest_sendDiagPacket
 1473              		.thumb
 1474              		.thumb_func
 1475              		.type	RTest_sendDiagPacket, %function
 1476              	RTest_sendDiagPacket:
 1477              	.LFB77:
 662:RelayTest.c   **** 
 663:RelayTest.c   **** 
 664:RelayTest.c   **** //RxPacket_Quad * getTxPacket_Quad()              //***
 665:RelayTest.c   **** //{
 666:RelayTest.c   **** //    pTxPacket_Quad = &txPacket_Quad;
 667:RelayTest.c   **** //    
 668:RelayTest.c   **** //    return pTxPacket_Quad;
ARM GAS  C:\Users\MARTHN~1\AppData\Local\Temp\ccHF3wZv.s 			page 39


 669:RelayTest.c   **** //}
 670:RelayTest.c   **** 
 671:RelayTest.c   **** void RTest_sendDiagPacket(void)
 672:RelayTest.c   **** {
 1478              		.loc 1 672 0
 1479              		.cfi_startproc
 1480              		@ args = 0, pretend = 0, frame = 8
 1481              		@ frame_needed = 1, uses_anonymous_args = 0
 1482 0000 80B5     		push	{r7, lr}
 1483              		.cfi_def_cfa_offset 8
 1484              		.cfi_offset 7, -8
 1485              		.cfi_offset 14, -4
 1486 0002 82B0     		sub	sp, sp, #8
 1487              		.cfi_def_cfa_offset 16
 1488 0004 00AF     		add	r7, sp, #0
 1489              		.cfi_def_cfa_register 7
 1490              	.LBB7:
 673:RelayTest.c   **** 
 674:RelayTest.c   ****     static uint8 RelayTestStatus_display[ (NUMBER_TEST_STEPS*2) ];
 675:RelayTest.c   ****     
 676:RelayTest.c   ****     for(uint8 i=0;i<NUMBER_TEST_STEPS;i++)
 1491              		.loc 1 676 0
 1492 0006 0023     		movs	r3, #0
 1493 0008 FB71     		strb	r3, [r7, #7]
 1494 000a 0FE0     		b	.L104
 1495              	.L105:
 677:RelayTest.c   ****     {
 678:RelayTest.c   ****         RelayTestStatus_display[i*2] = RelayTestStatus[i];
 1496              		.loc 1 678 0 discriminator 3
 1497 000c FB79     		ldrb	r3, [r7, #7]	@ zero_extendqisi2
 1498 000e 5B00     		lsls	r3, r3, #1
 1499 0010 FA79     		ldrb	r2, [r7, #7]	@ zero_extendqisi2
 1500 0012 1049     		ldr	r1, .L107
 1501 0014 895C     		ldrb	r1, [r1, r2]	@ zero_extendqisi2
 1502 0016 104A     		ldr	r2, .L107+4
 1503 0018 D154     		strb	r1, [r2, r3]
 679:RelayTest.c   ****         RelayTestStatus_display[(i*2) + 1] = ' ';
 1504              		.loc 1 679 0 discriminator 3
 1505 001a FB79     		ldrb	r3, [r7, #7]	@ zero_extendqisi2
 1506 001c 5B00     		lsls	r3, r3, #1
 1507 001e 0133     		adds	r3, r3, #1
 1508 0020 0D4A     		ldr	r2, .L107+4
 1509 0022 2021     		movs	r1, #32
 1510 0024 D154     		strb	r1, [r2, r3]
 676:RelayTest.c   ****     {
 1511              		.loc 1 676 0 discriminator 3
 1512 0026 FB79     		ldrb	r3, [r7, #7]	@ zero_extendqisi2
 1513 0028 0133     		adds	r3, r3, #1
 1514 002a FB71     		strb	r3, [r7, #7]
 1515              	.L104:
 676:RelayTest.c   ****     {
 1516              		.loc 1 676 0 is_stmt 0 discriminator 1
 1517 002c FB79     		ldrb	r3, [r7, #7]	@ zero_extendqisi2
 1518 002e 092B     		cmp	r3, #9
 1519 0030 ECD9     		bls	.L105
 1520              	.LBE7:
 680:RelayTest.c   ****     }
ARM GAS  C:\Users\MARTHN~1\AppData\Local\Temp\ccHF3wZv.s 			page 40


 681:RelayTest.c   ****     
 682:RelayTest.c   ****     DEMUX_CTRL_230400_Write(RTEST_SIREN);
 1521              		.loc 1 682 0 is_stmt 1
 1522 0032 0220     		movs	r0, #2
 1523 0034 FFF7FEFF 		bl	DEMUX_CTRL_230400_Write
 683:RelayTest.c   ****     
 684:RelayTest.c   ****     UART_230400_PutArray(RelayTestStatus_display, (NUMBER_TEST_STEPS*2) );
 1524              		.loc 1 684 0
 1525 0038 1421     		movs	r1, #20
 1526 003a 0748     		ldr	r0, .L107+4
 1527 003c FFF7FEFF 		bl	UART_230400_PutArray
 685:RelayTest.c   ****     
 686:RelayTest.c   ****     UART_230400_PutChar('\r');
 1528              		.loc 1 686 0
 1529 0040 0D20     		movs	r0, #13
 1530 0042 FFF7FEFF 		bl	UART_230400_PutChar
 687:RelayTest.c   ****     UART_230400_PutChar('\n');
 1531              		.loc 1 687 0
 1532 0046 0A20     		movs	r0, #10
 1533 0048 FFF7FEFF 		bl	UART_230400_PutChar
 688:RelayTest.c   ****     
 689:RelayTest.c   ****     return;
 1534              		.loc 1 689 0
 1535 004c 00BF     		nop
 690:RelayTest.c   **** }
 1536              		.loc 1 690 0
 1537 004e 0837     		adds	r7, r7, #8
 1538              		.cfi_def_cfa_offset 8
 1539 0050 BD46     		mov	sp, r7
 1540              		.cfi_def_cfa_register 13
 1541              		@ sp needed
 1542 0052 80BD     		pop	{r7, pc}
 1543              	.L108:
 1544              		.align	2
 1545              	.L107:
 1546 0054 00010000 		.word	RelayTestStatus
 1547 0058 10010000 		.word	RelayTestStatus_display.6682
 1548              		.cfi_endproc
 1549              	.LFE77:
 1550              		.size	RTest_sendDiagPacket, .-RTest_sendDiagPacket
 1551              		.section	.text.RTest_BlockCurrent,"ax",%progbits
 1552              		.align	2
 1553              		.global	RTest_BlockCurrent
 1554              		.thumb
 1555              		.thumb_func
 1556              		.type	RTest_BlockCurrent, %function
 1557              	RTest_BlockCurrent:
 1558              	.LFB78:
 691:RelayTest.c   **** 
 692:RelayTest.c   **** //void ProcessFailure(void)
 693:RelayTest.c   **** //{
 694:RelayTest.c   **** ////    
 695:RelayTest.c   **** ////    RelayTestStatus[TestState] = 'F';
 696:RelayTest.c   **** ////    //RelayTestStatus[TestState] = 'B';                   // *** dont fail the unit, keep tryin
 697:RelayTest.c   **** ////    
 698:RelayTest.c   **** //////    TestState++;
 699:RelayTest.c   **** //////    if(TestState >=10)
ARM GAS  C:\Users\MARTHN~1\AppData\Local\Temp\ccHF3wZv.s 			page 41


 700:RelayTest.c   **** //////        TestState = 0;
 701:RelayTest.c   **** ////    
 702:RelayTest.c   **** ////    LED_EN_Write(1);
 703:RelayTest.c   **** ////    
 704:RelayTest.c   **** ////    return;
 705:RelayTest.c   **** //}
 706:RelayTest.c   **** 
 707:RelayTest.c   **** /**********************************************************************
 708:RelayTest.c   **** *   230400bps
 709:RelayTest.c   **** *   - Read (the output bytes) and see that they are within TOLERANCE_CURRENT
 710:RelayTest.c   **** *   - Return: pass/fail
 711:RelayTest.c   **** **********************************************************************/
 712:RelayTest.c   **** uint8 RTest_BlockCurrent(uint8 block)
 713:RelayTest.c   **** {
 1559              		.loc 1 713 0
 1560              		.cfi_startproc
 1561              		@ args = 0, pretend = 0, frame = 16
 1562              		@ frame_needed = 1, uses_anonymous_args = 0
 1563 0000 80B5     		push	{r7, lr}
 1564              		.cfi_def_cfa_offset 8
 1565              		.cfi_offset 7, -8
 1566              		.cfi_offset 14, -4
 1567 0002 84B0     		sub	sp, sp, #16
 1568              		.cfi_def_cfa_offset 24
 1569 0004 00AF     		add	r7, sp, #0
 1570              		.cfi_def_cfa_register 7
 1571 0006 0346     		mov	r3, r0
 1572 0008 FB71     		strb	r3, [r7, #7]
 714:RelayTest.c   ****     
 715:RelayTest.c   ****     uint8 Current_Reading = 0;
 1573              		.loc 1 715 0
 1574 000a 0023     		movs	r3, #0
 1575 000c FB73     		strb	r3, [r7, #15]
 716:RelayTest.c   ****     
 717:RelayTest.c   ****     pRxPacket_Relay = getRxPacket_Relay();
 1576              		.loc 1 717 0
 1577 000e FFF7FEFF 		bl	getRxPacket_Relay
 1578 0012 0246     		mov	r2, r0
 1579 0014 184B     		ldr	r3, .L117
 1580 0016 1A60     		str	r2, [r3]
 718:RelayTest.c   ****     
 719:RelayTest.c   ****     if(block == 0)
 1581              		.loc 1 719 0
 1582 0018 FB79     		ldrb	r3, [r7, #7]	@ zero_extendqisi2
 1583 001a 002B     		cmp	r3, #0
 1584 001c 04D1     		bne	.L110
 720:RelayTest.c   ****         Current_Reading = pRxPacket_Relay->Payload.BlockCurrent_1;
 1585              		.loc 1 720 0
 1586 001e 164B     		ldr	r3, .L117
 1587 0020 1B68     		ldr	r3, [r3]
 1588 0022 1B78     		ldrb	r3, [r3]
 1589 0024 FB73     		strb	r3, [r7, #15]
 1590 0026 19E0     		b	.L111
 1591              	.L110:
 721:RelayTest.c   ****     else if(block == 1)
 1592              		.loc 1 721 0
 1593 0028 FB79     		ldrb	r3, [r7, #7]	@ zero_extendqisi2
ARM GAS  C:\Users\MARTHN~1\AppData\Local\Temp\ccHF3wZv.s 			page 42


 1594 002a 012B     		cmp	r3, #1
 1595 002c 04D1     		bne	.L112
 722:RelayTest.c   ****         Current_Reading = pRxPacket_Relay->Payload.BlockCurrent_2;
 1596              		.loc 1 722 0
 1597 002e 124B     		ldr	r3, .L117
 1598 0030 1B68     		ldr	r3, [r3]
 1599 0032 5B78     		ldrb	r3, [r3, #1]
 1600 0034 FB73     		strb	r3, [r7, #15]
 1601 0036 11E0     		b	.L111
 1602              	.L112:
 723:RelayTest.c   ****     else if(block == 2)
 1603              		.loc 1 723 0
 1604 0038 FB79     		ldrb	r3, [r7, #7]	@ zero_extendqisi2
 1605 003a 022B     		cmp	r3, #2
 1606 003c 04D1     		bne	.L113
 724:RelayTest.c   ****         Current_Reading = pRxPacket_Relay->Payload.BlockCurrent_3;
 1607              		.loc 1 724 0
 1608 003e 0E4B     		ldr	r3, .L117
 1609 0040 1B68     		ldr	r3, [r3]
 1610 0042 9B78     		ldrb	r3, [r3, #2]
 1611 0044 FB73     		strb	r3, [r7, #15]
 1612 0046 09E0     		b	.L111
 1613              	.L113:
 725:RelayTest.c   ****     else if(block == 3)
 1614              		.loc 1 725 0
 1615 0048 FB79     		ldrb	r3, [r7, #7]	@ zero_extendqisi2
 1616 004a 032B     		cmp	r3, #3
 1617 004c 04D1     		bne	.L114
 726:RelayTest.c   ****         Current_Reading = pRxPacket_Relay->Payload.BlockCurrent_4;
 1618              		.loc 1 726 0
 1619 004e 0A4B     		ldr	r3, .L117
 1620 0050 1B68     		ldr	r3, [r3]
 1621 0052 DB78     		ldrb	r3, [r3, #3]
 1622 0054 FB73     		strb	r3, [r7, #15]
 1623 0056 01E0     		b	.L111
 1624              	.L114:
 727:RelayTest.c   ****     else 
 728:RelayTest.c   ****         return(0);
 1625              		.loc 1 728 0
 1626 0058 0023     		movs	r3, #0
 1627 005a 08E0     		b	.L115
 1628              	.L111:
 729:RelayTest.c   ****     
 730:RelayTest.c   ****     if( (Current_Reading < (CURRENT_LOAD + TOLERANCE_CURRENT) ) &&
 1629              		.loc 1 730 0
 1630 005c FB7B     		ldrb	r3, [r7, #15]	@ zero_extendqisi2
 1631 005e 0A2B     		cmp	r3, #10
 1632 0060 04D8     		bhi	.L116
 1633              		.loc 1 730 0 is_stmt 0 discriminator 1
 1634 0062 FB7B     		ldrb	r3, [r7, #15]	@ zero_extendqisi2
 1635 0064 072B     		cmp	r3, #7
 1636 0066 01D9     		bls	.L116
 731:RelayTest.c   ****         (Current_Reading > (CURRENT_LOAD - TOLERANCE_CURRENT) ) )
 732:RelayTest.c   ****         return(1);
 1637              		.loc 1 732 0 is_stmt 1
 1638 0068 0123     		movs	r3, #1
 1639 006a 00E0     		b	.L115
ARM GAS  C:\Users\MARTHN~1\AppData\Local\Temp\ccHF3wZv.s 			page 43


 1640              	.L116:
 733:RelayTest.c   ****     else
 734:RelayTest.c   ****         return(0);
 1641              		.loc 1 734 0
 1642 006c 0023     		movs	r3, #0
 1643              	.L115:
 735:RelayTest.c   ****         
 736:RelayTest.c   **** }
 1644              		.loc 1 736 0
 1645 006e 1846     		mov	r0, r3
 1646 0070 1037     		adds	r7, r7, #16
 1647              		.cfi_def_cfa_offset 8
 1648 0072 BD46     		mov	sp, r7
 1649              		.cfi_def_cfa_register 13
 1650              		@ sp needed
 1651 0074 80BD     		pop	{r7, pc}
 1652              	.L118:
 1653 0076 00BF     		.align	2
 1654              	.L117:
 1655 0078 10000000 		.word	pRxPacket_Relay
 1656              		.cfi_endproc
 1657              	.LFE78:
 1658              		.size	RTest_BlockCurrent, .-RTest_BlockCurrent
 1659              		.section	.text.RTest_10ms_isr,"ax",%progbits
 1660              		.align	2
 1661              		.global	RTest_10ms_isr
 1662              		.thumb
 1663              		.thumb_func
 1664              		.type	RTest_10ms_isr, %function
 1665              	RTest_10ms_isr:
 1666              	.LFB79:
 737:RelayTest.c   **** 
 738:RelayTest.c   **** void RTest_10ms_isr(void)                       // Times Quad and Audio packets
 739:RelayTest.c   **** {
 1667              		.loc 1 739 0
 1668              		.cfi_startproc
 1669              		@ args = 0, pretend = 0, frame = 0
 1670              		@ frame_needed = 1, uses_anonymous_args = 0
 1671 0000 80B5     		push	{r7, lr}
 1672              		.cfi_def_cfa_offset 8
 1673              		.cfi_offset 7, -8
 1674              		.cfi_offset 14, -4
 1675 0002 00AF     		add	r7, sp, #0
 1676              		.cfi_def_cfa_register 7
 740:RelayTest.c   **** 
 741:RelayTest.c   ****     if(TestState == QUAD_PORTS)    
 1677              		.loc 1 741 0
 1678 0004 044B     		ldr	r3, .L123
 1679 0006 1B78     		ldrb	r3, [r3]	@ zero_extendqisi2
 1680 0008 042B     		cmp	r3, #4
 1681 000a 02D1     		bne	.L122
 742:RelayTest.c   ****         sendPacketToRelay_Quad();
 1682              		.loc 1 742 0
 1683 000c FFF7FEFF 		bl	sendPacketToRelay_Quad
 743:RelayTest.c   **** 
 744:RelayTest.c   ****     return;
 1684              		.loc 1 744 0
ARM GAS  C:\Users\MARTHN~1\AppData\Local\Temp\ccHF3wZv.s 			page 44


 1685 0010 00BF     		nop
 1686              	.L122:
 1687 0012 00BF     		nop
 745:RelayTest.c   ****     
 746:RelayTest.c   **** }
 1688              		.loc 1 746 0
 1689 0014 80BD     		pop	{r7, pc}
 1690              	.L124:
 1691 0016 00BF     		.align	2
 1692              	.L123:
 1693 0018 0A010000 		.word	TestState
 1694              		.cfi_endproc
 1695              	.LFE79:
 1696              		.size	RTest_10ms_isr, .-RTest_10ms_isr
 1697              		.section	.text.RTest_20ms_isr,"ax",%progbits
 1698              		.align	2
 1699              		.global	RTest_20ms_isr
 1700              		.thumb
 1701              		.thumb_func
 1702              		.type	RTest_20ms_isr, %function
 1703              	RTest_20ms_isr:
 1704              	.LFB80:
 747:RelayTest.c   **** 
 748:RelayTest.c   **** void RTest_20ms_isr(void)                       // Manage Timeout for failure
 749:RelayTest.c   **** {
 1705              		.loc 1 749 0
 1706              		.cfi_startproc
 1707              		@ args = 0, pretend = 0, frame = 0
 1708              		@ frame_needed = 1, uses_anonymous_args = 0
 1709              		@ link register save eliminated.
 1710 0000 80B4     		push	{r7}
 1711              		.cfi_def_cfa_offset 4
 1712              		.cfi_offset 7, -4
 1713 0002 00AF     		add	r7, sp, #0
 1714              		.cfi_def_cfa_register 7
 750:RelayTest.c   ****     
 751:RelayTest.c   ****     RTest_20ms_isr_count++;
 1715              		.loc 1 751 0
 1716 0004 144B     		ldr	r3, .L132
 1717 0006 1B88     		ldrh	r3, [r3]
 1718 0008 0133     		adds	r3, r3, #1
 1719 000a 9AB2     		uxth	r2, r3
 1720 000c 124B     		ldr	r3, .L132
 1721 000e 1A80     		strh	r2, [r3]	@ movhi
 752:RelayTest.c   ****     if(RTest_20ms_isr_count > TIMEOUT_FAIL)
 1722              		.loc 1 752 0
 1723 0010 114B     		ldr	r3, .L132
 1724 0012 1B88     		ldrh	r3, [r3]
 1725 0014 322B     		cmp	r3, #50
 1726 0016 0DD9     		bls	.L126
 753:RelayTest.c   ****     {
 754:RelayTest.c   ****         RTest_20ms_isr_count = 0;
 1727              		.loc 1 754 0
 1728 0018 0F4B     		ldr	r3, .L132
 1729 001a 0022     		movs	r2, #0
 1730 001c 1A80     		strh	r2, [r3]	@ movhi
 755:RelayTest.c   ****         
ARM GAS  C:\Users\MARTHN~1\AppData\Local\Temp\ccHF3wZv.s 			page 45


 756:RelayTest.c   ****         if(RTest_20ms_isr_EN == 1)
 1731              		.loc 1 756 0
 1732 001e 0F4B     		ldr	r3, .L132+4
 1733 0020 1B88     		ldrh	r3, [r3]
 1734 0022 012B     		cmp	r3, #1
 1735 0024 11D1     		bne	.L130
 757:RelayTest.c   ****             RelayTestStatus[TestState] = 'F';
 1736              		.loc 1 757 0
 1737 0026 0E4B     		ldr	r3, .L132+8
 1738 0028 1B78     		ldrb	r3, [r3]	@ zero_extendqisi2
 1739 002a 1A46     		mov	r2, r3
 1740 002c 0D4B     		ldr	r3, .L132+12
 1741 002e 4621     		movs	r1, #70
 1742 0030 9954     		strb	r1, [r3, r2]
 758:RelayTest.c   ****             
 759:RelayTest.c   ****         return;
 1743              		.loc 1 759 0
 1744 0032 0AE0     		b	.L130
 1745              	.L126:
 760:RelayTest.c   ****     }
 761:RelayTest.c   ****     
 762:RelayTest.c   ****     if(RTest_20ms_isr_count > 65000)
 1746              		.loc 1 762 0
 1747 0034 084B     		ldr	r3, .L132
 1748 0036 1B88     		ldrh	r3, [r3]
 1749 0038 4FF6E852 		movw	r2, #65000
 1750 003c 9342     		cmp	r3, r2
 1751 003e 06D9     		bls	.L131
 763:RelayTest.c   ****         RTest_20ms_isr_count = 0;
 1752              		.loc 1 763 0
 1753 0040 054B     		ldr	r3, .L132
 1754 0042 0022     		movs	r2, #0
 1755 0044 1A80     		strh	r2, [r3]	@ movhi
 764:RelayTest.c   ****     
 765:RelayTest.c   ****     return;
 1756              		.loc 1 765 0
 1757 0046 00BF     		nop
 1758 0048 01E0     		b	.L131
 1759              	.L130:
 759:RelayTest.c   ****     }
 1760              		.loc 1 759 0
 1761 004a 00BF     		nop
 1762 004c 00E0     		b	.L125
 1763              	.L131:
 1764              		.loc 1 765 0
 1765 004e 00BF     		nop
 1766              	.L125:
 766:RelayTest.c   ****     
 767:RelayTest.c   **** }
 1767              		.loc 1 767 0
 1768 0050 BD46     		mov	sp, r7
 1769              		.cfi_def_cfa_register 13
 1770              		@ sp needed
 1771 0052 80BC     		pop	{r7}
 1772              		.cfi_restore 7
 1773              		.cfi_def_cfa_offset 0
 1774 0054 7047     		bx	lr
ARM GAS  C:\Users\MARTHN~1\AppData\Local\Temp\ccHF3wZv.s 			page 46


 1775              	.L133:
 1776 0056 00BF     		.align	2
 1777              	.L132:
 1778 0058 FC000000 		.word	RTest_20ms_isr_count
 1779 005c FE000000 		.word	RTest_20ms_isr_EN
 1780 0060 0A010000 		.word	TestState
 1781 0064 00010000 		.word	RelayTestStatus
 1782              		.cfi_endproc
 1783              	.LFE80:
 1784              		.size	RTest_20ms_isr, .-RTest_20ms_isr
 1785              		.section	.text.RTest_50ms_isr,"ax",%progbits
 1786              		.align	2
 1787              		.global	RTest_50ms_isr
 1788              		.thumb
 1789              		.thumb_func
 1790              		.type	RTest_50ms_isr, %function
 1791              	RTest_50ms_isr:
 1792              	.LFB81:
 768:RelayTest.c   **** 
 769:RelayTest.c   **** void RTest_50ms_isr(void)                       // Times interboard comms, and serial diagnostics
 770:RelayTest.c   **** {
 1793              		.loc 1 770 0
 1794              		.cfi_startproc
 1795              		@ args = 0, pretend = 0, frame = 0
 1796              		@ frame_needed = 1, uses_anonymous_args = 0
 1797 0000 80B5     		push	{r7, lr}
 1798              		.cfi_def_cfa_offset 8
 1799              		.cfi_offset 7, -8
 1800              		.cfi_offset 14, -4
 1801 0002 00AF     		add	r7, sp, #0
 1802              		.cfi_def_cfa_register 7
 771:RelayTest.c   ****     
 772:RelayTest.c   ****     //RTest_sendDiagPacket();
 773:RelayTest.c   ****     
 774:RelayTest.c   ****     //if(isr_count > 5)
 775:RelayTest.c   ****         
 776:RelayTest.c   **** //    if( (isr_count % 5) == 0 )
 777:RelayTest.c   **** //    {
 778:RelayTest.c   ****         if( (TestState == TEST_OUTPUTS) ||
 1803              		.loc 1 778 0
 1804 0004 0C4B     		ldr	r3, .L139
 1805 0006 1B78     		ldrb	r3, [r3]	@ zero_extendqisi2
 1806 0008 022B     		cmp	r3, #2
 1807 000a 0FD0     		beq	.L135
 779:RelayTest.c   ****             (TestState == DATALINK) ||
 1808              		.loc 1 779 0 discriminator 1
 1809 000c 0A4B     		ldr	r3, .L139
 1810 000e 1B78     		ldrb	r3, [r3]	@ zero_extendqisi2
 778:RelayTest.c   ****             (TestState == DATALINK) ||
 1811              		.loc 1 778 0 discriminator 1
 1812 0010 032B     		cmp	r3, #3
 1813 0012 0BD0     		beq	.L135
 780:RelayTest.c   ****             (TestState == UART_SIREN) ||
 1814              		.loc 1 780 0
 1815 0014 084B     		ldr	r3, .L139
 1816 0016 1B78     		ldrb	r3, [r3]	@ zero_extendqisi2
 779:RelayTest.c   ****             (TestState == DATALINK) ||
ARM GAS  C:\Users\MARTHN~1\AppData\Local\Temp\ccHF3wZv.s 			page 47


 1817              		.loc 1 779 0
 1818 0018 052B     		cmp	r3, #5
 1819 001a 07D0     		beq	.L135
 781:RelayTest.c   ****             (TestState == INPUTS) ||
 1820              		.loc 1 781 0
 1821 001c 064B     		ldr	r3, .L139
 1822 001e 1B78     		ldrb	r3, [r3]	@ zero_extendqisi2
 780:RelayTest.c   ****             (TestState == UART_SIREN) ||
 1823              		.loc 1 780 0
 1824 0020 062B     		cmp	r3, #6
 1825 0022 03D0     		beq	.L135
 782:RelayTest.c   ****             (TestState == BLOCK_CURRENTS) )
 1826              		.loc 1 782 0
 1827 0024 044B     		ldr	r3, .L139
 1828 0026 1B78     		ldrb	r3, [r3]	@ zero_extendqisi2
 781:RelayTest.c   ****             (TestState == INPUTS) ||
 1829              		.loc 1 781 0
 1830 0028 082B     		cmp	r3, #8
 1831 002a 02D1     		bne	.L138
 1832              	.L135:
 783:RelayTest.c   ****         {      
 784:RelayTest.c   ****             //sendPacketToRelaySiren();
 785:RelayTest.c   ****             sendPacket_SirenToRelay();              //*** both are used for UART_SIREN
 1833              		.loc 1 785 0
 1834 002c FFF7FEFF 		bl	sendPacket_SirenToRelay
 786:RelayTest.c   ****         }
 787:RelayTest.c   **** //    }
 788:RelayTest.c   ****     
 789:RelayTest.c   ****     return;
 1835              		.loc 1 789 0
 1836 0030 00BF     		nop
 1837              	.L138:
 1838 0032 00BF     		nop
 790:RelayTest.c   ****     
 791:RelayTest.c   **** }
 1839              		.loc 1 791 0
 1840 0034 80BD     		pop	{r7, pc}
 1841              	.L140:
 1842 0036 00BF     		.align	2
 1843              	.L139:
 1844 0038 0A010000 		.word	TestState
 1845              		.cfi_endproc
 1846              	.LFE81:
 1847              		.size	RTest_50ms_isr, .-RTest_50ms_isr
 1848              		.section	.text.SetRelayOutputs,"ax",%progbits
 1849              		.align	2
 1850              		.global	SetRelayOutputs
 1851              		.thumb
 1852              		.thumb_func
 1853              		.type	SetRelayOutputs, %function
 1854              	SetRelayOutputs:
 1855              	.LFB82:
 792:RelayTest.c   **** 
 793:RelayTest.c   **** void SetRelayOutputs(uint8 enable)
 794:RelayTest.c   **** {
 1856              		.loc 1 794 0
 1857              		.cfi_startproc
ARM GAS  C:\Users\MARTHN~1\AppData\Local\Temp\ccHF3wZv.s 			page 48


 1858              		@ args = 0, pretend = 0, frame = 8
 1859              		@ frame_needed = 1, uses_anonymous_args = 0
 1860              		@ link register save eliminated.
 1861 0000 80B4     		push	{r7}
 1862              		.cfi_def_cfa_offset 4
 1863              		.cfi_offset 7, -4
 1864 0002 83B0     		sub	sp, sp, #12
 1865              		.cfi_def_cfa_offset 16
 1866 0004 00AF     		add	r7, sp, #0
 1867              		.cfi_def_cfa_register 7
 1868 0006 0346     		mov	r3, r0
 1869 0008 FB71     		strb	r3, [r7, #7]
 795:RelayTest.c   ****     if(enable == 1)
 1870              		.loc 1 795 0
 1871 000a FB79     		ldrb	r3, [r7, #7]	@ zero_extendqisi2
 1872 000c 012B     		cmp	r3, #1
 1873 000e 14D1     		bne	.L142
 796:RelayTest.c   ****     {
 797:RelayTest.c   ****         pTxPacket_RelaySiren->Payload.Outputs_1to8 = 0xFF;       // Turn on all Relay outputs
 1874              		.loc 1 797 0
 1875 0010 164B     		ldr	r3, .L145
 1876 0012 1B68     		ldr	r3, [r3]
 1877 0014 FF22     		movs	r2, #255
 1878 0016 83F84520 		strb	r2, [r3, #69]
 798:RelayTest.c   ****         pTxPacket_RelaySiren->Payload.Outputs_9to16 = 0xFF;
 1879              		.loc 1 798 0
 1880 001a 144B     		ldr	r3, .L145
 1881 001c 1B68     		ldr	r3, [r3]
 1882 001e FF22     		movs	r2, #255
 1883 0020 83F84620 		strb	r2, [r3, #70]
 799:RelayTest.c   ****         pTxPacket_RelaySiren->Payload.Outputs_17to24 = 0xFF;
 1884              		.loc 1 799 0
 1885 0024 114B     		ldr	r3, .L145
 1886 0026 1B68     		ldr	r3, [r3]
 1887 0028 FF22     		movs	r2, #255
 1888 002a 83F84720 		strb	r2, [r3, #71]
 800:RelayTest.c   ****         pTxPacket_RelaySiren->Payload.Outputs_25to32 = 0xFF;
 1889              		.loc 1 800 0
 1890 002e 0F4B     		ldr	r3, .L145
 1891 0030 1B68     		ldr	r3, [r3]
 1892 0032 FF22     		movs	r2, #255
 1893 0034 83F84820 		strb	r2, [r3, #72]
 801:RelayTest.c   ****     }
 802:RelayTest.c   ****     else
 803:RelayTest.c   ****     {
 804:RelayTest.c   ****         pTxPacket_RelaySiren->Payload.Outputs_1to8 = 0x00;       // Turn off all Relay outputs
 805:RelayTest.c   ****         pTxPacket_RelaySiren->Payload.Outputs_9to16 = 0x00;
 806:RelayTest.c   ****         pTxPacket_RelaySiren->Payload.Outputs_17to24 = 0x00;
 807:RelayTest.c   ****         pTxPacket_RelaySiren->Payload.Outputs_25to32 = 0x00;
 808:RelayTest.c   ****     }
 809:RelayTest.c   ****         
 810:RelayTest.c   ****     return;
 1894              		.loc 1 810 0
 1895 0038 14E0     		b	.L141
 1896              	.L142:
 804:RelayTest.c   ****         pTxPacket_RelaySiren->Payload.Outputs_9to16 = 0x00;
 1897              		.loc 1 804 0
ARM GAS  C:\Users\MARTHN~1\AppData\Local\Temp\ccHF3wZv.s 			page 49


 1898 003a 0C4B     		ldr	r3, .L145
 1899 003c 1B68     		ldr	r3, [r3]
 1900 003e 0022     		movs	r2, #0
 1901 0040 83F84520 		strb	r2, [r3, #69]
 805:RelayTest.c   ****         pTxPacket_RelaySiren->Payload.Outputs_17to24 = 0x00;
 1902              		.loc 1 805 0
 1903 0044 094B     		ldr	r3, .L145
 1904 0046 1B68     		ldr	r3, [r3]
 1905 0048 0022     		movs	r2, #0
 1906 004a 83F84620 		strb	r2, [r3, #70]
 806:RelayTest.c   ****         pTxPacket_RelaySiren->Payload.Outputs_25to32 = 0x00;
 1907              		.loc 1 806 0
 1908 004e 074B     		ldr	r3, .L145
 1909 0050 1B68     		ldr	r3, [r3]
 1910 0052 0022     		movs	r2, #0
 1911 0054 83F84720 		strb	r2, [r3, #71]
 807:RelayTest.c   ****     }
 1912              		.loc 1 807 0
 1913 0058 044B     		ldr	r3, .L145
 1914 005a 1B68     		ldr	r3, [r3]
 1915 005c 0022     		movs	r2, #0
 1916 005e 83F84820 		strb	r2, [r3, #72]
 1917              		.loc 1 810 0
 1918 0062 00BF     		nop
 1919              	.L141:
 811:RelayTest.c   ****     
 812:RelayTest.c   **** }
 1920              		.loc 1 812 0
 1921 0064 0C37     		adds	r7, r7, #12
 1922              		.cfi_def_cfa_offset 4
 1923 0066 BD46     		mov	sp, r7
 1924              		.cfi_def_cfa_register 13
 1925              		@ sp needed
 1926 0068 80BC     		pop	{r7}
 1927              		.cfi_restore 7
 1928              		.cfi_def_cfa_offset 0
 1929 006a 7047     		bx	lr
 1930              	.L146:
 1931              		.align	2
 1932              	.L145:
 1933 006c 64000000 		.word	pTxPacket_RelaySiren
 1934              		.cfi_endproc
 1935              	.LFE82:
 1936              		.size	SetRelayOutputs, .-SetRelayOutputs
 1937              		.bss
 1938 010b 00       		.align	2
 1939              	channel.6630:
 1940 010c 00000000 		.space	4
 1941              		.data
 1942              		.align	2
 1943              		.type	targetstring.6667, %object
 1944              		.size	targetstring.6667, 6
 1945              	targetstring.6667:
 1946 0000 24       		.byte	36
 1947 0001 47       		.byte	71
 1948 0002 50       		.byte	80
 1949 0003 4D       		.byte	77
ARM GAS  C:\Users\MARTHN~1\AppData\Local\Temp\ccHF3wZv.s 			page 50


 1950 0004 52       		.byte	82
 1951 0005 43       		.byte	67
 1952              		.bss
 1953              		.align	2
 1954              	RelayTestStatus_display.6682:
 1955 0110 00000000 		.space	20
 1955      00000000 
 1955      00000000 
 1955      00000000 
 1955      00000000 
 1956              		.text
 1957              	.Letext0:
 1958              		.file 2 "c:\\program files (x86)\\cypress\\psoc creator\\4.3\\psoc creator\\import\\gnu\\arm\\5.4.
 1959              		.file 3 "c:\\program files (x86)\\cypress\\psoc creator\\4.3\\psoc creator\\import\\gnu\\arm\\5.4.
 1960              		.file 4 "Generated_Source\\PSoC5/cytypes.h"
 1961              		.file 5 "UART_230400_Functions.h"
 1962              		.file 6 "UART_460800_Functions.h"
 1963              		.file 7 "Generated_Source\\PSoC5/core_cm3.h"
 1964              		.section	.debug_info,"",%progbits
 1965              	.Ldebug_info0:
 1966 0000 56110000 		.4byte	0x1156
 1967 0004 0400     		.2byte	0x4
 1968 0006 00000000 		.4byte	.Ldebug_abbrev0
 1969 000a 04       		.byte	0x4
 1970 000b 01       		.uleb128 0x1
 1971 000c 0D090000 		.4byte	.LASF306
 1972 0010 0C       		.byte	0xc
 1973 0011 BB0E0000 		.4byte	.LASF307
 1974 0015 F2040000 		.4byte	.LASF308
 1975 0019 00000000 		.4byte	.Ldebug_ranges0+0
 1976 001d 00000000 		.4byte	0
 1977 0021 00000000 		.4byte	.Ldebug_line0
 1978 0025 02       		.uleb128 0x2
 1979 0026 01       		.byte	0x1
 1980 0027 06       		.byte	0x6
 1981 0028 4A040000 		.4byte	.LASF0
 1982 002c 02       		.uleb128 0x2
 1983 002d 01       		.byte	0x1
 1984 002e 08       		.byte	0x8
 1985 002f C7040000 		.4byte	.LASF1
 1986 0033 02       		.uleb128 0x2
 1987 0034 02       		.byte	0x2
 1988 0035 05       		.byte	0x5
 1989 0036 350E0000 		.4byte	.LASF2
 1990 003a 02       		.uleb128 0x2
 1991 003b 02       		.byte	0x2
 1992 003c 07       		.byte	0x7
 1993 003d F00F0000 		.4byte	.LASF3
 1994 0041 03       		.uleb128 0x3
 1995 0042 14100000 		.4byte	.LASF9
 1996 0046 02       		.byte	0x2
 1997 0047 3F       		.byte	0x3f
 1998 0048 4C000000 		.4byte	0x4c
 1999 004c 02       		.uleb128 0x2
 2000 004d 04       		.byte	0x4
 2001 004e 05       		.byte	0x5
 2002 004f 7F030000 		.4byte	.LASF4
ARM GAS  C:\Users\MARTHN~1\AppData\Local\Temp\ccHF3wZv.s 			page 51


 2003 0053 02       		.uleb128 0x2
 2004 0054 04       		.byte	0x4
 2005 0055 07       		.byte	0x7
 2006 0056 3A080000 		.4byte	.LASF5
 2007 005a 02       		.uleb128 0x2
 2008 005b 08       		.byte	0x8
 2009 005c 05       		.byte	0x5
 2010 005d D2090000 		.4byte	.LASF6
 2011 0061 02       		.uleb128 0x2
 2012 0062 08       		.byte	0x8
 2013 0063 07       		.byte	0x7
 2014 0064 AB0B0000 		.4byte	.LASF7
 2015 0068 04       		.uleb128 0x4
 2016 0069 04       		.byte	0x4
 2017 006a 05       		.byte	0x5
 2018 006b 696E7400 		.ascii	"int\000"
 2019 006f 02       		.uleb128 0x2
 2020 0070 04       		.byte	0x4
 2021 0071 07       		.byte	0x7
 2022 0072 4E0A0000 		.4byte	.LASF8
 2023 0076 03       		.uleb128 0x3
 2024 0077 4E000000 		.4byte	.LASF10
 2025 007b 03       		.byte	0x3
 2026 007c 2C       		.byte	0x2c
 2027 007d 41000000 		.4byte	0x41
 2028 0081 05       		.uleb128 0x5
 2029 0082 FD0D0000 		.4byte	.LASF11
 2030 0086 04       		.byte	0x4
 2031 0087 E401     		.2byte	0x1e4
 2032 0089 2C000000 		.4byte	0x2c
 2033 008d 05       		.uleb128 0x5
 2034 008e A4100000 		.4byte	.LASF12
 2035 0092 04       		.byte	0x4
 2036 0093 E501     		.2byte	0x1e5
 2037 0095 3A000000 		.4byte	0x3a
 2038 0099 05       		.uleb128 0x5
 2039 009a F4000000 		.4byte	.LASF13
 2040 009e 04       		.byte	0x4
 2041 009f E601     		.2byte	0x1e6
 2042 00a1 53000000 		.4byte	0x53
 2043 00a5 02       		.uleb128 0x2
 2044 00a6 04       		.byte	0x4
 2045 00a7 04       		.byte	0x4
 2046 00a8 3D0A0000 		.4byte	.LASF14
 2047 00ac 02       		.uleb128 0x2
 2048 00ad 08       		.byte	0x8
 2049 00ae 04       		.byte	0x4
 2050 00af 0A0A0000 		.4byte	.LASF15
 2051 00b3 02       		.uleb128 0x2
 2052 00b4 01       		.byte	0x1
 2053 00b5 08       		.byte	0x8
 2054 00b6 4C050000 		.4byte	.LASF16
 2055 00ba 02       		.uleb128 0x2
 2056 00bb 08       		.byte	0x8
 2057 00bc 04       		.byte	0x4
 2058 00bd 0E0B0000 		.4byte	.LASF17
 2059 00c1 02       		.uleb128 0x2
ARM GAS  C:\Users\MARTHN~1\AppData\Local\Temp\ccHF3wZv.s 			page 52


 2060 00c2 04       		.byte	0x4
 2061 00c3 07       		.byte	0x7
 2062 00c4 20000000 		.4byte	.LASF18
 2063 00c8 06       		.uleb128 0x6
 2064 00c9 81000000 		.4byte	0x81
 2065 00cd D8000000 		.4byte	0xd8
 2066 00d1 07       		.uleb128 0x7
 2067 00d2 C1000000 		.4byte	0xc1
 2068 00d6 02       		.byte	0x2
 2069 00d7 00       		.byte	0
 2070 00d8 06       		.uleb128 0x6
 2071 00d9 81000000 		.4byte	0x81
 2072 00dd E8000000 		.4byte	0xe8
 2073 00e1 07       		.uleb128 0x7
 2074 00e2 C1000000 		.4byte	0xc1
 2075 00e6 0E       		.byte	0xe
 2076 00e7 00       		.byte	0
 2077 00e8 08       		.uleb128 0x8
 2078 00e9 0C0E0000 		.4byte	.LASF37
 2079 00ed 0F       		.byte	0xf
 2080 00ee 05       		.byte	0x5
 2081 00ef 62       		.byte	0x62
 2082 00f0 A9010000 		.4byte	0x1a9
 2083 00f4 09       		.uleb128 0x9
 2084 00f5 C8020000 		.4byte	.LASF19
 2085 00f9 05       		.byte	0x5
 2086 00fa 64       		.byte	0x64
 2087 00fb 81000000 		.4byte	0x81
 2088 00ff 00       		.byte	0
 2089 0100 09       		.uleb128 0x9
 2090 0101 D7020000 		.4byte	.LASF20
 2091 0105 05       		.byte	0x5
 2092 0106 65       		.byte	0x65
 2093 0107 81000000 		.4byte	0x81
 2094 010b 01       		.byte	0x1
 2095 010c 09       		.uleb128 0x9
 2096 010d E6020000 		.4byte	.LASF21
 2097 0111 05       		.byte	0x5
 2098 0112 66       		.byte	0x66
 2099 0113 81000000 		.4byte	0x81
 2100 0117 02       		.byte	0x2
 2101 0118 09       		.uleb128 0x9
 2102 0119 F5020000 		.4byte	.LASF22
 2103 011d 05       		.byte	0x5
 2104 011e 67       		.byte	0x67
 2105 011f 81000000 		.4byte	0x81
 2106 0123 03       		.byte	0x3
 2107 0124 09       		.uleb128 0x9
 2108 0125 E30A0000 		.4byte	.LASF23
 2109 0129 05       		.byte	0x5
 2110 012a 68       		.byte	0x68
 2111 012b 81000000 		.4byte	0x81
 2112 012f 04       		.byte	0x4
 2113 0130 09       		.uleb128 0x9
 2114 0131 CF050000 		.4byte	.LASF24
 2115 0135 05       		.byte	0x5
 2116 0136 69       		.byte	0x69
ARM GAS  C:\Users\MARTHN~1\AppData\Local\Temp\ccHF3wZv.s 			page 53


 2117 0137 81000000 		.4byte	0x81
 2118 013b 05       		.byte	0x5
 2119 013c 09       		.uleb128 0x9
 2120 013d F10C0000 		.4byte	.LASF25
 2121 0141 05       		.byte	0x5
 2122 0142 6A       		.byte	0x6a
 2123 0143 81000000 		.4byte	0x81
 2124 0147 06       		.byte	0x6
 2125 0148 09       		.uleb128 0x9
 2126 0149 D40B0000 		.4byte	.LASF26
 2127 014d 05       		.byte	0x5
 2128 014e 6B       		.byte	0x6b
 2129 014f 81000000 		.4byte	0x81
 2130 0153 07       		.byte	0x7
 2131 0154 09       		.uleb128 0x9
 2132 0155 5B0A0000 		.4byte	.LASF27
 2133 0159 05       		.byte	0x5
 2134 015a 6C       		.byte	0x6c
 2135 015b 81000000 		.4byte	0x81
 2136 015f 08       		.byte	0x8
 2137 0160 09       		.uleb128 0x9
 2138 0161 670A0000 		.4byte	.LASF28
 2139 0165 05       		.byte	0x5
 2140 0166 6D       		.byte	0x6d
 2141 0167 81000000 		.4byte	0x81
 2142 016b 09       		.byte	0x9
 2143 016c 09       		.uleb128 0x9
 2144 016d 730A0000 		.4byte	.LASF29
 2145 0171 05       		.byte	0x5
 2146 0172 6E       		.byte	0x6e
 2147 0173 81000000 		.4byte	0x81
 2148 0177 0A       		.byte	0xa
 2149 0178 09       		.uleb128 0x9
 2150 0179 73100000 		.4byte	.LASF30
 2151 017d 05       		.byte	0x5
 2152 017e 6F       		.byte	0x6f
 2153 017f 81000000 		.4byte	0x81
 2154 0183 0B       		.byte	0xb
 2155 0184 09       		.uleb128 0x9
 2156 0185 7F100000 		.4byte	.LASF31
 2157 0189 05       		.byte	0x5
 2158 018a 70       		.byte	0x70
 2159 018b 81000000 		.4byte	0x81
 2160 018f 0C       		.byte	0xc
 2161 0190 09       		.uleb128 0x9
 2162 0191 8B100000 		.4byte	.LASF32
 2163 0195 05       		.byte	0x5
 2164 0196 71       		.byte	0x71
 2165 0197 81000000 		.4byte	0x81
 2166 019b 0D       		.byte	0xd
 2167 019c 09       		.uleb128 0x9
 2168 019d 9E040000 		.4byte	.LASF33
 2169 01a1 05       		.byte	0x5
 2170 01a2 72       		.byte	0x72
 2171 01a3 81000000 		.4byte	0x81
 2172 01a7 0E       		.byte	0xe
 2173 01a8 00       		.byte	0
ARM GAS  C:\Users\MARTHN~1\AppData\Local\Temp\ccHF3wZv.s 			page 54


 2174 01a9 0A       		.uleb128 0xa
 2175 01aa 3F0D0000 		.4byte	.LASF117
 2176 01ae 0F       		.byte	0xf
 2177 01af 05       		.byte	0x5
 2178 01b0 5E       		.byte	0x5e
 2179 01b1 CC010000 		.4byte	0x1cc
 2180 01b5 0B       		.uleb128 0xb
 2181 01b6 46050000 		.4byte	.LASF34
 2182 01ba 05       		.byte	0x5
 2183 01bb 60       		.byte	0x60
 2184 01bc D8000000 		.4byte	0xd8
 2185 01c0 0B       		.uleb128 0xb
 2186 01c1 A7040000 		.4byte	.LASF35
 2187 01c5 05       		.byte	0x5
 2188 01c6 73       		.byte	0x73
 2189 01c7 E8000000 		.4byte	0xe8
 2190 01cb 00       		.byte	0
 2191 01cc 03       		.uleb128 0x3
 2192 01cd 750E0000 		.4byte	.LASF36
 2193 01d1 05       		.byte	0x5
 2194 01d2 74       		.byte	0x74
 2195 01d3 A9010000 		.4byte	0x1a9
 2196 01d7 08       		.uleb128 0x8
 2197 01d8 650F0000 		.4byte	.LASF38
 2198 01dc 4F       		.byte	0x4f
 2199 01dd 05       		.byte	0x5
 2200 01de 8F       		.byte	0x8f
 2201 01df 98050000 		.4byte	0x598
 2202 01e3 09       		.uleb128 0x9
 2203 01e4 02070000 		.4byte	.LASF39
 2204 01e8 05       		.byte	0x5
 2205 01e9 91       		.byte	0x91
 2206 01ea 81000000 		.4byte	0x81
 2207 01ee 00       		.byte	0
 2208 01ef 09       		.uleb128 0x9
 2209 01f0 F9060000 		.4byte	.LASF40
 2210 01f4 05       		.byte	0x5
 2211 01f5 92       		.byte	0x92
 2212 01f6 81000000 		.4byte	0x81
 2213 01fa 01       		.byte	0x1
 2214 01fb 09       		.uleb128 0x9
 2215 01fc F0060000 		.4byte	.LASF41
 2216 0200 05       		.byte	0x5
 2217 0201 93       		.byte	0x93
 2218 0202 81000000 		.4byte	0x81
 2219 0206 02       		.byte	0x2
 2220 0207 09       		.uleb128 0x9
 2221 0208 30040000 		.4byte	.LASF42
 2222 020c 05       		.byte	0x5
 2223 020d 94       		.byte	0x94
 2224 020e 81000000 		.4byte	0x81
 2225 0212 03       		.byte	0x3
 2226 0213 09       		.uleb128 0x9
 2227 0214 1B040000 		.4byte	.LASF43
 2228 0218 05       		.byte	0x5
 2229 0219 95       		.byte	0x95
 2230 021a 81000000 		.4byte	0x81
ARM GAS  C:\Users\MARTHN~1\AppData\Local\Temp\ccHF3wZv.s 			page 55


 2231 021e 04       		.byte	0x4
 2232 021f 09       		.uleb128 0x9
 2233 0220 12040000 		.4byte	.LASF44
 2234 0224 05       		.byte	0x5
 2235 0225 96       		.byte	0x96
 2236 0226 81000000 		.4byte	0x81
 2237 022a 05       		.byte	0x5
 2238 022b 09       		.uleb128 0x9
 2239 022c BD100000 		.4byte	.LASF45
 2240 0230 05       		.byte	0x5
 2241 0231 97       		.byte	0x97
 2242 0232 81000000 		.4byte	0x81
 2243 0236 06       		.byte	0x6
 2244 0237 09       		.uleb128 0x9
 2245 0238 B4100000 		.4byte	.LASF46
 2246 023c 05       		.byte	0x5
 2247 023d 98       		.byte	0x98
 2248 023e 81000000 		.4byte	0x81
 2249 0242 07       		.byte	0x7
 2250 0243 09       		.uleb128 0x9
 2251 0244 AB100000 		.4byte	.LASF47
 2252 0248 05       		.byte	0x5
 2253 0249 99       		.byte	0x99
 2254 024a 81000000 		.4byte	0x81
 2255 024e 08       		.byte	0x8
 2256 024f 09       		.uleb128 0x9
 2257 0250 850D0000 		.4byte	.LASF48
 2258 0254 05       		.byte	0x5
 2259 0255 9A       		.byte	0x9a
 2260 0256 81000000 		.4byte	0x81
 2261 025a 09       		.byte	0x9
 2262 025b 09       		.uleb128 0x9
 2263 025c 5C0D0000 		.4byte	.LASF49
 2264 0260 05       		.byte	0x5
 2265 0261 9B       		.byte	0x9b
 2266 0262 81000000 		.4byte	0x81
 2267 0266 0A       		.byte	0xa
 2268 0267 09       		.uleb128 0x9
 2269 0268 530D0000 		.4byte	.LASF50
 2270 026c 05       		.byte	0x5
 2271 026d 9C       		.byte	0x9c
 2272 026e 81000000 		.4byte	0x81
 2273 0272 0B       		.byte	0xb
 2274 0273 09       		.uleb128 0x9
 2275 0274 AA0A0000 		.4byte	.LASF51
 2276 0278 05       		.byte	0x5
 2277 0279 9D       		.byte	0x9d
 2278 027a 81000000 		.4byte	0x81
 2279 027e 0C       		.byte	0xc
 2280 027f 09       		.uleb128 0x9
 2281 0280 930A0000 		.4byte	.LASF52
 2282 0284 05       		.byte	0x5
 2283 0285 9E       		.byte	0x9e
 2284 0286 81000000 		.4byte	0x81
 2285 028a 0D       		.byte	0xd
 2286 028b 09       		.uleb128 0x9
 2287 028c 8A0A0000 		.4byte	.LASF53
ARM GAS  C:\Users\MARTHN~1\AppData\Local\Temp\ccHF3wZv.s 			page 56


 2288 0290 05       		.byte	0x5
 2289 0291 9F       		.byte	0x9f
 2290 0292 81000000 		.4byte	0x81
 2291 0296 0E       		.byte	0xe
 2292 0297 09       		.uleb128 0x9
 2293 0298 34010000 		.4byte	.LASF54
 2294 029c 05       		.byte	0x5
 2295 029d A0       		.byte	0xa0
 2296 029e 81000000 		.4byte	0x81
 2297 02a2 0F       		.byte	0xf
 2298 02a3 09       		.uleb128 0x9
 2299 02a4 E7060000 		.4byte	.LASF55
 2300 02a8 05       		.byte	0x5
 2301 02a9 A1       		.byte	0xa1
 2302 02aa 81000000 		.4byte	0x81
 2303 02ae 10       		.byte	0x10
 2304 02af 09       		.uleb128 0x9
 2305 02b0 CE060000 		.4byte	.LASF56
 2306 02b4 05       		.byte	0x5
 2307 02b5 A2       		.byte	0xa2
 2308 02b6 81000000 		.4byte	0x81
 2309 02ba 11       		.byte	0x11
 2310 02bb 09       		.uleb128 0x9
 2311 02bc 260B0000 		.4byte	.LASF57
 2312 02c0 05       		.byte	0x5
 2313 02c1 A3       		.byte	0xa3
 2314 02c2 81000000 		.4byte	0x81
 2315 02c6 12       		.byte	0x12
 2316 02c7 09       		.uleb128 0x9
 2317 02c8 09040000 		.4byte	.LASF58
 2318 02cc 05       		.byte	0x5
 2319 02cd A4       		.byte	0xa4
 2320 02ce 81000000 		.4byte	0x81
 2321 02d2 13       		.byte	0x13
 2322 02d3 09       		.uleb128 0x9
 2323 02d4 00040000 		.4byte	.LASF59
 2324 02d8 05       		.byte	0x5
 2325 02d9 A5       		.byte	0xa5
 2326 02da 81000000 		.4byte	0x81
 2327 02de 14       		.byte	0x14
 2328 02df 09       		.uleb128 0x9
 2329 02e0 E0090000 		.4byte	.LASF60
 2330 02e4 05       		.byte	0x5
 2331 02e5 A6       		.byte	0xa6
 2332 02e6 81000000 		.4byte	0x81
 2333 02ea 15       		.byte	0x15
 2334 02eb 09       		.uleb128 0x9
 2335 02ec C9090000 		.4byte	.LASF61
 2336 02f0 05       		.byte	0x5
 2337 02f1 A7       		.byte	0xa7
 2338 02f2 81000000 		.4byte	0x81
 2339 02f6 16       		.byte	0x16
 2340 02f7 09       		.uleb128 0x9
 2341 02f8 C0090000 		.4byte	.LASF62
 2342 02fc 05       		.byte	0x5
 2343 02fd A8       		.byte	0xa8
 2344 02fe 81000000 		.4byte	0x81
ARM GAS  C:\Users\MARTHN~1\AppData\Local\Temp\ccHF3wZv.s 			page 57


 2345 0302 17       		.byte	0x17
 2346 0303 09       		.uleb128 0x9
 2347 0304 90050000 		.4byte	.LASF63
 2348 0308 05       		.byte	0x5
 2349 0309 A9       		.byte	0xa9
 2350 030a 81000000 		.4byte	0x81
 2351 030e 18       		.byte	0x18
 2352 030f 09       		.uleb128 0x9
 2353 0310 87050000 		.4byte	.LASF64
 2354 0314 05       		.byte	0x5
 2355 0315 AA       		.byte	0xaa
 2356 0316 81000000 		.4byte	0x81
 2357 031a 19       		.byte	0x19
 2358 031b 09       		.uleb128 0x9
 2359 031c 7E050000 		.4byte	.LASF65
 2360 0320 05       		.byte	0x5
 2361 0321 AB       		.byte	0xab
 2362 0322 81000000 		.4byte	0x81
 2363 0326 1A       		.byte	0x1a
 2364 0327 09       		.uleb128 0x9
 2365 0328 A8010000 		.4byte	.LASF66
 2366 032c 05       		.byte	0x5
 2367 032d AC       		.byte	0xac
 2368 032e 81000000 		.4byte	0x81
 2369 0332 1B       		.byte	0x1b
 2370 0333 09       		.uleb128 0x9
 2371 0334 93010000 		.4byte	.LASF67
 2372 0338 05       		.byte	0x5
 2373 0339 AD       		.byte	0xad
 2374 033a 81000000 		.4byte	0x81
 2375 033e 1C       		.byte	0x1c
 2376 033f 09       		.uleb128 0x9
 2377 0340 8A010000 		.4byte	.LASF68
 2378 0344 05       		.byte	0x5
 2379 0345 AE       		.byte	0xae
 2380 0346 81000000 		.4byte	0x81
 2381 034a 1D       		.byte	0x1d
 2382 034b 09       		.uleb128 0x9
 2383 034c 5C0F0000 		.4byte	.LASF69
 2384 0350 05       		.byte	0x5
 2385 0351 AF       		.byte	0xaf
 2386 0352 81000000 		.4byte	0x81
 2387 0356 1E       		.byte	0x1e
 2388 0357 09       		.uleb128 0x9
 2389 0358 450F0000 		.4byte	.LASF70
 2390 035c 05       		.byte	0x5
 2391 035d B0       		.byte	0xb0
 2392 035e 81000000 		.4byte	0x81
 2393 0362 1F       		.byte	0x1f
 2394 0363 09       		.uleb128 0x9
 2395 0364 3C0F0000 		.4byte	.LASF71
 2396 0368 05       		.byte	0x5
 2397 0369 B1       		.byte	0xb1
 2398 036a 81000000 		.4byte	0x81
 2399 036e 20       		.byte	0x20
 2400 036f 09       		.uleb128 0x9
 2401 0370 C20B0000 		.4byte	.LASF72
ARM GAS  C:\Users\MARTHN~1\AppData\Local\Temp\ccHF3wZv.s 			page 58


 2402 0374 05       		.byte	0x5
 2403 0375 B2       		.byte	0xb2
 2404 0376 81000000 		.4byte	0x81
 2405 037a 21       		.byte	0x21
 2406 037b 09       		.uleb128 0x9
 2407 037c 8E0B0000 		.4byte	.LASF73
 2408 0380 05       		.byte	0x5
 2409 0381 B3       		.byte	0xb3
 2410 0382 81000000 		.4byte	0x81
 2411 0386 22       		.byte	0x22
 2412 0387 09       		.uleb128 0x9
 2413 0388 850B0000 		.4byte	.LASF74
 2414 038c 05       		.byte	0x5
 2415 038d B4       		.byte	0xb4
 2416 038e 81000000 		.4byte	0x81
 2417 0392 23       		.byte	0x23
 2418 0393 09       		.uleb128 0x9
 2419 0394 3E030000 		.4byte	.LASF75
 2420 0398 05       		.byte	0x5
 2421 0399 B5       		.byte	0xb5
 2422 039a 81000000 		.4byte	0x81
 2423 039e 24       		.byte	0x24
 2424 039f 09       		.uleb128 0x9
 2425 03a0 B7090000 		.4byte	.LASF76
 2426 03a4 05       		.byte	0x5
 2427 03a5 B6       		.byte	0xb6
 2428 03a6 81000000 		.4byte	0x81
 2429 03aa 25       		.byte	0x25
 2430 03ab 09       		.uleb128 0x9
 2431 03ac AE090000 		.4byte	.LASF77
 2432 03b0 05       		.byte	0x5
 2433 03b1 B7       		.byte	0xb7
 2434 03b2 81000000 		.4byte	0x81
 2435 03b6 26       		.byte	0x26
 2436 03b7 09       		.uleb128 0x9
 2437 03b8 B80C0000 		.4byte	.LASF78
 2438 03bc 05       		.byte	0x5
 2439 03bd B8       		.byte	0xb8
 2440 03be 81000000 		.4byte	0x81
 2441 03c2 27       		.byte	0x27
 2442 03c3 09       		.uleb128 0x9
 2443 03c4 67050000 		.4byte	.LASF79
 2444 03c8 05       		.byte	0x5
 2445 03c9 B9       		.byte	0xb9
 2446 03ca 81000000 		.4byte	0x81
 2447 03ce 28       		.byte	0x28
 2448 03cf 09       		.uleb128 0x9
 2449 03d0 5E050000 		.4byte	.LASF80
 2450 03d4 05       		.byte	0x5
 2451 03d5 BA       		.byte	0xba
 2452 03d6 81000000 		.4byte	0x81
 2453 03da 29       		.byte	0x29
 2454 03db 09       		.uleb128 0x9
 2455 03dc E4050000 		.4byte	.LASF81
 2456 03e0 05       		.byte	0x5
 2457 03e1 BB       		.byte	0xbb
 2458 03e2 81000000 		.4byte	0x81
ARM GAS  C:\Users\MARTHN~1\AppData\Local\Temp\ccHF3wZv.s 			page 59


 2459 03e6 2A       		.byte	0x2a
 2460 03e7 09       		.uleb128 0x9
 2461 03e8 4C010000 		.4byte	.LASF82
 2462 03ec 05       		.byte	0x5
 2463 03ed BC       		.byte	0xbc
 2464 03ee 81000000 		.4byte	0x81
 2465 03f2 2B       		.byte	0x2b
 2466 03f3 09       		.uleb128 0x9
 2467 03f4 C6050000 		.4byte	.LASF83
 2468 03f8 05       		.byte	0x5
 2469 03f9 BD       		.byte	0xbd
 2470 03fa 81000000 		.4byte	0x81
 2471 03fe 2C       		.byte	0x2c
 2472 03ff 09       		.uleb128 0x9
 2473 0400 D80F0000 		.4byte	.LASF84
 2474 0404 05       		.byte	0x5
 2475 0405 BE       		.byte	0xbe
 2476 0406 81000000 		.4byte	0x81
 2477 040a 2D       		.byte	0x2d
 2478 040b 09       		.uleb128 0x9
 2479 040c 330F0000 		.4byte	.LASF85
 2480 0410 05       		.byte	0x5
 2481 0411 BF       		.byte	0xbf
 2482 0412 81000000 		.4byte	0x81
 2483 0416 2E       		.byte	0x2e
 2484 0417 09       		.uleb128 0x9
 2485 0418 2A0F0000 		.4byte	.LASF86
 2486 041c 05       		.byte	0x5
 2487 041d C0       		.byte	0xc0
 2488 041e 81000000 		.4byte	0x81
 2489 0422 2F       		.byte	0x2f
 2490 0423 09       		.uleb128 0x9
 2491 0424 D1100000 		.4byte	.LASF87
 2492 0428 05       		.byte	0x5
 2493 0429 C1       		.byte	0xc1
 2494 042a 81000000 		.4byte	0x81
 2495 042e 30       		.byte	0x30
 2496 042f 09       		.uleb128 0x9
 2497 0430 00000000 		.4byte	.LASF88
 2498 0434 05       		.byte	0x5
 2499 0435 C2       		.byte	0xc2
 2500 0436 81000000 		.4byte	0x81
 2501 043a 31       		.byte	0x31
 2502 043b 09       		.uleb128 0x9
 2503 043c 04030000 		.4byte	.LASF89
 2504 0440 05       		.byte	0x5
 2505 0441 C3       		.byte	0xc3
 2506 0442 81000000 		.4byte	0x81
 2507 0446 32       		.byte	0x32
 2508 0447 09       		.uleb128 0x9
 2509 0448 D5010000 		.4byte	.LASF90
 2510 044c 05       		.byte	0x5
 2511 044d C4       		.byte	0xc4
 2512 044e 81000000 		.4byte	0x81
 2513 0452 33       		.byte	0x33
 2514 0453 09       		.uleb128 0x9
 2515 0454 BE0A0000 		.4byte	.LASF91
ARM GAS  C:\Users\MARTHN~1\AppData\Local\Temp\ccHF3wZv.s 			page 60


 2516 0458 05       		.byte	0x5
 2517 0459 C5       		.byte	0xc5
 2518 045a 81000000 		.4byte	0x81
 2519 045e 34       		.byte	0x34
 2520 045f 09       		.uleb128 0x9
 2521 0460 65100000 		.4byte	.LASF92
 2522 0464 05       		.byte	0x5
 2523 0465 C6       		.byte	0xc6
 2524 0466 81000000 		.4byte	0x81
 2525 046a 35       		.byte	0x35
 2526 046b 09       		.uleb128 0x9
 2527 046c BF060000 		.4byte	.LASF93
 2528 0470 05       		.byte	0x5
 2529 0471 C7       		.byte	0xc7
 2530 0472 81000000 		.4byte	0x81
 2531 0476 36       		.byte	0x36
 2532 0477 09       		.uleb128 0x9
 2533 0478 B2030000 		.4byte	.LASF94
 2534 047c 05       		.byte	0x5
 2535 047d C8       		.byte	0xc8
 2536 047e 81000000 		.4byte	0x81
 2537 0482 37       		.byte	0x37
 2538 0483 09       		.uleb128 0x9
 2539 0484 C2030000 		.4byte	.LASF95
 2540 0488 05       		.byte	0x5
 2541 0489 C9       		.byte	0xc9
 2542 048a 81000000 		.4byte	0x81
 2543 048e 38       		.byte	0x38
 2544 048f 09       		.uleb128 0x9
 2545 0490 D2030000 		.4byte	.LASF96
 2546 0494 05       		.byte	0x5
 2547 0495 CA       		.byte	0xca
 2548 0496 81000000 		.4byte	0x81
 2549 049a 39       		.byte	0x39
 2550 049b 09       		.uleb128 0x9
 2551 049c F5090000 		.4byte	.LASF97
 2552 04a0 05       		.byte	0x5
 2553 04a1 CB       		.byte	0xcb
 2554 04a2 81000000 		.4byte	0x81
 2555 04a6 3A       		.byte	0x3a
 2556 04a7 09       		.uleb128 0x9
 2557 04a8 1F060000 		.4byte	.LASF98
 2558 04ac 05       		.byte	0x5
 2559 04ad CC       		.byte	0xcc
 2560 04ae 81000000 		.4byte	0x81
 2561 04b2 3B       		.byte	0x3b
 2562 04b3 09       		.uleb128 0x9
 2563 04b4 B5050000 		.4byte	.LASF99
 2564 04b8 05       		.byte	0x5
 2565 04b9 CD       		.byte	0xcd
 2566 04ba 81000000 		.4byte	0x81
 2567 04be 3C       		.byte	0x3c
 2568 04bf 09       		.uleb128 0x9
 2569 04c0 D5040000 		.4byte	.LASF100
 2570 04c4 05       		.byte	0x5
 2571 04c5 CE       		.byte	0xce
 2572 04c6 81000000 		.4byte	0x81
ARM GAS  C:\Users\MARTHN~1\AppData\Local\Temp\ccHF3wZv.s 			page 61


 2573 04ca 3D       		.byte	0x3d
 2574 04cb 09       		.uleb128 0x9
 2575 04cc B30A0000 		.4byte	.LASF101
 2576 04d0 05       		.byte	0x5
 2577 04d1 CF       		.byte	0xcf
 2578 04d2 81000000 		.4byte	0x81
 2579 04d6 3E       		.byte	0x3e
 2580 04d7 09       		.uleb128 0x9
 2581 04d8 61080000 		.4byte	.LASF102
 2582 04dc 05       		.byte	0x5
 2583 04dd D0       		.byte	0xd0
 2584 04de 81000000 		.4byte	0x81
 2585 04e2 3F       		.byte	0x3f
 2586 04e3 09       		.uleb128 0x9
 2587 04e4 24030000 		.4byte	.LASF103
 2588 04e8 05       		.byte	0x5
 2589 04e9 D1       		.byte	0xd1
 2590 04ea 81000000 		.4byte	0x81
 2591 04ee 40       		.byte	0x40
 2592 04ef 09       		.uleb128 0x9
 2593 04f0 29020000 		.4byte	.LASF104
 2594 04f4 05       		.byte	0x5
 2595 04f5 D2       		.byte	0xd2
 2596 04f6 81000000 		.4byte	0x81
 2597 04fa 41       		.byte	0x41
 2598 04fb 09       		.uleb128 0x9
 2599 04fc D7060000 		.4byte	.LASF105
 2600 0500 05       		.byte	0x5
 2601 0501 D3       		.byte	0xd3
 2602 0502 81000000 		.4byte	0x81
 2603 0506 42       		.byte	0x42
 2604 0507 09       		.uleb128 0x9
 2605 0508 B7020000 		.4byte	.LASF106
 2606 050c 05       		.byte	0x5
 2607 050d D4       		.byte	0xd4
 2608 050e 81000000 		.4byte	0x81
 2609 0512 43       		.byte	0x43
 2610 0513 09       		.uleb128 0x9
 2611 0514 39040000 		.4byte	.LASF107
 2612 0518 05       		.byte	0x5
 2613 0519 D5       		.byte	0xd5
 2614 051a 81000000 		.4byte	0x81
 2615 051e 44       		.byte	0x44
 2616 051f 09       		.uleb128 0x9
 2617 0520 51050000 		.4byte	.LASF108
 2618 0524 05       		.byte	0x5
 2619 0525 D6       		.byte	0xd6
 2620 0526 81000000 		.4byte	0x81
 2621 052a 45       		.byte	0x45
 2622 052b 09       		.uleb128 0x9
 2623 052c 70050000 		.4byte	.LASF109
 2624 0530 05       		.byte	0x5
 2625 0531 D7       		.byte	0xd7
 2626 0532 81000000 		.4byte	0x81
 2627 0536 46       		.byte	0x46
 2628 0537 09       		.uleb128 0x9
 2629 0538 EE0D0000 		.4byte	.LASF110
ARM GAS  C:\Users\MARTHN~1\AppData\Local\Temp\ccHF3wZv.s 			page 62


 2630 053c 05       		.byte	0x5
 2631 053d D8       		.byte	0xd8
 2632 053e 81000000 		.4byte	0x81
 2633 0542 47       		.byte	0x47
 2634 0543 09       		.uleb128 0x9
 2635 0544 55010000 		.4byte	.LASF111
 2636 0548 05       		.byte	0x5
 2637 0549 D9       		.byte	0xd9
 2638 054a 81000000 		.4byte	0x81
 2639 054e 48       		.byte	0x48
 2640 054f 09       		.uleb128 0x9
 2641 0550 F00A0000 		.4byte	.LASF112
 2642 0554 05       		.byte	0x5
 2643 0555 DA       		.byte	0xda
 2644 0556 81000000 		.4byte	0x81
 2645 055a 49       		.byte	0x49
 2646 055b 09       		.uleb128 0x9
 2647 055c 43000000 		.4byte	.LASF113
 2648 0560 05       		.byte	0x5
 2649 0561 DB       		.byte	0xdb
 2650 0562 81000000 		.4byte	0x81
 2651 0566 4A       		.byte	0x4a
 2652 0567 0C       		.uleb128 0xc
 2653 0568 52524200 		.ascii	"RRB\000"
 2654 056c 05       		.byte	0x5
 2655 056d DC       		.byte	0xdc
 2656 056e 81000000 		.4byte	0x81
 2657 0572 4B       		.byte	0x4b
 2658 0573 09       		.uleb128 0x9
 2659 0574 E9090000 		.4byte	.LASF114
 2660 0578 05       		.byte	0x5
 2661 0579 DD       		.byte	0xdd
 2662 057a 81000000 		.4byte	0x81
 2663 057e 4C       		.byte	0x4c
 2664 057f 09       		.uleb128 0x9
 2665 0580 910F0000 		.4byte	.LASF115
 2666 0584 05       		.byte	0x5
 2667 0585 DE       		.byte	0xde
 2668 0586 81000000 		.4byte	0x81
 2669 058a 4D       		.byte	0x4d
 2670 058b 09       		.uleb128 0x9
 2671 058c 1E100000 		.4byte	.LASF116
 2672 0590 05       		.byte	0x5
 2673 0591 DF       		.byte	0xdf
 2674 0592 81000000 		.4byte	0x81
 2675 0596 4E       		.byte	0x4e
 2676 0597 00       		.byte	0
 2677 0598 0A       		.uleb128 0xa
 2678 0599 970B0000 		.4byte	.LASF118
 2679 059d 4F       		.byte	0x4f
 2680 059e 05       		.byte	0x5
 2681 059f 8B       		.byte	0x8b
 2682 05a0 BB050000 		.4byte	0x5bb
 2683 05a4 0B       		.uleb128 0xb
 2684 05a5 46050000 		.4byte	.LASF34
 2685 05a9 05       		.byte	0x5
 2686 05aa 8D       		.byte	0x8d
ARM GAS  C:\Users\MARTHN~1\AppData\Local\Temp\ccHF3wZv.s 			page 63


 2687 05ab BB050000 		.4byte	0x5bb
 2688 05af 0B       		.uleb128 0xb
 2689 05b0 A7040000 		.4byte	.LASF35
 2690 05b4 05       		.byte	0x5
 2691 05b5 E0       		.byte	0xe0
 2692 05b6 D7010000 		.4byte	0x1d7
 2693 05ba 00       		.byte	0
 2694 05bb 06       		.uleb128 0x6
 2695 05bc 81000000 		.4byte	0x81
 2696 05c0 CB050000 		.4byte	0x5cb
 2697 05c4 07       		.uleb128 0x7
 2698 05c5 C1000000 		.4byte	0xc1
 2699 05c9 4E       		.byte	0x4e
 2700 05ca 00       		.byte	0
 2701 05cb 03       		.uleb128 0x3
 2702 05cc DD0C0000 		.4byte	.LASF119
 2703 05d0 05       		.byte	0x5
 2704 05d1 E1       		.byte	0xe1
 2705 05d2 98050000 		.4byte	0x598
 2706 05d6 08       		.uleb128 0x8
 2707 05d7 19000000 		.4byte	.LASF120
 2708 05db 05       		.byte	0x5
 2709 05dc 05       		.byte	0x5
 2710 05dd F9       		.byte	0xf9
 2711 05de 20060000 		.4byte	0x620
 2712 05e2 09       		.uleb128 0x9
 2713 05e3 5B0A0000 		.4byte	.LASF27
 2714 05e7 05       		.byte	0x5
 2715 05e8 FC       		.byte	0xfc
 2716 05e9 81000000 		.4byte	0x81
 2717 05ed 00       		.byte	0
 2718 05ee 09       		.uleb128 0x9
 2719 05ef 670A0000 		.4byte	.LASF28
 2720 05f3 05       		.byte	0x5
 2721 05f4 FD       		.byte	0xfd
 2722 05f5 81000000 		.4byte	0x81
 2723 05f9 01       		.byte	0x1
 2724 05fa 09       		.uleb128 0x9
 2725 05fb 730A0000 		.4byte	.LASF29
 2726 05ff 05       		.byte	0x5
 2727 0600 FE       		.byte	0xfe
 2728 0601 81000000 		.4byte	0x81
 2729 0605 02       		.byte	0x2
 2730 0606 09       		.uleb128 0x9
 2731 0607 CF050000 		.4byte	.LASF24
 2732 060b 05       		.byte	0x5
 2733 060c FF       		.byte	0xff
 2734 060d 81000000 		.4byte	0x81
 2735 0611 03       		.byte	0x3
 2736 0612 0D       		.uleb128 0xd
 2737 0613 F10C0000 		.4byte	.LASF25
 2738 0617 05       		.byte	0x5
 2739 0618 0001     		.2byte	0x100
 2740 061a 81000000 		.4byte	0x81
 2741 061e 04       		.byte	0x4
 2742 061f 00       		.byte	0
 2743 0620 0A       		.uleb128 0xa
ARM GAS  C:\Users\MARTHN~1\AppData\Local\Temp\ccHF3wZv.s 			page 64


 2744 0621 010F0000 		.4byte	.LASF121
 2745 0625 05       		.byte	0x5
 2746 0626 05       		.byte	0x5
 2747 0627 F5       		.byte	0xf5
 2748 0628 44060000 		.4byte	0x644
 2749 062c 0B       		.uleb128 0xb
 2750 062d 46050000 		.4byte	.LASF34
 2751 0631 05       		.byte	0x5
 2752 0632 F7       		.byte	0xf7
 2753 0633 44060000 		.4byte	0x644
 2754 0637 0E       		.uleb128 0xe
 2755 0638 A7040000 		.4byte	.LASF35
 2756 063c 05       		.byte	0x5
 2757 063d 0201     		.2byte	0x102
 2758 063f D6050000 		.4byte	0x5d6
 2759 0643 00       		.byte	0
 2760 0644 06       		.uleb128 0x6
 2761 0645 81000000 		.4byte	0x81
 2762 0649 54060000 		.4byte	0x654
 2763 064d 07       		.uleb128 0x7
 2764 064e C1000000 		.4byte	0xc1
 2765 0652 04       		.byte	0x4
 2766 0653 00       		.byte	0
 2767 0654 05       		.uleb128 0x5
 2768 0655 85040000 		.4byte	.LASF122
 2769 0659 05       		.byte	0x5
 2770 065a 0301     		.2byte	0x103
 2771 065c 20060000 		.4byte	0x620
 2772 0660 0F       		.uleb128 0xf
 2773 0661 97100000 		.4byte	.LASF123
 2774 0665 03       		.byte	0x3
 2775 0666 05       		.byte	0x5
 2776 0667 0A01     		.2byte	0x10a
 2777 0669 95060000 		.4byte	0x695
 2778 066d 0D       		.uleb128 0xd
 2779 066e B30A0000 		.4byte	.LASF101
 2780 0672 05       		.byte	0x5
 2781 0673 0C01     		.2byte	0x10c
 2782 0675 81000000 		.4byte	0x81
 2783 0679 00       		.byte	0
 2784 067a 0D       		.uleb128 0xd
 2785 067b 61080000 		.4byte	.LASF102
 2786 067f 05       		.byte	0x5
 2787 0680 0D01     		.2byte	0x10d
 2788 0682 81000000 		.4byte	0x81
 2789 0686 01       		.byte	0x1
 2790 0687 0D       		.uleb128 0xd
 2791 0688 24030000 		.4byte	.LASF103
 2792 068c 05       		.byte	0x5
 2793 068d 0E01     		.2byte	0x10e
 2794 068f 81000000 		.4byte	0x81
 2795 0693 02       		.byte	0x2
 2796 0694 00       		.byte	0
 2797 0695 10       		.uleb128 0x10
 2798 0696 E2030000 		.4byte	.LASF124
 2799 069a 03       		.byte	0x3
 2800 069b 05       		.byte	0x5
ARM GAS  C:\Users\MARTHN~1\AppData\Local\Temp\ccHF3wZv.s 			page 65


 2801 069c 0601     		.2byte	0x106
 2802 069e BB060000 		.4byte	0x6bb
 2803 06a2 0E       		.uleb128 0xe
 2804 06a3 46050000 		.4byte	.LASF34
 2805 06a7 05       		.byte	0x5
 2806 06a8 0801     		.2byte	0x108
 2807 06aa C8000000 		.4byte	0xc8
 2808 06ae 0E       		.uleb128 0xe
 2809 06af A7040000 		.4byte	.LASF35
 2810 06b3 05       		.byte	0x5
 2811 06b4 1001     		.2byte	0x110
 2812 06b6 60060000 		.4byte	0x660
 2813 06ba 00       		.byte	0
 2814 06bb 05       		.uleb128 0x5
 2815 06bc 1D070000 		.4byte	.LASF125
 2816 06c0 05       		.byte	0x5
 2817 06c1 1101     		.2byte	0x111
 2818 06c3 95060000 		.4byte	0x695
 2819 06c7 08       		.uleb128 0x8
 2820 06c8 24040000 		.4byte	.LASF126
 2821 06cc 6F       		.byte	0x6f
 2822 06cd 06       		.byte	0x6
 2823 06ce 20       		.byte	0x20
 2824 06cf 080C0000 		.4byte	0xc08
 2825 06d3 09       		.uleb128 0x9
 2826 06d4 C10C0000 		.4byte	.LASF127
 2827 06d8 06       		.byte	0x6
 2828 06d9 22       		.byte	0x22
 2829 06da 81000000 		.4byte	0x81
 2830 06de 00       		.byte	0
 2831 06df 09       		.uleb128 0x9
 2832 06e0 B1010000 		.4byte	.LASF128
 2833 06e4 06       		.byte	0x6
 2834 06e5 23       		.byte	0x23
 2835 06e6 81000000 		.4byte	0x81
 2836 06ea 01       		.byte	0x1
 2837 06eb 09       		.uleb128 0x9
 2838 06ec BD010000 		.4byte	.LASF129
 2839 06f0 06       		.byte	0x6
 2840 06f1 24       		.byte	0x24
 2841 06f2 81000000 		.4byte	0x81
 2842 06f6 02       		.byte	0x2
 2843 06f7 09       		.uleb128 0x9
 2844 06f8 C9010000 		.4byte	.LASF130
 2845 06fc 06       		.byte	0x6
 2846 06fd 25       		.byte	0x25
 2847 06fe 81000000 		.4byte	0x81
 2848 0702 03       		.byte	0x3
 2849 0703 09       		.uleb128 0x9
 2850 0704 1E0E0000 		.4byte	.LASF131
 2851 0708 06       		.byte	0x6
 2852 0709 26       		.byte	0x26
 2853 070a 81000000 		.4byte	0x81
 2854 070e 04       		.byte	0x4
 2855 070f 09       		.uleb128 0x9
 2856 0710 ED010000 		.4byte	.LASF132
 2857 0714 06       		.byte	0x6
ARM GAS  C:\Users\MARTHN~1\AppData\Local\Temp\ccHF3wZv.s 			page 66


 2858 0715 27       		.byte	0x27
 2859 0716 81000000 		.4byte	0x81
 2860 071a 05       		.byte	0x5
 2861 071b 09       		.uleb128 0x9
 2862 071c F9010000 		.4byte	.LASF133
 2863 0720 06       		.byte	0x6
 2864 0721 28       		.byte	0x28
 2865 0722 81000000 		.4byte	0x81
 2866 0726 06       		.byte	0x6
 2867 0727 09       		.uleb128 0x9
 2868 0728 05020000 		.4byte	.LASF134
 2869 072c 06       		.byte	0x6
 2870 072d 29       		.byte	0x29
 2871 072e 81000000 		.4byte	0x81
 2872 0732 07       		.byte	0x7
 2873 0733 09       		.uleb128 0x9
 2874 0734 11020000 		.4byte	.LASF135
 2875 0738 06       		.byte	0x6
 2876 0739 2A       		.byte	0x2a
 2877 073a 81000000 		.4byte	0x81
 2878 073e 08       		.byte	0x8
 2879 073f 09       		.uleb128 0x9
 2880 0740 1D020000 		.4byte	.LASF136
 2881 0744 06       		.byte	0x6
 2882 0745 2B       		.byte	0x2b
 2883 0746 81000000 		.4byte	0x81
 2884 074a 09       		.byte	0x9
 2885 074b 09       		.uleb128 0x9
 2886 074c 2D060000 		.4byte	.LASF137
 2887 0750 06       		.byte	0x6
 2888 0751 2C       		.byte	0x2c
 2889 0752 81000000 		.4byte	0x81
 2890 0756 0A       		.byte	0xa
 2891 0757 09       		.uleb128 0x9
 2892 0758 3A060000 		.4byte	.LASF138
 2893 075c 06       		.byte	0x6
 2894 075d 2D       		.byte	0x2d
 2895 075e 81000000 		.4byte	0x81
 2896 0762 0B       		.byte	0xb
 2897 0763 09       		.uleb128 0x9
 2898 0764 47060000 		.4byte	.LASF139
 2899 0768 06       		.byte	0x6
 2900 0769 2E       		.byte	0x2e
 2901 076a 81000000 		.4byte	0x81
 2902 076e 0C       		.byte	0xc
 2903 076f 09       		.uleb128 0x9
 2904 0770 54060000 		.4byte	.LASF140
 2905 0774 06       		.byte	0x6
 2906 0775 2F       		.byte	0x2f
 2907 0776 81000000 		.4byte	0x81
 2908 077a 0D       		.byte	0xd
 2909 077b 09       		.uleb128 0x9
 2910 077c 61060000 		.4byte	.LASF141
 2911 0780 06       		.byte	0x6
 2912 0781 30       		.byte	0x30
 2913 0782 81000000 		.4byte	0x81
 2914 0786 0E       		.byte	0xe
ARM GAS  C:\Users\MARTHN~1\AppData\Local\Temp\ccHF3wZv.s 			page 67


 2915 0787 09       		.uleb128 0x9
 2916 0788 6E060000 		.4byte	.LASF142
 2917 078c 06       		.byte	0x6
 2918 078d 31       		.byte	0x31
 2919 078e 81000000 		.4byte	0x81
 2920 0792 0F       		.byte	0xf
 2921 0793 09       		.uleb128 0x9
 2922 0794 7B060000 		.4byte	.LASF143
 2923 0798 06       		.byte	0x6
 2924 0799 32       		.byte	0x32
 2925 079a 81000000 		.4byte	0x81
 2926 079e 10       		.byte	0x10
 2927 079f 09       		.uleb128 0x9
 2928 07a0 88060000 		.4byte	.LASF144
 2929 07a4 06       		.byte	0x6
 2930 07a5 33       		.byte	0x33
 2931 07a6 81000000 		.4byte	0x81
 2932 07aa 11       		.byte	0x11
 2933 07ab 09       		.uleb128 0x9
 2934 07ac 95060000 		.4byte	.LASF145
 2935 07b0 06       		.byte	0x6
 2936 07b1 34       		.byte	0x34
 2937 07b2 81000000 		.4byte	0x81
 2938 07b6 12       		.byte	0x12
 2939 07b7 09       		.uleb128 0x9
 2940 07b8 A2060000 		.4byte	.LASF146
 2941 07bc 06       		.byte	0x6
 2942 07bd 35       		.byte	0x35
 2943 07be 81000000 		.4byte	0x81
 2944 07c2 13       		.byte	0x13
 2945 07c3 09       		.uleb128 0x9
 2946 07c4 9B090000 		.4byte	.LASF147
 2947 07c8 06       		.byte	0x6
 2948 07c9 36       		.byte	0x36
 2949 07ca 81000000 		.4byte	0x81
 2950 07ce 14       		.byte	0x14
 2951 07cf 09       		.uleb128 0x9
 2952 07d0 2C070000 		.4byte	.LASF148
 2953 07d4 06       		.byte	0x6
 2954 07d5 37       		.byte	0x37
 2955 07d6 81000000 		.4byte	0x81
 2956 07da 15       		.byte	0x15
 2957 07db 09       		.uleb128 0x9
 2958 07dc 39070000 		.4byte	.LASF149
 2959 07e0 06       		.byte	0x6
 2960 07e1 38       		.byte	0x38
 2961 07e2 81000000 		.4byte	0x81
 2962 07e6 16       		.byte	0x16
 2963 07e7 09       		.uleb128 0x9
 2964 07e8 46070000 		.4byte	.LASF150
 2965 07ec 06       		.byte	0x6
 2966 07ed 39       		.byte	0x39
 2967 07ee 81000000 		.4byte	0x81
 2968 07f2 17       		.byte	0x17
 2969 07f3 09       		.uleb128 0x9
 2970 07f4 53070000 		.4byte	.LASF151
 2971 07f8 06       		.byte	0x6
ARM GAS  C:\Users\MARTHN~1\AppData\Local\Temp\ccHF3wZv.s 			page 68


 2972 07f9 3A       		.byte	0x3a
 2973 07fa 81000000 		.4byte	0x81
 2974 07fe 18       		.byte	0x18
 2975 07ff 09       		.uleb128 0x9
 2976 0800 60070000 		.4byte	.LASF152
 2977 0804 06       		.byte	0x6
 2978 0805 3B       		.byte	0x3b
 2979 0806 81000000 		.4byte	0x81
 2980 080a 19       		.byte	0x19
 2981 080b 09       		.uleb128 0x9
 2982 080c 6D070000 		.4byte	.LASF153
 2983 0810 06       		.byte	0x6
 2984 0811 3C       		.byte	0x3c
 2985 0812 81000000 		.4byte	0x81
 2986 0816 1A       		.byte	0x1a
 2987 0817 09       		.uleb128 0x9
 2988 0818 7A070000 		.4byte	.LASF154
 2989 081c 06       		.byte	0x6
 2990 081d 3D       		.byte	0x3d
 2991 081e 81000000 		.4byte	0x81
 2992 0822 1B       		.byte	0x1b
 2993 0823 09       		.uleb128 0x9
 2994 0824 87070000 		.4byte	.LASF155
 2995 0828 06       		.byte	0x6
 2996 0829 3E       		.byte	0x3e
 2997 082a 81000000 		.4byte	0x81
 2998 082e 1C       		.byte	0x1c
 2999 082f 09       		.uleb128 0x9
 3000 0830 94070000 		.4byte	.LASF156
 3001 0834 06       		.byte	0x6
 3002 0835 3F       		.byte	0x3f
 3003 0836 81000000 		.4byte	0x81
 3004 083a 1D       		.byte	0x1d
 3005 083b 09       		.uleb128 0x9
 3006 083c 54080000 		.4byte	.LASF157
 3007 0840 06       		.byte	0x6
 3008 0841 40       		.byte	0x40
 3009 0842 81000000 		.4byte	0x81
 3010 0846 1E       		.byte	0x1e
 3011 0847 09       		.uleb128 0x9
 3012 0848 3D0B0000 		.4byte	.LASF158
 3013 084c 06       		.byte	0x6
 3014 084d 42       		.byte	0x42
 3015 084e 81000000 		.4byte	0x81
 3016 0852 1F       		.byte	0x1f
 3017 0853 09       		.uleb128 0x9
 3018 0854 460B0000 		.4byte	.LASF159
 3019 0858 06       		.byte	0x6
 3020 0859 43       		.byte	0x43
 3021 085a 81000000 		.4byte	0x81
 3022 085e 20       		.byte	0x20
 3023 085f 09       		.uleb128 0x9
 3024 0860 4F0B0000 		.4byte	.LASF160
 3025 0864 06       		.byte	0x6
 3026 0865 44       		.byte	0x44
 3027 0866 81000000 		.4byte	0x81
 3028 086a 21       		.byte	0x21
ARM GAS  C:\Users\MARTHN~1\AppData\Local\Temp\ccHF3wZv.s 			page 69


 3029 086b 09       		.uleb128 0x9
 3030 086c E50E0000 		.4byte	.LASF161
 3031 0870 06       		.byte	0x6
 3032 0871 46       		.byte	0x46
 3033 0872 81000000 		.4byte	0x81
 3034 0876 22       		.byte	0x22
 3035 0877 09       		.uleb128 0x9
 3036 0878 F30E0000 		.4byte	.LASF162
 3037 087c 06       		.byte	0x6
 3038 087d 47       		.byte	0x47
 3039 087e 81000000 		.4byte	0x81
 3040 0882 23       		.byte	0x23
 3041 0883 09       		.uleb128 0x9
 3042 0884 9C0A0000 		.4byte	.LASF163
 3043 0888 06       		.byte	0x6
 3044 0889 48       		.byte	0x48
 3045 088a 81000000 		.4byte	0x81
 3046 088e 24       		.byte	0x24
 3047 088f 09       		.uleb128 0x9
 3048 0890 0A0F0000 		.4byte	.LASF164
 3049 0894 06       		.byte	0x6
 3050 0895 49       		.byte	0x49
 3051 0896 81000000 		.4byte	0x81
 3052 089a 25       		.byte	0x25
 3053 089b 09       		.uleb128 0x9
 3054 089c 580B0000 		.4byte	.LASF165
 3055 08a0 06       		.byte	0x6
 3056 08a1 4B       		.byte	0x4b
 3057 08a2 81000000 		.4byte	0x81
 3058 08a6 26       		.byte	0x26
 3059 08a7 09       		.uleb128 0x9
 3060 08a8 610B0000 		.4byte	.LASF166
 3061 08ac 06       		.byte	0x6
 3062 08ad 4C       		.byte	0x4c
 3063 08ae 81000000 		.4byte	0x81
 3064 08b2 27       		.byte	0x27
 3065 08b3 09       		.uleb128 0x9
 3066 08b4 6A0B0000 		.4byte	.LASF167
 3067 08b8 06       		.byte	0x6
 3068 08b9 4D       		.byte	0x4d
 3069 08ba 81000000 		.4byte	0x81
 3070 08be 28       		.byte	0x28
 3071 08bf 09       		.uleb128 0x9
 3072 08c0 730B0000 		.4byte	.LASF168
 3073 08c4 06       		.byte	0x6
 3074 08c5 4E       		.byte	0x4e
 3075 08c6 81000000 		.4byte	0x81
 3076 08ca 29       		.byte	0x29
 3077 08cb 09       		.uleb128 0x9
 3078 08cc 6C080000 		.4byte	.LASF169
 3079 08d0 06       		.byte	0x6
 3080 08d1 50       		.byte	0x50
 3081 08d2 81000000 		.4byte	0x81
 3082 08d6 2A       		.byte	0x2a
 3083 08d7 09       		.uleb128 0x9
 3084 08d8 7D080000 		.4byte	.LASF170
 3085 08dc 06       		.byte	0x6
ARM GAS  C:\Users\MARTHN~1\AppData\Local\Temp\ccHF3wZv.s 			page 70


 3086 08dd 51       		.byte	0x51
 3087 08de 81000000 		.4byte	0x81
 3088 08e2 2B       		.byte	0x2b
 3089 08e3 09       		.uleb128 0x9
 3090 08e4 8E080000 		.4byte	.LASF171
 3091 08e8 06       		.byte	0x6
 3092 08e9 52       		.byte	0x52
 3093 08ea 81000000 		.4byte	0x81
 3094 08ee 2C       		.byte	0x2c
 3095 08ef 09       		.uleb128 0x9
 3096 08f0 9F080000 		.4byte	.LASF172
 3097 08f4 06       		.byte	0x6
 3098 08f5 53       		.byte	0x53
 3099 08f6 81000000 		.4byte	0x81
 3100 08fa 2D       		.byte	0x2d
 3101 08fb 09       		.uleb128 0x9
 3102 08fc B0080000 		.4byte	.LASF173
 3103 0900 06       		.byte	0x6
 3104 0901 54       		.byte	0x54
 3105 0902 81000000 		.4byte	0x81
 3106 0906 2E       		.byte	0x2e
 3107 0907 09       		.uleb128 0x9
 3108 0908 C1080000 		.4byte	.LASF174
 3109 090c 06       		.byte	0x6
 3110 090d 55       		.byte	0x55
 3111 090e 81000000 		.4byte	0x81
 3112 0912 2F       		.byte	0x2f
 3113 0913 09       		.uleb128 0x9
 3114 0914 D2080000 		.4byte	.LASF175
 3115 0918 06       		.byte	0x6
 3116 0919 56       		.byte	0x56
 3117 091a 81000000 		.4byte	0x81
 3118 091e 30       		.byte	0x30
 3119 091f 09       		.uleb128 0x9
 3120 0920 E3080000 		.4byte	.LASF176
 3121 0924 06       		.byte	0x6
 3122 0925 57       		.byte	0x57
 3123 0926 81000000 		.4byte	0x81
 3124 092a 31       		.byte	0x31
 3125 092b 09       		.uleb128 0x9
 3126 092c 7C0B0000 		.4byte	.LASF177
 3127 0930 06       		.byte	0x6
 3128 0931 59       		.byte	0x59
 3129 0932 81000000 		.4byte	0x81
 3130 0936 32       		.byte	0x32
 3131 0937 09       		.uleb128 0x9
 3132 0938 F1030000 		.4byte	.LASF178
 3133 093c 06       		.byte	0x6
 3134 093d 5A       		.byte	0x5a
 3135 093e 81000000 		.4byte	0x81
 3136 0942 33       		.byte	0x33
 3137 0943 09       		.uleb128 0x9
 3138 0944 47030000 		.4byte	.LASF179
 3139 0948 06       		.byte	0x6
 3140 0949 5C       		.byte	0x5c
 3141 094a 81000000 		.4byte	0x81
 3142 094e 34       		.byte	0x34
ARM GAS  C:\Users\MARTHN~1\AppData\Local\Temp\ccHF3wZv.s 			page 71


 3143 094f 09       		.uleb128 0x9
 3144 0950 55030000 		.4byte	.LASF180
 3145 0954 06       		.byte	0x6
 3146 0955 5D       		.byte	0x5d
 3147 0956 81000000 		.4byte	0x81
 3148 095a 35       		.byte	0x35
 3149 095b 09       		.uleb128 0x9
 3150 095c 63030000 		.4byte	.LASF181
 3151 0960 06       		.byte	0x6
 3152 0961 5E       		.byte	0x5e
 3153 0962 81000000 		.4byte	0x81
 3154 0966 36       		.byte	0x36
 3155 0967 09       		.uleb128 0x9
 3156 0968 71030000 		.4byte	.LASF182
 3157 096c 06       		.byte	0x6
 3158 096d 5F       		.byte	0x5f
 3159 096e 81000000 		.4byte	0x81
 3160 0972 37       		.byte	0x37
 3161 0973 09       		.uleb128 0x9
 3162 0974 220A0000 		.4byte	.LASF183
 3163 0978 06       		.byte	0x6
 3164 0979 60       		.byte	0x60
 3165 097a 81000000 		.4byte	0x81
 3166 097e 38       		.byte	0x38
 3167 097f 09       		.uleb128 0x9
 3168 0980 88030000 		.4byte	.LASF184
 3169 0984 06       		.byte	0x6
 3170 0985 61       		.byte	0x61
 3171 0986 81000000 		.4byte	0x81
 3172 098a 39       		.byte	0x39
 3173 098b 09       		.uleb128 0x9
 3174 098c 96030000 		.4byte	.LASF185
 3175 0990 06       		.byte	0x6
 3176 0991 62       		.byte	0x62
 3177 0992 81000000 		.4byte	0x81
 3178 0996 3A       		.byte	0x3a
 3179 0997 09       		.uleb128 0x9
 3180 0998 A4030000 		.4byte	.LASF186
 3181 099c 06       		.byte	0x6
 3182 099d 63       		.byte	0x63
 3183 099e 81000000 		.4byte	0x81
 3184 09a2 3B       		.byte	0x3b
 3185 09a3 09       		.uleb128 0x9
 3186 09a4 820F0000 		.4byte	.LASF187
 3187 09a8 06       		.byte	0x6
 3188 09a9 64       		.byte	0x64
 3189 09aa 81000000 		.4byte	0x81
 3190 09ae 3C       		.byte	0x3c
 3191 09af 09       		.uleb128 0x9
 3192 09b0 39020000 		.4byte	.LASF188
 3193 09b4 06       		.byte	0x6
 3194 09b5 66       		.byte	0x66
 3195 09b6 81000000 		.4byte	0x81
 3196 09ba 3D       		.byte	0x3d
 3197 09bb 09       		.uleb128 0x9
 3198 09bc 47020000 		.4byte	.LASF189
 3199 09c0 06       		.byte	0x6
ARM GAS  C:\Users\MARTHN~1\AppData\Local\Temp\ccHF3wZv.s 			page 72


 3200 09c1 67       		.byte	0x67
 3201 09c2 81000000 		.4byte	0x81
 3202 09c6 3E       		.byte	0x3e
 3203 09c7 09       		.uleb128 0x9
 3204 09c8 55020000 		.4byte	.LASF190
 3205 09cc 06       		.byte	0x6
 3206 09cd 68       		.byte	0x68
 3207 09ce 81000000 		.4byte	0x81
 3208 09d2 3F       		.byte	0x3f
 3209 09d3 09       		.uleb128 0x9
 3210 09d4 63020000 		.4byte	.LASF191
 3211 09d8 06       		.byte	0x6
 3212 09d9 69       		.byte	0x69
 3213 09da 81000000 		.4byte	0x81
 3214 09de 40       		.byte	0x40
 3215 09df 09       		.uleb128 0x9
 3216 09e0 71020000 		.4byte	.LASF192
 3217 09e4 06       		.byte	0x6
 3218 09e5 6A       		.byte	0x6a
 3219 09e6 81000000 		.4byte	0x81
 3220 09ea 41       		.byte	0x41
 3221 09eb 09       		.uleb128 0x9
 3222 09ec 7F020000 		.4byte	.LASF193
 3223 09f0 06       		.byte	0x6
 3224 09f1 6B       		.byte	0x6b
 3225 09f2 81000000 		.4byte	0x81
 3226 09f6 42       		.byte	0x42
 3227 09f7 09       		.uleb128 0x9
 3228 09f8 8D020000 		.4byte	.LASF194
 3229 09fc 06       		.byte	0x6
 3230 09fd 6C       		.byte	0x6c
 3231 09fe 81000000 		.4byte	0x81
 3232 0a02 43       		.byte	0x43
 3233 0a03 09       		.uleb128 0x9
 3234 0a04 9B020000 		.4byte	.LASF195
 3235 0a08 06       		.byte	0x6
 3236 0a09 6D       		.byte	0x6d
 3237 0a0a 81000000 		.4byte	0x81
 3238 0a0e 44       		.byte	0x44
 3239 0a0f 09       		.uleb128 0x9
 3240 0a10 A9020000 		.4byte	.LASF196
 3241 0a14 06       		.byte	0x6
 3242 0a15 6E       		.byte	0x6e
 3243 0a16 81000000 		.4byte	0x81
 3244 0a1a 45       		.byte	0x45
 3245 0a1b 09       		.uleb128 0x9
 3246 0a1c 190D0000 		.4byte	.LASF197
 3247 0a20 06       		.byte	0x6
 3248 0a21 6F       		.byte	0x6f
 3249 0a22 81000000 		.4byte	0x81
 3250 0a26 46       		.byte	0x46
 3251 0a27 09       		.uleb128 0x9
 3252 0a28 650D0000 		.4byte	.LASF198
 3253 0a2c 06       		.byte	0x6
 3254 0a2d 71       		.byte	0x71
 3255 0a2e 81000000 		.4byte	0x81
 3256 0a32 47       		.byte	0x47
ARM GAS  C:\Users\MARTHN~1\AppData\Local\Temp\ccHF3wZv.s 			page 73


 3257 0a33 09       		.uleb128 0x9
 3258 0a34 750D0000 		.4byte	.LASF199
 3259 0a38 06       		.byte	0x6
 3260 0a39 72       		.byte	0x72
 3261 0a3a 81000000 		.4byte	0x81
 3262 0a3e 48       		.byte	0x48
 3263 0a3f 09       		.uleb128 0x9
 3264 0a40 36050000 		.4byte	.LASF200
 3265 0a44 06       		.byte	0x6
 3266 0a45 73       		.byte	0x73
 3267 0a46 81000000 		.4byte	0x81
 3268 0a4a 49       		.byte	0x49
 3269 0a4b 09       		.uleb128 0x9
 3270 0a4c 8E0D0000 		.4byte	.LASF201
 3271 0a50 06       		.byte	0x6
 3272 0a51 74       		.byte	0x74
 3273 0a52 81000000 		.4byte	0x81
 3274 0a56 4A       		.byte	0x4a
 3275 0a57 09       		.uleb128 0x9
 3276 0a58 9E0D0000 		.4byte	.LASF202
 3277 0a5c 06       		.byte	0x6
 3278 0a5d 75       		.byte	0x75
 3279 0a5e 81000000 		.4byte	0x81
 3280 0a62 4B       		.byte	0x4b
 3281 0a63 09       		.uleb128 0x9
 3282 0a64 AE0D0000 		.4byte	.LASF203
 3283 0a68 06       		.byte	0x6
 3284 0a69 76       		.byte	0x76
 3285 0a6a 81000000 		.4byte	0x81
 3286 0a6e 4C       		.byte	0x4c
 3287 0a6f 09       		.uleb128 0x9
 3288 0a70 BE0D0000 		.4byte	.LASF204
 3289 0a74 06       		.byte	0x6
 3290 0a75 77       		.byte	0x77
 3291 0a76 81000000 		.4byte	0x81
 3292 0a7a 4D       		.byte	0x4d
 3293 0a7b 09       		.uleb128 0x9
 3294 0a7c CE0D0000 		.4byte	.LASF205
 3295 0a80 06       		.byte	0x6
 3296 0a81 78       		.byte	0x78
 3297 0a82 81000000 		.4byte	0x81
 3298 0a86 4E       		.byte	0x4e
 3299 0a87 09       		.uleb128 0x9
 3300 0a88 DE0D0000 		.4byte	.LASF206
 3301 0a8c 06       		.byte	0x6
 3302 0a8d 79       		.byte	0x79
 3303 0a8e 81000000 		.4byte	0x81
 3304 0a92 4F       		.byte	0x4f
 3305 0a93 09       		.uleb128 0x9
 3306 0a94 74040000 		.4byte	.LASF207
 3307 0a98 06       		.byte	0x6
 3308 0a99 7A       		.byte	0x7a
 3309 0a9a 81000000 		.4byte	0x81
 3310 0a9e 50       		.byte	0x50
 3311 0a9f 09       		.uleb128 0x9
 3312 0aa0 A1070000 		.4byte	.LASF208
 3313 0aa4 06       		.byte	0x6
ARM GAS  C:\Users\MARTHN~1\AppData\Local\Temp\ccHF3wZv.s 			page 74


 3314 0aa5 7C       		.byte	0x7c
 3315 0aa6 81000000 		.4byte	0x81
 3316 0aaa 51       		.byte	0x51
 3317 0aab 09       		.uleb128 0x9
 3318 0aac B2070000 		.4byte	.LASF209
 3319 0ab0 06       		.byte	0x6
 3320 0ab1 7D       		.byte	0x7d
 3321 0ab2 81000000 		.4byte	0x81
 3322 0ab6 52       		.byte	0x52
 3323 0ab7 09       		.uleb128 0x9
 3324 0ab8 C3070000 		.4byte	.LASF210
 3325 0abc 06       		.byte	0x6
 3326 0abd 7E       		.byte	0x7e
 3327 0abe 81000000 		.4byte	0x81
 3328 0ac2 53       		.byte	0x53
 3329 0ac3 09       		.uleb128 0x9
 3330 0ac4 D4070000 		.4byte	.LASF211
 3331 0ac8 06       		.byte	0x6
 3332 0ac9 7F       		.byte	0x7f
 3333 0aca 81000000 		.4byte	0x81
 3334 0ace 54       		.byte	0x54
 3335 0acf 09       		.uleb128 0x9
 3336 0ad0 E5070000 		.4byte	.LASF212
 3337 0ad4 06       		.byte	0x6
 3338 0ad5 80       		.byte	0x80
 3339 0ad6 81000000 		.4byte	0x81
 3340 0ada 55       		.byte	0x55
 3341 0adb 09       		.uleb128 0x9
 3342 0adc F6070000 		.4byte	.LASF213
 3343 0ae0 06       		.byte	0x6
 3344 0ae1 81       		.byte	0x81
 3345 0ae2 81000000 		.4byte	0x81
 3346 0ae6 56       		.byte	0x56
 3347 0ae7 09       		.uleb128 0x9
 3348 0ae8 07080000 		.4byte	.LASF214
 3349 0aec 06       		.byte	0x6
 3350 0aed 82       		.byte	0x82
 3351 0aee 81000000 		.4byte	0x81
 3352 0af2 57       		.byte	0x57
 3353 0af3 09       		.uleb128 0x9
 3354 0af4 18080000 		.4byte	.LASF215
 3355 0af8 06       		.byte	0x6
 3356 0af9 83       		.byte	0x83
 3357 0afa 81000000 		.4byte	0x81
 3358 0afe 58       		.byte	0x58
 3359 0aff 09       		.uleb128 0x9
 3360 0b00 29080000 		.4byte	.LASF216
 3361 0b04 06       		.byte	0x6
 3362 0b05 84       		.byte	0x84
 3363 0b06 81000000 		.4byte	0x81
 3364 0b0a 59       		.byte	0x59
 3365 0b0b 09       		.uleb128 0x9
 3366 0b0c A10F0000 		.4byte	.LASF217
 3367 0b10 06       		.byte	0x6
 3368 0b11 85       		.byte	0x85
 3369 0b12 81000000 		.4byte	0x81
 3370 0b16 5A       		.byte	0x5a
ARM GAS  C:\Users\MARTHN~1\AppData\Local\Temp\ccHF3wZv.s 			page 75


 3371 0b17 09       		.uleb128 0x9
 3372 0b18 040C0000 		.4byte	.LASF218
 3373 0b1c 06       		.byte	0x6
 3374 0b1d 87       		.byte	0x87
 3375 0b1e 81000000 		.4byte	0x81
 3376 0b22 5B       		.byte	0x5b
 3377 0b23 09       		.uleb128 0x9
 3378 0b24 160C0000 		.4byte	.LASF219
 3379 0b28 06       		.byte	0x6
 3380 0b29 88       		.byte	0x88
 3381 0b2a 81000000 		.4byte	0x81
 3382 0b2e 5C       		.byte	0x5c
 3383 0b2f 09       		.uleb128 0x9
 3384 0b30 280C0000 		.4byte	.LASF220
 3385 0b34 06       		.byte	0x6
 3386 0b35 89       		.byte	0x89
 3387 0b36 81000000 		.4byte	0x81
 3388 0b3a 5D       		.byte	0x5d
 3389 0b3b 09       		.uleb128 0x9
 3390 0b3c 3A0C0000 		.4byte	.LASF221
 3391 0b40 06       		.byte	0x6
 3392 0b41 8A       		.byte	0x8a
 3393 0b42 81000000 		.4byte	0x81
 3394 0b46 5E       		.byte	0x5e
 3395 0b47 09       		.uleb128 0x9
 3396 0b48 4C0C0000 		.4byte	.LASF222
 3397 0b4c 06       		.byte	0x6
 3398 0b4d 8B       		.byte	0x8b
 3399 0b4e 81000000 		.4byte	0x81
 3400 0b52 5F       		.byte	0x5f
 3401 0b53 09       		.uleb128 0x9
 3402 0b54 5E0C0000 		.4byte	.LASF223
 3403 0b58 06       		.byte	0x6
 3404 0b59 8C       		.byte	0x8c
 3405 0b5a 81000000 		.4byte	0x81
 3406 0b5e 60       		.byte	0x60
 3407 0b5f 09       		.uleb128 0x9
 3408 0b60 700C0000 		.4byte	.LASF224
 3409 0b64 06       		.byte	0x6
 3410 0b65 8D       		.byte	0x8d
 3411 0b66 81000000 		.4byte	0x81
 3412 0b6a 61       		.byte	0x61
 3413 0b6b 09       		.uleb128 0x9
 3414 0b6c 820C0000 		.4byte	.LASF225
 3415 0b70 06       		.byte	0x6
 3416 0b71 8E       		.byte	0x8e
 3417 0b72 81000000 		.4byte	0x81
 3418 0b76 62       		.byte	0x62
 3419 0b77 09       		.uleb128 0x9
 3420 0b78 940C0000 		.4byte	.LASF226
 3421 0b7c 06       		.byte	0x6
 3422 0b7d 8F       		.byte	0x8f
 3423 0b7e 81000000 		.4byte	0x81
 3424 0b82 63       		.byte	0x63
 3425 0b83 09       		.uleb128 0x9
 3426 0b84 C50F0000 		.4byte	.LASF227
 3427 0b88 06       		.byte	0x6
ARM GAS  C:\Users\MARTHN~1\AppData\Local\Temp\ccHF3wZv.s 			page 76


 3428 0b89 90       		.byte	0x90
 3429 0b8a 81000000 		.4byte	0x81
 3430 0b8e 64       		.byte	0x64
 3431 0b8f 09       		.uleb128 0x9
 3432 0b90 76000000 		.4byte	.LASF228
 3433 0b94 06       		.byte	0x6
 3434 0b95 92       		.byte	0x92
 3435 0b96 81000000 		.4byte	0x81
 3436 0b9a 65       		.byte	0x65
 3437 0b9b 09       		.uleb128 0x9
 3438 0b9c 84000000 		.4byte	.LASF229
 3439 0ba0 06       		.byte	0x6
 3440 0ba1 93       		.byte	0x93
 3441 0ba2 81000000 		.4byte	0x81
 3442 0ba6 66       		.byte	0x66
 3443 0ba7 09       		.uleb128 0x9
 3444 0ba8 92000000 		.4byte	.LASF230
 3445 0bac 06       		.byte	0x6
 3446 0bad 94       		.byte	0x94
 3447 0bae 81000000 		.4byte	0x81
 3448 0bb2 67       		.byte	0x67
 3449 0bb3 09       		.uleb128 0x9
 3450 0bb4 A0000000 		.4byte	.LASF231
 3451 0bb8 06       		.byte	0x6
 3452 0bb9 95       		.byte	0x95
 3453 0bba 81000000 		.4byte	0x81
 3454 0bbe 68       		.byte	0x68
 3455 0bbf 09       		.uleb128 0x9
 3456 0bc0 AE000000 		.4byte	.LASF232
 3457 0bc4 06       		.byte	0x6
 3458 0bc5 96       		.byte	0x96
 3459 0bc6 81000000 		.4byte	0x81
 3460 0bca 69       		.byte	0x69
 3461 0bcb 09       		.uleb128 0x9
 3462 0bcc BC000000 		.4byte	.LASF233
 3463 0bd0 06       		.byte	0x6
 3464 0bd1 97       		.byte	0x97
 3465 0bd2 81000000 		.4byte	0x81
 3466 0bd6 6A       		.byte	0x6a
 3467 0bd7 09       		.uleb128 0x9
 3468 0bd8 CA000000 		.4byte	.LASF234
 3469 0bdc 06       		.byte	0x6
 3470 0bdd 98       		.byte	0x98
 3471 0bde 81000000 		.4byte	0x81
 3472 0be2 6B       		.byte	0x6b
 3473 0be3 09       		.uleb128 0x9
 3474 0be4 D8000000 		.4byte	.LASF235
 3475 0be8 06       		.byte	0x6
 3476 0be9 99       		.byte	0x99
 3477 0bea 81000000 		.4byte	0x81
 3478 0bee 6C       		.byte	0x6c
 3479 0bef 09       		.uleb128 0x9
 3480 0bf0 E6000000 		.4byte	.LASF236
 3481 0bf4 06       		.byte	0x6
 3482 0bf5 9A       		.byte	0x9a
 3483 0bf6 81000000 		.4byte	0x81
 3484 0bfa 6D       		.byte	0x6d
ARM GAS  C:\Users\MARTHN~1\AppData\Local\Temp\ccHF3wZv.s 			page 77


 3485 0bfb 09       		.uleb128 0x9
 3486 0bfc 13010000 		.4byte	.LASF237
 3487 0c00 06       		.byte	0x6
 3488 0c01 9B       		.byte	0x9b
 3489 0c02 81000000 		.4byte	0x81
 3490 0c06 6E       		.byte	0x6e
 3491 0c07 00       		.byte	0
 3492 0c08 0A       		.uleb128 0xa
 3493 0c09 2F0B0000 		.4byte	.LASF238
 3494 0c0d 6F       		.byte	0x6f
 3495 0c0e 06       		.byte	0x6
 3496 0c0f 1C       		.byte	0x1c
 3497 0c10 2B0C0000 		.4byte	0xc2b
 3498 0c14 0B       		.uleb128 0xb
 3499 0c15 46050000 		.4byte	.LASF34
 3500 0c19 06       		.byte	0x6
 3501 0c1a 1E       		.byte	0x1e
 3502 0c1b 2B0C0000 		.4byte	0xc2b
 3503 0c1f 0B       		.uleb128 0xb
 3504 0c20 A7040000 		.4byte	.LASF35
 3505 0c24 06       		.byte	0x6
 3506 0c25 9C       		.byte	0x9c
 3507 0c26 C7060000 		.4byte	0x6c7
 3508 0c2a 00       		.byte	0
 3509 0c2b 06       		.uleb128 0x6
 3510 0c2c 81000000 		.4byte	0x81
 3511 0c30 3B0C0000 		.4byte	0xc3b
 3512 0c34 07       		.uleb128 0x7
 3513 0c35 C1000000 		.4byte	0xc1
 3514 0c39 6E       		.byte	0x6e
 3515 0c3a 00       		.byte	0
 3516 0c3b 03       		.uleb128 0x3
 3517 0c3c CF0C0000 		.4byte	.LASF239
 3518 0c40 06       		.byte	0x6
 3519 0c41 9D       		.byte	0x9d
 3520 0c42 080C0000 		.4byte	0xc08
 3521 0c46 11       		.uleb128 0x11
 3522 0c47 56000000 		.4byte	.LASF244
 3523 0c4b 01       		.byte	0x1
 3524 0c4c 2C000000 		.4byte	0x2c
 3525 0c50 01       		.byte	0x1
 3526 0c51 3E       		.byte	0x3e
 3527 0c52 6F0C0000 		.4byte	0xc6f
 3528 0c56 12       		.uleb128 0x12
 3529 0c57 E00B0000 		.4byte	.LASF240
 3530 0c5b 00       		.byte	0
 3531 0c5c 12       		.uleb128 0x12
 3532 0c5d 79010000 		.4byte	.LASF241
 3533 0c61 01       		.byte	0x1
 3534 0c62 12       		.uleb128 0x12
 3535 0c63 03100000 		.4byte	.LASF242
 3536 0c67 02       		.byte	0x2
 3537 0c68 12       		.uleb128 0x12
 3538 0c69 C70E0000 		.4byte	.LASF243
 3539 0c6d 03       		.byte	0x3
 3540 0c6e 00       		.byte	0
 3541 0c6f 11       		.uleb128 0x11
ARM GAS  C:\Users\MARTHN~1\AppData\Local\Temp\ccHF3wZv.s 			page 78


 3542 0c70 2E100000 		.4byte	.LASF245
 3543 0c74 01       		.byte	0x1
 3544 0c75 2C000000 		.4byte	0x2c
 3545 0c79 01       		.byte	0x1
 3546 0c7a 4C       		.byte	0x4c
 3547 0c7b 980C0000 		.4byte	0xc98
 3548 0c7f 12       		.uleb128 0x12
 3549 0c80 760F0000 		.4byte	.LASF246
 3550 0c84 00       		.byte	0
 3551 0c85 12       		.uleb128 0x12
 3552 0c86 6A0E0000 		.4byte	.LASF247
 3553 0c8a 01       		.byte	0x1
 3554 0c8b 12       		.uleb128 0x12
 3555 0c8c 9C010000 		.4byte	.LASF248
 3556 0c90 02       		.byte	0x2
 3557 0c91 12       		.uleb128 0x12
 3558 0c92 E6040000 		.4byte	.LASF249
 3559 0c96 03       		.byte	0x3
 3560 0c97 00       		.byte	0
 3561 0c98 11       		.uleb128 0x11
 3562 0c99 04090000 		.4byte	.LASF250
 3563 0c9d 01       		.byte	0x1
 3564 0c9e 2C000000 		.4byte	0x2c
 3565 0ca2 01       		.byte	0x1
 3566 0ca3 5D       		.byte	0x5d
 3567 0ca4 EB0C0000 		.4byte	0xceb
 3568 0ca8 12       		.uleb128 0x12
 3569 0ca9 2E030000 		.4byte	.LASF251
 3570 0cad 00       		.byte	0
 3571 0cae 12       		.uleb128 0x12
 3572 0caf CB0B0000 		.4byte	.LASF252
 3573 0cb3 01       		.byte	0x1
 3574 0cb4 12       		.uleb128 0x12
 3575 0cb5 69000000 		.4byte	.LASF253
 3576 0cb9 02       		.byte	0x2
 3577 0cba 12       		.uleb128 0x12
 3578 0cbb 030E0000 		.4byte	.LASF254
 3579 0cbf 03       		.byte	0x3
 3580 0cc0 12       		.uleb128 0x12
 3581 0cc1 430A0000 		.4byte	.LASF255
 3582 0cc5 04       		.byte	0x4
 3583 0cc6 12       		.uleb128 0x12
 3584 0cc7 C6100000 		.4byte	.LASF256
 3585 0ccb 05       		.byte	0x5
 3586 0ccc 12       		.uleb128 0x12
 3587 0ccd AE050000 		.4byte	.LASF257
 3588 0cd1 06       		.byte	0x6
 3589 0cd2 12       		.uleb128 0x12
 3590 0cd3 A8090000 		.4byte	.LASF258
 3591 0cd7 07       		.byte	0x7
 3592 0cd8 12       		.uleb128 0x12
 3593 0cd9 3D010000 		.4byte	.LASF259
 3594 0cdd 08       		.byte	0x8
 3595 0cde 13       		.uleb128 0x13
 3596 0cdf 47505300 		.ascii	"GPS\000"
 3597 0ce3 09       		.byte	0x9
 3598 0ce4 12       		.uleb128 0x12
ARM GAS  C:\Users\MARTHN~1\AppData\Local\Temp\ccHF3wZv.s 			page 79


 3599 0ce5 0F100000 		.4byte	.LASF260
 3600 0ce9 0A       		.byte	0xa
 3601 0cea 00       		.byte	0
 3602 0ceb 14       		.uleb128 0x14
 3603 0cec 6C0F0000 		.4byte	.LASF261
 3604 0cf0 01       		.byte	0x1
 3605 0cf1 73       		.byte	0x73
 3606 0cf2 81000000 		.4byte	0x81
 3607 0cf6 00000000 		.4byte	.LFB63
 3608 0cfa 60040000 		.4byte	.LFE63-.LFB63
 3609 0cfe 01       		.uleb128 0x1
 3610 0cff 9C       		.byte	0x9c
 3611 0d00 350D0000 		.4byte	0xd35
 3612 0d04 15       		.uleb128 0x15
 3613 0d05 44000000 		.4byte	.LBB2
 3614 0d09 1A000000 		.4byte	.LBE2-.LBB2
 3615 0d0d 1E0D0000 		.4byte	0xd1e
 3616 0d11 16       		.uleb128 0x16
 3617 0d12 6900     		.ascii	"i\000"
 3618 0d14 01       		.byte	0x1
 3619 0d15 86       		.byte	0x86
 3620 0d16 81000000 		.4byte	0x81
 3621 0d1a 02       		.uleb128 0x2
 3622 0d1b 91       		.byte	0x91
 3623 0d1c 77       		.sleb128 -9
 3624 0d1d 00       		.byte	0
 3625 0d1e 17       		.uleb128 0x17
 3626 0d1f 68000000 		.4byte	.LBB3
 3627 0d23 18000000 		.4byte	.LBE3-.LBB3
 3628 0d27 16       		.uleb128 0x16
 3629 0d28 6900     		.ascii	"i\000"
 3630 0d2a 01       		.byte	0x1
 3631 0d2b 8B       		.byte	0x8b
 3632 0d2c 81000000 		.4byte	0x81
 3633 0d30 02       		.uleb128 0x2
 3634 0d31 91       		.byte	0x91
 3635 0d32 76       		.sleb128 -10
 3636 0d33 00       		.byte	0
 3637 0d34 00       		.byte	0
 3638 0d35 18       		.uleb128 0x18
 3639 0d36 D20E0000 		.4byte	.LASF262
 3640 0d3a 01       		.byte	0x1
 3641 0d3b 6D01     		.2byte	0x16d
 3642 0d3d 81000000 		.4byte	0x81
 3643 0d41 00000000 		.4byte	.LFB64
 3644 0d45 94000000 		.4byte	.LFE64-.LFB64
 3645 0d49 01       		.uleb128 0x1
 3646 0d4a 9C       		.byte	0x9c
 3647 0d4b 8A0D0000 		.4byte	0xd8a
 3648 0d4f 19       		.uleb128 0x19
 3649 0d50 01060000 		.4byte	.LASF263
 3650 0d54 01       		.byte	0x1
 3651 0d55 7A01     		.2byte	0x17a
 3652 0d57 99000000 		.4byte	0x99
 3653 0d5b 02       		.uleb128 0x2
 3654 0d5c 91       		.byte	0x91
 3655 0d5d 70       		.sleb128 -16
ARM GAS  C:\Users\MARTHN~1\AppData\Local\Temp\ccHF3wZv.s 			page 80


 3656 0d5e 19       		.uleb128 0x19
 3657 0d5f 4C080000 		.4byte	.LASF264
 3658 0d63 01       		.byte	0x1
 3659 0d64 7B01     		.2byte	0x17b
 3660 0d66 99000000 		.4byte	0x99
 3661 0d6a 05       		.uleb128 0x5
 3662 0d6b 03       		.byte	0x3
 3663 0d6c 0C010000 		.4byte	channel.6630
 3664 0d70 17       		.uleb128 0x17
 3665 0d71 3C000000 		.4byte	.LBB4
 3666 0d75 12000000 		.4byte	.LBE4-.LBB4
 3667 0d79 19       		.uleb128 0x19
 3668 0d7a 4C080000 		.4byte	.LASF264
 3669 0d7e 01       		.byte	0x1
 3670 0d7f 8001     		.2byte	0x180
 3671 0d81 81000000 		.4byte	0x81
 3672 0d85 02       		.uleb128 0x2
 3673 0d86 91       		.byte	0x91
 3674 0d87 77       		.sleb128 -9
 3675 0d88 00       		.byte	0
 3676 0d89 00       		.byte	0
 3677 0d8a 1A       		.uleb128 0x1a
 3678 0d8b ED050000 		.4byte	.LASF267
 3679 0d8f 01       		.byte	0x1
 3680 0d90 9601     		.2byte	0x196
 3681 0d92 81000000 		.4byte	0x81
 3682 0d96 00000000 		.4byte	.LFB65
 3683 0d9a 0E000000 		.4byte	.LFE65-.LFB65
 3684 0d9e 01       		.uleb128 0x1
 3685 0d9f 9C       		.byte	0x9c
 3686 0da0 18       		.uleb128 0x18
 3687 0da1 64010000 		.4byte	.LASF265
 3688 0da5 01       		.byte	0x1
 3689 0da6 AE01     		.2byte	0x1ae
 3690 0da8 81000000 		.4byte	0x81
 3691 0dac 00000000 		.4byte	.LFB66
 3692 0db0 28000000 		.4byte	.LFE66-.LFB66
 3693 0db4 01       		.uleb128 0x1
 3694 0db5 9C       		.byte	0x9c
 3695 0db6 D40D0000 		.4byte	0xdd4
 3696 0dba 17       		.uleb128 0x17
 3697 0dbb 06000000 		.4byte	.LBB5
 3698 0dbf 12000000 		.4byte	.LBE5-.LBB5
 3699 0dc3 19       		.uleb128 0x19
 3700 0dc4 2A0E0000 		.4byte	.LASF266
 3701 0dc8 01       		.byte	0x1
 3702 0dc9 BA01     		.2byte	0x1ba
 3703 0dcb 81000000 		.4byte	0x81
 3704 0dcf 02       		.uleb128 0x2
 3705 0dd0 91       		.byte	0x91
 3706 0dd1 77       		.sleb128 -9
 3707 0dd2 00       		.byte	0
 3708 0dd3 00       		.byte	0
 3709 0dd4 1B       		.uleb128 0x1b
 3710 0dd5 540E0000 		.4byte	.LASF268
 3711 0dd9 01       		.byte	0x1
 3712 0dda CA01     		.2byte	0x1ca
ARM GAS  C:\Users\MARTHN~1\AppData\Local\Temp\ccHF3wZv.s 			page 81


 3713 0ddc 81000000 		.4byte	0x81
 3714 0de0 00000000 		.4byte	.LFB67
 3715 0de4 16000000 		.4byte	.LFE67-.LFB67
 3716 0de8 01       		.uleb128 0x1
 3717 0de9 9C       		.byte	0x9c
 3718 0dea 1B       		.uleb128 0x1b
 3719 0deb 0B070000 		.4byte	.LASF269
 3720 0def 01       		.byte	0x1
 3721 0df0 FA01     		.2byte	0x1fa
 3722 0df2 81000000 		.4byte	0x81
 3723 0df6 00000000 		.4byte	.LFB68
 3724 0dfa 50000000 		.4byte	.LFE68-.LFB68
 3725 0dfe 01       		.uleb128 0x1
 3726 0dff 9C       		.byte	0x9c
 3727 0e00 18       		.uleb128 0x18
 3728 0e01 110A0000 		.4byte	.LASF270
 3729 0e05 01       		.byte	0x1
 3730 0e06 2E02     		.2byte	0x22e
 3731 0e08 81000000 		.4byte	0x81
 3732 0e0c 00000000 		.4byte	.LFB69
 3733 0e10 3C000000 		.4byte	.LFE69-.LFB69
 3734 0e14 01       		.uleb128 0x1
 3735 0e15 9C       		.byte	0x9c
 3736 0e16 2A0E0000 		.4byte	0xe2a
 3737 0e1a 19       		.uleb128 0x19
 3738 0e1b 35000000 		.4byte	.LASF271
 3739 0e1f 01       		.byte	0x1
 3740 0e20 3302     		.2byte	0x233
 3741 0e22 81000000 		.4byte	0x81
 3742 0e26 02       		.uleb128 0x2
 3743 0e27 91       		.byte	0x91
 3744 0e28 77       		.sleb128 -9
 3745 0e29 00       		.byte	0
 3746 0e2a 18       		.uleb128 0x18
 3747 0e2b EB0B0000 		.4byte	.LASF272
 3748 0e2f 01       		.byte	0x1
 3749 0e30 4202     		.2byte	0x242
 3750 0e32 81000000 		.4byte	0x81
 3751 0e36 00000000 		.4byte	.LFB70
 3752 0e3a 70000000 		.4byte	.LFE70-.LFB70
 3753 0e3e 01       		.uleb128 0x1
 3754 0e3f 9C       		.byte	0x9c
 3755 0e40 7A0E0000 		.4byte	0xe7a
 3756 0e44 19       		.uleb128 0x19
 3757 0e45 0E060000 		.4byte	.LASF273
 3758 0e49 01       		.byte	0x1
 3759 0e4a 4502     		.2byte	0x245
 3760 0e4c 81000000 		.4byte	0x81
 3761 0e50 02       		.uleb128 0x2
 3762 0e51 91       		.byte	0x91
 3763 0e52 77       		.sleb128 -9
 3764 0e53 19       		.uleb128 0x19
 3765 0e54 A60C0000 		.4byte	.LASF274
 3766 0e58 01       		.byte	0x1
 3767 0e59 4602     		.2byte	0x246
 3768 0e5b 81000000 		.4byte	0x81
 3769 0e5f 02       		.uleb128 0x2
ARM GAS  C:\Users\MARTHN~1\AppData\Local\Temp\ccHF3wZv.s 			page 82


 3770 0e60 91       		.byte	0x91
 3771 0e61 75       		.sleb128 -11
 3772 0e62 17       		.uleb128 0x17
 3773 0e63 22000000 		.4byte	.LBB6
 3774 0e67 2E000000 		.4byte	.LBE6-.LBB6
 3775 0e6b 1C       		.uleb128 0x1c
 3776 0e6c 6900     		.ascii	"i\000"
 3777 0e6e 01       		.byte	0x1
 3778 0e6f 4E02     		.2byte	0x24e
 3779 0e71 81000000 		.4byte	0x81
 3780 0e75 02       		.uleb128 0x2
 3781 0e76 91       		.byte	0x91
 3782 0e77 76       		.sleb128 -10
 3783 0e78 00       		.byte	0
 3784 0e79 00       		.byte	0
 3785 0e7a 1D       		.uleb128 0x1d
 3786 0e7b FF0A0000 		.4byte	.LASF275
 3787 0e7f 01       		.byte	0x1
 3788 0e80 5F02     		.2byte	0x25f
 3789 0e82 81000000 		.4byte	0x81
 3790 0e86 00000000 		.4byte	.LFB71
 3791 0e8a 0E000000 		.4byte	.LFE71-.LFB71
 3792 0e8e 01       		.uleb128 0x1
 3793 0e8f 9C       		.byte	0x9c
 3794 0e90 A70E0000 		.4byte	0xea7
 3795 0e94 19       		.uleb128 0x19
 3796 0e95 AF040000 		.4byte	.LASF276
 3797 0e99 01       		.byte	0x1
 3798 0e9a 6202     		.2byte	0x262
 3799 0e9c A70E0000 		.4byte	0xea7
 3800 0ea0 05       		.uleb128 0x5
 3801 0ea1 03       		.byte	0x3
 3802 0ea2 00000000 		.4byte	targetstring.6667
 3803 0ea6 00       		.byte	0
 3804 0ea7 06       		.uleb128 0x6
 3805 0ea8 81000000 		.4byte	0x81
 3806 0eac B70E0000 		.4byte	0xeb7
 3807 0eb0 07       		.uleb128 0x7
 3808 0eb1 C1000000 		.4byte	0xc1
 3809 0eb5 05       		.byte	0x5
 3810 0eb6 00       		.byte	0
 3811 0eb7 1A       		.uleb128 0x1a
 3812 0eb8 180F0000 		.4byte	.LASF277
 3813 0ebc 01       		.byte	0x1
 3814 0ebd 6C02     		.2byte	0x26c
 3815 0ebf CD0E0000 		.4byte	0xecd
 3816 0ec3 00000000 		.4byte	.LFB72
 3817 0ec7 20000000 		.4byte	.LFE72-.LFB72
 3818 0ecb 01       		.uleb128 0x1
 3819 0ecc 9C       		.byte	0x9c
 3820 0ecd 1E       		.uleb128 0x1e
 3821 0ece 04       		.byte	0x4
 3822 0ecf CC010000 		.4byte	0x1cc
 3823 0ed3 1F       		.uleb128 0x1f
 3824 0ed4 22010000 		.4byte	.LASF284
 3825 0ed8 01       		.byte	0x1
 3826 0ed9 7A02     		.2byte	0x27a
ARM GAS  C:\Users\MARTHN~1\AppData\Local\Temp\ccHF3wZv.s 			page 83


 3827 0edb E90E0000 		.4byte	0xee9
 3828 0edf 00000000 		.4byte	.LFB73
 3829 0ee3 20000000 		.4byte	.LFE73-.LFB73
 3830 0ee7 01       		.uleb128 0x1
 3831 0ee8 9C       		.byte	0x9c
 3832 0ee9 1E       		.uleb128 0x1e
 3833 0eea 04       		.byte	0x4
 3834 0eeb BB060000 		.4byte	0x6bb
 3835 0eef 1A       		.uleb128 0x1a
 3836 0ef0 280D0000 		.4byte	.LASF278
 3837 0ef4 01       		.byte	0x1
 3838 0ef5 8102     		.2byte	0x281
 3839 0ef7 050F0000 		.4byte	0xf05
 3840 0efb 00000000 		.4byte	.LFB74
 3841 0eff 20000000 		.4byte	.LFE74-.LFB74
 3842 0f03 01       		.uleb128 0x1
 3843 0f04 9C       		.byte	0x9c
 3844 0f05 1E       		.uleb128 0x1e
 3845 0f06 04       		.byte	0x4
 3846 0f07 CB050000 		.4byte	0x5cb
 3847 0f0b 1A       		.uleb128 0x1a
 3848 0f0c 56040000 		.4byte	.LASF279
 3849 0f10 01       		.byte	0x1
 3850 0f11 8902     		.2byte	0x289
 3851 0f13 210F0000 		.4byte	0xf21
 3852 0f17 00000000 		.4byte	.LFB75
 3853 0f1b 20000000 		.4byte	.LFE75-.LFB75
 3854 0f1f 01       		.uleb128 0x1
 3855 0f20 9C       		.byte	0x9c
 3856 0f21 1E       		.uleb128 0x1e
 3857 0f22 04       		.byte	0x4
 3858 0f23 54060000 		.4byte	0x654
 3859 0f27 1A       		.uleb128 0x1a
 3860 0f28 4E0F0000 		.4byte	.LASF280
 3861 0f2c 01       		.byte	0x1
 3862 0f2d 9002     		.2byte	0x290
 3863 0f2f 210F0000 		.4byte	0xf21
 3864 0f33 00000000 		.4byte	.LFB76
 3865 0f37 20000000 		.4byte	.LFE76-.LFB76
 3866 0f3b 01       		.uleb128 0x1
 3867 0f3c 9C       		.byte	0x9c
 3868 0f3d 20       		.uleb128 0x20
 3869 0f3e 970E0000 		.4byte	.LASF288
 3870 0f42 01       		.byte	0x1
 3871 0f43 9F02     		.2byte	0x29f
 3872 0f45 00000000 		.4byte	.LFB77
 3873 0f49 5C000000 		.4byte	.LFE77-.LFB77
 3874 0f4d 01       		.uleb128 0x1
 3875 0f4e 9C       		.byte	0x9c
 3876 0f4f 7D0F0000 		.4byte	0xf7d
 3877 0f53 19       		.uleb128 0x19
 3878 0f54 FB000000 		.4byte	.LASF281
 3879 0f58 01       		.byte	0x1
 3880 0f59 A202     		.2byte	0x2a2
 3881 0f5b 7D0F0000 		.4byte	0xf7d
 3882 0f5f 05       		.uleb128 0x5
 3883 0f60 03       		.byte	0x3
ARM GAS  C:\Users\MARTHN~1\AppData\Local\Temp\ccHF3wZv.s 			page 84


 3884 0f61 10010000 		.4byte	RelayTestStatus_display.6682
 3885 0f65 17       		.uleb128 0x17
 3886 0f66 06000000 		.4byte	.LBB7
 3887 0f6a 2C000000 		.4byte	.LBE7-.LBB7
 3888 0f6e 1C       		.uleb128 0x1c
 3889 0f6f 6900     		.ascii	"i\000"
 3890 0f71 01       		.byte	0x1
 3891 0f72 A402     		.2byte	0x2a4
 3892 0f74 81000000 		.4byte	0x81
 3893 0f78 02       		.uleb128 0x2
 3894 0f79 91       		.byte	0x91
 3895 0f7a 77       		.sleb128 -9
 3896 0f7b 00       		.byte	0
 3897 0f7c 00       		.byte	0
 3898 0f7d 06       		.uleb128 0x6
 3899 0f7e 81000000 		.4byte	0x81
 3900 0f82 8D0F0000 		.4byte	0xf8d
 3901 0f86 07       		.uleb128 0x7
 3902 0f87 C1000000 		.4byte	0xc1
 3903 0f8b 13       		.byte	0x13
 3904 0f8c 00       		.byte	0
 3905 0f8d 18       		.uleb128 0x18
 3906 0f8e 060D0000 		.4byte	.LASF282
 3907 0f92 01       		.byte	0x1
 3908 0f93 C802     		.2byte	0x2c8
 3909 0f95 81000000 		.4byte	0x81
 3910 0f99 00000000 		.4byte	.LFB78
 3911 0f9d 7C000000 		.4byte	.LFE78-.LFB78
 3912 0fa1 01       		.uleb128 0x1
 3913 0fa2 9C       		.byte	0x9c
 3914 0fa3 C60F0000 		.4byte	0xfc6
 3915 0fa7 21       		.uleb128 0x21
 3916 0fa8 DD0A0000 		.4byte	.LASF290
 3917 0fac 01       		.byte	0x1
 3918 0fad C802     		.2byte	0x2c8
 3919 0faf 81000000 		.4byte	0x81
 3920 0fb3 02       		.uleb128 0x2
 3921 0fb4 91       		.byte	0x91
 3922 0fb5 6F       		.sleb128 -17
 3923 0fb6 19       		.uleb128 0x19
 3924 0fb7 F4080000 		.4byte	.LASF283
 3925 0fbb 01       		.byte	0x1
 3926 0fbc CB02     		.2byte	0x2cb
 3927 0fbe 81000000 		.4byte	0x81
 3928 0fc2 02       		.uleb128 0x2
 3929 0fc3 91       		.byte	0x91
 3930 0fc4 77       		.sleb128 -9
 3931 0fc5 00       		.byte	0
 3932 0fc6 22       		.uleb128 0x22
 3933 0fc7 56100000 		.4byte	.LASF285
 3934 0fcb 01       		.byte	0x1
 3935 0fcc E202     		.2byte	0x2e2
 3936 0fce 00000000 		.4byte	.LFB79
 3937 0fd2 1C000000 		.4byte	.LFE79-.LFB79
 3938 0fd6 01       		.uleb128 0x1
 3939 0fd7 9C       		.byte	0x9c
 3940 0fd8 23       		.uleb128 0x23
ARM GAS  C:\Users\MARTHN~1\AppData\Local\Temp\ccHF3wZv.s 			page 85


 3941 0fd9 E10F0000 		.4byte	.LASF286
 3942 0fdd 01       		.byte	0x1
 3943 0fde EC02     		.2byte	0x2ec
 3944 0fe0 00000000 		.4byte	.LFB80
 3945 0fe4 68000000 		.4byte	.LFE80-.LFB80
 3946 0fe8 01       		.uleb128 0x1
 3947 0fe9 9C       		.byte	0x9c
 3948 0fea 22       		.uleb128 0x22
 3949 0feb AC0E0000 		.4byte	.LASF287
 3950 0fef 01       		.byte	0x1
 3951 0ff0 0103     		.2byte	0x301
 3952 0ff2 00000000 		.4byte	.LFB81
 3953 0ff6 3C000000 		.4byte	.LFE81-.LFB81
 3954 0ffa 01       		.uleb128 0x1
 3955 0ffb 9C       		.byte	0x9c
 3956 0ffc 24       		.uleb128 0x24
 3957 0ffd AF060000 		.4byte	.LASF289
 3958 1001 01       		.byte	0x1
 3959 1002 1903     		.2byte	0x319
 3960 1004 00000000 		.4byte	.LFB82
 3961 1008 70000000 		.4byte	.LFE82-.LFB82
 3962 100c 01       		.uleb128 0x1
 3963 100d 9C       		.byte	0x9c
 3964 100e 22100000 		.4byte	0x1022
 3965 1012 21       		.uleb128 0x21
 3966 1013 030A0000 		.4byte	.LASF291
 3967 1017 01       		.byte	0x1
 3968 1018 1903     		.2byte	0x319
 3969 101a 81000000 		.4byte	0x81
 3970 101e 02       		.uleb128 0x2
 3971 101f 91       		.byte	0x91
 3972 1020 77       		.sleb128 -9
 3973 1021 00       		.byte	0
 3974 1022 25       		.uleb128 0x25
 3975 1023 47100000 		.4byte	.LASF292
 3976 1027 01       		.byte	0x1
 3977 1028 1C       		.byte	0x1c
 3978 1029 CC010000 		.4byte	0x1cc
 3979 102d 05       		.uleb128 0x5
 3980 102e 03       		.byte	0x3
 3981 102f 00000000 		.4byte	rxPacket_Relay
 3982 1033 25       		.uleb128 0x25
 3983 1034 09000000 		.4byte	.LASF293
 3984 1038 01       		.byte	0x1
 3985 1039 1D       		.byte	0x1d
 3986 103a CD0E0000 		.4byte	0xecd
 3987 103e 05       		.uleb128 0x5
 3988 103f 03       		.byte	0x3
 3989 1040 10000000 		.4byte	pRxPacket_Relay
 3990 1044 25       		.uleb128 0x25
 3991 1045 970B0000 		.4byte	.LASF118
 3992 1049 01       		.byte	0x1
 3993 104a 1F       		.byte	0x1f
 3994 104b CB050000 		.4byte	0x5cb
 3995 104f 05       		.uleb128 0x5
 3996 1050 03       		.byte	0x3
 3997 1051 14000000 		.4byte	txPacket_RelaySiren
ARM GAS  C:\Users\MARTHN~1\AppData\Local\Temp\ccHF3wZv.s 			page 86


 3998 1055 25       		.uleb128 0x25
 3999 1056 99050000 		.4byte	.LASF294
 4000 105a 01       		.byte	0x1
 4001 105b 20       		.byte	0x20
 4002 105c 050F0000 		.4byte	0xf05
 4003 1060 05       		.uleb128 0x5
 4004 1061 03       		.byte	0x3
 4005 1062 64000000 		.4byte	pTxPacket_RelaySiren
 4006 1066 25       		.uleb128 0x25
 4007 1067 E2030000 		.4byte	.LASF124
 4008 106b 01       		.byte	0x1
 4009 106c 25       		.byte	0x25
 4010 106d BB060000 		.4byte	0x6bb
 4011 1071 05       		.uleb128 0x5
 4012 1072 03       		.byte	0x3
 4013 1073 68000000 		.4byte	rxPacket_Siren
 4014 1077 25       		.uleb128 0x25
 4015 1078 8E040000 		.4byte	.LASF295
 4016 107c 01       		.byte	0x1
 4017 107d 26       		.byte	0x26
 4018 107e E90E0000 		.4byte	0xee9
 4019 1082 05       		.uleb128 0x5
 4020 1083 03       		.byte	0x3
 4021 1084 6C000000 		.4byte	pRxPacket_Siren
 4022 1088 25       		.uleb128 0x25
 4023 1089 BC040000 		.4byte	.LASF296
 4024 108d 01       		.byte	0x1
 4025 108e 28       		.byte	0x28
 4026 108f 54060000 		.4byte	0x654
 4027 1093 05       		.uleb128 0x5
 4028 1094 03       		.byte	0x3
 4029 1095 70000000 		.4byte	txPacket_H
 4030 1099 25       		.uleb128 0x25
 4031 109a 1A0B0000 		.4byte	.LASF297
 4032 109e 01       		.byte	0x1
 4033 109f 29       		.byte	0x29
 4034 10a0 210F0000 		.4byte	0xf21
 4035 10a4 05       		.uleb128 0x5
 4036 10a5 03       		.byte	0x3
 4037 10a6 78000000 		.4byte	pTxPacket_H
 4038 10aa 25       		.uleb128 0x25
 4039 10ab 7F0A0000 		.4byte	.LASF298
 4040 10af 01       		.byte	0x1
 4041 10b0 2B       		.byte	0x2b
 4042 10b1 54060000 		.4byte	0x654
 4043 10b5 05       		.uleb128 0x5
 4044 10b6 03       		.byte	0x3
 4045 10b7 7C000000 		.4byte	rxPacket_H
 4046 10bb 25       		.uleb128 0x25
 4047 10bc 29000000 		.4byte	.LASF299
 4048 10c0 01       		.byte	0x1
 4049 10c1 2C       		.byte	0x2c
 4050 10c2 210F0000 		.4byte	0xf21
 4051 10c6 05       		.uleb128 0x5
 4052 10c7 03       		.byte	0x3
 4053 10c8 84000000 		.4byte	pRxPacket_H
 4054 10cc 25       		.uleb128 0x25
ARM GAS  C:\Users\MARTHN~1\AppData\Local\Temp\ccHF3wZv.s 			page 87


 4055 10cd 890E0000 		.4byte	.LASF300
 4056 10d1 01       		.byte	0x1
 4057 10d2 2E       		.byte	0x2e
 4058 10d3 3B0C0000 		.4byte	0xc3b
 4059 10d7 05       		.uleb128 0x5
 4060 10d8 03       		.byte	0x3
 4061 10d9 88000000 		.4byte	txPacket_Quad
 4062 10dd 25       		.uleb128 0x25
 4063 10de 15030000 		.4byte	.LASF301
 4064 10e2 01       		.byte	0x1
 4065 10e3 2F       		.byte	0x2f
 4066 10e4 EE100000 		.4byte	0x10ee
 4067 10e8 05       		.uleb128 0x5
 4068 10e9 03       		.byte	0x3
 4069 10ea F8000000 		.4byte	pTxPacket_Quad
 4070 10ee 1E       		.uleb128 0x1e
 4071 10ef 04       		.byte	0x4
 4072 10f0 3B0C0000 		.4byte	0xc3b
 4073 10f4 25       		.uleb128 0x25
 4074 10f5 3F0E0000 		.4byte	.LASF302
 4075 10f9 01       		.byte	0x1
 4076 10fa 38       		.byte	0x38
 4077 10fb 8D000000 		.4byte	0x8d
 4078 10ff 05       		.uleb128 0x5
 4079 1100 03       		.byte	0x3
 4080 1101 FC000000 		.4byte	RTest_20ms_isr_count
 4081 1105 25       		.uleb128 0x25
 4082 1106 B30F0000 		.4byte	.LASF303
 4083 110a 01       		.byte	0x1
 4084 110b 39       		.byte	0x39
 4085 110c 8D000000 		.4byte	0x8d
 4086 1110 05       		.uleb128 0x5
 4087 1111 03       		.byte	0x3
 4088 1112 FE000000 		.4byte	RTest_20ms_isr_EN
 4089 1116 06       		.uleb128 0x6
 4090 1117 81000000 		.4byte	0x81
 4091 111b 26110000 		.4byte	0x1126
 4092 111f 07       		.uleb128 0x7
 4093 1120 C1000000 		.4byte	0xc1
 4094 1124 09       		.byte	0x9
 4095 1125 00       		.byte	0
 4096 1126 25       		.uleb128 0x25
 4097 1127 64040000 		.4byte	.LASF304
 4098 112b 01       		.byte	0x1
 4099 112c 6C       		.byte	0x6c
 4100 112d 16110000 		.4byte	0x1116
 4101 1131 05       		.uleb128 0x5
 4102 1132 03       		.byte	0x3
 4103 1133 00010000 		.4byte	RelayTestStatus
 4104 1137 25       		.uleb128 0x25
 4105 1138 D30A0000 		.4byte	.LASF305
 4106 113c 01       		.byte	0x1
 4107 113d 6E       		.byte	0x6e
 4108 113e 81000000 		.4byte	0x81
 4109 1142 05       		.uleb128 0x5
 4110 1143 03       		.byte	0x3
 4111 1144 0A010000 		.4byte	TestState
ARM GAS  C:\Users\MARTHN~1\AppData\Local\Temp\ccHF3wZv.s 			page 88


 4112 1148 26       		.uleb128 0x26
 4113 1149 300A0000 		.4byte	.LASF309
 4114 114d 07       		.byte	0x7
 4115 114e 1207     		.2byte	0x712
 4116 1150 54110000 		.4byte	0x1154
 4117 1154 27       		.uleb128 0x27
 4118 1155 76000000 		.4byte	0x76
 4119 1159 00       		.byte	0
 4120              		.section	.debug_abbrev,"",%progbits
 4121              	.Ldebug_abbrev0:
 4122 0000 01       		.uleb128 0x1
 4123 0001 11       		.uleb128 0x11
 4124 0002 01       		.byte	0x1
 4125 0003 25       		.uleb128 0x25
 4126 0004 0E       		.uleb128 0xe
 4127 0005 13       		.uleb128 0x13
 4128 0006 0B       		.uleb128 0xb
 4129 0007 03       		.uleb128 0x3
 4130 0008 0E       		.uleb128 0xe
 4131 0009 1B       		.uleb128 0x1b
 4132 000a 0E       		.uleb128 0xe
 4133 000b 55       		.uleb128 0x55
 4134 000c 17       		.uleb128 0x17
 4135 000d 11       		.uleb128 0x11
 4136 000e 01       		.uleb128 0x1
 4137 000f 10       		.uleb128 0x10
 4138 0010 17       		.uleb128 0x17
 4139 0011 00       		.byte	0
 4140 0012 00       		.byte	0
 4141 0013 02       		.uleb128 0x2
 4142 0014 24       		.uleb128 0x24
 4143 0015 00       		.byte	0
 4144 0016 0B       		.uleb128 0xb
 4145 0017 0B       		.uleb128 0xb
 4146 0018 3E       		.uleb128 0x3e
 4147 0019 0B       		.uleb128 0xb
 4148 001a 03       		.uleb128 0x3
 4149 001b 0E       		.uleb128 0xe
 4150 001c 00       		.byte	0
 4151 001d 00       		.byte	0
 4152 001e 03       		.uleb128 0x3
 4153 001f 16       		.uleb128 0x16
 4154 0020 00       		.byte	0
 4155 0021 03       		.uleb128 0x3
 4156 0022 0E       		.uleb128 0xe
 4157 0023 3A       		.uleb128 0x3a
 4158 0024 0B       		.uleb128 0xb
 4159 0025 3B       		.uleb128 0x3b
 4160 0026 0B       		.uleb128 0xb
 4161 0027 49       		.uleb128 0x49
 4162 0028 13       		.uleb128 0x13
 4163 0029 00       		.byte	0
 4164 002a 00       		.byte	0
 4165 002b 04       		.uleb128 0x4
 4166 002c 24       		.uleb128 0x24
 4167 002d 00       		.byte	0
 4168 002e 0B       		.uleb128 0xb
ARM GAS  C:\Users\MARTHN~1\AppData\Local\Temp\ccHF3wZv.s 			page 89


 4169 002f 0B       		.uleb128 0xb
 4170 0030 3E       		.uleb128 0x3e
 4171 0031 0B       		.uleb128 0xb
 4172 0032 03       		.uleb128 0x3
 4173 0033 08       		.uleb128 0x8
 4174 0034 00       		.byte	0
 4175 0035 00       		.byte	0
 4176 0036 05       		.uleb128 0x5
 4177 0037 16       		.uleb128 0x16
 4178 0038 00       		.byte	0
 4179 0039 03       		.uleb128 0x3
 4180 003a 0E       		.uleb128 0xe
 4181 003b 3A       		.uleb128 0x3a
 4182 003c 0B       		.uleb128 0xb
 4183 003d 3B       		.uleb128 0x3b
 4184 003e 05       		.uleb128 0x5
 4185 003f 49       		.uleb128 0x49
 4186 0040 13       		.uleb128 0x13
 4187 0041 00       		.byte	0
 4188 0042 00       		.byte	0
 4189 0043 06       		.uleb128 0x6
 4190 0044 01       		.uleb128 0x1
 4191 0045 01       		.byte	0x1
 4192 0046 49       		.uleb128 0x49
 4193 0047 13       		.uleb128 0x13
 4194 0048 01       		.uleb128 0x1
 4195 0049 13       		.uleb128 0x13
 4196 004a 00       		.byte	0
 4197 004b 00       		.byte	0
 4198 004c 07       		.uleb128 0x7
 4199 004d 21       		.uleb128 0x21
 4200 004e 00       		.byte	0
 4201 004f 49       		.uleb128 0x49
 4202 0050 13       		.uleb128 0x13
 4203 0051 2F       		.uleb128 0x2f
 4204 0052 0B       		.uleb128 0xb
 4205 0053 00       		.byte	0
 4206 0054 00       		.byte	0
 4207 0055 08       		.uleb128 0x8
 4208 0056 13       		.uleb128 0x13
 4209 0057 01       		.byte	0x1
 4210 0058 03       		.uleb128 0x3
 4211 0059 0E       		.uleb128 0xe
 4212 005a 0B       		.uleb128 0xb
 4213 005b 0B       		.uleb128 0xb
 4214 005c 3A       		.uleb128 0x3a
 4215 005d 0B       		.uleb128 0xb
 4216 005e 3B       		.uleb128 0x3b
 4217 005f 0B       		.uleb128 0xb
 4218 0060 01       		.uleb128 0x1
 4219 0061 13       		.uleb128 0x13
 4220 0062 00       		.byte	0
 4221 0063 00       		.byte	0
 4222 0064 09       		.uleb128 0x9
 4223 0065 0D       		.uleb128 0xd
 4224 0066 00       		.byte	0
 4225 0067 03       		.uleb128 0x3
ARM GAS  C:\Users\MARTHN~1\AppData\Local\Temp\ccHF3wZv.s 			page 90


 4226 0068 0E       		.uleb128 0xe
 4227 0069 3A       		.uleb128 0x3a
 4228 006a 0B       		.uleb128 0xb
 4229 006b 3B       		.uleb128 0x3b
 4230 006c 0B       		.uleb128 0xb
 4231 006d 49       		.uleb128 0x49
 4232 006e 13       		.uleb128 0x13
 4233 006f 38       		.uleb128 0x38
 4234 0070 0B       		.uleb128 0xb
 4235 0071 00       		.byte	0
 4236 0072 00       		.byte	0
 4237 0073 0A       		.uleb128 0xa
 4238 0074 17       		.uleb128 0x17
 4239 0075 01       		.byte	0x1
 4240 0076 03       		.uleb128 0x3
 4241 0077 0E       		.uleb128 0xe
 4242 0078 0B       		.uleb128 0xb
 4243 0079 0B       		.uleb128 0xb
 4244 007a 3A       		.uleb128 0x3a
 4245 007b 0B       		.uleb128 0xb
 4246 007c 3B       		.uleb128 0x3b
 4247 007d 0B       		.uleb128 0xb
 4248 007e 01       		.uleb128 0x1
 4249 007f 13       		.uleb128 0x13
 4250 0080 00       		.byte	0
 4251 0081 00       		.byte	0
 4252 0082 0B       		.uleb128 0xb
 4253 0083 0D       		.uleb128 0xd
 4254 0084 00       		.byte	0
 4255 0085 03       		.uleb128 0x3
 4256 0086 0E       		.uleb128 0xe
 4257 0087 3A       		.uleb128 0x3a
 4258 0088 0B       		.uleb128 0xb
 4259 0089 3B       		.uleb128 0x3b
 4260 008a 0B       		.uleb128 0xb
 4261 008b 49       		.uleb128 0x49
 4262 008c 13       		.uleb128 0x13
 4263 008d 00       		.byte	0
 4264 008e 00       		.byte	0
 4265 008f 0C       		.uleb128 0xc
 4266 0090 0D       		.uleb128 0xd
 4267 0091 00       		.byte	0
 4268 0092 03       		.uleb128 0x3
 4269 0093 08       		.uleb128 0x8
 4270 0094 3A       		.uleb128 0x3a
 4271 0095 0B       		.uleb128 0xb
 4272 0096 3B       		.uleb128 0x3b
 4273 0097 0B       		.uleb128 0xb
 4274 0098 49       		.uleb128 0x49
 4275 0099 13       		.uleb128 0x13
 4276 009a 38       		.uleb128 0x38
 4277 009b 0B       		.uleb128 0xb
 4278 009c 00       		.byte	0
 4279 009d 00       		.byte	0
 4280 009e 0D       		.uleb128 0xd
 4281 009f 0D       		.uleb128 0xd
 4282 00a0 00       		.byte	0
ARM GAS  C:\Users\MARTHN~1\AppData\Local\Temp\ccHF3wZv.s 			page 91


 4283 00a1 03       		.uleb128 0x3
 4284 00a2 0E       		.uleb128 0xe
 4285 00a3 3A       		.uleb128 0x3a
 4286 00a4 0B       		.uleb128 0xb
 4287 00a5 3B       		.uleb128 0x3b
 4288 00a6 05       		.uleb128 0x5
 4289 00a7 49       		.uleb128 0x49
 4290 00a8 13       		.uleb128 0x13
 4291 00a9 38       		.uleb128 0x38
 4292 00aa 0B       		.uleb128 0xb
 4293 00ab 00       		.byte	0
 4294 00ac 00       		.byte	0
 4295 00ad 0E       		.uleb128 0xe
 4296 00ae 0D       		.uleb128 0xd
 4297 00af 00       		.byte	0
 4298 00b0 03       		.uleb128 0x3
 4299 00b1 0E       		.uleb128 0xe
 4300 00b2 3A       		.uleb128 0x3a
 4301 00b3 0B       		.uleb128 0xb
 4302 00b4 3B       		.uleb128 0x3b
 4303 00b5 05       		.uleb128 0x5
 4304 00b6 49       		.uleb128 0x49
 4305 00b7 13       		.uleb128 0x13
 4306 00b8 00       		.byte	0
 4307 00b9 00       		.byte	0
 4308 00ba 0F       		.uleb128 0xf
 4309 00bb 13       		.uleb128 0x13
 4310 00bc 01       		.byte	0x1
 4311 00bd 03       		.uleb128 0x3
 4312 00be 0E       		.uleb128 0xe
 4313 00bf 0B       		.uleb128 0xb
 4314 00c0 0B       		.uleb128 0xb
 4315 00c1 3A       		.uleb128 0x3a
 4316 00c2 0B       		.uleb128 0xb
 4317 00c3 3B       		.uleb128 0x3b
 4318 00c4 05       		.uleb128 0x5
 4319 00c5 01       		.uleb128 0x1
 4320 00c6 13       		.uleb128 0x13
 4321 00c7 00       		.byte	0
 4322 00c8 00       		.byte	0
 4323 00c9 10       		.uleb128 0x10
 4324 00ca 17       		.uleb128 0x17
 4325 00cb 01       		.byte	0x1
 4326 00cc 03       		.uleb128 0x3
 4327 00cd 0E       		.uleb128 0xe
 4328 00ce 0B       		.uleb128 0xb
 4329 00cf 0B       		.uleb128 0xb
 4330 00d0 3A       		.uleb128 0x3a
 4331 00d1 0B       		.uleb128 0xb
 4332 00d2 3B       		.uleb128 0x3b
 4333 00d3 05       		.uleb128 0x5
 4334 00d4 01       		.uleb128 0x1
 4335 00d5 13       		.uleb128 0x13
 4336 00d6 00       		.byte	0
 4337 00d7 00       		.byte	0
 4338 00d8 11       		.uleb128 0x11
 4339 00d9 04       		.uleb128 0x4
ARM GAS  C:\Users\MARTHN~1\AppData\Local\Temp\ccHF3wZv.s 			page 92


 4340 00da 01       		.byte	0x1
 4341 00db 03       		.uleb128 0x3
 4342 00dc 0E       		.uleb128 0xe
 4343 00dd 0B       		.uleb128 0xb
 4344 00de 0B       		.uleb128 0xb
 4345 00df 49       		.uleb128 0x49
 4346 00e0 13       		.uleb128 0x13
 4347 00e1 3A       		.uleb128 0x3a
 4348 00e2 0B       		.uleb128 0xb
 4349 00e3 3B       		.uleb128 0x3b
 4350 00e4 0B       		.uleb128 0xb
 4351 00e5 01       		.uleb128 0x1
 4352 00e6 13       		.uleb128 0x13
 4353 00e7 00       		.byte	0
 4354 00e8 00       		.byte	0
 4355 00e9 12       		.uleb128 0x12
 4356 00ea 28       		.uleb128 0x28
 4357 00eb 00       		.byte	0
 4358 00ec 03       		.uleb128 0x3
 4359 00ed 0E       		.uleb128 0xe
 4360 00ee 1C       		.uleb128 0x1c
 4361 00ef 0B       		.uleb128 0xb
 4362 00f0 00       		.byte	0
 4363 00f1 00       		.byte	0
 4364 00f2 13       		.uleb128 0x13
 4365 00f3 28       		.uleb128 0x28
 4366 00f4 00       		.byte	0
 4367 00f5 03       		.uleb128 0x3
 4368 00f6 08       		.uleb128 0x8
 4369 00f7 1C       		.uleb128 0x1c
 4370 00f8 0B       		.uleb128 0xb
 4371 00f9 00       		.byte	0
 4372 00fa 00       		.byte	0
 4373 00fb 14       		.uleb128 0x14
 4374 00fc 2E       		.uleb128 0x2e
 4375 00fd 01       		.byte	0x1
 4376 00fe 3F       		.uleb128 0x3f
 4377 00ff 19       		.uleb128 0x19
 4378 0100 03       		.uleb128 0x3
 4379 0101 0E       		.uleb128 0xe
 4380 0102 3A       		.uleb128 0x3a
 4381 0103 0B       		.uleb128 0xb
 4382 0104 3B       		.uleb128 0x3b
 4383 0105 0B       		.uleb128 0xb
 4384 0106 27       		.uleb128 0x27
 4385 0107 19       		.uleb128 0x19
 4386 0108 49       		.uleb128 0x49
 4387 0109 13       		.uleb128 0x13
 4388 010a 11       		.uleb128 0x11
 4389 010b 01       		.uleb128 0x1
 4390 010c 12       		.uleb128 0x12
 4391 010d 06       		.uleb128 0x6
 4392 010e 40       		.uleb128 0x40
 4393 010f 18       		.uleb128 0x18
 4394 0110 9642     		.uleb128 0x2116
 4395 0112 19       		.uleb128 0x19
 4396 0113 01       		.uleb128 0x1
ARM GAS  C:\Users\MARTHN~1\AppData\Local\Temp\ccHF3wZv.s 			page 93


 4397 0114 13       		.uleb128 0x13
 4398 0115 00       		.byte	0
 4399 0116 00       		.byte	0
 4400 0117 15       		.uleb128 0x15
 4401 0118 0B       		.uleb128 0xb
 4402 0119 01       		.byte	0x1
 4403 011a 11       		.uleb128 0x11
 4404 011b 01       		.uleb128 0x1
 4405 011c 12       		.uleb128 0x12
 4406 011d 06       		.uleb128 0x6
 4407 011e 01       		.uleb128 0x1
 4408 011f 13       		.uleb128 0x13
 4409 0120 00       		.byte	0
 4410 0121 00       		.byte	0
 4411 0122 16       		.uleb128 0x16
 4412 0123 34       		.uleb128 0x34
 4413 0124 00       		.byte	0
 4414 0125 03       		.uleb128 0x3
 4415 0126 08       		.uleb128 0x8
 4416 0127 3A       		.uleb128 0x3a
 4417 0128 0B       		.uleb128 0xb
 4418 0129 3B       		.uleb128 0x3b
 4419 012a 0B       		.uleb128 0xb
 4420 012b 49       		.uleb128 0x49
 4421 012c 13       		.uleb128 0x13
 4422 012d 02       		.uleb128 0x2
 4423 012e 18       		.uleb128 0x18
 4424 012f 00       		.byte	0
 4425 0130 00       		.byte	0
 4426 0131 17       		.uleb128 0x17
 4427 0132 0B       		.uleb128 0xb
 4428 0133 01       		.byte	0x1
 4429 0134 11       		.uleb128 0x11
 4430 0135 01       		.uleb128 0x1
 4431 0136 12       		.uleb128 0x12
 4432 0137 06       		.uleb128 0x6
 4433 0138 00       		.byte	0
 4434 0139 00       		.byte	0
 4435 013a 18       		.uleb128 0x18
 4436 013b 2E       		.uleb128 0x2e
 4437 013c 01       		.byte	0x1
 4438 013d 3F       		.uleb128 0x3f
 4439 013e 19       		.uleb128 0x19
 4440 013f 03       		.uleb128 0x3
 4441 0140 0E       		.uleb128 0xe
 4442 0141 3A       		.uleb128 0x3a
 4443 0142 0B       		.uleb128 0xb
 4444 0143 3B       		.uleb128 0x3b
 4445 0144 05       		.uleb128 0x5
 4446 0145 27       		.uleb128 0x27
 4447 0146 19       		.uleb128 0x19
 4448 0147 49       		.uleb128 0x49
 4449 0148 13       		.uleb128 0x13
 4450 0149 11       		.uleb128 0x11
 4451 014a 01       		.uleb128 0x1
 4452 014b 12       		.uleb128 0x12
 4453 014c 06       		.uleb128 0x6
ARM GAS  C:\Users\MARTHN~1\AppData\Local\Temp\ccHF3wZv.s 			page 94


 4454 014d 40       		.uleb128 0x40
 4455 014e 18       		.uleb128 0x18
 4456 014f 9642     		.uleb128 0x2116
 4457 0151 19       		.uleb128 0x19
 4458 0152 01       		.uleb128 0x1
 4459 0153 13       		.uleb128 0x13
 4460 0154 00       		.byte	0
 4461 0155 00       		.byte	0
 4462 0156 19       		.uleb128 0x19
 4463 0157 34       		.uleb128 0x34
 4464 0158 00       		.byte	0
 4465 0159 03       		.uleb128 0x3
 4466 015a 0E       		.uleb128 0xe
 4467 015b 3A       		.uleb128 0x3a
 4468 015c 0B       		.uleb128 0xb
 4469 015d 3B       		.uleb128 0x3b
 4470 015e 05       		.uleb128 0x5
 4471 015f 49       		.uleb128 0x49
 4472 0160 13       		.uleb128 0x13
 4473 0161 02       		.uleb128 0x2
 4474 0162 18       		.uleb128 0x18
 4475 0163 00       		.byte	0
 4476 0164 00       		.byte	0
 4477 0165 1A       		.uleb128 0x1a
 4478 0166 2E       		.uleb128 0x2e
 4479 0167 00       		.byte	0
 4480 0168 3F       		.uleb128 0x3f
 4481 0169 19       		.uleb128 0x19
 4482 016a 03       		.uleb128 0x3
 4483 016b 0E       		.uleb128 0xe
 4484 016c 3A       		.uleb128 0x3a
 4485 016d 0B       		.uleb128 0xb
 4486 016e 3B       		.uleb128 0x3b
 4487 016f 05       		.uleb128 0x5
 4488 0170 27       		.uleb128 0x27
 4489 0171 19       		.uleb128 0x19
 4490 0172 49       		.uleb128 0x49
 4491 0173 13       		.uleb128 0x13
 4492 0174 11       		.uleb128 0x11
 4493 0175 01       		.uleb128 0x1
 4494 0176 12       		.uleb128 0x12
 4495 0177 06       		.uleb128 0x6
 4496 0178 40       		.uleb128 0x40
 4497 0179 18       		.uleb128 0x18
 4498 017a 9742     		.uleb128 0x2117
 4499 017c 19       		.uleb128 0x19
 4500 017d 00       		.byte	0
 4501 017e 00       		.byte	0
 4502 017f 1B       		.uleb128 0x1b
 4503 0180 2E       		.uleb128 0x2e
 4504 0181 00       		.byte	0
 4505 0182 3F       		.uleb128 0x3f
 4506 0183 19       		.uleb128 0x19
 4507 0184 03       		.uleb128 0x3
 4508 0185 0E       		.uleb128 0xe
 4509 0186 3A       		.uleb128 0x3a
 4510 0187 0B       		.uleb128 0xb
ARM GAS  C:\Users\MARTHN~1\AppData\Local\Temp\ccHF3wZv.s 			page 95


 4511 0188 3B       		.uleb128 0x3b
 4512 0189 05       		.uleb128 0x5
 4513 018a 27       		.uleb128 0x27
 4514 018b 19       		.uleb128 0x19
 4515 018c 49       		.uleb128 0x49
 4516 018d 13       		.uleb128 0x13
 4517 018e 11       		.uleb128 0x11
 4518 018f 01       		.uleb128 0x1
 4519 0190 12       		.uleb128 0x12
 4520 0191 06       		.uleb128 0x6
 4521 0192 40       		.uleb128 0x40
 4522 0193 18       		.uleb128 0x18
 4523 0194 9642     		.uleb128 0x2116
 4524 0196 19       		.uleb128 0x19
 4525 0197 00       		.byte	0
 4526 0198 00       		.byte	0
 4527 0199 1C       		.uleb128 0x1c
 4528 019a 34       		.uleb128 0x34
 4529 019b 00       		.byte	0
 4530 019c 03       		.uleb128 0x3
 4531 019d 08       		.uleb128 0x8
 4532 019e 3A       		.uleb128 0x3a
 4533 019f 0B       		.uleb128 0xb
 4534 01a0 3B       		.uleb128 0x3b
 4535 01a1 05       		.uleb128 0x5
 4536 01a2 49       		.uleb128 0x49
 4537 01a3 13       		.uleb128 0x13
 4538 01a4 02       		.uleb128 0x2
 4539 01a5 18       		.uleb128 0x18
 4540 01a6 00       		.byte	0
 4541 01a7 00       		.byte	0
 4542 01a8 1D       		.uleb128 0x1d
 4543 01a9 2E       		.uleb128 0x2e
 4544 01aa 01       		.byte	0x1
 4545 01ab 3F       		.uleb128 0x3f
 4546 01ac 19       		.uleb128 0x19
 4547 01ad 03       		.uleb128 0x3
 4548 01ae 0E       		.uleb128 0xe
 4549 01af 3A       		.uleb128 0x3a
 4550 01b0 0B       		.uleb128 0xb
 4551 01b1 3B       		.uleb128 0x3b
 4552 01b2 05       		.uleb128 0x5
 4553 01b3 27       		.uleb128 0x27
 4554 01b4 19       		.uleb128 0x19
 4555 01b5 49       		.uleb128 0x49
 4556 01b6 13       		.uleb128 0x13
 4557 01b7 11       		.uleb128 0x11
 4558 01b8 01       		.uleb128 0x1
 4559 01b9 12       		.uleb128 0x12
 4560 01ba 06       		.uleb128 0x6
 4561 01bb 40       		.uleb128 0x40
 4562 01bc 18       		.uleb128 0x18
 4563 01bd 9742     		.uleb128 0x2117
 4564 01bf 19       		.uleb128 0x19
 4565 01c0 01       		.uleb128 0x1
 4566 01c1 13       		.uleb128 0x13
 4567 01c2 00       		.byte	0
ARM GAS  C:\Users\MARTHN~1\AppData\Local\Temp\ccHF3wZv.s 			page 96


 4568 01c3 00       		.byte	0
 4569 01c4 1E       		.uleb128 0x1e
 4570 01c5 0F       		.uleb128 0xf
 4571 01c6 00       		.byte	0
 4572 01c7 0B       		.uleb128 0xb
 4573 01c8 0B       		.uleb128 0xb
 4574 01c9 49       		.uleb128 0x49
 4575 01ca 13       		.uleb128 0x13
 4576 01cb 00       		.byte	0
 4577 01cc 00       		.byte	0
 4578 01cd 1F       		.uleb128 0x1f
 4579 01ce 2E       		.uleb128 0x2e
 4580 01cf 00       		.byte	0
 4581 01d0 3F       		.uleb128 0x3f
 4582 01d1 19       		.uleb128 0x19
 4583 01d2 03       		.uleb128 0x3
 4584 01d3 0E       		.uleb128 0xe
 4585 01d4 3A       		.uleb128 0x3a
 4586 01d5 0B       		.uleb128 0xb
 4587 01d6 3B       		.uleb128 0x3b
 4588 01d7 05       		.uleb128 0x5
 4589 01d8 49       		.uleb128 0x49
 4590 01d9 13       		.uleb128 0x13
 4591 01da 11       		.uleb128 0x11
 4592 01db 01       		.uleb128 0x1
 4593 01dc 12       		.uleb128 0x12
 4594 01dd 06       		.uleb128 0x6
 4595 01de 40       		.uleb128 0x40
 4596 01df 18       		.uleb128 0x18
 4597 01e0 9742     		.uleb128 0x2117
 4598 01e2 19       		.uleb128 0x19
 4599 01e3 00       		.byte	0
 4600 01e4 00       		.byte	0
 4601 01e5 20       		.uleb128 0x20
 4602 01e6 2E       		.uleb128 0x2e
 4603 01e7 01       		.byte	0x1
 4604 01e8 3F       		.uleb128 0x3f
 4605 01e9 19       		.uleb128 0x19
 4606 01ea 03       		.uleb128 0x3
 4607 01eb 0E       		.uleb128 0xe
 4608 01ec 3A       		.uleb128 0x3a
 4609 01ed 0B       		.uleb128 0xb
 4610 01ee 3B       		.uleb128 0x3b
 4611 01ef 05       		.uleb128 0x5
 4612 01f0 27       		.uleb128 0x27
 4613 01f1 19       		.uleb128 0x19
 4614 01f2 11       		.uleb128 0x11
 4615 01f3 01       		.uleb128 0x1
 4616 01f4 12       		.uleb128 0x12
 4617 01f5 06       		.uleb128 0x6
 4618 01f6 40       		.uleb128 0x40
 4619 01f7 18       		.uleb128 0x18
 4620 01f8 9642     		.uleb128 0x2116
 4621 01fa 19       		.uleb128 0x19
 4622 01fb 01       		.uleb128 0x1
 4623 01fc 13       		.uleb128 0x13
 4624 01fd 00       		.byte	0
ARM GAS  C:\Users\MARTHN~1\AppData\Local\Temp\ccHF3wZv.s 			page 97


 4625 01fe 00       		.byte	0
 4626 01ff 21       		.uleb128 0x21
 4627 0200 05       		.uleb128 0x5
 4628 0201 00       		.byte	0
 4629 0202 03       		.uleb128 0x3
 4630 0203 0E       		.uleb128 0xe
 4631 0204 3A       		.uleb128 0x3a
 4632 0205 0B       		.uleb128 0xb
 4633 0206 3B       		.uleb128 0x3b
 4634 0207 05       		.uleb128 0x5
 4635 0208 49       		.uleb128 0x49
 4636 0209 13       		.uleb128 0x13
 4637 020a 02       		.uleb128 0x2
 4638 020b 18       		.uleb128 0x18
 4639 020c 00       		.byte	0
 4640 020d 00       		.byte	0
 4641 020e 22       		.uleb128 0x22
 4642 020f 2E       		.uleb128 0x2e
 4643 0210 00       		.byte	0
 4644 0211 3F       		.uleb128 0x3f
 4645 0212 19       		.uleb128 0x19
 4646 0213 03       		.uleb128 0x3
 4647 0214 0E       		.uleb128 0xe
 4648 0215 3A       		.uleb128 0x3a
 4649 0216 0B       		.uleb128 0xb
 4650 0217 3B       		.uleb128 0x3b
 4651 0218 05       		.uleb128 0x5
 4652 0219 27       		.uleb128 0x27
 4653 021a 19       		.uleb128 0x19
 4654 021b 11       		.uleb128 0x11
 4655 021c 01       		.uleb128 0x1
 4656 021d 12       		.uleb128 0x12
 4657 021e 06       		.uleb128 0x6
 4658 021f 40       		.uleb128 0x40
 4659 0220 18       		.uleb128 0x18
 4660 0221 9642     		.uleb128 0x2116
 4661 0223 19       		.uleb128 0x19
 4662 0224 00       		.byte	0
 4663 0225 00       		.byte	0
 4664 0226 23       		.uleb128 0x23
 4665 0227 2E       		.uleb128 0x2e
 4666 0228 00       		.byte	0
 4667 0229 3F       		.uleb128 0x3f
 4668 022a 19       		.uleb128 0x19
 4669 022b 03       		.uleb128 0x3
 4670 022c 0E       		.uleb128 0xe
 4671 022d 3A       		.uleb128 0x3a
 4672 022e 0B       		.uleb128 0xb
 4673 022f 3B       		.uleb128 0x3b
 4674 0230 05       		.uleb128 0x5
 4675 0231 27       		.uleb128 0x27
 4676 0232 19       		.uleb128 0x19
 4677 0233 11       		.uleb128 0x11
 4678 0234 01       		.uleb128 0x1
 4679 0235 12       		.uleb128 0x12
 4680 0236 06       		.uleb128 0x6
 4681 0237 40       		.uleb128 0x40
ARM GAS  C:\Users\MARTHN~1\AppData\Local\Temp\ccHF3wZv.s 			page 98


 4682 0238 18       		.uleb128 0x18
 4683 0239 9742     		.uleb128 0x2117
 4684 023b 19       		.uleb128 0x19
 4685 023c 00       		.byte	0
 4686 023d 00       		.byte	0
 4687 023e 24       		.uleb128 0x24
 4688 023f 2E       		.uleb128 0x2e
 4689 0240 01       		.byte	0x1
 4690 0241 3F       		.uleb128 0x3f
 4691 0242 19       		.uleb128 0x19
 4692 0243 03       		.uleb128 0x3
 4693 0244 0E       		.uleb128 0xe
 4694 0245 3A       		.uleb128 0x3a
 4695 0246 0B       		.uleb128 0xb
 4696 0247 3B       		.uleb128 0x3b
 4697 0248 05       		.uleb128 0x5
 4698 0249 27       		.uleb128 0x27
 4699 024a 19       		.uleb128 0x19
 4700 024b 11       		.uleb128 0x11
 4701 024c 01       		.uleb128 0x1
 4702 024d 12       		.uleb128 0x12
 4703 024e 06       		.uleb128 0x6
 4704 024f 40       		.uleb128 0x40
 4705 0250 18       		.uleb128 0x18
 4706 0251 9742     		.uleb128 0x2117
 4707 0253 19       		.uleb128 0x19
 4708 0254 01       		.uleb128 0x1
 4709 0255 13       		.uleb128 0x13
 4710 0256 00       		.byte	0
 4711 0257 00       		.byte	0
 4712 0258 25       		.uleb128 0x25
 4713 0259 34       		.uleb128 0x34
 4714 025a 00       		.byte	0
 4715 025b 03       		.uleb128 0x3
 4716 025c 0E       		.uleb128 0xe
 4717 025d 3A       		.uleb128 0x3a
 4718 025e 0B       		.uleb128 0xb
 4719 025f 3B       		.uleb128 0x3b
 4720 0260 0B       		.uleb128 0xb
 4721 0261 49       		.uleb128 0x49
 4722 0262 13       		.uleb128 0x13
 4723 0263 02       		.uleb128 0x2
 4724 0264 18       		.uleb128 0x18
 4725 0265 00       		.byte	0
 4726 0266 00       		.byte	0
 4727 0267 26       		.uleb128 0x26
 4728 0268 34       		.uleb128 0x34
 4729 0269 00       		.byte	0
 4730 026a 03       		.uleb128 0x3
 4731 026b 0E       		.uleb128 0xe
 4732 026c 3A       		.uleb128 0x3a
 4733 026d 0B       		.uleb128 0xb
 4734 026e 3B       		.uleb128 0x3b
 4735 026f 05       		.uleb128 0x5
 4736 0270 49       		.uleb128 0x49
 4737 0271 13       		.uleb128 0x13
 4738 0272 3F       		.uleb128 0x3f
ARM GAS  C:\Users\MARTHN~1\AppData\Local\Temp\ccHF3wZv.s 			page 99


 4739 0273 19       		.uleb128 0x19
 4740 0274 3C       		.uleb128 0x3c
 4741 0275 19       		.uleb128 0x19
 4742 0276 00       		.byte	0
 4743 0277 00       		.byte	0
 4744 0278 27       		.uleb128 0x27
 4745 0279 35       		.uleb128 0x35
 4746 027a 00       		.byte	0
 4747 027b 49       		.uleb128 0x49
 4748 027c 13       		.uleb128 0x13
 4749 027d 00       		.byte	0
 4750 027e 00       		.byte	0
 4751 027f 00       		.byte	0
 4752              		.section	.debug_aranges,"",%progbits
 4753 0000 B4000000 		.4byte	0xb4
 4754 0004 0200     		.2byte	0x2
 4755 0006 00000000 		.4byte	.Ldebug_info0
 4756 000a 04       		.byte	0x4
 4757 000b 00       		.byte	0
 4758 000c 0000     		.2byte	0
 4759 000e 0000     		.2byte	0
 4760 0010 00000000 		.4byte	.LFB63
 4761 0014 60040000 		.4byte	.LFE63-.LFB63
 4762 0018 00000000 		.4byte	.LFB64
 4763 001c 94000000 		.4byte	.LFE64-.LFB64
 4764 0020 00000000 		.4byte	.LFB65
 4765 0024 0E000000 		.4byte	.LFE65-.LFB65
 4766 0028 00000000 		.4byte	.LFB66
 4767 002c 28000000 		.4byte	.LFE66-.LFB66
 4768 0030 00000000 		.4byte	.LFB67
 4769 0034 16000000 		.4byte	.LFE67-.LFB67
 4770 0038 00000000 		.4byte	.LFB68
 4771 003c 50000000 		.4byte	.LFE68-.LFB68
 4772 0040 00000000 		.4byte	.LFB69
 4773 0044 3C000000 		.4byte	.LFE69-.LFB69
 4774 0048 00000000 		.4byte	.LFB70
 4775 004c 70000000 		.4byte	.LFE70-.LFB70
 4776 0050 00000000 		.4byte	.LFB71
 4777 0054 0E000000 		.4byte	.LFE71-.LFB71
 4778 0058 00000000 		.4byte	.LFB72
 4779 005c 20000000 		.4byte	.LFE72-.LFB72
 4780 0060 00000000 		.4byte	.LFB73
 4781 0064 20000000 		.4byte	.LFE73-.LFB73
 4782 0068 00000000 		.4byte	.LFB74
 4783 006c 20000000 		.4byte	.LFE74-.LFB74
 4784 0070 00000000 		.4byte	.LFB75
 4785 0074 20000000 		.4byte	.LFE75-.LFB75
 4786 0078 00000000 		.4byte	.LFB76
 4787 007c 20000000 		.4byte	.LFE76-.LFB76
 4788 0080 00000000 		.4byte	.LFB77
 4789 0084 5C000000 		.4byte	.LFE77-.LFB77
 4790 0088 00000000 		.4byte	.LFB78
 4791 008c 7C000000 		.4byte	.LFE78-.LFB78
 4792 0090 00000000 		.4byte	.LFB79
 4793 0094 1C000000 		.4byte	.LFE79-.LFB79
 4794 0098 00000000 		.4byte	.LFB80
 4795 009c 68000000 		.4byte	.LFE80-.LFB80
ARM GAS  C:\Users\MARTHN~1\AppData\Local\Temp\ccHF3wZv.s 			page 100


 4796 00a0 00000000 		.4byte	.LFB81
 4797 00a4 3C000000 		.4byte	.LFE81-.LFB81
 4798 00a8 00000000 		.4byte	.LFB82
 4799 00ac 70000000 		.4byte	.LFE82-.LFB82
 4800 00b0 00000000 		.4byte	0
 4801 00b4 00000000 		.4byte	0
 4802              		.section	.debug_ranges,"",%progbits
 4803              	.Ldebug_ranges0:
 4804 0000 00000000 		.4byte	.LFB63
 4805 0004 60040000 		.4byte	.LFE63
 4806 0008 00000000 		.4byte	.LFB64
 4807 000c 94000000 		.4byte	.LFE64
 4808 0010 00000000 		.4byte	.LFB65
 4809 0014 0E000000 		.4byte	.LFE65
 4810 0018 00000000 		.4byte	.LFB66
 4811 001c 28000000 		.4byte	.LFE66
 4812 0020 00000000 		.4byte	.LFB67
 4813 0024 16000000 		.4byte	.LFE67
 4814 0028 00000000 		.4byte	.LFB68
 4815 002c 50000000 		.4byte	.LFE68
 4816 0030 00000000 		.4byte	.LFB69
 4817 0034 3C000000 		.4byte	.LFE69
 4818 0038 00000000 		.4byte	.LFB70
 4819 003c 70000000 		.4byte	.LFE70
 4820 0040 00000000 		.4byte	.LFB71
 4821 0044 0E000000 		.4byte	.LFE71
 4822 0048 00000000 		.4byte	.LFB72
 4823 004c 20000000 		.4byte	.LFE72
 4824 0050 00000000 		.4byte	.LFB73
 4825 0054 20000000 		.4byte	.LFE73
 4826 0058 00000000 		.4byte	.LFB74
 4827 005c 20000000 		.4byte	.LFE74
 4828 0060 00000000 		.4byte	.LFB75
 4829 0064 20000000 		.4byte	.LFE75
 4830 0068 00000000 		.4byte	.LFB76
 4831 006c 20000000 		.4byte	.LFE76
 4832 0070 00000000 		.4byte	.LFB77
 4833 0074 5C000000 		.4byte	.LFE77
 4834 0078 00000000 		.4byte	.LFB78
 4835 007c 7C000000 		.4byte	.LFE78
 4836 0080 00000000 		.4byte	.LFB79
 4837 0084 1C000000 		.4byte	.LFE79
 4838 0088 00000000 		.4byte	.LFB80
 4839 008c 68000000 		.4byte	.LFE80
 4840 0090 00000000 		.4byte	.LFB81
 4841 0094 3C000000 		.4byte	.LFE81
 4842 0098 00000000 		.4byte	.LFB82
 4843 009c 70000000 		.4byte	.LFE82
 4844 00a0 00000000 		.4byte	0
 4845 00a4 00000000 		.4byte	0
 4846              		.section	.debug_line,"",%progbits
 4847              	.Ldebug_line0:
 4848 0000 A9040000 		.section	.debug_str,"MS",%progbits,1
 4848      02008701 
 4848      00000201 
 4848      FB0E0D00 
 4848      01010101 
ARM GAS  C:\Users\MARTHN~1\AppData\Local\Temp\ccHF3wZv.s 			page 101


 4849              	.LASF88:
 4850 0000 42757A7A 		.ascii	"Buzzer_L\000"
 4850      65725F4C 
 4850      00
 4851              	.LASF293:
 4852 0009 70527850 		.ascii	"pRxPacket_Relay\000"
 4852      61636B65 
 4852      745F5265 
 4852      6C617900 
 4853              	.LASF120:
 4854 0019 44617461 		.ascii	"Data_H\000"
 4854      5F4800
 4855              	.LASF18:
 4856 0020 73697A65 		.ascii	"sizetype\000"
 4856      74797065 
 4856      00
 4857              	.LASF299:
 4858 0029 70527850 		.ascii	"pRxPacket_H\000"
 4858      61636B65 
 4858      745F4800 
 4859              	.LASF271:
 4860 0035 56626174 		.ascii	"Vbatt_Reading\000"
 4860      745F5265 
 4860      6164696E 
 4860      6700
 4861              	.LASF113:
 4862 0043 506F7765 		.ascii	"PowerState\000"
 4862      72537461 
 4862      746500
 4863              	.LASF10:
 4864 004e 696E7433 		.ascii	"int32_t\000"
 4864      325F7400 
 4865              	.LASF244:
 4866 0056 4D55585F 		.ascii	"MUX_460800_CHANNEL\000"
 4866      34363038 
 4866      30305F43 
 4866      48414E4E 
 4866      454C00
 4867              	.LASF253:
 4868 0069 54455354 		.ascii	"TEST_OUTPUTS\000"
 4868      5F4F5554 
 4868      50555453 
 4868      00
 4869              	.LASF228:
 4870 0076 4172726F 		.ascii	"Arrow_Module1\000"
 4870      775F4D6F 
 4870      64756C65 
 4870      3100
 4871              	.LASF229:
 4872 0084 4172726F 		.ascii	"Arrow_Module2\000"
 4872      775F4D6F 
 4872      64756C65 
 4872      3200
 4873              	.LASF230:
 4874 0092 4172726F 		.ascii	"Arrow_Module3\000"
 4874      775F4D6F 
 4874      64756C65 
ARM GAS  C:\Users\MARTHN~1\AppData\Local\Temp\ccHF3wZv.s 			page 102


 4874      3300
 4875              	.LASF231:
 4876 00a0 4172726F 		.ascii	"Arrow_Module4\000"
 4876      775F4D6F 
 4876      64756C65 
 4876      3400
 4877              	.LASF232:
 4878 00ae 4172726F 		.ascii	"Arrow_Module5\000"
 4878      775F4D6F 
 4878      64756C65 
 4878      3500
 4879              	.LASF233:
 4880 00bc 4172726F 		.ascii	"Arrow_Module6\000"
 4880      775F4D6F 
 4880      64756C65 
 4880      3600
 4881              	.LASF234:
 4882 00ca 4172726F 		.ascii	"Arrow_Module7\000"
 4882      775F4D6F 
 4882      64756C65 
 4882      3700
 4883              	.LASF235:
 4884 00d8 4172726F 		.ascii	"Arrow_Module8\000"
 4884      775F4D6F 
 4884      64756C65 
 4884      3800
 4885              	.LASF236:
 4886 00e6 4172726F 		.ascii	"Arrow_Module9\000"
 4886      775F4D6F 
 4886      64756C65 
 4886      3900
 4887              	.LASF13:
 4888 00f4 75696E74 		.ascii	"uint32\000"
 4888      333200
 4889              	.LASF281:
 4890 00fb 52656C61 		.ascii	"RelayTestStatus_display\000"
 4890      79546573 
 4890      74537461 
 4890      7475735F 
 4890      64697370 
 4891              	.LASF237:
 4892 0113 4172726F 		.ascii	"Arrow_Module10\000"
 4892      775F4D6F 
 4892      64756C65 
 4892      313000
 4893              	.LASF284:
 4894 0122 67657452 		.ascii	"getRxPacket_Siren\000"
 4894      78506163 
 4894      6B65745F 
 4894      53697265 
 4894      6E00
 4895              	.LASF54:
 4896 0134 4C45445F 		.ascii	"LED_11_R\000"
 4896      31315F52 
 4896      00
 4897              	.LASF259:
 4898 013d 424C4F43 		.ascii	"BLOCK_CURRENTS\000"
ARM GAS  C:\Users\MARTHN~1\AppData\Local\Temp\ccHF3wZv.s 			page 103


 4898      4B5F4355 
 4898      5252454E 
 4898      545300
 4899              	.LASF82:
 4900 014c 4C45445F 		.ascii	"LED_02_G\000"
 4900      30325F47 
 4900      00
 4901              	.LASF111:
 4902 0155 4F757470 		.ascii	"Outputs_25to32\000"
 4902      7574735F 
 4902      3235746F 
 4902      333200
 4903              	.LASF265:
 4904 0164 52546573 		.ascii	"RTest_Test_QuadPorts\000"
 4904      745F5465 
 4904      73745F51 
 4904      75616450 
 4904      6F727473 
 4905              	.LASF241:
 4906 0179 43544553 		.ascii	"CTEST_QUADSERIAL\000"
 4906      545F5155 
 4906      41445345 
 4906      5249414C 
 4906      00
 4907              	.LASF68:
 4908 018a 4C45445F 		.ascii	"LED_07_B\000"
 4908      30375F42 
 4908      00
 4909              	.LASF67:
 4910 0193 4C45445F 		.ascii	"LED_07_G\000"
 4910      30375F47 
 4910      00
 4911              	.LASF248:
 4912 019c 52544553 		.ascii	"RTEST_SIREN\000"
 4912      545F5349 
 4912      52454E00 
 4913              	.LASF66:
 4914 01a8 4C45445F 		.ascii	"LED_07_R\000"
 4914      30375F52 
 4914      00
 4915              	.LASF128:
 4916 01b1 464C425F 		.ascii	"FLB_Module1\000"
 4916      4D6F6475 
 4916      6C653100 
 4917              	.LASF129:
 4918 01bd 464C425F 		.ascii	"FLB_Module2\000"
 4918      4D6F6475 
 4918      6C653200 
 4919              	.LASF130:
 4920 01c9 464C425F 		.ascii	"FLB_Module3\000"
 4920      4D6F6475 
 4920      6C653300 
 4921              	.LASF90:
 4922 01d5 636F6E74 		.ascii	"controllerSpeakerEnable\000"
 4922      726F6C6C 
 4922      65725370 
 4922      65616B65 
ARM GAS  C:\Users\MARTHN~1\AppData\Local\Temp\ccHF3wZv.s 			page 104


 4922      72456E61 
 4923              	.LASF132:
 4924 01ed 464C425F 		.ascii	"FLB_Module5\000"
 4924      4D6F6475 
 4924      6C653500 
 4925              	.LASF133:
 4926 01f9 464C425F 		.ascii	"FLB_Module6\000"
 4926      4D6F6475 
 4926      6C653600 
 4927              	.LASF134:
 4928 0205 464C425F 		.ascii	"FLB_Module7\000"
 4928      4D6F6475 
 4928      6C653700 
 4929              	.LASF135:
 4930 0211 464C425F 		.ascii	"FLB_Module8\000"
 4930      4D6F6475 
 4930      6C653800 
 4931              	.LASF136:
 4932 021d 464C425F 		.ascii	"FLB_Module9\000"
 4932      4D6F6475 
 4932      6C653900 
 4933              	.LASF104:
 4934 0229 53746F70 		.ascii	"StopByte1_Siren\000"
 4934      42797465 
 4934      315F5369 
 4934      72656E00 
 4935              	.LASF188:
 4936 0239 4C533830 		.ascii	"LS800_Module1\000"
 4936      305F4D6F 
 4936      64756C65 
 4936      3100
 4937              	.LASF189:
 4938 0247 4C533830 		.ascii	"LS800_Module2\000"
 4938      305F4D6F 
 4938      64756C65 
 4938      3200
 4939              	.LASF190:
 4940 0255 4C533830 		.ascii	"LS800_Module3\000"
 4940      305F4D6F 
 4940      64756C65 
 4940      3300
 4941              	.LASF191:
 4942 0263 4C533830 		.ascii	"LS800_Module4\000"
 4942      305F4D6F 
 4942      64756C65 
 4942      3400
 4943              	.LASF192:
 4944 0271 4C533830 		.ascii	"LS800_Module5\000"
 4944      305F4D6F 
 4944      64756C65 
 4944      3500
 4945              	.LASF193:
 4946 027f 4C533830 		.ascii	"LS800_Module6\000"
 4946      305F4D6F 
 4946      64756C65 
 4946      3600
 4947              	.LASF194:
ARM GAS  C:\Users\MARTHN~1\AppData\Local\Temp\ccHF3wZv.s 			page 105


 4948 028d 4C533830 		.ascii	"LS800_Module7\000"
 4948      305F4D6F 
 4948      64756C65 
 4948      3700
 4949              	.LASF195:
 4950 029b 4C533830 		.ascii	"LS800_Module8\000"
 4950      305F4D6F 
 4950      64756C65 
 4950      3800
 4951              	.LASF196:
 4952 02a9 4C533830 		.ascii	"LS800_Module9\000"
 4952      305F4D6F 
 4952      64756C65 
 4952      3900
 4953              	.LASF106:
 4954 02b7 53746172 		.ascii	"StartByte1_Relay\000"
 4954      74427974 
 4954      65315F52 
 4954      656C6179 
 4954      00
 4955              	.LASF19:
 4956 02c8 426C6F63 		.ascii	"BlockCurrent_1\000"
 4956      6B437572 
 4956      72656E74 
 4956      5F3100
 4957              	.LASF20:
 4958 02d7 426C6F63 		.ascii	"BlockCurrent_2\000"
 4958      6B437572 
 4958      72656E74 
 4958      5F3200
 4959              	.LASF21:
 4960 02e6 426C6F63 		.ascii	"BlockCurrent_3\000"
 4960      6B437572 
 4960      72656E74 
 4960      5F3300
 4961              	.LASF22:
 4962 02f5 426C6F63 		.ascii	"BlockCurrent_4\000"
 4962      6B437572 
 4962      72656E74 
 4962      5F3400
 4963              	.LASF89:
 4964 0304 53637265 		.ascii	"ScreenBrightness\000"
 4964      656E4272 
 4964      69676874 
 4964      6E657373 
 4964      00
 4965              	.LASF301:
 4966 0315 70547850 		.ascii	"pTxPacket_Quad\000"
 4966      61636B65 
 4966      745F5175 
 4966      616400
 4967              	.LASF103:
 4968 0324 4475616C 		.ascii	"DualDelay\000"
 4968      44656C61 
 4968      7900
 4969              	.LASF251:
 4970 032e 494E4954 		.ascii	"INITIALIZE_TEST\000"
ARM GAS  C:\Users\MARTHN~1\AppData\Local\Temp\ccHF3wZv.s 			page 106


 4970      49414C49 
 4970      5A455F54 
 4970      45535400 
 4971              	.LASF75:
 4972 033e 4C45445F 		.ascii	"LED_04_R\000"
 4972      30345F52 
 4972      00
 4973              	.LASF179:
 4974 0347 4C533630 		.ascii	"LS600_Module2\000"
 4974      305F4D6F 
 4974      64756C65 
 4974      3200
 4975              	.LASF180:
 4976 0355 4C533630 		.ascii	"LS600_Module3\000"
 4976      305F4D6F 
 4976      64756C65 
 4976      3300
 4977              	.LASF181:
 4978 0363 4C533630 		.ascii	"LS600_Module4\000"
 4978      305F4D6F 
 4978      64756C65 
 4978      3400
 4979              	.LASF182:
 4980 0371 4C533630 		.ascii	"LS600_Module5\000"
 4980      305F4D6F 
 4980      64756C65 
 4980      3500
 4981              	.LASF4:
 4982 037f 6C6F6E67 		.ascii	"long int\000"
 4982      20696E74 
 4982      00
 4983              	.LASF184:
 4984 0388 4C533630 		.ascii	"LS600_Module7\000"
 4984      305F4D6F 
 4984      64756C65 
 4984      3700
 4985              	.LASF185:
 4986 0396 4C533630 		.ascii	"LS600_Module8\000"
 4986      305F4D6F 
 4986      64756C65 
 4986      3800
 4987              	.LASF186:
 4988 03a4 4C533630 		.ascii	"LS600_Module9\000"
 4988      305F4D6F 
 4988      64756C65 
 4988      3900
 4989              	.LASF94:
 4990 03b2 57697265 		.ascii	"WireActivation1\000"
 4990      41637469 
 4990      76617469 
 4990      6F6E3100 
 4991              	.LASF95:
 4992 03c2 57697265 		.ascii	"WireActivation2\000"
 4992      41637469 
 4992      76617469 
 4992      6F6E3200 
 4993              	.LASF96:
ARM GAS  C:\Users\MARTHN~1\AppData\Local\Temp\ccHF3wZv.s 			page 107


 4994 03d2 57697265 		.ascii	"WireActivation3\000"
 4994      41637469 
 4994      76617469 
 4994      6F6E3300 
 4995              	.LASF124:
 4996 03e2 72785061 		.ascii	"rxPacket_Siren\000"
 4996      636B6574 
 4996      5F536972 
 4996      656E00
 4997              	.LASF178:
 4998 03f1 534D5F5A 		.ascii	"SM_ZoneAddress\000"
 4998      6F6E6541 
 4998      64647265 
 4998      737300
 4999              	.LASF59:
 5000 0400 4C45445F 		.ascii	"LED_10_B\000"
 5000      31305F42 
 5000      00
 5001              	.LASF58:
 5002 0409 4C45445F 		.ascii	"LED_10_G\000"
 5002      31305F47 
 5002      00
 5003              	.LASF44:
 5004 0412 4C45445F 		.ascii	"LED_15_B\000"
 5004      31355F42 
 5004      00
 5005              	.LASF43:
 5006 041b 4C45445F 		.ascii	"LED_15_G\000"
 5006      31355F47 
 5006      00
 5007              	.LASF126:
 5008 0424 72784461 		.ascii	"rxData_Quad\000"
 5008      74615F51 
 5008      75616400 
 5009              	.LASF42:
 5010 0430 4C45445F 		.ascii	"LED_15_R\000"
 5010      31355F52 
 5010      00
 5011              	.LASF107:
 5012 0439 52656C61 		.ascii	"Relay_PacketType\000"
 5012      795F5061 
 5012      636B6574 
 5012      54797065 
 5012      00
 5013              	.LASF0:
 5014 044a 7369676E 		.ascii	"signed char\000"
 5014      65642063 
 5014      68617200 
 5015              	.LASF279:
 5016 0456 67657454 		.ascii	"getTxPacket_H\000"
 5016      78506163 
 5016      6B65745F 
 5016      4800
 5017              	.LASF304:
 5018 0464 52656C61 		.ascii	"RelayTestStatus\000"
 5018      79546573 
 5018      74537461 
ARM GAS  C:\Users\MARTHN~1\AppData\Local\Temp\ccHF3wZv.s 			page 108


 5018      74757300 
 5019              	.LASF207:
 5020 0474 52656172 		.ascii	"RearILB_Module10\000"
 5020      494C425F 
 5020      4D6F6475 
 5020      6C653130 
 5020      00
 5021              	.LASF122:
 5022 0485 5061636B 		.ascii	"Packet_H\000"
 5022      65745F48 
 5022      00
 5023              	.LASF295:
 5024 048e 70527850 		.ascii	"pRxPacket_Siren\000"
 5024      61636B65 
 5024      745F5369 
 5024      72656E00 
 5025              	.LASF33:
 5026 049e 63686563 		.ascii	"checkSum\000"
 5026      6B53756D 
 5026      00
 5027              	.LASF35:
 5028 04a7 5061796C 		.ascii	"Payload\000"
 5028      6F616400 
 5029              	.LASF276:
 5030 04af 74617267 		.ascii	"targetstring\000"
 5030      65747374 
 5030      72696E67 
 5030      00
 5031              	.LASF296:
 5032 04bc 74785061 		.ascii	"txPacket_H\000"
 5032      636B6574 
 5032      5F4800
 5033              	.LASF1:
 5034 04c7 756E7369 		.ascii	"unsigned char\000"
 5034      676E6564 
 5034      20636861 
 5034      7200
 5035              	.LASF100:
 5036 04d5 53697265 		.ascii	"Siren_PacketType\000"
 5036      6E5F5061 
 5036      636B6574 
 5036      54797065 
 5036      00
 5037              	.LASF249:
 5038 04e6 53544553 		.ascii	"STEST_RELAY\000"
 5038      545F5245 
 5038      4C415900 
 5039              	.LASF308:
 5040 04f2 433A5C55 		.ascii	"C:\\Users\\marthnick\\Desktop\\firm_F1-TestFixture\\"
 5040      73657273 
 5040      5C6D6172 
 5040      74686E69 
 5040      636B5C44 
 5041 0521 46312D54 		.ascii	"F1-TestFixture.cydsn\000"
 5041      65737446 
 5041      69787475 
 5041      72652E63 
ARM GAS  C:\Users\MARTHN~1\AppData\Local\Temp\ccHF3wZv.s 			page 109


 5041      7964736E 
 5042              	.LASF200:
 5043 0536 52656172 		.ascii	"RearILB_Module3\000"
 5043      494C425F 
 5043      4D6F6475 
 5043      6C653300 
 5044              	.LASF34:
 5045 0546 62797465 		.ascii	"bytes\000"
 5045      7300
 5046              	.LASF16:
 5047 054c 63686172 		.ascii	"char\000"
 5047      00
 5048              	.LASF108:
 5049 0551 4F757470 		.ascii	"Outputs_1to8\000"
 5049      7574735F 
 5049      31746F38 
 5049      00
 5050              	.LASF80:
 5051 055e 4C45445F 		.ascii	"LED_03_B\000"
 5051      30335F42 
 5051      00
 5052              	.LASF79:
 5053 0567 4C45445F 		.ascii	"LED_03_G\000"
 5053      30335F47 
 5053      00
 5054              	.LASF109:
 5055 0570 4F757470 		.ascii	"Outputs_9to16\000"
 5055      7574735F 
 5055      39746F31 
 5055      3600
 5056              	.LASF65:
 5057 057e 4C45445F 		.ascii	"LED_08_B\000"
 5057      30385F42 
 5057      00
 5058              	.LASF64:
 5059 0587 4C45445F 		.ascii	"LED_08_G\000"
 5059      30385F47 
 5059      00
 5060              	.LASF63:
 5061 0590 4C45445F 		.ascii	"LED_08_R\000"
 5061      30385F52 
 5061      00
 5062              	.LASF294:
 5063 0599 70547850 		.ascii	"pTxPacket_RelaySiren\000"
 5063      61636B65 
 5063      745F5265 
 5063      6C617953 
 5063      6972656E 
 5064              	.LASF257:
 5065 05ae 494E5055 		.ascii	"INPUTS\000"
 5065      545300
 5066              	.LASF99:
 5067 05b5 53746172 		.ascii	"StartByte1_Siren\000"
 5067      74427974 
 5067      65315F53 
 5067      6972656E 
 5067      00
ARM GAS  C:\Users\MARTHN~1\AppData\Local\Temp\ccHF3wZv.s 			page 110


 5068              	.LASF83:
 5069 05c6 4C45445F 		.ascii	"LED_02_B\000"
 5069      30325F42 
 5069      00
 5070              	.LASF24:
 5071 05cf 53706561 		.ascii	"Speaker1_Overcurrent\000"
 5071      6B657231 
 5071      5F4F7665 
 5071      72637572 
 5071      72656E74 
 5072              	.LASF81:
 5073 05e4 4C45445F 		.ascii	"LED_02_R\000"
 5073      30325F52 
 5073      00
 5074              	.LASF267:
 5075 05ed 52546573 		.ascii	"RTest_Test_DataLink\000"
 5075      745F5465 
 5075      73745F44 
 5075      6174614C 
 5075      696E6B00 
 5076              	.LASF263:
 5077 0601 4F757470 		.ascii	"OutputsState\000"
 5077      75747353 
 5077      74617465 
 5077      00
 5078              	.LASF273:
 5079 060e 426C6F63 		.ascii	"BlockCurrentPass\000"
 5079      6B437572 
 5079      72656E74 
 5079      50617373 
 5079      00
 5080              	.LASF98:
 5081 061f 53746F70 		.ascii	"StopByte2_FLB\000"
 5081      42797465 
 5081      325F464C 
 5081      4200
 5082              	.LASF137:
 5083 062d 464C425F 		.ascii	"FLB_Module10\000"
 5083      4D6F6475 
 5083      6C653130 
 5083      00
 5084              	.LASF138:
 5085 063a 464C425F 		.ascii	"FLB_Module11\000"
 5085      4D6F6475 
 5085      6C653131 
 5085      00
 5086              	.LASF139:
 5087 0647 464C425F 		.ascii	"FLB_Module12\000"
 5087      4D6F6475 
 5087      6C653132 
 5087      00
 5088              	.LASF140:
 5089 0654 464C425F 		.ascii	"FLB_Module13\000"
 5089      4D6F6475 
 5089      6C653133 
 5089      00
 5090              	.LASF141:
ARM GAS  C:\Users\MARTHN~1\AppData\Local\Temp\ccHF3wZv.s 			page 111


 5091 0661 464C425F 		.ascii	"FLB_Module14\000"
 5091      4D6F6475 
 5091      6C653134 
 5091      00
 5092              	.LASF142:
 5093 066e 464C425F 		.ascii	"FLB_Module15\000"
 5093      4D6F6475 
 5093      6C653135 
 5093      00
 5094              	.LASF143:
 5095 067b 464C425F 		.ascii	"FLB_Module16\000"
 5095      4D6F6475 
 5095      6C653136 
 5095      00
 5096              	.LASF144:
 5097 0688 464C425F 		.ascii	"FLB_Module17\000"
 5097      4D6F6475 
 5097      6C653137 
 5097      00
 5098              	.LASF145:
 5099 0695 464C425F 		.ascii	"FLB_Module18\000"
 5099      4D6F6475 
 5099      6C653138 
 5099      00
 5100              	.LASF146:
 5101 06a2 464C425F 		.ascii	"FLB_Module19\000"
 5101      4D6F6475 
 5101      6C653139 
 5101      00
 5102              	.LASF289:
 5103 06af 53657452 		.ascii	"SetRelayOutputs\000"
 5103      656C6179 
 5103      4F757470 
 5103      75747300 
 5104              	.LASF93:
 5105 06bf 464C425F 		.ascii	"FLB_PacketType\000"
 5105      5061636B 
 5105      65745479 
 5105      706500
 5106              	.LASF56:
 5107 06ce 4C45445F 		.ascii	"LED_11_B\000"
 5107      31315F42 
 5107      00
 5108              	.LASF105:
 5109 06d7 53746F70 		.ascii	"StopByte2_Siren\000"
 5109      42797465 
 5109      325F5369 
 5109      72656E00 
 5110              	.LASF55:
 5111 06e7 4C45445F 		.ascii	"LED_11_G\000"
 5111      31315F47 
 5111      00
 5112              	.LASF41:
 5113 06f0 4C45445F 		.ascii	"LED_16_B\000"
 5113      31365F42 
 5113      00
 5114              	.LASF40:
ARM GAS  C:\Users\MARTHN~1\AppData\Local\Temp\ccHF3wZv.s 			page 112


 5115 06f9 4C45445F 		.ascii	"LED_16_G\000"
 5115      31365F47 
 5115      00
 5116              	.LASF39:
 5117 0702 4C45445F 		.ascii	"LED_16_R\000"
 5117      31365F52 
 5117      00
 5118              	.LASF269:
 5119 070b 52546573 		.ascii	"RTest_Test_Inputs\000"
 5119      745F5465 
 5119      73745F49 
 5119      6E707574 
 5119      7300
 5120              	.LASF125:
 5121 071d 52785061 		.ascii	"RxPacket_Siren\000"
 5121      636B6574 
 5121      5F536972 
 5121      656E00
 5122              	.LASF148:
 5123 072c 464C425F 		.ascii	"FLB_Module21\000"
 5123      4D6F6475 
 5123      6C653231 
 5123      00
 5124              	.LASF149:
 5125 0739 464C425F 		.ascii	"FLB_Module22\000"
 5125      4D6F6475 
 5125      6C653232 
 5125      00
 5126              	.LASF150:
 5127 0746 464C425F 		.ascii	"FLB_Module23\000"
 5127      4D6F6475 
 5127      6C653233 
 5127      00
 5128              	.LASF151:
 5129 0753 464C425F 		.ascii	"FLB_Module24\000"
 5129      4D6F6475 
 5129      6C653234 
 5129      00
 5130              	.LASF152:
 5131 0760 464C425F 		.ascii	"FLB_Module25\000"
 5131      4D6F6475 
 5131      6C653235 
 5131      00
 5132              	.LASF153:
 5133 076d 464C425F 		.ascii	"FLB_Module26\000"
 5133      4D6F6475 
 5133      6C653236 
 5133      00
 5134              	.LASF154:
 5135 077a 464C425F 		.ascii	"FLB_Module27\000"
 5135      4D6F6475 
 5135      6C653237 
 5135      00
 5136              	.LASF155:
 5137 0787 464C425F 		.ascii	"FLB_Module28\000"
 5137      4D6F6475 
 5137      6C653238 
ARM GAS  C:\Users\MARTHN~1\AppData\Local\Temp\ccHF3wZv.s 			page 113


 5137      00
 5138              	.LASF156:
 5139 0794 464C425F 		.ascii	"FLB_Module29\000"
 5139      4D6F6475 
 5139      6C653239 
 5139      00
 5140              	.LASF208:
 5141 07a1 526F636B 		.ascii	"RockLeft_Module1\000"
 5141      4C656674 
 5141      5F4D6F64 
 5141      756C6531 
 5141      00
 5142              	.LASF209:
 5143 07b2 526F636B 		.ascii	"RockLeft_Module2\000"
 5143      4C656674 
 5143      5F4D6F64 
 5143      756C6532 
 5143      00
 5144              	.LASF210:
 5145 07c3 526F636B 		.ascii	"RockLeft_Module3\000"
 5145      4C656674 
 5145      5F4D6F64 
 5145      756C6533 
 5145      00
 5146              	.LASF211:
 5147 07d4 526F636B 		.ascii	"RockLeft_Module4\000"
 5147      4C656674 
 5147      5F4D6F64 
 5147      756C6534 
 5147      00
 5148              	.LASF212:
 5149 07e5 526F636B 		.ascii	"RockLeft_Module5\000"
 5149      4C656674 
 5149      5F4D6F64 
 5149      756C6535 
 5149      00
 5150              	.LASF213:
 5151 07f6 526F636B 		.ascii	"RockLeft_Module6\000"
 5151      4C656674 
 5151      5F4D6F64 
 5151      756C6536 
 5151      00
 5152              	.LASF214:
 5153 0807 526F636B 		.ascii	"RockLeft_Module7\000"
 5153      4C656674 
 5153      5F4D6F64 
 5153      756C6537 
 5153      00
 5154              	.LASF215:
 5155 0818 526F636B 		.ascii	"RockLeft_Module8\000"
 5155      4C656674 
 5155      5F4D6F64 
 5155      756C6538 
 5155      00
 5156              	.LASF216:
 5157 0829 526F636B 		.ascii	"RockLeft_Module9\000"
 5157      4C656674 
ARM GAS  C:\Users\MARTHN~1\AppData\Local\Temp\ccHF3wZv.s 			page 114


 5157      5F4D6F64 
 5157      756C6539 
 5157      00
 5158              	.LASF5:
 5159 083a 6C6F6E67 		.ascii	"long unsigned int\000"
 5159      20756E73 
 5159      69676E65 
 5159      6420696E 
 5159      7400
 5160              	.LASF264:
 5161 084c 6368616E 		.ascii	"channel\000"
 5161      6E656C00 
 5162              	.LASF157:
 5163 0854 464C425F 		.ascii	"FLB_Module30\000"
 5163      4D6F6475 
 5163      6C653330 
 5163      00
 5164              	.LASF102:
 5165 0861 53697265 		.ascii	"Siren2Tone\000"
 5165      6E32546F 
 5165      6E6500
 5166              	.LASF169:
 5167 086c 46726F6E 		.ascii	"FrontILB_Module2\000"
 5167      74494C42 
 5167      5F4D6F64 
 5167      756C6532 
 5167      00
 5168              	.LASF170:
 5169 087d 46726F6E 		.ascii	"FrontILB_Module3\000"
 5169      74494C42 
 5169      5F4D6F64 
 5169      756C6533 
 5169      00
 5170              	.LASF171:
 5171 088e 46726F6E 		.ascii	"FrontILB_Module4\000"
 5171      74494C42 
 5171      5F4D6F64 
 5171      756C6534 
 5171      00
 5172              	.LASF172:
 5173 089f 46726F6E 		.ascii	"FrontILB_Module5\000"
 5173      74494C42 
 5173      5F4D6F64 
 5173      756C6535 
 5173      00
 5174              	.LASF173:
 5175 08b0 46726F6E 		.ascii	"FrontILB_Module6\000"
 5175      74494C42 
 5175      5F4D6F64 
 5175      756C6536 
 5175      00
 5176              	.LASF174:
 5177 08c1 46726F6E 		.ascii	"FrontILB_Module7\000"
 5177      74494C42 
 5177      5F4D6F64 
 5177      756C6537 
 5177      00
ARM GAS  C:\Users\MARTHN~1\AppData\Local\Temp\ccHF3wZv.s 			page 115


 5178              	.LASF175:
 5179 08d2 46726F6E 		.ascii	"FrontILB_Module8\000"
 5179      74494C42 
 5179      5F4D6F64 
 5179      756C6538 
 5179      00
 5180              	.LASF176:
 5181 08e3 46726F6E 		.ascii	"FrontILB_Module9\000"
 5181      74494C42 
 5181      5F4D6F64 
 5181      756C6539 
 5181      00
 5182              	.LASF283:
 5183 08f4 43757272 		.ascii	"Current_Reading\000"
 5183      656E745F 
 5183      52656164 
 5183      696E6700 
 5184              	.LASF250:
 5185 0904 54657374 		.ascii	"TestStep\000"
 5185      53746570 
 5185      00
 5186              	.LASF306:
 5187 090d 474E5520 		.ascii	"GNU C11 5.4.1 20160609 (release) [ARM/embedded-5-br"
 5187      43313120 
 5187      352E342E 
 5187      31203230 
 5187      31363036 
 5188 0940 616E6368 		.ascii	"anch revision 237715] -mcpu=cortex-m3 -mthumb -g -O"
 5188      20726576 
 5188      6973696F 
 5188      6E203233 
 5188      37373135 
 5189 0973 30202D66 		.ascii	"0 -ffunction-sections -ffat-lto-objects\000"
 5189      66756E63 
 5189      74696F6E 
 5189      2D736563 
 5189      74696F6E 
 5190              	.LASF147:
 5191 099b 464C425F 		.ascii	"FLB_Module20\000"
 5191      4D6F6475 
 5191      6C653230 
 5191      00
 5192              	.LASF258:
 5193 09a8 56424154 		.ascii	"VBATT\000"
 5193      5400
 5194              	.LASF77:
 5195 09ae 4C45445F 		.ascii	"LED_04_B\000"
 5195      30345F42 
 5195      00
 5196              	.LASF76:
 5197 09b7 4C45445F 		.ascii	"LED_04_G\000"
 5197      30345F47 
 5197      00
 5198              	.LASF62:
 5199 09c0 4C45445F 		.ascii	"LED_09_B\000"
 5199      30395F42 
 5199      00
ARM GAS  C:\Users\MARTHN~1\AppData\Local\Temp\ccHF3wZv.s 			page 116


 5200              	.LASF61:
 5201 09c9 4C45445F 		.ascii	"LED_09_G\000"
 5201      30395F47 
 5201      00
 5202              	.LASF6:
 5203 09d2 6C6F6E67 		.ascii	"long long int\000"
 5203      206C6F6E 
 5203      6720696E 
 5203      7400
 5204              	.LASF60:
 5205 09e0 4C45445F 		.ascii	"LED_09_R\000"
 5205      30395F52 
 5205      00
 5206              	.LASF114:
 5207 09e9 53697265 		.ascii	"SirenEnable\000"
 5207      6E456E61 
 5207      626C6500 
 5208              	.LASF97:
 5209 09f5 53746F70 		.ascii	"StopByte1_FLB\000"
 5209      42797465 
 5209      315F464C 
 5209      4200
 5210              	.LASF291:
 5211 0a03 656E6162 		.ascii	"enable\000"
 5211      6C6500
 5212              	.LASF15:
 5213 0a0a 646F7562 		.ascii	"double\000"
 5213      6C6500
 5214              	.LASF270:
 5215 0a11 52546573 		.ascii	"RTest_Test_Vbatt\000"
 5215      745F5465 
 5215      73745F56 
 5215      62617474 
 5215      00
 5216              	.LASF183:
 5217 0a22 4C533630 		.ascii	"LS600_Module6\000"
 5217      305F4D6F 
 5217      64756C65 
 5217      3600
 5218              	.LASF309:
 5219 0a30 49544D5F 		.ascii	"ITM_RxBuffer\000"
 5219      52784275 
 5219      66666572 
 5219      00
 5220              	.LASF14:
 5221 0a3d 666C6F61 		.ascii	"float\000"
 5221      7400
 5222              	.LASF255:
 5223 0a43 51554144 		.ascii	"QUAD_PORTS\000"
 5223      5F504F52 
 5223      545300
 5224              	.LASF8:
 5225 0a4e 756E7369 		.ascii	"unsigned int\000"
 5225      676E6564 
 5225      20696E74 
 5225      00
 5226              	.LASF27:
ARM GAS  C:\Users\MARTHN~1\AppData\Local\Temp\ccHF3wZv.s 			page 117


 5227 0a5b 53697265 		.ascii	"SirenFirm_0\000"
 5227      6E466972 
 5227      6D5F3000 
 5228              	.LASF28:
 5229 0a67 53697265 		.ascii	"SirenFirm_1\000"
 5229      6E466972 
 5229      6D5F3100 
 5230              	.LASF29:
 5231 0a73 53697265 		.ascii	"SirenFirm_2\000"
 5231      6E466972 
 5231      6D5F3200 
 5232              	.LASF298:
 5233 0a7f 72785061 		.ascii	"rxPacket_H\000"
 5233      636B6574 
 5233      5F4800
 5234              	.LASF53:
 5235 0a8a 4C45445F 		.ascii	"LED_12_B\000"
 5235      31325F42 
 5235      00
 5236              	.LASF52:
 5237 0a93 4C45445F 		.ascii	"LED_12_G\000"
 5237      31325F47 
 5237      00
 5238              	.LASF163:
 5239 0a9c 4C533430 		.ascii	"LS400_Module6\000"
 5239      305F4D6F 
 5239      64756C65 
 5239      3600
 5240              	.LASF51:
 5241 0aaa 4C45445F 		.ascii	"LED_12_R\000"
 5241      31325F52 
 5241      00
 5242              	.LASF101:
 5243 0ab3 53697265 		.ascii	"Siren1Tone\000"
 5243      6E31546F 
 5243      6E6500
 5244              	.LASF91:
 5245 0abe 636F6E74 		.ascii	"controllerPowerState\000"
 5245      726F6C6C 
 5245      6572506F 
 5245      77657253 
 5245      74617465 
 5246              	.LASF305:
 5247 0ad3 54657374 		.ascii	"TestState\000"
 5247      53746174 
 5247      6500
 5248              	.LASF290:
 5249 0add 626C6F63 		.ascii	"block\000"
 5249      6B00
 5250              	.LASF23:
 5251 0ae3 566F6C74 		.ascii	"Voltage_BATT\000"
 5251      6167655F 
 5251      42415454 
 5251      00
 5252              	.LASF112:
 5253 0af0 48694C6F 		.ascii	"HiLoInputLogic\000"
 5253      496E7075 
ARM GAS  C:\Users\MARTHN~1\AppData\Local\Temp\ccHF3wZv.s 			page 118


 5253      744C6F67 
 5253      696300
 5254              	.LASF275:
 5255 0aff 52546573 		.ascii	"RTest_Test_GPS\000"
 5255      745F5465 
 5255      73745F47 
 5255      505300
 5256              	.LASF17:
 5257 0b0e 6C6F6E67 		.ascii	"long double\000"
 5257      20646F75 
 5257      626C6500 
 5258              	.LASF297:
 5259 0b1a 70547850 		.ascii	"pTxPacket_H\000"
 5259      61636B65 
 5259      745F4800 
 5260              	.LASF57:
 5261 0b26 4C45445F 		.ascii	"LED_10_R\000"
 5261      31305F52 
 5261      00
 5262              	.LASF238:
 5263 0b2f 72785061 		.ascii	"rxPacket_Quad\000"
 5263      636B6574 
 5263      5F517561 
 5263      6400
 5264              	.LASF158:
 5265 0b3d 534D5F5A 		.ascii	"SM_Zone1\000"
 5265      6F6E6531 
 5265      00
 5266              	.LASF159:
 5267 0b46 534D5F5A 		.ascii	"SM_Zone2\000"
 5267      6F6E6532 
 5267      00
 5268              	.LASF160:
 5269 0b4f 534D5F5A 		.ascii	"SM_Zone3\000"
 5269      6F6E6533 
 5269      00
 5270              	.LASF165:
 5271 0b58 534D5F5A 		.ascii	"SM_Zone4\000"
 5271      6F6E6534 
 5271      00
 5272              	.LASF166:
 5273 0b61 534D5F5A 		.ascii	"SM_Zone5\000"
 5273      6F6E6535 
 5273      00
 5274              	.LASF167:
 5275 0b6a 534D5F5A 		.ascii	"SM_Zone6\000"
 5275      6F6E6536 
 5275      00
 5276              	.LASF168:
 5277 0b73 534D5F5A 		.ascii	"SM_Zone7\000"
 5277      6F6E6537 
 5277      00
 5278              	.LASF177:
 5279 0b7c 534D5F5A 		.ascii	"SM_Zone8\000"
 5279      6F6E6538 
 5279      00
 5280              	.LASF74:
ARM GAS  C:\Users\MARTHN~1\AppData\Local\Temp\ccHF3wZv.s 			page 119


 5281 0b85 4C45445F 		.ascii	"LED_05_B\000"
 5281      30355F42 
 5281      00
 5282              	.LASF73:
 5283 0b8e 4C45445F 		.ascii	"LED_05_G\000"
 5283      30355F47 
 5283      00
 5284              	.LASF118:
 5285 0b97 74785061 		.ascii	"txPacket_RelaySiren\000"
 5285      636B6574 
 5285      5F52656C 
 5285      61795369 
 5285      72656E00 
 5286              	.LASF7:
 5287 0bab 6C6F6E67 		.ascii	"long long unsigned int\000"
 5287      206C6F6E 
 5287      6720756E 
 5287      7369676E 
 5287      65642069 
 5288              	.LASF72:
 5289 0bc2 4C45445F 		.ascii	"LED_05_R\000"
 5289      30355F52 
 5289      00
 5290              	.LASF252:
 5291 0bcb 53495245 		.ascii	"SIREN_EN\000"
 5291      4E5F454E 
 5291      00
 5292              	.LASF26:
 5293 0bd4 52656C61 		.ascii	"RelayInputs\000"
 5293      79496E70 
 5293      75747300 
 5294              	.LASF240:
 5295 0be0 43544553 		.ascii	"CTEST_QUAD\000"
 5295      545F5155 
 5295      414400
 5296              	.LASF272:
 5297 0beb 52546573 		.ascii	"RTest_Test_BlockCurrents\000"
 5297      745F5465 
 5297      73745F42 
 5297      6C6F636B 
 5297      43757272 
 5298              	.LASF218:
 5299 0c04 526F636B 		.ascii	"RockRight_Module1\000"
 5299      52696768 
 5299      745F4D6F 
 5299      64756C65 
 5299      3100
 5300              	.LASF219:
 5301 0c16 526F636B 		.ascii	"RockRight_Module2\000"
 5301      52696768 
 5301      745F4D6F 
 5301      64756C65 
 5301      3200
 5302              	.LASF220:
 5303 0c28 526F636B 		.ascii	"RockRight_Module3\000"
 5303      52696768 
 5303      745F4D6F 
ARM GAS  C:\Users\MARTHN~1\AppData\Local\Temp\ccHF3wZv.s 			page 120


 5303      64756C65 
 5303      3300
 5304              	.LASF221:
 5305 0c3a 526F636B 		.ascii	"RockRight_Module4\000"
 5305      52696768 
 5305      745F4D6F 
 5305      64756C65 
 5305      3400
 5306              	.LASF222:
 5307 0c4c 526F636B 		.ascii	"RockRight_Module5\000"
 5307      52696768 
 5307      745F4D6F 
 5307      64756C65 
 5307      3500
 5308              	.LASF223:
 5309 0c5e 526F636B 		.ascii	"RockRight_Module6\000"
 5309      52696768 
 5309      745F4D6F 
 5309      64756C65 
 5309      3600
 5310              	.LASF224:
 5311 0c70 526F636B 		.ascii	"RockRight_Module7\000"
 5311      52696768 
 5311      745F4D6F 
 5311      64756C65 
 5311      3700
 5312              	.LASF225:
 5313 0c82 526F636B 		.ascii	"RockRight_Module8\000"
 5313      52696768 
 5313      745F4D6F 
 5313      64756C65 
 5313      3800
 5314              	.LASF226:
 5315 0c94 526F636B 		.ascii	"RockRight_Module9\000"
 5315      52696768 
 5315      745F4D6F 
 5315      64756C65 
 5315      3900
 5316              	.LASF274:
 5317 0ca6 426C6F63 		.ascii	"BlockCurrentValue\000"
 5317      6B437572 
 5317      72656E74 
 5317      56616C75 
 5317      6500
 5318              	.LASF78:
 5319 0cb8 4C45445F 		.ascii	"LED_03_R\000"
 5319      30335F52 
 5319      00
 5320              	.LASF127:
 5321 0cc1 53697A65 		.ascii	"SizeOfPayload\000"
 5321      4F665061 
 5321      796C6F61 
 5321      6400
 5322              	.LASF239:
 5323 0ccf 52785061 		.ascii	"RxPacket_Quad\000"
 5323      636B6574 
 5323      5F517561 
ARM GAS  C:\Users\MARTHN~1\AppData\Local\Temp\ccHF3wZv.s 			page 121


 5323      6400
 5324              	.LASF119:
 5325 0cdd 54785061 		.ascii	"TxPacket_RelaySiren\000"
 5325      636B6574 
 5325      5F52656C 
 5325      61795369 
 5325      72656E00 
 5326              	.LASF25:
 5327 0cf1 53706561 		.ascii	"Speaker2_Overcurrent\000"
 5327      6B657232 
 5327      5F4F7665 
 5327      72637572 
 5327      72656E74 
 5328              	.LASF282:
 5329 0d06 52546573 		.ascii	"RTest_BlockCurrent\000"
 5329      745F426C 
 5329      6F636B43 
 5329      75727265 
 5329      6E7400
 5330              	.LASF197:
 5331 0d19 4C533830 		.ascii	"LS800_Module10\000"
 5331      305F4D6F 
 5331      64756C65 
 5331      313000
 5332              	.LASF278:
 5333 0d28 67657454 		.ascii	"getTxPacket_RelaySiren\000"
 5333      78506163 
 5333      6B65745F 
 5333      52656C61 
 5333      79536972 
 5334              	.LASF117:
 5335 0d3f 72785061 		.ascii	"rxPacket_RelaySiren\000"
 5335      636B6574 
 5335      5F52656C 
 5335      61795369 
 5335      72656E00 
 5336              	.LASF50:
 5337 0d53 4C45445F 		.ascii	"LED_13_B\000"
 5337      31335F42 
 5337      00
 5338              	.LASF49:
 5339 0d5c 4C45445F 		.ascii	"LED_13_G\000"
 5339      31335F47 
 5339      00
 5340              	.LASF198:
 5341 0d65 52656172 		.ascii	"RearILB_Module1\000"
 5341      494C425F 
 5341      4D6F6475 
 5341      6C653100 
 5342              	.LASF199:
 5343 0d75 52656172 		.ascii	"RearILB_Module2\000"
 5343      494C425F 
 5343      4D6F6475 
 5343      6C653200 
 5344              	.LASF48:
 5345 0d85 4C45445F 		.ascii	"LED_13_R\000"
 5345      31335F52 
ARM GAS  C:\Users\MARTHN~1\AppData\Local\Temp\ccHF3wZv.s 			page 122


 5345      00
 5346              	.LASF201:
 5347 0d8e 52656172 		.ascii	"RearILB_Module4\000"
 5347      494C425F 
 5347      4D6F6475 
 5347      6C653400 
 5348              	.LASF202:
 5349 0d9e 52656172 		.ascii	"RearILB_Module5\000"
 5349      494C425F 
 5349      4D6F6475 
 5349      6C653500 
 5350              	.LASF203:
 5351 0dae 52656172 		.ascii	"RearILB_Module6\000"
 5351      494C425F 
 5351      4D6F6475 
 5351      6C653600 
 5352              	.LASF204:
 5353 0dbe 52656172 		.ascii	"RearILB_Module7\000"
 5353      494C425F 
 5353      4D6F6475 
 5353      6C653700 
 5354              	.LASF205:
 5355 0dce 52656172 		.ascii	"RearILB_Module8\000"
 5355      494C425F 
 5355      4D6F6475 
 5355      6C653800 
 5356              	.LASF206:
 5357 0dde 52656172 		.ascii	"RearILB_Module9\000"
 5357      494C425F 
 5357      4D6F6475 
 5357      6C653900 
 5358              	.LASF110:
 5359 0dee 4F757470 		.ascii	"Outputs_17to24\000"
 5359      7574735F 
 5359      3137746F 
 5359      323400
 5360              	.LASF11:
 5361 0dfd 75696E74 		.ascii	"uint8\000"
 5361      3800
 5362              	.LASF254:
 5363 0e03 44415441 		.ascii	"DATALINK\000"
 5363      4C494E4B 
 5363      00
 5364              	.LASF37:
 5365 0e0c 72784461 		.ascii	"rxData_RelaySiren\000"
 5365      74615F52 
 5365      656C6179 
 5365      53697265 
 5365      6E00
 5366              	.LASF131:
 5367 0e1e 464C425F 		.ascii	"FLB_Module4\000"
 5367      4D6F6475 
 5367      6C653400 
 5368              	.LASF266:
 5369 0e2a 6D757863 		.ascii	"muxchannel\000"
 5369      68616E6E 
 5369      656C00
ARM GAS  C:\Users\MARTHN~1\AppData\Local\Temp\ccHF3wZv.s 			page 123


 5370              	.LASF2:
 5371 0e35 73686F72 		.ascii	"short int\000"
 5371      7420696E 
 5371      7400
 5372              	.LASF302:
 5373 0e3f 52546573 		.ascii	"RTest_20ms_isr_count\000"
 5373      745F3230 
 5373      6D735F69 
 5373      73725F63 
 5373      6F756E74 
 5374              	.LASF268:
 5375 0e54 52546573 		.ascii	"RTest_Test_UART_Siren\000"
 5375      745F5465 
 5375      73745F55 
 5375      4152545F 
 5375      53697265 
 5376              	.LASF247:
 5377 0e6a 52544553 		.ascii	"RTEST_CONT\000"
 5377      545F434F 
 5377      4E5400
 5378              	.LASF36:
 5379 0e75 52785061 		.ascii	"RxPacket_RelaySiren\000"
 5379      636B6574 
 5379      5F52656C 
 5379      61795369 
 5379      72656E00 
 5380              	.LASF300:
 5381 0e89 74785061 		.ascii	"txPacket_Quad\000"
 5381      636B6574 
 5381      5F517561 
 5381      6400
 5382              	.LASF288:
 5383 0e97 52546573 		.ascii	"RTest_sendDiagPacket\000"
 5383      745F7365 
 5383      6E644469 
 5383      61675061 
 5383      636B6574 
 5384              	.LASF287:
 5385 0eac 52546573 		.ascii	"RTest_50ms_isr\000"
 5385      745F3530 
 5385      6D735F69 
 5385      737200
 5386              	.LASF307:
 5387 0ebb 52656C61 		.ascii	"RelayTest.c\000"
 5387      79546573 
 5387      742E6300 
 5388              	.LASF243:
 5389 0ec7 51544553 		.ascii	"QTEST_QUAD\000"
 5389      545F5155 
 5389      414400
 5390              	.LASF262:
 5391 0ed2 52546573 		.ascii	"RTest_Test_Outputs\000"
 5391      745F5465 
 5391      73745F4F 
 5391      75747075 
 5391      747300
 5392              	.LASF161:
ARM GAS  C:\Users\MARTHN~1\AppData\Local\Temp\ccHF3wZv.s 			page 124


 5393 0ee5 4C533430 		.ascii	"LS400_Module4\000"
 5393      305F4D6F 
 5393      64756C65 
 5393      3400
 5394              	.LASF162:
 5395 0ef3 4C533430 		.ascii	"LS400_Module5\000"
 5395      305F4D6F 
 5395      64756C65 
 5395      3500
 5396              	.LASF121:
 5397 0f01 7061636B 		.ascii	"packet_H\000"
 5397      65745F48 
 5397      00
 5398              	.LASF164:
 5399 0f0a 4C533430 		.ascii	"LS400_Module7\000"
 5399      305F4D6F 
 5399      64756C65 
 5399      3700
 5400              	.LASF277:
 5401 0f18 67657452 		.ascii	"getRxPacket_Relay\000"
 5401      78506163 
 5401      6B65745F 
 5401      52656C61 
 5401      7900
 5402              	.LASF86:
 5403 0f2a 4C45445F 		.ascii	"LED_01_B\000"
 5403      30315F42 
 5403      00
 5404              	.LASF85:
 5405 0f33 4C45445F 		.ascii	"LED_01_G\000"
 5405      30315F47 
 5405      00
 5406              	.LASF71:
 5407 0f3c 4C45445F 		.ascii	"LED_06_B\000"
 5407      30365F42 
 5407      00
 5408              	.LASF70:
 5409 0f45 4C45445F 		.ascii	"LED_06_G\000"
 5409      30365F47 
 5409      00
 5410              	.LASF280:
 5411 0f4e 67657452 		.ascii	"getRxPacket_H\000"
 5411      78506163 
 5411      6B65745F 
 5411      4800
 5412              	.LASF69:
 5413 0f5c 4C45445F 		.ascii	"LED_06_R\000"
 5413      30365F52 
 5413      00
 5414              	.LASF38:
 5415 0f65 74784461 		.ascii	"txData\000"
 5415      746100
 5416              	.LASF261:
 5417 0f6c 52656C61 		.ascii	"RelayTest\000"
 5417      79546573 
 5417      7400
 5418              	.LASF246:
ARM GAS  C:\Users\MARTHN~1\AppData\Local\Temp\ccHF3wZv.s 			page 125


 5419 0f76 43544553 		.ascii	"CTEST_RELAY\000"
 5419      545F5245 
 5419      4C415900 
 5420              	.LASF187:
 5421 0f82 4C533630 		.ascii	"LS600_Module10\000"
 5421      305F4D6F 
 5421      64756C65 
 5421      313000
 5422              	.LASF115:
 5423 0f91 53746F70 		.ascii	"StopByte1_Relay\000"
 5423      42797465 
 5423      315F5265 
 5423      6C617900 
 5424              	.LASF217:
 5425 0fa1 526F636B 		.ascii	"RockLeft_Module10\000"
 5425      4C656674 
 5425      5F4D6F64 
 5425      756C6531 
 5425      3000
 5426              	.LASF303:
 5427 0fb3 52546573 		.ascii	"RTest_20ms_isr_EN\000"
 5427      745F3230 
 5427      6D735F69 
 5427      73725F45 
 5427      4E00
 5428              	.LASF227:
 5429 0fc5 526F636B 		.ascii	"RockRight_Module10\000"
 5429      52696768 
 5429      745F4D6F 
 5429      64756C65 
 5429      313000
 5430              	.LASF84:
 5431 0fd8 4C45445F 		.ascii	"LED_01_R\000"
 5431      30315F52 
 5431      00
 5432              	.LASF286:
 5433 0fe1 52546573 		.ascii	"RTest_20ms_isr\000"
 5433      745F3230 
 5433      6D735F69 
 5433      737200
 5434              	.LASF3:
 5435 0ff0 73686F72 		.ascii	"short unsigned int\000"
 5435      7420756E 
 5435      7369676E 
 5435      65642069 
 5435      6E7400
 5436              	.LASF242:
 5437 1003 43544553 		.ascii	"CTEST_AUDIO\000"
 5437      545F4155 
 5437      44494F00 
 5438              	.LASF260:
 5439 100f 4641494C 		.ascii	"FAIL\000"
 5439      00
 5440              	.LASF9:
 5441 1014 5F5F696E 		.ascii	"__int32_t\000"
 5441      7433325F 
 5441      7400
ARM GAS  C:\Users\MARTHN~1\AppData\Local\Temp\ccHF3wZv.s 			page 126


 5442              	.LASF116:
 5443 101e 53746F70 		.ascii	"StopByte2_Relay\000"
 5443      42797465 
 5443      325F5265 
 5443      6C617900 
 5444              	.LASF245:
 5445 102e 4D55585F 		.ascii	"MUX_DEMUX_230400_CHANNEL\000"
 5445      44454D55 
 5445      585F3233 
 5445      30343030 
 5445      5F434841 
 5446              	.LASF292:
 5447 1047 72785061 		.ascii	"rxPacket_Relay\000"
 5447      636B6574 
 5447      5F52656C 
 5447      617900
 5448              	.LASF285:
 5449 1056 52546573 		.ascii	"RTest_10ms_isr\000"
 5449      745F3130 
 5449      6D735F69 
 5449      737200
 5450              	.LASF92:
 5451 1065 53746172 		.ascii	"StartByte_FLB\000"
 5451      74427974 
 5451      655F464C 
 5451      4200
 5452              	.LASF30:
 5453 1073 52656C61 		.ascii	"RelayFirm_0\000"
 5453      79466972 
 5453      6D5F3000 
 5454              	.LASF31:
 5455 107f 52656C61 		.ascii	"RelayFirm_1\000"
 5455      79466972 
 5455      6D5F3100 
 5456              	.LASF32:
 5457 108b 52656C61 		.ascii	"RelayFirm_2\000"
 5457      79466972 
 5457      6D5F3200 
 5458              	.LASF123:
 5459 1097 72784461 		.ascii	"rxData_Siren\000"
 5459      74615F53 
 5459      6972656E 
 5459      00
 5460              	.LASF12:
 5461 10a4 75696E74 		.ascii	"uint16\000"
 5461      313600
 5462              	.LASF47:
 5463 10ab 4C45445F 		.ascii	"LED_14_B\000"
 5463      31345F42 
 5463      00
 5464              	.LASF46:
 5465 10b4 4C45445F 		.ascii	"LED_14_G\000"
 5465      31345F47 
 5465      00
 5466              	.LASF45:
 5467 10bd 4C45445F 		.ascii	"LED_14_R\000"
 5467      31345F52 
ARM GAS  C:\Users\MARTHN~1\AppData\Local\Temp\ccHF3wZv.s 			page 127


 5467      00
 5468              	.LASF256:
 5469 10c6 55415254 		.ascii	"UART_SIREN\000"
 5469      5F534952 
 5469      454E00
 5470              	.LASF87:
 5471 10d1 42757A7A 		.ascii	"Buzzer_H\000"
 5471      65725F48 
 5471      00
 5472              		.ident	"GCC: (GNU Tools for ARM Embedded Processors) 5.4.1 20160609 (release) [ARM/embedded-5-bran
