ARM GAS  C:\Users\MARTHN~1\AppData\Local\Temp\cc3bmeFF.s 			page 1


   1              		.syntax unified
   2              		.cpu cortex-m3
   3              		.fpu softvfp
   4              		.eabi_attribute 20, 1
   5              		.eabi_attribute 21, 1
   6              		.eabi_attribute 23, 3
   7              		.eabi_attribute 24, 1
   8              		.eabi_attribute 25, 1
   9              		.eabi_attribute 26, 1
  10              		.eabi_attribute 30, 6
  11              		.eabi_attribute 34, 1
  12              		.eabi_attribute 18, 4
  13              		.thumb
  14              		.syntax unified
  15              		.file	"RelayTest.c"
  16              		.text
  17              	.Ltext0:
  18              		.cfi_sections	.debug_frame
  19              		.bss
  20              		.align	2
  21              	rxPacket_Relay:
  22 0000 00000000 		.space	15
  22      00000000 
  22      00000000 
  22      000000
  23 000f 00       		.align	2
  24              	pRxPacket_Relay:
  25 0010 00000000 		.space	4
  26              		.align	2
  27              	txPacket_RelaySiren:
  28 0014 00000000 		.space	79
  28      00000000 
  28      00000000 
  28      00000000 
  28      00000000 
  29 0063 00       		.align	2
  30              	pTxPacket_RelaySiren:
  31 0064 00000000 		.space	4
  32              		.align	2
  33              	txPacket_H:
  34 0068 00000000 		.space	5
  34      00
  35 006d 000000   		.align	2
  36              	pTxPacket_H:
  37 0070 00000000 		.space	4
  38              		.align	2
  39              	rxPacket_H:
  40 0074 00000000 		.space	5
  40      00
  41 0079 000000   		.align	2
  42              	pRxPacket_H:
  43 007c 00000000 		.space	4
  44              		.align	2
  45              	txPacket_Quad:
  46 0080 00000000 		.space	111
  46      00000000 
  46      00000000 
ARM GAS  C:\Users\MARTHN~1\AppData\Local\Temp\cc3bmeFF.s 			page 2


  46      00000000 
  46      00000000 
  47 00ef 00       		.align	2
  48              	pTxPacket_Quad:
  49 00f0 00000000 		.space	4
  50              		.align	1
  51              	RTest_20ms_isr_count:
  52 00f4 0000     		.space	2
  53              		.align	1
  54              	RTest_20ms_isr_EN:
  55 00f6 0000     		.space	2
  56              		.align	2
  57              	RelayTestStatus:
  58 00f8 00000000 		.space	10
  58      00000000 
  58      0000
  59              	TestState:
  60 0102 00       		.space	1
  61              		.section	.text.RelayTest,"ax",%progbits
  62              		.align	2
  63              		.global	RelayTest
  64              		.thumb
  65              		.thumb_func
  66              		.type	RelayTest, %function
  67              	RelayTest:
  68              	.LFB63:
  69              		.file 1 "RelayTest.c"
   1:RelayTest.c   **** /* ========================================
   2:RelayTest.c   ****  *
   3:RelayTest.c   ****  * Copyright YOUR COMPANY, THE YEAR
   4:RelayTest.c   ****  * All Rights Reserved
   5:RelayTest.c   ****  * UNPUBLISHED, LICENSED SOFTWARE.
   6:RelayTest.c   ****  *
   7:RelayTest.c   ****  * CONFIDENTIAL AND PROPRIETARY INFORMATION
   8:RelayTest.c   ****  * WHICH IS THE PROPERTY OF your company.
   9:RelayTest.c   ****  *
  10:RelayTest.c   ****  * ========================================
  11:RelayTest.c   **** */
  12:RelayTest.c   **** 
  13:RelayTest.c   **** #include <project.h>
  14:RelayTest.c   **** #include "RelayTest.h"
  15:RelayTest.c   **** #include "UART_115200_Functions.h"
  16:RelayTest.c   **** #include "UART_230400_Functions.h"
  17:RelayTest.c   **** #include "UART_460800_Functions.h"
  18:RelayTest.c   **** #include "CD4051BPW_Driver.h"
  19:RelayTest.c   **** 
  20:RelayTest.c   **** #define NUMBER_TEST_STEPS   10
  21:RelayTest.c   **** 
  22:RelayTest.c   **** #define VOLTAGE_SYSTEM      120             // (Voltage * 10)
  23:RelayTest.c   **** #define TOLERANCE_VOLTAGE   5  
  24:RelayTest.c   **** #define CURRENT_LOAD        9              // (ohms)
  25:RelayTest.c   **** #define TOLERANCE_CURRENT   2 
  26:RelayTest.c   **** #define TIMEOUT_FAIL        50              // Number of 20msec counts before failure timeout
  27:RelayTest.c   **** 
  28:RelayTest.c   **** static RxPacket_RelaySiren rxPacket_Relay;            // Inputs - 'D' relay to controller
  29:RelayTest.c   **** static RxPacket_RelaySiren * pRxPacket_Relay;           // UART_SIREN     
  30:RelayTest.c   **** 
ARM GAS  C:\Users\MARTHN~1\AppData\Local\Temp\cc3bmeFF.s 			page 3


  31:RelayTest.c   **** //static RxPacket_RelaySiren rxPacket_RelaySiren;            
  32:RelayTest.c   **** //static RxPacket_RelaySiren * pRxPacket_RelaySiren;
  33:RelayTest.c   **** 
  34:RelayTest.c   **** static TxPacket_RelaySiren txPacket_RelaySiren;         // SetRelayOutputs - 'I' (also 3,S,P) contr
  35:RelayTest.c   **** static TxPacket_RelaySiren * pTxPacket_RelaySiren;      // 
  36:RelayTest.c   **** 
  37:RelayTest.c   **** //static TxPacket_Relay txPacket_Relay;            
  38:RelayTest.c   **** //static TxPacket_Relay * pTxPacket_Relay;
  39:RelayTest.c   **** 
  40:RelayTest.c   **** //static RxPacket_Siren rxPacket_Siren;             // 'S' relay to siren
  41:RelayTest.c   **** //static RxPacket_Siren * pRxPacket_Siren;  
  42:RelayTest.c   **** 
  43:RelayTest.c   **** static Packet_H txPacket_H;          //     Packet 'H'
  44:RelayTest.c   **** static Packet_H * pTxPacket_H;      //
  45:RelayTest.c   **** 
  46:RelayTest.c   **** static Packet_H rxPacket_H;          //     Packet 'H'
  47:RelayTest.c   **** static Packet_H * pRxPacket_H;      //
  48:RelayTest.c   **** 
  49:RelayTest.c   **** static RxPacket_Quad txPacket_Quad;          //*** 
  50:RelayTest.c   **** static RxPacket_Quad * pTxPacket_Quad;      //***
  51:RelayTest.c   **** //RxPacket_Quad * getRxPacket_Quad(void);
  52:RelayTest.c   **** 
  53:RelayTest.c   **** //------------GLOABAL variables--------------------
  54:RelayTest.c   **** 
  55:RelayTest.c   **** //extern uint16 _100ms_flag;
  56:RelayTest.c   **** //uint16 _100ms_flag = 0;
  57:RelayTest.c   **** //uint16 isr_count;
  58:RelayTest.c   **** 
  59:RelayTest.c   **** static uint16 RTest_20ms_isr_count = 0;
  60:RelayTest.c   **** static uint16 RTest_20ms_isr_EN = 0;
  61:RelayTest.c   **** 
  62:RelayTest.c   **** void StartTimeout(void);
  63:RelayTest.c   **** void StopTimeout(void);
  64:RelayTest.c   **** 
  65:RelayTest.c   **** enum MUX_460800_CHANNEL
  66:RelayTest.c   **** { 
  67:RelayTest.c   ****     CTEST_QUAD,             // This is for both cont and relay tests
  68:RelayTest.c   ****     CTEST_QUADSERIAL,       // This is for both cont and relay tests
  69:RelayTest.c   ****     CTEST_AUDIO,
  70:RelayTest.c   ****     QTEST_QUAD              //***Not for F1 - detects Quad-Controller packets (type 'C')
  71:RelayTest.c   **** };
  72:RelayTest.c   **** enum DEMUX_460800_CHANNEL
  73:RelayTest.c   **** { 
  74:RelayTest.c   ****     CTEST_OBDII_TX,         // 
  75:RelayTest.c   ****     RTEST_QUAD_TX,          // 
  76:RelayTest.c   ****     STEST_AUDIO_TX,
  77:RelayTest.c   **** };
  78:RelayTest.c   **** 
  79:RelayTest.c   **** enum MUX_DEMUX_230400_CHANNEL              
  80:RelayTest.c   **** { 
  81:RelayTest.c   ****     CTEST_RELAY, 
  82:RelayTest.c   ****     RTEST_CONT,
  83:RelayTest.c   ****     RTEST_SIREN,
  84:RelayTest.c   ****     STEST_RELAY            
  85:RelayTest.c   **** };
  86:RelayTest.c   **** 
  87:RelayTest.c   **** enum MUX_115200_CHANNEL      
ARM GAS  C:\Users\MARTHN~1\AppData\Local\Temp\cc3bmeFF.s 			page 4


  88:RelayTest.c   **** { 
  89:RelayTest.c   ****     RTEST_DLINK1,    
  90:RelayTest.c   ****     RTEST_DLINK2,    
  91:RelayTest.c   ****     CTEST_USB_DEBUG,
  92:RelayTest.c   ****     DIAG_UART_RX        
  93:RelayTest.c   **** };
  94:RelayTest.c   **** 
  95:RelayTest.c   **** // --------------Test steps---------------
  96:RelayTest.c   **** enum TestStep               // *** Need to get muxes setup permanently, 
  97:RelayTest.c   **** { 
  98:RelayTest.c   ****     INITIALIZE_TEST, 
  99:RelayTest.c   ****     SIREN_EN,               // (Implemented - need hardware to test)
 100:RelayTest.c   ****     TEST_OUTPUTS,           // ---------------------- 230400 TX TESTED      - (needs hardware)
 101:RelayTest.c   ****     DATALINK,               // (***115200 rx tested)
 102:RelayTest.c   ****     QUAD_PORTS,             // (460800 rx_tested, with 'C' packet, need to test for 'Y' and 'L') - 
 103:RelayTest.c   ****     UART_SIREN,             // 230400 RX_TESTED     - 230400 TX TESTED      - 
 104:RelayTest.c   ****     INPUTS,                 // 230400 RX_TESTED     - 230400 TX TESTED      - (needs hardware)
 105:RelayTest.c   ****     VBATT,                  // 230400 RX_TESTED                             - COMPLETE
 106:RelayTest.c   ****     BLOCK_CURRENTS,         // 230400 RX_TESTED     - 230400 TX TESTED      - COMPLETE
 107:RelayTest.c   ****     GPS,                    // (230400 rx tested)
 108:RelayTest.c   ****     FAIL
 109:RelayTest.c   **** };
 110:RelayTest.c   **** 
 111:RelayTest.c   **** static uint8 RelayTestStatus[NUMBER_TEST_STEPS];
 112:RelayTest.c   **** 
 113:RelayTest.c   **** static uint8 TestState = INITIALIZE_TEST;
 114:RelayTest.c   **** 
 115:RelayTest.c   **** //----------------------------------------
 116:RelayTest.c   **** // Main state machine for F1-Relay Test
 117:RelayTest.c   **** //----------------------------------------
 118:RelayTest.c   **** uint8 RelayTest(void)
 119:RelayTest.c   **** {
  70              		.loc 1 119 0
  71              		.cfi_startproc
  72              		@ args = 0, pretend = 0, frame = 8
  73              		@ frame_needed = 1, uses_anonymous_args = 0
  74 0000 80B5     		push	{r7, lr}
  75              		.cfi_def_cfa_offset 8
  76              		.cfi_offset 7, -8
  77              		.cfi_offset 14, -4
  78 0002 82B0     		sub	sp, sp, #8
  79              		.cfi_def_cfa_offset 16
  80 0004 00AF     		add	r7, sp, #0
  81              		.cfi_def_cfa_register 7
 120:RelayTest.c   ****     //TestState = VBATT;                  //*** Comment this out
 121:RelayTest.c   ****     
 122:RelayTest.c   ****     switch(TestState)
  82              		.loc 1 122 0
  83 0006 AB4B     		ldr	r3, .L45
  84 0008 1B78     		ldrb	r3, [r3]	@ zero_extendqisi2
  85 000a 0A2B     		cmp	r3, #10
  86 000c 00F21A82 		bhi	.L2
  87 0010 01A2     		adr	r2, .L4
  88 0012 52F823F0 		ldr	pc, [r2, r3, lsl #2]
  89 0016 00BF     		.p2align 2
  90              	.L4:
  91 0018 45000000 		.word	.L3+1
ARM GAS  C:\Users\MARTHN~1\AppData\Local\Temp\cc3bmeFF.s 			page 5


  92 001c 01010000 		.word	.L5+1
  93 0020 41010000 		.word	.L6+1
  94 0024 A7010000 		.word	.L7+1
  95 0028 01020000 		.word	.L8+1
  96 002c 5B020000 		.word	.L9+1
  97 0030 C9020000 		.word	.L10+1
  98 0034 23030000 		.word	.L11+1
  99 0038 7D030000 		.word	.L12+1
 100 003c E3030000 		.word	.L13+1
 101 0040 45040000 		.word	.L2+1
 102              		.p2align 1
 103              	.L3:
 104              	.LBB2:
 123:RelayTest.c   ****     {   
 124:RelayTest.c   ****                
 125:RelayTest.c   ****         case INITIALIZE_TEST:
 126:RelayTest.c   ****         
 127:RelayTest.c   ****             //isr_count = 0;
 128:RelayTest.c   ****         
 129:RelayTest.c   **** //            if(_100ms_flag == 1)
 130:RelayTest.c   **** //                LED_EN_Write(0);
 131:RelayTest.c   **** //        
 132:RelayTest.c   **** //            else if(_100ms_flag == 0)
 133:RelayTest.c   **** //                LED_EN_Write(0);
 134:RelayTest.c   ****                 
 135:RelayTest.c   ****             //CyDelay(1000);                      // Pause before next test
 136:RelayTest.c   ****         
 137:RelayTest.c   ****             for (uint8 i=0;i<NUMBER_TEST_STEPS;i++)            // Reset Status of aall test steps t
 105              		.loc 1 137 0
 106 0044 0023     		movs	r3, #0
 107 0046 FB71     		strb	r3, [r7, #7]
 108 0048 06E0     		b	.L15
 109              	.L16:
 138:RelayTest.c   ****                 RelayTestStatus[i] = '_';
 110              		.loc 1 138 0 discriminator 3
 111 004a FB79     		ldrb	r3, [r7, #7]	@ zero_extendqisi2
 112 004c 9A4A     		ldr	r2, .L45+4
 113 004e 5F21     		movs	r1, #95
 114 0050 D154     		strb	r1, [r2, r3]
 137:RelayTest.c   ****                 RelayTestStatus[i] = '_';
 115              		.loc 1 137 0 discriminator 3
 116 0052 FB79     		ldrb	r3, [r7, #7]	@ zero_extendqisi2
 117 0054 0133     		adds	r3, r3, #1
 118 0056 FB71     		strb	r3, [r7, #7]
 119              	.L15:
 137:RelayTest.c   ****                 RelayTestStatus[i] = '_';
 120              		.loc 1 137 0 is_stmt 0 discriminator 1
 121 0058 FB79     		ldrb	r3, [r7, #7]	@ zero_extendqisi2
 122 005a 092B     		cmp	r3, #9
 123 005c F5D9     		bls	.L16
 124              	.LBE2:
 139:RelayTest.c   ****    
 140:RelayTest.c   ****             // Initialize TX_RelaySiren packet
 141:RelayTest.c   ****             pTxPacket_RelaySiren = getTxPacket_RelaySiren();              // Tx - Get pointers to p
 125              		.loc 1 141 0 is_stmt 1
 126 005e FFF7FEFF 		bl	getTxPacket_RelaySiren
 127 0062 0246     		mov	r2, r0
ARM GAS  C:\Users\MARTHN~1\AppData\Local\Temp\cc3bmeFF.s 			page 6


 128 0064 954B     		ldr	r3, .L45+8
 129 0066 1A60     		str	r2, [r3]
 130              	.LBB3:
 142:RelayTest.c   ****             for(uint8 i;i<79;i++)
 131              		.loc 1 142 0
 132 0068 07E0     		b	.L17
 133              	.L18:
 143:RelayTest.c   ****                 pTxPacket_RelaySiren->bytes[i] = i;
 134              		.loc 1 143 0 discriminator 2
 135 006a 944B     		ldr	r3, .L45+8
 136 006c 1A68     		ldr	r2, [r3]
 137 006e BB79     		ldrb	r3, [r7, #6]	@ zero_extendqisi2
 138 0070 B979     		ldrb	r1, [r7, #6]
 139 0072 D154     		strb	r1, [r2, r3]
 142:RelayTest.c   ****             for(uint8 i;i<79;i++)
 140              		.loc 1 142 0 discriminator 2
 141 0074 BB79     		ldrb	r3, [r7, #6]	@ zero_extendqisi2
 142 0076 0133     		adds	r3, r3, #1
 143 0078 BB71     		strb	r3, [r7, #6]
 144              	.L17:
 142:RelayTest.c   ****             for(uint8 i;i<79;i++)
 145              		.loc 1 142 0 is_stmt 0 discriminator 1
 146 007a BB79     		ldrb	r3, [r7, #6]	@ zero_extendqisi2
 147 007c 4E2B     		cmp	r3, #78
 148 007e F4D9     		bls	.L18
 149              	.LBE3:
 144:RelayTest.c   **** 
 145:RelayTest.c   ****             pTxPacket_RelaySiren->Payload.StartByte_FLB = '~';
 150              		.loc 1 145 0 is_stmt 1
 151 0080 8E4B     		ldr	r3, .L45+8
 152 0082 1B68     		ldr	r3, [r3]
 153 0084 7E22     		movs	r2, #126
 154 0086 83F83520 		strb	r2, [r3, #53]
 146:RelayTest.c   ****             pTxPacket_RelaySiren->Payload.FLB_PacketType = '3';
 155              		.loc 1 146 0
 156 008a 8C4B     		ldr	r3, .L45+8
 157 008c 1B68     		ldr	r3, [r3]
 158 008e 3322     		movs	r2, #51
 159 0090 83F83620 		strb	r2, [r3, #54]
 147:RelayTest.c   ****             pTxPacket_RelaySiren->Payload.StopByte1_FLB = 0x0D;
 160              		.loc 1 147 0
 161 0094 894B     		ldr	r3, .L45+8
 162 0096 1B68     		ldr	r3, [r3]
 163 0098 0D22     		movs	r2, #13
 164 009a 83F83A20 		strb	r2, [r3, #58]
 148:RelayTest.c   ****             pTxPacket_RelaySiren->Payload.StopByte2_FLB = 0x0A;    
 165              		.loc 1 148 0
 166 009e 874B     		ldr	r3, .L45+8
 167 00a0 1B68     		ldr	r3, [r3]
 168 00a2 0A22     		movs	r2, #10
 169 00a4 83F83B20 		strb	r2, [r3, #59]
 149:RelayTest.c   ****             pTxPacket_RelaySiren->Payload.StartByte1_Siren = '~';    
 170              		.loc 1 149 0
 171 00a8 844B     		ldr	r3, .L45+8
 172 00aa 1B68     		ldr	r3, [r3]
 173 00ac 7E22     		movs	r2, #126
 174 00ae 83F83C20 		strb	r2, [r3, #60]
ARM GAS  C:\Users\MARTHN~1\AppData\Local\Temp\cc3bmeFF.s 			page 7


 150:RelayTest.c   ****             pTxPacket_RelaySiren->Payload.Siren_PacketType = 'S';
 175              		.loc 1 150 0
 176 00b2 824B     		ldr	r3, .L45+8
 177 00b4 1B68     		ldr	r3, [r3]
 178 00b6 5322     		movs	r2, #83
 179 00b8 83F83D20 		strb	r2, [r3, #61]
 151:RelayTest.c   ****             pTxPacket_RelaySiren->Payload.StopByte1_Siren = 0x0D;
 180              		.loc 1 151 0
 181 00bc 7F4B     		ldr	r3, .L45+8
 182 00be 1B68     		ldr	r3, [r3]
 183 00c0 0D22     		movs	r2, #13
 184 00c2 83F84120 		strb	r2, [r3, #65]
 152:RelayTest.c   ****             pTxPacket_RelaySiren->Payload.StopByte2_Siren = 0x0A;                       
 185              		.loc 1 152 0
 186 00c6 7D4B     		ldr	r3, .L45+8
 187 00c8 1B68     		ldr	r3, [r3]
 188 00ca 0A22     		movs	r2, #10
 189 00cc 83F84220 		strb	r2, [r3, #66]
 153:RelayTest.c   ****             pTxPacket_RelaySiren->Payload.StartByte1_Relay = '~';
 190              		.loc 1 153 0
 191 00d0 7A4B     		ldr	r3, .L45+8
 192 00d2 1B68     		ldr	r3, [r3]
 193 00d4 7E22     		movs	r2, #126
 194 00d6 83F84320 		strb	r2, [r3, #67]
 154:RelayTest.c   ****             pTxPacket_RelaySiren->Payload.Relay_PacketType = 'P';
 195              		.loc 1 154 0
 196 00da 784B     		ldr	r3, .L45+8
 197 00dc 1B68     		ldr	r3, [r3]
 198 00de 5022     		movs	r2, #80
 199 00e0 83F84420 		strb	r2, [r3, #68]
 155:RelayTest.c   ****             pTxPacket_RelaySiren->Payload.StopByte1_Relay = 0x0D;
 200              		.loc 1 155 0
 201 00e4 754B     		ldr	r3, .L45+8
 202 00e6 1B68     		ldr	r3, [r3]
 203 00e8 0D22     		movs	r2, #13
 204 00ea 83F84D20 		strb	r2, [r3, #77]
 156:RelayTest.c   ****             pTxPacket_RelaySiren->Payload.StopByte2_Relay = 0x0A;                    
 205              		.loc 1 156 0
 206 00ee 734B     		ldr	r3, .L45+8
 207 00f0 1B68     		ldr	r3, [r3]
 208 00f2 0A22     		movs	r2, #10
 209 00f4 83F84E20 		strb	r2, [r3, #78]
 157:RelayTest.c   ****             
 158:RelayTest.c   ****                 
 159:RelayTest.c   ****                 
 160:RelayTest.c   ****             // Deactivate each input
 161:RelayTest.c   ****             // RTest_HSide1_Write(0);
 162:RelayTest.c   ****             // RTest_HSide2_Write(0);
 163:RelayTest.c   ****             // RTest_HSide3_Write(0);
 164:RelayTest.c   ****             // RTest_HSide4_Write(0);
 165:RelayTest.c   ****             // RTest_HSide5_Write(0);
 166:RelayTest.c   ****             // RTest_HSide6_Write(0);
 167:RelayTest.c   ****             // RTest_HSide7_Write(0);
 168:RelayTest.c   ****             // RTest_HSide8_Write(0);
 169:RelayTest.c   ****             
 170:RelayTest.c   ****             //TestState = SIREN_EN; 
 171:RelayTest.c   ****             //TestState = QUAD_PORTS;
ARM GAS  C:\Users\MARTHN~1\AppData\Local\Temp\cc3bmeFF.s 			page 8


 172:RelayTest.c   ****             TestState = UART_SIREN;
 210              		.loc 1 172 0
 211 00f8 6E4B     		ldr	r3, .L45
 212 00fa 0522     		movs	r2, #5
 213 00fc 1A70     		strb	r2, [r3]
 173:RelayTest.c   ****             //TestState = INPUTS;  
 174:RelayTest.c   ****             //TestState = BLOCK_CURRENTS;  
 175:RelayTest.c   ****                    
 176:RelayTest.c   ****         break;
 214              		.loc 1 176 0
 215 00fe A1E1     		b	.L2
 216              	.L5:
 177:RelayTest.c   ****              
 178:RelayTest.c   ****         case SIREN_EN:
 179:RelayTest.c   ****                 
 180:RelayTest.c   ****             RelayTestStatus[TestState] = 'B';
 217              		.loc 1 180 0
 218 0100 6C4B     		ldr	r3, .L45
 219 0102 1B78     		ldrb	r3, [r3]	@ zero_extendqisi2
 220 0104 1A46     		mov	r2, r3
 221 0106 6C4B     		ldr	r3, .L45+4
 222 0108 4221     		movs	r1, #66
 223 010a 9954     		strb	r1, [r3, r2]
 181:RelayTest.c   **** 
 182:RelayTest.c   ****             RTest_20ms_isr_count = 0;
 224              		.loc 1 182 0
 225 010c 6C4B     		ldr	r3, .L45+12
 226 010e 0022     		movs	r2, #0
 227 0110 1A80     		strh	r2, [r3]	@ movhi
 183:RelayTest.c   ****             RTest_20ms_isr_EN = 1;
 228              		.loc 1 183 0
 229 0112 6C4B     		ldr	r3, .L45+16
 230 0114 0122     		movs	r2, #1
 231 0116 1A80     		strh	r2, [r3]	@ movhi
 184:RelayTest.c   ****              
 185:RelayTest.c   ****             //while(1);
 186:RelayTest.c   ****             //while( (!RTest_SIREN_EN_Read()) && (RelayTestStatus[TestState] != 'F') )             
 187:RelayTest.c   ****             {} 
 188:RelayTest.c   ****             
 189:RelayTest.c   ****             RTest_20ms_isr_EN = 0;
 232              		.loc 1 189 0
 233 0118 6A4B     		ldr	r3, .L45+16
 234 011a 0022     		movs	r2, #0
 235 011c 1A80     		strh	r2, [r3]	@ movhi
 190:RelayTest.c   ****             
 191:RelayTest.c   ****             if(RelayTestStatus[TestState] != 'F')       // If not failed, then pass
 236              		.loc 1 191 0
 237 011e 654B     		ldr	r3, .L45
 238 0120 1B78     		ldrb	r3, [r3]	@ zero_extendqisi2
 239 0122 1A46     		mov	r2, r3
 240 0124 644B     		ldr	r3, .L45+4
 241 0126 9B5C     		ldrb	r3, [r3, r2]	@ zero_extendqisi2
 242 0128 462B     		cmp	r3, #70
 243 012a 05D0     		beq	.L19
 192:RelayTest.c   ****                 RelayTestStatus[TestState] = 'P';
 244              		.loc 1 192 0
 245 012c 614B     		ldr	r3, .L45
ARM GAS  C:\Users\MARTHN~1\AppData\Local\Temp\cc3bmeFF.s 			page 9


 246 012e 1B78     		ldrb	r3, [r3]	@ zero_extendqisi2
 247 0130 1A46     		mov	r2, r3
 248 0132 614B     		ldr	r3, .L45+4
 249 0134 5021     		movs	r1, #80
 250 0136 9954     		strb	r1, [r3, r2]
 251              	.L19:
 193:RelayTest.c   **** 
 194:RelayTest.c   ****             TestState = TEST_OUTPUTS;        
 252              		.loc 1 194 0
 253 0138 5E4B     		ldr	r3, .L45
 254 013a 0222     		movs	r2, #2
 255 013c 1A70     		strb	r2, [r3]
 195:RelayTest.c   ****         break;    
 256              		.loc 1 195 0
 257 013e 81E1     		b	.L2
 258              	.L6:
 196:RelayTest.c   ****               
 197:RelayTest.c   ****         case TEST_OUTPUTS:  
 198:RelayTest.c   ****                 
 199:RelayTest.c   ****             SetRelayOutputs(1);                         // Send command to turn on relay outputs
 259              		.loc 1 199 0
 260 0140 0120     		movs	r0, #1
 261 0142 FFF7FEFF 		bl	SetRelayOutputs
 200:RelayTest.c   ****                 
 201:RelayTest.c   ****             RelayTestStatus[TestState] = 'B';
 262              		.loc 1 201 0
 263 0146 5B4B     		ldr	r3, .L45
 264 0148 1B78     		ldrb	r3, [r3]	@ zero_extendqisi2
 265 014a 1A46     		mov	r2, r3
 266 014c 5A4B     		ldr	r3, .L45+4
 267 014e 4221     		movs	r1, #66
 268 0150 9954     		strb	r1, [r3, r2]
 202:RelayTest.c   **** 
 203:RelayTest.c   ****             RTest_20ms_isr_count = 0;
 269              		.loc 1 203 0
 270 0152 5B4B     		ldr	r3, .L45+12
 271 0154 0022     		movs	r2, #0
 272 0156 1A80     		strh	r2, [r3]	@ movhi
 204:RelayTest.c   ****             RTest_20ms_isr_EN = 1;
 273              		.loc 1 204 0
 274 0158 5A4B     		ldr	r3, .L45+16
 275 015a 0122     		movs	r2, #1
 276 015c 1A80     		strh	r2, [r3]	@ movhi
 205:RelayTest.c   ****              
 206:RelayTest.c   ****             while( (!RTest_Test_Outputs()) && (RelayTestStatus[TestState] != 'F') )    // Wait for 
 277              		.loc 1 206 0
 278 015e 00BF     		nop
 279              	.L21:
 280              		.loc 1 206 0 is_stmt 0 discriminator 2
 281 0160 FFF7FEFF 		bl	RTest_Test_Outputs
 282 0164 0346     		mov	r3, r0
 283 0166 002B     		cmp	r3, #0
 284 0168 06D1     		bne	.L20
 285              		.loc 1 206 0 discriminator 1
 286 016a 524B     		ldr	r3, .L45
 287 016c 1B78     		ldrb	r3, [r3]	@ zero_extendqisi2
 288 016e 1A46     		mov	r2, r3
ARM GAS  C:\Users\MARTHN~1\AppData\Local\Temp\cc3bmeFF.s 			page 10


 289 0170 514B     		ldr	r3, .L45+4
 290 0172 9B5C     		ldrb	r3, [r3, r2]	@ zero_extendqisi2
 291 0174 462B     		cmp	r3, #70
 292 0176 F3D1     		bne	.L21
 293              	.L20:
 207:RelayTest.c   ****             {}   
 208:RelayTest.c   ****             
 209:RelayTest.c   ****             RTest_20ms_isr_EN = 0;
 294              		.loc 1 209 0 is_stmt 1
 295 0178 524B     		ldr	r3, .L45+16
 296 017a 0022     		movs	r2, #0
 297 017c 1A80     		strh	r2, [r3]	@ movhi
 210:RelayTest.c   ****             
 211:RelayTest.c   ****             SetRelayOutputs(0);                         // Send command to turn off relay outputs
 298              		.loc 1 211 0
 299 017e 0020     		movs	r0, #0
 300 0180 FFF7FEFF 		bl	SetRelayOutputs
 212:RelayTest.c   ****             
 213:RelayTest.c   ****             if(RelayTestStatus[TestState] != 'F')       // If not failed, then pass
 301              		.loc 1 213 0
 302 0184 4B4B     		ldr	r3, .L45
 303 0186 1B78     		ldrb	r3, [r3]	@ zero_extendqisi2
 304 0188 1A46     		mov	r2, r3
 305 018a 4B4B     		ldr	r3, .L45+4
 306 018c 9B5C     		ldrb	r3, [r3, r2]	@ zero_extendqisi2
 307 018e 462B     		cmp	r3, #70
 308 0190 05D0     		beq	.L22
 214:RelayTest.c   ****                 RelayTestStatus[TestState] = 'P';
 309              		.loc 1 214 0
 310 0192 484B     		ldr	r3, .L45
 311 0194 1B78     		ldrb	r3, [r3]	@ zero_extendqisi2
 312 0196 1A46     		mov	r2, r3
 313 0198 474B     		ldr	r3, .L45+4
 314 019a 5021     		movs	r1, #80
 315 019c 9954     		strb	r1, [r3, r2]
 316              	.L22:
 215:RelayTest.c   **** 
 216:RelayTest.c   ****             TestState = DATALINK;        
 317              		.loc 1 216 0
 318 019e 454B     		ldr	r3, .L45
 319 01a0 0322     		movs	r2, #3
 320 01a2 1A70     		strb	r2, [r3]
 217:RelayTest.c   ****         break;        
 321              		.loc 1 217 0
 322 01a4 4EE1     		b	.L2
 323              	.L7:
 218:RelayTest.c   ****               
 219:RelayTest.c   ****         case DATALINK: 
 220:RelayTest.c   ****                 
 221:RelayTest.c   ****             RelayTestStatus[TestState] = 'B';
 324              		.loc 1 221 0
 325 01a6 434B     		ldr	r3, .L45
 326 01a8 1B78     		ldrb	r3, [r3]	@ zero_extendqisi2
 327 01aa 1A46     		mov	r2, r3
 328 01ac 424B     		ldr	r3, .L45+4
 329 01ae 4221     		movs	r1, #66
 330 01b0 9954     		strb	r1, [r3, r2]
ARM GAS  C:\Users\MARTHN~1\AppData\Local\Temp\cc3bmeFF.s 			page 11


 222:RelayTest.c   **** 
 223:RelayTest.c   ****             RTest_20ms_isr_count = 0;
 331              		.loc 1 223 0
 332 01b2 434B     		ldr	r3, .L45+12
 333 01b4 0022     		movs	r2, #0
 334 01b6 1A80     		strh	r2, [r3]	@ movhi
 224:RelayTest.c   ****             RTest_20ms_isr_EN = 1;            
 335              		.loc 1 224 0
 336 01b8 424B     		ldr	r3, .L45+16
 337 01ba 0122     		movs	r2, #1
 338 01bc 1A80     		strh	r2, [r3]	@ movhi
 225:RelayTest.c   ****              
 226:RelayTest.c   ****             while( (!RTest_Test_DataLink()) && (RelayTestStatus[TestState] != 'F') )    // Wait for
 339              		.loc 1 226 0
 340 01be 00BF     		nop
 341              	.L24:
 342              		.loc 1 226 0 is_stmt 0 discriminator 2
 343 01c0 FFF7FEFF 		bl	RTest_Test_DataLink
 344 01c4 0346     		mov	r3, r0
 345 01c6 002B     		cmp	r3, #0
 346 01c8 06D1     		bne	.L23
 347              		.loc 1 226 0 discriminator 1
 348 01ca 3A4B     		ldr	r3, .L45
 349 01cc 1B78     		ldrb	r3, [r3]	@ zero_extendqisi2
 350 01ce 1A46     		mov	r2, r3
 351 01d0 394B     		ldr	r3, .L45+4
 352 01d2 9B5C     		ldrb	r3, [r3, r2]	@ zero_extendqisi2
 353 01d4 462B     		cmp	r3, #70
 354 01d6 F3D1     		bne	.L24
 355              	.L23:
 227:RelayTest.c   ****             {}  
 228:RelayTest.c   ****             
 229:RelayTest.c   ****             RTest_20ms_isr_EN = 0;
 356              		.loc 1 229 0 is_stmt 1
 357 01d8 3A4B     		ldr	r3, .L45+16
 358 01da 0022     		movs	r2, #0
 359 01dc 1A80     		strh	r2, [r3]	@ movhi
 230:RelayTest.c   ****             
 231:RelayTest.c   ****             if(RelayTestStatus[TestState] != 'F')       // If not failed, then pass
 360              		.loc 1 231 0
 361 01de 354B     		ldr	r3, .L45
 362 01e0 1B78     		ldrb	r3, [r3]	@ zero_extendqisi2
 363 01e2 1A46     		mov	r2, r3
 364 01e4 344B     		ldr	r3, .L45+4
 365 01e6 9B5C     		ldrb	r3, [r3, r2]	@ zero_extendqisi2
 366 01e8 462B     		cmp	r3, #70
 367 01ea 05D0     		beq	.L25
 232:RelayTest.c   ****                 RelayTestStatus[TestState] = 'P';
 368              		.loc 1 232 0
 369 01ec 314B     		ldr	r3, .L45
 370 01ee 1B78     		ldrb	r3, [r3]	@ zero_extendqisi2
 371 01f0 1A46     		mov	r2, r3
 372 01f2 314B     		ldr	r3, .L45+4
 373 01f4 5021     		movs	r1, #80
 374 01f6 9954     		strb	r1, [r3, r2]
 375              	.L25:
 233:RelayTest.c   ****             
ARM GAS  C:\Users\MARTHN~1\AppData\Local\Temp\cc3bmeFF.s 			page 12


 234:RelayTest.c   ****             TestState = QUAD_PORTS;        
 376              		.loc 1 234 0
 377 01f8 2E4B     		ldr	r3, .L45
 378 01fa 0422     		movs	r2, #4
 379 01fc 1A70     		strb	r2, [r3]
 235:RelayTest.c   ****         break;  
 380              		.loc 1 235 0
 381 01fe 21E1     		b	.L2
 382              	.L8:
 236:RelayTest.c   ****               
 237:RelayTest.c   ****         case QUAD_PORTS: 
 238:RelayTest.c   ****                 
 239:RelayTest.c   ****             RelayTestStatus[TestState] = 'B';
 383              		.loc 1 239 0
 384 0200 2C4B     		ldr	r3, .L45
 385 0202 1B78     		ldrb	r3, [r3]	@ zero_extendqisi2
 386 0204 1A46     		mov	r2, r3
 387 0206 2C4B     		ldr	r3, .L45+4
 388 0208 4221     		movs	r1, #66
 389 020a 9954     		strb	r1, [r3, r2]
 240:RelayTest.c   **** 
 241:RelayTest.c   ****             RTest_20ms_isr_count = 0;
 390              		.loc 1 241 0
 391 020c 2C4B     		ldr	r3, .L45+12
 392 020e 0022     		movs	r2, #0
 393 0210 1A80     		strh	r2, [r3]	@ movhi
 242:RelayTest.c   ****             RTest_20ms_isr_EN = 1;            
 394              		.loc 1 242 0
 395 0212 2C4B     		ldr	r3, .L45+16
 396 0214 0122     		movs	r2, #1
 397 0216 1A80     		strh	r2, [r3]	@ movhi
 243:RelayTest.c   ****                 
 244:RelayTest.c   ****             while( (!RTest_Test_QuadPorts()) && (RelayTestStatus[TestState] != 'F') )    // Wait fo
 398              		.loc 1 244 0
 399 0218 00BF     		nop
 400              	.L27:
 401              		.loc 1 244 0 is_stmt 0 discriminator 2
 402 021a FFF7FEFF 		bl	RTest_Test_QuadPorts
 403 021e 0346     		mov	r3, r0
 404 0220 002B     		cmp	r3, #0
 405 0222 06D1     		bne	.L26
 406              		.loc 1 244 0 discriminator 1
 407 0224 234B     		ldr	r3, .L45
 408 0226 1B78     		ldrb	r3, [r3]	@ zero_extendqisi2
 409 0228 1A46     		mov	r2, r3
 410 022a 234B     		ldr	r3, .L45+4
 411 022c 9B5C     		ldrb	r3, [r3, r2]	@ zero_extendqisi2
 412 022e 462B     		cmp	r3, #70
 413 0230 F3D1     		bne	.L27
 414              	.L26:
 245:RelayTest.c   ****             {}    
 246:RelayTest.c   ****             
 247:RelayTest.c   ****             RTest_20ms_isr_EN = 0;
 415              		.loc 1 247 0 is_stmt 1
 416 0232 244B     		ldr	r3, .L45+16
 417 0234 0022     		movs	r2, #0
 418 0236 1A80     		strh	r2, [r3]	@ movhi
ARM GAS  C:\Users\MARTHN~1\AppData\Local\Temp\cc3bmeFF.s 			page 13


 248:RelayTest.c   ****             
 249:RelayTest.c   ****             if(RelayTestStatus[TestState] != 'F')                                   // If not faile
 419              		.loc 1 249 0
 420 0238 1E4B     		ldr	r3, .L45
 421 023a 1B78     		ldrb	r3, [r3]	@ zero_extendqisi2
 422 023c 1A46     		mov	r2, r3
 423 023e 1E4B     		ldr	r3, .L45+4
 424 0240 9B5C     		ldrb	r3, [r3, r2]	@ zero_extendqisi2
 425 0242 462B     		cmp	r3, #70
 426 0244 05D0     		beq	.L28
 250:RelayTest.c   ****                 RelayTestStatus[TestState] = 'P';
 427              		.loc 1 250 0
 428 0246 1B4B     		ldr	r3, .L45
 429 0248 1B78     		ldrb	r3, [r3]	@ zero_extendqisi2
 430 024a 1A46     		mov	r2, r3
 431 024c 1A4B     		ldr	r3, .L45+4
 432 024e 5021     		movs	r1, #80
 433 0250 9954     		strb	r1, [r3, r2]
 434              	.L28:
 251:RelayTest.c   ****                   
 252:RelayTest.c   ****             //TestState = QUAD_PORTS;
 253:RelayTest.c   ****             TestState = UART_SIREN;        
 435              		.loc 1 253 0
 436 0252 184B     		ldr	r3, .L45
 437 0254 0522     		movs	r2, #5
 438 0256 1A70     		strb	r2, [r3]
 254:RelayTest.c   ****         break;  
 439              		.loc 1 254 0
 440 0258 F4E0     		b	.L2
 441              	.L9:
 255:RelayTest.c   ****                 
 256:RelayTest.c   ****         case UART_SIREN: 
 257:RelayTest.c   ****                 
 258:RelayTest.c   ****             RelayTestStatus[TestState] = 'B';
 442              		.loc 1 258 0
 443 025a 164B     		ldr	r3, .L45
 444 025c 1B78     		ldrb	r3, [r3]	@ zero_extendqisi2
 445 025e 1A46     		mov	r2, r3
 446 0260 154B     		ldr	r3, .L45+4
 447 0262 4221     		movs	r1, #66
 448 0264 9954     		strb	r1, [r3, r2]
 259:RelayTest.c   **** 
 260:RelayTest.c   ****             RTest_20ms_isr_count = 0;
 449              		.loc 1 260 0
 450 0266 164B     		ldr	r3, .L45+12
 451 0268 0022     		movs	r2, #0
 452 026a 1A80     		strh	r2, [r3]	@ movhi
 261:RelayTest.c   ****             RTest_20ms_isr_EN = 1;            
 453              		.loc 1 261 0
 454 026c 154B     		ldr	r3, .L45+16
 455 026e 0122     		movs	r2, #1
 456 0270 1A80     		strh	r2, [r3]	@ movhi
 262:RelayTest.c   ****                 
 263:RelayTest.c   ****             while( (!RTest_Test_UART_Siren()) && (RelayTestStatus[TestState] != 'F') )
 457              		.loc 1 263 0
 458 0272 00BF     		nop
 459              	.L30:
ARM GAS  C:\Users\MARTHN~1\AppData\Local\Temp\cc3bmeFF.s 			page 14


 460              		.loc 1 263 0 is_stmt 0 discriminator 2
 461 0274 FFF7FEFF 		bl	RTest_Test_UART_Siren
 462 0278 0346     		mov	r3, r0
 463 027a 002B     		cmp	r3, #0
 464 027c 06D1     		bne	.L29
 465              		.loc 1 263 0 discriminator 1
 466 027e 0D4B     		ldr	r3, .L45
 467 0280 1B78     		ldrb	r3, [r3]	@ zero_extendqisi2
 468 0282 1A46     		mov	r2, r3
 469 0284 0C4B     		ldr	r3, .L45+4
 470 0286 9B5C     		ldrb	r3, [r3, r2]	@ zero_extendqisi2
 471 0288 462B     		cmp	r3, #70
 472 028a F3D1     		bne	.L30
 473              	.L29:
 264:RelayTest.c   ****             {}    
 265:RelayTest.c   ****             
 266:RelayTest.c   ****             RTest_20ms_isr_EN = 0;
 474              		.loc 1 266 0 is_stmt 1
 475 028c 0D4B     		ldr	r3, .L45+16
 476 028e 0022     		movs	r2, #0
 477 0290 1A80     		strh	r2, [r3]	@ movhi
 267:RelayTest.c   ****             
 268:RelayTest.c   ****             if(RelayTestStatus[TestState] != 'F')                                   // If not faile
 478              		.loc 1 268 0
 479 0292 084B     		ldr	r3, .L45
 480 0294 1B78     		ldrb	r3, [r3]	@ zero_extendqisi2
 481 0296 1A46     		mov	r2, r3
 482 0298 074B     		ldr	r3, .L45+4
 483 029a 9B5C     		ldrb	r3, [r3, r2]	@ zero_extendqisi2
 484 029c 462B     		cmp	r3, #70
 485 029e 05D0     		beq	.L31
 269:RelayTest.c   ****                 RelayTestStatus[TestState] = 'P';
 486              		.loc 1 269 0
 487 02a0 044B     		ldr	r3, .L45
 488 02a2 1B78     		ldrb	r3, [r3]	@ zero_extendqisi2
 489 02a4 1A46     		mov	r2, r3
 490 02a6 044B     		ldr	r3, .L45+4
 491 02a8 5021     		movs	r1, #80
 492 02aa 9954     		strb	r1, [r3, r2]
 493              	.L31:
 270:RelayTest.c   ****                 
 271:RelayTest.c   ****             TestState = INITIALIZE_TEST;  
 494              		.loc 1 271 0
 495 02ac 014B     		ldr	r3, .L45
 496 02ae 0022     		movs	r2, #0
 497 02b0 1A70     		strb	r2, [r3]
 272:RelayTest.c   ****             //TestState = INPUTS;                
 273:RelayTest.c   ****         break;  
 498              		.loc 1 273 0
 499 02b2 C7E0     		b	.L2
 500              	.L46:
 501              		.align	2
 502              	.L45:
 503 02b4 02010000 		.word	TestState
 504 02b8 F8000000 		.word	RelayTestStatus
 505 02bc 64000000 		.word	pTxPacket_RelaySiren
 506 02c0 F4000000 		.word	RTest_20ms_isr_count
ARM GAS  C:\Users\MARTHN~1\AppData\Local\Temp\cc3bmeFF.s 			page 15


 507 02c4 F6000000 		.word	RTest_20ms_isr_EN
 508              	.L10:
 274:RelayTest.c   ****               
 275:RelayTest.c   ****         case INPUTS:          
 276:RelayTest.c   ****                 
 277:RelayTest.c   ****             RelayTestStatus[TestState] = 'B';
 509              		.loc 1 277 0
 510 02c8 614B     		ldr	r3, .L47
 511 02ca 1B78     		ldrb	r3, [r3]	@ zero_extendqisi2
 512 02cc 1A46     		mov	r2, r3
 513 02ce 614B     		ldr	r3, .L47+4
 514 02d0 4221     		movs	r1, #66
 515 02d2 9954     		strb	r1, [r3, r2]
 278:RelayTest.c   **** 
 279:RelayTest.c   ****             RTest_20ms_isr_count = 0;
 516              		.loc 1 279 0
 517 02d4 604B     		ldr	r3, .L47+8
 518 02d6 0022     		movs	r2, #0
 519 02d8 1A80     		strh	r2, [r3]	@ movhi
 280:RelayTest.c   ****             RTest_20ms_isr_EN = 1;            
 520              		.loc 1 280 0
 521 02da 604B     		ldr	r3, .L47+12
 522 02dc 0122     		movs	r2, #1
 523 02de 1A80     		strh	r2, [r3]	@ movhi
 281:RelayTest.c   ****                 
 282:RelayTest.c   ****             while( (!RTest_Test_Inputs()) && (RelayTestStatus[TestState] != 'F') )
 524              		.loc 1 282 0
 525 02e0 00BF     		nop
 526              	.L33:
 527              		.loc 1 282 0 is_stmt 0 discriminator 2
 528 02e2 FFF7FEFF 		bl	RTest_Test_Inputs
 529 02e6 0346     		mov	r3, r0
 530 02e8 002B     		cmp	r3, #0
 531 02ea 06D1     		bne	.L32
 532              		.loc 1 282 0 discriminator 1
 533 02ec 584B     		ldr	r3, .L47
 534 02ee 1B78     		ldrb	r3, [r3]	@ zero_extendqisi2
 535 02f0 1A46     		mov	r2, r3
 536 02f2 584B     		ldr	r3, .L47+4
 537 02f4 9B5C     		ldrb	r3, [r3, r2]	@ zero_extendqisi2
 538 02f6 462B     		cmp	r3, #70
 539 02f8 F3D1     		bne	.L33
 540              	.L32:
 283:RelayTest.c   ****             {}   
 284:RelayTest.c   ****             
 285:RelayTest.c   ****             RTest_20ms_isr_EN = 0;
 541              		.loc 1 285 0 is_stmt 1
 542 02fa 584B     		ldr	r3, .L47+12
 543 02fc 0022     		movs	r2, #0
 544 02fe 1A80     		strh	r2, [r3]	@ movhi
 286:RelayTest.c   ****             
 287:RelayTest.c   ****             if(RelayTestStatus[TestState] != 'F')                                   // If not faile
 545              		.loc 1 287 0
 546 0300 534B     		ldr	r3, .L47
 547 0302 1B78     		ldrb	r3, [r3]	@ zero_extendqisi2
 548 0304 1A46     		mov	r2, r3
 549 0306 534B     		ldr	r3, .L47+4
ARM GAS  C:\Users\MARTHN~1\AppData\Local\Temp\cc3bmeFF.s 			page 16


 550 0308 9B5C     		ldrb	r3, [r3, r2]	@ zero_extendqisi2
 551 030a 462B     		cmp	r3, #70
 552 030c 05D0     		beq	.L34
 288:RelayTest.c   ****                 RelayTestStatus[TestState] = 'P';
 553              		.loc 1 288 0
 554 030e 504B     		ldr	r3, .L47
 555 0310 1B78     		ldrb	r3, [r3]	@ zero_extendqisi2
 556 0312 1A46     		mov	r2, r3
 557 0314 4F4B     		ldr	r3, .L47+4
 558 0316 5021     		movs	r1, #80
 559 0318 9954     		strb	r1, [r3, r2]
 560              	.L34:
 289:RelayTest.c   ****                 
 290:RelayTest.c   ****             TestState = VBATT;                
 561              		.loc 1 290 0
 562 031a 4D4B     		ldr	r3, .L47
 563 031c 0722     		movs	r2, #7
 564 031e 1A70     		strb	r2, [r3]
 291:RelayTest.c   ****         break;          
 565              		.loc 1 291 0
 566 0320 90E0     		b	.L2
 567              	.L11:
 292:RelayTest.c   **** 
 293:RelayTest.c   ****         case VBATT:                                     // Tested and working
 294:RelayTest.c   ****                 
 295:RelayTest.c   ****             RelayTestStatus[TestState] = 'B';
 568              		.loc 1 295 0
 569 0322 4B4B     		ldr	r3, .L47
 570 0324 1B78     		ldrb	r3, [r3]	@ zero_extendqisi2
 571 0326 1A46     		mov	r2, r3
 572 0328 4A4B     		ldr	r3, .L47+4
 573 032a 4221     		movs	r1, #66
 574 032c 9954     		strb	r1, [r3, r2]
 296:RelayTest.c   **** 
 297:RelayTest.c   ****             RTest_20ms_isr_count = 0;
 575              		.loc 1 297 0
 576 032e 4A4B     		ldr	r3, .L47+8
 577 0330 0022     		movs	r2, #0
 578 0332 1A80     		strh	r2, [r3]	@ movhi
 298:RelayTest.c   ****             RTest_20ms_isr_EN = 1;            
 579              		.loc 1 298 0
 580 0334 494B     		ldr	r3, .L47+12
 581 0336 0122     		movs	r2, #1
 582 0338 1A80     		strh	r2, [r3]	@ movhi
 299:RelayTest.c   ****                 
 300:RelayTest.c   ****             while( (!RTest_Test_Vbatt()) && (RelayTestStatus[TestState] != 'F') )
 583              		.loc 1 300 0
 584 033a 00BF     		nop
 585              	.L36:
 586              		.loc 1 300 0 is_stmt 0 discriminator 2
 587 033c FFF7FEFF 		bl	RTest_Test_Vbatt
 588 0340 0346     		mov	r3, r0
 589 0342 002B     		cmp	r3, #0
 590 0344 06D1     		bne	.L35
 591              		.loc 1 300 0 discriminator 1
 592 0346 424B     		ldr	r3, .L47
 593 0348 1B78     		ldrb	r3, [r3]	@ zero_extendqisi2
ARM GAS  C:\Users\MARTHN~1\AppData\Local\Temp\cc3bmeFF.s 			page 17


 594 034a 1A46     		mov	r2, r3
 595 034c 414B     		ldr	r3, .L47+4
 596 034e 9B5C     		ldrb	r3, [r3, r2]	@ zero_extendqisi2
 597 0350 462B     		cmp	r3, #70
 598 0352 F3D1     		bne	.L36
 599              	.L35:
 301:RelayTest.c   ****             {}    
 302:RelayTest.c   ****             
 303:RelayTest.c   ****             RTest_20ms_isr_EN = 0;
 600              		.loc 1 303 0 is_stmt 1
 601 0354 414B     		ldr	r3, .L47+12
 602 0356 0022     		movs	r2, #0
 603 0358 1A80     		strh	r2, [r3]	@ movhi
 304:RelayTest.c   ****             
 305:RelayTest.c   ****             if(RelayTestStatus[TestState] != 'F')                                   // If not faile
 604              		.loc 1 305 0
 605 035a 3D4B     		ldr	r3, .L47
 606 035c 1B78     		ldrb	r3, [r3]	@ zero_extendqisi2
 607 035e 1A46     		mov	r2, r3
 608 0360 3C4B     		ldr	r3, .L47+4
 609 0362 9B5C     		ldrb	r3, [r3, r2]	@ zero_extendqisi2
 610 0364 462B     		cmp	r3, #70
 611 0366 05D0     		beq	.L37
 306:RelayTest.c   ****                 RelayTestStatus[TestState] = 'P';
 612              		.loc 1 306 0
 613 0368 394B     		ldr	r3, .L47
 614 036a 1B78     		ldrb	r3, [r3]	@ zero_extendqisi2
 615 036c 1A46     		mov	r2, r3
 616 036e 394B     		ldr	r3, .L47+4
 617 0370 5021     		movs	r1, #80
 618 0372 9954     		strb	r1, [r3, r2]
 619              	.L37:
 307:RelayTest.c   ****             
 308:RelayTest.c   ****             TestState = BLOCK_CURRENTS;                
 620              		.loc 1 308 0
 621 0374 364B     		ldr	r3, .L47
 622 0376 0822     		movs	r2, #8
 623 0378 1A70     		strb	r2, [r3]
 309:RelayTest.c   ****         break; 
 624              		.loc 1 309 0
 625 037a 63E0     		b	.L2
 626              	.L12:
 310:RelayTest.c   ****          
 311:RelayTest.c   ****         case BLOCK_CURRENTS:                            //*** Tested and working
 312:RelayTest.c   ****             
 313:RelayTest.c   ****             SetRelayOutputs(1);                         // Send command to turn on relay outputs
 627              		.loc 1 313 0
 628 037c 0120     		movs	r0, #1
 629 037e FFF7FEFF 		bl	SetRelayOutputs
 314:RelayTest.c   ****                 
 315:RelayTest.c   ****             RelayTestStatus[TestState] = 'B';
 630              		.loc 1 315 0
 631 0382 334B     		ldr	r3, .L47
 632 0384 1B78     		ldrb	r3, [r3]	@ zero_extendqisi2
 633 0386 1A46     		mov	r2, r3
 634 0388 324B     		ldr	r3, .L47+4
 635 038a 4221     		movs	r1, #66
ARM GAS  C:\Users\MARTHN~1\AppData\Local\Temp\cc3bmeFF.s 			page 18


 636 038c 9954     		strb	r1, [r3, r2]
 316:RelayTest.c   **** 
 317:RelayTest.c   ****             RTest_20ms_isr_count = 0;                   // Start timeout
 637              		.loc 1 317 0
 638 038e 324B     		ldr	r3, .L47+8
 639 0390 0022     		movs	r2, #0
 640 0392 1A80     		strh	r2, [r3]	@ movhi
 318:RelayTest.c   ****             RTest_20ms_isr_EN = 1;            
 641              		.loc 1 318 0
 642 0394 314B     		ldr	r3, .L47+12
 643 0396 0122     		movs	r2, #1
 644 0398 1A80     		strh	r2, [r3]	@ movhi
 319:RelayTest.c   ****             
 320:RelayTest.c   ****             while( (!RTest_Test_BlockCurrents()) && (RelayTestStatus[TestState] != 'F') )
 645              		.loc 1 320 0
 646 039a 00BF     		nop
 647              	.L39:
 648              		.loc 1 320 0 is_stmt 0 discriminator 2
 649 039c FFF7FEFF 		bl	RTest_Test_BlockCurrents
 650 03a0 0346     		mov	r3, r0
 651 03a2 002B     		cmp	r3, #0
 652 03a4 06D1     		bne	.L38
 653              		.loc 1 320 0 discriminator 1
 654 03a6 2A4B     		ldr	r3, .L47
 655 03a8 1B78     		ldrb	r3, [r3]	@ zero_extendqisi2
 656 03aa 1A46     		mov	r2, r3
 657 03ac 294B     		ldr	r3, .L47+4
 658 03ae 9B5C     		ldrb	r3, [r3, r2]	@ zero_extendqisi2
 659 03b0 462B     		cmp	r3, #70
 660 03b2 F3D1     		bne	.L39
 661              	.L38:
 321:RelayTest.c   ****             {} 
 322:RelayTest.c   ****             
 323:RelayTest.c   ****             RTest_20ms_isr_EN = 0;                      // Stop timeout
 662              		.loc 1 323 0 is_stmt 1
 663 03b4 294B     		ldr	r3, .L47+12
 664 03b6 0022     		movs	r2, #0
 665 03b8 1A80     		strh	r2, [r3]	@ movhi
 324:RelayTest.c   ****             
 325:RelayTest.c   ****             SetRelayOutputs(0);                         // Send command to turn off relay outputs
 666              		.loc 1 325 0
 667 03ba 0020     		movs	r0, #0
 668 03bc FFF7FEFF 		bl	SetRelayOutputs
 326:RelayTest.c   ****             
 327:RelayTest.c   ****             if(RelayTestStatus[TestState] != 'F')       // If not failed, then pass
 669              		.loc 1 327 0
 670 03c0 234B     		ldr	r3, .L47
 671 03c2 1B78     		ldrb	r3, [r3]	@ zero_extendqisi2
 672 03c4 1A46     		mov	r2, r3
 673 03c6 234B     		ldr	r3, .L47+4
 674 03c8 9B5C     		ldrb	r3, [r3, r2]	@ zero_extendqisi2
 675 03ca 462B     		cmp	r3, #70
 676 03cc 05D0     		beq	.L40
 328:RelayTest.c   ****                 RelayTestStatus[TestState] = 'P';
 677              		.loc 1 328 0
 678 03ce 204B     		ldr	r3, .L47
 679 03d0 1B78     		ldrb	r3, [r3]	@ zero_extendqisi2
ARM GAS  C:\Users\MARTHN~1\AppData\Local\Temp\cc3bmeFF.s 			page 19


 680 03d2 1A46     		mov	r2, r3
 681 03d4 1F4B     		ldr	r3, .L47+4
 682 03d6 5021     		movs	r1, #80
 683 03d8 9954     		strb	r1, [r3, r2]
 684              	.L40:
 329:RelayTest.c   ****                 
 330:RelayTest.c   ****             //TestState = INITIALIZE_TEST;
 331:RelayTest.c   ****             TestState = GPS;  
 685              		.loc 1 331 0
 686 03da 1D4B     		ldr	r3, .L47
 687 03dc 0922     		movs	r2, #9
 688 03de 1A70     		strb	r2, [r3]
 332:RelayTest.c   ****         break; 
 689              		.loc 1 332 0
 690 03e0 30E0     		b	.L2
 691              	.L13:
 333:RelayTest.c   ****     //---------------------------------------------------------------------------------------------
 334:RelayTest.c   ****         case GPS:         
 335:RelayTest.c   ****                 
 336:RelayTest.c   ****             RelayTestStatus[TestState] = 'B';
 692              		.loc 1 336 0
 693 03e2 1B4B     		ldr	r3, .L47
 694 03e4 1B78     		ldrb	r3, [r3]	@ zero_extendqisi2
 695 03e6 1A46     		mov	r2, r3
 696 03e8 1A4B     		ldr	r3, .L47+4
 697 03ea 4221     		movs	r1, #66
 698 03ec 9954     		strb	r1, [r3, r2]
 337:RelayTest.c   **** 
 338:RelayTest.c   ****             RTest_20ms_isr_count = 0;
 699              		.loc 1 338 0
 700 03ee 1A4B     		ldr	r3, .L47+8
 701 03f0 0022     		movs	r2, #0
 702 03f2 1A80     		strh	r2, [r3]	@ movhi
 339:RelayTest.c   ****             RTest_20ms_isr_EN = 1;            
 703              		.loc 1 339 0
 704 03f4 194B     		ldr	r3, .L47+12
 705 03f6 0122     		movs	r2, #1
 706 03f8 1A80     		strh	r2, [r3]	@ movhi
 340:RelayTest.c   ****                 
 341:RelayTest.c   ****             while( (!RTest_Test_GPS()) && (RelayTestStatus[TestState] != 'F') )
 707              		.loc 1 341 0
 708 03fa 00BF     		nop
 709              	.L42:
 710              		.loc 1 341 0 is_stmt 0 discriminator 2
 711 03fc FFF7FEFF 		bl	RTest_Test_GPS
 712 0400 0346     		mov	r3, r0
 713 0402 002B     		cmp	r3, #0
 714 0404 06D1     		bne	.L41
 715              		.loc 1 341 0 discriminator 1
 716 0406 124B     		ldr	r3, .L47
 717 0408 1B78     		ldrb	r3, [r3]	@ zero_extendqisi2
 718 040a 1A46     		mov	r2, r3
 719 040c 114B     		ldr	r3, .L47+4
 720 040e 9B5C     		ldrb	r3, [r3, r2]	@ zero_extendqisi2
 721 0410 462B     		cmp	r3, #70
 722 0412 F3D1     		bne	.L42
 723              	.L41:
ARM GAS  C:\Users\MARTHN~1\AppData\Local\Temp\cc3bmeFF.s 			page 20


 342:RelayTest.c   ****             {}        
 343:RelayTest.c   ****             
 344:RelayTest.c   ****             RTest_20ms_isr_EN = 0;
 724              		.loc 1 344 0 is_stmt 1
 725 0414 114B     		ldr	r3, .L47+12
 726 0416 0022     		movs	r2, #0
 727 0418 1A80     		strh	r2, [r3]	@ movhi
 345:RelayTest.c   ****             
 346:RelayTest.c   ****             if(RelayTestStatus[TestState] != 'F')                                   // If not faile
 728              		.loc 1 346 0
 729 041a 0D4B     		ldr	r3, .L47
 730 041c 1B78     		ldrb	r3, [r3]	@ zero_extendqisi2
 731 041e 1A46     		mov	r2, r3
 732 0420 0C4B     		ldr	r3, .L47+4
 733 0422 9B5C     		ldrb	r3, [r3, r2]	@ zero_extendqisi2
 734 0424 462B     		cmp	r3, #70
 735 0426 05D0     		beq	.L43
 347:RelayTest.c   ****                 RelayTestStatus[TestState] = 'P';
 736              		.loc 1 347 0
 737 0428 094B     		ldr	r3, .L47
 738 042a 1B78     		ldrb	r3, [r3]	@ zero_extendqisi2
 739 042c 1A46     		mov	r2, r3
 740 042e 094B     		ldr	r3, .L47+4
 741 0430 5021     		movs	r1, #80
 742 0432 9954     		strb	r1, [r3, r2]
 743              	.L43:
 348:RelayTest.c   ****             
 349:RelayTest.c   ****             CyDelay(1000);
 744              		.loc 1 349 0
 745 0434 4FF47A70 		mov	r0, #1000
 746 0438 FFF7FEFF 		bl	CyDelay
 350:RelayTest.c   ****             TestState = INITIALIZE_TEST;                
 747              		.loc 1 350 0
 748 043c 044B     		ldr	r3, .L47
 749 043e 0022     		movs	r2, #0
 750 0440 1A70     		strb	r2, [r3]
 351:RelayTest.c   ****         break;   
 751              		.loc 1 351 0
 752 0442 00BF     		nop
 753              	.L2:
 352:RelayTest.c   ****             
 353:RelayTest.c   ****         case FAIL:  
 354:RelayTest.c   ****         
 355:RelayTest.c   ****         break;          
 356:RelayTest.c   ****            
 357:RelayTest.c   ****     }
 358:RelayTest.c   ****       
 359:RelayTest.c   ****     return(0);
 754              		.loc 1 359 0
 755 0444 0023     		movs	r3, #0
 360:RelayTest.c   ****     
 361:RelayTest.c   **** }
 756              		.loc 1 361 0
 757 0446 1846     		mov	r0, r3
 758 0448 0837     		adds	r7, r7, #8
 759              		.cfi_def_cfa_offset 8
 760 044a BD46     		mov	sp, r7
ARM GAS  C:\Users\MARTHN~1\AppData\Local\Temp\cc3bmeFF.s 			page 21


 761              		.cfi_def_cfa_register 13
 762              		@ sp needed
 763 044c 80BD     		pop	{r7, pc}
 764              	.L48:
 765 044e 00BF     		.align	2
 766              	.L47:
 767 0450 02010000 		.word	TestState
 768 0454 F8000000 		.word	RelayTestStatus
 769 0458 F4000000 		.word	RTest_20ms_isr_count
 770 045c F6000000 		.word	RTest_20ms_isr_EN
 771              		.cfi_endproc
 772              	.LFE63:
 773              		.size	RelayTest, .-RelayTest
 774              		.section	.text.RTest_Test_Outputs,"ax",%progbits
 775              		.align	2
 776              		.global	RTest_Test_Outputs
 777              		.thumb
 778              		.thumb_func
 779              		.type	RTest_Test_Outputs, %function
 780              	RTest_Test_Outputs:
 781              	.LFB64:
 362:RelayTest.c   **** 
 363:RelayTest.c   **** /* 230400bps ********************************************************************************
 364:RelayTest.c   **** *  Send 'P' packet (or 'I' packet)   (controller to relay)  - turn on all relay outputs
 365:RelayTest.c   **** *  Read Hardware                            - read each input, verify all are active
 366:RelayTest.c   **** *  Return: Pass/Fail
 367:RelayTest.c   **** *********************************************************************************************/
 368:RelayTest.c   **** uint8 RTest_Test_Outputs(void)
 369:RelayTest.c   **** {
 782              		.loc 1 369 0
 783              		.cfi_startproc
 784              		@ args = 0, pretend = 0, frame = 8
 785              		@ frame_needed = 1, uses_anonymous_args = 0
 786 0000 80B5     		push	{r7, lr}
 787              		.cfi_def_cfa_offset 8
 788              		.cfi_offset 7, -8
 789              		.cfi_offset 14, -4
 790 0002 82B0     		sub	sp, sp, #8
 791              		.cfi_def_cfa_offset 16
 792 0004 00AF     		add	r7, sp, #0
 793              		.cfi_def_cfa_register 7
 370:RelayTest.c   **** 
 371:RelayTest.c   ****     //DEMUX_CTRL_230400_Write(RTEST_CONT);                // Tx - Select the demux channel
 372:RelayTest.c   ****     pTxPacket_RelaySiren = getTxPacket_RelaySiren();              // Tx - Get pointers to packet   
 794              		.loc 1 372 0
 795 0006 FFF7FEFF 		bl	getTxPacket_RelaySiren
 796 000a 0246     		mov	r2, r0
 797 000c 204B     		ldr	r3, .L54
 798 000e 1A60     		str	r2, [r3]
 373:RelayTest.c   ****     
 374:RelayTest.c   ****     pTxPacket_RelaySiren->Payload.Outputs_1to8 = 0xFF;       // Turn on all outputs
 799              		.loc 1 374 0
 800 0010 1F4B     		ldr	r3, .L54
 801 0012 1B68     		ldr	r3, [r3]
 802 0014 FF22     		movs	r2, #255
 803 0016 83F84520 		strb	r2, [r3, #69]
 375:RelayTest.c   ****     pTxPacket_RelaySiren->Payload.Outputs_25to32 = 0xFF; 
ARM GAS  C:\Users\MARTHN~1\AppData\Local\Temp\cc3bmeFF.s 			page 22


 804              		.loc 1 375 0
 805 001a 1D4B     		ldr	r3, .L54
 806 001c 1B68     		ldr	r3, [r3]
 807 001e FF22     		movs	r2, #255
 808 0020 83F84820 		strb	r2, [r3, #72]
 376:RelayTest.c   ****     pTxPacket_RelaySiren->Payload.Outputs_9to16 = 0xFF;
 809              		.loc 1 376 0
 810 0024 1A4B     		ldr	r3, .L54
 811 0026 1B68     		ldr	r3, [r3]
 812 0028 FF22     		movs	r2, #255
 813 002a 83F84620 		strb	r2, [r3, #70]
 377:RelayTest.c   ****     pTxPacket_RelaySiren->Payload.Outputs_17to24 = 0xFF;
 814              		.loc 1 377 0
 815 002e 184B     		ldr	r3, .L54
 816 0030 1B68     		ldr	r3, [r3]
 817 0032 FF22     		movs	r2, #255
 818 0034 83F84720 		strb	r2, [r3, #71]
 378:RelayTest.c   ****     
 379:RelayTest.c   ****     //while(1);
 380:RelayTest.c   ****     
 381:RelayTest.c   ****     uint32 OutputsState = 0;
 819              		.loc 1 381 0
 820 0038 0023     		movs	r3, #0
 821 003a 3B60     		str	r3, [r7]
 822              	.LBB4:
 382:RelayTest.c   ****     static uint32 channel = 0;
 383:RelayTest.c   ****     
 384:RelayTest.c   ****     //*** Address channel 'channel 0-31' in hardware
 385:RelayTest.c   ****     //selectADCChannelMux(0);                           //*** This needs to be fleshed out when har
 386:RelayTest.c   ****     
 387:RelayTest.c   ****     for (uint8 channel=0; channel<32; channel++)
 823              		.loc 1 387 0
 824 003c 0023     		movs	r3, #0
 825 003e FB71     		strb	r3, [r7, #7]
 826 0040 02E0     		b	.L50
 827              	.L51:
 828              		.loc 1 387 0 is_stmt 0 discriminator 3
 829 0042 FB79     		ldrb	r3, [r7, #7]	@ zero_extendqisi2
 830 0044 0133     		adds	r3, r3, #1
 831 0046 FB71     		strb	r3, [r7, #7]
 832              	.L50:
 833              		.loc 1 387 0 discriminator 1
 834 0048 FB79     		ldrb	r3, [r7, #7]	@ zero_extendqisi2
 835 004a 1F2B     		cmp	r3, #31
 836 004c F9D9     		bls	.L51
 837              	.LBE4:
 388:RelayTest.c   ****     {
 389:RelayTest.c   ****         //*** Address channel 'channel'
 390:RelayTest.c   ****         // OutputsState = ( RTest_INPUT_DEMUX | (RTest_INPUT_DEMUX << channel) )    // Read RTest_I
 391:RelayTest.c   ****     }
 392:RelayTest.c   ****     
 393:RelayTest.c   ****     pTxPacket_RelaySiren->Payload.Outputs_1to8 = 0x00;       // Turn off all Relay outputs
 838              		.loc 1 393 0 is_stmt 1
 839 004e 104B     		ldr	r3, .L54
 840 0050 1B68     		ldr	r3, [r3]
 841 0052 0022     		movs	r2, #0
 842 0054 83F84520 		strb	r2, [r3, #69]
ARM GAS  C:\Users\MARTHN~1\AppData\Local\Temp\cc3bmeFF.s 			page 23


 394:RelayTest.c   ****     pTxPacket_RelaySiren->Payload.Outputs_9to16 = 0x00;
 843              		.loc 1 394 0
 844 0058 0D4B     		ldr	r3, .L54
 845 005a 1B68     		ldr	r3, [r3]
 846 005c 0022     		movs	r2, #0
 847 005e 83F84620 		strb	r2, [r3, #70]
 395:RelayTest.c   ****     pTxPacket_RelaySiren->Payload.Outputs_17to24 = 0x00;
 848              		.loc 1 395 0
 849 0062 0B4B     		ldr	r3, .L54
 850 0064 1B68     		ldr	r3, [r3]
 851 0066 0022     		movs	r2, #0
 852 0068 83F84720 		strb	r2, [r3, #71]
 396:RelayTest.c   ****     pTxPacket_RelaySiren->Payload.Outputs_25to32 = 0x00;
 853              		.loc 1 396 0
 854 006c 084B     		ldr	r3, .L54
 855 006e 1B68     		ldr	r3, [r3]
 856 0070 0022     		movs	r2, #0
 857 0072 83F84820 		strb	r2, [r3, #72]
 397:RelayTest.c   ****     
 398:RelayTest.c   ****     if(OutputsState == 0xFFFFFF)
 858              		.loc 1 398 0
 859 0076 3B68     		ldr	r3, [r7]
 860 0078 6FF07F42 		mvn	r2, #-16777216
 861 007c 9342     		cmp	r3, r2
 862 007e 01D1     		bne	.L52
 399:RelayTest.c   ****         return(1);                                      // If all outputs are turned on, then retur
 863              		.loc 1 399 0
 864 0080 0123     		movs	r3, #1
 865 0082 00E0     		b	.L53
 866              	.L52:
 400:RelayTest.c   ****     else
 401:RelayTest.c   ****         return(0);                                      // If not pass, then return fail
 867              		.loc 1 401 0
 868 0084 0023     		movs	r3, #0
 869              	.L53:
 402:RelayTest.c   **** }
 870              		.loc 1 402 0
 871 0086 1846     		mov	r0, r3
 872 0088 0837     		adds	r7, r7, #8
 873              		.cfi_def_cfa_offset 8
 874 008a BD46     		mov	sp, r7
 875              		.cfi_def_cfa_register 13
 876              		@ sp needed
 877 008c 80BD     		pop	{r7, pc}
 878              	.L55:
 879 008e 00BF     		.align	2
 880              	.L54:
 881 0090 64000000 		.word	pTxPacket_RelaySiren
 882              		.cfi_endproc
 883              	.LFE64:
 884              		.size	RTest_Test_Outputs, .-RTest_Test_Outputs
 885              		.section	.text.RTest_Test_DataLink,"ax",%progbits
 886              		.align	2
 887              		.global	RTest_Test_DataLink
 888              		.thumb
 889              		.thumb_func
 890              		.type	RTest_Test_DataLink, %function
ARM GAS  C:\Users\MARTHN~1\AppData\Local\Temp\cc3bmeFF.s 			page 24


 891              	RTest_Test_DataLink:
 892              	.LFB65:
 403:RelayTest.c   **** 
 404:RelayTest.c   **** /* 230400/115200bps **************************************************************************
 405:RelayTest.c   **** *  230400 - Tx - Send 'S' packet   (controller to relay/siren)    - turn on all relay outputs
 406:RelayTest.c   **** *  115200 - Rx - Read 'S' packet   (relay to datalink device)     - verify successful packet recept
 407:RelayTest.c   **** *  Return: Pass/Fail
 408:RelayTest.c   **** *********************************************************************************************/
 409:RelayTest.c   **** uint8 RTest_Test_DataLink(void)
 410:RelayTest.c   **** {
 893              		.loc 1 410 0
 894              		.cfi_startproc
 895              		@ args = 0, pretend = 0, frame = 0
 896              		@ frame_needed = 1, uses_anonymous_args = 0
 897              		@ link register save eliminated.
 898 0000 80B4     		push	{r7}
 899              		.cfi_def_cfa_offset 4
 900              		.cfi_offset 7, -4
 901 0002 00AF     		add	r7, sp, #0
 902              		.cfi_def_cfa_register 7
 411:RelayTest.c   ****     
 412:RelayTest.c   **** //    //*** 230400bps - Send simulated controller packet - (siren packet)
 413:RelayTest.c   **** //    //  (I think this packet should be sent all the time)
 414:RelayTest.c   **** //        pTxPacket_Relay->Payload.Siren1Tone;
 415:RelayTest.c   **** //        pTxPacket_Relay->Payload.Siren2Tone;
 416:RelayTest.c   **** //        pTxPacket_Relay->Payload.SirenEnable;
 417:RelayTest.c   ****     
 418:RelayTest.c   **** //    //MUX_CTRL_115200_Write(RTEST_DLINK1);            //Select the RTest_RS485_DLink1_RX channel 
 419:RelayTest.c   **** //    while( !VerifyPacket_115200(RTEST_DLINK1) )     //Read and verify datalink packet
 420:RelayTest.c   **** //    {}
 421:RelayTest.c   **** //    //MUX_CTRL_115200_Write(RTEST_DLINK2);            //Select the RTest_RS485_DLink1_RX channel 
 422:RelayTest.c   **** //    while( !VerifyPacket_115200(RTEST_DLINK2) )     //Read and verify datalink packet
 423:RelayTest.c   **** //    {}
 424:RelayTest.c   ****     
 425:RelayTest.c   ****     return(1);                                      // If both packets get verified, then return pa
 903              		.loc 1 425 0
 904 0004 0123     		movs	r3, #1
 426:RelayTest.c   **** }
 905              		.loc 1 426 0
 906 0006 1846     		mov	r0, r3
 907 0008 BD46     		mov	sp, r7
 908              		.cfi_def_cfa_register 13
 909              		@ sp needed
 910 000a 80BC     		pop	{r7}
 911              		.cfi_restore 7
 912              		.cfi_def_cfa_offset 0
 913 000c 7047     		bx	lr
 914              		.cfi_endproc
 915              	.LFE65:
 916              		.size	RTest_Test_DataLink, .-RTest_Test_DataLink
 917 000e 00BF     		.section	.text.RTest_Test_QuadPorts,"ax",%progbits
 918              		.align	2
 919              		.global	RTest_Test_QuadPorts
 920              		.thumb
 921              		.thumb_func
 922              		.type	RTest_Test_QuadPorts, %function
 923              	RTest_Test_QuadPorts:
ARM GAS  C:\Users\MARTHN~1\AppData\Local\Temp\cc3bmeFF.s 			page 25


 924              	.LFB66:
 427:RelayTest.c   **** 
 428:RelayTest.c   **** /* 460800bps ********************************************************************************
 429:RelayTest.c   **** *  Send 'L' packet   (controller to relay)
 430:RelayTest.c   **** *  Read 'L' packet   (relay to quad device)  - verify successful packet reception
 431:RelayTest.c   **** *  Return: Pass/Fail
 432:RelayTest.c   **** *********************************************************************************************/
 433:RelayTest.c   **** uint8 RTest_Test_QuadPorts(void)
 434:RelayTest.c   **** {
 925              		.loc 1 434 0
 926              		.cfi_startproc
 927              		@ args = 0, pretend = 0, frame = 8
 928              		@ frame_needed = 1, uses_anonymous_args = 0
 929 0000 80B5     		push	{r7, lr}
 930              		.cfi_def_cfa_offset 8
 931              		.cfi_offset 7, -8
 932              		.cfi_offset 14, -4
 933 0002 82B0     		sub	sp, sp, #8
 934              		.cfi_def_cfa_offset 16
 935 0004 00AF     		add	r7, sp, #0
 936              		.cfi_def_cfa_register 7
 937              	.LBB5:
 435:RelayTest.c   ****     //*** Next Steps
 436:RelayTest.c   ****     //  1 - Place new micro and get rev02 siren up and running
 437:RelayTest.c   ****     //  2 - Setup hardware to read in RS-485 from quad port 1 on the relay, and send quad data thro
 438:RelayTest.c   ****     //  3 - Setup relay to receive UART quad data through correct channel
 439:RelayTest.c   ****     
 440:RelayTest.c   ****     
 441:RelayTest.c   ****     
 442:RelayTest.c   ****     //DEMUX_CTRL_460800_Write(RTEST_QUAD_TX);             // Tx - Select Quad_Tx demux channel
 443:RelayTest.c   ****     
 444:RelayTest.c   ****     //*** Select the mux channel to test - need to do all of them sequentially
 445:RelayTest.c   ****     for(uint8 muxchannel = 0; muxchannel < 8; muxchannel++)
 938              		.loc 1 445 0
 939 0006 0023     		movs	r3, #0
 940 0008 FB71     		strb	r3, [r7, #7]
 941 000a 02E0     		b	.L59
 942              	.L60:
 943              		.loc 1 445 0 is_stmt 0 discriminator 3
 944 000c FB79     		ldrb	r3, [r7, #7]	@ zero_extendqisi2
 945 000e 0133     		adds	r3, r3, #1
 946 0010 FB71     		strb	r3, [r7, #7]
 947              	.L59:
 948              		.loc 1 445 0 discriminator 1
 949 0012 FB79     		ldrb	r3, [r7, #7]	@ zero_extendqisi2
 950 0014 072B     		cmp	r3, #7
 951 0016 F9D9     		bls	.L60
 952              	.LBE5:
 446:RelayTest.c   ****     {
 447:RelayTest.c   ****         //MUX_CTRL_460800_Write(muxchannel);
 448:RelayTest.c   ****         
 449:RelayTest.c   ****         // verify that channel
 450:RelayTest.c   ****     }
 451:RelayTest.c   ****     
 452:RelayTest.c   ****     return( VerifyPacket_460800(QTEST_QUAD) );
 953              		.loc 1 452 0 is_stmt 1
 954 0018 0320     		movs	r0, #3
ARM GAS  C:\Users\MARTHN~1\AppData\Local\Temp\cc3bmeFF.s 			page 26


 955 001a FFF7FEFF 		bl	VerifyPacket_460800
 956 001e 0346     		mov	r3, r0
 453:RelayTest.c   **** }
 957              		.loc 1 453 0
 958 0020 1846     		mov	r0, r3
 959 0022 0837     		adds	r7, r7, #8
 960              		.cfi_def_cfa_offset 8
 961 0024 BD46     		mov	sp, r7
 962              		.cfi_def_cfa_register 13
 963              		@ sp needed
 964 0026 80BD     		pop	{r7, pc}
 965              		.cfi_endproc
 966              	.LFE66:
 967              		.size	RTest_Test_QuadPorts, .-RTest_Test_QuadPorts
 968              		.section	.text.RTest_Test_UART_Siren,"ax",%progbits
 969              		.align	2
 970              		.global	RTest_Test_UART_Siren
 971              		.thumb
 972              		.thumb_func
 973              		.type	RTest_Test_UART_Siren, %function
 974              	RTest_Test_UART_Siren:
 975              	.LFB67:
 454:RelayTest.c   **** 
 455:RelayTest.c   **** //*** This needs some work
 456:RelayTest.c   **** /* 230400bps ********************************************************************************
 457:RelayTest.c   **** *  ***Send 'H' packet   (siren to relay)
 458:RelayTest.c   **** *  ***Read 'D' packet   (relay to controller)   - verify successful packet reception
 459:RelayTest.c   **** *  Return: Pass/Fail
 460:RelayTest.c   **** *********************************************************************************************/
 461:RelayTest.c   **** uint8 RTest_Test_UART_Siren(void)
 462:RelayTest.c   **** {
 976              		.loc 1 462 0
 977              		.cfi_startproc
 978              		@ args = 0, pretend = 0, frame = 0
 979              		@ frame_needed = 1, uses_anonymous_args = 0
 980              		@ link register save eliminated.
 981 0000 80B4     		push	{r7}
 982              		.cfi_def_cfa_offset 4
 983              		.cfi_offset 7, -4
 984 0002 00AF     		add	r7, sp, #0
 985              		.cfi_def_cfa_register 7
 463:RelayTest.c   **** // We need to send a Siren packet (through relay to controller) - ***passes through the micro
 464:RelayTest.c   **** // Then check that the packet going from the relay to the controller    
 465:RelayTest.c   ****    
 466:RelayTest.c   **** //    // test receive from siren
 467:RelayTest.c   **** //    DEMUX_CTRL_230400_Write(RTEST_SIREN);                  // Rx - Select the demux channel
 468:RelayTest.c   **** //
 469:RelayTest.c   **** //    pTxPacket_H = getTxPacket_H();                          // Load the packet with data to check
 470:RelayTest.c   **** //    pTxPacket_H->Payload.SirenFirm_0 = 's';
 471:RelayTest.c   **** //    pTxPacket_H->Payload.SirenFirm_1 = 's';
 472:RelayTest.c   **** //    pTxPacket_H->Payload.SirenFirm_2 = 's';
 473:RelayTest.c   **** //    pTxPacket_H->Payload.Speaker1_Overcurrent = 's';
 474:RelayTest.c   **** //    pTxPacket_H->Payload.Speaker2_Overcurrent = 's';
 475:RelayTest.c   **** //
 476:RelayTest.c   **** //    
 477:RelayTest.c   **** //    // test transmit to controller ***need tx wires on relay to test
 478:RelayTest.c   **** //    MUX_CTRL_230400_Write(RTEST_CONT);                                  // Rx - Select the mux ch
ARM GAS  C:\Users\MARTHN~1\AppData\Local\Temp\cc3bmeFF.s 			page 27


 479:RelayTest.c   **** //    
 480:RelayTest.c   **** ////    pRxPacket_Relay = getRxPacket_Relay();                              // Rx - Get pointers to
 481:RelayTest.c   **** ////    while(  (pRxPacket_Relay->Payload.SirenFirm_0 != 's' ) &&           // Wait for the packet 
 482:RelayTest.c   **** ////            (pRxPacket_Relay->Payload.SirenFirm_1 != 's' ) &&
 483:RelayTest.c   **** ////            (pRxPacket_Relay->Payload.SirenFirm_2 != 's' ) &&
 484:RelayTest.c   **** ////            (pRxPacket_Relay->Payload.Speaker1_Overcurrent != 's' ) &&
 485:RelayTest.c   **** ////            (pRxPacket_Relay->Payload.Speaker2_Overcurrent != 's' ) )
 486:RelayTest.c   **** ////    {}
 487:RelayTest.c   **** ////          
 488:RelayTest.c   **** ////    LED_EN_Write(1);
 489:RelayTest.c   **** //----------------------------------------------------------------------------------------------
 490:RelayTest.c   ****     
 491:RelayTest.c   **** // ***We need to detect a packet going (from the relay to the siren)
 492:RelayTest.c   **** // Send a 'S' packet (from controller to relay/siren)
 493:RelayTest.c   **** // Read and verify 'S' packets (from relay to siren)
 494:RelayTest.c   ****     
 495:RelayTest.c   ****     //DEMUX_CTRL_230400_Write(RTEST_CONT);                // Tx - Select the demux channel
 496:RelayTest.c   ****     //(no need to load the packet)
 497:RelayTest.c   ****     //CyDelay(100);
 498:RelayTest.c   ****     
 499:RelayTest.c   **** //////    pTxPacket_Relay = getTxPacket_Relay();              // Tx - Get pointers to packet
 500:RelayTest.c   **** //////    pTxPacket_Relay->Payload.SirenFirm_0 = 0;          // Tx - Setup packet with test data
 501:RelayTest.c   **** //////    pTxPacket_Relay->Payload.SirenFirm_1 = 1;
 502:RelayTest.c   **** //////    pTxPacket_Relay->Payload.SirenFirm_2 = 2;
 503:RelayTest.c   **** //////    pTxPacket_Relay->Payload.Speaker1_Overcurrent = 1;
 504:RelayTest.c   **** //////    pTxPacket_Relay->Payload.Speaker2_Overcurrent = 1;
 505:RelayTest.c   ****     
 506:RelayTest.c   ****     //MUX_CTRL_230400_Write(RTEST_SIREN);                                  // Rx - Select the mux c
 507:RelayTest.c   ****     //CyDelay(100);
 508:RelayTest.c   ****     //return( VerifyPacket_230400(STEST_RELAY) );          // Rx - When packet has been verified, r
 509:RelayTest.c   **** 
 510:RelayTest.c   ****     return(0);
 986              		.loc 1 510 0
 987 0004 0023     		movs	r3, #0
 511:RelayTest.c   **** }
 988              		.loc 1 511 0
 989 0006 1846     		mov	r0, r3
 990 0008 BD46     		mov	sp, r7
 991              		.cfi_def_cfa_register 13
 992              		@ sp needed
 993 000a 80BC     		pop	{r7}
 994              		.cfi_restore 7
 995              		.cfi_def_cfa_offset 0
 996 000c 7047     		bx	lr
 997              		.cfi_endproc
 998              	.LFE67:
 999              		.size	RTest_Test_UART_Siren, .-RTest_Test_UART_Siren
 1000 000e 00BF     		.section	.text.RTest_Test_Inputs,"ax",%progbits
 1001              		.align	2
 1002              		.global	RTest_Test_Inputs
 1003              		.thumb
 1004              		.thumb_func
 1005              		.type	RTest_Test_Inputs, %function
 1006              	RTest_Test_Inputs:
 1007              	.LFB68:
 512:RelayTest.c   **** 
 513:RelayTest.c   **** 
ARM GAS  C:\Users\MARTHN~1\AppData\Local\Temp\cc3bmeFF.s 			page 28


 514:RelayTest.c   **** /* 230400bps *****************************************************************************
 515:RelayTest.c   **** *  Send 'P' packet (controller to relay) - set input logic  
 516:RelayTest.c   **** *  Read 'D' packet (relay to controller) - verify the 'RelayInputs' byte 
 517:RelayTest.c   **** *  Return: Pass/Fail
 518:RelayTest.c   **** ******************************************************************************************/
 519:RelayTest.c   **** uint8 RTest_Test_Inputs(void)
 520:RelayTest.c   **** {
 1008              		.loc 1 520 0
 1009              		.cfi_startproc
 1010              		@ args = 0, pretend = 0, frame = 0
 1011              		@ frame_needed = 1, uses_anonymous_args = 0
 1012 0000 80B5     		push	{r7, lr}
 1013              		.cfi_def_cfa_offset 8
 1014              		.cfi_offset 7, -8
 1015              		.cfi_offset 14, -4
 1016 0002 00AF     		add	r7, sp, #0
 1017              		.cfi_def_cfa_register 7
 521:RelayTest.c   ****     
 522:RelayTest.c   ****     //MUX_CTRL_230400_Write(RTEST_CONT);                  // Rx - Select the mux channel
 523:RelayTest.c   ****     pRxPacket_Relay = getRxPacket_Relay();              // Rx - Get pointers to packet
 1018              		.loc 1 523 0
 1019 0004 FFF7FEFF 		bl	getRxPacket_Relay
 1020 0008 0246     		mov	r2, r0
 1021 000a 0D4B     		ldr	r3, .L67
 1022 000c 1A60     		str	r2, [r3]
 524:RelayTest.c   ****     
 525:RelayTest.c   ****     //DEMUX_CTRL_230400_Write(RTEST_CONT);                // Tx - Select the demux channel
 526:RelayTest.c   ****     pTxPacket_RelaySiren = getTxPacket_RelaySiren();              // Tx - Get pointers to packet
 1023              		.loc 1 526 0
 1024 000e FFF7FEFF 		bl	getTxPacket_RelaySiren
 1025 0012 0246     		mov	r2, r0
 1026 0014 0B4B     		ldr	r3, .L67+4
 1027 0016 1A60     		str	r2, [r3]
 527:RelayTest.c   ****     
 528:RelayTest.c   ****     // RTest_HSide1_Write(0);                           // Deactivate all inputs
 529:RelayTest.c   ****     // RTest_HSide2_Write(0);
 530:RelayTest.c   ****     // RTest_HSide3_Write(0);
 531:RelayTest.c   ****     // RTest_HSide4_Write(0);
 532:RelayTest.c   ****     // RTest_HSide5_Write(0);
 533:RelayTest.c   ****     // RTest_HSide6_Write(0);
 534:RelayTest.c   ****     // RTest_HSide7_Write(0);
 535:RelayTest.c   ****     // RTest_HSide8_Write(0);
 536:RelayTest.c   ****     
 537:RelayTest.c   ****     pTxPacket_RelaySiren->Payload.HiLoInputLogic = 0x00;     // Set the input logic to be all low
 1028              		.loc 1 537 0
 1029 0018 0A4B     		ldr	r3, .L67+4
 1030 001a 1B68     		ldr	r3, [r3]
 1031 001c 0022     		movs	r2, #0
 1032 001e 83F84920 		strb	r2, [r3, #73]
 538:RelayTest.c   ****     
 539:RelayTest.c   ****     //while(1);
 540:RelayTest.c   ****     
 541:RelayTest.c   **** //    if(pRxPacket_Relay->Payload.RelayInputs != 0x00)    // Verify all inputs are deactivated, if 
 542:RelayTest.c   **** //        return(0);
 543:RelayTest.c   ****     
 544:RelayTest.c   ****     pTxPacket_RelaySiren->Payload.HiLoInputLogic = 0xFF;     // Set the input logic to be all hi
 1033              		.loc 1 544 0
ARM GAS  C:\Users\MARTHN~1\AppData\Local\Temp\cc3bmeFF.s 			page 29


 1034 0022 084B     		ldr	r3, .L67+4
 1035 0024 1B68     		ldr	r3, [r3]
 1036 0026 FF22     		movs	r2, #255
 1037 0028 83F84920 		strb	r2, [r3, #73]
 545:RelayTest.c   ****     
 546:RelayTest.c   ****     
 547:RelayTest.c   ****     
 548:RelayTest.c   **** //    if(pRxPacket_Relay->Payload.RelayInputs != 0x00)    // Verify all inputs are deactivated, if 
 549:RelayTest.c   **** //        return(0);
 550:RelayTest.c   ****     
 551:RelayTest.c   ****     // RTest_HSide1_Write(1);                           // Activate all inputs
 552:RelayTest.c   ****     // RTest_HSide2_Write(1);
 553:RelayTest.c   ****     // RTest_HSide3_Write(1);
 554:RelayTest.c   ****     // RTest_HSide4_Write(1);
 555:RelayTest.c   ****     // RTest_HSide5_Write(1);
 556:RelayTest.c   ****     // RTest_HSide6_Write(1);
 557:RelayTest.c   ****     // RTest_HSide7_Write(1);
 558:RelayTest.c   ****     // RTest_HSide8_Write(1);
 559:RelayTest.c   ****     
 560:RelayTest.c   ****     if(pRxPacket_Relay->Payload.RelayInputs != 0xFF)    // Verify all inputs are activated, if not 
 1038              		.loc 1 560 0
 1039 002c 044B     		ldr	r3, .L67
 1040 002e 1B68     		ldr	r3, [r3]
 1041 0030 DB79     		ldrb	r3, [r3, #7]	@ zero_extendqisi2
 1042 0032 FF2B     		cmp	r3, #255
 1043 0034 01D0     		beq	.L65
 561:RelayTest.c   ****         return(0);
 1044              		.loc 1 561 0
 1045 0036 0023     		movs	r3, #0
 1046 0038 00E0     		b	.L66
 1047              	.L65:
 562:RelayTest.c   ****     
 563:RelayTest.c   ****     return(1);                                          // If this step was not failed, return pass
 1048              		.loc 1 563 0
 1049 003a 0123     		movs	r3, #1
 1050              	.L66:
 564:RelayTest.c   **** }
 1051              		.loc 1 564 0
 1052 003c 1846     		mov	r0, r3
 1053 003e 80BD     		pop	{r7, pc}
 1054              	.L68:
 1055              		.align	2
 1056              	.L67:
 1057 0040 10000000 		.word	pRxPacket_Relay
 1058 0044 64000000 		.word	pTxPacket_RelaySiren
 1059              		.cfi_endproc
 1060              	.LFE68:
 1061              		.size	RTest_Test_Inputs, .-RTest_Test_Inputs
 1062              		.section	.text.RTest_Test_Vbatt,"ax",%progbits
 1063              		.align	2
 1064              		.global	RTest_Test_Vbatt
 1065              		.thumb
 1066              		.thumb_func
 1067              		.type	RTest_Test_Vbatt, %function
 1068              	RTest_Test_Vbatt:
 1069              	.LFB69:
 565:RelayTest.c   **** 
ARM GAS  C:\Users\MARTHN~1\AppData\Local\Temp\cc3bmeFF.s 			page 30


 566:RelayTest.c   **** 
 567:RelayTest.c   **** /* 230400bps *****************************************************************************
 568:RelayTest.c   **** *  Read a 'D' packet (relay to controller)  - verify the 'Voltage_BATT' byte
 569:RelayTest.c   **** *  Return: Pass/Fail
 570:RelayTest.c   **** ******************************************************************************************/
 571:RelayTest.c   **** uint8 RTest_Test_Vbatt(void)
 572:RelayTest.c   **** {
 1070              		.loc 1 572 0
 1071              		.cfi_startproc
 1072              		@ args = 0, pretend = 0, frame = 8
 1073              		@ frame_needed = 1, uses_anonymous_args = 0
 1074 0000 80B5     		push	{r7, lr}
 1075              		.cfi_def_cfa_offset 8
 1076              		.cfi_offset 7, -8
 1077              		.cfi_offset 14, -4
 1078 0002 82B0     		sub	sp, sp, #8
 1079              		.cfi_def_cfa_offset 16
 1080 0004 00AF     		add	r7, sp, #0
 1081              		.cfi_def_cfa_register 7
 573:RelayTest.c   **** //    MUX_CTRL_230400_Write(RTEST_CONT);                              // Rx - Select the mux channe
 574:RelayTest.c   ****     pRxPacket_Relay = getRxPacket_Relay();                          // Rx - Get pointers to packet
 1082              		.loc 1 574 0
 1083 0006 FFF7FEFF 		bl	getRxPacket_Relay
 1084 000a 0246     		mov	r2, r0
 1085 000c 0A4B     		ldr	r3, .L72
 1086 000e 1A60     		str	r2, [r3]
 575:RelayTest.c   ****     
 576:RelayTest.c   ****     uint8 Vbatt_Reading = 0;
 1087              		.loc 1 576 0
 1088 0010 0023     		movs	r3, #0
 1089 0012 FB71     		strb	r3, [r7, #7]
 577:RelayTest.c   ****     
 578:RelayTest.c   ****     Vbatt_Reading = pRxPacket_Relay->Payload.Voltage_BATT;          // Read Vbatt value
 1090              		.loc 1 578 0
 1091 0014 084B     		ldr	r3, .L72
 1092 0016 1B68     		ldr	r3, [r3]
 1093 0018 1B79     		ldrb	r3, [r3, #4]
 1094 001a FB71     		strb	r3, [r7, #7]
 579:RelayTest.c   ****     
 580:RelayTest.c   ****     if( (Vbatt_Reading < (VOLTAGE_SYSTEM + TOLERANCE_VOLTAGE) ) &&
 1095              		.loc 1 580 0
 1096 001c FB79     		ldrb	r3, [r7, #7]	@ zero_extendqisi2
 1097 001e 7C2B     		cmp	r3, #124
 1098 0020 04D8     		bhi	.L70
 1099              		.loc 1 580 0 is_stmt 0 discriminator 1
 1100 0022 FB79     		ldrb	r3, [r7, #7]	@ zero_extendqisi2
 1101 0024 732B     		cmp	r3, #115
 1102 0026 01D9     		bls	.L70
 581:RelayTest.c   ****         (Vbatt_Reading > (VOLTAGE_SYSTEM - TOLERANCE_VOLTAGE) ) )
 582:RelayTest.c   ****         return(1);                                                  // If Vbatt is within TOLERANCE
 1103              		.loc 1 582 0 is_stmt 1
 1104 0028 0123     		movs	r3, #1
 1105 002a 00E0     		b	.L71
 1106              	.L70:
 583:RelayTest.c   ****     else
 584:RelayTest.c   ****         return(0);                                                  // If not pass, then return fai
 1107              		.loc 1 584 0
ARM GAS  C:\Users\MARTHN~1\AppData\Local\Temp\cc3bmeFF.s 			page 31


 1108 002c 0023     		movs	r3, #0
 1109              	.L71:
 585:RelayTest.c   **** }
 1110              		.loc 1 585 0
 1111 002e 1846     		mov	r0, r3
 1112 0030 0837     		adds	r7, r7, #8
 1113              		.cfi_def_cfa_offset 8
 1114 0032 BD46     		mov	sp, r7
 1115              		.cfi_def_cfa_register 13
 1116              		@ sp needed
 1117 0034 80BD     		pop	{r7, pc}
 1118              	.L73:
 1119 0036 00BF     		.align	2
 1120              	.L72:
 1121 0038 10000000 		.word	pRxPacket_Relay
 1122              		.cfi_endproc
 1123              	.LFE69:
 1124              		.size	RTest_Test_Vbatt, .-RTest_Test_Vbatt
 1125              		.section	.text.RTest_Test_BlockCurrents,"ax",%progbits
 1126              		.align	2
 1127              		.global	RTest_Test_BlockCurrents
 1128              		.thumb
 1129              		.thumb_func
 1130              		.type	RTest_Test_BlockCurrents, %function
 1131              	RTest_Test_BlockCurrents:
 1132              	.LFB70:
 586:RelayTest.c   **** 
 587:RelayTest.c   **** /* 230400bps ***************************************************************
 588:RelayTest.c   **** *  Send a 'P'/'I' packet (controller to relay)  - Controller packet to turn on all the Relay output
 589:RelayTest.c   **** *  Read a 'D' packet (relay to controller)  - verify block currents are within a tolerance
 590:RelayTest.c   **** ****************************************************************************/
 591:RelayTest.c   **** uint8 RTest_Test_BlockCurrents(void)
 592:RelayTest.c   **** {
 1133              		.loc 1 592 0
 1134              		.cfi_startproc
 1135              		@ args = 0, pretend = 0, frame = 8
 1136              		@ frame_needed = 1, uses_anonymous_args = 0
 1137 0000 80B5     		push	{r7, lr}
 1138              		.cfi_def_cfa_offset 8
 1139              		.cfi_offset 7, -8
 1140              		.cfi_offset 14, -4
 1141 0002 82B0     		sub	sp, sp, #8
 1142              		.cfi_def_cfa_offset 16
 1143 0004 00AF     		add	r7, sp, #0
 1144              		.cfi_def_cfa_register 7
 593:RelayTest.c   ****     
 594:RelayTest.c   ****     uint8 BlockCurrentPass = 0x00;
 1145              		.loc 1 594 0
 1146 0006 0023     		movs	r3, #0
 1147 0008 FB71     		strb	r3, [r7, #7]
 595:RelayTest.c   ****     uint8 BlockCurrentValue = 0x00;
 1148              		.loc 1 595 0
 1149 000a 0023     		movs	r3, #0
 1150 000c 7B71     		strb	r3, [r7, #5]
 596:RelayTest.c   ****     
 597:RelayTest.c   **** //    MUX_CTRL_230400_Write(RTEST_CONT);                  // Rx - Select the mux channel 
 598:RelayTest.c   ****     pRxPacket_Relay = getRxPacket_Relay();              // Rx - Get pointers to packet
ARM GAS  C:\Users\MARTHN~1\AppData\Local\Temp\cc3bmeFF.s 			page 32


 1151              		.loc 1 598 0
 1152 000e FFF7FEFF 		bl	getRxPacket_Relay
 1153 0012 0246     		mov	r2, r0
 1154 0014 144B     		ldr	r3, .L79
 1155 0016 1A60     		str	r2, [r3]
 599:RelayTest.c   ****     
 600:RelayTest.c   ****     //DEMUX_CTRL_230400_Write(RTEST_CONT);                // Tx - Select the demux channel
 601:RelayTest.c   ****     pTxPacket_RelaySiren = getTxPacket_RelaySiren();              // Tx - Get pointers to packet
 1156              		.loc 1 601 0
 1157 0018 FFF7FEFF 		bl	getTxPacket_RelaySiren
 1158 001c 0246     		mov	r2, r0
 1159 001e 134B     		ldr	r3, .L79+4
 1160 0020 1A60     		str	r2, [r3]
 1161              	.LBB6:
 602:RelayTest.c   ****     
 603:RelayTest.c   ****     for(uint8 i=0;i<4;i++)                              // Save pass/fail for each block channel
 1162              		.loc 1 603 0
 1163 0022 0023     		movs	r3, #0
 1164 0024 BB71     		strb	r3, [r7, #6]
 1165 0026 10E0     		b	.L75
 1166              	.L76:
 604:RelayTest.c   ****     {
 605:RelayTest.c   ****         BlockCurrentValue = RTest_BlockCurrent(i);
 1167              		.loc 1 605 0 discriminator 3
 1168 0028 BB79     		ldrb	r3, [r7, #6]	@ zero_extendqisi2
 1169 002a 1846     		mov	r0, r3
 1170 002c FFF7FEFF 		bl	RTest_BlockCurrent
 1171 0030 0346     		mov	r3, r0
 1172 0032 7B71     		strb	r3, [r7, #5]
 606:RelayTest.c   ****         BlockCurrentPass = (BlockCurrentPass << 1) | BlockCurrentValue;
 1173              		.loc 1 606 0 discriminator 3
 1174 0034 FB79     		ldrb	r3, [r7, #7]	@ zero_extendqisi2
 1175 0036 5B00     		lsls	r3, r3, #1
 1176 0038 5AB2     		sxtb	r2, r3
 1177 003a 97F90530 		ldrsb	r3, [r7, #5]
 1178 003e 1343     		orrs	r3, r3, r2
 1179 0040 5BB2     		sxtb	r3, r3
 1180 0042 FB71     		strb	r3, [r7, #7]
 603:RelayTest.c   ****     {
 1181              		.loc 1 603 0 discriminator 3
 1182 0044 BB79     		ldrb	r3, [r7, #6]	@ zero_extendqisi2
 1183 0046 0133     		adds	r3, r3, #1
 1184 0048 BB71     		strb	r3, [r7, #6]
 1185              	.L75:
 603:RelayTest.c   ****     {
 1186              		.loc 1 603 0 is_stmt 0 discriminator 1
 1187 004a BB79     		ldrb	r3, [r7, #6]	@ zero_extendqisi2
 1188 004c 032B     		cmp	r3, #3
 1189 004e EBD9     		bls	.L76
 1190              	.LBE6:
 607:RelayTest.c   ****     }
 608:RelayTest.c   ****     
 609:RelayTest.c   ****     if( (BlockCurrentPass & 0x0F) == 0x0F)
 1191              		.loc 1 609 0 is_stmt 1
 1192 0050 FB79     		ldrb	r3, [r7, #7]	@ zero_extendqisi2
 1193 0052 03F00F03 		and	r3, r3, #15
 1194 0056 0F2B     		cmp	r3, #15
ARM GAS  C:\Users\MARTHN~1\AppData\Local\Temp\cc3bmeFF.s 			page 33


 1195 0058 01D1     		bne	.L77
 610:RelayTest.c   ****         return(1);                                      // If all block currents are within TOLERAN
 1196              		.loc 1 610 0
 1197 005a 0123     		movs	r3, #1
 1198 005c 00E0     		b	.L78
 1199              	.L77:
 611:RelayTest.c   ****     else
 612:RelayTest.c   ****         return(0);                                      // If not pass, then return fail
 1200              		.loc 1 612 0
 1201 005e 0023     		movs	r3, #0
 1202              	.L78:
 613:RelayTest.c   **** 
 614:RelayTest.c   **** }
 1203              		.loc 1 614 0
 1204 0060 1846     		mov	r0, r3
 1205 0062 0837     		adds	r7, r7, #8
 1206              		.cfi_def_cfa_offset 8
 1207 0064 BD46     		mov	sp, r7
 1208              		.cfi_def_cfa_register 13
 1209              		@ sp needed
 1210 0066 80BD     		pop	{r7, pc}
 1211              	.L80:
 1212              		.align	2
 1213              	.L79:
 1214 0068 10000000 		.word	pRxPacket_Relay
 1215 006c 64000000 		.word	pTxPacket_RelaySiren
 1216              		.cfi_endproc
 1217              	.LFE70:
 1218              		.size	RTest_Test_BlockCurrents, .-RTest_Test_BlockCurrents
 1219              		.section	.text.RTest_Test_GPS,"ax",%progbits
 1220              		.align	2
 1221              		.global	RTest_Test_GPS
 1222              		.thumb
 1223              		.thumb_func
 1224              		.type	RTest_Test_GPS, %function
 1225              	RTest_Test_GPS:
 1226              	.LFB71:
 615:RelayTest.c   **** 
 616:RelayTest.c   **** /* 230400bps ****************************************************
 617:RelayTest.c   **** *   (wait for the GPS hardware to acquire a signal)
 618:RelayTest.c   **** *   Read the GPS packet - search for the GPS formated data
 619:RelayTest.c   **** *****************************************************************/
 620:RelayTest.c   **** uint8 RTest_Test_GPS(void)
 621:RelayTest.c   **** {
 1227              		.loc 1 621 0
 1228              		.cfi_startproc
 1229              		@ args = 0, pretend = 0, frame = 0
 1230              		@ frame_needed = 1, uses_anonymous_args = 0
 1231              		@ link register save eliminated.
 1232 0000 80B4     		push	{r7}
 1233              		.cfi_def_cfa_offset 4
 1234              		.cfi_offset 7, -4
 1235 0002 00AF     		add	r7, sp, #0
 1236              		.cfi_def_cfa_register 7
 622:RelayTest.c   ****     
 623:RelayTest.c   ****     static uint8 targetstring[6] = {'$','G','P','M','R','C'};
 624:RelayTest.c   **** 
ARM GAS  C:\Users\MARTHN~1\AppData\Local\Temp\cc3bmeFF.s 			page 34


 625:RelayTest.c   ****     //uint8 findpacket(uint8 dataByte) - this should pass the target string
 626:RelayTest.c   ****     //processByteReceivedHandler_230400(&targetstring);
 627:RelayTest.c   **** 
 628:RelayTest.c   ****     
 629:RelayTest.c   ****     
 630:RelayTest.c   ****     return(0);
 1237              		.loc 1 630 0
 1238 0004 0023     		movs	r3, #0
 631:RelayTest.c   **** }
 1239              		.loc 1 631 0
 1240 0006 1846     		mov	r0, r3
 1241 0008 BD46     		mov	sp, r7
 1242              		.cfi_def_cfa_register 13
 1243              		@ sp needed
 1244 000a 80BC     		pop	{r7}
 1245              		.cfi_restore 7
 1246              		.cfi_def_cfa_offset 0
 1247 000c 7047     		bx	lr
 1248              		.cfi_endproc
 1249              	.LFE71:
 1250              		.size	RTest_Test_GPS, .-RTest_Test_GPS
 1251 000e 00BF     		.section	.text.getRxPacket_Relay,"ax",%progbits
 1252              		.align	2
 1253              		.global	getRxPacket_Relay
 1254              		.thumb
 1255              		.thumb_func
 1256              		.type	getRxPacket_Relay, %function
 1257              	getRxPacket_Relay:
 1258              	.LFB72:
 632:RelayTest.c   **** 
 633:RelayTest.c   **** RxPacket_RelaySiren * getRxPacket_Relay(void)
 634:RelayTest.c   **** {
 1259              		.loc 1 634 0
 1260              		.cfi_startproc
 1261              		@ args = 0, pretend = 0, frame = 0
 1262              		@ frame_needed = 1, uses_anonymous_args = 0
 1263              		@ link register save eliminated.
 1264 0000 80B4     		push	{r7}
 1265              		.cfi_def_cfa_offset 4
 1266              		.cfi_offset 7, -4
 1267 0002 00AF     		add	r7, sp, #0
 1268              		.cfi_def_cfa_register 7
 635:RelayTest.c   ****     pRxPacket_Relay = &rxPacket_Relay;
 1269              		.loc 1 635 0
 1270 0004 044B     		ldr	r3, .L85
 1271 0006 054A     		ldr	r2, .L85+4
 1272 0008 1A60     		str	r2, [r3]
 636:RelayTest.c   ****     
 637:RelayTest.c   ****     return pRxPacket_Relay;
 1273              		.loc 1 637 0
 1274 000a 034B     		ldr	r3, .L85
 1275 000c 1B68     		ldr	r3, [r3]
 638:RelayTest.c   **** }
 1276              		.loc 1 638 0
 1277 000e 1846     		mov	r0, r3
 1278 0010 BD46     		mov	sp, r7
 1279              		.cfi_def_cfa_register 13
ARM GAS  C:\Users\MARTHN~1\AppData\Local\Temp\cc3bmeFF.s 			page 35


 1280              		@ sp needed
 1281 0012 80BC     		pop	{r7}
 1282              		.cfi_restore 7
 1283              		.cfi_def_cfa_offset 0
 1284 0014 7047     		bx	lr
 1285              	.L86:
 1286 0016 00BF     		.align	2
 1287              	.L85:
 1288 0018 10000000 		.word	pRxPacket_Relay
 1289 001c 00000000 		.word	rxPacket_Relay
 1290              		.cfi_endproc
 1291              	.LFE72:
 1292              		.size	getRxPacket_Relay, .-getRxPacket_Relay
 1293              		.section	.text.getTxPacket_RelaySiren,"ax",%progbits
 1294              		.align	2
 1295              		.global	getTxPacket_RelaySiren
 1296              		.thumb
 1297              		.thumb_func
 1298              		.type	getTxPacket_RelaySiren, %function
 1299              	getTxPacket_RelaySiren:
 1300              	.LFB73:
 639:RelayTest.c   **** 
 640:RelayTest.c   **** //RxPacket_RelaySiren * getRxPacket_RelayS(void)
 641:RelayTest.c   **** //{
 642:RelayTest.c   **** //    pRxPacket_Relay = &rxPacket_Relay;
 643:RelayTest.c   **** //    
 644:RelayTest.c   **** //    return pRxPacket_Relay;
 645:RelayTest.c   **** 
 646:RelayTest.c   **** //TxPacket_Relay * getTxPacket_Relay()
 647:RelayTest.c   **** //{
 648:RelayTest.c   **** //    pTxPacket_Relay = &txPacket_Relay;
 649:RelayTest.c   **** //    
 650:RelayTest.c   **** //    return pTxPacket_Relay;
 651:RelayTest.c   **** //}
 652:RelayTest.c   **** 
 653:RelayTest.c   **** //RxPacket_Siren * getRxPacket_Siren()
 654:RelayTest.c   **** //{
 655:RelayTest.c   **** //    pRxPacket_Siren = &rxPacket_Siren;
 656:RelayTest.c   **** //    
 657:RelayTest.c   **** //    return pRxPacket_Siren;
 658:RelayTest.c   **** //}
 659:RelayTest.c   **** 
 660:RelayTest.c   **** TxPacket_RelaySiren * getTxPacket_RelaySiren()
 661:RelayTest.c   **** {
 1301              		.loc 1 661 0
 1302              		.cfi_startproc
 1303              		@ args = 0, pretend = 0, frame = 0
 1304              		@ frame_needed = 1, uses_anonymous_args = 0
 1305              		@ link register save eliminated.
 1306 0000 80B4     		push	{r7}
 1307              		.cfi_def_cfa_offset 4
 1308              		.cfi_offset 7, -4
 1309 0002 00AF     		add	r7, sp, #0
 1310              		.cfi_def_cfa_register 7
 662:RelayTest.c   ****     pTxPacket_RelaySiren = &txPacket_RelaySiren;
 1311              		.loc 1 662 0
 1312 0004 044B     		ldr	r3, .L89
ARM GAS  C:\Users\MARTHN~1\AppData\Local\Temp\cc3bmeFF.s 			page 36


 1313 0006 054A     		ldr	r2, .L89+4
 1314 0008 1A60     		str	r2, [r3]
 663:RelayTest.c   ****     
 664:RelayTest.c   ****     return pTxPacket_RelaySiren;
 1315              		.loc 1 664 0
 1316 000a 034B     		ldr	r3, .L89
 1317 000c 1B68     		ldr	r3, [r3]
 665:RelayTest.c   **** }
 1318              		.loc 1 665 0
 1319 000e 1846     		mov	r0, r3
 1320 0010 BD46     		mov	sp, r7
 1321              		.cfi_def_cfa_register 13
 1322              		@ sp needed
 1323 0012 80BC     		pop	{r7}
 1324              		.cfi_restore 7
 1325              		.cfi_def_cfa_offset 0
 1326 0014 7047     		bx	lr
 1327              	.L90:
 1328 0016 00BF     		.align	2
 1329              	.L89:
 1330 0018 64000000 		.word	pTxPacket_RelaySiren
 1331 001c 14000000 		.word	txPacket_RelaySiren
 1332              		.cfi_endproc
 1333              	.LFE73:
 1334              		.size	getTxPacket_RelaySiren, .-getTxPacket_RelaySiren
 1335              		.section	.text.getTxPacket_H,"ax",%progbits
 1336              		.align	2
 1337              		.global	getTxPacket_H
 1338              		.thumb
 1339              		.thumb_func
 1340              		.type	getTxPacket_H, %function
 1341              	getTxPacket_H:
 1342              	.LFB74:
 666:RelayTest.c   **** 
 667:RelayTest.c   **** //Packet_H * getPacket_H(void);
 668:RelayTest.c   **** Packet_H * getTxPacket_H()
 669:RelayTest.c   **** {
 1343              		.loc 1 669 0
 1344              		.cfi_startproc
 1345              		@ args = 0, pretend = 0, frame = 0
 1346              		@ frame_needed = 1, uses_anonymous_args = 0
 1347              		@ link register save eliminated.
 1348 0000 80B4     		push	{r7}
 1349              		.cfi_def_cfa_offset 4
 1350              		.cfi_offset 7, -4
 1351 0002 00AF     		add	r7, sp, #0
 1352              		.cfi_def_cfa_register 7
 670:RelayTest.c   ****     pTxPacket_H = &txPacket_H;
 1353              		.loc 1 670 0
 1354 0004 044B     		ldr	r3, .L93
 1355 0006 054A     		ldr	r2, .L93+4
 1356 0008 1A60     		str	r2, [r3]
 671:RelayTest.c   ****     
 672:RelayTest.c   ****     return pTxPacket_H;
 1357              		.loc 1 672 0
 1358 000a 034B     		ldr	r3, .L93
 1359 000c 1B68     		ldr	r3, [r3]
ARM GAS  C:\Users\MARTHN~1\AppData\Local\Temp\cc3bmeFF.s 			page 37


 673:RelayTest.c   **** }
 1360              		.loc 1 673 0
 1361 000e 1846     		mov	r0, r3
 1362 0010 BD46     		mov	sp, r7
 1363              		.cfi_def_cfa_register 13
 1364              		@ sp needed
 1365 0012 80BC     		pop	{r7}
 1366              		.cfi_restore 7
 1367              		.cfi_def_cfa_offset 0
 1368 0014 7047     		bx	lr
 1369              	.L94:
 1370 0016 00BF     		.align	2
 1371              	.L93:
 1372 0018 70000000 		.word	pTxPacket_H
 1373 001c 68000000 		.word	txPacket_H
 1374              		.cfi_endproc
 1375              	.LFE74:
 1376              		.size	getTxPacket_H, .-getTxPacket_H
 1377              		.section	.text.getRxPacket_H,"ax",%progbits
 1378              		.align	2
 1379              		.global	getRxPacket_H
 1380              		.thumb
 1381              		.thumb_func
 1382              		.type	getRxPacket_H, %function
 1383              	getRxPacket_H:
 1384              	.LFB75:
 674:RelayTest.c   **** 
 675:RelayTest.c   **** Packet_H * getRxPacket_H()
 676:RelayTest.c   **** {
 1385              		.loc 1 676 0
 1386              		.cfi_startproc
 1387              		@ args = 0, pretend = 0, frame = 0
 1388              		@ frame_needed = 1, uses_anonymous_args = 0
 1389              		@ link register save eliminated.
 1390 0000 80B4     		push	{r7}
 1391              		.cfi_def_cfa_offset 4
 1392              		.cfi_offset 7, -4
 1393 0002 00AF     		add	r7, sp, #0
 1394              		.cfi_def_cfa_register 7
 677:RelayTest.c   ****     pRxPacket_H = &rxPacket_H;
 1395              		.loc 1 677 0
 1396 0004 044B     		ldr	r3, .L97
 1397 0006 054A     		ldr	r2, .L97+4
 1398 0008 1A60     		str	r2, [r3]
 678:RelayTest.c   ****     
 679:RelayTest.c   ****     return pRxPacket_H;
 1399              		.loc 1 679 0
 1400 000a 034B     		ldr	r3, .L97
 1401 000c 1B68     		ldr	r3, [r3]
 680:RelayTest.c   **** }
 1402              		.loc 1 680 0
 1403 000e 1846     		mov	r0, r3
 1404 0010 BD46     		mov	sp, r7
 1405              		.cfi_def_cfa_register 13
 1406              		@ sp needed
 1407 0012 80BC     		pop	{r7}
 1408              		.cfi_restore 7
ARM GAS  C:\Users\MARTHN~1\AppData\Local\Temp\cc3bmeFF.s 			page 38


 1409              		.cfi_def_cfa_offset 0
 1410 0014 7047     		bx	lr
 1411              	.L98:
 1412 0016 00BF     		.align	2
 1413              	.L97:
 1414 0018 7C000000 		.word	pRxPacket_H
 1415 001c 74000000 		.word	rxPacket_H
 1416              		.cfi_endproc
 1417              	.LFE75:
 1418              		.size	getRxPacket_H, .-getRxPacket_H
 1419              		.section	.text.RTest_sendDiagPacket,"ax",%progbits
 1420              		.align	2
 1421              		.global	RTest_sendDiagPacket
 1422              		.thumb
 1423              		.thumb_func
 1424              		.type	RTest_sendDiagPacket, %function
 1425              	RTest_sendDiagPacket:
 1426              	.LFB76:
 681:RelayTest.c   **** 
 682:RelayTest.c   **** 
 683:RelayTest.c   **** //RxPacket_Quad * getTxPacket_Quad()              //***
 684:RelayTest.c   **** //{
 685:RelayTest.c   **** //    pTxPacket_Quad = &txPacket_Quad;
 686:RelayTest.c   **** //    
 687:RelayTest.c   **** //    return pTxPacket_Quad;
 688:RelayTest.c   **** //}
 689:RelayTest.c   **** 
 690:RelayTest.c   **** void RTest_sendDiagPacket(void)
 691:RelayTest.c   **** {
 1427              		.loc 1 691 0
 1428              		.cfi_startproc
 1429              		@ args = 0, pretend = 0, frame = 8
 1430              		@ frame_needed = 1, uses_anonymous_args = 0
 1431 0000 80B5     		push	{r7, lr}
 1432              		.cfi_def_cfa_offset 8
 1433              		.cfi_offset 7, -8
 1434              		.cfi_offset 14, -4
 1435 0002 82B0     		sub	sp, sp, #8
 1436              		.cfi_def_cfa_offset 16
 1437 0004 00AF     		add	r7, sp, #0
 1438              		.cfi_def_cfa_register 7
 1439              	.LBB7:
 692:RelayTest.c   **** 
 693:RelayTest.c   ****     static uint8 RelayTestStatus_display[ (NUMBER_TEST_STEPS*2) ];
 694:RelayTest.c   ****     
 695:RelayTest.c   ****     for(uint8 i=0;i<NUMBER_TEST_STEPS;i++)
 1440              		.loc 1 695 0
 1441 0006 0023     		movs	r3, #0
 1442 0008 FB71     		strb	r3, [r7, #7]
 1443 000a 0FE0     		b	.L100
 1444              	.L101:
 696:RelayTest.c   ****     {
 697:RelayTest.c   ****         RelayTestStatus_display[i*2] = RelayTestStatus[i];
 1445              		.loc 1 697 0 discriminator 3
 1446 000c FB79     		ldrb	r3, [r7, #7]	@ zero_extendqisi2
 1447 000e 5B00     		lsls	r3, r3, #1
 1448 0010 FA79     		ldrb	r2, [r7, #7]	@ zero_extendqisi2
ARM GAS  C:\Users\MARTHN~1\AppData\Local\Temp\cc3bmeFF.s 			page 39


 1449 0012 1049     		ldr	r1, .L103
 1450 0014 895C     		ldrb	r1, [r1, r2]	@ zero_extendqisi2
 1451 0016 104A     		ldr	r2, .L103+4
 1452 0018 D154     		strb	r1, [r2, r3]
 698:RelayTest.c   ****         RelayTestStatus_display[(i*2) + 1] = ' ';
 1453              		.loc 1 698 0 discriminator 3
 1454 001a FB79     		ldrb	r3, [r7, #7]	@ zero_extendqisi2
 1455 001c 5B00     		lsls	r3, r3, #1
 1456 001e 0133     		adds	r3, r3, #1
 1457 0020 0D4A     		ldr	r2, .L103+4
 1458 0022 2021     		movs	r1, #32
 1459 0024 D154     		strb	r1, [r2, r3]
 695:RelayTest.c   ****     {
 1460              		.loc 1 695 0 discriminator 3
 1461 0026 FB79     		ldrb	r3, [r7, #7]	@ zero_extendqisi2
 1462 0028 0133     		adds	r3, r3, #1
 1463 002a FB71     		strb	r3, [r7, #7]
 1464              	.L100:
 695:RelayTest.c   ****     {
 1465              		.loc 1 695 0 is_stmt 0 discriminator 1
 1466 002c FB79     		ldrb	r3, [r7, #7]	@ zero_extendqisi2
 1467 002e 092B     		cmp	r3, #9
 1468 0030 ECD9     		bls	.L101
 1469              	.LBE7:
 699:RelayTest.c   ****     }
 700:RelayTest.c   ****     
 701:RelayTest.c   ****     DEMUX_CTRL_230400_Write(RTEST_SIREN);
 1470              		.loc 1 701 0 is_stmt 1
 1471 0032 0220     		movs	r0, #2
 1472 0034 FFF7FEFF 		bl	DEMUX_CTRL_230400_Write
 702:RelayTest.c   ****     
 703:RelayTest.c   ****     UART_230400_PutArray(RelayTestStatus_display, (NUMBER_TEST_STEPS*2) );
 1473              		.loc 1 703 0
 1474 0038 1421     		movs	r1, #20
 1475 003a 0748     		ldr	r0, .L103+4
 1476 003c FFF7FEFF 		bl	UART_230400_PutArray
 704:RelayTest.c   ****     
 705:RelayTest.c   ****     UART_230400_PutChar('\r');
 1477              		.loc 1 705 0
 1478 0040 0D20     		movs	r0, #13
 1479 0042 FFF7FEFF 		bl	UART_230400_PutChar
 706:RelayTest.c   ****     UART_230400_PutChar('\n');
 1480              		.loc 1 706 0
 1481 0046 0A20     		movs	r0, #10
 1482 0048 FFF7FEFF 		bl	UART_230400_PutChar
 707:RelayTest.c   ****     
 708:RelayTest.c   ****     return;
 1483              		.loc 1 708 0
 1484 004c 00BF     		nop
 709:RelayTest.c   **** }
 1485              		.loc 1 709 0
 1486 004e 0837     		adds	r7, r7, #8
 1487              		.cfi_def_cfa_offset 8
 1488 0050 BD46     		mov	sp, r7
 1489              		.cfi_def_cfa_register 13
 1490              		@ sp needed
 1491 0052 80BD     		pop	{r7, pc}
ARM GAS  C:\Users\MARTHN~1\AppData\Local\Temp\cc3bmeFF.s 			page 40


 1492              	.L104:
 1493              		.align	2
 1494              	.L103:
 1495 0054 F8000000 		.word	RelayTestStatus
 1496 0058 08010000 		.word	RelayTestStatus_display.6974
 1497              		.cfi_endproc
 1498              	.LFE76:
 1499              		.size	RTest_sendDiagPacket, .-RTest_sendDiagPacket
 1500              		.section	.text.RTest_BlockCurrent,"ax",%progbits
 1501              		.align	2
 1502              		.global	RTest_BlockCurrent
 1503              		.thumb
 1504              		.thumb_func
 1505              		.type	RTest_BlockCurrent, %function
 1506              	RTest_BlockCurrent:
 1507              	.LFB77:
 710:RelayTest.c   **** 
 711:RelayTest.c   **** //void ProcessFailure(void)
 712:RelayTest.c   **** //{
 713:RelayTest.c   **** ////    
 714:RelayTest.c   **** ////    RelayTestStatus[TestState] = 'F';
 715:RelayTest.c   **** ////    //RelayTestStatus[TestState] = 'B';                   // *** dont fail the unit, keep tryin
 716:RelayTest.c   **** ////    
 717:RelayTest.c   **** //////    TestState++;
 718:RelayTest.c   **** //////    if(TestState >=10)
 719:RelayTest.c   **** //////        TestState = 0;
 720:RelayTest.c   **** ////    
 721:RelayTest.c   **** ////    LED_EN_Write(1);
 722:RelayTest.c   **** ////    
 723:RelayTest.c   **** ////    return;
 724:RelayTest.c   **** //}
 725:RelayTest.c   **** 
 726:RelayTest.c   **** /**********************************************************************
 727:RelayTest.c   **** *   230400bps
 728:RelayTest.c   **** *   - Read (the output bytes) and see that they are within TOLERANCE_CURRENT
 729:RelayTest.c   **** *   - Return: pass/fail
 730:RelayTest.c   **** **********************************************************************/
 731:RelayTest.c   **** uint8 RTest_BlockCurrent(uint8 block)
 732:RelayTest.c   **** {
 1508              		.loc 1 732 0
 1509              		.cfi_startproc
 1510              		@ args = 0, pretend = 0, frame = 16
 1511              		@ frame_needed = 1, uses_anonymous_args = 0
 1512 0000 80B5     		push	{r7, lr}
 1513              		.cfi_def_cfa_offset 8
 1514              		.cfi_offset 7, -8
 1515              		.cfi_offset 14, -4
 1516 0002 84B0     		sub	sp, sp, #16
 1517              		.cfi_def_cfa_offset 24
 1518 0004 00AF     		add	r7, sp, #0
 1519              		.cfi_def_cfa_register 7
 1520 0006 0346     		mov	r3, r0
 1521 0008 FB71     		strb	r3, [r7, #7]
 733:RelayTest.c   ****     
 734:RelayTest.c   ****     uint8 Current_Reading = 0;
 1522              		.loc 1 734 0
 1523 000a 0023     		movs	r3, #0
ARM GAS  C:\Users\MARTHN~1\AppData\Local\Temp\cc3bmeFF.s 			page 41


 1524 000c FB73     		strb	r3, [r7, #15]
 735:RelayTest.c   ****     
 736:RelayTest.c   ****     pRxPacket_Relay = getRxPacket_Relay();
 1525              		.loc 1 736 0
 1526 000e FFF7FEFF 		bl	getRxPacket_Relay
 1527 0012 0246     		mov	r2, r0
 1528 0014 184B     		ldr	r3, .L113
 1529 0016 1A60     		str	r2, [r3]
 737:RelayTest.c   ****     
 738:RelayTest.c   ****     if(block == 0)
 1530              		.loc 1 738 0
 1531 0018 FB79     		ldrb	r3, [r7, #7]	@ zero_extendqisi2
 1532 001a 002B     		cmp	r3, #0
 1533 001c 04D1     		bne	.L106
 739:RelayTest.c   ****         Current_Reading = pRxPacket_Relay->Payload.BlockCurrent_1;
 1534              		.loc 1 739 0
 1535 001e 164B     		ldr	r3, .L113
 1536 0020 1B68     		ldr	r3, [r3]
 1537 0022 1B78     		ldrb	r3, [r3]
 1538 0024 FB73     		strb	r3, [r7, #15]
 1539 0026 19E0     		b	.L107
 1540              	.L106:
 740:RelayTest.c   ****     else if(block == 1)
 1541              		.loc 1 740 0
 1542 0028 FB79     		ldrb	r3, [r7, #7]	@ zero_extendqisi2
 1543 002a 012B     		cmp	r3, #1
 1544 002c 04D1     		bne	.L108
 741:RelayTest.c   ****         Current_Reading = pRxPacket_Relay->Payload.BlockCurrent_2;
 1545              		.loc 1 741 0
 1546 002e 124B     		ldr	r3, .L113
 1547 0030 1B68     		ldr	r3, [r3]
 1548 0032 5B78     		ldrb	r3, [r3, #1]
 1549 0034 FB73     		strb	r3, [r7, #15]
 1550 0036 11E0     		b	.L107
 1551              	.L108:
 742:RelayTest.c   ****     else if(block == 2)
 1552              		.loc 1 742 0
 1553 0038 FB79     		ldrb	r3, [r7, #7]	@ zero_extendqisi2
 1554 003a 022B     		cmp	r3, #2
 1555 003c 04D1     		bne	.L109
 743:RelayTest.c   ****         Current_Reading = pRxPacket_Relay->Payload.BlockCurrent_3;
 1556              		.loc 1 743 0
 1557 003e 0E4B     		ldr	r3, .L113
 1558 0040 1B68     		ldr	r3, [r3]
 1559 0042 9B78     		ldrb	r3, [r3, #2]
 1560 0044 FB73     		strb	r3, [r7, #15]
 1561 0046 09E0     		b	.L107
 1562              	.L109:
 744:RelayTest.c   ****     else if(block == 3)
 1563              		.loc 1 744 0
 1564 0048 FB79     		ldrb	r3, [r7, #7]	@ zero_extendqisi2
 1565 004a 032B     		cmp	r3, #3
 1566 004c 04D1     		bne	.L110
 745:RelayTest.c   ****         Current_Reading = pRxPacket_Relay->Payload.BlockCurrent_4;
 1567              		.loc 1 745 0
 1568 004e 0A4B     		ldr	r3, .L113
 1569 0050 1B68     		ldr	r3, [r3]
ARM GAS  C:\Users\MARTHN~1\AppData\Local\Temp\cc3bmeFF.s 			page 42


 1570 0052 DB78     		ldrb	r3, [r3, #3]
 1571 0054 FB73     		strb	r3, [r7, #15]
 1572 0056 01E0     		b	.L107
 1573              	.L110:
 746:RelayTest.c   ****     else 
 747:RelayTest.c   ****         return(0);
 1574              		.loc 1 747 0
 1575 0058 0023     		movs	r3, #0
 1576 005a 08E0     		b	.L111
 1577              	.L107:
 748:RelayTest.c   ****     
 749:RelayTest.c   ****     if( (Current_Reading < (CURRENT_LOAD + TOLERANCE_CURRENT) ) &&
 1578              		.loc 1 749 0
 1579 005c FB7B     		ldrb	r3, [r7, #15]	@ zero_extendqisi2
 1580 005e 0A2B     		cmp	r3, #10
 1581 0060 04D8     		bhi	.L112
 1582              		.loc 1 749 0 is_stmt 0 discriminator 1
 1583 0062 FB7B     		ldrb	r3, [r7, #15]	@ zero_extendqisi2
 1584 0064 072B     		cmp	r3, #7
 1585 0066 01D9     		bls	.L112
 750:RelayTest.c   ****         (Current_Reading > (CURRENT_LOAD - TOLERANCE_CURRENT) ) )
 751:RelayTest.c   ****         return(1);
 1586              		.loc 1 751 0 is_stmt 1
 1587 0068 0123     		movs	r3, #1
 1588 006a 00E0     		b	.L111
 1589              	.L112:
 752:RelayTest.c   ****     else
 753:RelayTest.c   ****         return(0);
 1590              		.loc 1 753 0
 1591 006c 0023     		movs	r3, #0
 1592              	.L111:
 754:RelayTest.c   ****         
 755:RelayTest.c   **** }
 1593              		.loc 1 755 0
 1594 006e 1846     		mov	r0, r3
 1595 0070 1037     		adds	r7, r7, #16
 1596              		.cfi_def_cfa_offset 8
 1597 0072 BD46     		mov	sp, r7
 1598              		.cfi_def_cfa_register 13
 1599              		@ sp needed
 1600 0074 80BD     		pop	{r7, pc}
 1601              	.L114:
 1602 0076 00BF     		.align	2
 1603              	.L113:
 1604 0078 10000000 		.word	pRxPacket_Relay
 1605              		.cfi_endproc
 1606              	.LFE77:
 1607              		.size	RTest_BlockCurrent, .-RTest_BlockCurrent
 1608              		.section	.text.RTest_10ms_isr,"ax",%progbits
 1609              		.align	2
 1610              		.global	RTest_10ms_isr
 1611              		.thumb
 1612              		.thumb_func
 1613              		.type	RTest_10ms_isr, %function
 1614              	RTest_10ms_isr:
 1615              	.LFB78:
 756:RelayTest.c   **** 
ARM GAS  C:\Users\MARTHN~1\AppData\Local\Temp\cc3bmeFF.s 			page 43


 757:RelayTest.c   **** void RTest_10ms_isr(void)                       // Times Quad and Audio packets
 758:RelayTest.c   **** {
 1616              		.loc 1 758 0
 1617              		.cfi_startproc
 1618              		@ args = 0, pretend = 0, frame = 0
 1619              		@ frame_needed = 1, uses_anonymous_args = 0
 1620 0000 80B5     		push	{r7, lr}
 1621              		.cfi_def_cfa_offset 8
 1622              		.cfi_offset 7, -8
 1623              		.cfi_offset 14, -4
 1624 0002 00AF     		add	r7, sp, #0
 1625              		.cfi_def_cfa_register 7
 759:RelayTest.c   **** 
 760:RelayTest.c   ****     if(TestState == QUAD_PORTS)    
 1626              		.loc 1 760 0
 1627 0004 044B     		ldr	r3, .L119
 1628 0006 1B78     		ldrb	r3, [r3]	@ zero_extendqisi2
 1629 0008 042B     		cmp	r3, #4
 1630 000a 02D1     		bne	.L118
 761:RelayTest.c   ****         sendPacketToRelay_Quad();
 1631              		.loc 1 761 0
 1632 000c FFF7FEFF 		bl	sendPacketToRelay_Quad
 762:RelayTest.c   **** 
 763:RelayTest.c   ****     return;
 1633              		.loc 1 763 0
 1634 0010 00BF     		nop
 1635              	.L118:
 1636 0012 00BF     		nop
 764:RelayTest.c   ****     
 765:RelayTest.c   **** }
 1637              		.loc 1 765 0
 1638 0014 80BD     		pop	{r7, pc}
 1639              	.L120:
 1640 0016 00BF     		.align	2
 1641              	.L119:
 1642 0018 02010000 		.word	TestState
 1643              		.cfi_endproc
 1644              	.LFE78:
 1645              		.size	RTest_10ms_isr, .-RTest_10ms_isr
 1646              		.section	.text.RTest_20ms_isr,"ax",%progbits
 1647              		.align	2
 1648              		.global	RTest_20ms_isr
 1649              		.thumb
 1650              		.thumb_func
 1651              		.type	RTest_20ms_isr, %function
 1652              	RTest_20ms_isr:
 1653              	.LFB79:
 766:RelayTest.c   **** 
 767:RelayTest.c   **** void RTest_20ms_isr(void)                       // Manage Timeout for failure
 768:RelayTest.c   **** {
 1654              		.loc 1 768 0
 1655              		.cfi_startproc
 1656              		@ args = 0, pretend = 0, frame = 0
 1657              		@ frame_needed = 1, uses_anonymous_args = 0
 1658              		@ link register save eliminated.
 1659 0000 80B4     		push	{r7}
 1660              		.cfi_def_cfa_offset 4
ARM GAS  C:\Users\MARTHN~1\AppData\Local\Temp\cc3bmeFF.s 			page 44


 1661              		.cfi_offset 7, -4
 1662 0002 00AF     		add	r7, sp, #0
 1663              		.cfi_def_cfa_register 7
 769:RelayTest.c   ****     
 770:RelayTest.c   ****     RTest_20ms_isr_count++;
 1664              		.loc 1 770 0
 1665 0004 144B     		ldr	r3, .L128
 1666 0006 1B88     		ldrh	r3, [r3]
 1667 0008 0133     		adds	r3, r3, #1
 1668 000a 9AB2     		uxth	r2, r3
 1669 000c 124B     		ldr	r3, .L128
 1670 000e 1A80     		strh	r2, [r3]	@ movhi
 771:RelayTest.c   ****     if(RTest_20ms_isr_count > TIMEOUT_FAIL)
 1671              		.loc 1 771 0
 1672 0010 114B     		ldr	r3, .L128
 1673 0012 1B88     		ldrh	r3, [r3]
 1674 0014 322B     		cmp	r3, #50
 1675 0016 0DD9     		bls	.L122
 772:RelayTest.c   ****     {
 773:RelayTest.c   ****         RTest_20ms_isr_count = 0;
 1676              		.loc 1 773 0
 1677 0018 0F4B     		ldr	r3, .L128
 1678 001a 0022     		movs	r2, #0
 1679 001c 1A80     		strh	r2, [r3]	@ movhi
 774:RelayTest.c   ****         
 775:RelayTest.c   ****         if(RTest_20ms_isr_EN == 1)
 1680              		.loc 1 775 0
 1681 001e 0F4B     		ldr	r3, .L128+4
 1682 0020 1B88     		ldrh	r3, [r3]
 1683 0022 012B     		cmp	r3, #1
 1684 0024 11D1     		bne	.L126
 776:RelayTest.c   ****             RelayTestStatus[TestState] = 'F';
 1685              		.loc 1 776 0
 1686 0026 0E4B     		ldr	r3, .L128+8
 1687 0028 1B78     		ldrb	r3, [r3]	@ zero_extendqisi2
 1688 002a 1A46     		mov	r2, r3
 1689 002c 0D4B     		ldr	r3, .L128+12
 1690 002e 4621     		movs	r1, #70
 1691 0030 9954     		strb	r1, [r3, r2]
 777:RelayTest.c   ****             
 778:RelayTest.c   ****         return;
 1692              		.loc 1 778 0
 1693 0032 0AE0     		b	.L126
 1694              	.L122:
 779:RelayTest.c   ****     }
 780:RelayTest.c   ****     
 781:RelayTest.c   ****     if(RTest_20ms_isr_count > 65000)
 1695              		.loc 1 781 0
 1696 0034 084B     		ldr	r3, .L128
 1697 0036 1B88     		ldrh	r3, [r3]
 1698 0038 4FF6E852 		movw	r2, #65000
 1699 003c 9342     		cmp	r3, r2
 1700 003e 06D9     		bls	.L127
 782:RelayTest.c   ****         RTest_20ms_isr_count = 0;
 1701              		.loc 1 782 0
 1702 0040 054B     		ldr	r3, .L128
 1703 0042 0022     		movs	r2, #0
ARM GAS  C:\Users\MARTHN~1\AppData\Local\Temp\cc3bmeFF.s 			page 45


 1704 0044 1A80     		strh	r2, [r3]	@ movhi
 783:RelayTest.c   ****     
 784:RelayTest.c   ****     return;
 1705              		.loc 1 784 0
 1706 0046 00BF     		nop
 1707 0048 01E0     		b	.L127
 1708              	.L126:
 778:RelayTest.c   ****     }
 1709              		.loc 1 778 0
 1710 004a 00BF     		nop
 1711 004c 00E0     		b	.L121
 1712              	.L127:
 1713              		.loc 1 784 0
 1714 004e 00BF     		nop
 1715              	.L121:
 785:RelayTest.c   ****     
 786:RelayTest.c   **** }
 1716              		.loc 1 786 0
 1717 0050 BD46     		mov	sp, r7
 1718              		.cfi_def_cfa_register 13
 1719              		@ sp needed
 1720 0052 80BC     		pop	{r7}
 1721              		.cfi_restore 7
 1722              		.cfi_def_cfa_offset 0
 1723 0054 7047     		bx	lr
 1724              	.L129:
 1725 0056 00BF     		.align	2
 1726              	.L128:
 1727 0058 F4000000 		.word	RTest_20ms_isr_count
 1728 005c F6000000 		.word	RTest_20ms_isr_EN
 1729 0060 02010000 		.word	TestState
 1730 0064 F8000000 		.word	RelayTestStatus
 1731              		.cfi_endproc
 1732              	.LFE79:
 1733              		.size	RTest_20ms_isr, .-RTest_20ms_isr
 1734              		.section	.text.RTest_50ms_isr,"ax",%progbits
 1735              		.align	2
 1736              		.global	RTest_50ms_isr
 1737              		.thumb
 1738              		.thumb_func
 1739              		.type	RTest_50ms_isr, %function
 1740              	RTest_50ms_isr:
 1741              	.LFB80:
 787:RelayTest.c   **** 
 788:RelayTest.c   **** void RTest_50ms_isr(void)                       // Times interboard comms, and serial diagnostics
 789:RelayTest.c   **** {
 1742              		.loc 1 789 0
 1743              		.cfi_startproc
 1744              		@ args = 0, pretend = 0, frame = 0
 1745              		@ frame_needed = 1, uses_anonymous_args = 0
 1746 0000 80B5     		push	{r7, lr}
 1747              		.cfi_def_cfa_offset 8
 1748              		.cfi_offset 7, -8
 1749              		.cfi_offset 14, -4
 1750 0002 00AF     		add	r7, sp, #0
 1751              		.cfi_def_cfa_register 7
 790:RelayTest.c   ****     
ARM GAS  C:\Users\MARTHN~1\AppData\Local\Temp\cc3bmeFF.s 			page 46


 791:RelayTest.c   ****     //RTest_sendDiagPacket();
 792:RelayTest.c   ****     
 793:RelayTest.c   ****     //if(isr_count > 5)
 794:RelayTest.c   ****         
 795:RelayTest.c   **** //    if( (isr_count % 5) == 0 )
 796:RelayTest.c   **** //    {
 797:RelayTest.c   ****         if( (TestState == TEST_OUTPUTS) ||
 1752              		.loc 1 797 0
 1753 0004 0C4B     		ldr	r3, .L135
 1754 0006 1B78     		ldrb	r3, [r3]	@ zero_extendqisi2
 1755 0008 022B     		cmp	r3, #2
 1756 000a 0FD0     		beq	.L131
 798:RelayTest.c   ****             (TestState == DATALINK) ||
 1757              		.loc 1 798 0 discriminator 1
 1758 000c 0A4B     		ldr	r3, .L135
 1759 000e 1B78     		ldrb	r3, [r3]	@ zero_extendqisi2
 797:RelayTest.c   ****             (TestState == DATALINK) ||
 1760              		.loc 1 797 0 discriminator 1
 1761 0010 032B     		cmp	r3, #3
 1762 0012 0BD0     		beq	.L131
 799:RelayTest.c   ****             (TestState == UART_SIREN) ||
 1763              		.loc 1 799 0
 1764 0014 084B     		ldr	r3, .L135
 1765 0016 1B78     		ldrb	r3, [r3]	@ zero_extendqisi2
 798:RelayTest.c   ****             (TestState == DATALINK) ||
 1766              		.loc 1 798 0
 1767 0018 052B     		cmp	r3, #5
 1768 001a 07D0     		beq	.L131
 800:RelayTest.c   ****             (TestState == INPUTS) ||
 1769              		.loc 1 800 0
 1770 001c 064B     		ldr	r3, .L135
 1771 001e 1B78     		ldrb	r3, [r3]	@ zero_extendqisi2
 799:RelayTest.c   ****             (TestState == UART_SIREN) ||
 1772              		.loc 1 799 0
 1773 0020 062B     		cmp	r3, #6
 1774 0022 03D0     		beq	.L131
 801:RelayTest.c   ****             (TestState == BLOCK_CURRENTS) )
 1775              		.loc 1 801 0
 1776 0024 044B     		ldr	r3, .L135
 1777 0026 1B78     		ldrb	r3, [r3]	@ zero_extendqisi2
 800:RelayTest.c   ****             (TestState == INPUTS) ||
 1778              		.loc 1 800 0
 1779 0028 082B     		cmp	r3, #8
 1780 002a 02D1     		bne	.L134
 1781              	.L131:
 802:RelayTest.c   ****         {      
 803:RelayTest.c   ****             sendPacketToRelaySiren();
 1782              		.loc 1 803 0
 1783 002c FFF7FEFF 		bl	sendPacketToRelaySiren
 804:RelayTest.c   ****             //sendPacket_SirenToRelay();              //*** both are used for UART_SIREN
 805:RelayTest.c   ****         }
 806:RelayTest.c   **** //    }
 807:RelayTest.c   ****     
 808:RelayTest.c   ****     return;
 1784              		.loc 1 808 0
 1785 0030 00BF     		nop
 1786              	.L134:
ARM GAS  C:\Users\MARTHN~1\AppData\Local\Temp\cc3bmeFF.s 			page 47


 1787 0032 00BF     		nop
 809:RelayTest.c   ****     
 810:RelayTest.c   **** }
 1788              		.loc 1 810 0
 1789 0034 80BD     		pop	{r7, pc}
 1790              	.L136:
 1791 0036 00BF     		.align	2
 1792              	.L135:
 1793 0038 02010000 		.word	TestState
 1794              		.cfi_endproc
 1795              	.LFE80:
 1796              		.size	RTest_50ms_isr, .-RTest_50ms_isr
 1797              		.section	.text.SetRelayOutputs,"ax",%progbits
 1798              		.align	2
 1799              		.global	SetRelayOutputs
 1800              		.thumb
 1801              		.thumb_func
 1802              		.type	SetRelayOutputs, %function
 1803              	SetRelayOutputs:
 1804              	.LFB81:
 811:RelayTest.c   **** 
 812:RelayTest.c   **** void SetRelayOutputs(uint8 enable)
 813:RelayTest.c   **** {
 1805              		.loc 1 813 0
 1806              		.cfi_startproc
 1807              		@ args = 0, pretend = 0, frame = 8
 1808              		@ frame_needed = 1, uses_anonymous_args = 0
 1809              		@ link register save eliminated.
 1810 0000 80B4     		push	{r7}
 1811              		.cfi_def_cfa_offset 4
 1812              		.cfi_offset 7, -4
 1813 0002 83B0     		sub	sp, sp, #12
 1814              		.cfi_def_cfa_offset 16
 1815 0004 00AF     		add	r7, sp, #0
 1816              		.cfi_def_cfa_register 7
 1817 0006 0346     		mov	r3, r0
 1818 0008 FB71     		strb	r3, [r7, #7]
 814:RelayTest.c   ****     if(enable == 1)
 1819              		.loc 1 814 0
 1820 000a FB79     		ldrb	r3, [r7, #7]	@ zero_extendqisi2
 1821 000c 012B     		cmp	r3, #1
 1822 000e 14D1     		bne	.L138
 815:RelayTest.c   ****     {
 816:RelayTest.c   ****         pTxPacket_RelaySiren->Payload.Outputs_1to8 = 0xFF;       // Turn on all Relay outputs
 1823              		.loc 1 816 0
 1824 0010 164B     		ldr	r3, .L141
 1825 0012 1B68     		ldr	r3, [r3]
 1826 0014 FF22     		movs	r2, #255
 1827 0016 83F84520 		strb	r2, [r3, #69]
 817:RelayTest.c   ****         pTxPacket_RelaySiren->Payload.Outputs_9to16 = 0xFF;
 1828              		.loc 1 817 0
 1829 001a 144B     		ldr	r3, .L141
 1830 001c 1B68     		ldr	r3, [r3]
 1831 001e FF22     		movs	r2, #255
 1832 0020 83F84620 		strb	r2, [r3, #70]
 818:RelayTest.c   ****         pTxPacket_RelaySiren->Payload.Outputs_17to24 = 0xFF;
 1833              		.loc 1 818 0
ARM GAS  C:\Users\MARTHN~1\AppData\Local\Temp\cc3bmeFF.s 			page 48


 1834 0024 114B     		ldr	r3, .L141
 1835 0026 1B68     		ldr	r3, [r3]
 1836 0028 FF22     		movs	r2, #255
 1837 002a 83F84720 		strb	r2, [r3, #71]
 819:RelayTest.c   ****         pTxPacket_RelaySiren->Payload.Outputs_25to32 = 0xFF;
 1838              		.loc 1 819 0
 1839 002e 0F4B     		ldr	r3, .L141
 1840 0030 1B68     		ldr	r3, [r3]
 1841 0032 FF22     		movs	r2, #255
 1842 0034 83F84820 		strb	r2, [r3, #72]
 820:RelayTest.c   ****     }
 821:RelayTest.c   ****     else
 822:RelayTest.c   ****     {
 823:RelayTest.c   ****         pTxPacket_RelaySiren->Payload.Outputs_1to8 = 0x00;       // Turn off all Relay outputs
 824:RelayTest.c   ****         pTxPacket_RelaySiren->Payload.Outputs_9to16 = 0x00;
 825:RelayTest.c   ****         pTxPacket_RelaySiren->Payload.Outputs_17to24 = 0x00;
 826:RelayTest.c   ****         pTxPacket_RelaySiren->Payload.Outputs_25to32 = 0x00;
 827:RelayTest.c   ****     }
 828:RelayTest.c   ****         
 829:RelayTest.c   ****     return;
 1843              		.loc 1 829 0
 1844 0038 14E0     		b	.L137
 1845              	.L138:
 823:RelayTest.c   ****         pTxPacket_RelaySiren->Payload.Outputs_9to16 = 0x00;
 1846              		.loc 1 823 0
 1847 003a 0C4B     		ldr	r3, .L141
 1848 003c 1B68     		ldr	r3, [r3]
 1849 003e 0022     		movs	r2, #0
 1850 0040 83F84520 		strb	r2, [r3, #69]
 824:RelayTest.c   ****         pTxPacket_RelaySiren->Payload.Outputs_17to24 = 0x00;
 1851              		.loc 1 824 0
 1852 0044 094B     		ldr	r3, .L141
 1853 0046 1B68     		ldr	r3, [r3]
 1854 0048 0022     		movs	r2, #0
 1855 004a 83F84620 		strb	r2, [r3, #70]
 825:RelayTest.c   ****         pTxPacket_RelaySiren->Payload.Outputs_25to32 = 0x00;
 1856              		.loc 1 825 0
 1857 004e 074B     		ldr	r3, .L141
 1858 0050 1B68     		ldr	r3, [r3]
 1859 0052 0022     		movs	r2, #0
 1860 0054 83F84720 		strb	r2, [r3, #71]
 826:RelayTest.c   ****     }
 1861              		.loc 1 826 0
 1862 0058 044B     		ldr	r3, .L141
 1863 005a 1B68     		ldr	r3, [r3]
 1864 005c 0022     		movs	r2, #0
 1865 005e 83F84820 		strb	r2, [r3, #72]
 1866              		.loc 1 829 0
 1867 0062 00BF     		nop
 1868              	.L137:
 830:RelayTest.c   ****     
 831:RelayTest.c   **** }
 1869              		.loc 1 831 0
 1870 0064 0C37     		adds	r7, r7, #12
 1871              		.cfi_def_cfa_offset 4
 1872 0066 BD46     		mov	sp, r7
 1873              		.cfi_def_cfa_register 13
ARM GAS  C:\Users\MARTHN~1\AppData\Local\Temp\cc3bmeFF.s 			page 49


 1874              		@ sp needed
 1875 0068 80BC     		pop	{r7}
 1876              		.cfi_restore 7
 1877              		.cfi_def_cfa_offset 0
 1878 006a 7047     		bx	lr
 1879              	.L142:
 1880              		.align	2
 1881              	.L141:
 1882 006c 64000000 		.word	pTxPacket_RelaySiren
 1883              		.cfi_endproc
 1884              	.LFE81:
 1885              		.size	SetRelayOutputs, .-SetRelayOutputs
 1886              		.bss
 1887 0103 00       		.align	2
 1888              	channel.6924:
 1889 0104 00000000 		.space	4
 1890              		.data
 1891              		.align	2
 1892              		.type	targetstring.6961, %object
 1893              		.size	targetstring.6961, 6
 1894              	targetstring.6961:
 1895 0000 24       		.byte	36
 1896 0001 47       		.byte	71
 1897 0002 50       		.byte	80
 1898 0003 4D       		.byte	77
 1899 0004 52       		.byte	82
 1900 0005 43       		.byte	67
 1901              		.bss
 1902              		.align	2
 1903              	RelayTestStatus_display.6974:
 1904 0108 00000000 		.space	20
 1904      00000000 
 1904      00000000 
 1904      00000000 
 1904      00000000 
 1905              		.text
 1906              	.Letext0:
 1907              		.file 2 "c:\\program files (x86)\\cypress\\psoc creator\\4.3\\psoc creator\\import\\gnu\\arm\\5.4.
 1908              		.file 3 "c:\\program files (x86)\\cypress\\psoc creator\\4.3\\psoc creator\\import\\gnu\\arm\\5.4.
 1909              		.file 4 "Generated_Source\\PSoC5/cytypes.h"
 1910              		.file 5 "UART_230400_Functions.h"
 1911              		.file 6 "UART_460800_Functions.h"
 1912              		.file 7 "Generated_Source\\PSoC5/core_cm3.h"