ARM GAS  C:\Users\MARTHN~1\AppData\Local\Temp\ccKwsTCB.s 			page 1


   1              		.syntax unified
   2              		.cpu cortex-m3
   3              		.fpu softvfp
   4              		.eabi_attribute 20, 1
   5              		.eabi_attribute 21, 1
   6              		.eabi_attribute 23, 3
   7              		.eabi_attribute 24, 1
   8              		.eabi_attribute 25, 1
   9              		.eabi_attribute 26, 1
  10              		.eabi_attribute 30, 6
  11              		.eabi_attribute 34, 1
  12              		.eabi_attribute 18, 4
  13              		.thumb
  14              		.syntax unified
  15              		.file	"SirenTest.c"
  16              		.text
  17              	.Ltext0:
  18              		.cfi_sections	.debug_frame
  19              		.comm	Test,3,4
  20              		.bss
  21              		.align	1
  22              	STest_20ms_isr_count:
  23 0000 0000     		.space	2
  24              		.align	1
  25              	STest_20ms_isr_EN:
  26 0002 0000     		.space	2
  27              	PB_NextAction_Pressed:
  28 0004 00       		.space	1
  29              	PB_NextAction_Released:
  30 0005 00       		.space	1
  31 0006 0000     		.align	2
  32              	STestStatus:
  33 0008 00000000 		.space	7
  33      000000
  34              		.section	.text.SirenTest,"ax",%progbits
  35              		.align	2
  36              		.global	SirenTest
  37              		.thumb
  38              		.thumb_func
  39              		.type	SirenTest, %function
  40              	SirenTest:
  41              	.LFB63:
  42              		.file 1 "SirenTest.c"
   1:SirenTest.c   **** /* ========================================
   2:SirenTest.c   ****  *
   3:SirenTest.c   ****  * Copyright YOUR COMPANY, THE YEAR
   4:SirenTest.c   ****  * All Rights Reserved
   5:SirenTest.c   ****  * UNPUBLISHED, LICENSED SOFTWARE.
   6:SirenTest.c   ****  *
   7:SirenTest.c   ****  * CONFIDENTIAL AND PROPRIETARY INFORMATION
   8:SirenTest.c   ****  * WHICH IS THE PROPERTY OF your company.
   9:SirenTest.c   ****  *
  10:SirenTest.c   ****  * ========================================
  11:SirenTest.c   **** */
  12:SirenTest.c   **** 
  13:SirenTest.c   **** #include <project.h>
  14:SirenTest.c   **** #include "CommonVariables.h"
ARM GAS  C:\Users\MARTHN~1\AppData\Local\Temp\ccKwsTCB.s 			page 2


  15:SirenTest.c   **** #include "SirenTest.h"
  16:SirenTest.c   **** #include "UART_230400_Functions.h"
  17:SirenTest.c   **** 
  18:SirenTest.c   **** #define TIMEOUT_FAIL        50          // Number of 20msec counts before failure timeout
  19:SirenTest.c   **** #define DEBOUNCE_COUNT      2           // (5 * 20msec)
  20:SirenTest.c   **** 
  21:SirenTest.c   **** enum MUX_DEMUX_230400_CHANNEL              
  22:SirenTest.c   **** { 
  23:SirenTest.c   ****     CTEST_RELAY, 
  24:SirenTest.c   ****     RTEST_CONT,
  25:SirenTest.c   ****     RTEST_SIREN,
  26:SirenTest.c   ****     STEST_RELAY            
  27:SirenTest.c   **** };
  28:SirenTest.c   **** 
  29:SirenTest.c   **** 
  30:SirenTest.c   **** // --------------Test steps---------------
  31:SirenTest.c   **** #define NUMBER_TEST_STEPS 7
  32:SirenTest.c   **** enum TestStep
  33:SirenTest.c   **** { 
  34:SirenTest.c   ****     INITIALIZE_TEST,            // ------------------------------------------------ 
  35:SirenTest.c   ****     RRB_AMP1,                   // (230400 tx tested)
  36:SirenTest.c   ****     MIC_AMP2,                   // ???
  37:SirenTest.c   ****     AUDIO_STREAM,               // (460800 tx tested)
  38:SirenTest.c   ****     FLASH,                      // ???
  39:SirenTest.c   ****     OVERLOAD,                   // (230400 rx tested)
  40:SirenTest.c   ****     FAIL                        // ------------------------------------------------
  41:SirenTest.c   **** };
  42:SirenTest.c   **** // Test UART to and from relay  // RX TESTED(not implemented in this test yet)    -
  43:SirenTest.c   **** 
  44:SirenTest.c   **** static uint16 STest_20ms_isr_count = 0;         // Test step timeout variables
  45:SirenTest.c   **** static uint16 STest_20ms_isr_EN = 0;
  46:SirenTest.c   **** 
  47:SirenTest.c   **** static uint8 PB_NextAction_Pressed = 0;
  48:SirenTest.c   **** static uint8 PB_NextAction_Released = 0;
  49:SirenTest.c   **** 
  50:SirenTest.c   **** static uint8 STestStatus[NUMBER_TEST_STEPS];
  51:SirenTest.c   **** 
  52:SirenTest.c   **** 
  53:SirenTest.c   **** uint8 SirenTest(void)
  54:SirenTest.c   **** {
  43              		.loc 1 54 0
  44              		.cfi_startproc
  45              		@ args = 0, pretend = 0, frame = 8
  46              		@ frame_needed = 1, uses_anonymous_args = 0
  47 0000 80B5     		push	{r7, lr}
  48              		.cfi_def_cfa_offset 8
  49              		.cfi_offset 7, -8
  50              		.cfi_offset 14, -4
  51 0002 82B0     		sub	sp, sp, #8
  52              		.cfi_def_cfa_offset 16
  53 0004 00AF     		add	r7, sp, #0
  54              		.cfi_def_cfa_register 7
  55:SirenTest.c   **** 
  56:SirenTest.c   ****     switch(CurrentTest.TestStep)
  55              		.loc 1 56 0
  56 0006 504B     		ldr	r3, .L20
  57 0008 5B78     		ldrb	r3, [r3, #1]	@ zero_extendqisi2
ARM GAS  C:\Users\MARTHN~1\AppData\Local\Temp\ccKwsTCB.s 			page 3


  58 000a 062B     		cmp	r3, #6
  59 000c 00F29780 		bhi	.L2
  60 0010 01A2     		adr	r2, .L4
  61 0012 52F823F0 		ldr	pc, [r2, r3, lsl #2]
  62 0016 00BF     		.p2align 2
  63              	.L4:
  64 0018 35000000 		.word	.L3+1
  65 001c 57000000 		.word	.L5+1
  66 0020 B7000000 		.word	.L6+1
  67 0024 17010000 		.word	.L7+1
  68 0028 1F010000 		.word	.L8+1
  69 002c 27010000 		.word	.L9+1
  70 0030 37010000 		.word	.L10+1
  71              		.p2align 1
  72              	.L3:
  73              	.LBB2:
  57:SirenTest.c   ****     {   
  58:SirenTest.c   ****         
  59:SirenTest.c   ****         //-------------------------         
  60:SirenTest.c   ****         case INITIALIZE_TEST:
  61:SirenTest.c   ****         
  62:SirenTest.c   ****             for (uint8 i=0;i<NUMBER_TEST_STEPS;i++)            // Reset Status of aall test steps t
  74              		.loc 1 62 0
  75 0034 0023     		movs	r3, #0
  76 0036 FB71     		strb	r3, [r7, #7]
  77 0038 06E0     		b	.L11
  78              	.L12:
  63:SirenTest.c   ****                 STestStatus[i] = '_';
  79              		.loc 1 63 0 discriminator 3
  80 003a FB79     		ldrb	r3, [r7, #7]	@ zero_extendqisi2
  81 003c 434A     		ldr	r2, .L20+4
  82 003e 5F21     		movs	r1, #95
  83 0040 D154     		strb	r1, [r2, r3]
  62:SirenTest.c   ****                 STestStatus[i] = '_';
  84              		.loc 1 62 0 discriminator 3
  85 0042 FB79     		ldrb	r3, [r7, #7]	@ zero_extendqisi2
  86 0044 0133     		adds	r3, r3, #1
  87 0046 FB71     		strb	r3, [r7, #7]
  88              	.L11:
  62:SirenTest.c   ****                 STestStatus[i] = '_';
  89              		.loc 1 62 0 is_stmt 0 discriminator 1
  90 0048 FB79     		ldrb	r3, [r7, #7]	@ zero_extendqisi2
  91 004a 062B     		cmp	r3, #6
  92 004c F5D9     		bls	.L12
  93              	.LBE2:
  64:SirenTest.c   ****         
  65:SirenTest.c   ****             //TestState = RRB_AMP1;
  66:SirenTest.c   ****             CurrentTest.TestStep = RRB_AMP1;
  94              		.loc 1 66 0 is_stmt 1
  95 004e 3E4B     		ldr	r3, .L20
  96 0050 0122     		movs	r2, #1
  97 0052 5A70     		strb	r2, [r3, #1]
  67:SirenTest.c   ****         
  68:SirenTest.c   ****         break;
  98              		.loc 1 68 0
  99 0054 73E0     		b	.L2
 100              	.L5:
ARM GAS  C:\Users\MARTHN~1\AppData\Local\Temp\ccKwsTCB.s 			page 4


  69:SirenTest.c   ****         
  70:SirenTest.c   ****         //-------------------------        
  71:SirenTest.c   ****         case RRB_AMP1:
  72:SirenTest.c   ****                 
  73:SirenTest.c   ****             STestStatus[CurrentTest.TestStep] = 'B';                                        // Set 
 101              		.loc 1 73 0
 102 0056 3C4B     		ldr	r3, .L20
 103 0058 5B78     		ldrb	r3, [r3, #1]	@ zero_extendqisi2
 104 005a 1A46     		mov	r2, r3
 105 005c 3B4B     		ldr	r3, .L20+4
 106 005e 4221     		movs	r1, #66
 107 0060 9954     		strb	r1, [r3, r2]
  74:SirenTest.c   ****             
  75:SirenTest.c   ****             // 230400 - 'S' - Send a command to enable RRB
  76:SirenTest.c   ****             // Send a 1V 200Hz PWM (using DAC) for 1sec, then 1kHz, then 10kHz - through the RRB of
  77:SirenTest.c   ****             CyDelay(1000);
 108              		.loc 1 77 0
 109 0062 4FF47A70 		mov	r0, #1000
 110 0066 FFF7FEFF 		bl	CyDelay
  78:SirenTest.c   ****             
  79:SirenTest.c   ****             STestStatus[CurrentTest.TestStep] = 'W';                                        // Set 
 111              		.loc 1 79 0
 112 006a 374B     		ldr	r3, .L20
 113 006c 5B78     		ldrb	r3, [r3, #1]	@ zero_extendqisi2
 114 006e 1A46     		mov	r2, r3
 115 0070 364B     		ldr	r3, .L20+4
 116 0072 5721     		movs	r1, #87
 117 0074 9954     		strb	r1, [r3, r2]
  80:SirenTest.c   ****             
  81:SirenTest.c   ****             while( (!PB_NextAction_Released) && (STestStatus[CurrentTest.TestStep] != 'F') )
 118              		.loc 1 81 0
 119 0076 00BF     		nop
 120              	.L14:
 121              		.loc 1 81 0 is_stmt 0 discriminator 2
 122 0078 354B     		ldr	r3, .L20+8
 123 007a 1B78     		ldrb	r3, [r3]	@ zero_extendqisi2
 124 007c 002B     		cmp	r3, #0
 125 007e 06D1     		bne	.L13
 126              		.loc 1 81 0 discriminator 1
 127 0080 314B     		ldr	r3, .L20
 128 0082 5B78     		ldrb	r3, [r3, #1]	@ zero_extendqisi2
 129 0084 1A46     		mov	r2, r3
 130 0086 314B     		ldr	r3, .L20+4
 131 0088 9B5C     		ldrb	r3, [r3, r2]	@ zero_extendqisi2
 132 008a 462B     		cmp	r3, #70
 133 008c F4D1     		bne	.L14
 134              	.L13:
  82:SirenTest.c   ****             {} 
  83:SirenTest.c   ****             PB_NextAction_Released = 0;
 135              		.loc 1 83 0 is_stmt 1
 136 008e 304B     		ldr	r3, .L20+8
 137 0090 0022     		movs	r2, #0
 138 0092 1A70     		strb	r2, [r3]
  84:SirenTest.c   ****             
  85:SirenTest.c   ****             if(STestStatus[CurrentTest.TestStep] != 'F')       // If not failed, then pass
 139              		.loc 1 85 0
 140 0094 2C4B     		ldr	r3, .L20
ARM GAS  C:\Users\MARTHN~1\AppData\Local\Temp\ccKwsTCB.s 			page 5


 141 0096 5B78     		ldrb	r3, [r3, #1]	@ zero_extendqisi2
 142 0098 1A46     		mov	r2, r3
 143 009a 2C4B     		ldr	r3, .L20+4
 144 009c 9B5C     		ldrb	r3, [r3, r2]	@ zero_extendqisi2
 145 009e 462B     		cmp	r3, #70
 146 00a0 05D0     		beq	.L15
  86:SirenTest.c   ****                 STestStatus[CurrentTest.TestStep] = 'P';                                        // 
 147              		.loc 1 86 0
 148 00a2 294B     		ldr	r3, .L20
 149 00a4 5B78     		ldrb	r3, [r3, #1]	@ zero_extendqisi2
 150 00a6 1A46     		mov	r2, r3
 151 00a8 284B     		ldr	r3, .L20+4
 152 00aa 5021     		movs	r1, #80
 153 00ac 9954     		strb	r1, [r3, r2]
 154              	.L15:
  87:SirenTest.c   ****         
  88:SirenTest.c   ****             CurrentTest.TestStep = MIC_AMP2;
 155              		.loc 1 88 0
 156 00ae 264B     		ldr	r3, .L20
 157 00b0 0222     		movs	r2, #2
 158 00b2 5A70     		strb	r2, [r3, #1]
  89:SirenTest.c   ****         
  90:SirenTest.c   ****         break;    
 159              		.loc 1 90 0
 160 00b4 43E0     		b	.L2
 161              	.L6:
  91:SirenTest.c   ****         
  92:SirenTest.c   ****         //-------------------------        
  93:SirenTest.c   ****         case MIC_AMP2:  
  94:SirenTest.c   ****                 
  95:SirenTest.c   ****             STestStatus[CurrentTest.TestStep] = 'B';                                        // Set 
 162              		.loc 1 95 0
 163 00b6 244B     		ldr	r3, .L20
 164 00b8 5B78     		ldrb	r3, [r3, #1]	@ zero_extendqisi2
 165 00ba 1A46     		mov	r2, r3
 166 00bc 234B     		ldr	r3, .L20+4
 167 00be 4221     		movs	r1, #66
 168 00c0 9954     		strb	r1, [r3, r2]
  96:SirenTest.c   ****             
  97:SirenTest.c   ****             // 230400 - 'S' - Send a command to enable RRB
  98:SirenTest.c   ****             // Send a 1V 200Hz PWM (using DAC) for 1sec, then 1kHz, then 10kHz - through the RRB of
  99:SirenTest.c   ****             CyDelay(1000);
 169              		.loc 1 99 0
 170 00c2 4FF47A70 		mov	r0, #1000
 171 00c6 FFF7FEFF 		bl	CyDelay
 100:SirenTest.c   ****             
 101:SirenTest.c   ****             STestStatus[CurrentTest.TestStep] = 'W';                                        // Set 
 172              		.loc 1 101 0
 173 00ca 1F4B     		ldr	r3, .L20
 174 00cc 5B78     		ldrb	r3, [r3, #1]	@ zero_extendqisi2
 175 00ce 1A46     		mov	r2, r3
 176 00d0 1E4B     		ldr	r3, .L20+4
 177 00d2 5721     		movs	r1, #87
 178 00d4 9954     		strb	r1, [r3, r2]
 102:SirenTest.c   ****             
 103:SirenTest.c   ****             while( (!PB_NextAction_Released) && (STestStatus[CurrentTest.TestStep] != 'F') )
 179              		.loc 1 103 0
ARM GAS  C:\Users\MARTHN~1\AppData\Local\Temp\ccKwsTCB.s 			page 6


 180 00d6 00BF     		nop
 181              	.L17:
 182              		.loc 1 103 0 is_stmt 0 discriminator 2
 183 00d8 1D4B     		ldr	r3, .L20+8
 184 00da 1B78     		ldrb	r3, [r3]	@ zero_extendqisi2
 185 00dc 002B     		cmp	r3, #0
 186 00de 06D1     		bne	.L16
 187              		.loc 1 103 0 discriminator 1
 188 00e0 194B     		ldr	r3, .L20
 189 00e2 5B78     		ldrb	r3, [r3, #1]	@ zero_extendqisi2
 190 00e4 1A46     		mov	r2, r3
 191 00e6 194B     		ldr	r3, .L20+4
 192 00e8 9B5C     		ldrb	r3, [r3, r2]	@ zero_extendqisi2
 193 00ea 462B     		cmp	r3, #70
 194 00ec F4D1     		bne	.L17
 195              	.L16:
 104:SirenTest.c   ****             {} 
 105:SirenTest.c   ****             PB_NextAction_Released = 0;
 196              		.loc 1 105 0 is_stmt 1
 197 00ee 184B     		ldr	r3, .L20+8
 198 00f0 0022     		movs	r2, #0
 199 00f2 1A70     		strb	r2, [r3]
 106:SirenTest.c   ****             
 107:SirenTest.c   ****             if(STestStatus[CurrentTest.TestStep] != 'F')       // If not failed, then pass
 200              		.loc 1 107 0
 201 00f4 144B     		ldr	r3, .L20
 202 00f6 5B78     		ldrb	r3, [r3, #1]	@ zero_extendqisi2
 203 00f8 1A46     		mov	r2, r3
 204 00fa 144B     		ldr	r3, .L20+4
 205 00fc 9B5C     		ldrb	r3, [r3, r2]	@ zero_extendqisi2
 206 00fe 462B     		cmp	r3, #70
 207 0100 05D0     		beq	.L18
 108:SirenTest.c   ****                 STestStatus[CurrentTest.TestStep] = 'P';                                        // 
 208              		.loc 1 108 0
 209 0102 114B     		ldr	r3, .L20
 210 0104 5B78     		ldrb	r3, [r3, #1]	@ zero_extendqisi2
 211 0106 1A46     		mov	r2, r3
 212 0108 104B     		ldr	r3, .L20+4
 213 010a 5021     		movs	r1, #80
 214 010c 9954     		strb	r1, [r3, r2]
 215              	.L18:
 109:SirenTest.c   ****         
 110:SirenTest.c   ****             CurrentTest.TestStep = AUDIO_STREAM;
 216              		.loc 1 110 0
 217 010e 0E4B     		ldr	r3, .L20
 218 0110 0322     		movs	r2, #3
 219 0112 5A70     		strb	r2, [r3, #1]
 111:SirenTest.c   ****         break;        
 220              		.loc 1 111 0
 221 0114 13E0     		b	.L2
 222              	.L7:
 112:SirenTest.c   ****         
 113:SirenTest.c   ****         //-------------------------        
 114:SirenTest.c   ****         case AUDIO_STREAM:  
 115:SirenTest.c   ****         
 116:SirenTest.c   ****             //TestState = FLASH;
 117:SirenTest.c   ****             CurrentTest.TestStep = FLASH;
ARM GAS  C:\Users\MARTHN~1\AppData\Local\Temp\ccKwsTCB.s 			page 7


 223              		.loc 1 117 0
 224 0116 0C4B     		ldr	r3, .L20
 225 0118 0422     		movs	r2, #4
 226 011a 5A70     		strb	r2, [r3, #1]
 118:SirenTest.c   ****         
 119:SirenTest.c   ****         break;  
 227              		.loc 1 119 0
 228 011c 0FE0     		b	.L2
 229              	.L8:
 120:SirenTest.c   ****         
 121:SirenTest.c   ****         //-------------------------        
 122:SirenTest.c   ****         case FLASH:  
 123:SirenTest.c   ****         
 124:SirenTest.c   ****             //TestState = OVERLOAD;
 125:SirenTest.c   ****             CurrentTest.TestStep = OVERLOAD;
 230              		.loc 1 125 0
 231 011e 0A4B     		ldr	r3, .L20
 232 0120 0522     		movs	r2, #5
 233 0122 5A70     		strb	r2, [r3, #1]
 126:SirenTest.c   ****                 
 127:SirenTest.c   ****         break;  
 234              		.loc 1 127 0
 235 0124 0BE0     		b	.L2
 236              	.L9:
 128:SirenTest.c   ****         
 129:SirenTest.c   ****         //-------------------------        
 130:SirenTest.c   ****         case OVERLOAD:
 131:SirenTest.c   ****         
 132:SirenTest.c   ****                 
 133:SirenTest.c   ****             CyDelay(1000);
 237              		.loc 1 133 0
 238 0126 4FF47A70 		mov	r0, #1000
 239 012a FFF7FEFF 		bl	CyDelay
 134:SirenTest.c   ****             //TestState = INITIALIZE_TEST;
 135:SirenTest.c   ****             CurrentTest.TestStep = INITIALIZE_TEST;
 240              		.loc 1 135 0
 241 012e 064B     		ldr	r3, .L20
 242 0130 0022     		movs	r2, #0
 243 0132 5A70     		strb	r2, [r3, #1]
 136:SirenTest.c   ****             
 137:SirenTest.c   ****         break;  
 244              		.loc 1 137 0
 245 0134 03E0     		b	.L2
 246              	.L10:
 138:SirenTest.c   ****         
 139:SirenTest.c   ****         //-------------------------        
 140:SirenTest.c   ****         case FAIL:  
 141:SirenTest.c   ****             CurrentTest.TestStep = FAIL;
 247              		.loc 1 141 0
 248 0136 044B     		ldr	r3, .L20
 249 0138 0622     		movs	r2, #6
 250 013a 5A70     		strb	r2, [r3, #1]
 142:SirenTest.c   ****         break;          
 251              		.loc 1 142 0
 252 013c 00BF     		nop
 253              	.L2:
 143:SirenTest.c   ****            
ARM GAS  C:\Users\MARTHN~1\AppData\Local\Temp\ccKwsTCB.s 			page 8


 144:SirenTest.c   ****     }
 145:SirenTest.c   **** 
 146:SirenTest.c   ****     return(0);
 254              		.loc 1 146 0
 255 013e 0023     		movs	r3, #0
 147:SirenTest.c   **** }
 256              		.loc 1 147 0
 257 0140 1846     		mov	r0, r3
 258 0142 0837     		adds	r7, r7, #8
 259              		.cfi_def_cfa_offset 8
 260 0144 BD46     		mov	sp, r7
 261              		.cfi_def_cfa_register 13
 262              		@ sp needed
 263 0146 80BD     		pop	{r7, pc}
 264              	.L21:
 265              		.align	2
 266              	.L20:
 267 0148 00000000 		.word	CurrentTest
 268 014c 08000000 		.word	STestStatus
 269 0150 05000000 		.word	PB_NextAction_Released
 270              		.cfi_endproc
 271              	.LFE63:
 272              		.size	SirenTest, .-SirenTest
 273              		.section	.text.STest_Test_Amp1,"ax",%progbits
 274              		.align	2
 275              		.global	STest_Test_Amp1
 276              		.thumb
 277              		.thumb_func
 278              		.type	STest_Test_Amp1, %function
 279              	STest_Test_Amp1:
 280              	.LFB64:
 148:SirenTest.c   **** 
 149:SirenTest.c   **** //--------------------------------------Test Functions----------------------------------
 150:SirenTest.c   **** uint8 STest_Test_Amp1(void)
 151:SirenTest.c   **** {
 281              		.loc 1 151 0
 282              		.cfi_startproc
 283              		@ args = 0, pretend = 0, frame = 0
 284              		@ frame_needed = 1, uses_anonymous_args = 0
 285              		@ link register save eliminated.
 286 0000 80B4     		push	{r7}
 287              		.cfi_def_cfa_offset 4
 288              		.cfi_offset 7, -4
 289 0002 00AF     		add	r7, sp, #0
 290              		.cfi_def_cfa_register 7
 152:SirenTest.c   ****     
 153:SirenTest.c   ****     return(0);
 291              		.loc 1 153 0
 292 0004 0023     		movs	r3, #0
 154:SirenTest.c   **** }
 293              		.loc 1 154 0
 294 0006 1846     		mov	r0, r3
 295 0008 BD46     		mov	sp, r7
 296              		.cfi_def_cfa_register 13
 297              		@ sp needed
 298 000a 80BC     		pop	{r7}
 299              		.cfi_restore 7
ARM GAS  C:\Users\MARTHN~1\AppData\Local\Temp\ccKwsTCB.s 			page 9


 300              		.cfi_def_cfa_offset 0
 301 000c 7047     		bx	lr
 302              		.cfi_endproc
 303              	.LFE64:
 304              		.size	STest_Test_Amp1, .-STest_Test_Amp1
 305 000e 00BF     		.section	.text.STest_isr_PB,"ax",%progbits
 306              		.align	2
 307              		.global	STest_isr_PB
 308              		.thumb
 309              		.thumb_func
 310              		.type	STest_isr_PB, %function
 311              	STest_isr_PB:
 312              	.LFB65:
 155:SirenTest.c   **** 
 156:SirenTest.c   **** 
 157:SirenTest.c   **** 
 158:SirenTest.c   **** 
 159:SirenTest.c   **** //----------------------------------------Timer Interrupts------------------------------
 160:SirenTest.c   **** void STest_isr_PB(void)
 161:SirenTest.c   **** {
 313              		.loc 1 161 0
 314              		.cfi_startproc
 315              		@ args = 0, pretend = 0, frame = 0
 316              		@ frame_needed = 1, uses_anonymous_args = 0
 317 0000 80B5     		push	{r7, lr}
 318              		.cfi_def_cfa_offset 8
 319              		.cfi_offset 7, -8
 320              		.cfi_offset 14, -4
 321 0002 00AF     		add	r7, sp, #0
 322              		.cfi_def_cfa_register 7
 162:SirenTest.c   ****     static uint8 PB_NextAction_debouncecount = 0;
 163:SirenTest.c   ****     static uint8 PB_NextAction_failcount = 0;
 164:SirenTest.c   ****     static uint8 PB_NextAction_prevstate = 0;
 165:SirenTest.c   ****     
 166:SirenTest.c   ****     static uint8 debouncetrue = 0;
 167:SirenTest.c   ****     
 168:SirenTest.c   ****     static uint8 PB_reading = 0;
 169:SirenTest.c   ****     static uint8 PB_reading_previous = 0;
 170:SirenTest.c   ****     PB_reading = PB_NextAction_Read();
 323              		.loc 1 170 0
 324 0004 FFF7FEFF 		bl	PB_NextAction_Read
 325 0008 0346     		mov	r3, r0
 326 000a 1A46     		mov	r2, r3
 327 000c 2B4B     		ldr	r3, .L34
 328 000e 1A70     		strb	r2, [r3]
 171:SirenTest.c   ****     
 172:SirenTest.c   ****     
 173:SirenTest.c   ****     if(PB_reading == PB_reading_previous)                                       // If reading is th
 329              		.loc 1 173 0
 330 0010 2A4B     		ldr	r3, .L34
 331 0012 1A78     		ldrb	r2, [r3]	@ zero_extendqisi2
 332 0014 2A4B     		ldr	r3, .L34+4
 333 0016 1B78     		ldrb	r3, [r3]	@ zero_extendqisi2
 334 0018 9A42     		cmp	r2, r3
 335 001a 06D1     		bne	.L25
 174:SirenTest.c   ****         PB_NextAction_debouncecount++;
 336              		.loc 1 174 0
ARM GAS  C:\Users\MARTHN~1\AppData\Local\Temp\ccKwsTCB.s 			page 10


 337 001c 294B     		ldr	r3, .L34+8
 338 001e 1B78     		ldrb	r3, [r3]	@ zero_extendqisi2
 339 0020 0133     		adds	r3, r3, #1
 340 0022 DAB2     		uxtb	r2, r3
 341 0024 274B     		ldr	r3, .L34+8
 342 0026 1A70     		strb	r2, [r3]
 343 0028 02E0     		b	.L26
 344              	.L25:
 175:SirenTest.c   ****     else
 176:SirenTest.c   ****         PB_NextAction_debouncecount = 0;
 345              		.loc 1 176 0
 346 002a 264B     		ldr	r3, .L34+8
 347 002c 0022     		movs	r2, #0
 348 002e 1A70     		strb	r2, [r3]
 349              	.L26:
 177:SirenTest.c   ****     
 178:SirenTest.c   ****     if(PB_NextAction_debouncecount > DEBOUNCE_COUNT)                            // Set debouncetrue
 350              		.loc 1 178 0
 351 0030 244B     		ldr	r3, .L34+8
 352 0032 1B78     		ldrb	r3, [r3]	@ zero_extendqisi2
 353 0034 022B     		cmp	r3, #2
 354 0036 06D9     		bls	.L27
 179:SirenTest.c   ****     {
 180:SirenTest.c   ****         debouncetrue = PB_reading;
 355              		.loc 1 180 0
 356 0038 204B     		ldr	r3, .L34
 357 003a 1A78     		ldrb	r2, [r3]	@ zero_extendqisi2
 358 003c 224B     		ldr	r3, .L34+12
 359 003e 1A70     		strb	r2, [r3]
 181:SirenTest.c   ****         PB_NextAction_debouncecount = 0;
 360              		.loc 1 181 0
 361 0040 204B     		ldr	r3, .L34+8
 362 0042 0022     		movs	r2, #0
 363 0044 1A70     		strb	r2, [r3]
 364              	.L27:
 182:SirenTest.c   ****     }
 183:SirenTest.c   **** 
 184:SirenTest.c   ****     PB_reading_previous = PB_reading;                                           // Save current rea
 365              		.loc 1 184 0
 366 0046 1D4B     		ldr	r3, .L34
 367 0048 1A78     		ldrb	r2, [r3]	@ zero_extendqisi2
 368 004a 1D4B     		ldr	r3, .L34+4
 369 004c 1A70     		strb	r2, [r3]
 185:SirenTest.c   ****     
 186:SirenTest.c   ****     if(debouncetrue == 1)                                                       // If debounced and
 370              		.loc 1 186 0
 371 004e 1E4B     		ldr	r3, .L34+12
 372 0050 1B78     		ldrb	r3, [r3]	@ zero_extendqisi2
 373 0052 012B     		cmp	r3, #1
 374 0054 09D1     		bne	.L28
 187:SirenTest.c   ****     {
 188:SirenTest.c   ****         PB_NextAction_Pressed = 1;
 375              		.loc 1 188 0
 376 0056 1D4B     		ldr	r3, .L34+16
 377 0058 0122     		movs	r2, #1
 378 005a 1A70     		strb	r2, [r3]
 189:SirenTest.c   ****         PB_NextAction_failcount++;
ARM GAS  C:\Users\MARTHN~1\AppData\Local\Temp\ccKwsTCB.s 			page 11


 379              		.loc 1 189 0
 380 005c 1C4B     		ldr	r3, .L34+20
 381 005e 1B78     		ldrb	r3, [r3]	@ zero_extendqisi2
 382 0060 0133     		adds	r3, r3, #1
 383 0062 DAB2     		uxtb	r2, r3
 384 0064 1A4B     		ldr	r3, .L34+20
 385 0066 1A70     		strb	r2, [r3]
 386 0068 05E0     		b	.L29
 387              	.L28:
 190:SirenTest.c   ****     }
 191:SirenTest.c   ****     else
 192:SirenTest.c   ****     {
 193:SirenTest.c   ****         PB_NextAction_Pressed = 0;
 388              		.loc 1 193 0
 389 006a 184B     		ldr	r3, .L34+16
 390 006c 0022     		movs	r2, #0
 391 006e 1A70     		strb	r2, [r3]
 194:SirenTest.c   ****         PB_NextAction_failcount = 0;
 392              		.loc 1 194 0
 393 0070 174B     		ldr	r3, .L34+20
 394 0072 0022     		movs	r2, #0
 395 0074 1A70     		strb	r2, [r3]
 396              	.L29:
 195:SirenTest.c   ****     }
 196:SirenTest.c   ****     
 197:SirenTest.c   **** 
 198:SirenTest.c   ****     if(PB_NextAction_failcount > 100)                       // If PB is held for (150 * 20msec = 3s
 397              		.loc 1 198 0
 398 0076 164B     		ldr	r3, .L34+20
 399 0078 1B78     		ldrb	r3, [r3]	@ zero_extendqisi2
 400 007a 642B     		cmp	r3, #100
 401 007c 08D9     		bls	.L30
 199:SirenTest.c   ****     {  
 200:SirenTest.c   ****         STestStatus[CurrentTest.TestStep] = 'F';
 402              		.loc 1 200 0
 403 007e 154B     		ldr	r3, .L34+24
 404 0080 5B78     		ldrb	r3, [r3, #1]	@ zero_extendqisi2
 405 0082 1A46     		mov	r2, r3
 406 0084 144B     		ldr	r3, .L34+28
 407 0086 4621     		movs	r1, #70
 408 0088 9954     		strb	r1, [r3, r2]
 201:SirenTest.c   ****         PB_NextAction_failcount = 0;
 409              		.loc 1 201 0
 410 008a 114B     		ldr	r3, .L34+20
 411 008c 0022     		movs	r2, #0
 412 008e 1A70     		strb	r2, [r3]
 413              	.L30:
 202:SirenTest.c   ****     }
 203:SirenTest.c   ****     
 204:SirenTest.c   **** 
 205:SirenTest.c   ****     if( (PB_NextAction_prevstate == 1) && (PB_NextAction_Pressed == 0) )        // Determine if PB 
 414              		.loc 1 205 0
 415 0090 124B     		ldr	r3, .L34+32
 416 0092 1B78     		ldrb	r3, [r3]	@ zero_extendqisi2
 417 0094 012B     		cmp	r3, #1
 418 0096 07D1     		bne	.L31
 419              		.loc 1 205 0 is_stmt 0 discriminator 1
ARM GAS  C:\Users\MARTHN~1\AppData\Local\Temp\ccKwsTCB.s 			page 12


 420 0098 0C4B     		ldr	r3, .L34+16
 421 009a 1B78     		ldrb	r3, [r3]	@ zero_extendqisi2
 422 009c 002B     		cmp	r3, #0
 423 009e 03D1     		bne	.L31
 206:SirenTest.c   ****     {
 207:SirenTest.c   ****         PB_NextAction_Released = 1;
 424              		.loc 1 207 0 is_stmt 1
 425 00a0 0F4B     		ldr	r3, .L34+36
 426 00a2 0122     		movs	r2, #1
 427 00a4 1A70     		strb	r2, [r3]
 428 00a6 02E0     		b	.L32
 429              	.L31:
 208:SirenTest.c   ****     }
 209:SirenTest.c   ****     else
 210:SirenTest.c   ****         PB_NextAction_Released = 0;
 430              		.loc 1 210 0
 431 00a8 0D4B     		ldr	r3, .L34+36
 432 00aa 0022     		movs	r2, #0
 433 00ac 1A70     		strb	r2, [r3]
 434              	.L32:
 211:SirenTest.c   ****     
 212:SirenTest.c   ****     PB_NextAction_prevstate = PB_NextAction_Pressed;
 435              		.loc 1 212 0
 436 00ae 074B     		ldr	r3, .L34+16
 437 00b0 1A78     		ldrb	r2, [r3]	@ zero_extendqisi2
 438 00b2 0A4B     		ldr	r3, .L34+32
 439 00b4 1A70     		strb	r2, [r3]
 213:SirenTest.c   ****     
 214:SirenTest.c   ****     return;
 440              		.loc 1 214 0
 441 00b6 00BF     		nop
 215:SirenTest.c   **** }
 442              		.loc 1 215 0
 443 00b8 80BD     		pop	{r7, pc}
 444              	.L35:
 445 00ba 00BF     		.align	2
 446              	.L34:
 447 00bc 0F000000 		.word	PB_reading.6361
 448 00c0 10000000 		.word	PB_reading_previous.6362
 449 00c4 11000000 		.word	PB_NextAction_debouncecount.6357
 450 00c8 12000000 		.word	debouncetrue.6360
 451 00cc 04000000 		.word	PB_NextAction_Pressed
 452 00d0 13000000 		.word	PB_NextAction_failcount.6358
 453 00d4 00000000 		.word	CurrentTest
 454 00d8 08000000 		.word	STestStatus
 455 00dc 14000000 		.word	PB_NextAction_prevstate.6359
 456 00e0 05000000 		.word	PB_NextAction_Released
 457              		.cfi_endproc
 458              	.LFE65:
 459              		.size	STest_isr_PB, .-STest_isr_PB
 460              		.section	.text.STest_20ms_isr,"ax",%progbits
 461              		.align	2
 462              		.global	STest_20ms_isr
 463              		.thumb
 464              		.thumb_func
 465              		.type	STest_20ms_isr, %function
 466              	STest_20ms_isr:
ARM GAS  C:\Users\MARTHN~1\AppData\Local\Temp\ccKwsTCB.s 			page 13


 467              	.LFB66:
 216:SirenTest.c   **** 
 217:SirenTest.c   **** void STest_20ms_isr(void)
 218:SirenTest.c   **** {
 468              		.loc 1 218 0
 469              		.cfi_startproc
 470              		@ args = 0, pretend = 0, frame = 0
 471              		@ frame_needed = 1, uses_anonymous_args = 0
 472              		@ link register save eliminated.
 473 0000 80B4     		push	{r7}
 474              		.cfi_def_cfa_offset 4
 475              		.cfi_offset 7, -4
 476 0002 00AF     		add	r7, sp, #0
 477              		.cfi_def_cfa_register 7
 219:SirenTest.c   ****     
 220:SirenTest.c   ****     //CurrentTest.TestStep = TestState;           // Update current status of test
 221:SirenTest.c   ****     
 222:SirenTest.c   ****     STest_20ms_isr_count++;                     // Manage Timeout for failure
 478              		.loc 1 222 0
 479 0004 144B     		ldr	r3, .L43
 480 0006 1B88     		ldrh	r3, [r3]
 481 0008 0133     		adds	r3, r3, #1
 482 000a 9AB2     		uxth	r2, r3
 483 000c 124B     		ldr	r3, .L43
 484 000e 1A80     		strh	r2, [r3]	@ movhi
 223:SirenTest.c   ****     if(STest_20ms_isr_count > TIMEOUT_FAIL)
 485              		.loc 1 223 0
 486 0010 114B     		ldr	r3, .L43
 487 0012 1B88     		ldrh	r3, [r3]
 488 0014 322B     		cmp	r3, #50
 489 0016 0DD9     		bls	.L37
 224:SirenTest.c   ****     {
 225:SirenTest.c   ****         STest_20ms_isr_count = 0;
 490              		.loc 1 225 0
 491 0018 0F4B     		ldr	r3, .L43
 492 001a 0022     		movs	r2, #0
 493 001c 1A80     		strh	r2, [r3]	@ movhi
 226:SirenTest.c   ****         
 227:SirenTest.c   ****         if(STest_20ms_isr_EN == 1)
 494              		.loc 1 227 0
 495 001e 0F4B     		ldr	r3, .L43+4
 496 0020 1B88     		ldrh	r3, [r3]
 497 0022 012B     		cmp	r3, #1
 498 0024 11D1     		bne	.L41
 228:SirenTest.c   ****         {
 229:SirenTest.c   ****             STestStatus[CurrentTest.TestStep] = 'F';
 499              		.loc 1 229 0
 500 0026 0E4B     		ldr	r3, .L43+8
 501 0028 5B78     		ldrb	r3, [r3, #1]	@ zero_extendqisi2
 502 002a 1A46     		mov	r2, r3
 503 002c 0D4B     		ldr	r3, .L43+12
 504 002e 4621     		movs	r1, #70
 505 0030 9954     		strb	r1, [r3, r2]
 230:SirenTest.c   ****             //CurrentTest.Failures = ???;           // Indicate what failed during the current test
 231:SirenTest.c   ****         }
 232:SirenTest.c   ****             
 233:SirenTest.c   ****         return;
ARM GAS  C:\Users\MARTHN~1\AppData\Local\Temp\ccKwsTCB.s 			page 14


 506              		.loc 1 233 0
 507 0032 0AE0     		b	.L41
 508              	.L37:
 234:SirenTest.c   ****     }
 235:SirenTest.c   ****     
 236:SirenTest.c   ****     if(STest_20ms_isr_count > 65000)
 509              		.loc 1 236 0
 510 0034 084B     		ldr	r3, .L43
 511 0036 1B88     		ldrh	r3, [r3]
 512 0038 4FF6E852 		movw	r2, #65000
 513 003c 9342     		cmp	r3, r2
 514 003e 06D9     		bls	.L42
 237:SirenTest.c   ****         STest_20ms_isr_count = 0;
 515              		.loc 1 237 0
 516 0040 054B     		ldr	r3, .L43
 517 0042 0022     		movs	r2, #0
 518 0044 1A80     		strh	r2, [r3]	@ movhi
 238:SirenTest.c   ****     
 239:SirenTest.c   ****     return;
 519              		.loc 1 239 0
 520 0046 00BF     		nop
 521 0048 01E0     		b	.L42
 522              	.L41:
 233:SirenTest.c   ****     }
 523              		.loc 1 233 0
 524 004a 00BF     		nop
 525 004c 00E0     		b	.L36
 526              	.L42:
 527              		.loc 1 239 0
 528 004e 00BF     		nop
 529              	.L36:
 240:SirenTest.c   ****        
 241:SirenTest.c   **** }
 530              		.loc 1 241 0
 531 0050 BD46     		mov	sp, r7
 532              		.cfi_def_cfa_register 13
 533              		@ sp needed
 534 0052 80BC     		pop	{r7}
 535              		.cfi_restore 7
 536              		.cfi_def_cfa_offset 0
 537 0054 7047     		bx	lr
 538              	.L44:
 539 0056 00BF     		.align	2
 540              	.L43:
 541 0058 00000000 		.word	STest_20ms_isr_count
 542 005c 02000000 		.word	STest_20ms_isr_EN
 543 0060 00000000 		.word	CurrentTest
 544 0064 08000000 		.word	STestStatus
 545              		.cfi_endproc
 546              	.LFE66:
 547              		.size	STest_20ms_isr, .-STest_20ms_isr
 548              		.section	.text.STest_50ms_isr,"ax",%progbits
 549              		.align	2
 550              		.global	STest_50ms_isr
 551              		.thumb
 552              		.thumb_func
 553              		.type	STest_50ms_isr, %function
ARM GAS  C:\Users\MARTHN~1\AppData\Local\Temp\ccKwsTCB.s 			page 15


 554              	STest_50ms_isr:
 555              	.LFB67:
 242:SirenTest.c   **** 
 243:SirenTest.c   **** void STest_50ms_isr(void)
 244:SirenTest.c   **** {
 556              		.loc 1 244 0
 557              		.cfi_startproc
 558              		@ args = 0, pretend = 0, frame = 0
 559              		@ frame_needed = 1, uses_anonymous_args = 0
 560 0000 80B5     		push	{r7, lr}
 561              		.cfi_def_cfa_offset 8
 562              		.cfi_offset 7, -8
 563              		.cfi_offset 14, -4
 564 0002 00AF     		add	r7, sp, #0
 565              		.cfi_def_cfa_register 7
 245:SirenTest.c   ****     STest_sendDiagPacket();
 566              		.loc 1 245 0
 567 0004 FFF7FEFF 		bl	STest_sendDiagPacket
 246:SirenTest.c   **** 
 247:SirenTest.c   **** //        if( (TestState == TEST_OUTPUTS) ||
 248:SirenTest.c   **** //            (TestState == DATALINK) ||
 249:SirenTest.c   **** //            (TestState == UART_SIREN) ||
 250:SirenTest.c   **** //            (TestState == INPUTS) ||
 251:SirenTest.c   **** //            (TestState == BLOCK_CURRENTS) )
 252:SirenTest.c   **** //        {      
 253:SirenTest.c   **** //            //sendPacketToRelaySiren();
 254:SirenTest.c   **** //        }
 255:SirenTest.c   ****     
 256:SirenTest.c   ****     return;    
 568              		.loc 1 256 0
 569 0008 00BF     		nop
 257:SirenTest.c   ****     
 258:SirenTest.c   **** }
 570              		.loc 1 258 0
 571 000a 80BD     		pop	{r7, pc}
 572              		.cfi_endproc
 573              	.LFE67:
 574              		.size	STest_50ms_isr, .-STest_50ms_isr
 575              		.section	.text.STest_sendDiagPacket,"ax",%progbits
 576              		.align	2
 577              		.global	STest_sendDiagPacket
 578              		.thumb
 579              		.thumb_func
 580              		.type	STest_sendDiagPacket, %function
 581              	STest_sendDiagPacket:
 582              	.LFB68:
 259:SirenTest.c   **** 
 260:SirenTest.c   **** //-------------------------------UART diagnostics--------------------------------------------
 261:SirenTest.c   **** void STest_sendDiagPacket(void)
 262:SirenTest.c   **** {
 583              		.loc 1 262 0
 584              		.cfi_startproc
 585              		@ args = 0, pretend = 0, frame = 8
 586              		@ frame_needed = 1, uses_anonymous_args = 0
 587 0000 80B5     		push	{r7, lr}
 588              		.cfi_def_cfa_offset 8
 589              		.cfi_offset 7, -8
ARM GAS  C:\Users\MARTHN~1\AppData\Local\Temp\ccKwsTCB.s 			page 16


 590              		.cfi_offset 14, -4
 591 0002 82B0     		sub	sp, sp, #8
 592              		.cfi_def_cfa_offset 16
 593 0004 00AF     		add	r7, sp, #0
 594              		.cfi_def_cfa_register 7
 595              	.LBB3:
 263:SirenTest.c   **** 
 264:SirenTest.c   ****     static uint8 STestStatus_display[ (NUMBER_TEST_STEPS*2) ];
 265:SirenTest.c   ****     
 266:SirenTest.c   ****     for(uint8 i=0;i<NUMBER_TEST_STEPS;i++)
 596              		.loc 1 266 0
 597 0006 0023     		movs	r3, #0
 598 0008 FB71     		strb	r3, [r7, #7]
 599 000a 0FE0     		b	.L48
 600              	.L49:
 267:SirenTest.c   ****     {
 268:SirenTest.c   ****         STestStatus_display[i*2] = STestStatus[i];
 601              		.loc 1 268 0 discriminator 3
 602 000c FB79     		ldrb	r3, [r7, #7]	@ zero_extendqisi2
 603 000e 5B00     		lsls	r3, r3, #1
 604 0010 FA79     		ldrb	r2, [r7, #7]	@ zero_extendqisi2
 605 0012 1049     		ldr	r1, .L51
 606 0014 895C     		ldrb	r1, [r1, r2]	@ zero_extendqisi2
 607 0016 104A     		ldr	r2, .L51+4
 608 0018 D154     		strb	r1, [r2, r3]
 269:SirenTest.c   ****         STestStatus_display[(i*2) + 1] = ' ';
 609              		.loc 1 269 0 discriminator 3
 610 001a FB79     		ldrb	r3, [r7, #7]	@ zero_extendqisi2
 611 001c 5B00     		lsls	r3, r3, #1
 612 001e 0133     		adds	r3, r3, #1
 613 0020 0D4A     		ldr	r2, .L51+4
 614 0022 2021     		movs	r1, #32
 615 0024 D154     		strb	r1, [r2, r3]
 266:SirenTest.c   ****     {
 616              		.loc 1 266 0 discriminator 3
 617 0026 FB79     		ldrb	r3, [r7, #7]	@ zero_extendqisi2
 618 0028 0133     		adds	r3, r3, #1
 619 002a FB71     		strb	r3, [r7, #7]
 620              	.L48:
 266:SirenTest.c   ****     {
 621              		.loc 1 266 0 is_stmt 0 discriminator 1
 622 002c FB79     		ldrb	r3, [r7, #7]	@ zero_extendqisi2
 623 002e 062B     		cmp	r3, #6
 624 0030 ECD9     		bls	.L49
 625              	.LBE3:
 270:SirenTest.c   ****     }
 271:SirenTest.c   ****     
 272:SirenTest.c   ****     DEMUX_CTRL_230400_Write(RTEST_SIREN);
 626              		.loc 1 272 0 is_stmt 1
 627 0032 0220     		movs	r0, #2
 628 0034 FFF7FEFF 		bl	DEMUX_CTRL_230400_Write
 273:SirenTest.c   ****     
 274:SirenTest.c   ****     UART_230400_PutArray(STestStatus_display, (NUMBER_TEST_STEPS*2) );
 629              		.loc 1 274 0
 630 0038 0E21     		movs	r1, #14
 631 003a 0748     		ldr	r0, .L51+4
 632 003c FFF7FEFF 		bl	UART_230400_PutArray
ARM GAS  C:\Users\MARTHN~1\AppData\Local\Temp\ccKwsTCB.s 			page 17


 275:SirenTest.c   ****     
 276:SirenTest.c   ****     UART_230400_PutChar('\r');
 633              		.loc 1 276 0
 634 0040 0D20     		movs	r0, #13
 635 0042 FFF7FEFF 		bl	UART_230400_PutChar
 277:SirenTest.c   ****     UART_230400_PutChar('\n');
 636              		.loc 1 277 0
 637 0046 0A20     		movs	r0, #10
 638 0048 FFF7FEFF 		bl	UART_230400_PutChar
 278:SirenTest.c   ****     
 279:SirenTest.c   ****     return;
 639              		.loc 1 279 0
 640 004c 00BF     		nop
 280:SirenTest.c   **** }
 641              		.loc 1 280 0
 642 004e 0837     		adds	r7, r7, #8
 643              		.cfi_def_cfa_offset 8
 644 0050 BD46     		mov	sp, r7
 645              		.cfi_def_cfa_register 13
 646              		@ sp needed
 647 0052 80BD     		pop	{r7, pc}
 648              	.L52:
 649              		.align	2
 650              	.L51:
 651 0054 08000000 		.word	STestStatus
 652 0058 18000000 		.word	STestStatus_display.6372
 653              		.cfi_endproc
 654              	.LFE68:
 655              		.size	STest_sendDiagPacket, .-STest_sendDiagPacket
 656              		.bss
 657              	PB_reading.6361:
 658 000f 00       		.space	1
 659              	PB_reading_previous.6362:
 660 0010 00       		.space	1
 661              	PB_NextAction_debouncecount.6357:
 662 0011 00       		.space	1
 663              	debouncetrue.6360:
 664 0012 00       		.space	1
 665              	PB_NextAction_failcount.6358:
 666 0013 00       		.space	1
 667              	PB_NextAction_prevstate.6359:
 668 0014 00       		.space	1
 669 0015 000000   		.align	2
 670              	STestStatus_display.6372:
 671 0018 00000000 		.space	14
 671      00000000 
 671      00000000 
 671      0000
 672              		.text
 673              	.Letext0:
 674              		.file 2 "c:\\program files (x86)\\cypress\\psoc creator\\4.3\\psoc creator\\import\\gnu\\arm\\5.4.
 675              		.file 3 "c:\\program files (x86)\\cypress\\psoc creator\\4.3\\psoc creator\\import\\gnu\\arm\\5.4.
 676              		.file 4 "Generated_Source\\PSoC5/cytypes.h"
 677              		.file 5 "CommonVariables.h"
 678              		.file 6 "Generated_Source\\PSoC5/core_cm3.h"
 679              		.section	.debug_info,"",%progbits
 680              	.Ldebug_info0:
ARM GAS  C:\Users\MARTHN~1\AppData\Local\Temp\ccKwsTCB.s 			page 18


 681 0000 1E030000 		.4byte	0x31e
 682 0004 0400     		.2byte	0x4
 683 0006 00000000 		.4byte	.Ldebug_abbrev0
 684 000a 04       		.byte	0x4
 685 000b 01       		.uleb128 0x1
 686 000c 22000000 		.4byte	.LASF53
 687 0010 0C       		.byte	0xc
 688 0011 E8020000 		.4byte	.LASF54
 689 0015 AA010000 		.4byte	.LASF55
 690 0019 00000000 		.4byte	.Ldebug_ranges0+0
 691 001d 00000000 		.4byte	0
 692 0021 00000000 		.4byte	.Ldebug_line0
 693 0025 02       		.uleb128 0x2
 694 0026 01       		.byte	0x1
 695 0027 06       		.byte	0x6
 696 0028 88030000 		.4byte	.LASF0
 697 002c 02       		.uleb128 0x2
 698 002d 01       		.byte	0x1
 699 002e 08       		.byte	0x8
 700 002f 03020000 		.4byte	.LASF1
 701 0033 02       		.uleb128 0x2
 702 0034 02       		.byte	0x2
 703 0035 05       		.byte	0x5
 704 0036 3C030000 		.4byte	.LASF2
 705 003a 02       		.uleb128 0x2
 706 003b 02       		.byte	0x2
 707 003c 07       		.byte	0x7
 708 003d FE000000 		.4byte	.LASF3
 709 0041 03       		.uleb128 0x3
 710 0042 DF000000 		.4byte	.LASF9
 711 0046 02       		.byte	0x2
 712 0047 3F       		.byte	0x3f
 713 0048 4C000000 		.4byte	0x4c
 714 004c 02       		.uleb128 0x2
 715 004d 04       		.byte	0x4
 716 004e 05       		.byte	0x5
 717 004f 5E030000 		.4byte	.LASF4
 718 0053 02       		.uleb128 0x2
 719 0054 04       		.byte	0x4
 720 0055 07       		.byte	0x7
 721 0056 6F010000 		.4byte	.LASF5
 722 005a 02       		.uleb128 0x2
 723 005b 08       		.byte	0x8
 724 005c 05       		.byte	0x5
 725 005d DA020000 		.4byte	.LASF6
 726 0061 02       		.uleb128 0x2
 727 0062 08       		.byte	0x8
 728 0063 07       		.byte	0x7
 729 0064 7E020000 		.4byte	.LASF7
 730 0068 04       		.uleb128 0x4
 731 0069 04       		.byte	0x4
 732 006a 05       		.byte	0x5
 733 006b 696E7400 		.ascii	"int\000"
 734 006f 02       		.uleb128 0x2
 735 0070 04       		.byte	0x4
 736 0071 07       		.byte	0x7
 737 0072 71020000 		.4byte	.LASF8
ARM GAS  C:\Users\MARTHN~1\AppData\Local\Temp\ccKwsTCB.s 			page 19


 738 0076 03       		.uleb128 0x3
 739 0077 3F010000 		.4byte	.LASF10
 740 007b 03       		.byte	0x3
 741 007c 2C       		.byte	0x2c
 742 007d 41000000 		.4byte	0x41
 743 0081 05       		.uleb128 0x5
 744 0082 58030000 		.4byte	.LASF11
 745 0086 04       		.byte	0x4
 746 0087 E401     		.2byte	0x1e4
 747 0089 2C000000 		.4byte	0x2c
 748 008d 05       		.uleb128 0x5
 749 008e 2D020000 		.4byte	.LASF12
 750 0092 04       		.byte	0x4
 751 0093 E501     		.2byte	0x1e5
 752 0095 3A000000 		.4byte	0x3a
 753 0099 02       		.uleb128 0x2
 754 009a 04       		.byte	0x4
 755 009b 04       		.byte	0x4
 756 009c 53010000 		.4byte	.LASF13
 757 00a0 02       		.uleb128 0x2
 758 00a1 08       		.byte	0x8
 759 00a2 04       		.byte	0x4
 760 00a3 1A020000 		.4byte	.LASF14
 761 00a7 02       		.uleb128 0x2
 762 00a8 01       		.byte	0x1
 763 00a9 08       		.byte	0x8
 764 00aa F4020000 		.4byte	.LASF15
 765 00ae 02       		.uleb128 0x2
 766 00af 08       		.byte	0x8
 767 00b0 04       		.byte	0x4
 768 00b1 C5020000 		.4byte	.LASF16
 769 00b5 02       		.uleb128 0x2
 770 00b6 04       		.byte	0x4
 771 00b7 07       		.byte	0x7
 772 00b8 D1020000 		.4byte	.LASF17
 773 00bc 06       		.uleb128 0x6
 774 00bd 6C030000 		.4byte	.LASF56
 775 00c1 03       		.byte	0x3
 776 00c2 05       		.byte	0x5
 777 00c3 10       		.byte	0x10
 778 00c4 ED000000 		.4byte	0xed
 779 00c8 07       		.uleb128 0x7
 780 00c9 32010000 		.4byte	.LASF18
 781 00cd 05       		.byte	0x5
 782 00ce 12       		.byte	0x12
 783 00cf 81000000 		.4byte	0x81
 784 00d3 00       		.byte	0
 785 00d4 07       		.uleb128 0x7
 786 00d5 11010000 		.4byte	.LASF19
 787 00d9 05       		.byte	0x5
 788 00da 13       		.byte	0x13
 789 00db 81000000 		.4byte	0x81
 790 00df 01       		.byte	0x1
 791 00e0 07       		.uleb128 0x7
 792 00e1 0A000000 		.4byte	.LASF20
 793 00e5 05       		.byte	0x5
 794 00e6 14       		.byte	0x14
ARM GAS  C:\Users\MARTHN~1\AppData\Local\Temp\ccKwsTCB.s 			page 20


 795 00e7 81000000 		.4byte	0x81
 796 00eb 02       		.byte	0x2
 797 00ec 00       		.byte	0
 798 00ed 03       		.uleb128 0x3
 799 00ee 08030000 		.4byte	.LASF21
 800 00f2 05       		.byte	0x5
 801 00f3 17       		.byte	0x17
 802 00f4 BC000000 		.4byte	0xbc
 803 00f8 08       		.uleb128 0x8
 804 00f9 23030000 		.4byte	.LASF26
 805 00fd 01       		.byte	0x1
 806 00fe 2C000000 		.4byte	0x2c
 807 0102 01       		.byte	0x1
 808 0103 15       		.byte	0x15
 809 0104 21010000 		.4byte	0x121
 810 0108 09       		.uleb128 0x9
 811 0109 47010000 		.4byte	.LASF22
 812 010d 00       		.byte	0
 813 010e 09       		.uleb128 0x9
 814 010f BD000000 		.4byte	.LASF23
 815 0113 01       		.byte	0x1
 816 0114 09       		.uleb128 0x9
 817 0115 17030000 		.4byte	.LASF24
 818 0119 02       		.byte	0x2
 819 011a 09       		.uleb128 0x9
 820 011b 21020000 		.4byte	.LASF25
 821 011f 03       		.byte	0x3
 822 0120 00       		.byte	0
 823 0121 08       		.uleb128 0x8
 824 0122 11010000 		.4byte	.LASF19
 825 0126 01       		.byte	0x1
 826 0127 2C000000 		.4byte	0x2c
 827 012b 01       		.byte	0x1
 828 012c 20       		.byte	0x20
 829 012d 5C010000 		.4byte	0x15c
 830 0131 09       		.uleb128 0x9
 831 0132 34020000 		.4byte	.LASF27
 832 0136 00       		.byte	0
 833 0137 09       		.uleb128 0x9
 834 0138 11020000 		.4byte	.LASF28
 835 013c 01       		.byte	0x1
 836 013d 09       		.uleb128 0x9
 837 013e A4030000 		.4byte	.LASF29
 838 0142 02       		.byte	0x2
 839 0143 09       		.uleb128 0x9
 840 0144 B0000000 		.4byte	.LASF30
 841 0148 03       		.byte	0x3
 842 0149 09       		.uleb128 0x9
 843 014a B2030000 		.4byte	.LASF31
 844 014e 04       		.byte	0x4
 845 014f 09       		.uleb128 0x9
 846 0150 8D010000 		.4byte	.LASF32
 847 0154 05       		.byte	0x5
 848 0155 09       		.uleb128 0x9
 849 0156 AD030000 		.4byte	.LASF33
 850 015a 06       		.byte	0x6
 851 015b 00       		.byte	0
ARM GAS  C:\Users\MARTHN~1\AppData\Local\Temp\ccKwsTCB.s 			page 21


 852 015c 0A       		.uleb128 0xa
 853 015d 00000000 		.4byte	.LASF57
 854 0161 01       		.byte	0x1
 855 0162 35       		.byte	0x35
 856 0163 81000000 		.4byte	0x81
 857 0167 00000000 		.4byte	.LFB63
 858 016b 54010000 		.4byte	.LFE63-.LFB63
 859 016f 01       		.uleb128 0x1
 860 0170 9C       		.byte	0x9c
 861 0171 8C010000 		.4byte	0x18c
 862 0175 0B       		.uleb128 0xb
 863 0176 34000000 		.4byte	.LBB2
 864 017a 1A000000 		.4byte	.LBE2-.LBB2
 865 017e 0C       		.uleb128 0xc
 866 017f 6900     		.ascii	"i\000"
 867 0181 01       		.byte	0x1
 868 0182 3E       		.byte	0x3e
 869 0183 81000000 		.4byte	0x81
 870 0187 02       		.uleb128 0x2
 871 0188 91       		.byte	0x91
 872 0189 77       		.sleb128 -9
 873 018a 00       		.byte	0
 874 018b 00       		.byte	0
 875 018c 0D       		.uleb128 0xd
 876 018d 94030000 		.4byte	.LASF58
 877 0191 01       		.byte	0x1
 878 0192 96       		.byte	0x96
 879 0193 81000000 		.4byte	0x81
 880 0197 00000000 		.4byte	.LFB64
 881 019b 0E000000 		.4byte	.LFE64-.LFB64
 882 019f 01       		.uleb128 0x1
 883 01a0 9C       		.byte	0x9c
 884 01a1 0E       		.uleb128 0xe
 885 01a2 25010000 		.4byte	.LASF42
 886 01a6 01       		.byte	0x1
 887 01a7 A0       		.byte	0xa0
 888 01a8 00000000 		.4byte	.LFB65
 889 01ac E4000000 		.4byte	.LFE65-.LFB65
 890 01b0 01       		.uleb128 0x1
 891 01b1 9C       		.byte	0x9c
 892 01b2 1D020000 		.4byte	0x21d
 893 01b6 0F       		.uleb128 0xf
 894 01b7 B8030000 		.4byte	.LASF34
 895 01bb 01       		.byte	0x1
 896 01bc A2       		.byte	0xa2
 897 01bd 81000000 		.4byte	0x81
 898 01c1 05       		.uleb128 0x5
 899 01c2 03       		.byte	0x3
 900 01c3 11000000 		.4byte	PB_NextAction_debouncecount.6357
 901 01c7 0F       		.uleb128 0xf
 902 01c8 95020000 		.4byte	.LASF35
 903 01cc 01       		.byte	0x1
 904 01cd A3       		.byte	0xa3
 905 01ce 81000000 		.4byte	0x81
 906 01d2 05       		.uleb128 0x5
 907 01d3 03       		.byte	0x3
 908 01d4 13000000 		.4byte	PB_NextAction_failcount.6358
ARM GAS  C:\Users\MARTHN~1\AppData\Local\Temp\ccKwsTCB.s 			page 22


 909 01d8 0F       		.uleb128 0xf
 910 01d9 AD020000 		.4byte	.LASF36
 911 01dd 01       		.byte	0x1
 912 01de A4       		.byte	0xa4
 913 01df 81000000 		.4byte	0x81
 914 01e3 05       		.uleb128 0x5
 915 01e4 03       		.byte	0x3
 916 01e5 14000000 		.4byte	PB_NextAction_prevstate.6359
 917 01e9 0F       		.uleb128 0xf
 918 01ea 7B030000 		.4byte	.LASF37
 919 01ee 01       		.byte	0x1
 920 01ef A6       		.byte	0xa6
 921 01f0 81000000 		.4byte	0x81
 922 01f4 05       		.uleb128 0x5
 923 01f5 03       		.byte	0x3
 924 01f6 12000000 		.4byte	debouncetrue.6360
 925 01fa 0F       		.uleb128 0xf
 926 01fb 1A010000 		.4byte	.LASF38
 927 01ff 01       		.byte	0x1
 928 0200 A8       		.byte	0xa8
 929 0201 81000000 		.4byte	0x81
 930 0205 05       		.uleb128 0x5
 931 0206 03       		.byte	0x3
 932 0207 0F000000 		.4byte	PB_reading.6361
 933 020b 0F       		.uleb128 0xf
 934 020c 96010000 		.4byte	.LASF39
 935 0210 01       		.byte	0x1
 936 0211 A9       		.byte	0xa9
 937 0212 81000000 		.4byte	0x81
 938 0216 05       		.uleb128 0x5
 939 0217 03       		.byte	0x3
 940 0218 10000000 		.4byte	PB_reading_previous.6362
 941 021c 00       		.byte	0
 942 021d 10       		.uleb128 0x10
 943 021e 13000000 		.4byte	.LASF40
 944 0222 01       		.byte	0x1
 945 0223 D9       		.byte	0xd9
 946 0224 00000000 		.4byte	.LFB66
 947 0228 68000000 		.4byte	.LFE66-.LFB66
 948 022c 01       		.uleb128 0x1
 949 022d 9C       		.byte	0x9c
 950 022e 11       		.uleb128 0x11
 951 022f F9020000 		.4byte	.LASF41
 952 0233 01       		.byte	0x1
 953 0234 F3       		.byte	0xf3
 954 0235 00000000 		.4byte	.LFB67
 955 0239 0C000000 		.4byte	.LFE67-.LFB67
 956 023d 01       		.uleb128 0x1
 957 023e 9C       		.byte	0x9c
 958 023f 12       		.uleb128 0x12
 959 0240 EE010000 		.4byte	.LASF43
 960 0244 01       		.byte	0x1
 961 0245 0501     		.2byte	0x105
 962 0247 00000000 		.4byte	.LFB68
 963 024b 5C000000 		.4byte	.LFE68-.LFB68
 964 024f 01       		.uleb128 0x1
 965 0250 9C       		.byte	0x9c
ARM GAS  C:\Users\MARTHN~1\AppData\Local\Temp\ccKwsTCB.s 			page 23


 966 0251 7F020000 		.4byte	0x27f
 967 0255 13       		.uleb128 0x13
 968 0256 51020000 		.4byte	.LASF44
 969 025a 01       		.byte	0x1
 970 025b 0801     		.2byte	0x108
 971 025d 7F020000 		.4byte	0x27f
 972 0261 05       		.uleb128 0x5
 973 0262 03       		.byte	0x3
 974 0263 18000000 		.4byte	STestStatus_display.6372
 975 0267 0B       		.uleb128 0xb
 976 0268 06000000 		.4byte	.LBB3
 977 026c 2C000000 		.4byte	.LBE3-.LBB3
 978 0270 14       		.uleb128 0x14
 979 0271 6900     		.ascii	"i\000"
 980 0273 01       		.byte	0x1
 981 0274 0A01     		.2byte	0x10a
 982 0276 81000000 		.4byte	0x81
 983 027a 02       		.uleb128 0x2
 984 027b 91       		.byte	0x91
 985 027c 77       		.sleb128 -9
 986 027d 00       		.byte	0
 987 027e 00       		.byte	0
 988 027f 15       		.uleb128 0x15
 989 0280 81000000 		.4byte	0x81
 990 0284 8F020000 		.4byte	0x28f
 991 0288 16       		.uleb128 0x16
 992 0289 B5000000 		.4byte	0xb5
 993 028d 0D       		.byte	0xd
 994 028e 00       		.byte	0
 995 028f 0F       		.uleb128 0xf
 996 0290 E9000000 		.4byte	.LASF45
 997 0294 01       		.byte	0x1
 998 0295 2C       		.byte	0x2c
 999 0296 8D000000 		.4byte	0x8d
 1000 029a 05       		.uleb128 0x5
 1001 029b 03       		.byte	0x3
 1002 029c 00000000 		.4byte	STest_20ms_isr_count
 1003 02a0 0F       		.uleb128 0xf
 1004 02a1 46030000 		.4byte	.LASF46
 1005 02a5 01       		.byte	0x1
 1006 02a6 2D       		.byte	0x2d
 1007 02a7 8D000000 		.4byte	0x8d
 1008 02ab 05       		.uleb128 0x5
 1009 02ac 03       		.byte	0x3
 1010 02ad 02000000 		.4byte	STest_20ms_isr_EN
 1011 02b1 0F       		.uleb128 0xf
 1012 02b2 59010000 		.4byte	.LASF47
 1013 02b6 01       		.byte	0x1
 1014 02b7 2F       		.byte	0x2f
 1015 02b8 81000000 		.4byte	0x81
 1016 02bc 05       		.uleb128 0x5
 1017 02bd 03       		.byte	0x3
 1018 02be 04000000 		.4byte	PB_NextAction_Pressed
 1019 02c2 0F       		.uleb128 0xf
 1020 02c3 C8000000 		.4byte	.LASF48
 1021 02c7 01       		.byte	0x1
 1022 02c8 30       		.byte	0x30
ARM GAS  C:\Users\MARTHN~1\AppData\Local\Temp\ccKwsTCB.s 			page 24


 1023 02c9 81000000 		.4byte	0x81
 1024 02cd 05       		.uleb128 0x5
 1025 02ce 03       		.byte	0x3
 1026 02cf 05000000 		.4byte	PB_NextAction_Released
 1027 02d3 15       		.uleb128 0x15
 1028 02d4 81000000 		.4byte	0x81
 1029 02d8 E3020000 		.4byte	0x2e3
 1030 02dc 16       		.uleb128 0x16
 1031 02dd B5000000 		.4byte	0xb5
 1032 02e1 06       		.byte	0x6
 1033 02e2 00       		.byte	0
 1034 02e3 0F       		.uleb128 0xf
 1035 02e4 65020000 		.4byte	.LASF49
 1036 02e8 01       		.byte	0x1
 1037 02e9 32       		.byte	0x32
 1038 02ea D3020000 		.4byte	0x2d3
 1039 02ee 05       		.uleb128 0x5
 1040 02ef 03       		.byte	0x3
 1041 02f0 08000000 		.4byte	STestStatus
 1042 02f4 17       		.uleb128 0x17
 1043 02f5 44020000 		.4byte	.LASF50
 1044 02f9 06       		.byte	0x6
 1045 02fa 1207     		.2byte	0x712
 1046 02fc 00030000 		.4byte	0x300
 1047 0300 18       		.uleb128 0x18
 1048 0301 76000000 		.4byte	0x76
 1049 0305 19       		.uleb128 0x19
 1050 0306 67030000 		.4byte	.LASF51
 1051 030a 05       		.byte	0x5
 1052 030b 15       		.byte	0x15
 1053 030c BC000000 		.4byte	0xbc
 1054 0310 05       		.uleb128 0x5
 1055 0311 03       		.byte	0x3
 1056 0312 00000000 		.4byte	Test
 1057 0316 1A       		.uleb128 0x1a
 1058 0317 81010000 		.4byte	.LASF52
 1059 031b 05       		.byte	0x5
 1060 031c 19       		.byte	0x19
 1061 031d ED000000 		.4byte	0xed
 1062 0321 00       		.byte	0
 1063              		.section	.debug_abbrev,"",%progbits
 1064              	.Ldebug_abbrev0:
 1065 0000 01       		.uleb128 0x1
 1066 0001 11       		.uleb128 0x11
 1067 0002 01       		.byte	0x1
 1068 0003 25       		.uleb128 0x25
 1069 0004 0E       		.uleb128 0xe
 1070 0005 13       		.uleb128 0x13
 1071 0006 0B       		.uleb128 0xb
 1072 0007 03       		.uleb128 0x3
 1073 0008 0E       		.uleb128 0xe
 1074 0009 1B       		.uleb128 0x1b
 1075 000a 0E       		.uleb128 0xe
 1076 000b 55       		.uleb128 0x55
 1077 000c 17       		.uleb128 0x17
 1078 000d 11       		.uleb128 0x11
 1079 000e 01       		.uleb128 0x1
ARM GAS  C:\Users\MARTHN~1\AppData\Local\Temp\ccKwsTCB.s 			page 25


 1080 000f 10       		.uleb128 0x10
 1081 0010 17       		.uleb128 0x17
 1082 0011 00       		.byte	0
 1083 0012 00       		.byte	0
 1084 0013 02       		.uleb128 0x2
 1085 0014 24       		.uleb128 0x24
 1086 0015 00       		.byte	0
 1087 0016 0B       		.uleb128 0xb
 1088 0017 0B       		.uleb128 0xb
 1089 0018 3E       		.uleb128 0x3e
 1090 0019 0B       		.uleb128 0xb
 1091 001a 03       		.uleb128 0x3
 1092 001b 0E       		.uleb128 0xe
 1093 001c 00       		.byte	0
 1094 001d 00       		.byte	0
 1095 001e 03       		.uleb128 0x3
 1096 001f 16       		.uleb128 0x16
 1097 0020 00       		.byte	0
 1098 0021 03       		.uleb128 0x3
 1099 0022 0E       		.uleb128 0xe
 1100 0023 3A       		.uleb128 0x3a
 1101 0024 0B       		.uleb128 0xb
 1102 0025 3B       		.uleb128 0x3b
 1103 0026 0B       		.uleb128 0xb
 1104 0027 49       		.uleb128 0x49
 1105 0028 13       		.uleb128 0x13
 1106 0029 00       		.byte	0
 1107 002a 00       		.byte	0
 1108 002b 04       		.uleb128 0x4
 1109 002c 24       		.uleb128 0x24
 1110 002d 00       		.byte	0
 1111 002e 0B       		.uleb128 0xb
 1112 002f 0B       		.uleb128 0xb
 1113 0030 3E       		.uleb128 0x3e
 1114 0031 0B       		.uleb128 0xb
 1115 0032 03       		.uleb128 0x3
 1116 0033 08       		.uleb128 0x8
 1117 0034 00       		.byte	0
 1118 0035 00       		.byte	0
 1119 0036 05       		.uleb128 0x5
 1120 0037 16       		.uleb128 0x16
 1121 0038 00       		.byte	0
 1122 0039 03       		.uleb128 0x3
 1123 003a 0E       		.uleb128 0xe
 1124 003b 3A       		.uleb128 0x3a
 1125 003c 0B       		.uleb128 0xb
 1126 003d 3B       		.uleb128 0x3b
 1127 003e 05       		.uleb128 0x5
 1128 003f 49       		.uleb128 0x49
 1129 0040 13       		.uleb128 0x13
 1130 0041 00       		.byte	0
 1131 0042 00       		.byte	0
 1132 0043 06       		.uleb128 0x6
 1133 0044 13       		.uleb128 0x13
 1134 0045 01       		.byte	0x1
 1135 0046 03       		.uleb128 0x3
 1136 0047 0E       		.uleb128 0xe
ARM GAS  C:\Users\MARTHN~1\AppData\Local\Temp\ccKwsTCB.s 			page 26


 1137 0048 0B       		.uleb128 0xb
 1138 0049 0B       		.uleb128 0xb
 1139 004a 3A       		.uleb128 0x3a
 1140 004b 0B       		.uleb128 0xb
 1141 004c 3B       		.uleb128 0x3b
 1142 004d 0B       		.uleb128 0xb
 1143 004e 01       		.uleb128 0x1
 1144 004f 13       		.uleb128 0x13
 1145 0050 00       		.byte	0
 1146 0051 00       		.byte	0
 1147 0052 07       		.uleb128 0x7
 1148 0053 0D       		.uleb128 0xd
 1149 0054 00       		.byte	0
 1150 0055 03       		.uleb128 0x3
 1151 0056 0E       		.uleb128 0xe
 1152 0057 3A       		.uleb128 0x3a
 1153 0058 0B       		.uleb128 0xb
 1154 0059 3B       		.uleb128 0x3b
 1155 005a 0B       		.uleb128 0xb
 1156 005b 49       		.uleb128 0x49
 1157 005c 13       		.uleb128 0x13
 1158 005d 38       		.uleb128 0x38
 1159 005e 0B       		.uleb128 0xb
 1160 005f 00       		.byte	0
 1161 0060 00       		.byte	0
 1162 0061 08       		.uleb128 0x8
 1163 0062 04       		.uleb128 0x4
 1164 0063 01       		.byte	0x1
 1165 0064 03       		.uleb128 0x3
 1166 0065 0E       		.uleb128 0xe
 1167 0066 0B       		.uleb128 0xb
 1168 0067 0B       		.uleb128 0xb
 1169 0068 49       		.uleb128 0x49
 1170 0069 13       		.uleb128 0x13
 1171 006a 3A       		.uleb128 0x3a
 1172 006b 0B       		.uleb128 0xb
 1173 006c 3B       		.uleb128 0x3b
 1174 006d 0B       		.uleb128 0xb
 1175 006e 01       		.uleb128 0x1
 1176 006f 13       		.uleb128 0x13
 1177 0070 00       		.byte	0
 1178 0071 00       		.byte	0
 1179 0072 09       		.uleb128 0x9
 1180 0073 28       		.uleb128 0x28
 1181 0074 00       		.byte	0
 1182 0075 03       		.uleb128 0x3
 1183 0076 0E       		.uleb128 0xe
 1184 0077 1C       		.uleb128 0x1c
 1185 0078 0B       		.uleb128 0xb
 1186 0079 00       		.byte	0
 1187 007a 00       		.byte	0
 1188 007b 0A       		.uleb128 0xa
 1189 007c 2E       		.uleb128 0x2e
 1190 007d 01       		.byte	0x1
 1191 007e 3F       		.uleb128 0x3f
 1192 007f 19       		.uleb128 0x19
 1193 0080 03       		.uleb128 0x3
ARM GAS  C:\Users\MARTHN~1\AppData\Local\Temp\ccKwsTCB.s 			page 27


 1194 0081 0E       		.uleb128 0xe
 1195 0082 3A       		.uleb128 0x3a
 1196 0083 0B       		.uleb128 0xb
 1197 0084 3B       		.uleb128 0x3b
 1198 0085 0B       		.uleb128 0xb
 1199 0086 27       		.uleb128 0x27
 1200 0087 19       		.uleb128 0x19
 1201 0088 49       		.uleb128 0x49
 1202 0089 13       		.uleb128 0x13
 1203 008a 11       		.uleb128 0x11
 1204 008b 01       		.uleb128 0x1
 1205 008c 12       		.uleb128 0x12
 1206 008d 06       		.uleb128 0x6
 1207 008e 40       		.uleb128 0x40
 1208 008f 18       		.uleb128 0x18
 1209 0090 9642     		.uleb128 0x2116
 1210 0092 19       		.uleb128 0x19
 1211 0093 01       		.uleb128 0x1
 1212 0094 13       		.uleb128 0x13
 1213 0095 00       		.byte	0
 1214 0096 00       		.byte	0
 1215 0097 0B       		.uleb128 0xb
 1216 0098 0B       		.uleb128 0xb
 1217 0099 01       		.byte	0x1
 1218 009a 11       		.uleb128 0x11
 1219 009b 01       		.uleb128 0x1
 1220 009c 12       		.uleb128 0x12
 1221 009d 06       		.uleb128 0x6
 1222 009e 00       		.byte	0
 1223 009f 00       		.byte	0
 1224 00a0 0C       		.uleb128 0xc
 1225 00a1 34       		.uleb128 0x34
 1226 00a2 00       		.byte	0
 1227 00a3 03       		.uleb128 0x3
 1228 00a4 08       		.uleb128 0x8
 1229 00a5 3A       		.uleb128 0x3a
 1230 00a6 0B       		.uleb128 0xb
 1231 00a7 3B       		.uleb128 0x3b
 1232 00a8 0B       		.uleb128 0xb
 1233 00a9 49       		.uleb128 0x49
 1234 00aa 13       		.uleb128 0x13
 1235 00ab 02       		.uleb128 0x2
 1236 00ac 18       		.uleb128 0x18
 1237 00ad 00       		.byte	0
 1238 00ae 00       		.byte	0
 1239 00af 0D       		.uleb128 0xd
 1240 00b0 2E       		.uleb128 0x2e
 1241 00b1 00       		.byte	0
 1242 00b2 3F       		.uleb128 0x3f
 1243 00b3 19       		.uleb128 0x19
 1244 00b4 03       		.uleb128 0x3
 1245 00b5 0E       		.uleb128 0xe
 1246 00b6 3A       		.uleb128 0x3a
 1247 00b7 0B       		.uleb128 0xb
 1248 00b8 3B       		.uleb128 0x3b
 1249 00b9 0B       		.uleb128 0xb
 1250 00ba 27       		.uleb128 0x27
ARM GAS  C:\Users\MARTHN~1\AppData\Local\Temp\ccKwsTCB.s 			page 28


 1251 00bb 19       		.uleb128 0x19
 1252 00bc 49       		.uleb128 0x49
 1253 00bd 13       		.uleb128 0x13
 1254 00be 11       		.uleb128 0x11
 1255 00bf 01       		.uleb128 0x1
 1256 00c0 12       		.uleb128 0x12
 1257 00c1 06       		.uleb128 0x6
 1258 00c2 40       		.uleb128 0x40
 1259 00c3 18       		.uleb128 0x18
 1260 00c4 9742     		.uleb128 0x2117
 1261 00c6 19       		.uleb128 0x19
 1262 00c7 00       		.byte	0
 1263 00c8 00       		.byte	0
 1264 00c9 0E       		.uleb128 0xe
 1265 00ca 2E       		.uleb128 0x2e
 1266 00cb 01       		.byte	0x1
 1267 00cc 3F       		.uleb128 0x3f
 1268 00cd 19       		.uleb128 0x19
 1269 00ce 03       		.uleb128 0x3
 1270 00cf 0E       		.uleb128 0xe
 1271 00d0 3A       		.uleb128 0x3a
 1272 00d1 0B       		.uleb128 0xb
 1273 00d2 3B       		.uleb128 0x3b
 1274 00d3 0B       		.uleb128 0xb
 1275 00d4 27       		.uleb128 0x27
 1276 00d5 19       		.uleb128 0x19
 1277 00d6 11       		.uleb128 0x11
 1278 00d7 01       		.uleb128 0x1
 1279 00d8 12       		.uleb128 0x12
 1280 00d9 06       		.uleb128 0x6
 1281 00da 40       		.uleb128 0x40
 1282 00db 18       		.uleb128 0x18
 1283 00dc 9642     		.uleb128 0x2116
 1284 00de 19       		.uleb128 0x19
 1285 00df 01       		.uleb128 0x1
 1286 00e0 13       		.uleb128 0x13
 1287 00e1 00       		.byte	0
 1288 00e2 00       		.byte	0
 1289 00e3 0F       		.uleb128 0xf
 1290 00e4 34       		.uleb128 0x34
 1291 00e5 00       		.byte	0
 1292 00e6 03       		.uleb128 0x3
 1293 00e7 0E       		.uleb128 0xe
 1294 00e8 3A       		.uleb128 0x3a
 1295 00e9 0B       		.uleb128 0xb
 1296 00ea 3B       		.uleb128 0x3b
 1297 00eb 0B       		.uleb128 0xb
 1298 00ec 49       		.uleb128 0x49
 1299 00ed 13       		.uleb128 0x13
 1300 00ee 02       		.uleb128 0x2
 1301 00ef 18       		.uleb128 0x18
 1302 00f0 00       		.byte	0
 1303 00f1 00       		.byte	0
 1304 00f2 10       		.uleb128 0x10
 1305 00f3 2E       		.uleb128 0x2e
 1306 00f4 00       		.byte	0
 1307 00f5 3F       		.uleb128 0x3f
ARM GAS  C:\Users\MARTHN~1\AppData\Local\Temp\ccKwsTCB.s 			page 29


 1308 00f6 19       		.uleb128 0x19
 1309 00f7 03       		.uleb128 0x3
 1310 00f8 0E       		.uleb128 0xe
 1311 00f9 3A       		.uleb128 0x3a
 1312 00fa 0B       		.uleb128 0xb
 1313 00fb 3B       		.uleb128 0x3b
 1314 00fc 0B       		.uleb128 0xb
 1315 00fd 27       		.uleb128 0x27
 1316 00fe 19       		.uleb128 0x19
 1317 00ff 11       		.uleb128 0x11
 1318 0100 01       		.uleb128 0x1
 1319 0101 12       		.uleb128 0x12
 1320 0102 06       		.uleb128 0x6
 1321 0103 40       		.uleb128 0x40
 1322 0104 18       		.uleb128 0x18
 1323 0105 9742     		.uleb128 0x2117
 1324 0107 19       		.uleb128 0x19
 1325 0108 00       		.byte	0
 1326 0109 00       		.byte	0
 1327 010a 11       		.uleb128 0x11
 1328 010b 2E       		.uleb128 0x2e
 1329 010c 00       		.byte	0
 1330 010d 3F       		.uleb128 0x3f
 1331 010e 19       		.uleb128 0x19
 1332 010f 03       		.uleb128 0x3
 1333 0110 0E       		.uleb128 0xe
 1334 0111 3A       		.uleb128 0x3a
 1335 0112 0B       		.uleb128 0xb
 1336 0113 3B       		.uleb128 0x3b
 1337 0114 0B       		.uleb128 0xb
 1338 0115 27       		.uleb128 0x27
 1339 0116 19       		.uleb128 0x19
 1340 0117 11       		.uleb128 0x11
 1341 0118 01       		.uleb128 0x1
 1342 0119 12       		.uleb128 0x12
 1343 011a 06       		.uleb128 0x6
 1344 011b 40       		.uleb128 0x40
 1345 011c 18       		.uleb128 0x18
 1346 011d 9642     		.uleb128 0x2116
 1347 011f 19       		.uleb128 0x19
 1348 0120 00       		.byte	0
 1349 0121 00       		.byte	0
 1350 0122 12       		.uleb128 0x12
 1351 0123 2E       		.uleb128 0x2e
 1352 0124 01       		.byte	0x1
 1353 0125 3F       		.uleb128 0x3f
 1354 0126 19       		.uleb128 0x19
 1355 0127 03       		.uleb128 0x3
 1356 0128 0E       		.uleb128 0xe
 1357 0129 3A       		.uleb128 0x3a
 1358 012a 0B       		.uleb128 0xb
 1359 012b 3B       		.uleb128 0x3b
 1360 012c 05       		.uleb128 0x5
 1361 012d 27       		.uleb128 0x27
 1362 012e 19       		.uleb128 0x19
 1363 012f 11       		.uleb128 0x11
 1364 0130 01       		.uleb128 0x1
ARM GAS  C:\Users\MARTHN~1\AppData\Local\Temp\ccKwsTCB.s 			page 30


 1365 0131 12       		.uleb128 0x12
 1366 0132 06       		.uleb128 0x6
 1367 0133 40       		.uleb128 0x40
 1368 0134 18       		.uleb128 0x18
 1369 0135 9642     		.uleb128 0x2116
 1370 0137 19       		.uleb128 0x19
 1371 0138 01       		.uleb128 0x1
 1372 0139 13       		.uleb128 0x13
 1373 013a 00       		.byte	0
 1374 013b 00       		.byte	0
 1375 013c 13       		.uleb128 0x13
 1376 013d 34       		.uleb128 0x34
 1377 013e 00       		.byte	0
 1378 013f 03       		.uleb128 0x3
 1379 0140 0E       		.uleb128 0xe
 1380 0141 3A       		.uleb128 0x3a
 1381 0142 0B       		.uleb128 0xb
 1382 0143 3B       		.uleb128 0x3b
 1383 0144 05       		.uleb128 0x5
 1384 0145 49       		.uleb128 0x49
 1385 0146 13       		.uleb128 0x13
 1386 0147 02       		.uleb128 0x2
 1387 0148 18       		.uleb128 0x18
 1388 0149 00       		.byte	0
 1389 014a 00       		.byte	0
 1390 014b 14       		.uleb128 0x14
 1391 014c 34       		.uleb128 0x34
 1392 014d 00       		.byte	0
 1393 014e 03       		.uleb128 0x3
 1394 014f 08       		.uleb128 0x8
 1395 0150 3A       		.uleb128 0x3a
 1396 0151 0B       		.uleb128 0xb
 1397 0152 3B       		.uleb128 0x3b
 1398 0153 05       		.uleb128 0x5
 1399 0154 49       		.uleb128 0x49
 1400 0155 13       		.uleb128 0x13
 1401 0156 02       		.uleb128 0x2
 1402 0157 18       		.uleb128 0x18
 1403 0158 00       		.byte	0
 1404 0159 00       		.byte	0
 1405 015a 15       		.uleb128 0x15
 1406 015b 01       		.uleb128 0x1
 1407 015c 01       		.byte	0x1
 1408 015d 49       		.uleb128 0x49
 1409 015e 13       		.uleb128 0x13
 1410 015f 01       		.uleb128 0x1
 1411 0160 13       		.uleb128 0x13
 1412 0161 00       		.byte	0
 1413 0162 00       		.byte	0
 1414 0163 16       		.uleb128 0x16
 1415 0164 21       		.uleb128 0x21
 1416 0165 00       		.byte	0
 1417 0166 49       		.uleb128 0x49
 1418 0167 13       		.uleb128 0x13
 1419 0168 2F       		.uleb128 0x2f
 1420 0169 0B       		.uleb128 0xb
 1421 016a 00       		.byte	0
ARM GAS  C:\Users\MARTHN~1\AppData\Local\Temp\ccKwsTCB.s 			page 31


 1422 016b 00       		.byte	0
 1423 016c 17       		.uleb128 0x17
 1424 016d 34       		.uleb128 0x34
 1425 016e 00       		.byte	0
 1426 016f 03       		.uleb128 0x3
 1427 0170 0E       		.uleb128 0xe
 1428 0171 3A       		.uleb128 0x3a
 1429 0172 0B       		.uleb128 0xb
 1430 0173 3B       		.uleb128 0x3b
 1431 0174 05       		.uleb128 0x5
 1432 0175 49       		.uleb128 0x49
 1433 0176 13       		.uleb128 0x13
 1434 0177 3F       		.uleb128 0x3f
 1435 0178 19       		.uleb128 0x19
 1436 0179 3C       		.uleb128 0x3c
 1437 017a 19       		.uleb128 0x19
 1438 017b 00       		.byte	0
 1439 017c 00       		.byte	0
 1440 017d 18       		.uleb128 0x18
 1441 017e 35       		.uleb128 0x35
 1442 017f 00       		.byte	0
 1443 0180 49       		.uleb128 0x49
 1444 0181 13       		.uleb128 0x13
 1445 0182 00       		.byte	0
 1446 0183 00       		.byte	0
 1447 0184 19       		.uleb128 0x19
 1448 0185 34       		.uleb128 0x34
 1449 0186 00       		.byte	0
 1450 0187 03       		.uleb128 0x3
 1451 0188 0E       		.uleb128 0xe
 1452 0189 3A       		.uleb128 0x3a
 1453 018a 0B       		.uleb128 0xb
 1454 018b 3B       		.uleb128 0x3b
 1455 018c 0B       		.uleb128 0xb
 1456 018d 49       		.uleb128 0x49
 1457 018e 13       		.uleb128 0x13
 1458 018f 3F       		.uleb128 0x3f
 1459 0190 19       		.uleb128 0x19
 1460 0191 02       		.uleb128 0x2
 1461 0192 18       		.uleb128 0x18
 1462 0193 00       		.byte	0
 1463 0194 00       		.byte	0
 1464 0195 1A       		.uleb128 0x1a
 1465 0196 34       		.uleb128 0x34
 1466 0197 00       		.byte	0
 1467 0198 03       		.uleb128 0x3
 1468 0199 0E       		.uleb128 0xe
 1469 019a 3A       		.uleb128 0x3a
 1470 019b 0B       		.uleb128 0xb
 1471 019c 3B       		.uleb128 0x3b
 1472 019d 0B       		.uleb128 0xb
 1473 019e 49       		.uleb128 0x49
 1474 019f 13       		.uleb128 0x13
 1475 01a0 3F       		.uleb128 0x3f
 1476 01a1 19       		.uleb128 0x19
 1477 01a2 3C       		.uleb128 0x3c
 1478 01a3 19       		.uleb128 0x19
ARM GAS  C:\Users\MARTHN~1\AppData\Local\Temp\ccKwsTCB.s 			page 32


 1479 01a4 00       		.byte	0
 1480 01a5 00       		.byte	0
 1481 01a6 00       		.byte	0
 1482              		.section	.debug_aranges,"",%progbits
 1483 0000 44000000 		.4byte	0x44
 1484 0004 0200     		.2byte	0x2
 1485 0006 00000000 		.4byte	.Ldebug_info0
 1486 000a 04       		.byte	0x4
 1487 000b 00       		.byte	0
 1488 000c 0000     		.2byte	0
 1489 000e 0000     		.2byte	0
 1490 0010 00000000 		.4byte	.LFB63
 1491 0014 54010000 		.4byte	.LFE63-.LFB63
 1492 0018 00000000 		.4byte	.LFB64
 1493 001c 0E000000 		.4byte	.LFE64-.LFB64
 1494 0020 00000000 		.4byte	.LFB65
 1495 0024 E4000000 		.4byte	.LFE65-.LFB65
 1496 0028 00000000 		.4byte	.LFB66
 1497 002c 68000000 		.4byte	.LFE66-.LFB66
 1498 0030 00000000 		.4byte	.LFB67
 1499 0034 0C000000 		.4byte	.LFE67-.LFB67
 1500 0038 00000000 		.4byte	.LFB68
 1501 003c 5C000000 		.4byte	.LFE68-.LFB68
 1502 0040 00000000 		.4byte	0
 1503 0044 00000000 		.4byte	0
 1504              		.section	.debug_ranges,"",%progbits
 1505              	.Ldebug_ranges0:
 1506 0000 00000000 		.4byte	.LFB63
 1507 0004 54010000 		.4byte	.LFE63
 1508 0008 00000000 		.4byte	.LFB64
 1509 000c 0E000000 		.4byte	.LFE64
 1510 0010 00000000 		.4byte	.LFB65
 1511 0014 E4000000 		.4byte	.LFE65
 1512 0018 00000000 		.4byte	.LFB66
 1513 001c 68000000 		.4byte	.LFE66
 1514 0020 00000000 		.4byte	.LFB67
 1515 0024 0C000000 		.4byte	.LFE67
 1516 0028 00000000 		.4byte	.LFB68
 1517 002c 5C000000 		.4byte	.LFE68
 1518 0030 00000000 		.4byte	0
 1519 0034 00000000 		.4byte	0
 1520              		.section	.debug_line,"",%progbits
 1521              	.Ldebug_line0:
 1522 0000 67020000 		.section	.debug_str,"MS",%progbits,1
 1522      02006601 
 1522      00000201 
 1522      FB0E0D00 
 1522      01010101 
 1523              	.LASF57:
 1524 0000 53697265 		.ascii	"SirenTest\000"
 1524      6E546573 
 1524      7400
 1525              	.LASF20:
 1526 000a 4661696C 		.ascii	"Failures\000"
 1526      75726573 
 1526      00
 1527              	.LASF40:
ARM GAS  C:\Users\MARTHN~1\AppData\Local\Temp\ccKwsTCB.s 			page 33


 1528 0013 53546573 		.ascii	"STest_20ms_isr\000"
 1528      745F3230 
 1528      6D735F69 
 1528      737200
 1529              	.LASF53:
 1530 0022 474E5520 		.ascii	"GNU C11 5.4.1 20160609 (release) [ARM/embedded-5-br"
 1530      43313120 
 1530      352E342E 
 1530      31203230 
 1530      31363036 
 1531 0055 616E6368 		.ascii	"anch revision 237715] -mcpu=cortex-m3 -mthumb -g -O"
 1531      20726576 
 1531      6973696F 
 1531      6E203233 
 1531      37373135 
 1532 0088 30202D66 		.ascii	"0 -ffunction-sections -ffat-lto-objects\000"
 1532      66756E63 
 1532      74696F6E 
 1532      2D736563 
 1532      74696F6E 
 1533              	.LASF30:
 1534 00b0 41554449 		.ascii	"AUDIO_STREAM\000"
 1534      4F5F5354 
 1534      5245414D 
 1534      00
 1535              	.LASF23:
 1536 00bd 52544553 		.ascii	"RTEST_CONT\000"
 1536      545F434F 
 1536      4E5400
 1537              	.LASF48:
 1538 00c8 50425F4E 		.ascii	"PB_NextAction_Released\000"
 1538      65787441 
 1538      6374696F 
 1538      6E5F5265 
 1538      6C656173 
 1539              	.LASF9:
 1540 00df 5F5F696E 		.ascii	"__int32_t\000"
 1540      7433325F 
 1540      7400
 1541              	.LASF45:
 1542 00e9 53546573 		.ascii	"STest_20ms_isr_count\000"
 1542      745F3230 
 1542      6D735F69 
 1542      73725F63 
 1542      6F756E74 
 1543              	.LASF3:
 1544 00fe 73686F72 		.ascii	"short unsigned int\000"
 1544      7420756E 
 1544      7369676E 
 1544      65642069 
 1544      6E7400
 1545              	.LASF19:
 1546 0111 54657374 		.ascii	"TestStep\000"
 1546      53746570 
 1546      00
 1547              	.LASF38:
 1548 011a 50425F72 		.ascii	"PB_reading\000"
ARM GAS  C:\Users\MARTHN~1\AppData\Local\Temp\ccKwsTCB.s 			page 34


 1548      65616469 
 1548      6E6700
 1549              	.LASF42:
 1550 0125 53546573 		.ascii	"STest_isr_PB\000"
 1550      745F6973 
 1550      725F5042 
 1550      00
 1551              	.LASF18:
 1552 0132 53656C65 		.ascii	"SelectedTest\000"
 1552      63746564 
 1552      54657374 
 1552      00
 1553              	.LASF10:
 1554 013f 696E7433 		.ascii	"int32_t\000"
 1554      325F7400 
 1555              	.LASF22:
 1556 0147 43544553 		.ascii	"CTEST_RELAY\000"
 1556      545F5245 
 1556      4C415900 
 1557              	.LASF13:
 1558 0153 666C6F61 		.ascii	"float\000"
 1558      7400
 1559              	.LASF47:
 1560 0159 50425F4E 		.ascii	"PB_NextAction_Pressed\000"
 1560      65787441 
 1560      6374696F 
 1560      6E5F5072 
 1560      65737365 
 1561              	.LASF5:
 1562 016f 6C6F6E67 		.ascii	"long unsigned int\000"
 1562      20756E73 
 1562      69676E65 
 1562      6420696E 
 1562      7400
 1563              	.LASF52:
 1564 0181 43757272 		.ascii	"CurrentTest\000"
 1564      656E7454 
 1564      65737400 
 1565              	.LASF32:
 1566 018d 4F564552 		.ascii	"OVERLOAD\000"
 1566      4C4F4144 
 1566      00
 1567              	.LASF39:
 1568 0196 50425F72 		.ascii	"PB_reading_previous\000"
 1568      65616469 
 1568      6E675F70 
 1568      72657669 
 1568      6F757300 
 1569              	.LASF55:
 1570 01aa 433A5C55 		.ascii	"C:\\Users\\marthnick\\Desktop\\firm_F1-TestFixture\\"
 1570      73657273 
 1570      5C6D6172 
 1570      74686E69 
 1570      636B5C44 
 1571 01d9 46312D54 		.ascii	"F1-TestFixture.cydsn\000"
 1571      65737446 
 1571      69787475 
ARM GAS  C:\Users\MARTHN~1\AppData\Local\Temp\ccKwsTCB.s 			page 35


 1571      72652E63 
 1571      7964736E 
 1572              	.LASF43:
 1573 01ee 53546573 		.ascii	"STest_sendDiagPacket\000"
 1573      745F7365 
 1573      6E644469 
 1573      61675061 
 1573      636B6574 
 1574              	.LASF1:
 1575 0203 756E7369 		.ascii	"unsigned char\000"
 1575      676E6564 
 1575      20636861 
 1575      7200
 1576              	.LASF28:
 1577 0211 5252425F 		.ascii	"RRB_AMP1\000"
 1577      414D5031 
 1577      00
 1578              	.LASF14:
 1579 021a 646F7562 		.ascii	"double\000"
 1579      6C6500
 1580              	.LASF25:
 1581 0221 53544553 		.ascii	"STEST_RELAY\000"
 1581      545F5245 
 1581      4C415900 
 1582              	.LASF12:
 1583 022d 75696E74 		.ascii	"uint16\000"
 1583      313600
 1584              	.LASF27:
 1585 0234 494E4954 		.ascii	"INITIALIZE_TEST\000"
 1585      49414C49 
 1585      5A455F54 
 1585      45535400 
 1586              	.LASF50:
 1587 0244 49544D5F 		.ascii	"ITM_RxBuffer\000"
 1587      52784275 
 1587      66666572 
 1587      00
 1588              	.LASF44:
 1589 0251 53546573 		.ascii	"STestStatus_display\000"
 1589      74537461 
 1589      7475735F 
 1589      64697370 
 1589      6C617900 
 1590              	.LASF49:
 1591 0265 53546573 		.ascii	"STestStatus\000"
 1591      74537461 
 1591      74757300 
 1592              	.LASF8:
 1593 0271 756E7369 		.ascii	"unsigned int\000"
 1593      676E6564 
 1593      20696E74 
 1593      00
 1594              	.LASF7:
 1595 027e 6C6F6E67 		.ascii	"long long unsigned int\000"
 1595      206C6F6E 
 1595      6720756E 
 1595      7369676E 
ARM GAS  C:\Users\MARTHN~1\AppData\Local\Temp\ccKwsTCB.s 			page 36


 1595      65642069 
 1596              	.LASF35:
 1597 0295 50425F4E 		.ascii	"PB_NextAction_failcount\000"
 1597      65787441 
 1597      6374696F 
 1597      6E5F6661 
 1597      696C636F 
 1598              	.LASF36:
 1599 02ad 50425F4E 		.ascii	"PB_NextAction_prevstate\000"
 1599      65787441 
 1599      6374696F 
 1599      6E5F7072 
 1599      65767374 
 1600              	.LASF16:
 1601 02c5 6C6F6E67 		.ascii	"long double\000"
 1601      20646F75 
 1601      626C6500 
 1602              	.LASF17:
 1603 02d1 73697A65 		.ascii	"sizetype\000"
 1603      74797065 
 1603      00
 1604              	.LASF6:
 1605 02da 6C6F6E67 		.ascii	"long long int\000"
 1605      206C6F6E 
 1605      6720696E 
 1605      7400
 1606              	.LASF54:
 1607 02e8 53697265 		.ascii	"SirenTest.c\000"
 1607      6E546573 
 1607      742E6300 
 1608              	.LASF15:
 1609 02f4 63686172 		.ascii	"char\000"
 1609      00
 1610              	.LASF41:
 1611 02f9 53546573 		.ascii	"STest_50ms_isr\000"
 1611      745F3530 
 1611      6D735F69 
 1611      737200
 1612              	.LASF21:
 1613 0308 53747275 		.ascii	"StructTestInfo\000"
 1613      63745465 
 1613      7374496E 
 1613      666F00
 1614              	.LASF24:
 1615 0317 52544553 		.ascii	"RTEST_SIREN\000"
 1615      545F5349 
 1615      52454E00 
 1616              	.LASF26:
 1617 0323 4D55585F 		.ascii	"MUX_DEMUX_230400_CHANNEL\000"
 1617      44454D55 
 1617      585F3233 
 1617      30343030 
 1617      5F434841 
 1618              	.LASF2:
 1619 033c 73686F72 		.ascii	"short int\000"
 1619      7420696E 
 1619      7400
ARM GAS  C:\Users\MARTHN~1\AppData\Local\Temp\ccKwsTCB.s 			page 37


 1620              	.LASF46:
 1621 0346 53546573 		.ascii	"STest_20ms_isr_EN\000"
 1621      745F3230 
 1621      6D735F69 
 1621      73725F45 
 1621      4E00
 1622              	.LASF11:
 1623 0358 75696E74 		.ascii	"uint8\000"
 1623      3800
 1624              	.LASF4:
 1625 035e 6C6F6E67 		.ascii	"long int\000"
 1625      20696E74 
 1625      00
 1626              	.LASF51:
 1627 0367 54657374 		.ascii	"Test\000"
 1627      00
 1628              	.LASF56:
 1629 036c 73747275 		.ascii	"structTestInfo\000"
 1629      63745465 
 1629      7374496E 
 1629      666F00
 1630              	.LASF37:
 1631 037b 6465626F 		.ascii	"debouncetrue\000"
 1631      756E6365 
 1631      74727565 
 1631      00
 1632              	.LASF0:
 1633 0388 7369676E 		.ascii	"signed char\000"
 1633      65642063 
 1633      68617200 
 1634              	.LASF58:
 1635 0394 53546573 		.ascii	"STest_Test_Amp1\000"
 1635      745F5465 
 1635      73745F41 
 1635      6D703100 
 1636              	.LASF29:
 1637 03a4 4D49435F 		.ascii	"MIC_AMP2\000"
 1637      414D5032 
 1637      00
 1638              	.LASF33:
 1639 03ad 4641494C 		.ascii	"FAIL\000"
 1639      00
 1640              	.LASF31:
 1641 03b2 464C4153 		.ascii	"FLASH\000"
 1641      4800
 1642              	.LASF34:
 1643 03b8 50425F4E 		.ascii	"PB_NextAction_debouncecount\000"
 1643      65787441 
 1643      6374696F 
 1643      6E5F6465 
 1643      626F756E 
 1644              		.ident	"GCC: (GNU Tools for ARM Embedded Processors) 5.4.1 20160609 (release) [ARM/embedded-5-bran
