ARM GAS  C:\Users\MARTHN~1\AppData\Local\Temp\ccDJiEkb.s 			page 1


   1              		.syntax unified
   2              		.cpu cortex-m3
   3              		.fpu softvfp
   4              		.eabi_attribute 20, 1
   5              		.eabi_attribute 21, 1
   6              		.eabi_attribute 23, 3
   7              		.eabi_attribute 24, 1
   8              		.eabi_attribute 25, 1
   9              		.eabi_attribute 26, 1
  10              		.eabi_attribute 30, 6
  11              		.eabi_attribute 34, 1
  12              		.eabi_attribute 18, 4
  13              		.thumb
  14              		.syntax unified
  15              		.file	"SirenTest.c"
  16              		.text
  17              	.Ltext0:
  18              		.cfi_sections	.debug_frame
  19              		.comm	Test,3,4
  20              		.data
  21              		.align	2
  22              		.type	STest_TimeoutCount, %object
  23              		.size	STest_TimeoutCount, 22
  24              	STest_TimeoutCount:
  25 0000 3200     		.short	50
  26 0002 3200     		.short	50
  27 0004 2C01     		.short	300
  28 0006 3200     		.short	50
  29 0008 3200     		.short	50
  30 000a 3200     		.short	50
  31 000c 3200     		.short	50
  32 000e 3200     		.short	50
  33 0010 3200     		.short	50
  34 0012 6400     		.short	100
  35 0014 3200     		.short	50
  36              		.bss
  37              		.align	1
  38              	STest_20ms_isr_count:
  39 0000 0000     		.space	2
  40              		.align	1
  41              	STest_20ms_isr_EN:
  42 0002 0000     		.space	2
  43              	PB_NextAction_Pressed:
  44 0004 00       		.space	1
  45              	PB_NextAction_Released:
  46 0005 00       		.space	1
  47 0006 0000     		.align	2
  48              	STestStatus:
  49 0008 00000000 		.space	11
  49      00000000 
  49      000000
  50 0013 00       		.align	2
  51              	txPacket_RelaySiren:
  52 0014 00000000 		.space	79
  52      00000000 
  52      00000000 
  52      00000000 
ARM GAS  C:\Users\MARTHN~1\AppData\Local\Temp\ccDJiEkb.s 			page 2


  52      00000000 
  53 0063 00       		.align	2
  54              	pTxPacket_RelaySiren:
  55 0064 00000000 		.space	4
  56              		.align	2
  57              	rxPacket_RelaySiren:
  58 0068 00000000 		.space	15
  58      00000000 
  58      00000000 
  58      000000
  59 0077 00       		.align	2
  60              	pRxPacket_RelaySiren:
  61 0078 00000000 		.space	4
  62              		.align	2
  63              	rxPacket_H:
  64 007c 00000000 		.space	5
  64      00
  65 0081 000000   		.align	2
  66              	pRxPacket_H:
  67 0084 00000000 		.space	4
  68              		.section	.text.SirenTest,"ax",%progbits
  69              		.align	2
  70              		.global	SirenTest
  71              		.thumb
  72              		.thumb_func
  73              		.type	SirenTest, %function
  74              	SirenTest:
  75              	.LFB63:
  76              		.file 1 "SirenTest.c"
   1:SirenTest.c   **** /* ========================================
   2:SirenTest.c   ****  *
   3:SirenTest.c   ****  * Copyright YOUR COMPANY, THE YEAR * All Rights Reserved
   4:SirenTest.c   ****  * UNPUBLISHED, LICENSED SOFTWARE.
   5:SirenTest.c   ****  *
   6:SirenTest.c   ****  * CONFIDENTIAL AND PROPRIETARY INFORMATION
   7:SirenTest.c   ****  * WHICH IS THE PROPERTY OF your company.
   8:SirenTest.c   ****  *
   9:SirenTest.c   ****  * ========================================
  10:SirenTest.c   **** */
  11:SirenTest.c   **** 
  12:SirenTest.c   **** #include <project.h>
  13:SirenTest.c   **** #include "CommonVariables.h"
  14:SirenTest.c   **** #include "SirenTest.h"
  15:SirenTest.c   **** #include "UART_230400_Functions.h"
  16:SirenTest.c   **** #include "UART_460800_Functions.h"
  17:SirenTest.c   **** 
  18:SirenTest.c   **** //#define TIMEOUT_FAIL        50        // Number of 20msec counts before failure timeout
  19:SirenTest.c   **** #define DEBOUNCE_COUNT      2           // (5 * 20msec)
  20:SirenTest.c   **** #define CONFIRM_TIME        100         // How many msec to show pass/fail for each step
  21:SirenTest.c   **** 
  22:SirenTest.c   **** enum MUX_DEMUX_230400_CHANNEL              
  23:SirenTest.c   **** { 
  24:SirenTest.c   ****     CTEST_RELAY, 
  25:SirenTest.c   ****     RTEST_CONT,
  26:SirenTest.c   ****     RTEST_SIREN,
  27:SirenTest.c   ****     STEST_RELAY            
  28:SirenTest.c   **** };
ARM GAS  C:\Users\MARTHN~1\AppData\Local\Temp\ccDJiEkb.s 			page 3


  29:SirenTest.c   **** 
  30:SirenTest.c   **** enum DEMUX_460800_CHANNEL              
  31:SirenTest.c   **** { 
  32:SirenTest.c   ****     CTEST_OBDII, 
  33:SirenTest.c   ****     RTEST_QUAD,
  34:SirenTest.c   ****     STEST_AUDIO            
  35:SirenTest.c   **** };
  36:SirenTest.c   **** 
  37:SirenTest.c   **** 
  38:SirenTest.c   **** // --------------Test steps---------------
  39:SirenTest.c   **** #define NUMBER_TEST_STEPS 11
  40:SirenTest.c   **** static uint16 STest_TimeoutCount[NUMBER_TEST_STEPS] = {50,50,300,50,50,50,50,50,50,100,50};  // Num
  41:SirenTest.c   **** 
  42:SirenTest.c   **** enum TestStep
  43:SirenTest.c   **** { 
  44:SirenTest.c   ****     INITIALIZE_TEST,            // ------------------------------------------------ 
  45:SirenTest.c   ****     UART_RX,                    // (not used)(we know this works if any of the test steps pass)
  46:SirenTest.c   ****     UART_TX,                    // COMPLETE
  47:SirenTest.c   ****     AMP1,                       // COMPLETE
  48:SirenTest.c   ****     AMP2,                       // COMPLETE
  49:SirenTest.c   ****     RRB,                        // (not used)(must have an external speaker to hear these tones)
  50:SirenTest.c   ****     MIC,                        // (not used)(never got working well) 
  51:SirenTest.c   ****     AUDIO_STREAM,               // (not used)
  52:SirenTest.c   ****     FLASH,                      // COMPLETE (not used)(must have an external speaker to hear these 
  53:SirenTest.c   ****     OVERLOAD,                   // COMPLETE
  54:SirenTest.c   ****     PASS                        // ------------------------------------------------
  55:SirenTest.c   **** };
  56:SirenTest.c   **** // Test UART to and from relay  // RX TESTED(not implemented in this test yet)    -
  57:SirenTest.c   **** 
  58:SirenTest.c   **** static uint16 STest_20ms_isr_count = 0;         // Test step timeout variables
  59:SirenTest.c   **** static uint16 STest_20ms_isr_EN = 0;
  60:SirenTest.c   **** 
  61:SirenTest.c   **** static uint8 PB_NextAction_Pressed = 0;
  62:SirenTest.c   **** static uint8 PB_NextAction_Released = 0;
  63:SirenTest.c   **** 
  64:SirenTest.c   **** static uint8 STestStatus[NUMBER_TEST_STEPS];
  65:SirenTest.c   **** 
  66:SirenTest.c   **** static TxPacket_RelaySiren txPacket_RelaySiren;         // SetRelayOutputs - 'I' (also 3,S,P) contr
  67:SirenTest.c   **** static TxPacket_RelaySiren * pTxPacket_RelaySiren;      // 
  68:SirenTest.c   **** 
  69:SirenTest.c   **** static RxPacket_RelaySiren rxPacket_RelaySiren;         // SetRelayOutputs - 'D' - relay to control
  70:SirenTest.c   **** static RxPacket_RelaySiren * pRxPacket_RelaySiren;      // 
  71:SirenTest.c   **** 
  72:SirenTest.c   **** static Packet_H rxPacket_H;                             // SetRelayOutputs - 'H' - siren to relay
  73:SirenTest.c   **** static Packet_H * pRxPacket_H;                          // 
  74:SirenTest.c   **** 
  75:SirenTest.c   **** uint8 SirenTest(void)
  76:SirenTest.c   **** {
  77              		.loc 1 76 0
  78              		.cfi_startproc
  79              		@ args = 0, pretend = 0, frame = 8
  80              		@ frame_needed = 1, uses_anonymous_args = 0
  81 0000 80B5     		push	{r7, lr}
  82              		.cfi_def_cfa_offset 8
  83              		.cfi_offset 7, -8
  84              		.cfi_offset 14, -4
  85 0002 82B0     		sub	sp, sp, #8
ARM GAS  C:\Users\MARTHN~1\AppData\Local\Temp\ccDJiEkb.s 			page 4


  86              		.cfi_def_cfa_offset 16
  87 0004 00AF     		add	r7, sp, #0
  88              		.cfi_def_cfa_register 7
  77:SirenTest.c   **** 
  78:SirenTest.c   ****     switch(CurrentTest.TestStep)
  89              		.loc 1 78 0
  90 0006 A74B     		ldr	r3, .L31
  91 0008 5B78     		ldrb	r3, [r3, #1]	@ zero_extendqisi2
  92 000a 0A2B     		cmp	r3, #10
  93 000c 00F22B82 		bhi	.L2
  94 0010 01A2     		adr	r2, .L4
  95 0012 52F823F0 		ldr	pc, [r2, r3, lsl #2]
  96 0016 00BF     		.p2align 2
  97              	.L4:
  98 0018 45000000 		.word	.L3+1
  99 001c 3D010000 		.word	.L5+1
 100 0020 5D010000 		.word	.L6+1
 101 0024 9B010000 		.word	.L7+1
 102 0028 EB010000 		.word	.L8+1
 103 002c 3D020000 		.word	.L9+1
 104 0030 57020000 		.word	.L10+1
 105 0034 71020000 		.word	.L11+1
 106 0038 8B020000 		.word	.L12+1
 107 003c B1020000 		.word	.L13+1
 108 0040 0D040000 		.word	.L14+1
 109              		.p2align 1
 110              	.L3:
 111              	.LBB2:
  79:SirenTest.c   ****     {   
  80:SirenTest.c   ****                 
  81:SirenTest.c   ****         case INITIALIZE_TEST:
  82:SirenTest.c   ****         
  83:SirenTest.c   ****             for (uint8 i=0;i<NUMBER_TEST_STEPS;i++)            // Reset Status of all test steps to
 112              		.loc 1 83 0
 113 0044 0023     		movs	r3, #0
 114 0046 FB71     		strb	r3, [r7, #7]
 115 0048 06E0     		b	.L15
 116              	.L16:
  84:SirenTest.c   ****                 STestStatus[i] = '_';
 117              		.loc 1 84 0 discriminator 3
 118 004a FB79     		ldrb	r3, [r7, #7]	@ zero_extendqisi2
 119 004c 964A     		ldr	r2, .L31+4
 120 004e 5F21     		movs	r1, #95
 121 0050 D154     		strb	r1, [r2, r3]
  83:SirenTest.c   ****                 STestStatus[i] = '_';
 122              		.loc 1 83 0 discriminator 3
 123 0052 FB79     		ldrb	r3, [r7, #7]	@ zero_extendqisi2
 124 0054 0133     		adds	r3, r3, #1
 125 0056 FB71     		strb	r3, [r7, #7]
 126              	.L15:
  83:SirenTest.c   ****                 STestStatus[i] = '_';
 127              		.loc 1 83 0 is_stmt 0 discriminator 1
 128 0058 FB79     		ldrb	r3, [r7, #7]	@ zero_extendqisi2
 129 005a 0A2B     		cmp	r3, #10
 130 005c F5D9     		bls	.L16
 131              	.LBE2:
  85:SirenTest.c   ****                 
ARM GAS  C:\Users\MARTHN~1\AppData\Local\Temp\ccDJiEkb.s 			page 5


  86:SirenTest.c   ****             STestStatus[CurrentTest.TestStep] = 'I';
 132              		.loc 1 86 0 is_stmt 1
 133 005e 914B     		ldr	r3, .L31
 134 0060 5B78     		ldrb	r3, [r3, #1]	@ zero_extendqisi2
 135 0062 1A46     		mov	r2, r3
 136 0064 904B     		ldr	r3, .L31+4
 137 0066 4921     		movs	r1, #73
 138 0068 9954     		strb	r1, [r3, r2]
  87:SirenTest.c   ****             CurrentTest.Status = 'I';
 139              		.loc 1 87 0
 140 006a 8E4B     		ldr	r3, .L31
 141 006c 4922     		movs	r2, #73
 142 006e 9A70     		strb	r2, [r3, #2]
  88:SirenTest.c   ****             
  89:SirenTest.c   ****             STest_SIREN_EN_Write(1);                    // Enable Siren
 143              		.loc 1 89 0
 144 0070 0120     		movs	r0, #1
 145 0072 FFF7FEFF 		bl	STest_SIREN_EN_Write
  90:SirenTest.c   ****             
  91:SirenTest.c   ****             Overload1_Write(0);
 146              		.loc 1 91 0
 147 0076 0020     		movs	r0, #0
 148 0078 FFF7FEFF 		bl	Overload1_Write
  92:SirenTest.c   ****             Overload2_Write(0); 
 149              		.loc 1 92 0
 150 007c 0020     		movs	r0, #0
 151 007e FFF7FEFF 		bl	Overload2_Write
  93:SirenTest.c   ****             
  94:SirenTest.c   **** //            WaveDAC_Start();
  95:SirenTest.c   **** //            
  96:SirenTest.c   **** //            while(1)
  97:SirenTest.c   **** //            {
  98:SirenTest.c   **** //               STest_PlayTestTone();   // Play test tone for 3sec
  99:SirenTest.c   **** //            }
 100:SirenTest.c   ****             
 101:SirenTest.c   ****             pTxPacket_RelaySiren = getTxPacket_RelaySiren();        // Tx - Initialize TX_RelaySire
 152              		.loc 1 101 0
 153 0082 FFF7FEFF 		bl	getTxPacket_RelaySiren
 154 0086 0246     		mov	r2, r0
 155 0088 884B     		ldr	r3, .L31+8
 156 008a 1A60     		str	r2, [r3]
 157              	.LBB3:
 102:SirenTest.c   ****             for(uint8 i;i<79;i++)
 158              		.loc 1 102 0
 159 008c 07E0     		b	.L17
 160              	.L18:
 103:SirenTest.c   ****                 pTxPacket_RelaySiren->bytes[i] = 0;
 161              		.loc 1 103 0 discriminator 2
 162 008e 874B     		ldr	r3, .L31+8
 163 0090 1A68     		ldr	r2, [r3]
 164 0092 BB79     		ldrb	r3, [r7, #6]	@ zero_extendqisi2
 165 0094 0021     		movs	r1, #0
 166 0096 D154     		strb	r1, [r2, r3]
 102:SirenTest.c   ****             for(uint8 i;i<79;i++)
 167              		.loc 1 102 0 discriminator 2
 168 0098 BB79     		ldrb	r3, [r7, #6]	@ zero_extendqisi2
 169 009a 0133     		adds	r3, r3, #1
ARM GAS  C:\Users\MARTHN~1\AppData\Local\Temp\ccDJiEkb.s 			page 6


 170 009c BB71     		strb	r3, [r7, #6]
 171              	.L17:
 102:SirenTest.c   ****             for(uint8 i;i<79;i++)
 172              		.loc 1 102 0 is_stmt 0 discriminator 1
 173 009e BB79     		ldrb	r3, [r7, #6]	@ zero_extendqisi2
 174 00a0 4E2B     		cmp	r3, #78
 175 00a2 F4D9     		bls	.L18
 176              	.LBE3:
 104:SirenTest.c   ****             
 105:SirenTest.c   ****             pTxPacket_RelaySiren->Payload.StartByte_FLB = '~';
 177              		.loc 1 105 0 is_stmt 1
 178 00a4 814B     		ldr	r3, .L31+8
 179 00a6 1B68     		ldr	r3, [r3]
 180 00a8 7E22     		movs	r2, #126
 181 00aa 83F83520 		strb	r2, [r3, #53]
 106:SirenTest.c   ****             pTxPacket_RelaySiren->Payload.FLB_PacketType = '3';
 182              		.loc 1 106 0
 183 00ae 7F4B     		ldr	r3, .L31+8
 184 00b0 1B68     		ldr	r3, [r3]
 185 00b2 3322     		movs	r2, #51
 186 00b4 83F83620 		strb	r2, [r3, #54]
 107:SirenTest.c   ****             pTxPacket_RelaySiren->Payload.StopByte1_FLB = 0x0D;
 187              		.loc 1 107 0
 188 00b8 7C4B     		ldr	r3, .L31+8
 189 00ba 1B68     		ldr	r3, [r3]
 190 00bc 0D22     		movs	r2, #13
 191 00be 83F83A20 		strb	r2, [r3, #58]
 108:SirenTest.c   ****             pTxPacket_RelaySiren->Payload.StopByte2_FLB = 0x0A; 
 192              		.loc 1 108 0
 193 00c2 7A4B     		ldr	r3, .L31+8
 194 00c4 1B68     		ldr	r3, [r3]
 195 00c6 0A22     		movs	r2, #10
 196 00c8 83F83B20 		strb	r2, [r3, #59]
 109:SirenTest.c   ****         
 110:SirenTest.c   ****             pTxPacket_RelaySiren->Payload.StartByte1_Siren = '~';    
 197              		.loc 1 110 0
 198 00cc 774B     		ldr	r3, .L31+8
 199 00ce 1B68     		ldr	r3, [r3]
 200 00d0 7E22     		movs	r2, #126
 201 00d2 83F83C20 		strb	r2, [r3, #60]
 111:SirenTest.c   ****             pTxPacket_RelaySiren->Payload.Siren_PacketType = 'S';
 202              		.loc 1 111 0
 203 00d6 754B     		ldr	r3, .L31+8
 204 00d8 1B68     		ldr	r3, [r3]
 205 00da 5322     		movs	r2, #83
 206 00dc 83F83D20 		strb	r2, [r3, #61]
 112:SirenTest.c   ****             pTxPacket_RelaySiren->Payload.StopByte1_Siren = 0x0D;
 207              		.loc 1 112 0
 208 00e0 724B     		ldr	r3, .L31+8
 209 00e2 1B68     		ldr	r3, [r3]
 210 00e4 0D22     		movs	r2, #13
 211 00e6 83F84120 		strb	r2, [r3, #65]
 113:SirenTest.c   ****             pTxPacket_RelaySiren->Payload.StopByte2_Siren = 0x0A;
 212              		.loc 1 113 0
 213 00ea 704B     		ldr	r3, .L31+8
 214 00ec 1B68     		ldr	r3, [r3]
 215 00ee 0A22     		movs	r2, #10
ARM GAS  C:\Users\MARTHN~1\AppData\Local\Temp\ccDJiEkb.s 			page 7


 216 00f0 83F84220 		strb	r2, [r3, #66]
 114:SirenTest.c   ****         
 115:SirenTest.c   ****             pTxPacket_RelaySiren->Payload.StartByte1_Relay = '~';
 217              		.loc 1 115 0
 218 00f4 6D4B     		ldr	r3, .L31+8
 219 00f6 1B68     		ldr	r3, [r3]
 220 00f8 7E22     		movs	r2, #126
 221 00fa 83F84320 		strb	r2, [r3, #67]
 116:SirenTest.c   ****             pTxPacket_RelaySiren->Payload.Relay_PacketType = 'P';
 222              		.loc 1 116 0
 223 00fe 6B4B     		ldr	r3, .L31+8
 224 0100 1B68     		ldr	r3, [r3]
 225 0102 5022     		movs	r2, #80
 226 0104 83F84420 		strb	r2, [r3, #68]
 117:SirenTest.c   ****             pTxPacket_RelaySiren->Payload.StopByte1_Relay = 0x0D;
 227              		.loc 1 117 0
 228 0108 684B     		ldr	r3, .L31+8
 229 010a 1B68     		ldr	r3, [r3]
 230 010c 0D22     		movs	r2, #13
 231 010e 83F84D20 		strb	r2, [r3, #77]
 118:SirenTest.c   ****             pTxPacket_RelaySiren->Payload.StopByte2_Relay = 0x0A; 
 232              		.loc 1 118 0
 233 0112 664B     		ldr	r3, .L31+8
 234 0114 1B68     		ldr	r3, [r3]
 235 0116 0A22     		movs	r2, #10
 236 0118 83F84E20 		strb	r2, [r3, #78]
 119:SirenTest.c   ****             
 120:SirenTest.c   ****             STestStatus[CurrentTest.TestStep] = 'P';
 237              		.loc 1 120 0
 238 011c 614B     		ldr	r3, .L31
 239 011e 5B78     		ldrb	r3, [r3, #1]	@ zero_extendqisi2
 240 0120 1A46     		mov	r2, r3
 241 0122 614B     		ldr	r3, .L31+4
 242 0124 5021     		movs	r1, #80
 243 0126 9954     		strb	r1, [r3, r2]
 121:SirenTest.c   ****             CurrentTest.Status = 'P'; 
 244              		.loc 1 121 0
 245 0128 5E4B     		ldr	r3, .L31
 246 012a 5022     		movs	r2, #80
 247 012c 9A70     		strb	r2, [r3, #2]
 122:SirenTest.c   ****         
 123:SirenTest.c   ****             CyDelay(CONFIRM_TIME);
 248              		.loc 1 123 0
 249 012e 6420     		movs	r0, #100
 250 0130 FFF7FEFF 		bl	CyDelay
 124:SirenTest.c   ****   
 125:SirenTest.c   ****             CurrentTest.TestStep = UART_RX;
 251              		.loc 1 125 0
 252 0134 5B4B     		ldr	r3, .L31
 253 0136 0122     		movs	r2, #1
 254 0138 5A70     		strb	r2, [r3, #1]
 126:SirenTest.c   ****             //CurrentTest.TestStep = AMP1;
 127:SirenTest.c   ****             //CurrentTest.TestStep = FLASH;
 128:SirenTest.c   ****             //CurrentTest.TestStep = OVERLOAD;
 129:SirenTest.c   ****             //CurrentTest.TestStep = RRB;
 130:SirenTest.c   ****             //CurrentTest.TestStep = MIC;
 131:SirenTest.c   ****         
ARM GAS  C:\Users\MARTHN~1\AppData\Local\Temp\ccDJiEkb.s 			page 8


 132:SirenTest.c   ****         break;
 255              		.loc 1 132 0
 256 013a 94E1     		b	.L2
 257              	.L5:
 133:SirenTest.c   ****                   
 134:SirenTest.c   ****         case UART_RX:                               // No Action -  (this is already proven by test
 135:SirenTest.c   ****                 
 136:SirenTest.c   ****             STestStatus[CurrentTest.TestStep] = 'P';
 258              		.loc 1 136 0
 259 013c 594B     		ldr	r3, .L31
 260 013e 5B78     		ldrb	r3, [r3, #1]	@ zero_extendqisi2
 261 0140 1A46     		mov	r2, r3
 262 0142 594B     		ldr	r3, .L31+4
 263 0144 5021     		movs	r1, #80
 264 0146 9954     		strb	r1, [r3, r2]
 137:SirenTest.c   ****             CurrentTest.Status = 'P'; 
 265              		.loc 1 137 0
 266 0148 564B     		ldr	r3, .L31
 267 014a 5022     		movs	r2, #80
 268 014c 9A70     		strb	r2, [r3, #2]
 138:SirenTest.c   ****             CyDelay(CONFIRM_TIME);
 269              		.loc 1 138 0
 270 014e 6420     		movs	r0, #100
 271 0150 FFF7FEFF 		bl	CyDelay
 139:SirenTest.c   ****             
 140:SirenTest.c   ****             CurrentTest.TestStep = UART_TX;
 272              		.loc 1 140 0
 273 0154 534B     		ldr	r3, .L31
 274 0156 0222     		movs	r2, #2
 275 0158 5A70     		strb	r2, [r3, #1]
 141:SirenTest.c   ****         
 142:SirenTest.c   ****         break;  
 276              		.loc 1 142 0
 277 015a 84E1     		b	.L2
 278              	.L6:
 143:SirenTest.c   ****                     
 144:SirenTest.c   ****         case UART_TX:                               // Automated - 
 145:SirenTest.c   ****                 
 146:SirenTest.c   ****             StartAutomatedStep();
 279              		.loc 1 146 0
 280 015c FFF7FEFF 		bl	StartAutomatedStep
 147:SirenTest.c   ****         
 148:SirenTest.c   ****             MUX_CTRL_230400_Write(STEST_RELAY);     // Mux 230400 from siren
 281              		.loc 1 148 0
 282 0160 0320     		movs	r0, #3
 283 0162 FFF7FEFF 		bl	MUX_CTRL_230400_Write
 149:SirenTest.c   ****             
 150:SirenTest.c   ****             VerifyPacket_230400(RTEST_SIREN);       // Verify a 'H' packet
 284              		.loc 1 150 0
 285 0166 0220     		movs	r0, #2
 286 0168 FFF7FEFF 		bl	VerifyPacket_230400
 151:SirenTest.c   ****             while( (!VerifyPacket_230400(RTEST_SIREN)) && (STestStatus[CurrentTest.TestStep] != 'F'
 287              		.loc 1 151 0
 288 016c 00BF     		nop
 289              	.L20:
 290              		.loc 1 151 0 is_stmt 0 discriminator 2
 291 016e 0220     		movs	r0, #2
ARM GAS  C:\Users\MARTHN~1\AppData\Local\Temp\ccDJiEkb.s 			page 9


 292 0170 FFF7FEFF 		bl	VerifyPacket_230400
 293 0174 0346     		mov	r3, r0
 294 0176 002B     		cmp	r3, #0
 295 0178 06D1     		bne	.L19
 296              		.loc 1 151 0 discriminator 1
 297 017a 4A4B     		ldr	r3, .L31
 298 017c 5B78     		ldrb	r3, [r3, #1]	@ zero_extendqisi2
 299 017e 1A46     		mov	r2, r3
 300 0180 494B     		ldr	r3, .L31+4
 301 0182 9B5C     		ldrb	r3, [r3, r2]	@ zero_extendqisi2
 302 0184 462B     		cmp	r3, #70
 303 0186 F2D1     		bne	.L20
 304              	.L19:
 152:SirenTest.c   ****             {} 
 153:SirenTest.c   ****             
 154:SirenTest.c   ****             StopAutomatedStep();
 305              		.loc 1 154 0 is_stmt 1
 306 0188 FFF7FEFF 		bl	StopAutomatedStep
 155:SirenTest.c   ****             
 156:SirenTest.c   ****             CyDelay(CONFIRM_TIME);
 307              		.loc 1 156 0
 308 018c 6420     		movs	r0, #100
 309 018e FFF7FEFF 		bl	CyDelay
 157:SirenTest.c   ****             
 158:SirenTest.c   ****             CurrentTest.TestStep = AMP1;
 310              		.loc 1 158 0
 311 0192 444B     		ldr	r3, .L31
 312 0194 0322     		movs	r2, #3
 313 0196 5A70     		strb	r2, [r3, #1]
 159:SirenTest.c   ****             //CurrentTest.TestStep = INITIALIZE_TEST;
 160:SirenTest.c   ****         
 161:SirenTest.c   ****         break;  
 314              		.loc 1 161 0
 315 0198 65E1     		b	.L2
 316              	.L7:
 162:SirenTest.c   ****                   
 163:SirenTest.c   ****         case AMP1:                                  // Manual - 
 164:SirenTest.c   ****                   
 165:SirenTest.c   ****             DEMUX_CTRL_230400_Write(STEST_RELAY);
 317              		.loc 1 165 0
 318 019a 0320     		movs	r0, #3
 319 019c FFF7FEFF 		bl	DEMUX_CTRL_230400_Write
 166:SirenTest.c   ****             pTxPacket_RelaySiren = getTxPacket_RelaySiren();    
 320              		.loc 1 166 0
 321 01a0 FFF7FEFF 		bl	getTxPacket_RelaySiren
 322 01a4 0246     		mov	r2, r0
 323 01a6 414B     		ldr	r3, .L31+8
 324 01a8 1A60     		str	r2, [r3]
 167:SirenTest.c   ****             pTxPacket_RelaySiren->Payload.Siren1Tone = 0x01; 
 325              		.loc 1 167 0
 326 01aa 404B     		ldr	r3, .L31+8
 327 01ac 1B68     		ldr	r3, [r3]
 328 01ae 0122     		movs	r2, #1
 329 01b0 83F83E20 		strb	r2, [r3, #62]
 168:SirenTest.c   ****             
 169:SirenTest.c   ****             STestStatus[CurrentTest.TestStep] = 'B';            // Let tone play for 3sec
 330              		.loc 1 169 0
ARM GAS  C:\Users\MARTHN~1\AppData\Local\Temp\ccDJiEkb.s 			page 10


 331 01b4 3B4B     		ldr	r3, .L31
 332 01b6 5B78     		ldrb	r3, [r3, #1]	@ zero_extendqisi2
 333 01b8 1A46     		mov	r2, r3
 334 01ba 3B4B     		ldr	r3, .L31+4
 335 01bc 4221     		movs	r1, #66
 336 01be 9954     		strb	r1, [r3, r2]
 170:SirenTest.c   ****             CurrentTest.Status = 'B'; 
 337              		.loc 1 170 0
 338 01c0 384B     		ldr	r3, .L31
 339 01c2 4222     		movs	r2, #66
 340 01c4 9A70     		strb	r2, [r3, #2]
 171:SirenTest.c   ****             CyDelay(1000);
 341              		.loc 1 171 0
 342 01c6 4FF47A70 		mov	r0, #1000
 343 01ca FFF7FEFF 		bl	CyDelay
 172:SirenTest.c   ****         
 173:SirenTest.c   ****             PB_WaitForAction();
 344              		.loc 1 173 0
 345 01ce FFF7FEFF 		bl	PB_WaitForAction
 174:SirenTest.c   ****             
 175:SirenTest.c   ****             pTxPacket_RelaySiren->Payload.Siren1Tone = 0x00;    // Turn off wail tone
 346              		.loc 1 175 0
 347 01d2 364B     		ldr	r3, .L31+8
 348 01d4 1B68     		ldr	r3, [r3]
 349 01d6 0022     		movs	r2, #0
 350 01d8 83F83E20 		strb	r2, [r3, #62]
 176:SirenTest.c   ****             
 177:SirenTest.c   ****             CyDelay(CONFIRM_TIME);
 351              		.loc 1 177 0
 352 01dc 6420     		movs	r0, #100
 353 01de FFF7FEFF 		bl	CyDelay
 178:SirenTest.c   ****             
 179:SirenTest.c   ****             //CurrentTest.TestStep = AMP1;
 180:SirenTest.c   ****             CurrentTest.TestStep = AMP2;
 354              		.loc 1 180 0
 355 01e2 304B     		ldr	r3, .L31
 356 01e4 0422     		movs	r2, #4
 357 01e6 5A70     		strb	r2, [r3, #1]
 181:SirenTest.c   ****             //CurrentTest.TestStep = INITIALIZE_TEST;
 182:SirenTest.c   ****         
 183:SirenTest.c   ****         break;    
 358              		.loc 1 183 0
 359 01e8 3DE1     		b	.L2
 360              	.L8:
 184:SirenTest.c   ****              
 185:SirenTest.c   ****         case AMP2:                                  // Manual - 
 186:SirenTest.c   ****                        
 187:SirenTest.c   ****             DEMUX_CTRL_230400_Write(STEST_RELAY);
 361              		.loc 1 187 0
 362 01ea 0320     		movs	r0, #3
 363 01ec FFF7FEFF 		bl	DEMUX_CTRL_230400_Write
 188:SirenTest.c   ****             pTxPacket_RelaySiren = getTxPacket_RelaySiren();    
 364              		.loc 1 188 0
 365 01f0 FFF7FEFF 		bl	getTxPacket_RelaySiren
 366 01f4 0246     		mov	r2, r0
 367 01f6 2D4B     		ldr	r3, .L31+8
 368 01f8 1A60     		str	r2, [r3]
ARM GAS  C:\Users\MARTHN~1\AppData\Local\Temp\ccDJiEkb.s 			page 11


 189:SirenTest.c   ****             pTxPacket_RelaySiren->Payload.Siren2Tone = 0x01;   
 369              		.loc 1 189 0
 370 01fa 2C4B     		ldr	r3, .L31+8
 371 01fc 1B68     		ldr	r3, [r3]
 372 01fe 0122     		movs	r2, #1
 373 0200 83F83F20 		strb	r2, [r3, #63]
 190:SirenTest.c   ****             
 191:SirenTest.c   ****             STestStatus[CurrentTest.TestStep] = 'B';            // Let tone play for 3sec
 374              		.loc 1 191 0
 375 0204 274B     		ldr	r3, .L31
 376 0206 5B78     		ldrb	r3, [r3, #1]	@ zero_extendqisi2
 377 0208 1A46     		mov	r2, r3
 378 020a 274B     		ldr	r3, .L31+4
 379 020c 4221     		movs	r1, #66
 380 020e 9954     		strb	r1, [r3, r2]
 192:SirenTest.c   ****             CurrentTest.Status = 'B'; 
 381              		.loc 1 192 0
 382 0210 244B     		ldr	r3, .L31
 383 0212 4222     		movs	r2, #66
 384 0214 9A70     		strb	r2, [r3, #2]
 193:SirenTest.c   ****             CyDelay(1000);
 385              		.loc 1 193 0
 386 0216 4FF47A70 		mov	r0, #1000
 387 021a FFF7FEFF 		bl	CyDelay
 194:SirenTest.c   ****              
 195:SirenTest.c   ****             PB_WaitForAction();                         
 388              		.loc 1 195 0
 389 021e FFF7FEFF 		bl	PB_WaitForAction
 196:SirenTest.c   ****             
 197:SirenTest.c   ****             pTxPacket_RelaySiren->Payload.Siren2Tone = 0x00;    // Turn off wail tone
 390              		.loc 1 197 0
 391 0222 224B     		ldr	r3, .L31+8
 392 0224 1B68     		ldr	r3, [r3]
 393 0226 0022     		movs	r2, #0
 394 0228 83F83F20 		strb	r2, [r3, #63]
 198:SirenTest.c   ****             CyDelay(1000);
 395              		.loc 1 198 0
 396 022c 4FF47A70 		mov	r0, #1000
 397 0230 FFF7FEFF 		bl	CyDelay
 199:SirenTest.c   ****             
 200:SirenTest.c   ****             CurrentTest.TestStep = RRB;
 398              		.loc 1 200 0
 399 0234 1B4B     		ldr	r3, .L31
 400 0236 0522     		movs	r2, #5
 401 0238 5A70     		strb	r2, [r3, #1]
 201:SirenTest.c   ****             //CurrentTest.TestStep = FLASH;
 202:SirenTest.c   ****             //CurrentTest.TestStep = INITIALIZE_TEST;
 203:SirenTest.c   ****                 
 204:SirenTest.c   ****         break;        
 402              		.loc 1 204 0
 403 023a 14E1     		b	.L2
 404              	.L9:
 205:SirenTest.c   ****             
 206:SirenTest.c   ****         case RRB:    
 207:SirenTest.c   ****             
 208:SirenTest.c   ****             STestStatus[CurrentTest.TestStep] = 'U';           
 405              		.loc 1 208 0
ARM GAS  C:\Users\MARTHN~1\AppData\Local\Temp\ccDJiEkb.s 			page 12


 406 023c 194B     		ldr	r3, .L31
 407 023e 5B78     		ldrb	r3, [r3, #1]	@ zero_extendqisi2
 408 0240 1A46     		mov	r2, r3
 409 0242 194B     		ldr	r3, .L31+4
 410 0244 5521     		movs	r1, #85
 411 0246 9954     		strb	r1, [r3, r2]
 209:SirenTest.c   ****             CurrentTest.Status = 'U'; 
 412              		.loc 1 209 0
 413 0248 164B     		ldr	r3, .L31
 414 024a 5522     		movs	r2, #85
 415 024c 9A70     		strb	r2, [r3, #2]
 210:SirenTest.c   ****                          
 211:SirenTest.c   **** //            DEMUX_CTRL_230400_Write(STEST_RELAY);             // 230400 - 'S' - Send a command to
 212:SirenTest.c   **** //            pTxPacket_RelaySiren = getTxPacket_RelaySiren();    
 213:SirenTest.c   **** //            pTxPacket_RelaySiren->Payload.RRB = 0x01;  
 214:SirenTest.c   **** //            
 215:SirenTest.c   ****             //STest_PlayTestTone();                               // Play test tone for 3sec
 216:SirenTest.c   **** 
 217:SirenTest.c   **** ////            while( (STestStatus[CurrentTest.TestStep] != 'P') && (STestStatus[CurrentTest.TestS
 218:SirenTest.c   **** ////            {
 219:SirenTest.c   **** ////                STest_PlayTestTone();   // Play test tone for 3sec
 220:SirenTest.c   **** ////                
 221:SirenTest.c   **** ////                if(PB_NextAction_Released) 
 222:SirenTest.c   **** ////                {
 223:SirenTest.c   **** ////                    //LED_EN_Write(1);
 224:SirenTest.c   **** ////                    STestStatus[CurrentTest.TestStep] = 'P'; 
 225:SirenTest.c   **** ////                    PB_NextAction_Released = 0;
 226:SirenTest.c   **** ////                }
 227:SirenTest.c   **** ////                
 228:SirenTest.c   **** ////            }
 229:SirenTest.c   **** //             
 230:SirenTest.c   **** //            //while(1);
 231:SirenTest.c   **** //            
 232:SirenTest.c   **** //            PB_WaitForAction();
 233:SirenTest.c   **** //            
 234:SirenTest.c   **** //            pTxPacket_RelaySiren->Payload.RRB = 0x00;  
 235:SirenTest.c   **** //            
 236:SirenTest.c   **** //            CyDelay(CONFIRM_TIME);
 237:SirenTest.c   **** 
 238:SirenTest.c   ****             CurrentTest.TestStep = MIC;
 416              		.loc 1 238 0
 417 024e 154B     		ldr	r3, .L31
 418 0250 0622     		movs	r2, #6
 419 0252 5A70     		strb	r2, [r3, #1]
 239:SirenTest.c   ****             //CurrentTest.TestStep = RRB;
 240:SirenTest.c   ****             //CurrentTest.TestStep = INITIALIZE_TEST;
 241:SirenTest.c   ****         
 242:SirenTest.c   ****         break;   
 420              		.loc 1 242 0
 421 0254 07E1     		b	.L2
 422              	.L10:
 243:SirenTest.c   ****             
 244:SirenTest.c   ****         case MIC:                               
 245:SirenTest.c   ****             
 246:SirenTest.c   ****             STestStatus[CurrentTest.TestStep] = 'U';           
 423              		.loc 1 246 0
 424 0256 134B     		ldr	r3, .L31
ARM GAS  C:\Users\MARTHN~1\AppData\Local\Temp\ccDJiEkb.s 			page 13


 425 0258 5B78     		ldrb	r3, [r3, #1]	@ zero_extendqisi2
 426 025a 1A46     		mov	r2, r3
 427 025c 124B     		ldr	r3, .L31+4
 428 025e 5521     		movs	r1, #85
 429 0260 9954     		strb	r1, [r3, r2]
 247:SirenTest.c   ****             CurrentTest.Status = 'U'; 
 430              		.loc 1 247 0
 431 0262 104B     		ldr	r3, .L31
 432 0264 5522     		movs	r2, #85
 433 0266 9A70     		strb	r2, [r3, #2]
 248:SirenTest.c   ****                 
 249:SirenTest.c   **** //            // *** user needs to plug in mic cable now - (so it keys now, but not during the rest
 250:SirenTest.c   **** //            
 251:SirenTest.c   **** //            STestStatus[CurrentTest.TestStep] = 'W';  
 252:SirenTest.c   **** //            CurrentTest.Status = 'W'; 
 253:SirenTest.c   **** //            
 254:SirenTest.c   **** ////            while(1)
 255:SirenTest.c   **** ////            {
 256:SirenTest.c   **** ////                STest_PlayTestTone();   // Play test tone for 3sec
 257:SirenTest.c   **** ////            }
 258:SirenTest.c   **** //
 259:SirenTest.c   **** ////            // repeat test tone - so user has a chance to attach cable and hear it (if they for
 260:SirenTest.c   **** ////            while( (STestStatus[CurrentTest.TestStep] != 'P') && (STestStatus[CurrentTest.TestS
 261:SirenTest.c   **** ////            {
 262:SirenTest.c   **** ////                STest_PlayTestTone();   // Play test tone for 3sec
 263:SirenTest.c   **** ////                
 264:SirenTest.c   **** ////                if(PB_NextAction_Released) 
 265:SirenTest.c   **** ////                {
 266:SirenTest.c   **** ////                    //LED_EN_Write(1);
 267:SirenTest.c   **** ////                    STestStatus[CurrentTest.TestStep] = 'P'; 
 268:SirenTest.c   **** ////                    CurrentTest.Status = 'P'; 
 269:SirenTest.c   **** ////                    PB_NextAction_Released = 0;
 270:SirenTest.c   **** ////                }
 271:SirenTest.c   **** ////                
 272:SirenTest.c   **** ////            }
 273:SirenTest.c   **** //
 274:SirenTest.c   **** //            //PB_WaitForAction();
 275:SirenTest.c   ****             
 276:SirenTest.c   ****             //CurrentTest.TestStep = MIC;
 277:SirenTest.c   ****             CurrentTest.TestStep = AUDIO_STREAM;
 434              		.loc 1 277 0
 435 0268 0E4B     		ldr	r3, .L31
 436 026a 0722     		movs	r2, #7
 437 026c 5A70     		strb	r2, [r3, #1]
 278:SirenTest.c   ****             //CurrentTest.TestStep = RRB_AMP1;
 279:SirenTest.c   ****             //CurrentTest.TestStep = INITIALIZE_TEST;
 280:SirenTest.c   ****         
 281:SirenTest.c   ****         break;   
 438              		.loc 1 281 0
 439 026e FAE0     		b	.L2
 440              	.L11:
 282:SirenTest.c   ****              
 283:SirenTest.c   ****         case AUDIO_STREAM:                                  // Low Priority - skip for now
 284:SirenTest.c   ****             
 285:SirenTest.c   ****             STestStatus[CurrentTest.TestStep] = 'U';           
 441              		.loc 1 285 0
 442 0270 0C4B     		ldr	r3, .L31
ARM GAS  C:\Users\MARTHN~1\AppData\Local\Temp\ccDJiEkb.s 			page 14


 443 0272 5B78     		ldrb	r3, [r3, #1]	@ zero_extendqisi2
 444 0274 1A46     		mov	r2, r3
 445 0276 0C4B     		ldr	r3, .L31+4
 446 0278 5521     		movs	r1, #85
 447 027a 9954     		strb	r1, [r3, r2]
 286:SirenTest.c   ****             CurrentTest.Status = 'U'; 
 448              		.loc 1 286 0
 449 027c 094B     		ldr	r3, .L31
 450 027e 5522     		movs	r2, #85
 451 0280 9A70     		strb	r2, [r3, #2]
 287:SirenTest.c   ****             
 288:SirenTest.c   **** //            // 230400 - 'S' - Send a command to enable RRB
 289:SirenTest.c   **** //            // Send a 1V 200Hz PWM (using DAC) for 1sec, then 1kHz, then 10kHz - through the RRB 
 290:SirenTest.c   **** //            //CyDelay(1000);            
 291:SirenTest.c   **** //            
 292:SirenTest.c   **** //            STest_PlayTestTone_AudioStream();   // Stream test tone for 3sec
 293:SirenTest.c   **** //            
 294:SirenTest.c   **** //            PB_WaitForAction();
 295:SirenTest.c   ****         
 296:SirenTest.c   ****             CurrentTest.TestStep = FLASH;
 452              		.loc 1 296 0
 453 0282 084B     		ldr	r3, .L31
 454 0284 0822     		movs	r2, #8
 455 0286 5A70     		strb	r2, [r3, #1]
 297:SirenTest.c   ****         
 298:SirenTest.c   ****         break;  
 456              		.loc 1 298 0
 457 0288 EDE0     		b	.L2
 458              	.L12:
 299:SirenTest.c   ****                
 300:SirenTest.c   ****         case FLASH:                                         // Manual - 
 301:SirenTest.c   ****             
 302:SirenTest.c   ****             STestStatus[CurrentTest.TestStep] = 'U';           
 459              		.loc 1 302 0
 460 028a 064B     		ldr	r3, .L31
 461 028c 5B78     		ldrb	r3, [r3, #1]	@ zero_extendqisi2
 462 028e 1A46     		mov	r2, r3
 463 0290 054B     		ldr	r3, .L31+4
 464 0292 5521     		movs	r1, #85
 465 0294 9954     		strb	r1, [r3, r2]
 303:SirenTest.c   ****             CurrentTest.Status = 'U'; 
 466              		.loc 1 303 0
 467 0296 034B     		ldr	r3, .L31
 468 0298 5522     		movs	r2, #85
 469 029a 9A70     		strb	r2, [r3, #2]
 304:SirenTest.c   ****             
 305:SirenTest.c   ****             /*this is test code to scroll through tones with PB*/
 306:SirenTest.c   **** //            DEMUX_CTRL_230400_Write(STEST_RELAY);             // 230400 - 'S' - Send a command to
 307:SirenTest.c   **** //            pTxPacket_RelaySiren = getTxPacket_RelaySiren();    
 308:SirenTest.c   **** //            
 309:SirenTest.c   **** //            uint8 sirentonenum = 0;
 310:SirenTest.c   **** //            while(1)
 311:SirenTest.c   **** //            {
 312:SirenTest.c   **** //            pTxPacket_RelaySiren->Payload.Siren1Tone = sirentonenum; 
 313:SirenTest.c   **** //            pTxPacket_RelaySiren->Payload.Siren2Tone = sirentonenum; 
 314:SirenTest.c   **** //            
 315:SirenTest.c   **** //            STestStatus[CurrentTest.TestStep] = 'B';            // Let tone play for 3sec
ARM GAS  C:\Users\MARTHN~1\AppData\Local\Temp\ccDJiEkb.s 			page 15


 316:SirenTest.c   **** //            CurrentTest.Status = 'B'; 
 317:SirenTest.c   **** //            CyDelay(1000);
 318:SirenTest.c   **** //            
 319:SirenTest.c   **** //            PB_WaitForAction();
 320:SirenTest.c   **** //            
 321:SirenTest.c   **** //            sirentonenum++;
 322:SirenTest.c   **** //            if(sirentonenum >30)
 323:SirenTest.c   **** //                sirentonenum = 0;
 324:SirenTest.c   **** //            }
 325:SirenTest.c   ****                         
 326:SirenTest.c   ****             /*this is the actual code*/
 327:SirenTest.c   **** //            DEMUX_CTRL_230400_Write(STEST_RELAY);             // 230400 - 'S' - Send a command to
 328:SirenTest.c   **** //            pTxPacket_RelaySiren = getTxPacket_RelaySiren();    
 329:SirenTest.c   **** //            pTxPacket_RelaySiren->Payload.Siren1Tone = 22; 
 330:SirenTest.c   **** //            pTxPacket_RelaySiren->Payload.Siren2Tone = 22; 
 331:SirenTest.c   **** //            
 332:SirenTest.c   **** //            STestStatus[CurrentTest.TestStep] = 'B';            // Let tone play for 3sec
 333:SirenTest.c   **** //            CurrentTest.Status = 'B'; 
 334:SirenTest.c   **** //            CyDelay(1000);
 335:SirenTest.c   **** //            
 336:SirenTest.c   **** //            PB_WaitForAction();
 337:SirenTest.c   **** //            
 338:SirenTest.c   **** //            pTxPacket_RelaySiren->Payload.Siren1Tone = 0; 
 339:SirenTest.c   **** //            pTxPacket_RelaySiren->Payload.Siren2Tone = 0; 
 340:SirenTest.c   **** //            
 341:SirenTest.c   **** //            CyDelay(CONFIRM_TIME);
 342:SirenTest.c   ****             
 343:SirenTest.c   ****             CurrentTest.TestStep = OVERLOAD;
 470              		.loc 1 343 0
 471 029c 014B     		ldr	r3, .L31
 472 029e 0922     		movs	r2, #9
 473 02a0 5A70     		strb	r2, [r3, #1]
 344:SirenTest.c   ****             //CurrentTest.TestStep = FLASH;
 345:SirenTest.c   ****             //CurrentTest.TestStep = INITIALIZE_TEST;
 346:SirenTest.c   ****                 
 347:SirenTest.c   ****         break;  
 474              		.loc 1 347 0
 475 02a2 E0E0     		b	.L2
 476              	.L32:
 477              		.align	2
 478              	.L31:
 479 02a4 00000000 		.word	CurrentTest
 480 02a8 08000000 		.word	STestStatus
 481 02ac 64000000 		.word	pTxPacket_RelaySiren
 482              	.L13:
 348:SirenTest.c   ****              
 349:SirenTest.c   ****         case OVERLOAD:                                                             
 350:SirenTest.c   ****             
 351:SirenTest.c   ****             MUX_CTRL_230400_Write(STEST_RELAY);     // Rx - 'H' packet
 483              		.loc 1 351 0
 484 02b0 0320     		movs	r0, #3
 485 02b2 FFF7FEFF 		bl	MUX_CTRL_230400_Write
 352:SirenTest.c   ****             DEMUX_CTRL_230400_Write(STEST_RELAY);   // Tx - 'S' packet
 486              		.loc 1 352 0
 487 02b6 0320     		movs	r0, #3
 488 02b8 FFF7FEFF 		bl	DEMUX_CTRL_230400_Write
 353:SirenTest.c   ****             
ARM GAS  C:\Users\MARTHN~1\AppData\Local\Temp\ccDJiEkb.s 			page 16


 354:SirenTest.c   ****             //PB_WaitForAction();
 355:SirenTest.c   ****             
 356:SirenTest.c   ****             StartAutomatedStep();
 489              		.loc 1 356 0
 490 02bc FFF7FEFF 		bl	StartAutomatedStep
 357:SirenTest.c   ****             
 358:SirenTest.c   ****             Overload1_Write(0);                
 491              		.loc 1 358 0
 492 02c0 0020     		movs	r0, #0
 493 02c2 FFF7FEFF 		bl	Overload1_Write
 359:SirenTest.c   ****             Overload2_Write(1);                
 494              		.loc 1 359 0
 495 02c6 0120     		movs	r0, #1
 496 02c8 FFF7FEFF 		bl	Overload2_Write
 360:SirenTest.c   ****             
 361:SirenTest.c   ****             CyDelay(100);
 497              		.loc 1 361 0
 498 02cc 6420     		movs	r0, #100
 499 02ce FFF7FEFF 		bl	CyDelay
 362:SirenTest.c   ****             
 363:SirenTest.c   ****             pTxPacket_RelaySiren = getTxPacket_RelaySiren();                // 230400 - 'S' - Send 
 500              		.loc 1 363 0
 501 02d2 FFF7FEFF 		bl	getTxPacket_RelaySiren
 502 02d6 0246     		mov	r2, r0
 503 02d8 654B     		ldr	r3, .L33
 504 02da 1A60     		str	r2, [r3]
 364:SirenTest.c   ****             pTxPacket_RelaySiren->Payload.Siren1Tone = 0; 
 505              		.loc 1 364 0
 506 02dc 644B     		ldr	r3, .L33
 507 02de 1B68     		ldr	r3, [r3]
 508 02e0 0022     		movs	r2, #0
 509 02e2 83F83E20 		strb	r2, [r3, #62]
 365:SirenTest.c   ****             pTxPacket_RelaySiren->Payload.Siren2Tone = 1;     
 510              		.loc 1 365 0
 511 02e6 624B     		ldr	r3, .L33
 512 02e8 1B68     		ldr	r3, [r3]
 513 02ea 0122     		movs	r2, #1
 514 02ec 83F83F20 		strb	r2, [r3, #63]
 366:SirenTest.c   ****             
 367:SirenTest.c   ****             CyDelay(100);
 515              		.loc 1 367 0
 516 02f0 6420     		movs	r0, #100
 517 02f2 FFF7FEFF 		bl	CyDelay
 368:SirenTest.c   ****             
 369:SirenTest.c   ****             pRxPacket_H = getRxPacket_H();                                  // Read 'H' packet, wai
 518              		.loc 1 369 0
 519 02f6 FFF7FEFF 		bl	getRxPacket_H
 520 02fa 0246     		mov	r2, r0
 521 02fc 5D4B     		ldr	r3, .L33+4
 522 02fe 1A60     		str	r2, [r3]
 370:SirenTest.c   ****                 
 371:SirenTest.c   ****             while( (pRxPacket_H->Payload.Speaker2_Overcurrent != 1) && (STestStatus[CurrentTest.Tes
 523              		.loc 1 371 0
 524 0300 00BF     		nop
 525              	.L22:
 526              		.loc 1 371 0 is_stmt 0 discriminator 2
 527 0302 5C4B     		ldr	r3, .L33+4
ARM GAS  C:\Users\MARTHN~1\AppData\Local\Temp\ccDJiEkb.s 			page 17


 528 0304 1B68     		ldr	r3, [r3]
 529 0306 1B79     		ldrb	r3, [r3, #4]	@ zero_extendqisi2
 530 0308 012B     		cmp	r3, #1
 531 030a 06D0     		beq	.L21
 532              		.loc 1 371 0 discriminator 1
 533 030c 5A4B     		ldr	r3, .L33+8
 534 030e 5B78     		ldrb	r3, [r3, #1]	@ zero_extendqisi2
 535 0310 1A46     		mov	r2, r3
 536 0312 5A4B     		ldr	r3, .L33+12
 537 0314 9B5C     		ldrb	r3, [r3, r2]	@ zero_extendqisi2
 538 0316 462B     		cmp	r3, #70
 539 0318 F3D1     		bne	.L22
 540              	.L21:
 372:SirenTest.c   ****             {}
 373:SirenTest.c   ****                 
 374:SirenTest.c   ****             StopAutomatedStep();
 541              		.loc 1 374 0 is_stmt 1
 542 031a FFF7FEFF 		bl	StopAutomatedStep
 375:SirenTest.c   ****             
 376:SirenTest.c   ****             Overload1_Write(0);               
 543              		.loc 1 376 0
 544 031e 0020     		movs	r0, #0
 545 0320 FFF7FEFF 		bl	Overload1_Write
 377:SirenTest.c   ****             Overload2_Write(0);
 546              		.loc 1 377 0
 547 0324 0020     		movs	r0, #0
 548 0326 FFF7FEFF 		bl	Overload2_Write
 378:SirenTest.c   ****                 
 379:SirenTest.c   ****             CyDelay(1000);
 549              		.loc 1 379 0
 550 032a 4FF47A70 		mov	r0, #1000
 551 032e FFF7FEFF 		bl	CyDelay
 380:SirenTest.c   ****             
 381:SirenTest.c   ****             Overload1_Write(0);                                 // Turn everything off
 552              		.loc 1 381 0
 553 0332 0020     		movs	r0, #0
 554 0334 FFF7FEFF 		bl	Overload1_Write
 382:SirenTest.c   ****             Overload2_Write(0);
 555              		.loc 1 382 0
 556 0338 0020     		movs	r0, #0
 557 033a FFF7FEFF 		bl	Overload2_Write
 383:SirenTest.c   ****             pTxPacket_RelaySiren->Payload.Siren1Tone = 0;  
 558              		.loc 1 383 0
 559 033e 4C4B     		ldr	r3, .L33
 560 0340 1B68     		ldr	r3, [r3]
 561 0342 0022     		movs	r2, #0
 562 0344 83F83E20 		strb	r2, [r3, #62]
 384:SirenTest.c   ****             pTxPacket_RelaySiren->Payload.Siren2Tone = 0; 
 563              		.loc 1 384 0
 564 0348 494B     		ldr	r3, .L33
 565 034a 1B68     		ldr	r3, [r3]
 566 034c 0022     		movs	r2, #0
 567 034e 83F83F20 		strb	r2, [r3, #63]
 385:SirenTest.c   ****                 
 386:SirenTest.c   ****             //--------------------------------------
 387:SirenTest.c   ****             
 388:SirenTest.c   ****             STestStatus[CurrentTest.TestStep] = 'B';
ARM GAS  C:\Users\MARTHN~1\AppData\Local\Temp\ccDJiEkb.s 			page 18


 568              		.loc 1 388 0
 569 0352 494B     		ldr	r3, .L33+8
 570 0354 5B78     		ldrb	r3, [r3, #1]	@ zero_extendqisi2
 571 0356 1A46     		mov	r2, r3
 572 0358 484B     		ldr	r3, .L33+12
 573 035a 4221     		movs	r1, #66
 574 035c 9954     		strb	r1, [r3, r2]
 389:SirenTest.c   ****             CurrentTest.Status = 'B';
 575              		.loc 1 389 0
 576 035e 464B     		ldr	r3, .L33+8
 577 0360 4222     		movs	r2, #66
 578 0362 9A70     		strb	r2, [r3, #2]
 390:SirenTest.c   ****             while( (pRxPacket_H->Payload.Speaker1_Overcurrent != 0) || (pRxPacket_H->Payload.Speake
 579              		.loc 1 390 0
 580 0364 00BF     		nop
 581              	.L23:
 582              		.loc 1 390 0 is_stmt 0 discriminator 3
 583 0366 434B     		ldr	r3, .L33+4
 584 0368 1B68     		ldr	r3, [r3]
 585 036a DB78     		ldrb	r3, [r3, #3]	@ zero_extendqisi2
 586 036c 002B     		cmp	r3, #0
 587 036e FAD1     		bne	.L23
 588              		.loc 1 390 0 discriminator 2
 589 0370 404B     		ldr	r3, .L33+4
 590 0372 1B68     		ldr	r3, [r3]
 591 0374 1B79     		ldrb	r3, [r3, #4]	@ zero_extendqisi2
 592 0376 002B     		cmp	r3, #0
 593 0378 F5D1     		bne	.L23
 391:SirenTest.c   ****             {}
 392:SirenTest.c   ****             
 393:SirenTest.c   ****             //--------------------------------------
 394:SirenTest.c   ****             //PB_WaitForAction();
 395:SirenTest.c   ****             
 396:SirenTest.c   ****             StartAutomatedStep();
 594              		.loc 1 396 0 is_stmt 1
 595 037a FFF7FEFF 		bl	StartAutomatedStep
 397:SirenTest.c   ****             
 398:SirenTest.c   ****             Overload1_Write(1);               
 596              		.loc 1 398 0
 597 037e 0120     		movs	r0, #1
 598 0380 FFF7FEFF 		bl	Overload1_Write
 399:SirenTest.c   ****             Overload2_Write(0);              
 599              		.loc 1 399 0
 600 0384 0020     		movs	r0, #0
 601 0386 FFF7FEFF 		bl	Overload2_Write
 400:SirenTest.c   ****             
 401:SirenTest.c   ****             CyDelay(100);
 602              		.loc 1 401 0
 603 038a 6420     		movs	r0, #100
 604 038c FFF7FEFF 		bl	CyDelay
 402:SirenTest.c   ****             
 403:SirenTest.c   ****             pTxPacket_RelaySiren = getTxPacket_RelaySiren();                // 230400 - 'S' - Send 
 605              		.loc 1 403 0
 606 0390 FFF7FEFF 		bl	getTxPacket_RelaySiren
 607 0394 0246     		mov	r2, r0
 608 0396 364B     		ldr	r3, .L33
 609 0398 1A60     		str	r2, [r3]
ARM GAS  C:\Users\MARTHN~1\AppData\Local\Temp\ccDJiEkb.s 			page 19


 404:SirenTest.c   ****             pTxPacket_RelaySiren->Payload.Siren1Tone = 1;     
 610              		.loc 1 404 0
 611 039a 354B     		ldr	r3, .L33
 612 039c 1B68     		ldr	r3, [r3]
 613 039e 0122     		movs	r2, #1
 614 03a0 83F83E20 		strb	r2, [r3, #62]
 405:SirenTest.c   ****             pTxPacket_RelaySiren->Payload.Siren2Tone = 0;    
 615              		.loc 1 405 0
 616 03a4 324B     		ldr	r3, .L33
 617 03a6 1B68     		ldr	r3, [r3]
 618 03a8 0022     		movs	r2, #0
 619 03aa 83F83F20 		strb	r2, [r3, #63]
 406:SirenTest.c   ****             
 407:SirenTest.c   ****             CyDelay(100);
 620              		.loc 1 407 0
 621 03ae 6420     		movs	r0, #100
 622 03b0 FFF7FEFF 		bl	CyDelay
 408:SirenTest.c   ****             
 409:SirenTest.c   ****             pRxPacket_H = getRxPacket_H();                                  // Read 'H' packet, wai
 623              		.loc 1 409 0
 624 03b4 FFF7FEFF 		bl	getRxPacket_H
 625 03b8 0246     		mov	r2, r0
 626 03ba 2E4B     		ldr	r3, .L33+4
 627 03bc 1A60     		str	r2, [r3]
 410:SirenTest.c   ****                 
 411:SirenTest.c   ****             while( (pRxPacket_H->Payload.Speaker1_Overcurrent != 1) && (STestStatus[CurrentTest.Tes
 628              		.loc 1 411 0
 629 03be 00BF     		nop
 630              	.L25:
 631              		.loc 1 411 0 is_stmt 0 discriminator 2
 632 03c0 2C4B     		ldr	r3, .L33+4
 633 03c2 1B68     		ldr	r3, [r3]
 634 03c4 DB78     		ldrb	r3, [r3, #3]	@ zero_extendqisi2
 635 03c6 012B     		cmp	r3, #1
 636 03c8 06D0     		beq	.L24
 637              		.loc 1 411 0 discriminator 1
 638 03ca 2B4B     		ldr	r3, .L33+8
 639 03cc 5B78     		ldrb	r3, [r3, #1]	@ zero_extendqisi2
 640 03ce 1A46     		mov	r2, r3
 641 03d0 2A4B     		ldr	r3, .L33+12
 642 03d2 9B5C     		ldrb	r3, [r3, r2]	@ zero_extendqisi2
 643 03d4 462B     		cmp	r3, #70
 644 03d6 F3D1     		bne	.L25
 645              	.L24:
 412:SirenTest.c   ****             {}
 413:SirenTest.c   ****                 
 414:SirenTest.c   ****             StopAutomatedStep();
 646              		.loc 1 414 0 is_stmt 1
 647 03d8 FFF7FEFF 		bl	StopAutomatedStep
 415:SirenTest.c   ****             
 416:SirenTest.c   ****             Overload1_Write(0);                                 // Turn everything off
 648              		.loc 1 416 0
 649 03dc 0020     		movs	r0, #0
 650 03de FFF7FEFF 		bl	Overload1_Write
 417:SirenTest.c   ****             Overload2_Write(0);
 651              		.loc 1 417 0
 652 03e2 0020     		movs	r0, #0
ARM GAS  C:\Users\MARTHN~1\AppData\Local\Temp\ccDJiEkb.s 			page 20


 653 03e4 FFF7FEFF 		bl	Overload2_Write
 418:SirenTest.c   ****                 
 419:SirenTest.c   ****             CyDelay(1000);
 654              		.loc 1 419 0
 655 03e8 4FF47A70 		mov	r0, #1000
 656 03ec FFF7FEFF 		bl	CyDelay
 420:SirenTest.c   ****             
 421:SirenTest.c   ****             pTxPacket_RelaySiren->Payload.Siren1Tone = 0; 
 657              		.loc 1 421 0
 658 03f0 1F4B     		ldr	r3, .L33
 659 03f2 1B68     		ldr	r3, [r3]
 660 03f4 0022     		movs	r2, #0
 661 03f6 83F83E20 		strb	r2, [r3, #62]
 422:SirenTest.c   ****             pTxPacket_RelaySiren->Payload.Siren2Tone = 0; 
 662              		.loc 1 422 0
 663 03fa 1D4B     		ldr	r3, .L33
 664 03fc 1B68     		ldr	r3, [r3]
 665 03fe 0022     		movs	r2, #0
 666 0400 83F83F20 		strb	r2, [r3, #63]
 423:SirenTest.c   ****             
 424:SirenTest.c   ****             //CurrentTest.TestStep = OVERLOAD;
 425:SirenTest.c   ****             CurrentTest.TestStep = PASS;
 667              		.loc 1 425 0
 668 0404 1C4B     		ldr	r3, .L33+8
 669 0406 0A22     		movs	r2, #10
 670 0408 5A70     		strb	r2, [r3, #1]
 426:SirenTest.c   ****             
 427:SirenTest.c   ****         break;  
 671              		.loc 1 427 0
 672 040a 2CE0     		b	.L2
 673              	.L14:
 674              	.LBB4:
 428:SirenTest.c   ****                
 429:SirenTest.c   ****         case PASS:  
 430:SirenTest.c   ****    
 431:SirenTest.c   ****             for(uint8 i=0;i<(NUMBER_TEST_STEPS-1);i++)
 675              		.loc 1 431 0
 676 040c 0023     		movs	r3, #0
 677 040e 7B71     		strb	r3, [r7, #5]
 678 0410 15E0     		b	.L26
 679              	.L28:
 432:SirenTest.c   ****             {
 433:SirenTest.c   ****                 if( (STestStatus[i] != 'P') && (STestStatus[i] != 'U') )
 680              		.loc 1 433 0
 681 0412 7B79     		ldrb	r3, [r7, #5]	@ zero_extendqisi2
 682 0414 194A     		ldr	r2, .L33+12
 683 0416 D35C     		ldrb	r3, [r2, r3]	@ zero_extendqisi2
 684 0418 502B     		cmp	r3, #80
 685 041a 0DD0     		beq	.L27
 686              		.loc 1 433 0 is_stmt 0 discriminator 1
 687 041c 7B79     		ldrb	r3, [r7, #5]	@ zero_extendqisi2
 688 041e 174A     		ldr	r2, .L33+12
 689 0420 D35C     		ldrb	r3, [r2, r3]	@ zero_extendqisi2
 690 0422 552B     		cmp	r3, #85
 691 0424 08D0     		beq	.L27
 434:SirenTest.c   ****                 {
 435:SirenTest.c   ****                     STestStatus[CurrentTest.TestStep] = 'f';
ARM GAS  C:\Users\MARTHN~1\AppData\Local\Temp\ccDJiEkb.s 			page 21


 692              		.loc 1 435 0 is_stmt 1
 693 0426 144B     		ldr	r3, .L33+8
 694 0428 5B78     		ldrb	r3, [r3, #1]	@ zero_extendqisi2
 695 042a 1A46     		mov	r2, r3
 696 042c 134B     		ldr	r3, .L33+12
 697 042e 6621     		movs	r1, #102
 698 0430 9954     		strb	r1, [r3, r2]
 436:SirenTest.c   ****                     CurrentTest.Status = 'f';                      
 699              		.loc 1 436 0
 700 0432 114B     		ldr	r3, .L33+8
 701 0434 6622     		movs	r2, #102
 702 0436 9A70     		strb	r2, [r3, #2]
 703              	.L27:
 431:SirenTest.c   ****             {
 704              		.loc 1 431 0 discriminator 2
 705 0438 7B79     		ldrb	r3, [r7, #5]	@ zero_extendqisi2
 706 043a 0133     		adds	r3, r3, #1
 707 043c 7B71     		strb	r3, [r7, #5]
 708              	.L26:
 431:SirenTest.c   ****             {
 709              		.loc 1 431 0 is_stmt 0 discriminator 1
 710 043e 7B79     		ldrb	r3, [r7, #5]	@ zero_extendqisi2
 711 0440 092B     		cmp	r3, #9
 712 0442 E6D9     		bls	.L28
 713              	.LBE4:
 437:SirenTest.c   ****                 }    
 438:SirenTest.c   ****             }
 439:SirenTest.c   ****  
 440:SirenTest.c   ****             if(STestStatus[CurrentTest.TestStep] != 'f')
 714              		.loc 1 440 0 is_stmt 1
 715 0444 0C4B     		ldr	r3, .L33+8
 716 0446 5B78     		ldrb	r3, [r3, #1]	@ zero_extendqisi2
 717 0448 1A46     		mov	r2, r3
 718 044a 0C4B     		ldr	r3, .L33+12
 719 044c 9B5C     		ldrb	r3, [r3, r2]	@ zero_extendqisi2
 720 044e 662B     		cmp	r3, #102
 721 0450 08D0     		beq	.L29
 441:SirenTest.c   ****             {
 442:SirenTest.c   ****                 STestStatus[CurrentTest.TestStep] = 'p';
 722              		.loc 1 442 0
 723 0452 094B     		ldr	r3, .L33+8
 724 0454 5B78     		ldrb	r3, [r3, #1]	@ zero_extendqisi2
 725 0456 1A46     		mov	r2, r3
 726 0458 084B     		ldr	r3, .L33+12
 727 045a 7021     		movs	r1, #112
 728 045c 9954     		strb	r1, [r3, r2]
 443:SirenTest.c   ****                 CurrentTest.Status = 'p'; 
 729              		.loc 1 443 0
 730 045e 064B     		ldr	r3, .L33+8
 731 0460 7022     		movs	r2, #112
 732 0462 9A70     		strb	r2, [r3, #2]
 733              	.L29:
 444:SirenTest.c   ****             }
 445:SirenTest.c   ****             
 446:SirenTest.c   ****             while(1);
 734              		.loc 1 446 0 discriminator 1
 735 0464 FEE7     		b	.L29
ARM GAS  C:\Users\MARTHN~1\AppData\Local\Temp\ccDJiEkb.s 			page 22


 736              	.L2:
 447:SirenTest.c   ****             
 448:SirenTest.c   **** //            while(PB_NextAction_Read() != 1){};
 449:SirenTest.c   **** //            STestStatus[CurrentTest.TestStep] = 'r';
 450:SirenTest.c   **** //            CurrentTest.Status = 'r'; 
 451:SirenTest.c   **** //            CyDelay(1000);
 452:SirenTest.c   **** //            while( (pRxPacket_H->Payload.Speaker1_Overcurrent != 0) || (pRxPacket_H->Payload.Spea
 453:SirenTest.c   **** //            {}
 454:SirenTest.c   **** //            
 455:SirenTest.c   **** //            CurrentTest.TestStep = INITIALIZE_TEST;
 456:SirenTest.c   ****             
 457:SirenTest.c   ****         break;          
 458:SirenTest.c   ****            
 459:SirenTest.c   ****     }
 460:SirenTest.c   **** 
 461:SirenTest.c   ****     return(0);
 737              		.loc 1 461 0
 738 0466 0023     		movs	r3, #0
 462:SirenTest.c   **** }
 739              		.loc 1 462 0
 740 0468 1846     		mov	r0, r3
 741 046a 0837     		adds	r7, r7, #8
 742              		.cfi_def_cfa_offset 8
 743 046c BD46     		mov	sp, r7
 744              		.cfi_def_cfa_register 13
 745              		@ sp needed
 746 046e 80BD     		pop	{r7, pc}
 747              	.L34:
 748              		.align	2
 749              	.L33:
 750 0470 64000000 		.word	pTxPacket_RelaySiren
 751 0474 84000000 		.word	pRxPacket_H
 752 0478 00000000 		.word	CurrentTest
 753 047c 08000000 		.word	STestStatus
 754              		.cfi_endproc
 755              	.LFE63:
 756              		.size	SirenTest, .-SirenTest
 757              		.section	.text.STest_Test_Amp1,"ax",%progbits
 758              		.align	2
 759              		.global	STest_Test_Amp1
 760              		.thumb
 761              		.thumb_func
 762              		.type	STest_Test_Amp1, %function
 763              	STest_Test_Amp1:
 764              	.LFB64:
 463:SirenTest.c   **** 
 464:SirenTest.c   **** //--------------------------------------Test Functions----------------------------------
 465:SirenTest.c   **** uint8 STest_Test_Amp1(void)
 466:SirenTest.c   **** {
 765              		.loc 1 466 0
 766              		.cfi_startproc
 767              		@ args = 0, pretend = 0, frame = 0
 768              		@ frame_needed = 1, uses_anonymous_args = 0
 769              		@ link register save eliminated.
 770 0000 80B4     		push	{r7}
 771              		.cfi_def_cfa_offset 4
 772              		.cfi_offset 7, -4
ARM GAS  C:\Users\MARTHN~1\AppData\Local\Temp\ccDJiEkb.s 			page 23


 773 0002 00AF     		add	r7, sp, #0
 774              		.cfi_def_cfa_register 7
 467:SirenTest.c   ****     
 468:SirenTest.c   ****     return(0);
 775              		.loc 1 468 0
 776 0004 0023     		movs	r3, #0
 469:SirenTest.c   **** }
 777              		.loc 1 469 0
 778 0006 1846     		mov	r0, r3
 779 0008 BD46     		mov	sp, r7
 780              		.cfi_def_cfa_register 13
 781              		@ sp needed
 782 000a 80BC     		pop	{r7}
 783              		.cfi_restore 7
 784              		.cfi_def_cfa_offset 0
 785 000c 7047     		bx	lr
 786              		.cfi_endproc
 787              	.LFE64:
 788              		.size	STest_Test_Amp1, .-STest_Test_Amp1
 789 000e 00BF     		.section	.text.STest_isr_PB,"ax",%progbits
 790              		.align	2
 791              		.global	STest_isr_PB
 792              		.thumb
 793              		.thumb_func
 794              		.type	STest_isr_PB, %function
 795              	STest_isr_PB:
 796              	.LFB65:
 470:SirenTest.c   **** 
 471:SirenTest.c   **** 
 472:SirenTest.c   **** 
 473:SirenTest.c   **** 
 474:SirenTest.c   **** //----------------------------------------Timer Interrupts------------------------------
 475:SirenTest.c   **** void STest_isr_PB(void)
 476:SirenTest.c   **** {
 797              		.loc 1 476 0
 798              		.cfi_startproc
 799              		@ args = 0, pretend = 0, frame = 0
 800              		@ frame_needed = 1, uses_anonymous_args = 0
 801 0000 80B5     		push	{r7, lr}
 802              		.cfi_def_cfa_offset 8
 803              		.cfi_offset 7, -8
 804              		.cfi_offset 14, -4
 805 0002 00AF     		add	r7, sp, #0
 806              		.cfi_def_cfa_register 7
 477:SirenTest.c   ****     static uint8 PB_NextAction_debouncecount = 0;
 478:SirenTest.c   ****     static uint8 PB_NextAction_failcount = 0;
 479:SirenTest.c   ****     static uint8 PB_NextAction_prevstate = 0;
 480:SirenTest.c   ****     
 481:SirenTest.c   ****     static uint8 debouncetrue = 0;
 482:SirenTest.c   ****     
 483:SirenTest.c   ****     static uint8 PB_reading = 0;
 484:SirenTest.c   ****     static uint8 PB_reading_previous = 0;
 485:SirenTest.c   ****     PB_reading = PB_NextAction_Read();
 807              		.loc 1 485 0
 808 0004 FFF7FEFF 		bl	PB_NextAction_Read
 809 0008 0346     		mov	r3, r0
 810 000a 1A46     		mov	r2, r3
ARM GAS  C:\Users\MARTHN~1\AppData\Local\Temp\ccDJiEkb.s 			page 24


 811 000c 2C4B     		ldr	r3, .L47
 812 000e 1A70     		strb	r2, [r3]
 486:SirenTest.c   ****     
 487:SirenTest.c   ****     
 488:SirenTest.c   ****     if(PB_reading == PB_reading_previous)               // If reading is the same as the last, incr
 813              		.loc 1 488 0
 814 0010 2B4B     		ldr	r3, .L47
 815 0012 1A78     		ldrb	r2, [r3]	@ zero_extendqisi2
 816 0014 2B4B     		ldr	r3, .L47+4
 817 0016 1B78     		ldrb	r3, [r3]	@ zero_extendqisi2
 818 0018 9A42     		cmp	r2, r3
 819 001a 06D1     		bne	.L38
 489:SirenTest.c   ****         PB_NextAction_debouncecount++;
 820              		.loc 1 489 0
 821 001c 2A4B     		ldr	r3, .L47+8
 822 001e 1B78     		ldrb	r3, [r3]	@ zero_extendqisi2
 823 0020 0133     		adds	r3, r3, #1
 824 0022 DAB2     		uxtb	r2, r3
 825 0024 284B     		ldr	r3, .L47+8
 826 0026 1A70     		strb	r2, [r3]
 827 0028 02E0     		b	.L39
 828              	.L38:
 490:SirenTest.c   ****     else
 491:SirenTest.c   ****         PB_NextAction_debouncecount = 0;
 829              		.loc 1 491 0
 830 002a 274B     		ldr	r3, .L47+8
 831 002c 0022     		movs	r2, #0
 832 002e 1A70     		strb	r2, [r3]
 833              	.L39:
 492:SirenTest.c   ****     
 493:SirenTest.c   ****     if(PB_NextAction_debouncecount > DEBOUNCE_COUNT)    // Set debouncetrue
 834              		.loc 1 493 0
 835 0030 254B     		ldr	r3, .L47+8
 836 0032 1B78     		ldrb	r3, [r3]	@ zero_extendqisi2
 837 0034 022B     		cmp	r3, #2
 838 0036 06D9     		bls	.L40
 494:SirenTest.c   ****     {
 495:SirenTest.c   ****         debouncetrue = PB_reading;
 839              		.loc 1 495 0
 840 0038 214B     		ldr	r3, .L47
 841 003a 1A78     		ldrb	r2, [r3]	@ zero_extendqisi2
 842 003c 234B     		ldr	r3, .L47+12
 843 003e 1A70     		strb	r2, [r3]
 496:SirenTest.c   ****         PB_NextAction_debouncecount = 0;
 844              		.loc 1 496 0
 845 0040 214B     		ldr	r3, .L47+8
 846 0042 0022     		movs	r2, #0
 847 0044 1A70     		strb	r2, [r3]
 848              	.L40:
 497:SirenTest.c   ****     }
 498:SirenTest.c   **** 
 499:SirenTest.c   ****     PB_reading_previous = PB_reading;                   // Save current reading for next interrupt
 849              		.loc 1 499 0
 850 0046 1E4B     		ldr	r3, .L47
 851 0048 1A78     		ldrb	r2, [r3]	@ zero_extendqisi2
 852 004a 1E4B     		ldr	r3, .L47+4
 853 004c 1A70     		strb	r2, [r3]
ARM GAS  C:\Users\MARTHN~1\AppData\Local\Temp\ccDJiEkb.s 			page 25


 500:SirenTest.c   ****     
 501:SirenTest.c   ****     if(debouncetrue == 1)                               // If debounced and asserted
 854              		.loc 1 501 0
 855 004e 1F4B     		ldr	r3, .L47+12
 856 0050 1B78     		ldrb	r3, [r3]	@ zero_extendqisi2
 857 0052 012B     		cmp	r3, #1
 858 0054 09D1     		bne	.L41
 502:SirenTest.c   ****     {
 503:SirenTest.c   ****         PB_NextAction_Pressed = 1;
 859              		.loc 1 503 0
 860 0056 1E4B     		ldr	r3, .L47+16
 861 0058 0122     		movs	r2, #1
 862 005a 1A70     		strb	r2, [r3]
 504:SirenTest.c   ****         PB_NextAction_failcount++;
 863              		.loc 1 504 0
 864 005c 1D4B     		ldr	r3, .L47+20
 865 005e 1B78     		ldrb	r3, [r3]	@ zero_extendqisi2
 866 0060 0133     		adds	r3, r3, #1
 867 0062 DAB2     		uxtb	r2, r3
 868 0064 1B4B     		ldr	r3, .L47+20
 869 0066 1A70     		strb	r2, [r3]
 870 0068 05E0     		b	.L42
 871              	.L41:
 505:SirenTest.c   ****     }
 506:SirenTest.c   ****     else
 507:SirenTest.c   ****     {
 508:SirenTest.c   ****         PB_NextAction_Pressed = 0;
 872              		.loc 1 508 0
 873 006a 194B     		ldr	r3, .L47+16
 874 006c 0022     		movs	r2, #0
 875 006e 1A70     		strb	r2, [r3]
 509:SirenTest.c   ****         PB_NextAction_failcount = 0;
 876              		.loc 1 509 0
 877 0070 184B     		ldr	r3, .L47+20
 878 0072 0022     		movs	r2, #0
 879 0074 1A70     		strb	r2, [r3]
 880              	.L42:
 510:SirenTest.c   ****     }
 511:SirenTest.c   ****     
 512:SirenTest.c   **** 
 513:SirenTest.c   ****     if(PB_NextAction_failcount > 75)                       // If PB is held for (150 * 20msec = 3se
 881              		.loc 1 513 0
 882 0076 174B     		ldr	r3, .L47+20
 883 0078 1B78     		ldrb	r3, [r3]	@ zero_extendqisi2
 884 007a 4B2B     		cmp	r3, #75
 885 007c 0BD9     		bls	.L43
 514:SirenTest.c   ****     {  
 515:SirenTest.c   ****         STestStatus[CurrentTest.TestStep] = 'F';
 886              		.loc 1 515 0
 887 007e 164B     		ldr	r3, .L47+24
 888 0080 5B78     		ldrb	r3, [r3, #1]	@ zero_extendqisi2
 889 0082 1A46     		mov	r2, r3
 890 0084 154B     		ldr	r3, .L47+28
 891 0086 4621     		movs	r1, #70
 892 0088 9954     		strb	r1, [r3, r2]
 516:SirenTest.c   ****         CurrentTest.Status = 'F';
 893              		.loc 1 516 0
ARM GAS  C:\Users\MARTHN~1\AppData\Local\Temp\ccDJiEkb.s 			page 26


 894 008a 134B     		ldr	r3, .L47+24
 895 008c 4622     		movs	r2, #70
 896 008e 9A70     		strb	r2, [r3, #2]
 517:SirenTest.c   ****         PB_NextAction_failcount = 0;
 897              		.loc 1 517 0
 898 0090 104B     		ldr	r3, .L47+20
 899 0092 0022     		movs	r2, #0
 900 0094 1A70     		strb	r2, [r3]
 901              	.L43:
 518:SirenTest.c   ****     }
 519:SirenTest.c   ****     
 520:SirenTest.c   **** 
 521:SirenTest.c   ****     if( (PB_NextAction_prevstate == 1) && (PB_NextAction_Pressed == 0) )        // Determine if PB 
 902              		.loc 1 521 0
 903 0096 124B     		ldr	r3, .L47+32
 904 0098 1B78     		ldrb	r3, [r3]	@ zero_extendqisi2
 905 009a 012B     		cmp	r3, #1
 906 009c 07D1     		bne	.L44
 907              		.loc 1 521 0 is_stmt 0 discriminator 1
 908 009e 0C4B     		ldr	r3, .L47+16
 909 00a0 1B78     		ldrb	r3, [r3]	@ zero_extendqisi2
 910 00a2 002B     		cmp	r3, #0
 911 00a4 03D1     		bne	.L44
 522:SirenTest.c   ****     {
 523:SirenTest.c   ****         PB_NextAction_Released = 1;
 912              		.loc 1 523 0 is_stmt 1
 913 00a6 0F4B     		ldr	r3, .L47+36
 914 00a8 0122     		movs	r2, #1
 915 00aa 1A70     		strb	r2, [r3]
 916 00ac 02E0     		b	.L45
 917              	.L44:
 524:SirenTest.c   ****     }
 525:SirenTest.c   ****     else
 526:SirenTest.c   ****         PB_NextAction_Released = 0;
 918              		.loc 1 526 0
 919 00ae 0D4B     		ldr	r3, .L47+36
 920 00b0 0022     		movs	r2, #0
 921 00b2 1A70     		strb	r2, [r3]
 922              	.L45:
 527:SirenTest.c   ****     
 528:SirenTest.c   ****     PB_NextAction_prevstate = PB_NextAction_Pressed;
 923              		.loc 1 528 0
 924 00b4 064B     		ldr	r3, .L47+16
 925 00b6 1A78     		ldrb	r2, [r3]	@ zero_extendqisi2
 926 00b8 094B     		ldr	r3, .L47+32
 927 00ba 1A70     		strb	r2, [r3]
 529:SirenTest.c   ****     
 530:SirenTest.c   ****     return;
 928              		.loc 1 530 0
 929 00bc 00BF     		nop
 531:SirenTest.c   **** }
 930              		.loc 1 531 0
 931 00be 80BD     		pop	{r7, pc}
 932              	.L48:
 933              		.align	2
 934              	.L47:
 935 00c0 88000000 		.word	PB_reading.7425
ARM GAS  C:\Users\MARTHN~1\AppData\Local\Temp\ccDJiEkb.s 			page 27


 936 00c4 89000000 		.word	PB_reading_previous.7426
 937 00c8 8A000000 		.word	PB_NextAction_debouncecount.7421
 938 00cc 8B000000 		.word	debouncetrue.7424
 939 00d0 04000000 		.word	PB_NextAction_Pressed
 940 00d4 8C000000 		.word	PB_NextAction_failcount.7422
 941 00d8 00000000 		.word	CurrentTest
 942 00dc 08000000 		.word	STestStatus
 943 00e0 8D000000 		.word	PB_NextAction_prevstate.7423
 944 00e4 05000000 		.word	PB_NextAction_Released
 945              		.cfi_endproc
 946              	.LFE65:
 947              		.size	STest_isr_PB, .-STest_isr_PB
 948              		.section	.text.STest_10ms_isr,"ax",%progbits
 949              		.align	2
 950              		.global	STest_10ms_isr
 951              		.thumb
 952              		.thumb_func
 953              		.type	STest_10ms_isr, %function
 954              	STest_10ms_isr:
 955              	.LFB66:
 532:SirenTest.c   **** 
 533:SirenTest.c   **** void STest_10ms_isr(void)                       // Times Quad and Audio packets
 534:SirenTest.c   **** {
 956              		.loc 1 534 0
 957              		.cfi_startproc
 958              		@ args = 0, pretend = 0, frame = 0
 959              		@ frame_needed = 1, uses_anonymous_args = 0
 960 0000 80B5     		push	{r7, lr}
 961              		.cfi_def_cfa_offset 8
 962              		.cfi_offset 7, -8
 963              		.cfi_offset 14, -4
 964 0002 00AF     		add	r7, sp, #0
 965              		.cfi_def_cfa_register 7
 535:SirenTest.c   **** 
 536:SirenTest.c   ****     if(CurrentTest.TestStep == AUDIO_STREAM) 
 966              		.loc 1 536 0
 967 0004 044B     		ldr	r3, .L53
 968 0006 5B78     		ldrb	r3, [r3, #1]	@ zero_extendqisi2
 969 0008 072B     		cmp	r3, #7
 970 000a 02D1     		bne	.L52
 537:SirenTest.c   ****     {
 538:SirenTest.c   ****         
 539:SirenTest.c   ****         //ADC_AudioStream_StartConvert(); // Read ADC of generated waveform
 540:SirenTest.c   ****         
 541:SirenTest.c   ****         sendPacketToSiren_Audio();      // Send audio stream to siren
 971              		.loc 1 541 0
 972 000c FFF7FEFF 		bl	sendPacketToSiren_Audio
 542:SirenTest.c   ****  
 543:SirenTest.c   ****     }
 544:SirenTest.c   **** 
 545:SirenTest.c   ****     return;
 973              		.loc 1 545 0
 974 0010 00BF     		nop
 975              	.L52:
 976 0012 00BF     		nop
 546:SirenTest.c   ****     
 547:SirenTest.c   **** }
ARM GAS  C:\Users\MARTHN~1\AppData\Local\Temp\ccDJiEkb.s 			page 28


 977              		.loc 1 547 0
 978 0014 80BD     		pop	{r7, pc}
 979              	.L54:
 980 0016 00BF     		.align	2
 981              	.L53:
 982 0018 00000000 		.word	CurrentTest
 983              		.cfi_endproc
 984              	.LFE66:
 985              		.size	STest_10ms_isr, .-STest_10ms_isr
 986              		.section	.text.STest_20ms_isr,"ax",%progbits
 987              		.align	2
 988              		.global	STest_20ms_isr
 989              		.thumb
 990              		.thumb_func
 991              		.type	STest_20ms_isr, %function
 992              	STest_20ms_isr:
 993              	.LFB67:
 548:SirenTest.c   **** 
 549:SirenTest.c   **** void STest_20ms_isr(void)
 550:SirenTest.c   **** {
 994              		.loc 1 550 0
 995              		.cfi_startproc
 996              		@ args = 0, pretend = 0, frame = 0
 997              		@ frame_needed = 1, uses_anonymous_args = 0
 998              		@ link register save eliminated.
 999 0000 80B4     		push	{r7}
 1000              		.cfi_def_cfa_offset 4
 1001              		.cfi_offset 7, -4
 1002 0002 00AF     		add	r7, sp, #0
 1003              		.cfi_def_cfa_register 7
 551:SirenTest.c   ****     
 552:SirenTest.c   ****     //CurrentTest.TestStep = TestState;           // Update current status of test
 553:SirenTest.c   ****     
 554:SirenTest.c   ****     STest_20ms_isr_count++;                     // Manage Timeout for failure
 1004              		.loc 1 554 0
 1005 0004 184B     		ldr	r3, .L62
 1006 0006 1B88     		ldrh	r3, [r3]
 1007 0008 0133     		adds	r3, r3, #1
 1008 000a 9AB2     		uxth	r2, r3
 1009 000c 164B     		ldr	r3, .L62
 1010 000e 1A80     		strh	r2, [r3]	@ movhi
 555:SirenTest.c   ****     if(STest_20ms_isr_count > STest_TimeoutCount[CurrentTest.TestStep])
 1011              		.loc 1 555 0
 1012 0010 164B     		ldr	r3, .L62+4
 1013 0012 5B78     		ldrb	r3, [r3, #1]	@ zero_extendqisi2
 1014 0014 1A46     		mov	r2, r3
 1015 0016 164B     		ldr	r3, .L62+8
 1016 0018 33F81220 		ldrh	r2, [r3, r2, lsl #1]
 1017 001c 124B     		ldr	r3, .L62
 1018 001e 1B88     		ldrh	r3, [r3]
 1019 0020 9A42     		cmp	r2, r3
 1020 0022 10D2     		bcs	.L56
 556:SirenTest.c   ****     {
 557:SirenTest.c   ****         STest_20ms_isr_count = 0;
 1021              		.loc 1 557 0
 1022 0024 104B     		ldr	r3, .L62
 1023 0026 0022     		movs	r2, #0
ARM GAS  C:\Users\MARTHN~1\AppData\Local\Temp\ccDJiEkb.s 			page 29


 1024 0028 1A80     		strh	r2, [r3]	@ movhi
 558:SirenTest.c   ****         
 559:SirenTest.c   ****         if(STest_20ms_isr_EN == 1)
 1025              		.loc 1 559 0
 1026 002a 124B     		ldr	r3, .L62+12
 1027 002c 1B88     		ldrh	r3, [r3]
 1028 002e 012B     		cmp	r3, #1
 1029 0030 14D1     		bne	.L60
 560:SirenTest.c   ****         {
 561:SirenTest.c   ****             STestStatus[CurrentTest.TestStep] = 'F';
 1030              		.loc 1 561 0
 1031 0032 0E4B     		ldr	r3, .L62+4
 1032 0034 5B78     		ldrb	r3, [r3, #1]	@ zero_extendqisi2
 1033 0036 1A46     		mov	r2, r3
 1034 0038 0F4B     		ldr	r3, .L62+16
 1035 003a 4621     		movs	r1, #70
 1036 003c 9954     		strb	r1, [r3, r2]
 562:SirenTest.c   ****             CurrentTest.Status = 'F';
 1037              		.loc 1 562 0
 1038 003e 0B4B     		ldr	r3, .L62+4
 1039 0040 4622     		movs	r2, #70
 1040 0042 9A70     		strb	r2, [r3, #2]
 563:SirenTest.c   ****         }
 564:SirenTest.c   ****             
 565:SirenTest.c   ****         return;
 1041              		.loc 1 565 0
 1042 0044 0AE0     		b	.L60
 1043              	.L56:
 566:SirenTest.c   ****     }
 567:SirenTest.c   ****     
 568:SirenTest.c   ****     if(STest_20ms_isr_count > 65000)
 1044              		.loc 1 568 0
 1045 0046 084B     		ldr	r3, .L62
 1046 0048 1B88     		ldrh	r3, [r3]
 1047 004a 4FF6E852 		movw	r2, #65000
 1048 004e 9342     		cmp	r3, r2
 1049 0050 06D9     		bls	.L61
 569:SirenTest.c   ****         STest_20ms_isr_count = 0;
 1050              		.loc 1 569 0
 1051 0052 054B     		ldr	r3, .L62
 1052 0054 0022     		movs	r2, #0
 1053 0056 1A80     		strh	r2, [r3]	@ movhi
 570:SirenTest.c   ****     
 571:SirenTest.c   ****     return;
 1054              		.loc 1 571 0
 1055 0058 00BF     		nop
 1056 005a 01E0     		b	.L61
 1057              	.L60:
 565:SirenTest.c   ****     }
 1058              		.loc 1 565 0
 1059 005c 00BF     		nop
 1060 005e 00E0     		b	.L55
 1061              	.L61:
 1062              		.loc 1 571 0
 1063 0060 00BF     		nop
 1064              	.L55:
 572:SirenTest.c   ****        
ARM GAS  C:\Users\MARTHN~1\AppData\Local\Temp\ccDJiEkb.s 			page 30


 573:SirenTest.c   **** }
 1065              		.loc 1 573 0
 1066 0062 BD46     		mov	sp, r7
 1067              		.cfi_def_cfa_register 13
 1068              		@ sp needed
 1069 0064 80BC     		pop	{r7}
 1070              		.cfi_restore 7
 1071              		.cfi_def_cfa_offset 0
 1072 0066 7047     		bx	lr
 1073              	.L63:
 1074              		.align	2
 1075              	.L62:
 1076 0068 00000000 		.word	STest_20ms_isr_count
 1077 006c 00000000 		.word	CurrentTest
 1078 0070 00000000 		.word	STest_TimeoutCount
 1079 0074 02000000 		.word	STest_20ms_isr_EN
 1080 0078 08000000 		.word	STestStatus
 1081              		.cfi_endproc
 1082              	.LFE67:
 1083              		.size	STest_20ms_isr, .-STest_20ms_isr
 1084              		.section	.text.STest_50ms_isr,"ax",%progbits
 1085              		.align	2
 1086              		.global	STest_50ms_isr
 1087              		.thumb
 1088              		.thumb_func
 1089              		.type	STest_50ms_isr, %function
 1090              	STest_50ms_isr:
 1091              	.LFB68:
 574:SirenTest.c   **** 
 575:SirenTest.c   **** void STest_50ms_isr(void)
 576:SirenTest.c   **** {
 1092              		.loc 1 576 0
 1093              		.cfi_startproc
 1094              		@ args = 0, pretend = 0, frame = 0
 1095              		@ frame_needed = 1, uses_anonymous_args = 0
 1096 0000 80B5     		push	{r7, lr}
 1097              		.cfi_def_cfa_offset 8
 1098              		.cfi_offset 7, -8
 1099              		.cfi_offset 14, -4
 1100 0002 00AF     		add	r7, sp, #0
 1101              		.cfi_def_cfa_register 7
 577:SirenTest.c   ****     STest_sendDiagPacket();
 1102              		.loc 1 577 0
 1103 0004 FFF7FEFF 		bl	STest_sendDiagPacket
 578:SirenTest.c   **** 
 579:SirenTest.c   ****         if( (CurrentTest.TestStep == INITIALIZE_TEST) ||        //*** This needs some work
 1104              		.loc 1 579 0
 1105 0008 124B     		ldr	r3, .L69
 1106 000a 5B78     		ldrb	r3, [r3, #1]	@ zero_extendqisi2
 1107 000c 002B     		cmp	r3, #0
 1108 000e 1BD0     		beq	.L65
 580:SirenTest.c   ****             (CurrentTest.TestStep == AMP1) ||
 1109              		.loc 1 580 0 discriminator 1
 1110 0010 104B     		ldr	r3, .L69
 1111 0012 5B78     		ldrb	r3, [r3, #1]	@ zero_extendqisi2
 579:SirenTest.c   ****             (CurrentTest.TestStep == AMP1) ||
 1112              		.loc 1 579 0 discriminator 1
ARM GAS  C:\Users\MARTHN~1\AppData\Local\Temp\ccDJiEkb.s 			page 31


 1113 0014 032B     		cmp	r3, #3
 1114 0016 17D0     		beq	.L65
 581:SirenTest.c   ****             (CurrentTest.TestStep == AMP2) ||
 1115              		.loc 1 581 0
 1116 0018 0E4B     		ldr	r3, .L69
 1117 001a 5B78     		ldrb	r3, [r3, #1]	@ zero_extendqisi2
 580:SirenTest.c   ****             (CurrentTest.TestStep == AMP1) ||
 1118              		.loc 1 580 0
 1119 001c 042B     		cmp	r3, #4
 1120 001e 13D0     		beq	.L65
 582:SirenTest.c   ****             (CurrentTest.TestStep == RRB) ||
 1121              		.loc 1 582 0
 1122 0020 0C4B     		ldr	r3, .L69
 1123 0022 5B78     		ldrb	r3, [r3, #1]	@ zero_extendqisi2
 581:SirenTest.c   ****             (CurrentTest.TestStep == AMP2) ||
 1124              		.loc 1 581 0
 1125 0024 052B     		cmp	r3, #5
 1126 0026 0FD0     		beq	.L65
 583:SirenTest.c   ****             (CurrentTest.TestStep == AUDIO_STREAM) ||
 1127              		.loc 1 583 0
 1128 0028 0A4B     		ldr	r3, .L69
 1129 002a 5B78     		ldrb	r3, [r3, #1]	@ zero_extendqisi2
 582:SirenTest.c   ****             (CurrentTest.TestStep == RRB) ||
 1130              		.loc 1 582 0
 1131 002c 072B     		cmp	r3, #7
 1132 002e 0BD0     		beq	.L65
 584:SirenTest.c   ****             (CurrentTest.TestStep == FLASH) ||    
 1133              		.loc 1 584 0
 1134 0030 084B     		ldr	r3, .L69
 1135 0032 5B78     		ldrb	r3, [r3, #1]	@ zero_extendqisi2
 583:SirenTest.c   ****             (CurrentTest.TestStep == AUDIO_STREAM) ||
 1136              		.loc 1 583 0
 1137 0034 082B     		cmp	r3, #8
 1138 0036 07D0     		beq	.L65
 585:SirenTest.c   ****             (CurrentTest.TestStep == OVERLOAD) ||    
 1139              		.loc 1 585 0
 1140 0038 064B     		ldr	r3, .L69
 1141 003a 5B78     		ldrb	r3, [r3, #1]	@ zero_extendqisi2
 584:SirenTest.c   ****             (CurrentTest.TestStep == FLASH) ||    
 1142              		.loc 1 584 0
 1143 003c 092B     		cmp	r3, #9
 1144 003e 03D0     		beq	.L65
 586:SirenTest.c   ****             (CurrentTest.TestStep == PASS) )
 1145              		.loc 1 586 0
 1146 0040 044B     		ldr	r3, .L69
 1147 0042 5B78     		ldrb	r3, [r3, #1]	@ zero_extendqisi2
 585:SirenTest.c   ****             (CurrentTest.TestStep == OVERLOAD) ||    
 1148              		.loc 1 585 0
 1149 0044 0A2B     		cmp	r3, #10
 1150 0046 02D1     		bne	.L68
 1151              	.L65:
 587:SirenTest.c   **** 
 588:SirenTest.c   ****         {      
 589:SirenTest.c   ****             sendPacketToRelaySiren();
 1152              		.loc 1 589 0
 1153 0048 FFF7FEFF 		bl	sendPacketToRelaySiren
 590:SirenTest.c   ****         }
ARM GAS  C:\Users\MARTHN~1\AppData\Local\Temp\ccDJiEkb.s 			page 32


 591:SirenTest.c   ****     
 592:SirenTest.c   ****     return;    
 1154              		.loc 1 592 0
 1155 004c 00BF     		nop
 1156              	.L68:
 1157 004e 00BF     		nop
 593:SirenTest.c   ****     
 594:SirenTest.c   **** }
 1158              		.loc 1 594 0
 1159 0050 80BD     		pop	{r7, pc}
 1160              	.L70:
 1161 0052 00BF     		.align	2
 1162              	.L69:
 1163 0054 00000000 		.word	CurrentTest
 1164              		.cfi_endproc
 1165              	.LFE68:
 1166              		.size	STest_50ms_isr, .-STest_50ms_isr
 1167              		.section	.text.STest_sendDiagPacket,"ax",%progbits
 1168              		.align	2
 1169              		.global	STest_sendDiagPacket
 1170              		.thumb
 1171              		.thumb_func
 1172              		.type	STest_sendDiagPacket, %function
 1173              	STest_sendDiagPacket:
 1174              	.LFB69:
 595:SirenTest.c   **** 
 596:SirenTest.c   **** //-------------------------------UART diagnostics--------------------------------------------
 597:SirenTest.c   **** void STest_sendDiagPacket(void)
 598:SirenTest.c   **** {
 1175              		.loc 1 598 0
 1176              		.cfi_startproc
 1177              		@ args = 0, pretend = 0, frame = 8
 1178              		@ frame_needed = 1, uses_anonymous_args = 0
 1179 0000 80B5     		push	{r7, lr}
 1180              		.cfi_def_cfa_offset 8
 1181              		.cfi_offset 7, -8
 1182              		.cfi_offset 14, -4
 1183 0002 82B0     		sub	sp, sp, #8
 1184              		.cfi_def_cfa_offset 16
 1185 0004 00AF     		add	r7, sp, #0
 1186              		.cfi_def_cfa_register 7
 1187              	.LBB5:
 599:SirenTest.c   **** 
 600:SirenTest.c   ****     static uint8 STestStatus_display[ (NUMBER_TEST_STEPS*2) ];
 601:SirenTest.c   ****     
 602:SirenTest.c   ****     for(uint8 i=0;i<NUMBER_TEST_STEPS;i++)
 1188              		.loc 1 602 0
 1189 0006 0023     		movs	r3, #0
 1190 0008 FB71     		strb	r3, [r7, #7]
 1191 000a 0FE0     		b	.L72
 1192              	.L73:
 603:SirenTest.c   ****     {
 604:SirenTest.c   ****         STestStatus_display[i*2] = STestStatus[i];
 1193              		.loc 1 604 0 discriminator 3
 1194 000c FB79     		ldrb	r3, [r7, #7]	@ zero_extendqisi2
 1195 000e 5B00     		lsls	r3, r3, #1
 1196 0010 FA79     		ldrb	r2, [r7, #7]	@ zero_extendqisi2
ARM GAS  C:\Users\MARTHN~1\AppData\Local\Temp\ccDJiEkb.s 			page 33


 1197 0012 0F49     		ldr	r1, .L75
 1198 0014 895C     		ldrb	r1, [r1, r2]	@ zero_extendqisi2
 1199 0016 0F4A     		ldr	r2, .L75+4
 1200 0018 D154     		strb	r1, [r2, r3]
 605:SirenTest.c   ****         STestStatus_display[(i*2) + 1] = ' ';
 1201              		.loc 1 605 0 discriminator 3
 1202 001a FB79     		ldrb	r3, [r7, #7]	@ zero_extendqisi2
 1203 001c 5B00     		lsls	r3, r3, #1
 1204 001e 0133     		adds	r3, r3, #1
 1205 0020 0C4A     		ldr	r2, .L75+4
 1206 0022 2021     		movs	r1, #32
 1207 0024 D154     		strb	r1, [r2, r3]
 602:SirenTest.c   ****     {
 1208              		.loc 1 602 0 discriminator 3
 1209 0026 FB79     		ldrb	r3, [r7, #7]	@ zero_extendqisi2
 1210 0028 0133     		adds	r3, r3, #1
 1211 002a FB71     		strb	r3, [r7, #7]
 1212              	.L72:
 602:SirenTest.c   ****     {
 1213              		.loc 1 602 0 is_stmt 0 discriminator 1
 1214 002c FB79     		ldrb	r3, [r7, #7]	@ zero_extendqisi2
 1215 002e 0A2B     		cmp	r3, #10
 1216 0030 ECD9     		bls	.L73
 1217              	.LBE5:
 606:SirenTest.c   ****     }
 607:SirenTest.c   ****     
 608:SirenTest.c   ****     //DEMUX_CTRL_230400_Write(RTEST_SIREN);
 609:SirenTest.c   ****     
 610:SirenTest.c   ****     UART_115200_PutArray(STestStatus_display, (NUMBER_TEST_STEPS*2) );
 1218              		.loc 1 610 0 is_stmt 1
 1219 0032 1621     		movs	r1, #22
 1220 0034 0748     		ldr	r0, .L75+4
 1221 0036 FFF7FEFF 		bl	UART_115200_PutArray
 611:SirenTest.c   ****     
 612:SirenTest.c   ****     UART_115200_PutChar('\r');
 1222              		.loc 1 612 0
 1223 003a 0D20     		movs	r0, #13
 1224 003c FFF7FEFF 		bl	UART_115200_PutChar
 613:SirenTest.c   ****     UART_115200_PutChar('\n');
 1225              		.loc 1 613 0
 1226 0040 0A20     		movs	r0, #10
 1227 0042 FFF7FEFF 		bl	UART_115200_PutChar
 614:SirenTest.c   ****     
 615:SirenTest.c   ****     return;
 1228              		.loc 1 615 0
 1229 0046 00BF     		nop
 616:SirenTest.c   **** }
 1230              		.loc 1 616 0
 1231 0048 0837     		adds	r7, r7, #8
 1232              		.cfi_def_cfa_offset 8
 1233 004a BD46     		mov	sp, r7
 1234              		.cfi_def_cfa_register 13
 1235              		@ sp needed
 1236 004c 80BD     		pop	{r7, pc}
 1237              	.L76:
 1238 004e 00BF     		.align	2
 1239              	.L75:
ARM GAS  C:\Users\MARTHN~1\AppData\Local\Temp\ccDJiEkb.s 			page 34


 1240 0050 08000000 		.word	STestStatus
 1241 0054 90000000 		.word	STestStatus_display.7439
 1242              		.cfi_endproc
 1243              	.LFE69:
 1244              		.size	STest_sendDiagPacket, .-STest_sendDiagPacket
 1245              		.section	.text.PB_WaitForAction,"ax",%progbits
 1246              		.align	2
 1247              		.global	PB_WaitForAction
 1248              		.thumb
 1249              		.thumb_func
 1250              		.type	PB_WaitForAction, %function
 1251              	PB_WaitForAction:
 1252              	.LFB70:
 617:SirenTest.c   **** 
 618:SirenTest.c   **** void PB_WaitForAction(void)
 619:SirenTest.c   **** {
 1253              		.loc 1 619 0
 1254              		.cfi_startproc
 1255              		@ args = 0, pretend = 0, frame = 0
 1256              		@ frame_needed = 1, uses_anonymous_args = 0
 1257 0000 80B5     		push	{r7, lr}
 1258              		.cfi_def_cfa_offset 8
 1259              		.cfi_offset 7, -8
 1260              		.cfi_offset 14, -4
 1261 0002 00AF     		add	r7, sp, #0
 1262              		.cfi_def_cfa_register 7
 620:SirenTest.c   ****     
 621:SirenTest.c   ****     STestStatus[CurrentTest.TestStep] = 'W';                                        // Set status t
 1263              		.loc 1 621 0
 1264 0004 164B     		ldr	r3, .L82
 1265 0006 5B78     		ldrb	r3, [r3, #1]	@ zero_extendqisi2
 1266 0008 1A46     		mov	r2, r3
 1267 000a 164B     		ldr	r3, .L82+4
 1268 000c 5721     		movs	r1, #87
 1269 000e 9954     		strb	r1, [r3, r2]
 622:SirenTest.c   ****     CurrentTest.Status = 'W';
 1270              		.loc 1 622 0
 1271 0010 134B     		ldr	r3, .L82
 1272 0012 5722     		movs	r2, #87
 1273 0014 9A70     		strb	r2, [r3, #2]
 623:SirenTest.c   ****             
 624:SirenTest.c   **** //            while( (!PB_NextAction_Released) && (STestStatus[CurrentTest.TestStep] != 'F') )
 625:SirenTest.c   **** //            {} 
 626:SirenTest.c   **** //            PB_NextAction_Released = 0;
 627:SirenTest.c   **** //            
 628:SirenTest.c   **** //            if(STestStatus[CurrentTest.TestStep] != 'F')       // If not failed, then pass
 629:SirenTest.c   **** //                STestStatus[CurrentTest.TestStep] = 'P';                                        /
 630:SirenTest.c   **** 
 631:SirenTest.c   ****             
 632:SirenTest.c   **** //            if(STestStatus[CurrentTest.TestStep] != 'F')       // If not failed, then pass
 633:SirenTest.c   **** //            {
 634:SirenTest.c   **** //                STestStatus[CurrentTest.TestStep] = 'P';                                        /
 635:SirenTest.c   **** //                //CyDelay(1000);
 636:SirenTest.c   **** //            }
 637:SirenTest.c   ****             
 638:SirenTest.c   ****     while( (STestStatus[CurrentTest.TestStep] != 'P') && (STestStatus[CurrentTest.TestStep] != 'F')
 1274              		.loc 1 638 0
ARM GAS  C:\Users\MARTHN~1\AppData\Local\Temp\ccDJiEkb.s 			page 35


 1275 0016 0FE0     		b	.L78
 1276              	.L80:
 639:SirenTest.c   ****     {
 640:SirenTest.c   ****         if(PB_NextAction_Released) 
 1277              		.loc 1 640 0
 1278 0018 134B     		ldr	r3, .L82+8
 1279 001a 1B78     		ldrb	r3, [r3]	@ zero_extendqisi2
 1280 001c 002B     		cmp	r3, #0
 1281 001e 0BD0     		beq	.L78
 641:SirenTest.c   ****         {
 642:SirenTest.c   ****             //LED_EN_Write(1);
 643:SirenTest.c   ****             STestStatus[CurrentTest.TestStep] = 'P'; 
 1282              		.loc 1 643 0
 1283 0020 0F4B     		ldr	r3, .L82
 1284 0022 5B78     		ldrb	r3, [r3, #1]	@ zero_extendqisi2
 1285 0024 1A46     		mov	r2, r3
 1286 0026 0F4B     		ldr	r3, .L82+4
 1287 0028 5021     		movs	r1, #80
 1288 002a 9954     		strb	r1, [r3, r2]
 644:SirenTest.c   ****             CurrentTest.Status = 'P';
 1289              		.loc 1 644 0
 1290 002c 0C4B     		ldr	r3, .L82
 1291 002e 5022     		movs	r2, #80
 1292 0030 9A70     		strb	r2, [r3, #2]
 645:SirenTest.c   ****             PB_NextAction_Released = 0;
 1293              		.loc 1 645 0
 1294 0032 0D4B     		ldr	r3, .L82+8
 1295 0034 0022     		movs	r2, #0
 1296 0036 1A70     		strb	r2, [r3]
 1297              	.L78:
 638:SirenTest.c   ****     {
 1298              		.loc 1 638 0
 1299 0038 094B     		ldr	r3, .L82
 1300 003a 5B78     		ldrb	r3, [r3, #1]	@ zero_extendqisi2
 1301 003c 1A46     		mov	r2, r3
 1302 003e 094B     		ldr	r3, .L82+4
 1303 0040 9B5C     		ldrb	r3, [r3, r2]	@ zero_extendqisi2
 1304 0042 502B     		cmp	r3, #80
 1305 0044 06D0     		beq	.L79
 638:SirenTest.c   ****     {
 1306              		.loc 1 638 0 is_stmt 0 discriminator 1
 1307 0046 064B     		ldr	r3, .L82
 1308 0048 5B78     		ldrb	r3, [r3, #1]	@ zero_extendqisi2
 1309 004a 1A46     		mov	r2, r3
 1310 004c 054B     		ldr	r3, .L82+4
 1311 004e 9B5C     		ldrb	r3, [r3, r2]	@ zero_extendqisi2
 1312 0050 462B     		cmp	r3, #70
 1313 0052 E1D1     		bne	.L80
 1314              	.L79:
 646:SirenTest.c   ****         }
 647:SirenTest.c   ****     } 
 648:SirenTest.c   ****             
 649:SirenTest.c   ****     //CyDelay(1000);
 650:SirenTest.c   ****     LED_EN_Write(0);    // ***not sure why this seems to be needed to make it work
 1315              		.loc 1 650 0 is_stmt 1
 1316 0054 0020     		movs	r0, #0
 1317 0056 FFF7FEFF 		bl	LED_EN_Write
ARM GAS  C:\Users\MARTHN~1\AppData\Local\Temp\ccDJiEkb.s 			page 36


 651:SirenTest.c   ****     
 652:SirenTest.c   ****     
 653:SirenTest.c   ****     return;
 1318              		.loc 1 653 0
 1319 005a 00BF     		nop
 654:SirenTest.c   **** }
 1320              		.loc 1 654 0
 1321 005c 80BD     		pop	{r7, pc}
 1322              	.L83:
 1323 005e 00BF     		.align	2
 1324              	.L82:
 1325 0060 00000000 		.word	CurrentTest
 1326 0064 08000000 		.word	STestStatus
 1327 0068 05000000 		.word	PB_NextAction_Released
 1328              		.cfi_endproc
 1329              	.LFE70:
 1330              		.size	PB_WaitForAction, .-PB_WaitForAction
 1331              		.section	.text.STest_PlayTestTone,"ax",%progbits
 1332              		.align	2
 1333              		.global	STest_PlayTestTone
 1334              		.thumb
 1335              		.thumb_func
 1336              		.type	STest_PlayTestTone, %function
 1337              	STest_PlayTestTone:
 1338              	.LFB71:
 655:SirenTest.c   **** 
 656:SirenTest.c   **** void STest_PlayTestTone(void)
 657:SirenTest.c   **** {
 1339              		.loc 1 657 0
 1340              		.cfi_startproc
 1341              		@ args = 0, pretend = 0, frame = 0
 1342              		@ frame_needed = 1, uses_anonymous_args = 0
 1343 0000 80B5     		push	{r7, lr}
 1344              		.cfi_def_cfa_offset 8
 1345              		.cfi_offset 7, -8
 1346              		.cfi_offset 14, -4
 1347 0002 00AF     		add	r7, sp, #0
 1348              		.cfi_def_cfa_register 7
 658:SirenTest.c   ****     // 230400 - 'S' - Send a command to enable RRB (*** is this the right packet?)
 659:SirenTest.c   ****     // enable power amp also
 660:SirenTest.c   ****     
 661:SirenTest.c   **** //    pTxPacket_RelaySiren = getTxPacket_RelaySiren();    // Tx - Get pointers to packet   
 662:SirenTest.c   **** //    pTxPacket_RelaySiren->Payload.RRB = 0x01;           // Turn on RRB
 663:SirenTest.c   ****     
 664:SirenTest.c   ****     STestStatus[CurrentTest.TestStep] = 'B';            // Set status to 'busy' until all 3 freqs p
 1349              		.loc 1 664 0
 1350 0004 0D4B     		ldr	r3, .L86
 1351 0006 5B78     		ldrb	r3, [r3, #1]	@ zero_extendqisi2
 1352 0008 1A46     		mov	r2, r3
 1353 000a 0D4B     		ldr	r3, .L86+4
 1354 000c 4221     		movs	r1, #66
 1355 000e 9954     		strb	r1, [r3, r2]
 665:SirenTest.c   ****     CurrentTest.Status = 'B';
 1356              		.loc 1 665 0
 1357 0010 0A4B     		ldr	r3, .L86
 1358 0012 4222     		movs	r2, #66
 1359 0014 9A70     		strb	r2, [r3, #2]
ARM GAS  C:\Users\MARTHN~1\AppData\Local\Temp\ccDJiEkb.s 			page 37


 666:SirenTest.c   ****     
 667:SirenTest.c   ****     WaveDAC_Start();                                  // Turn on DAC
 1360              		.loc 1 667 0
 1361 0016 FFF7FEFF 		bl	WaveDAC_Start
 668:SirenTest.c   ****     
 669:SirenTest.c   **** //    Timer_DAC_WritePeriod(5);     //~8.5kHz    // Send a 1V 200Hz PWM (using DAC) for 1sec, then 
 670:SirenTest.c   ****     CyDelay(1000);
 1362              		.loc 1 670 0
 1363 001a 4FF47A70 		mov	r0, #1000
 1364 001e FFF7FEFF 		bl	CyDelay
 671:SirenTest.c   **** //    Timer_DAC_WritePeriod(50);    // ~1kHz
 672:SirenTest.c   ****     CyDelay(1000);
 1365              		.loc 1 672 0
 1366 0022 4FF47A70 		mov	r0, #1000
 1367 0026 FFF7FEFF 		bl	CyDelay
 673:SirenTest.c   **** //    Timer_DAC_WritePeriod(500);     // ~100Hz
 674:SirenTest.c   ****     CyDelay(1000);
 1368              		.loc 1 674 0
 1369 002a 4FF47A70 		mov	r0, #1000
 1370 002e FFF7FEFF 		bl	CyDelay
 675:SirenTest.c   ****     
 676:SirenTest.c   ****     //while(1);
 677:SirenTest.c   ****     
 678:SirenTest.c   ****     //pTxPacket_RelaySiren->Payload.RRB = 0x00;           // Turn off RRB
 679:SirenTest.c   ****     
 680:SirenTest.c   ****     WaveDAC_Stop();                                   // Turn off DAC
 1371              		.loc 1 680 0
 1372 0032 FFF7FEFF 		bl	WaveDAC_Stop
 681:SirenTest.c   ****     
 682:SirenTest.c   ****     return;
 1373              		.loc 1 682 0
 1374 0036 00BF     		nop
 683:SirenTest.c   **** }
 1375              		.loc 1 683 0
 1376 0038 80BD     		pop	{r7, pc}
 1377              	.L87:
 1378 003a 00BF     		.align	2
 1379              	.L86:
 1380 003c 00000000 		.word	CurrentTest
 1381 0040 08000000 		.word	STestStatus
 1382              		.cfi_endproc
 1383              	.LFE71:
 1384              		.size	STest_PlayTestTone, .-STest_PlayTestTone
 1385              		.section	.text.STest_PlayTestTone_AudioStream,"ax",%progbits
 1386              		.align	2
 1387              		.global	STest_PlayTestTone_AudioStream
 1388              		.thumb
 1389              		.thumb_func
 1390              		.type	STest_PlayTestTone_AudioStream, %function
 1391              	STest_PlayTestTone_AudioStream:
 1392              	.LFB72:
 684:SirenTest.c   **** 
 685:SirenTest.c   **** void STest_PlayTestTone_AudioStream(void)
 686:SirenTest.c   **** {
 1393              		.loc 1 686 0
 1394              		.cfi_startproc
 1395              		@ args = 0, pretend = 0, frame = 0
ARM GAS  C:\Users\MARTHN~1\AppData\Local\Temp\ccDJiEkb.s 			page 38


 1396              		@ frame_needed = 1, uses_anonymous_args = 0
 1397 0000 80B5     		push	{r7, lr}
 1398              		.cfi_def_cfa_offset 8
 1399              		.cfi_offset 7, -8
 1400              		.cfi_offset 14, -4
 1401 0002 00AF     		add	r7, sp, #0
 1402              		.cfi_def_cfa_register 7
 687:SirenTest.c   ****     
 688:SirenTest.c   ****     //DEMUX_CTRL_460800_Write(STEST_AUDIO);   // mux the 460800 channel to STest_Audio
 689:SirenTest.c   ****     
 690:SirenTest.c   ****     pTxPacket_RelaySiren = getTxPacket_RelaySiren();    // Tx - Get pointers to packet   
 1403              		.loc 1 690 0
 1404 0004 FFF7FEFF 		bl	getTxPacket_RelaySiren
 1405 0008 0246     		mov	r2, r0
 1406 000a 164B     		ldr	r3, .L90
 1407 000c 1A60     		str	r2, [r3]
 691:SirenTest.c   ****     pTxPacket_RelaySiren->Payload.SirenEnable = 0x01;   // ***not sure this is the right way to con
 1408              		.loc 1 691 0
 1409 000e 154B     		ldr	r3, .L90
 1410 0010 1B68     		ldr	r3, [r3]
 1411 0012 0122     		movs	r2, #1
 1412 0014 83F84C20 		strb	r2, [r3, #76]
 692:SirenTest.c   ****     
 693:SirenTest.c   ****     STestStatus[CurrentTest.TestStep] = 'B';            // Set status to 'busy' until all 3 freqs p
 1413              		.loc 1 693 0
 1414 0018 134B     		ldr	r3, .L90+4
 1415 001a 5B78     		ldrb	r3, [r3, #1]	@ zero_extendqisi2
 1416 001c 1A46     		mov	r2, r3
 1417 001e 134B     		ldr	r3, .L90+8
 1418 0020 4221     		movs	r1, #66
 1419 0022 9954     		strb	r1, [r3, r2]
 694:SirenTest.c   ****     CurrentTest.Status = 'B';
 1420              		.loc 1 694 0
 1421 0024 104B     		ldr	r3, .L90+4
 1422 0026 4222     		movs	r2, #66
 1423 0028 9A70     		strb	r2, [r3, #2]
 695:SirenTest.c   ****     
 696:SirenTest.c   ****     WaveDAC_Start();                                    // Turn on DAC
 1424              		.loc 1 696 0
 1425 002a FFF7FEFF 		bl	WaveDAC_Start
 697:SirenTest.c   ****     
 698:SirenTest.c   ****     Timer_DAC_WritePeriod(5);                           // Send a 1V 200Hz PWM (using DAC) for 1sec
 1426              		.loc 1 698 0
 1427 002e 0520     		movs	r0, #5
 1428 0030 FFF7FEFF 		bl	Timer_DAC_WritePeriod
 699:SirenTest.c   ****     CyDelay(1000);
 1429              		.loc 1 699 0
 1430 0034 4FF47A70 		mov	r0, #1000
 1431 0038 FFF7FEFF 		bl	CyDelay
 700:SirenTest.c   ****     Timer_DAC_WritePeriod(50);
 1432              		.loc 1 700 0
 1433 003c 3220     		movs	r0, #50
 1434 003e FFF7FEFF 		bl	Timer_DAC_WritePeriod
 701:SirenTest.c   ****     CyDelay(1000);
 1435              		.loc 1 701 0
 1436 0042 4FF47A70 		mov	r0, #1000
 1437 0046 FFF7FEFF 		bl	CyDelay
ARM GAS  C:\Users\MARTHN~1\AppData\Local\Temp\ccDJiEkb.s 			page 39


 702:SirenTest.c   ****     Timer_DAC_WritePeriod(500);
 1438              		.loc 1 702 0
 1439 004a 4FF4FA70 		mov	r0, #500
 1440 004e FFF7FEFF 		bl	Timer_DAC_WritePeriod
 703:SirenTest.c   ****     CyDelay(1000);
 1441              		.loc 1 703 0
 1442 0052 4FF47A70 		mov	r0, #1000
 1443 0056 FFF7FEFF 		bl	CyDelay
 704:SirenTest.c   ****     
 705:SirenTest.c   ****     //pTxPacket_RelaySiren->Payload.RRB = 0x00;           // Turn off RRB
 706:SirenTest.c   ****     
 707:SirenTest.c   ****     
 708:SirenTest.c   ****     WaveDAC_Stop();                                   // Turn off DAC
 1444              		.loc 1 708 0
 1445 005a FFF7FEFF 		bl	WaveDAC_Stop
 709:SirenTest.c   ****     
 710:SirenTest.c   ****     return;
 1446              		.loc 1 710 0
 1447 005e 00BF     		nop
 711:SirenTest.c   **** 
 712:SirenTest.c   **** }
 1448              		.loc 1 712 0
 1449 0060 80BD     		pop	{r7, pc}
 1450              	.L91:
 1451 0062 00BF     		.align	2
 1452              	.L90:
 1453 0064 64000000 		.word	pTxPacket_RelaySiren
 1454 0068 00000000 		.word	CurrentTest
 1455 006c 08000000 		.word	STestStatus
 1456              		.cfi_endproc
 1457              	.LFE72:
 1458              		.size	STest_PlayTestTone_AudioStream, .-STest_PlayTestTone_AudioStream
 1459              		.section	.text.StartAutomatedStep,"ax",%progbits
 1460              		.align	2
 1461              		.global	StartAutomatedStep
 1462              		.thumb
 1463              		.thumb_func
 1464              		.type	StartAutomatedStep, %function
 1465              	StartAutomatedStep:
 1466              	.LFB73:
 713:SirenTest.c   **** 
 714:SirenTest.c   **** void StartAutomatedStep(void)
 715:SirenTest.c   **** {
 1467              		.loc 1 715 0
 1468              		.cfi_startproc
 1469              		@ args = 0, pretend = 0, frame = 0
 1470              		@ frame_needed = 1, uses_anonymous_args = 0
 1471              		@ link register save eliminated.
 1472 0000 80B4     		push	{r7}
 1473              		.cfi_def_cfa_offset 4
 1474              		.cfi_offset 7, -4
 1475 0002 00AF     		add	r7, sp, #0
 1476              		.cfi_def_cfa_register 7
 716:SirenTest.c   ****     
 717:SirenTest.c   ****     STestStatus[CurrentTest.TestStep] = 'B';
 1477              		.loc 1 717 0
 1478 0004 094B     		ldr	r3, .L94
ARM GAS  C:\Users\MARTHN~1\AppData\Local\Temp\ccDJiEkb.s 			page 40


 1479 0006 5B78     		ldrb	r3, [r3, #1]	@ zero_extendqisi2
 1480 0008 1A46     		mov	r2, r3
 1481 000a 094B     		ldr	r3, .L94+4
 1482 000c 4221     		movs	r1, #66
 1483 000e 9954     		strb	r1, [r3, r2]
 718:SirenTest.c   ****     CurrentTest.Status = 'B';
 1484              		.loc 1 718 0
 1485 0010 064B     		ldr	r3, .L94
 1486 0012 4222     		movs	r2, #66
 1487 0014 9A70     		strb	r2, [r3, #2]
 719:SirenTest.c   ****     STest_20ms_isr_count = 0;
 1488              		.loc 1 719 0
 1489 0016 074B     		ldr	r3, .L94+8
 1490 0018 0022     		movs	r2, #0
 1491 001a 1A80     		strh	r2, [r3]	@ movhi
 720:SirenTest.c   ****     STest_20ms_isr_EN = 1;
 1492              		.loc 1 720 0
 1493 001c 064B     		ldr	r3, .L94+12
 1494 001e 0122     		movs	r2, #1
 1495 0020 1A80     		strh	r2, [r3]	@ movhi
 721:SirenTest.c   ****     
 722:SirenTest.c   ****     return;
 1496              		.loc 1 722 0
 1497 0022 00BF     		nop
 723:SirenTest.c   ****     
 724:SirenTest.c   **** }
 1498              		.loc 1 724 0
 1499 0024 BD46     		mov	sp, r7
 1500              		.cfi_def_cfa_register 13
 1501              		@ sp needed
 1502 0026 80BC     		pop	{r7}
 1503              		.cfi_restore 7
 1504              		.cfi_def_cfa_offset 0
 1505 0028 7047     		bx	lr
 1506              	.L95:
 1507 002a 00BF     		.align	2
 1508              	.L94:
 1509 002c 00000000 		.word	CurrentTest
 1510 0030 08000000 		.word	STestStatus
 1511 0034 00000000 		.word	STest_20ms_isr_count
 1512 0038 02000000 		.word	STest_20ms_isr_EN
 1513              		.cfi_endproc
 1514              	.LFE73:
 1515              		.size	StartAutomatedStep, .-StartAutomatedStep
 1516              		.section	.text.StopAutomatedStep,"ax",%progbits
 1517              		.align	2
 1518              		.global	StopAutomatedStep
 1519              		.thumb
 1520              		.thumb_func
 1521              		.type	StopAutomatedStep, %function
 1522              	StopAutomatedStep:
 1523              	.LFB74:
 725:SirenTest.c   **** 
 726:SirenTest.c   **** void StopAutomatedStep(void)
 727:SirenTest.c   **** {
 1524              		.loc 1 727 0
 1525              		.cfi_startproc
ARM GAS  C:\Users\MARTHN~1\AppData\Local\Temp\ccDJiEkb.s 			page 41


 1526              		@ args = 0, pretend = 0, frame = 0
 1527              		@ frame_needed = 1, uses_anonymous_args = 0
 1528              		@ link register save eliminated.
 1529 0000 80B4     		push	{r7}
 1530              		.cfi_def_cfa_offset 4
 1531              		.cfi_offset 7, -4
 1532 0002 00AF     		add	r7, sp, #0
 1533              		.cfi_def_cfa_register 7
 728:SirenTest.c   ****     
 729:SirenTest.c   ****     STest_20ms_isr_EN = 0;
 1534              		.loc 1 729 0
 1535 0004 0B4B     		ldr	r3, .L100
 1536 0006 0022     		movs	r2, #0
 1537 0008 1A80     		strh	r2, [r3]	@ movhi
 730:SirenTest.c   ****     if(STestStatus[CurrentTest.TestStep] != 'F')       // If not failed, then pass
 1538              		.loc 1 730 0
 1539 000a 0B4B     		ldr	r3, .L100+4
 1540 000c 5B78     		ldrb	r3, [r3, #1]	@ zero_extendqisi2
 1541 000e 1A46     		mov	r2, r3
 1542 0010 0A4B     		ldr	r3, .L100+8
 1543 0012 9B5C     		ldrb	r3, [r3, r2]	@ zero_extendqisi2
 1544 0014 462B     		cmp	r3, #70
 1545 0016 09D0     		beq	.L99
 731:SirenTest.c   ****     {
 732:SirenTest.c   ****         STestStatus[CurrentTest.TestStep] = 'P';
 1546              		.loc 1 732 0
 1547 0018 074B     		ldr	r3, .L100+4
 1548 001a 5B78     		ldrb	r3, [r3, #1]	@ zero_extendqisi2
 1549 001c 1A46     		mov	r2, r3
 1550 001e 074B     		ldr	r3, .L100+8
 1551 0020 5021     		movs	r1, #80
 1552 0022 9954     		strb	r1, [r3, r2]
 733:SirenTest.c   ****         CurrentTest.Status = 'P';
 1553              		.loc 1 733 0
 1554 0024 044B     		ldr	r3, .L100+4
 1555 0026 5022     		movs	r2, #80
 1556 0028 9A70     		strb	r2, [r3, #2]
 734:SirenTest.c   ****     }
 735:SirenTest.c   ****     
 736:SirenTest.c   ****     return;
 1557              		.loc 1 736 0
 1558 002a 00BF     		nop
 1559              	.L99:
 1560 002c 00BF     		nop
 737:SirenTest.c   ****     
 738:SirenTest.c   **** }
 1561              		.loc 1 738 0
 1562 002e BD46     		mov	sp, r7
 1563              		.cfi_def_cfa_register 13
 1564              		@ sp needed
 1565 0030 80BC     		pop	{r7}
 1566              		.cfi_restore 7
 1567              		.cfi_def_cfa_offset 0
 1568 0032 7047     		bx	lr
 1569              	.L101:
 1570              		.align	2
 1571              	.L100:
ARM GAS  C:\Users\MARTHN~1\AppData\Local\Temp\ccDJiEkb.s 			page 42


 1572 0034 02000000 		.word	STest_20ms_isr_EN
 1573 0038 00000000 		.word	CurrentTest
 1574 003c 08000000 		.word	STestStatus
 1575              		.cfi_endproc
 1576              	.LFE74:
 1577              		.size	StopAutomatedStep, .-StopAutomatedStep
 1578              		.bss
 1579              	PB_reading.7425:
 1580 0088 00       		.space	1
 1581              	PB_reading_previous.7426:
 1582 0089 00       		.space	1
 1583              	PB_NextAction_debouncecount.7421:
 1584 008a 00       		.space	1
 1585              	debouncetrue.7424:
 1586 008b 00       		.space	1
 1587              	PB_NextAction_failcount.7422:
 1588 008c 00       		.space	1
 1589              	PB_NextAction_prevstate.7423:
 1590 008d 00       		.space	1
 1591 008e 0000     		.align	2
 1592              	STestStatus_display.7439:
 1593 0090 00000000 		.space	22
 1593      00000000 
 1593      00000000 
 1593      00000000 
 1593      00000000 
 1594              		.text
 1595              	.Letext0:
 1596              		.file 2 "c:\\program files (x86)\\cypress\\psoc creator\\4.3\\psoc creator\\import\\gnu\\arm\\5.4.
 1597              		.file 3 "c:\\program files (x86)\\cypress\\psoc creator\\4.3\\psoc creator\\import\\gnu\\arm\\5.4.
 1598              		.file 4 "Generated_Source\\PSoC5/cytypes.h"
 1599              		.file 5 "CommonVariables.h"
 1600              		.file 6 "UART_230400_Functions.h"
 1601              		.file 7 "Generated_Source\\PSoC5/core_cm3.h"
 1602              		.section	.debug_info,"",%progbits
 1603              	.Ldebug_info0:
 1604 0000 700A0000 		.4byte	0xa70
 1605 0004 0400     		.2byte	0x4
 1606 0006 00000000 		.4byte	.Ldebug_abbrev0
 1607 000a 04       		.byte	0x4
 1608 000b 01       		.uleb128 0x1
 1609 000c 99000000 		.4byte	.LASF171
 1610 0010 0C       		.byte	0xc
 1611 0011 4A000000 		.4byte	.LASF172
 1612 0015 0D090000 		.4byte	.LASF173
 1613 0019 00000000 		.4byte	.Ldebug_ranges0+0
 1614 001d 00000000 		.4byte	0
 1615 0021 00000000 		.4byte	.Ldebug_line0
 1616 0025 02       		.uleb128 0x2
 1617 0026 01       		.byte	0x1
 1618 0027 06       		.byte	0x6
 1619 0028 B8010000 		.4byte	.LASF0
 1620 002c 02       		.uleb128 0x2
 1621 002d 01       		.byte	0x1
 1622 002e 08       		.byte	0x8
 1623 002f 20060000 		.4byte	.LASF1
 1624 0033 02       		.uleb128 0x2
ARM GAS  C:\Users\MARTHN~1\AppData\Local\Temp\ccDJiEkb.s 			page 43


 1625 0034 02       		.byte	0x2
 1626 0035 05       		.byte	0x5
 1627 0036 B5040000 		.4byte	.LASF2
 1628 003a 02       		.uleb128 0x2
 1629 003b 02       		.byte	0x2
 1630 003c 07       		.byte	0x7
 1631 003d AA070000 		.4byte	.LASF3
 1632 0041 03       		.uleb128 0x3
 1633 0042 74070000 		.4byte	.LASF9
 1634 0046 02       		.byte	0x2
 1635 0047 3F       		.byte	0x3f
 1636 0048 4C000000 		.4byte	0x4c
 1637 004c 02       		.uleb128 0x2
 1638 004d 04       		.byte	0x4
 1639 004e 05       		.byte	0x5
 1640 004f 34020000 		.4byte	.LASF4
 1641 0053 02       		.uleb128 0x2
 1642 0054 04       		.byte	0x4
 1643 0055 07       		.byte	0x7
 1644 0056 A8030000 		.4byte	.LASF5
 1645 005a 02       		.uleb128 0x2
 1646 005b 08       		.byte	0x8
 1647 005c 05       		.byte	0x5
 1648 005d AA010000 		.4byte	.LASF6
 1649 0061 02       		.uleb128 0x2
 1650 0062 08       		.byte	0x8
 1651 0063 07       		.byte	0x7
 1652 0064 FC010000 		.4byte	.LASF7
 1653 0068 04       		.uleb128 0x4
 1654 0069 04       		.byte	0x4
 1655 006a 05       		.byte	0x5
 1656 006b 696E7400 		.ascii	"int\000"
 1657 006f 02       		.uleb128 0x2
 1658 0070 04       		.byte	0x4
 1659 0071 07       		.byte	0x7
 1660 0072 45030000 		.4byte	.LASF8
 1661 0076 03       		.uleb128 0x3
 1662 0077 18060000 		.4byte	.LASF10
 1663 007b 03       		.byte	0x3
 1664 007c 2C       		.byte	0x2c
 1665 007d 41000000 		.4byte	0x41
 1666 0081 05       		.uleb128 0x5
 1667 0082 5A020000 		.4byte	.LASF11
 1668 0086 04       		.byte	0x4
 1669 0087 E401     		.2byte	0x1e4
 1670 0089 2C000000 		.4byte	0x2c
 1671 008d 05       		.uleb128 0x5
 1672 008e 14000000 		.4byte	.LASF12
 1673 0092 04       		.byte	0x4
 1674 0093 E501     		.2byte	0x1e5
 1675 0095 3A000000 		.4byte	0x3a
 1676 0099 02       		.uleb128 0x2
 1677 009a 04       		.byte	0x4
 1678 009b 04       		.byte	0x4
 1679 009c D7050000 		.4byte	.LASF13
 1680 00a0 02       		.uleb128 0x2
 1681 00a1 08       		.byte	0x8
ARM GAS  C:\Users\MARTHN~1\AppData\Local\Temp\ccDJiEkb.s 			page 44


 1682 00a2 04       		.byte	0x4
 1683 00a3 8F020000 		.4byte	.LASF14
 1684 00a7 02       		.uleb128 0x2
 1685 00a8 01       		.byte	0x1
 1686 00a9 08       		.byte	0x8
 1687 00aa 24070000 		.4byte	.LASF15
 1688 00ae 02       		.uleb128 0x2
 1689 00af 08       		.byte	0x8
 1690 00b0 04       		.byte	0x4
 1691 00b1 18070000 		.4byte	.LASF16
 1692 00b5 02       		.uleb128 0x2
 1693 00b6 04       		.byte	0x4
 1694 00b7 07       		.byte	0x7
 1695 00b8 24050000 		.4byte	.LASF17
 1696 00bc 06       		.uleb128 0x6
 1697 00bd A7080000 		.4byte	.LASF22
 1698 00c1 03       		.byte	0x3
 1699 00c2 05       		.byte	0x5
 1700 00c3 10       		.byte	0x10
 1701 00c4 ED000000 		.4byte	0xed
 1702 00c8 07       		.uleb128 0x7
 1703 00c9 BC060000 		.4byte	.LASF18
 1704 00cd 05       		.byte	0x5
 1705 00ce 12       		.byte	0x12
 1706 00cf 81000000 		.4byte	0x81
 1707 00d3 00       		.byte	0
 1708 00d4 07       		.uleb128 0x7
 1709 00d5 91060000 		.4byte	.LASF19
 1710 00d9 05       		.byte	0x5
 1711 00da 13       		.byte	0x13
 1712 00db 81000000 		.4byte	0x81
 1713 00df 01       		.byte	0x1
 1714 00e0 07       		.uleb128 0x7
 1715 00e1 F3080000 		.4byte	.LASF20
 1716 00e5 05       		.byte	0x5
 1717 00e6 14       		.byte	0x14
 1718 00e7 81000000 		.4byte	0x81
 1719 00eb 02       		.byte	0x2
 1720 00ec 00       		.byte	0
 1721 00ed 03       		.uleb128 0x3
 1722 00ee DD050000 		.4byte	.LASF21
 1723 00f2 05       		.byte	0x5
 1724 00f3 18       		.byte	0x18
 1725 00f4 BC000000 		.4byte	0xbc
 1726 00f8 08       		.uleb128 0x8
 1727 00f9 81000000 		.4byte	0x81
 1728 00fd 08010000 		.4byte	0x108
 1729 0101 09       		.uleb128 0x9
 1730 0102 B5000000 		.4byte	0xb5
 1731 0106 4E       		.byte	0x4e
 1732 0107 00       		.byte	0
 1733 0108 08       		.uleb128 0x8
 1734 0109 81000000 		.4byte	0x81
 1735 010d 18010000 		.4byte	0x118
 1736 0111 09       		.uleb128 0x9
 1737 0112 B5000000 		.4byte	0xb5
 1738 0116 0E       		.byte	0xe
ARM GAS  C:\Users\MARTHN~1\AppData\Local\Temp\ccDJiEkb.s 			page 45


 1739 0117 00       		.byte	0
 1740 0118 06       		.uleb128 0x6
 1741 0119 36080000 		.4byte	.LASF23
 1742 011d 0F       		.byte	0xf
 1743 011e 06       		.byte	0x6
 1744 011f BB       		.byte	0xbb
 1745 0120 D9010000 		.4byte	0x1d9
 1746 0124 07       		.uleb128 0x7
 1747 0125 29070000 		.4byte	.LASF24
 1748 0129 06       		.byte	0x6
 1749 012a BD       		.byte	0xbd
 1750 012b 81000000 		.4byte	0x81
 1751 012f 00       		.byte	0
 1752 0130 07       		.uleb128 0x7
 1753 0131 38070000 		.4byte	.LASF25
 1754 0135 06       		.byte	0x6
 1755 0136 BE       		.byte	0xbe
 1756 0137 81000000 		.4byte	0x81
 1757 013b 01       		.byte	0x1
 1758 013c 07       		.uleb128 0x7
 1759 013d 47070000 		.4byte	.LASF26
 1760 0141 06       		.byte	0x6
 1761 0142 BF       		.byte	0xbf
 1762 0143 81000000 		.4byte	0x81
 1763 0147 02       		.byte	0x2
 1764 0148 07       		.uleb128 0x7
 1765 0149 56070000 		.4byte	.LASF27
 1766 014d 06       		.byte	0x6
 1767 014e C0       		.byte	0xc0
 1768 014f 81000000 		.4byte	0x81
 1769 0153 03       		.byte	0x3
 1770 0154 07       		.uleb128 0x7
 1771 0155 E6080000 		.4byte	.LASF28
 1772 0159 06       		.byte	0x6
 1773 015a C1       		.byte	0xc1
 1774 015b 81000000 		.4byte	0x81
 1775 015f 04       		.byte	0x4
 1776 0160 07       		.uleb128 0x7
 1777 0161 68030000 		.4byte	.LASF29
 1778 0165 06       		.byte	0x6
 1779 0166 C2       		.byte	0xc2
 1780 0167 81000000 		.4byte	0x81
 1781 016b 05       		.byte	0x5
 1782 016c 07       		.uleb128 0x7
 1783 016d C2050000 		.4byte	.LASF30
 1784 0171 06       		.byte	0x6
 1785 0172 C3       		.byte	0xc3
 1786 0173 81000000 		.4byte	0x81
 1787 0177 06       		.byte	0x6
 1788 0178 07       		.uleb128 0x7
 1789 0179 8E030000 		.4byte	.LASF31
 1790 017d 06       		.byte	0x6
 1791 017e C4       		.byte	0xc4
 1792 017f 81000000 		.4byte	0x81
 1793 0183 07       		.byte	0x7
 1794 0184 07       		.uleb128 0x7
 1795 0185 BA030000 		.4byte	.LASF32
ARM GAS  C:\Users\MARTHN~1\AppData\Local\Temp\ccDJiEkb.s 			page 46


 1796 0189 06       		.byte	0x6
 1797 018a C5       		.byte	0xc5
 1798 018b 81000000 		.4byte	0x81
 1799 018f 08       		.byte	0x8
 1800 0190 07       		.uleb128 0x7
 1801 0191 F8020000 		.4byte	.LASF33
 1802 0195 06       		.byte	0x6
 1803 0196 C6       		.byte	0xc6
 1804 0197 81000000 		.4byte	0x81
 1805 019b 09       		.byte	0x9
 1806 019c 07       		.uleb128 0x7
 1807 019d D6030000 		.4byte	.LASF34
 1808 01a1 06       		.byte	0x6
 1809 01a2 C7       		.byte	0xc7
 1810 01a3 81000000 		.4byte	0x81
 1811 01a7 0A       		.byte	0xa
 1812 01a8 07       		.uleb128 0x7
 1813 01a9 18080000 		.4byte	.LASF35
 1814 01ad 06       		.byte	0x6
 1815 01ae C8       		.byte	0xc8
 1816 01af 81000000 		.4byte	0x81
 1817 01b3 0B       		.byte	0xb
 1818 01b4 07       		.uleb128 0x7
 1819 01b5 9B080000 		.4byte	.LASF36
 1820 01b9 06       		.byte	0x6
 1821 01ba C9       		.byte	0xc9
 1822 01bb 81000000 		.4byte	0x81
 1823 01bf 0C       		.byte	0xc
 1824 01c0 07       		.uleb128 0x7
 1825 01c1 2A080000 		.4byte	.LASF37
 1826 01c5 06       		.byte	0x6
 1827 01c6 CA       		.byte	0xca
 1828 01c7 81000000 		.4byte	0x81
 1829 01cb 0D       		.byte	0xd
 1830 01cc 07       		.uleb128 0x7
 1831 01cd 07050000 		.4byte	.LASF38
 1832 01d1 06       		.byte	0x6
 1833 01d2 CB       		.byte	0xcb
 1834 01d3 81000000 		.4byte	0x81
 1835 01d7 0E       		.byte	0xe
 1836 01d8 00       		.byte	0
 1837 01d9 0A       		.uleb128 0xa
 1838 01da 10050000 		.4byte	.LASF121
 1839 01de 0F       		.byte	0xf
 1840 01df 06       		.byte	0x6
 1841 01e0 B7       		.byte	0xb7
 1842 01e1 FC010000 		.4byte	0x1fc
 1843 01e5 0B       		.uleb128 0xb
 1844 01e6 E0020000 		.4byte	.LASF39
 1845 01ea 06       		.byte	0x6
 1846 01eb B9       		.byte	0xb9
 1847 01ec 08010000 		.4byte	0x108
 1848 01f0 0B       		.uleb128 0xb
 1849 01f1 C8040000 		.4byte	.LASF40
 1850 01f5 06       		.byte	0x6
 1851 01f6 CC       		.byte	0xcc
 1852 01f7 18010000 		.4byte	0x118
ARM GAS  C:\Users\MARTHN~1\AppData\Local\Temp\ccDJiEkb.s 			page 47


 1853 01fb 00       		.byte	0
 1854 01fc 03       		.uleb128 0x3
 1855 01fd 46020000 		.4byte	.LASF41
 1856 0201 06       		.byte	0x6
 1857 0202 CD       		.byte	0xcd
 1858 0203 D9010000 		.4byte	0x1d9
 1859 0207 0C       		.uleb128 0xc
 1860 0208 51090000 		.4byte	.LASF42
 1861 020c 4F       		.byte	0x4f
 1862 020d 06       		.byte	0x6
 1863 020e 2D01     		.2byte	0x12d
 1864 0210 18060000 		.4byte	0x618
 1865 0214 0D       		.uleb128 0xd
 1866 0215 EB030000 		.4byte	.LASF43
 1867 0219 06       		.byte	0x6
 1868 021a 2F01     		.2byte	0x12f
 1869 021c 81000000 		.4byte	0x81
 1870 0220 00       		.byte	0
 1871 0221 0D       		.uleb128 0xd
 1872 0222 4A050000 		.4byte	.LASF44
 1873 0226 06       		.byte	0x6
 1874 0227 3001     		.2byte	0x130
 1875 0229 81000000 		.4byte	0x81
 1876 022d 01       		.byte	0x1
 1877 022e 0D       		.uleb128 0xd
 1878 022f 52030000 		.4byte	.LASF45
 1879 0233 06       		.byte	0x6
 1880 0234 3101     		.2byte	0x131
 1881 0236 81000000 		.4byte	0x81
 1882 023a 02       		.byte	0x2
 1883 023b 0D       		.uleb128 0xd
 1884 023c 76050000 		.4byte	.LASF46
 1885 0240 06       		.byte	0x6
 1886 0241 3201     		.2byte	0x132
 1887 0243 81000000 		.4byte	0x81
 1888 0247 03       		.byte	0x3
 1889 0248 0D       		.uleb128 0xd
 1890 0249 53050000 		.4byte	.LASF47
 1891 024d 06       		.byte	0x6
 1892 024e 3301     		.2byte	0x133
 1893 0250 81000000 		.4byte	0x81
 1894 0254 04       		.byte	0x4
 1895 0255 0D       		.uleb128 0xd
 1896 0256 41050000 		.4byte	.LASF48
 1897 025a 06       		.byte	0x6
 1898 025b 3401     		.2byte	0x134
 1899 025d 81000000 		.4byte	0x81
 1900 0261 05       		.byte	0x5
 1901 0262 0D       		.uleb128 0xd
 1902 0263 DE060000 		.4byte	.LASF49
 1903 0267 06       		.byte	0x6
 1904 0268 3501     		.2byte	0x135
 1905 026a 81000000 		.4byte	0x81
 1906 026e 06       		.byte	0x6
 1907 026f 0D       		.uleb128 0xd
 1908 0270 B3060000 		.4byte	.LASF50
 1909 0274 06       		.byte	0x6
ARM GAS  C:\Users\MARTHN~1\AppData\Local\Temp\ccDJiEkb.s 			page 48


 1910 0275 3601     		.2byte	0x136
 1911 0277 81000000 		.4byte	0x81
 1912 027b 07       		.byte	0x7
 1913 027c 0D       		.uleb128 0xd
 1914 027d 9A060000 		.4byte	.LASF51
 1915 0281 06       		.byte	0x6
 1916 0282 3701     		.2byte	0x137
 1917 0284 81000000 		.4byte	0x81
 1918 0288 08       		.byte	0x8
 1919 0289 0D       		.uleb128 0xd
 1920 028a BF080000 		.4byte	.LASF52
 1921 028e 06       		.byte	0x6
 1922 028f 3801     		.2byte	0x138
 1923 0291 81000000 		.4byte	0x81
 1924 0295 09       		.byte	0x9
 1925 0296 0D       		.uleb128 0xd
 1926 0297 7C080000 		.4byte	.LASF53
 1927 029b 06       		.byte	0x6
 1928 029c 3901     		.2byte	0x139
 1929 029e 81000000 		.4byte	0x81
 1930 02a2 0A       		.byte	0xa
 1931 02a3 0D       		.uleb128 0xd
 1932 02a4 E2040000 		.4byte	.LASF54
 1933 02a8 06       		.byte	0x6
 1934 02a9 3A01     		.2byte	0x13a
 1935 02ab 81000000 		.4byte	0x81
 1936 02af 0B       		.byte	0xb
 1937 02b0 0D       		.uleb128 0xd
 1938 02b1 4B010000 		.4byte	.LASF55
 1939 02b5 06       		.byte	0x6
 1940 02b6 3B01     		.2byte	0x13b
 1941 02b8 81000000 		.4byte	0x81
 1942 02bc 0C       		.byte	0xc
 1943 02bd 0D       		.uleb128 0xd
 1944 02be 90000000 		.4byte	.LASF56
 1945 02c2 06       		.byte	0x6
 1946 02c3 3C01     		.2byte	0x13c
 1947 02c5 81000000 		.4byte	0x81
 1948 02c9 0D       		.byte	0xd
 1949 02ca 0D       		.uleb128 0xd
 1950 02cb 8D050000 		.4byte	.LASF57
 1951 02cf 06       		.byte	0x6
 1952 02d0 3D01     		.2byte	0x13d
 1953 02d2 81000000 		.4byte	0x81
 1954 02d6 0E       		.byte	0xe
 1955 02d7 0D       		.uleb128 0xd
 1956 02d8 E6020000 		.4byte	.LASF58
 1957 02dc 06       		.byte	0x6
 1958 02dd 3E01     		.2byte	0x13e
 1959 02df 81000000 		.4byte	0x81
 1960 02e3 0F       		.byte	0xf
 1961 02e4 0D       		.uleb128 0xd
 1962 02e5 D9010000 		.4byte	.LASF59
 1963 02e9 06       		.byte	0x6
 1964 02ea 3F01     		.2byte	0x13f
 1965 02ec 81000000 		.4byte	0x81
 1966 02f0 10       		.byte	0x10
ARM GAS  C:\Users\MARTHN~1\AppData\Local\Temp\ccDJiEkb.s 			page 49


 1967 02f1 0D       		.uleb128 0xd
 1968 02f2 A1010000 		.4byte	.LASF60
 1969 02f6 06       		.byte	0x6
 1970 02f7 4001     		.2byte	0x140
 1971 02f9 81000000 		.4byte	0x81
 1972 02fd 11       		.byte	0x11
 1973 02fe 0D       		.uleb128 0xd
 1974 02ff BF040000 		.4byte	.LASF61
 1975 0303 06       		.byte	0x6
 1976 0304 4101     		.2byte	0x141
 1977 0306 81000000 		.4byte	0x81
 1978 030a 12       		.byte	0x12
 1979 030b 0D       		.uleb128 0xd
 1980 030c 87040000 		.4byte	.LASF62
 1981 0310 06       		.byte	0x6
 1982 0311 4201     		.2byte	0x142
 1983 0313 81000000 		.4byte	0x81
 1984 0317 13       		.byte	0x13
 1985 0318 0D       		.uleb128 0xd
 1986 0319 65040000 		.4byte	.LASF63
 1987 031d 06       		.byte	0x6
 1988 031e 4301     		.2byte	0x143
 1989 0320 81000000 		.4byte	0x81
 1990 0324 14       		.byte	0x14
 1991 0325 0D       		.uleb128 0xd
 1992 0326 DD080000 		.4byte	.LASF64
 1993 032a 06       		.byte	0x6
 1994 032b 4401     		.2byte	0x144
 1995 032d 81000000 		.4byte	0x81
 1996 0331 15       		.byte	0x15
 1997 0332 0D       		.uleb128 0xd
 1998 0333 C8080000 		.4byte	.LASF65
 1999 0337 06       		.byte	0x6
 2000 0338 4501     		.2byte	0x145
 2001 033a 81000000 		.4byte	0x81
 2002 033e 16       		.byte	0x16
 2003 033f 0D       		.uleb128 0xd
 2004 0340 B6080000 		.4byte	.LASF66
 2005 0344 06       		.byte	0x6
 2006 0345 4601     		.2byte	0x146
 2007 0347 81000000 		.4byte	0x81
 2008 034b 17       		.byte	0x17
 2009 034c 0D       		.uleb128 0xd
 2010 034d 79010000 		.4byte	.LASF67
 2011 0351 06       		.byte	0x6
 2012 0352 4701     		.2byte	0x147
 2013 0354 81000000 		.4byte	0x81
 2014 0358 18       		.byte	0x18
 2015 0359 0D       		.uleb128 0xd
 2016 035a 54010000 		.4byte	.LASF68
 2017 035e 06       		.byte	0x6
 2018 035f 4801     		.2byte	0x148
 2019 0361 81000000 		.4byte	0x81
 2020 0365 19       		.byte	0x19
 2021 0366 0D       		.uleb128 0xd
 2022 0367 36010000 		.4byte	.LASF69
 2023 036b 06       		.byte	0x6
ARM GAS  C:\Users\MARTHN~1\AppData\Local\Temp\ccDJiEkb.s 			page 50


 2024 036c 4901     		.2byte	0x149
 2025 036e 81000000 		.4byte	0x81
 2026 0372 1A       		.byte	0x1a
 2027 0373 0D       		.uleb128 0xd
 2028 0374 11030000 		.4byte	.LASF70
 2029 0378 06       		.byte	0x6
 2030 0379 4A01     		.2byte	0x14a
 2031 037b 81000000 		.4byte	0x81
 2032 037f 1B       		.byte	0x1b
 2033 0380 0D       		.uleb128 0xd
 2034 0381 EF020000 		.4byte	.LASF71
 2035 0385 06       		.byte	0x6
 2036 0386 4B01     		.2byte	0x14b
 2037 0388 81000000 		.4byte	0x81
 2038 038c 1C       		.byte	0x1c
 2039 038d 0D       		.uleb128 0xd
 2040 038e D7020000 		.4byte	.LASF72
 2041 0392 06       		.byte	0x6
 2042 0393 4C01     		.2byte	0x14c
 2043 0395 81000000 		.4byte	0x81
 2044 0399 1D       		.byte	0x1d
 2045 039a 0D       		.uleb128 0xd
 2046 039b D9040000 		.4byte	.LASF73
 2047 039f 06       		.byte	0x6
 2048 03a0 4D01     		.2byte	0x14d
 2049 03a2 81000000 		.4byte	0x81
 2050 03a6 1E       		.byte	0x1e
 2051 03a7 0D       		.uleb128 0xd
 2052 03a8 D0040000 		.4byte	.LASF74
 2053 03ac 06       		.byte	0x6
 2054 03ad 4E01     		.2byte	0x14e
 2055 03af 81000000 		.4byte	0x81
 2056 03b3 1F       		.byte	0x1f
 2057 03b4 0D       		.uleb128 0xd
 2058 03b5 46040000 		.4byte	.LASF75
 2059 03b9 06       		.byte	0x6
 2060 03ba 4F01     		.2byte	0x14f
 2061 03bc 81000000 		.4byte	0x81
 2062 03c0 20       		.byte	0x20
 2063 03c1 0D       		.uleb128 0xd
 2064 03c2 47060000 		.4byte	.LASF76
 2065 03c6 06       		.byte	0x6
 2066 03c7 5001     		.2byte	0x150
 2067 03c9 81000000 		.4byte	0x81
 2068 03cd 21       		.byte	0x21
 2069 03ce 0D       		.uleb128 0xd
 2070 03cf 0F060000 		.4byte	.LASF77
 2071 03d3 06       		.byte	0x6
 2072 03d4 5101     		.2byte	0x151
 2073 03d6 81000000 		.4byte	0x81
 2074 03da 22       		.byte	0x22
 2075 03db 0D       		.uleb128 0xd
 2076 03dc 06060000 		.4byte	.LASF78
 2077 03e0 06       		.byte	0x6
 2078 03e1 5201     		.2byte	0x152
 2079 03e3 81000000 		.4byte	0x81
 2080 03e7 23       		.byte	0x23
ARM GAS  C:\Users\MARTHN~1\AppData\Local\Temp\ccDJiEkb.s 			page 51


 2081 03e8 0D       		.uleb128 0xd
 2082 03e9 C2070000 		.4byte	.LASF79
 2083 03ed 06       		.byte	0x6
 2084 03ee 5301     		.2byte	0x153
 2085 03f0 81000000 		.4byte	0x81
 2086 03f4 24       		.byte	0x24
 2087 03f5 0D       		.uleb128 0xd
 2088 03f6 98070000 		.4byte	.LASF80
 2089 03fa 06       		.byte	0x6
 2090 03fb 5401     		.2byte	0x154
 2091 03fd 81000000 		.4byte	0x81
 2092 0401 25       		.byte	0x25
 2093 0402 0D       		.uleb128 0xd
 2094 0403 7E070000 		.4byte	.LASF81
 2095 0407 06       		.byte	0x6
 2096 0408 5501     		.2byte	0x155
 2097 040a 81000000 		.4byte	0x81
 2098 040e 26       		.byte	0x26
 2099 040f 0D       		.uleb128 0xd
 2100 0410 25000000 		.4byte	.LASF82
 2101 0414 06       		.byte	0x6
 2102 0415 5601     		.2byte	0x156
 2103 0417 81000000 		.4byte	0x81
 2104 041b 27       		.byte	0x27
 2105 041c 0D       		.uleb128 0xd
 2106 041d 7E090000 		.4byte	.LASF83
 2107 0421 06       		.byte	0x6
 2108 0422 5701     		.2byte	0x157
 2109 0424 81000000 		.4byte	0x81
 2110 0428 28       		.byte	0x28
 2111 0429 0D       		.uleb128 0xd
 2112 042a 70090000 		.4byte	.LASF84
 2113 042e 06       		.byte	0x6
 2114 042f 5801     		.2byte	0x158
 2115 0431 81000000 		.4byte	0x81
 2116 0435 29       		.byte	0x29
 2117 0436 0D       		.uleb128 0xd
 2118 0437 3D020000 		.4byte	.LASF85
 2119 043b 06       		.byte	0x6
 2120 043c 5901     		.2byte	0x159
 2121 043e 81000000 		.4byte	0x81
 2122 0442 2A       		.byte	0x2a
 2123 0443 0D       		.uleb128 0xd
 2124 0444 2B020000 		.4byte	.LASF86
 2125 0448 06       		.byte	0x6
 2126 0449 5A01     		.2byte	0x15a
 2127 044b 81000000 		.4byte	0x81
 2128 044f 2B       		.byte	0x2b
 2129 0450 0D       		.uleb128 0xd
 2130 0451 13020000 		.4byte	.LASF87
 2131 0455 06       		.byte	0x6
 2132 0456 5B01     		.2byte	0x15b
 2133 0458 81000000 		.4byte	0x81
 2134 045c 2C       		.byte	0x2c
 2135 045d 0D       		.uleb128 0xd
 2136 045e 31040000 		.4byte	.LASF88
 2137 0462 06       		.byte	0x6
ARM GAS  C:\Users\MARTHN~1\AppData\Local\Temp\ccDJiEkb.s 			page 52


 2138 0463 5C01     		.2byte	0x15c
 2139 0465 81000000 		.4byte	0x81
 2140 0469 2D       		.byte	0x2d
 2141 046a 0D       		.uleb128 0xd
 2142 046b E2030000 		.4byte	.LASF89
 2143 046f 06       		.byte	0x6
 2144 0470 5D01     		.2byte	0x15d
 2145 0472 81000000 		.4byte	0x81
 2146 0476 2E       		.byte	0x2e
 2147 0477 0D       		.uleb128 0xd
 2148 0478 2E000000 		.4byte	.LASF90
 2149 047c 06       		.byte	0x6
 2150 047d 5E01     		.2byte	0x15e
 2151 047f 81000000 		.4byte	0x81
 2152 0483 2F       		.byte	0x2f
 2153 0484 0D       		.uleb128 0xd
 2154 0485 A7020000 		.4byte	.LASF91
 2155 0489 06       		.byte	0x6
 2156 048a 5F01     		.2byte	0x15f
 2157 048c 81000000 		.4byte	0x81
 2158 0490 30       		.byte	0x30
 2159 0491 0D       		.uleb128 0xd
 2160 0492 A1070000 		.4byte	.LASF92
 2161 0496 06       		.byte	0x6
 2162 0497 6001     		.2byte	0x160
 2163 0499 81000000 		.4byte	0x81
 2164 049d 31       		.byte	0x31
 2165 049e 0D       		.uleb128 0xd
 2166 049f 53080000 		.4byte	.LASF93
 2167 04a3 06       		.byte	0x6
 2168 04a4 6101     		.2byte	0x161
 2169 04a6 81000000 		.4byte	0x81
 2170 04aa 32       		.byte	0x32
 2171 04ab 0D       		.uleb128 0xd
 2172 04ac B0020000 		.4byte	.LASF94
 2173 04b0 06       		.byte	0x6
 2174 04b1 6201     		.2byte	0x162
 2175 04b3 81000000 		.4byte	0x81
 2176 04b7 33       		.byte	0x33
 2177 04b8 0D       		.uleb128 0xd
 2178 04b9 FF030000 		.4byte	.LASF95
 2179 04bd 06       		.byte	0x6
 2180 04be 6301     		.2byte	0x163
 2181 04c0 81000000 		.4byte	0x81
 2182 04c4 34       		.byte	0x34
 2183 04c5 0D       		.uleb128 0xd
 2184 04c6 7F050000 		.4byte	.LASF96
 2185 04ca 06       		.byte	0x6
 2186 04cb 6401     		.2byte	0x164
 2187 04cd 81000000 		.4byte	0x81
 2188 04d1 35       		.byte	0x35
 2189 04d2 0D       		.uleb128 0xd
 2190 04d3 F7050000 		.4byte	.LASF97
 2191 04d7 06       		.byte	0x6
 2192 04d8 6501     		.2byte	0x165
 2193 04da 81000000 		.4byte	0x81
 2194 04de 36       		.byte	0x36
ARM GAS  C:\Users\MARTHN~1\AppData\Local\Temp\ccDJiEkb.s 			page 53


 2195 04df 0D       		.uleb128 0xd
 2196 04e0 DB070000 		.4byte	.LASF98
 2197 04e4 06       		.byte	0x6
 2198 04e5 6601     		.2byte	0x166
 2199 04e7 81000000 		.4byte	0x81
 2200 04eb 37       		.byte	0x37
 2201 04ec 0D       		.uleb128 0xd
 2202 04ed EB070000 		.4byte	.LASF99
 2203 04f1 06       		.byte	0x6
 2204 04f2 6701     		.2byte	0x167
 2205 04f4 81000000 		.4byte	0x81
 2206 04f8 38       		.byte	0x38
 2207 04f9 0D       		.uleb128 0xd
 2208 04fa FB070000 		.4byte	.LASF100
 2209 04fe 06       		.byte	0x6
 2210 04ff 6801     		.2byte	0x168
 2211 0501 81000000 		.4byte	0x81
 2212 0505 39       		.byte	0x39
 2213 0506 0D       		.uleb128 0xd
 2214 0507 9A030000 		.4byte	.LASF101
 2215 050b 06       		.byte	0x6
 2216 050c 6901     		.2byte	0x169
 2217 050e 81000000 		.4byte	0x81
 2218 0512 3A       		.byte	0x3a
 2219 0513 0D       		.uleb128 0xd
 2220 0514 76000000 		.4byte	.LASF102
 2221 0518 06       		.byte	0x6
 2222 0519 6A01     		.2byte	0x16a
 2223 051b 81000000 		.4byte	0x81
 2224 051f 3B       		.byte	0x3b
 2225 0520 0D       		.uleb128 0xd
 2226 0521 76040000 		.4byte	.LASF103
 2227 0525 06       		.byte	0x6
 2228 0526 6B01     		.2byte	0x16b
 2229 0528 81000000 		.4byte	0x81
 2230 052c 3C       		.byte	0x3c
 2231 052d 0D       		.uleb128 0xd
 2232 052e 7D030000 		.4byte	.LASF104
 2233 0532 06       		.byte	0x6
 2234 0533 6C01     		.2byte	0x16c
 2235 0535 81000000 		.4byte	0x81
 2236 0539 3D       		.byte	0x3d
 2237 053a 0D       		.uleb128 0xd
 2238 053b F3060000 		.4byte	.LASF105
 2239 053f 06       		.byte	0x6
 2240 0540 6D01     		.2byte	0x16d
 2241 0542 81000000 		.4byte	0x81
 2242 0546 3E       		.byte	0x3e
 2243 0547 0D       		.uleb128 0xd
 2244 0548 F4030000 		.4byte	.LASF106
 2245 054c 06       		.byte	0x6
 2246 054d 6E01     		.2byte	0x16e
 2247 054f 81000000 		.4byte	0x81
 2248 0553 3F       		.byte	0x3f
 2249 0554 0D       		.uleb128 0xd
 2250 0555 F2010000 		.4byte	.LASF107
 2251 0559 06       		.byte	0x6
ARM GAS  C:\Users\MARTHN~1\AppData\Local\Temp\ccDJiEkb.s 			page 54


 2252 055a 6F01     		.2byte	0x16f
 2253 055c 81000000 		.4byte	0x81
 2254 0560 40       		.byte	0x40
 2255 0561 0D       		.uleb128 0xd
 2256 0562 CB070000 		.4byte	.LASF108
 2257 0566 06       		.byte	0x6
 2258 0567 7001     		.2byte	0x170
 2259 0569 81000000 		.4byte	0x81
 2260 056d 41       		.byte	0x41
 2261 056e 0D       		.uleb128 0xd
 2262 056f C6030000 		.4byte	.LASF109
 2263 0573 06       		.byte	0x6
 2264 0574 7101     		.2byte	0x171
 2265 0576 81000000 		.4byte	0x81
 2266 057a 42       		.byte	0x42
 2267 057b 0D       		.uleb128 0xd
 2268 057c 87070000 		.4byte	.LASF110
 2269 0580 06       		.byte	0x6
 2270 0581 7201     		.2byte	0x172
 2271 0583 81000000 		.4byte	0x81
 2272 0587 43       		.byte	0x43
 2273 0588 0D       		.uleb128 0xd
 2274 0589 A4040000 		.4byte	.LASF111
 2275 058d 06       		.byte	0x6
 2276 058e 7301     		.2byte	0x173
 2277 0590 81000000 		.4byte	0x81
 2278 0594 44       		.byte	0x44
 2279 0595 0D       		.uleb128 0xd
 2280 0596 5B030000 		.4byte	.LASF112
 2281 059a 06       		.byte	0x6
 2282 059b 7401     		.2byte	0x174
 2283 059d 81000000 		.4byte	0x81
 2284 05a1 45       		.byte	0x45
 2285 05a2 0D       		.uleb128 0xd
 2286 05a3 0A070000 		.4byte	.LASF113
 2287 05a7 06       		.byte	0x6
 2288 05a8 7501     		.2byte	0x175
 2289 05aa 81000000 		.4byte	0x81
 2290 05ae 46       		.byte	0x46
 2291 05af 0D       		.uleb128 0xd
 2292 05b0 C8020000 		.4byte	.LASF114
 2293 05b4 06       		.byte	0x6
 2294 05b5 7601     		.2byte	0x176
 2295 05b7 81000000 		.4byte	0x81
 2296 05bb 47       		.byte	0x47
 2297 05bc 0D       		.uleb128 0xd
 2298 05bd 96050000 		.4byte	.LASF115
 2299 05c1 06       		.byte	0x6
 2300 05c2 7701     		.2byte	0x177
 2301 05c4 81000000 		.4byte	0x81
 2302 05c8 48       		.byte	0x48
 2303 05c9 0D       		.uleb128 0xd
 2304 05ca 5C050000 		.4byte	.LASF116
 2305 05ce 06       		.byte	0x6
 2306 05cf 7801     		.2byte	0x178
 2307 05d1 81000000 		.4byte	0x81
 2308 05d5 49       		.byte	0x49
ARM GAS  C:\Users\MARTHN~1\AppData\Local\Temp\ccDJiEkb.s 			page 55


 2309 05d6 0D       		.uleb128 0xd
 2310 05d7 26040000 		.4byte	.LASF117
 2311 05db 06       		.byte	0x6
 2312 05dc 7901     		.2byte	0x179
 2313 05de 81000000 		.4byte	0x81
 2314 05e2 4A       		.byte	0x4a
 2315 05e3 0E       		.uleb128 0xe
 2316 05e4 52524200 		.ascii	"RRB\000"
 2317 05e8 06       		.byte	0x6
 2318 05e9 7A01     		.2byte	0x17a
 2319 05eb 81000000 		.4byte	0x81
 2320 05ef 4B       		.byte	0x4b
 2321 05f0 0D       		.uleb128 0xd
 2322 05f1 FE060000 		.4byte	.LASF118
 2323 05f5 06       		.byte	0x6
 2324 05f6 7B01     		.2byte	0x17b
 2325 05f8 81000000 		.4byte	0x81
 2326 05fc 4C       		.byte	0x4c
 2327 05fd 0D       		.uleb128 0xd
 2328 05fe 7F020000 		.4byte	.LASF119
 2329 0602 06       		.byte	0x6
 2330 0603 7C01     		.2byte	0x17c
 2331 0605 81000000 		.4byte	0x81
 2332 0609 4D       		.byte	0x4d
 2333 060a 0D       		.uleb128 0xd
 2334 060b A3060000 		.4byte	.LASF120
 2335 060f 06       		.byte	0x6
 2336 0610 7D01     		.2byte	0x17d
 2337 0612 81000000 		.4byte	0x81
 2338 0616 4E       		.byte	0x4e
 2339 0617 00       		.byte	0
 2340 0618 0F       		.uleb128 0xf
 2341 0619 00000000 		.4byte	.LASF122
 2342 061d 4F       		.byte	0x4f
 2343 061e 06       		.byte	0x6
 2344 061f 2901     		.2byte	0x129
 2345 0621 3E060000 		.4byte	0x63e
 2346 0625 10       		.uleb128 0x10
 2347 0626 E0020000 		.4byte	.LASF39
 2348 062a 06       		.byte	0x6
 2349 062b 2B01     		.2byte	0x12b
 2350 062d F8000000 		.4byte	0xf8
 2351 0631 10       		.uleb128 0x10
 2352 0632 C8040000 		.4byte	.LASF40
 2353 0636 06       		.byte	0x6
 2354 0637 7E01     		.2byte	0x17e
 2355 0639 07020000 		.4byte	0x207
 2356 063d 00       		.byte	0
 2357 063e 05       		.uleb128 0x5
 2358 063f A5050000 		.4byte	.LASF123
 2359 0643 06       		.byte	0x6
 2360 0644 7F01     		.2byte	0x17f
 2361 0646 18060000 		.4byte	0x618
 2362 064a 0C       		.uleb128 0xc
 2363 064b 56000000 		.4byte	.LASF124
 2364 064f 05       		.byte	0x5
 2365 0650 06       		.byte	0x6
ARM GAS  C:\Users\MARTHN~1\AppData\Local\Temp\ccDJiEkb.s 			page 56


 2366 0651 9701     		.2byte	0x197
 2367 0653 99060000 		.4byte	0x699
 2368 0657 0D       		.uleb128 0xd
 2369 0658 BA030000 		.4byte	.LASF32
 2370 065c 06       		.byte	0x6
 2371 065d 9A01     		.2byte	0x19a
 2372 065f 81000000 		.4byte	0x81
 2373 0663 00       		.byte	0
 2374 0664 0D       		.uleb128 0xd
 2375 0665 F8020000 		.4byte	.LASF33
 2376 0669 06       		.byte	0x6
 2377 066a 9B01     		.2byte	0x19b
 2378 066c 81000000 		.4byte	0x81
 2379 0670 01       		.byte	0x1
 2380 0671 0D       		.uleb128 0xd
 2381 0672 D6030000 		.4byte	.LASF34
 2382 0676 06       		.byte	0x6
 2383 0677 9C01     		.2byte	0x19c
 2384 0679 81000000 		.4byte	0x81
 2385 067d 02       		.byte	0x2
 2386 067e 0D       		.uleb128 0xd
 2387 067f 68030000 		.4byte	.LASF29
 2388 0683 06       		.byte	0x6
 2389 0684 9D01     		.2byte	0x19d
 2390 0686 81000000 		.4byte	0x81
 2391 068a 03       		.byte	0x3
 2392 068b 0D       		.uleb128 0xd
 2393 068c C2050000 		.4byte	.LASF30
 2394 0690 06       		.byte	0x6
 2395 0691 9E01     		.2byte	0x19e
 2396 0693 81000000 		.4byte	0x81
 2397 0697 04       		.byte	0x4
 2398 0698 00       		.byte	0
 2399 0699 0F       		.uleb128 0xf
 2400 069a 70010000 		.4byte	.LASF125
 2401 069e 05       		.byte	0x5
 2402 069f 06       		.byte	0x6
 2403 06a0 9301     		.2byte	0x193
 2404 06a2 BF060000 		.4byte	0x6bf
 2405 06a6 10       		.uleb128 0x10
 2406 06a7 E0020000 		.4byte	.LASF39
 2407 06ab 06       		.byte	0x6
 2408 06ac 9501     		.2byte	0x195
 2409 06ae BF060000 		.4byte	0x6bf
 2410 06b2 10       		.uleb128 0x10
 2411 06b3 C8040000 		.4byte	.LASF40
 2412 06b7 06       		.byte	0x6
 2413 06b8 A001     		.2byte	0x1a0
 2414 06ba 4A060000 		.4byte	0x64a
 2415 06be 00       		.byte	0
 2416 06bf 08       		.uleb128 0x8
 2417 06c0 81000000 		.4byte	0x81
 2418 06c4 CF060000 		.4byte	0x6cf
 2419 06c8 09       		.uleb128 0x9
 2420 06c9 B5000000 		.4byte	0xb5
 2421 06cd 04       		.byte	0x4
 2422 06ce 00       		.byte	0
ARM GAS  C:\Users\MARTHN~1\AppData\Local\Temp\ccDJiEkb.s 			page 57


 2423 06cf 05       		.uleb128 0x5
 2424 06d0 B9050000 		.4byte	.LASF126
 2425 06d4 06       		.byte	0x6
 2426 06d5 A101     		.2byte	0x1a1
 2427 06d7 99060000 		.4byte	0x699
 2428 06db 11       		.uleb128 0x11
 2429 06dc 5D000000 		.4byte	.LASF131
 2430 06e0 01       		.byte	0x1
 2431 06e1 2C000000 		.4byte	0x2c
 2432 06e5 01       		.byte	0x1
 2433 06e6 16       		.byte	0x16
 2434 06e7 04070000 		.4byte	0x704
 2435 06eb 12       		.uleb128 0x12
 2436 06ec 3A040000 		.4byte	.LASF127
 2437 06f0 00       		.byte	0
 2438 06f1 12       		.uleb128 0x12
 2439 06f2 48080000 		.4byte	.LASF128
 2440 06f6 01       		.byte	0x1
 2441 06f7 12       		.uleb128 0x12
 2442 06f8 D1080000 		.4byte	.LASF129
 2443 06fc 02       		.byte	0x2
 2444 06fd 12       		.uleb128 0x12
 2445 06fe 84000000 		.4byte	.LASF130
 2446 0702 03       		.byte	0x3
 2447 0703 00       		.byte	0
 2448 0704 11       		.uleb128 0x11
 2449 0705 91060000 		.4byte	.LASF19
 2450 0709 01       		.byte	0x1
 2451 070a 2C000000 		.4byte	0x2c
 2452 070e 01       		.byte	0x1
 2453 070f 2A       		.byte	0x2a
 2454 0710 57070000 		.4byte	0x757
 2455 0714 12       		.uleb128 0x12
 2456 0715 E2010000 		.4byte	.LASF132
 2457 0719 00       		.byte	0
 2458 071a 12       		.uleb128 0x12
 2459 071b 6E040000 		.4byte	.LASF133
 2460 071f 01       		.byte	0x1
 2461 0720 12       		.uleb128 0x12
 2462 0721 89060000 		.4byte	.LASF134
 2463 0725 02       		.byte	0x2
 2464 0726 12       		.uleb128 0x12
 2465 0727 1B000000 		.4byte	.LASF135
 2466 072b 03       		.byte	0x3
 2467 072c 12       		.uleb128 0x12
 2468 072d 20000000 		.4byte	.LASF136
 2469 0731 04       		.byte	0x4
 2470 0732 13       		.uleb128 0x13
 2471 0733 52524200 		.ascii	"RRB\000"
 2472 0737 05       		.byte	0x5
 2473 0738 13       		.uleb128 0x13
 2474 0739 4D494300 		.ascii	"MIC\000"
 2475 073d 06       		.byte	0x6
 2476 073e 12       		.uleb128 0x12
 2477 073f 0B080000 		.4byte	.LASF137
 2478 0743 07       		.byte	0x7
 2479 0744 12       		.uleb128 0x12
ARM GAS  C:\Users\MARTHN~1\AppData\Local\Temp\ccDJiEkb.s 			page 58


 2480 0745 24080000 		.4byte	.LASF138
 2481 0749 08       		.byte	0x8
 2482 074a 12       		.uleb128 0x12
 2483 074b 1A030000 		.4byte	.LASF139
 2484 074f 09       		.byte	0x9
 2485 0750 12       		.uleb128 0x12
 2486 0751 79090000 		.4byte	.LASF140
 2487 0755 0A       		.byte	0xa
 2488 0756 00       		.byte	0
 2489 0757 14       		.uleb128 0x14
 2490 0758 60020000 		.4byte	.LASF174
 2491 075c 01       		.byte	0x1
 2492 075d 4B       		.byte	0x4b
 2493 075e 81000000 		.4byte	0x81
 2494 0762 00000000 		.4byte	.LFB63
 2495 0766 80040000 		.4byte	.LFE63-.LFB63
 2496 076a 01       		.uleb128 0x1
 2497 076b 9C       		.byte	0x9c
 2498 076c BC070000 		.4byte	0x7bc
 2499 0770 15       		.uleb128 0x15
 2500 0771 44000000 		.4byte	.LBB2
 2501 0775 1A000000 		.4byte	.LBE2-.LBB2
 2502 0779 8A070000 		.4byte	0x78a
 2503 077d 16       		.uleb128 0x16
 2504 077e 6900     		.ascii	"i\000"
 2505 0780 01       		.byte	0x1
 2506 0781 53       		.byte	0x53
 2507 0782 81000000 		.4byte	0x81
 2508 0786 02       		.uleb128 0x2
 2509 0787 91       		.byte	0x91
 2510 0788 77       		.sleb128 -9
 2511 0789 00       		.byte	0
 2512 078a 15       		.uleb128 0x15
 2513 078b 8C000000 		.4byte	.LBB3
 2514 078f 18000000 		.4byte	.LBE3-.LBB3
 2515 0793 A4070000 		.4byte	0x7a4
 2516 0797 16       		.uleb128 0x16
 2517 0798 6900     		.ascii	"i\000"
 2518 079a 01       		.byte	0x1
 2519 079b 66       		.byte	0x66
 2520 079c 81000000 		.4byte	0x81
 2521 07a0 02       		.uleb128 0x2
 2522 07a1 91       		.byte	0x91
 2523 07a2 76       		.sleb128 -10
 2524 07a3 00       		.byte	0
 2525 07a4 17       		.uleb128 0x17
 2526 07a5 0C040000 		.4byte	.LBB4
 2527 07a9 38000000 		.4byte	.LBE4-.LBB4
 2528 07ad 18       		.uleb128 0x18
 2529 07ae 6900     		.ascii	"i\000"
 2530 07b0 01       		.byte	0x1
 2531 07b1 AF01     		.2byte	0x1af
 2532 07b3 81000000 		.4byte	0x81
 2533 07b7 02       		.uleb128 0x2
 2534 07b8 91       		.byte	0x91
 2535 07b9 75       		.sleb128 -11
 2536 07ba 00       		.byte	0
ARM GAS  C:\Users\MARTHN~1\AppData\Local\Temp\ccDJiEkb.s 			page 59


 2537 07bb 00       		.byte	0
 2538 07bc 19       		.uleb128 0x19
 2539 07bd 67060000 		.4byte	.LASF175
 2540 07c1 01       		.byte	0x1
 2541 07c2 D101     		.2byte	0x1d1
 2542 07c4 81000000 		.4byte	0x81
 2543 07c8 00000000 		.4byte	.LFB64
 2544 07cc 0E000000 		.4byte	.LFE64-.LFB64
 2545 07d0 01       		.uleb128 0x1
 2546 07d1 9C       		.byte	0x9c
 2547 07d2 1A       		.uleb128 0x1a
 2548 07d3 23030000 		.4byte	.LASF150
 2549 07d7 01       		.byte	0x1
 2550 07d8 DB01     		.2byte	0x1db
 2551 07da 00000000 		.4byte	.LFB65
 2552 07de E8000000 		.4byte	.LFE65-.LFB65
 2553 07e2 01       		.uleb128 0x1
 2554 07e3 9C       		.byte	0x9c
 2555 07e4 55080000 		.4byte	0x855
 2556 07e8 1B       		.uleb128 0x1b
 2557 07e9 EB040000 		.4byte	.LASF141
 2558 07ed 01       		.byte	0x1
 2559 07ee DD01     		.2byte	0x1dd
 2560 07f0 81000000 		.4byte	0x81
 2561 07f4 05       		.uleb128 0x5
 2562 07f5 03       		.byte	0x3
 2563 07f6 8A000000 		.4byte	PB_NextAction_debouncecount.7421
 2564 07fa 1B       		.uleb128 0x1b
 2565 07fb 58090000 		.4byte	.LASF142
 2566 07ff 01       		.byte	0x1
 2567 0800 DE01     		.2byte	0x1de
 2568 0802 81000000 		.4byte	0x81
 2569 0806 05       		.uleb128 0x5
 2570 0807 03       		.byte	0x3
 2571 0808 8C000000 		.4byte	PB_NextAction_failcount.7422
 2572 080c 1B       		.uleb128 0x1b
 2573 080d 64080000 		.4byte	.LASF143
 2574 0811 01       		.byte	0x1
 2575 0812 DF01     		.2byte	0x1df
 2576 0814 81000000 		.4byte	0x81
 2577 0818 05       		.uleb128 0x5
 2578 0819 03       		.byte	0x3
 2579 081a 8D000000 		.4byte	PB_NextAction_prevstate.7423
 2580 081e 1B       		.uleb128 0x1b
 2581 081f 04030000 		.4byte	.LASF144
 2582 0823 01       		.byte	0x1
 2583 0824 E101     		.2byte	0x1e1
 2584 0826 81000000 		.4byte	0x81
 2585 082a 05       		.uleb128 0x5
 2586 082b 03       		.byte	0x3
 2587 082c 8B000000 		.4byte	debouncetrue.7424
 2588 0830 1B       		.uleb128 0x1b
 2589 0831 6B050000 		.4byte	.LASF145
 2590 0835 01       		.byte	0x1
 2591 0836 E301     		.2byte	0x1e3
 2592 0838 81000000 		.4byte	0x81
 2593 083c 05       		.uleb128 0x5
ARM GAS  C:\Users\MARTHN~1\AppData\Local\Temp\ccDJiEkb.s 			page 60


 2594 083d 03       		.byte	0x3
 2595 083e 88000000 		.4byte	PB_reading.7425
 2596 0842 1B       		.uleb128 0x1b
 2597 0843 2D050000 		.4byte	.LASF146
 2598 0847 01       		.byte	0x1
 2599 0848 E401     		.2byte	0x1e4
 2600 084a 81000000 		.4byte	0x81
 2601 084e 05       		.uleb128 0x5
 2602 084f 03       		.byte	0x3
 2603 0850 89000000 		.4byte	PB_reading_previous.7426
 2604 0854 00       		.byte	0
 2605 0855 1C       		.uleb128 0x1c
 2606 0856 27010000 		.4byte	.LASF147
 2607 085a 01       		.byte	0x1
 2608 085b 1502     		.2byte	0x215
 2609 085d 00000000 		.4byte	.LFB66
 2610 0861 1C000000 		.4byte	.LFE66-.LFB66
 2611 0865 01       		.uleb128 0x1
 2612 0866 9C       		.byte	0x9c
 2613 0867 1D       		.uleb128 0x1d
 2614 0868 65070000 		.4byte	.LASF148
 2615 086c 01       		.byte	0x1
 2616 086d 2502     		.2byte	0x225
 2617 086f 00000000 		.4byte	.LFB67
 2618 0873 7C000000 		.4byte	.LFE67-.LFB67
 2619 0877 01       		.uleb128 0x1
 2620 0878 9C       		.byte	0x9c
 2621 0879 1C       		.uleb128 0x1c
 2622 087a 1C020000 		.4byte	.LASF149
 2623 087e 01       		.byte	0x1
 2624 087f 3F02     		.2byte	0x23f
 2625 0881 00000000 		.4byte	.LFB68
 2626 0885 58000000 		.4byte	.LFE68-.LFB68
 2627 0889 01       		.uleb128 0x1
 2628 088a 9C       		.byte	0x9c
 2629 088b 1A       		.uleb128 0x1a
 2630 088c C4010000 		.4byte	.LASF151
 2631 0890 01       		.byte	0x1
 2632 0891 5502     		.2byte	0x255
 2633 0893 00000000 		.4byte	.LFB69
 2634 0897 58000000 		.4byte	.LFE69-.LFB69
 2635 089b 01       		.uleb128 0x1
 2636 089c 9C       		.byte	0x9c
 2637 089d CB080000 		.4byte	0x8cb
 2638 08a1 1B       		.uleb128 0x1b
 2639 08a2 90040000 		.4byte	.LASF152
 2640 08a6 01       		.byte	0x1
 2641 08a7 5802     		.2byte	0x258
 2642 08a9 CB080000 		.4byte	0x8cb
 2643 08ad 05       		.uleb128 0x5
 2644 08ae 03       		.byte	0x3
 2645 08af 90000000 		.4byte	STestStatus_display.7439
 2646 08b3 17       		.uleb128 0x17
 2647 08b4 06000000 		.4byte	.LBB5
 2648 08b8 2C000000 		.4byte	.LBE5-.LBB5
 2649 08bc 18       		.uleb128 0x18
 2650 08bd 6900     		.ascii	"i\000"
ARM GAS  C:\Users\MARTHN~1\AppData\Local\Temp\ccDJiEkb.s 			page 61


 2651 08bf 01       		.byte	0x1
 2652 08c0 5A02     		.2byte	0x25a
 2653 08c2 81000000 		.4byte	0x81
 2654 08c6 02       		.uleb128 0x2
 2655 08c7 91       		.byte	0x91
 2656 08c8 77       		.sleb128 -9
 2657 08c9 00       		.byte	0
 2658 08ca 00       		.byte	0
 2659 08cb 08       		.uleb128 0x8
 2660 08cc 81000000 		.4byte	0x81
 2661 08d0 DB080000 		.4byte	0x8db
 2662 08d4 09       		.uleb128 0x9
 2663 08d5 B5000000 		.4byte	0xb5
 2664 08d9 15       		.byte	0x15
 2665 08da 00       		.byte	0
 2666 08db 1C       		.uleb128 0x1c
 2667 08dc 96020000 		.4byte	.LASF153
 2668 08e0 01       		.byte	0x1
 2669 08e1 6A02     		.2byte	0x26a
 2670 08e3 00000000 		.4byte	.LFB70
 2671 08e7 6C000000 		.4byte	.LFE70-.LFB70
 2672 08eb 01       		.uleb128 0x1
 2673 08ec 9C       		.byte	0x9c
 2674 08ed 1C       		.uleb128 0x1c
 2675 08ee FA080000 		.4byte	.LASF154
 2676 08f2 01       		.byte	0x1
 2677 08f3 9002     		.2byte	0x290
 2678 08f5 00000000 		.4byte	.LFB71
 2679 08f9 44000000 		.4byte	.LFE71-.LFB71
 2680 08fd 01       		.uleb128 0x1
 2681 08fe 9C       		.byte	0x9c
 2682 08ff 1A       		.uleb128 0x1a
 2683 0900 82010000 		.4byte	.LASF155
 2684 0904 01       		.byte	0x1
 2685 0905 AD02     		.2byte	0x2ad
 2686 0907 00000000 		.4byte	.LFB72
 2687 090b 70000000 		.4byte	.LFE72-.LFB72
 2688 090f 01       		.uleb128 0x1
 2689 0910 9C       		.byte	0x9c
 2690 0911 24090000 		.4byte	0x924
 2691 0915 1E       		.uleb128 0x1e
 2692 0916 4F040000 		.4byte	.LASF176
 2693 091a 01       		.byte	0x1
 2694 091b BA02     		.2byte	0x2ba
 2695 091d 68000000 		.4byte	0x68
 2696 0921 1F       		.uleb128 0x1f
 2697 0922 00       		.byte	0
 2698 0923 00       		.byte	0
 2699 0924 1D       		.uleb128 0x1d
 2700 0925 37000000 		.4byte	.LASF156
 2701 0929 01       		.byte	0x1
 2702 092a CA02     		.2byte	0x2ca
 2703 092c 00000000 		.4byte	.LFB73
 2704 0930 3C000000 		.4byte	.LFE73-.LFB73
 2705 0934 01       		.uleb128 0x1
 2706 0935 9C       		.byte	0x9c
 2707 0936 1D       		.uleb128 0x1d
ARM GAS  C:\Users\MARTHN~1\AppData\Local\Temp\ccDJiEkb.s 			page 62


 2708 0937 14040000 		.4byte	.LASF157
 2709 093b 01       		.byte	0x1
 2710 093c D602     		.2byte	0x2d6
 2711 093e 00000000 		.4byte	.LFB74
 2712 0942 40000000 		.4byte	.LFE74-.LFB74
 2713 0946 01       		.uleb128 0x1
 2714 0947 9C       		.byte	0x9c
 2715 0948 08       		.uleb128 0x8
 2716 0949 8D000000 		.4byte	0x8d
 2717 094d 58090000 		.4byte	0x958
 2718 0951 09       		.uleb128 0x9
 2719 0952 B5000000 		.4byte	0xb5
 2720 0956 0A       		.byte	0xa
 2721 0957 00       		.byte	0
 2722 0958 20       		.uleb128 0x20
 2723 0959 5D010000 		.4byte	.LASF158
 2724 095d 01       		.byte	0x1
 2725 095e 28       		.byte	0x28
 2726 095f 48090000 		.4byte	0x948
 2727 0963 05       		.uleb128 0x5
 2728 0964 03       		.byte	0x3
 2729 0965 00000000 		.4byte	STest_TimeoutCount
 2730 0969 20       		.uleb128 0x20
 2731 096a 30030000 		.4byte	.LASF159
 2732 096e 01       		.byte	0x1
 2733 096f 3A       		.byte	0x3a
 2734 0970 8D000000 		.4byte	0x8d
 2735 0974 05       		.uleb128 0x5
 2736 0975 03       		.byte	0x3
 2737 0976 00000000 		.4byte	STest_20ms_isr_count
 2738 097a 20       		.uleb128 0x20
 2739 097b 77060000 		.4byte	.LASF160
 2740 097f 01       		.byte	0x1
 2741 0980 3B       		.byte	0x3b
 2742 0981 8D000000 		.4byte	0x8d
 2743 0985 05       		.uleb128 0x5
 2744 0986 03       		.byte	0x3
 2745 0987 02000000 		.4byte	STest_20ms_isr_EN
 2746 098b 20       		.uleb128 0x20
 2747 098c 85080000 		.4byte	.LASF161
 2748 0990 01       		.byte	0x1
 2749 0991 3D       		.byte	0x3d
 2750 0992 81000000 		.4byte	0x81
 2751 0996 05       		.uleb128 0x5
 2752 0997 03       		.byte	0x3
 2753 0998 04000000 		.4byte	PB_NextAction_Pressed
 2754 099c 20       		.uleb128 0x20
 2755 099d 50060000 		.4byte	.LASF162
 2756 09a1 01       		.byte	0x1
 2757 09a2 3E       		.byte	0x3e
 2758 09a3 81000000 		.4byte	0x81
 2759 09a7 05       		.uleb128 0x5
 2760 09a8 03       		.byte	0x3
 2761 09a9 05000000 		.4byte	PB_NextAction_Released
 2762 09ad 08       		.uleb128 0x8
 2763 09ae 81000000 		.4byte	0x81
 2764 09b2 BD090000 		.4byte	0x9bd
ARM GAS  C:\Users\MARTHN~1\AppData\Local\Temp\ccDJiEkb.s 			page 63


 2765 09b6 09       		.uleb128 0x9
 2766 09b7 B5000000 		.4byte	0xb5
 2767 09bb 0A       		.byte	0xa
 2768 09bc 00       		.byte	0
 2769 09bd 20       		.uleb128 0x20
 2770 09be E7060000 		.4byte	.LASF163
 2771 09c2 01       		.byte	0x1
 2772 09c3 40       		.byte	0x40
 2773 09c4 AD090000 		.4byte	0x9ad
 2774 09c8 05       		.uleb128 0x5
 2775 09c9 03       		.byte	0x3
 2776 09ca 08000000 		.4byte	STestStatus
 2777 09ce 20       		.uleb128 0x20
 2778 09cf 00000000 		.4byte	.LASF122
 2779 09d3 01       		.byte	0x1
 2780 09d4 42       		.byte	0x42
 2781 09d5 3E060000 		.4byte	0x63e
 2782 09d9 05       		.uleb128 0x5
 2783 09da 03       		.byte	0x3
 2784 09db 14000000 		.4byte	txPacket_RelaySiren
 2785 09df 20       		.uleb128 0x20
 2786 09e0 6A020000 		.4byte	.LASF164
 2787 09e4 01       		.byte	0x1
 2788 09e5 43       		.byte	0x43
 2789 09e6 F0090000 		.4byte	0x9f0
 2790 09ea 05       		.uleb128 0x5
 2791 09eb 03       		.byte	0x3
 2792 09ec 64000000 		.4byte	pTxPacket_RelaySiren
 2793 09f0 21       		.uleb128 0x21
 2794 09f1 04       		.byte	0x4
 2795 09f2 3E060000 		.4byte	0x63e
 2796 09f6 20       		.uleb128 0x20
 2797 09f7 10050000 		.4byte	.LASF121
 2798 09fb 01       		.byte	0x1
 2799 09fc 45       		.byte	0x45
 2800 09fd FC010000 		.4byte	0x1fc
 2801 0a01 05       		.uleb128 0x5
 2802 0a02 03       		.byte	0x3
 2803 0a03 68000000 		.4byte	rxPacket_RelaySiren
 2804 0a07 20       		.uleb128 0x20
 2805 0a08 C9060000 		.4byte	.LASF165
 2806 0a0c 01       		.byte	0x1
 2807 0a0d 46       		.byte	0x46
 2808 0a0e 180A0000 		.4byte	0xa18
 2809 0a12 05       		.uleb128 0x5
 2810 0a13 03       		.byte	0x3
 2811 0a14 78000000 		.4byte	pRxPacket_RelaySiren
 2812 0a18 21       		.uleb128 0x21
 2813 0a19 04       		.byte	0x4
 2814 0a1a FC010000 		.4byte	0x1fc
 2815 0a1e 20       		.uleb128 0x20
 2816 0a1f EC050000 		.4byte	.LASF166
 2817 0a23 01       		.byte	0x1
 2818 0a24 48       		.byte	0x48
 2819 0a25 CF060000 		.4byte	0x6cf
 2820 0a29 05       		.uleb128 0x5
 2821 0a2a 03       		.byte	0x3
ARM GAS  C:\Users\MARTHN~1\AppData\Local\Temp\ccDJiEkb.s 			page 64


 2822 0a2b 7C000000 		.4byte	rxPacket_H
 2823 0a2f 20       		.uleb128 0x20
 2824 0a30 2E060000 		.4byte	.LASF167
 2825 0a34 01       		.byte	0x1
 2826 0a35 49       		.byte	0x49
 2827 0a36 400A0000 		.4byte	0xa40
 2828 0a3a 05       		.uleb128 0x5
 2829 0a3b 03       		.byte	0x3
 2830 0a3c 84000000 		.4byte	pRxPacket_H
 2831 0a40 21       		.uleb128 0x21
 2832 0a41 04       		.byte	0x4
 2833 0a42 CF060000 		.4byte	0x6cf
 2834 0a46 22       		.uleb128 0x22
 2835 0a47 3A060000 		.4byte	.LASF168
 2836 0a4b 07       		.byte	0x7
 2837 0a4c 1207     		.2byte	0x712
 2838 0a4e 520A0000 		.4byte	0xa52
 2839 0a52 23       		.uleb128 0x23
 2840 0a53 76000000 		.4byte	0x76
 2841 0a57 24       		.uleb128 0x24
 2842 0a58 BD070000 		.4byte	.LASF169
 2843 0a5c 05       		.byte	0x5
 2844 0a5d 16       		.byte	0x16
 2845 0a5e BC000000 		.4byte	0xbc
 2846 0a62 05       		.uleb128 0x5
 2847 0a63 03       		.byte	0x3
 2848 0a64 00000000 		.4byte	Test
 2849 0a68 25       		.uleb128 0x25
 2850 0a69 3F010000 		.4byte	.LASF170
 2851 0a6d 05       		.byte	0x5
 2852 0a6e 1A       		.byte	0x1a
 2853 0a6f ED000000 		.4byte	0xed
 2854 0a73 00       		.byte	0
 2855              		.section	.debug_abbrev,"",%progbits
 2856              	.Ldebug_abbrev0:
 2857 0000 01       		.uleb128 0x1
 2858 0001 11       		.uleb128 0x11
 2859 0002 01       		.byte	0x1
 2860 0003 25       		.uleb128 0x25
 2861 0004 0E       		.uleb128 0xe
 2862 0005 13       		.uleb128 0x13
 2863 0006 0B       		.uleb128 0xb
 2864 0007 03       		.uleb128 0x3
 2865 0008 0E       		.uleb128 0xe
 2866 0009 1B       		.uleb128 0x1b
 2867 000a 0E       		.uleb128 0xe
 2868 000b 55       		.uleb128 0x55
 2869 000c 17       		.uleb128 0x17
 2870 000d 11       		.uleb128 0x11
 2871 000e 01       		.uleb128 0x1
 2872 000f 10       		.uleb128 0x10
 2873 0010 17       		.uleb128 0x17
 2874 0011 00       		.byte	0
 2875 0012 00       		.byte	0
 2876 0013 02       		.uleb128 0x2
 2877 0014 24       		.uleb128 0x24
 2878 0015 00       		.byte	0
ARM GAS  C:\Users\MARTHN~1\AppData\Local\Temp\ccDJiEkb.s 			page 65


 2879 0016 0B       		.uleb128 0xb
 2880 0017 0B       		.uleb128 0xb
 2881 0018 3E       		.uleb128 0x3e
 2882 0019 0B       		.uleb128 0xb
 2883 001a 03       		.uleb128 0x3
 2884 001b 0E       		.uleb128 0xe
 2885 001c 00       		.byte	0
 2886 001d 00       		.byte	0
 2887 001e 03       		.uleb128 0x3
 2888 001f 16       		.uleb128 0x16
 2889 0020 00       		.byte	0
 2890 0021 03       		.uleb128 0x3
 2891 0022 0E       		.uleb128 0xe
 2892 0023 3A       		.uleb128 0x3a
 2893 0024 0B       		.uleb128 0xb
 2894 0025 3B       		.uleb128 0x3b
 2895 0026 0B       		.uleb128 0xb
 2896 0027 49       		.uleb128 0x49
 2897 0028 13       		.uleb128 0x13
 2898 0029 00       		.byte	0
 2899 002a 00       		.byte	0
 2900 002b 04       		.uleb128 0x4
 2901 002c 24       		.uleb128 0x24
 2902 002d 00       		.byte	0
 2903 002e 0B       		.uleb128 0xb
 2904 002f 0B       		.uleb128 0xb
 2905 0030 3E       		.uleb128 0x3e
 2906 0031 0B       		.uleb128 0xb
 2907 0032 03       		.uleb128 0x3
 2908 0033 08       		.uleb128 0x8
 2909 0034 00       		.byte	0
 2910 0035 00       		.byte	0
 2911 0036 05       		.uleb128 0x5
 2912 0037 16       		.uleb128 0x16
 2913 0038 00       		.byte	0
 2914 0039 03       		.uleb128 0x3
 2915 003a 0E       		.uleb128 0xe
 2916 003b 3A       		.uleb128 0x3a
 2917 003c 0B       		.uleb128 0xb
 2918 003d 3B       		.uleb128 0x3b
 2919 003e 05       		.uleb128 0x5
 2920 003f 49       		.uleb128 0x49
 2921 0040 13       		.uleb128 0x13
 2922 0041 00       		.byte	0
 2923 0042 00       		.byte	0
 2924 0043 06       		.uleb128 0x6
 2925 0044 13       		.uleb128 0x13
 2926 0045 01       		.byte	0x1
 2927 0046 03       		.uleb128 0x3
 2928 0047 0E       		.uleb128 0xe
 2929 0048 0B       		.uleb128 0xb
 2930 0049 0B       		.uleb128 0xb
 2931 004a 3A       		.uleb128 0x3a
 2932 004b 0B       		.uleb128 0xb
 2933 004c 3B       		.uleb128 0x3b
 2934 004d 0B       		.uleb128 0xb
 2935 004e 01       		.uleb128 0x1
ARM GAS  C:\Users\MARTHN~1\AppData\Local\Temp\ccDJiEkb.s 			page 66


 2936 004f 13       		.uleb128 0x13
 2937 0050 00       		.byte	0
 2938 0051 00       		.byte	0
 2939 0052 07       		.uleb128 0x7
 2940 0053 0D       		.uleb128 0xd
 2941 0054 00       		.byte	0
 2942 0055 03       		.uleb128 0x3
 2943 0056 0E       		.uleb128 0xe
 2944 0057 3A       		.uleb128 0x3a
 2945 0058 0B       		.uleb128 0xb
 2946 0059 3B       		.uleb128 0x3b
 2947 005a 0B       		.uleb128 0xb
 2948 005b 49       		.uleb128 0x49
 2949 005c 13       		.uleb128 0x13
 2950 005d 38       		.uleb128 0x38
 2951 005e 0B       		.uleb128 0xb
 2952 005f 00       		.byte	0
 2953 0060 00       		.byte	0
 2954 0061 08       		.uleb128 0x8
 2955 0062 01       		.uleb128 0x1
 2956 0063 01       		.byte	0x1
 2957 0064 49       		.uleb128 0x49
 2958 0065 13       		.uleb128 0x13
 2959 0066 01       		.uleb128 0x1
 2960 0067 13       		.uleb128 0x13
 2961 0068 00       		.byte	0
 2962 0069 00       		.byte	0
 2963 006a 09       		.uleb128 0x9
 2964 006b 21       		.uleb128 0x21
 2965 006c 00       		.byte	0
 2966 006d 49       		.uleb128 0x49
 2967 006e 13       		.uleb128 0x13
 2968 006f 2F       		.uleb128 0x2f
 2969 0070 0B       		.uleb128 0xb
 2970 0071 00       		.byte	0
 2971 0072 00       		.byte	0
 2972 0073 0A       		.uleb128 0xa
 2973 0074 17       		.uleb128 0x17
 2974 0075 01       		.byte	0x1
 2975 0076 03       		.uleb128 0x3
 2976 0077 0E       		.uleb128 0xe
 2977 0078 0B       		.uleb128 0xb
 2978 0079 0B       		.uleb128 0xb
 2979 007a 3A       		.uleb128 0x3a
 2980 007b 0B       		.uleb128 0xb
 2981 007c 3B       		.uleb128 0x3b
 2982 007d 0B       		.uleb128 0xb
 2983 007e 01       		.uleb128 0x1
 2984 007f 13       		.uleb128 0x13
 2985 0080 00       		.byte	0
 2986 0081 00       		.byte	0
 2987 0082 0B       		.uleb128 0xb
 2988 0083 0D       		.uleb128 0xd
 2989 0084 00       		.byte	0
 2990 0085 03       		.uleb128 0x3
 2991 0086 0E       		.uleb128 0xe
 2992 0087 3A       		.uleb128 0x3a
ARM GAS  C:\Users\MARTHN~1\AppData\Local\Temp\ccDJiEkb.s 			page 67


 2993 0088 0B       		.uleb128 0xb
 2994 0089 3B       		.uleb128 0x3b
 2995 008a 0B       		.uleb128 0xb
 2996 008b 49       		.uleb128 0x49
 2997 008c 13       		.uleb128 0x13
 2998 008d 00       		.byte	0
 2999 008e 00       		.byte	0
 3000 008f 0C       		.uleb128 0xc
 3001 0090 13       		.uleb128 0x13
 3002 0091 01       		.byte	0x1
 3003 0092 03       		.uleb128 0x3
 3004 0093 0E       		.uleb128 0xe
 3005 0094 0B       		.uleb128 0xb
 3006 0095 0B       		.uleb128 0xb
 3007 0096 3A       		.uleb128 0x3a
 3008 0097 0B       		.uleb128 0xb
 3009 0098 3B       		.uleb128 0x3b
 3010 0099 05       		.uleb128 0x5
 3011 009a 01       		.uleb128 0x1
 3012 009b 13       		.uleb128 0x13
 3013 009c 00       		.byte	0
 3014 009d 00       		.byte	0
 3015 009e 0D       		.uleb128 0xd
 3016 009f 0D       		.uleb128 0xd
 3017 00a0 00       		.byte	0
 3018 00a1 03       		.uleb128 0x3
 3019 00a2 0E       		.uleb128 0xe
 3020 00a3 3A       		.uleb128 0x3a
 3021 00a4 0B       		.uleb128 0xb
 3022 00a5 3B       		.uleb128 0x3b
 3023 00a6 05       		.uleb128 0x5
 3024 00a7 49       		.uleb128 0x49
 3025 00a8 13       		.uleb128 0x13
 3026 00a9 38       		.uleb128 0x38
 3027 00aa 0B       		.uleb128 0xb
 3028 00ab 00       		.byte	0
 3029 00ac 00       		.byte	0
 3030 00ad 0E       		.uleb128 0xe
 3031 00ae 0D       		.uleb128 0xd
 3032 00af 00       		.byte	0
 3033 00b0 03       		.uleb128 0x3
 3034 00b1 08       		.uleb128 0x8
 3035 00b2 3A       		.uleb128 0x3a
 3036 00b3 0B       		.uleb128 0xb
 3037 00b4 3B       		.uleb128 0x3b
 3038 00b5 05       		.uleb128 0x5
 3039 00b6 49       		.uleb128 0x49
 3040 00b7 13       		.uleb128 0x13
 3041 00b8 38       		.uleb128 0x38
 3042 00b9 0B       		.uleb128 0xb
 3043 00ba 00       		.byte	0
 3044 00bb 00       		.byte	0
 3045 00bc 0F       		.uleb128 0xf
 3046 00bd 17       		.uleb128 0x17
 3047 00be 01       		.byte	0x1
 3048 00bf 03       		.uleb128 0x3
 3049 00c0 0E       		.uleb128 0xe
ARM GAS  C:\Users\MARTHN~1\AppData\Local\Temp\ccDJiEkb.s 			page 68


 3050 00c1 0B       		.uleb128 0xb
 3051 00c2 0B       		.uleb128 0xb
 3052 00c3 3A       		.uleb128 0x3a
 3053 00c4 0B       		.uleb128 0xb
 3054 00c5 3B       		.uleb128 0x3b
 3055 00c6 05       		.uleb128 0x5
 3056 00c7 01       		.uleb128 0x1
 3057 00c8 13       		.uleb128 0x13
 3058 00c9 00       		.byte	0
 3059 00ca 00       		.byte	0
 3060 00cb 10       		.uleb128 0x10
 3061 00cc 0D       		.uleb128 0xd
 3062 00cd 00       		.byte	0
 3063 00ce 03       		.uleb128 0x3
 3064 00cf 0E       		.uleb128 0xe
 3065 00d0 3A       		.uleb128 0x3a
 3066 00d1 0B       		.uleb128 0xb
 3067 00d2 3B       		.uleb128 0x3b
 3068 00d3 05       		.uleb128 0x5
 3069 00d4 49       		.uleb128 0x49
 3070 00d5 13       		.uleb128 0x13
 3071 00d6 00       		.byte	0
 3072 00d7 00       		.byte	0
 3073 00d8 11       		.uleb128 0x11
 3074 00d9 04       		.uleb128 0x4
 3075 00da 01       		.byte	0x1
 3076 00db 03       		.uleb128 0x3
 3077 00dc 0E       		.uleb128 0xe
 3078 00dd 0B       		.uleb128 0xb
 3079 00de 0B       		.uleb128 0xb
 3080 00df 49       		.uleb128 0x49
 3081 00e0 13       		.uleb128 0x13
 3082 00e1 3A       		.uleb128 0x3a
 3083 00e2 0B       		.uleb128 0xb
 3084 00e3 3B       		.uleb128 0x3b
 3085 00e4 0B       		.uleb128 0xb
 3086 00e5 01       		.uleb128 0x1
 3087 00e6 13       		.uleb128 0x13
 3088 00e7 00       		.byte	0
 3089 00e8 00       		.byte	0
 3090 00e9 12       		.uleb128 0x12
 3091 00ea 28       		.uleb128 0x28
 3092 00eb 00       		.byte	0
 3093 00ec 03       		.uleb128 0x3
 3094 00ed 0E       		.uleb128 0xe
 3095 00ee 1C       		.uleb128 0x1c
 3096 00ef 0B       		.uleb128 0xb
 3097 00f0 00       		.byte	0
 3098 00f1 00       		.byte	0
 3099 00f2 13       		.uleb128 0x13
 3100 00f3 28       		.uleb128 0x28
 3101 00f4 00       		.byte	0
 3102 00f5 03       		.uleb128 0x3
 3103 00f6 08       		.uleb128 0x8
 3104 00f7 1C       		.uleb128 0x1c
 3105 00f8 0B       		.uleb128 0xb
 3106 00f9 00       		.byte	0
ARM GAS  C:\Users\MARTHN~1\AppData\Local\Temp\ccDJiEkb.s 			page 69


 3107 00fa 00       		.byte	0
 3108 00fb 14       		.uleb128 0x14
 3109 00fc 2E       		.uleb128 0x2e
 3110 00fd 01       		.byte	0x1
 3111 00fe 3F       		.uleb128 0x3f
 3112 00ff 19       		.uleb128 0x19
 3113 0100 03       		.uleb128 0x3
 3114 0101 0E       		.uleb128 0xe
 3115 0102 3A       		.uleb128 0x3a
 3116 0103 0B       		.uleb128 0xb
 3117 0104 3B       		.uleb128 0x3b
 3118 0105 0B       		.uleb128 0xb
 3119 0106 27       		.uleb128 0x27
 3120 0107 19       		.uleb128 0x19
 3121 0108 49       		.uleb128 0x49
 3122 0109 13       		.uleb128 0x13
 3123 010a 11       		.uleb128 0x11
 3124 010b 01       		.uleb128 0x1
 3125 010c 12       		.uleb128 0x12
 3126 010d 06       		.uleb128 0x6
 3127 010e 40       		.uleb128 0x40
 3128 010f 18       		.uleb128 0x18
 3129 0110 9642     		.uleb128 0x2116
 3130 0112 19       		.uleb128 0x19
 3131 0113 01       		.uleb128 0x1
 3132 0114 13       		.uleb128 0x13
 3133 0115 00       		.byte	0
 3134 0116 00       		.byte	0
 3135 0117 15       		.uleb128 0x15
 3136 0118 0B       		.uleb128 0xb
 3137 0119 01       		.byte	0x1
 3138 011a 11       		.uleb128 0x11
 3139 011b 01       		.uleb128 0x1
 3140 011c 12       		.uleb128 0x12
 3141 011d 06       		.uleb128 0x6
 3142 011e 01       		.uleb128 0x1
 3143 011f 13       		.uleb128 0x13
 3144 0120 00       		.byte	0
 3145 0121 00       		.byte	0
 3146 0122 16       		.uleb128 0x16
 3147 0123 34       		.uleb128 0x34
 3148 0124 00       		.byte	0
 3149 0125 03       		.uleb128 0x3
 3150 0126 08       		.uleb128 0x8
 3151 0127 3A       		.uleb128 0x3a
 3152 0128 0B       		.uleb128 0xb
 3153 0129 3B       		.uleb128 0x3b
 3154 012a 0B       		.uleb128 0xb
 3155 012b 49       		.uleb128 0x49
 3156 012c 13       		.uleb128 0x13
 3157 012d 02       		.uleb128 0x2
 3158 012e 18       		.uleb128 0x18
 3159 012f 00       		.byte	0
 3160 0130 00       		.byte	0
 3161 0131 17       		.uleb128 0x17
 3162 0132 0B       		.uleb128 0xb
 3163 0133 01       		.byte	0x1
ARM GAS  C:\Users\MARTHN~1\AppData\Local\Temp\ccDJiEkb.s 			page 70


 3164 0134 11       		.uleb128 0x11
 3165 0135 01       		.uleb128 0x1
 3166 0136 12       		.uleb128 0x12
 3167 0137 06       		.uleb128 0x6
 3168 0138 00       		.byte	0
 3169 0139 00       		.byte	0
 3170 013a 18       		.uleb128 0x18
 3171 013b 34       		.uleb128 0x34
 3172 013c 00       		.byte	0
 3173 013d 03       		.uleb128 0x3
 3174 013e 08       		.uleb128 0x8
 3175 013f 3A       		.uleb128 0x3a
 3176 0140 0B       		.uleb128 0xb
 3177 0141 3B       		.uleb128 0x3b
 3178 0142 05       		.uleb128 0x5
 3179 0143 49       		.uleb128 0x49
 3180 0144 13       		.uleb128 0x13
 3181 0145 02       		.uleb128 0x2
 3182 0146 18       		.uleb128 0x18
 3183 0147 00       		.byte	0
 3184 0148 00       		.byte	0
 3185 0149 19       		.uleb128 0x19
 3186 014a 2E       		.uleb128 0x2e
 3187 014b 00       		.byte	0
 3188 014c 3F       		.uleb128 0x3f
 3189 014d 19       		.uleb128 0x19
 3190 014e 03       		.uleb128 0x3
 3191 014f 0E       		.uleb128 0xe
 3192 0150 3A       		.uleb128 0x3a
 3193 0151 0B       		.uleb128 0xb
 3194 0152 3B       		.uleb128 0x3b
 3195 0153 05       		.uleb128 0x5
 3196 0154 27       		.uleb128 0x27
 3197 0155 19       		.uleb128 0x19
 3198 0156 49       		.uleb128 0x49
 3199 0157 13       		.uleb128 0x13
 3200 0158 11       		.uleb128 0x11
 3201 0159 01       		.uleb128 0x1
 3202 015a 12       		.uleb128 0x12
 3203 015b 06       		.uleb128 0x6
 3204 015c 40       		.uleb128 0x40
 3205 015d 18       		.uleb128 0x18
 3206 015e 9742     		.uleb128 0x2117
 3207 0160 19       		.uleb128 0x19
 3208 0161 00       		.byte	0
 3209 0162 00       		.byte	0
 3210 0163 1A       		.uleb128 0x1a
 3211 0164 2E       		.uleb128 0x2e
 3212 0165 01       		.byte	0x1
 3213 0166 3F       		.uleb128 0x3f
 3214 0167 19       		.uleb128 0x19
 3215 0168 03       		.uleb128 0x3
 3216 0169 0E       		.uleb128 0xe
 3217 016a 3A       		.uleb128 0x3a
 3218 016b 0B       		.uleb128 0xb
 3219 016c 3B       		.uleb128 0x3b
 3220 016d 05       		.uleb128 0x5
ARM GAS  C:\Users\MARTHN~1\AppData\Local\Temp\ccDJiEkb.s 			page 71


 3221 016e 27       		.uleb128 0x27
 3222 016f 19       		.uleb128 0x19
 3223 0170 11       		.uleb128 0x11
 3224 0171 01       		.uleb128 0x1
 3225 0172 12       		.uleb128 0x12
 3226 0173 06       		.uleb128 0x6
 3227 0174 40       		.uleb128 0x40
 3228 0175 18       		.uleb128 0x18
 3229 0176 9642     		.uleb128 0x2116
 3230 0178 19       		.uleb128 0x19
 3231 0179 01       		.uleb128 0x1
 3232 017a 13       		.uleb128 0x13
 3233 017b 00       		.byte	0
 3234 017c 00       		.byte	0
 3235 017d 1B       		.uleb128 0x1b
 3236 017e 34       		.uleb128 0x34
 3237 017f 00       		.byte	0
 3238 0180 03       		.uleb128 0x3
 3239 0181 0E       		.uleb128 0xe
 3240 0182 3A       		.uleb128 0x3a
 3241 0183 0B       		.uleb128 0xb
 3242 0184 3B       		.uleb128 0x3b
 3243 0185 05       		.uleb128 0x5
 3244 0186 49       		.uleb128 0x49
 3245 0187 13       		.uleb128 0x13
 3246 0188 02       		.uleb128 0x2
 3247 0189 18       		.uleb128 0x18
 3248 018a 00       		.byte	0
 3249 018b 00       		.byte	0
 3250 018c 1C       		.uleb128 0x1c
 3251 018d 2E       		.uleb128 0x2e
 3252 018e 00       		.byte	0
 3253 018f 3F       		.uleb128 0x3f
 3254 0190 19       		.uleb128 0x19
 3255 0191 03       		.uleb128 0x3
 3256 0192 0E       		.uleb128 0xe
 3257 0193 3A       		.uleb128 0x3a
 3258 0194 0B       		.uleb128 0xb
 3259 0195 3B       		.uleb128 0x3b
 3260 0196 05       		.uleb128 0x5
 3261 0197 27       		.uleb128 0x27
 3262 0198 19       		.uleb128 0x19
 3263 0199 11       		.uleb128 0x11
 3264 019a 01       		.uleb128 0x1
 3265 019b 12       		.uleb128 0x12
 3266 019c 06       		.uleb128 0x6
 3267 019d 40       		.uleb128 0x40
 3268 019e 18       		.uleb128 0x18
 3269 019f 9642     		.uleb128 0x2116
 3270 01a1 19       		.uleb128 0x19
 3271 01a2 00       		.byte	0
 3272 01a3 00       		.byte	0
 3273 01a4 1D       		.uleb128 0x1d
 3274 01a5 2E       		.uleb128 0x2e
 3275 01a6 00       		.byte	0
 3276 01a7 3F       		.uleb128 0x3f
 3277 01a8 19       		.uleb128 0x19
ARM GAS  C:\Users\MARTHN~1\AppData\Local\Temp\ccDJiEkb.s 			page 72


 3278 01a9 03       		.uleb128 0x3
 3279 01aa 0E       		.uleb128 0xe
 3280 01ab 3A       		.uleb128 0x3a
 3281 01ac 0B       		.uleb128 0xb
 3282 01ad 3B       		.uleb128 0x3b
 3283 01ae 05       		.uleb128 0x5
 3284 01af 27       		.uleb128 0x27
 3285 01b0 19       		.uleb128 0x19
 3286 01b1 11       		.uleb128 0x11
 3287 01b2 01       		.uleb128 0x1
 3288 01b3 12       		.uleb128 0x12
 3289 01b4 06       		.uleb128 0x6
 3290 01b5 40       		.uleb128 0x40
 3291 01b6 18       		.uleb128 0x18
 3292 01b7 9742     		.uleb128 0x2117
 3293 01b9 19       		.uleb128 0x19
 3294 01ba 00       		.byte	0
 3295 01bb 00       		.byte	0
 3296 01bc 1E       		.uleb128 0x1e
 3297 01bd 2E       		.uleb128 0x2e
 3298 01be 01       		.byte	0x1
 3299 01bf 3F       		.uleb128 0x3f
 3300 01c0 19       		.uleb128 0x19
 3301 01c1 03       		.uleb128 0x3
 3302 01c2 0E       		.uleb128 0xe
 3303 01c3 3A       		.uleb128 0x3a
 3304 01c4 0B       		.uleb128 0xb
 3305 01c5 3B       		.uleb128 0x3b
 3306 01c6 05       		.uleb128 0x5
 3307 01c7 49       		.uleb128 0x49
 3308 01c8 13       		.uleb128 0x13
 3309 01c9 3C       		.uleb128 0x3c
 3310 01ca 19       		.uleb128 0x19
 3311 01cb 00       		.byte	0
 3312 01cc 00       		.byte	0
 3313 01cd 1F       		.uleb128 0x1f
 3314 01ce 18       		.uleb128 0x18
 3315 01cf 00       		.byte	0
 3316 01d0 00       		.byte	0
 3317 01d1 00       		.byte	0
 3318 01d2 20       		.uleb128 0x20
 3319 01d3 34       		.uleb128 0x34
 3320 01d4 00       		.byte	0
 3321 01d5 03       		.uleb128 0x3
 3322 01d6 0E       		.uleb128 0xe
 3323 01d7 3A       		.uleb128 0x3a
 3324 01d8 0B       		.uleb128 0xb
 3325 01d9 3B       		.uleb128 0x3b
 3326 01da 0B       		.uleb128 0xb
 3327 01db 49       		.uleb128 0x49
 3328 01dc 13       		.uleb128 0x13
 3329 01dd 02       		.uleb128 0x2
 3330 01de 18       		.uleb128 0x18
 3331 01df 00       		.byte	0
 3332 01e0 00       		.byte	0
 3333 01e1 21       		.uleb128 0x21
 3334 01e2 0F       		.uleb128 0xf
ARM GAS  C:\Users\MARTHN~1\AppData\Local\Temp\ccDJiEkb.s 			page 73


 3335 01e3 00       		.byte	0
 3336 01e4 0B       		.uleb128 0xb
 3337 01e5 0B       		.uleb128 0xb
 3338 01e6 49       		.uleb128 0x49
 3339 01e7 13       		.uleb128 0x13
 3340 01e8 00       		.byte	0
 3341 01e9 00       		.byte	0
 3342 01ea 22       		.uleb128 0x22
 3343 01eb 34       		.uleb128 0x34
 3344 01ec 00       		.byte	0
 3345 01ed 03       		.uleb128 0x3
 3346 01ee 0E       		.uleb128 0xe
 3347 01ef 3A       		.uleb128 0x3a
 3348 01f0 0B       		.uleb128 0xb
 3349 01f1 3B       		.uleb128 0x3b
 3350 01f2 05       		.uleb128 0x5
 3351 01f3 49       		.uleb128 0x49
 3352 01f4 13       		.uleb128 0x13
 3353 01f5 3F       		.uleb128 0x3f
 3354 01f6 19       		.uleb128 0x19
 3355 01f7 3C       		.uleb128 0x3c
 3356 01f8 19       		.uleb128 0x19
 3357 01f9 00       		.byte	0
 3358 01fa 00       		.byte	0
 3359 01fb 23       		.uleb128 0x23
 3360 01fc 35       		.uleb128 0x35
 3361 01fd 00       		.byte	0
 3362 01fe 49       		.uleb128 0x49
 3363 01ff 13       		.uleb128 0x13
 3364 0200 00       		.byte	0
 3365 0201 00       		.byte	0
 3366 0202 24       		.uleb128 0x24
 3367 0203 34       		.uleb128 0x34
 3368 0204 00       		.byte	0
 3369 0205 03       		.uleb128 0x3
 3370 0206 0E       		.uleb128 0xe
 3371 0207 3A       		.uleb128 0x3a
 3372 0208 0B       		.uleb128 0xb
 3373 0209 3B       		.uleb128 0x3b
 3374 020a 0B       		.uleb128 0xb
 3375 020b 49       		.uleb128 0x49
 3376 020c 13       		.uleb128 0x13
 3377 020d 3F       		.uleb128 0x3f
 3378 020e 19       		.uleb128 0x19
 3379 020f 02       		.uleb128 0x2
 3380 0210 18       		.uleb128 0x18
 3381 0211 00       		.byte	0
 3382 0212 00       		.byte	0
 3383 0213 25       		.uleb128 0x25
 3384 0214 34       		.uleb128 0x34
 3385 0215 00       		.byte	0
 3386 0216 03       		.uleb128 0x3
 3387 0217 0E       		.uleb128 0xe
 3388 0218 3A       		.uleb128 0x3a
 3389 0219 0B       		.uleb128 0xb
 3390 021a 3B       		.uleb128 0x3b
 3391 021b 0B       		.uleb128 0xb
ARM GAS  C:\Users\MARTHN~1\AppData\Local\Temp\ccDJiEkb.s 			page 74


 3392 021c 49       		.uleb128 0x49
 3393 021d 13       		.uleb128 0x13
 3394 021e 3F       		.uleb128 0x3f
 3395 021f 19       		.uleb128 0x19
 3396 0220 3C       		.uleb128 0x3c
 3397 0221 19       		.uleb128 0x19
 3398 0222 00       		.byte	0
 3399 0223 00       		.byte	0
 3400 0224 00       		.byte	0
 3401              		.section	.debug_aranges,"",%progbits
 3402 0000 74000000 		.4byte	0x74
 3403 0004 0200     		.2byte	0x2
 3404 0006 00000000 		.4byte	.Ldebug_info0
 3405 000a 04       		.byte	0x4
 3406 000b 00       		.byte	0
 3407 000c 0000     		.2byte	0
 3408 000e 0000     		.2byte	0
 3409 0010 00000000 		.4byte	.LFB63
 3410 0014 80040000 		.4byte	.LFE63-.LFB63
 3411 0018 00000000 		.4byte	.LFB64
 3412 001c 0E000000 		.4byte	.LFE64-.LFB64
 3413 0020 00000000 		.4byte	.LFB65
 3414 0024 E8000000 		.4byte	.LFE65-.LFB65
 3415 0028 00000000 		.4byte	.LFB66
 3416 002c 1C000000 		.4byte	.LFE66-.LFB66
 3417 0030 00000000 		.4byte	.LFB67
 3418 0034 7C000000 		.4byte	.LFE67-.LFB67
 3419 0038 00000000 		.4byte	.LFB68
 3420 003c 58000000 		.4byte	.LFE68-.LFB68
 3421 0040 00000000 		.4byte	.LFB69
 3422 0044 58000000 		.4byte	.LFE69-.LFB69
 3423 0048 00000000 		.4byte	.LFB70
 3424 004c 6C000000 		.4byte	.LFE70-.LFB70
 3425 0050 00000000 		.4byte	.LFB71
 3426 0054 44000000 		.4byte	.LFE71-.LFB71
 3427 0058 00000000 		.4byte	.LFB72
 3428 005c 70000000 		.4byte	.LFE72-.LFB72
 3429 0060 00000000 		.4byte	.LFB73
 3430 0064 3C000000 		.4byte	.LFE73-.LFB73
 3431 0068 00000000 		.4byte	.LFB74
 3432 006c 40000000 		.4byte	.LFE74-.LFB74
 3433 0070 00000000 		.4byte	0
 3434 0074 00000000 		.4byte	0
 3435              		.section	.debug_ranges,"",%progbits
 3436              	.Ldebug_ranges0:
 3437 0000 00000000 		.4byte	.LFB63
 3438 0004 80040000 		.4byte	.LFE63
 3439 0008 00000000 		.4byte	.LFB64
 3440 000c 0E000000 		.4byte	.LFE64
 3441 0010 00000000 		.4byte	.LFB65
 3442 0014 E8000000 		.4byte	.LFE65
 3443 0018 00000000 		.4byte	.LFB66
 3444 001c 1C000000 		.4byte	.LFE66
 3445 0020 00000000 		.4byte	.LFB67
 3446 0024 7C000000 		.4byte	.LFE67
 3447 0028 00000000 		.4byte	.LFB68
 3448 002c 58000000 		.4byte	.LFE68
ARM GAS  C:\Users\MARTHN~1\AppData\Local\Temp\ccDJiEkb.s 			page 75


 3449 0030 00000000 		.4byte	.LFB69
 3450 0034 58000000 		.4byte	.LFE69
 3451 0038 00000000 		.4byte	.LFB70
 3452 003c 6C000000 		.4byte	.LFE70
 3453 0040 00000000 		.4byte	.LFB71
 3454 0044 44000000 		.4byte	.LFE71
 3455 0048 00000000 		.4byte	.LFB72
 3456 004c 70000000 		.4byte	.LFE72
 3457 0050 00000000 		.4byte	.LFB73
 3458 0054 3C000000 		.4byte	.LFE73
 3459 0058 00000000 		.4byte	.LFB74
 3460 005c 40000000 		.4byte	.LFE74
 3461 0060 00000000 		.4byte	0
 3462 0064 00000000 		.4byte	0
 3463              		.section	.debug_line,"",%progbits
 3464              	.Ldebug_line0:
 3465 0000 E6030000 		.section	.debug_str,"MS",%progbits,1
 3465      02008101 
 3465      00000201 
 3465      FB0E0D00 
 3465      01010101 
 3466              	.LASF122:
 3467 0000 74785061 		.ascii	"txPacket_RelaySiren\000"
 3467      636B6574 
 3467      5F52656C 
 3467      61795369 
 3467      72656E00 
 3468              	.LASF12:
 3469 0014 75696E74 		.ascii	"uint16\000"
 3469      313600
 3470              	.LASF135:
 3471 001b 414D5031 		.ascii	"AMP1\000"
 3471      00
 3472              	.LASF136:
 3473 0020 414D5032 		.ascii	"AMP2\000"
 3473      00
 3474              	.LASF82:
 3475 0025 4C45445F 		.ascii	"LED_03_R\000"
 3475      30335F52 
 3475      00
 3476              	.LASF90:
 3477 002e 4C45445F 		.ascii	"LED_01_B\000"
 3477      30315F42 
 3477      00
 3478              	.LASF156:
 3479 0037 53746172 		.ascii	"StartAutomatedStep\000"
 3479      74417574 
 3479      6F6D6174 
 3479      65645374 
 3479      657000
 3480              	.LASF172:
 3481 004a 53697265 		.ascii	"SirenTest.c\000"
 3481      6E546573 
 3481      742E6300 
 3482              	.LASF124:
 3483 0056 44617461 		.ascii	"Data_H\000"
 3483      5F4800
ARM GAS  C:\Users\MARTHN~1\AppData\Local\Temp\ccDJiEkb.s 			page 76


 3484              	.LASF131:
 3485 005d 4D55585F 		.ascii	"MUX_DEMUX_230400_CHANNEL\000"
 3485      44454D55 
 3485      585F3233 
 3485      30343030 
 3485      5F434841 
 3486              	.LASF102:
 3487 0076 53746F70 		.ascii	"StopByte2_FLB\000"
 3487      42797465 
 3487      325F464C 
 3487      4200
 3488              	.LASF130:
 3489 0084 53544553 		.ascii	"STEST_RELAY\000"
 3489      545F5245 
 3489      4C415900 
 3490              	.LASF56:
 3491 0090 4C45445F 		.ascii	"LED_12_G\000"
 3491      31325F47 
 3491      00
 3492              	.LASF171:
 3493 0099 474E5520 		.ascii	"GNU C11 5.4.1 20160609 (release) [ARM/embedded-5-br"
 3493      43313120 
 3493      352E342E 
 3493      31203230 
 3493      31363036 
 3494 00cc 616E6368 		.ascii	"anch revision 237715] -mcpu=cortex-m3 -mthumb -g -O"
 3494      20726576 
 3494      6973696F 
 3494      6E203233 
 3494      37373135 
 3495 00ff 30202D66 		.ascii	"0 -ffunction-sections -ffat-lto-objects\000"
 3495      66756E63 
 3495      74696F6E 
 3495      2D736563 
 3495      74696F6E 
 3496              	.LASF147:
 3497 0127 53546573 		.ascii	"STest_10ms_isr\000"
 3497      745F3130 
 3497      6D735F69 
 3497      737200
 3498              	.LASF69:
 3499 0136 4C45445F 		.ascii	"LED_08_B\000"
 3499      30385F42 
 3499      00
 3500              	.LASF170:
 3501 013f 43757272 		.ascii	"CurrentTest\000"
 3501      656E7454 
 3501      65737400 
 3502              	.LASF55:
 3503 014b 4C45445F 		.ascii	"LED_12_R\000"
 3503      31325F52 
 3503      00
 3504              	.LASF68:
 3505 0154 4C45445F 		.ascii	"LED_08_G\000"
 3505      30385F47 
 3505      00
 3506              	.LASF158:
ARM GAS  C:\Users\MARTHN~1\AppData\Local\Temp\ccDJiEkb.s 			page 77


 3507 015d 53546573 		.ascii	"STest_TimeoutCount\000"
 3507      745F5469 
 3507      6D656F75 
 3507      74436F75 
 3507      6E7400
 3508              	.LASF125:
 3509 0170 7061636B 		.ascii	"packet_H\000"
 3509      65745F48 
 3509      00
 3510              	.LASF67:
 3511 0179 4C45445F 		.ascii	"LED_08_R\000"
 3511      30385F52 
 3511      00
 3512              	.LASF155:
 3513 0182 53546573 		.ascii	"STest_PlayTestTone_AudioStream\000"
 3513      745F506C 
 3513      61795465 
 3513      7374546F 
 3513      6E655F41 
 3514              	.LASF60:
 3515 01a1 4C45445F 		.ascii	"LED_11_B\000"
 3515      31315F42 
 3515      00
 3516              	.LASF6:
 3517 01aa 6C6F6E67 		.ascii	"long long int\000"
 3517      206C6F6E 
 3517      6720696E 
 3517      7400
 3518              	.LASF0:
 3519 01b8 7369676E 		.ascii	"signed char\000"
 3519      65642063 
 3519      68617200 
 3520              	.LASF151:
 3521 01c4 53546573 		.ascii	"STest_sendDiagPacket\000"
 3521      745F7365 
 3521      6E644469 
 3521      61675061 
 3521      636B6574 
 3522              	.LASF59:
 3523 01d9 4C45445F 		.ascii	"LED_11_G\000"
 3523      31315F47 
 3523      00
 3524              	.LASF132:
 3525 01e2 494E4954 		.ascii	"INITIALIZE_TEST\000"
 3525      49414C49 
 3525      5A455F54 
 3525      45535400 
 3526              	.LASF107:
 3527 01f2 4475616C 		.ascii	"DualDelay\000"
 3527      44656C61 
 3527      7900
 3528              	.LASF7:
 3529 01fc 6C6F6E67 		.ascii	"long long unsigned int\000"
 3529      206C6F6E 
 3529      6720756E 
 3529      7369676E 
 3529      65642069 
ARM GAS  C:\Users\MARTHN~1\AppData\Local\Temp\ccDJiEkb.s 			page 78


 3530              	.LASF87:
 3531 0213 4C45445F 		.ascii	"LED_02_B\000"
 3531      30325F42 
 3531      00
 3532              	.LASF149:
 3533 021c 53546573 		.ascii	"STest_50ms_isr\000"
 3533      745F3530 
 3533      6D735F69 
 3533      737200
 3534              	.LASF86:
 3535 022b 4C45445F 		.ascii	"LED_02_G\000"
 3535      30325F47 
 3535      00
 3536              	.LASF4:
 3537 0234 6C6F6E67 		.ascii	"long int\000"
 3537      20696E74 
 3537      00
 3538              	.LASF85:
 3539 023d 4C45445F 		.ascii	"LED_02_R\000"
 3539      30325F52 
 3539      00
 3540              	.LASF41:
 3541 0246 52785061 		.ascii	"RxPacket_RelaySiren\000"
 3541      636B6574 
 3541      5F52656C 
 3541      61795369 
 3541      72656E00 
 3542              	.LASF11:
 3543 025a 75696E74 		.ascii	"uint8\000"
 3543      3800
 3544              	.LASF174:
 3545 0260 53697265 		.ascii	"SirenTest\000"
 3545      6E546573 
 3545      7400
 3546              	.LASF164:
 3547 026a 70547850 		.ascii	"pTxPacket_RelaySiren\000"
 3547      61636B65 
 3547      745F5265 
 3547      6C617953 
 3547      6972656E 
 3548              	.LASF119:
 3549 027f 53746F70 		.ascii	"StopByte1_Relay\000"
 3549      42797465 
 3549      315F5265 
 3549      6C617900 
 3550              	.LASF14:
 3551 028f 646F7562 		.ascii	"double\000"
 3551      6C6500
 3552              	.LASF153:
 3553 0296 50425F57 		.ascii	"PB_WaitForAction\000"
 3553      61697446 
 3553      6F724163 
 3553      74696F6E 
 3553      00
 3554              	.LASF91:
 3555 02a7 42757A7A 		.ascii	"Buzzer_H\000"
 3555      65725F48 
ARM GAS  C:\Users\MARTHN~1\AppData\Local\Temp\ccDJiEkb.s 			page 79


 3555      00
 3556              	.LASF94:
 3557 02b0 636F6E74 		.ascii	"controllerSpeakerEnable\000"
 3557      726F6C6C 
 3557      65725370 
 3557      65616B65 
 3557      72456E61 
 3558              	.LASF114:
 3559 02c8 4F757470 		.ascii	"Outputs_17to24\000"
 3559      7574735F 
 3559      3137746F 
 3559      323400
 3560              	.LASF72:
 3561 02d7 4C45445F 		.ascii	"LED_07_B\000"
 3561      30375F42 
 3561      00
 3562              	.LASF39:
 3563 02e0 62797465 		.ascii	"bytes\000"
 3563      7300
 3564              	.LASF58:
 3565 02e6 4C45445F 		.ascii	"LED_11_R\000"
 3565      31315F52 
 3565      00
 3566              	.LASF71:
 3567 02ef 4C45445F 		.ascii	"LED_07_G\000"
 3567      30375F47 
 3567      00
 3568              	.LASF33:
 3569 02f8 53697265 		.ascii	"SirenFirm_1\000"
 3569      6E466972 
 3569      6D5F3100 
 3570              	.LASF144:
 3571 0304 6465626F 		.ascii	"debouncetrue\000"
 3571      756E6365 
 3571      74727565 
 3571      00
 3572              	.LASF70:
 3573 0311 4C45445F 		.ascii	"LED_07_R\000"
 3573      30375F52 
 3573      00
 3574              	.LASF139:
 3575 031a 4F564552 		.ascii	"OVERLOAD\000"
 3575      4C4F4144 
 3575      00
 3576              	.LASF150:
 3577 0323 53546573 		.ascii	"STest_isr_PB\000"
 3577      745F6973 
 3577      725F5042 
 3577      00
 3578              	.LASF159:
 3579 0330 53546573 		.ascii	"STest_20ms_isr_count\000"
 3579      745F3230 
 3579      6D735F69 
 3579      73725F63 
 3579      6F756E74 
 3580              	.LASF8:
 3581 0345 756E7369 		.ascii	"unsigned int\000"
ARM GAS  C:\Users\MARTHN~1\AppData\Local\Temp\ccDJiEkb.s 			page 80


 3581      676E6564 
 3581      20696E74 
 3581      00
 3582              	.LASF45:
 3583 0352 4C45445F 		.ascii	"LED_16_B\000"
 3583      31365F42 
 3583      00
 3584              	.LASF112:
 3585 035b 4F757470 		.ascii	"Outputs_1to8\000"
 3585      7574735F 
 3585      31746F38 
 3585      00
 3586              	.LASF29:
 3587 0368 53706561 		.ascii	"Speaker1_Overcurrent\000"
 3587      6B657231 
 3587      5F4F7665 
 3587      72637572 
 3587      72656E74 
 3588              	.LASF104:
 3589 037d 53697265 		.ascii	"Siren_PacketType\000"
 3589      6E5F5061 
 3589      636B6574 
 3589      54797065 
 3589      00
 3590              	.LASF31:
 3591 038e 52656C61 		.ascii	"RelayInputs\000"
 3591      79496E70 
 3591      75747300 
 3592              	.LASF101:
 3593 039a 53746F70 		.ascii	"StopByte1_FLB\000"
 3593      42797465 
 3593      315F464C 
 3593      4200
 3594              	.LASF5:
 3595 03a8 6C6F6E67 		.ascii	"long unsigned int\000"
 3595      20756E73 
 3595      69676E65 
 3595      6420696E 
 3595      7400
 3596              	.LASF32:
 3597 03ba 53697265 		.ascii	"SirenFirm_0\000"
 3597      6E466972 
 3597      6D5F3000 
 3598              	.LASF109:
 3599 03c6 53746F70 		.ascii	"StopByte2_Siren\000"
 3599      42797465 
 3599      325F5369 
 3599      72656E00 
 3600              	.LASF34:
 3601 03d6 53697265 		.ascii	"SirenFirm_2\000"
 3601      6E466972 
 3601      6D5F3200 
 3602              	.LASF89:
 3603 03e2 4C45445F 		.ascii	"LED_01_G\000"
 3603      30315F47 
 3603      00
 3604              	.LASF43:
ARM GAS  C:\Users\MARTHN~1\AppData\Local\Temp\ccDJiEkb.s 			page 81


 3605 03eb 4C45445F 		.ascii	"LED_16_R\000"
 3605      31365F52 
 3605      00
 3606              	.LASF106:
 3607 03f4 53697265 		.ascii	"Siren2Tone\000"
 3607      6E32546F 
 3607      6E6500
 3608              	.LASF95:
 3609 03ff 636F6E74 		.ascii	"controllerPowerState\000"
 3609      726F6C6C 
 3609      6572506F 
 3609      77657253 
 3609      74617465 
 3610              	.LASF157:
 3611 0414 53746F70 		.ascii	"StopAutomatedStep\000"
 3611      4175746F 
 3611      6D617465 
 3611      64537465 
 3611      7000
 3612              	.LASF117:
 3613 0426 506F7765 		.ascii	"PowerState\000"
 3613      72537461 
 3613      746500
 3614              	.LASF88:
 3615 0431 4C45445F 		.ascii	"LED_01_R\000"
 3615      30315F52 
 3615      00
 3616              	.LASF127:
 3617 043a 43544553 		.ascii	"CTEST_RELAY\000"
 3617      545F5245 
 3617      4C415900 
 3618              	.LASF75:
 3619 0446 4C45445F 		.ascii	"LED_06_B\000"
 3619      30365F42 
 3619      00
 3620              	.LASF176:
 3621 044f 54696D65 		.ascii	"Timer_DAC_WritePeriod\000"
 3621      725F4441 
 3621      435F5772 
 3621      69746550 
 3621      6572696F 
 3622              	.LASF63:
 3623 0465 4C45445F 		.ascii	"LED_10_B\000"
 3623      31305F42 
 3623      00
 3624              	.LASF133:
 3625 046e 55415254 		.ascii	"UART_RX\000"
 3625      5F525800 
 3626              	.LASF103:
 3627 0476 53746172 		.ascii	"StartByte1_Siren\000"
 3627      74427974 
 3627      65315F53 
 3627      6972656E 
 3627      00
 3628              	.LASF62:
 3629 0487 4C45445F 		.ascii	"LED_10_G\000"
 3629      31305F47 
ARM GAS  C:\Users\MARTHN~1\AppData\Local\Temp\ccDJiEkb.s 			page 82


 3629      00
 3630              	.LASF152:
 3631 0490 53546573 		.ascii	"STestStatus_display\000"
 3631      74537461 
 3631      7475735F 
 3631      64697370 
 3631      6C617900 
 3632              	.LASF111:
 3633 04a4 52656C61 		.ascii	"Relay_PacketType\000"
 3633      795F5061 
 3633      636B6574 
 3633      54797065 
 3633      00
 3634              	.LASF2:
 3635 04b5 73686F72 		.ascii	"short int\000"
 3635      7420696E 
 3635      7400
 3636              	.LASF61:
 3637 04bf 4C45445F 		.ascii	"LED_10_R\000"
 3637      31305F52 
 3637      00
 3638              	.LASF40:
 3639 04c8 5061796C 		.ascii	"Payload\000"
 3639      6F616400 
 3640              	.LASF74:
 3641 04d0 4C45445F 		.ascii	"LED_06_G\000"
 3641      30365F47 
 3641      00
 3642              	.LASF73:
 3643 04d9 4C45445F 		.ascii	"LED_06_R\000"
 3643      30365F52 
 3643      00
 3644              	.LASF54:
 3645 04e2 4C45445F 		.ascii	"LED_13_B\000"
 3645      31335F42 
 3645      00
 3646              	.LASF141:
 3647 04eb 50425F4E 		.ascii	"PB_NextAction_debouncecount\000"
 3647      65787441 
 3647      6374696F 
 3647      6E5F6465 
 3647      626F756E 
 3648              	.LASF38:
 3649 0507 63686563 		.ascii	"checkSum\000"
 3649      6B53756D 
 3649      00
 3650              	.LASF121:
 3651 0510 72785061 		.ascii	"rxPacket_RelaySiren\000"
 3651      636B6574 
 3651      5F52656C 
 3651      61795369 
 3651      72656E00 
 3652              	.LASF17:
 3653 0524 73697A65 		.ascii	"sizetype\000"
 3653      74797065 
 3653      00
 3654              	.LASF146:
ARM GAS  C:\Users\MARTHN~1\AppData\Local\Temp\ccDJiEkb.s 			page 83


 3655 052d 50425F72 		.ascii	"PB_reading_previous\000"
 3655      65616469 
 3655      6E675F70 
 3655      72657669 
 3655      6F757300 
 3656              	.LASF48:
 3657 0541 4C45445F 		.ascii	"LED_15_B\000"
 3657      31355F42 
 3657      00
 3658              	.LASF44:
 3659 054a 4C45445F 		.ascii	"LED_16_G\000"
 3659      31365F47 
 3659      00
 3660              	.LASF47:
 3661 0553 4C45445F 		.ascii	"LED_15_G\000"
 3661      31355F47 
 3661      00
 3662              	.LASF116:
 3663 055c 48694C6F 		.ascii	"HiLoInputLogic\000"
 3663      496E7075 
 3663      744C6F67 
 3663      696300
 3664              	.LASF145:
 3665 056b 50425F72 		.ascii	"PB_reading\000"
 3665      65616469 
 3665      6E6700
 3666              	.LASF46:
 3667 0576 4C45445F 		.ascii	"LED_15_R\000"
 3667      31355F52 
 3667      00
 3668              	.LASF96:
 3669 057f 53746172 		.ascii	"StartByte_FLB\000"
 3669      74427974 
 3669      655F464C 
 3669      4200
 3670              	.LASF57:
 3671 058d 4C45445F 		.ascii	"LED_12_B\000"
 3671      31325F42 
 3671      00
 3672              	.LASF115:
 3673 0596 4F757470 		.ascii	"Outputs_25to32\000"
 3673      7574735F 
 3673      3235746F 
 3673      333200
 3674              	.LASF123:
 3675 05a5 54785061 		.ascii	"TxPacket_RelaySiren\000"
 3675      636B6574 
 3675      5F52656C 
 3675      61795369 
 3675      72656E00 
 3676              	.LASF126:
 3677 05b9 5061636B 		.ascii	"Packet_H\000"
 3677      65745F48 
 3677      00
 3678              	.LASF30:
 3679 05c2 53706561 		.ascii	"Speaker2_Overcurrent\000"
 3679      6B657232 
ARM GAS  C:\Users\MARTHN~1\AppData\Local\Temp\ccDJiEkb.s 			page 84


 3679      5F4F7665 
 3679      72637572 
 3679      72656E74 
 3680              	.LASF13:
 3681 05d7 666C6F61 		.ascii	"float\000"
 3681      7400
 3682              	.LASF21:
 3683 05dd 53747275 		.ascii	"StructTestInfo\000"
 3683      63745465 
 3683      7374496E 
 3683      666F00
 3684              	.LASF166:
 3685 05ec 72785061 		.ascii	"rxPacket_H\000"
 3685      636B6574 
 3685      5F4800
 3686              	.LASF97:
 3687 05f7 464C425F 		.ascii	"FLB_PacketType\000"
 3687      5061636B 
 3687      65745479 
 3687      706500
 3688              	.LASF78:
 3689 0606 4C45445F 		.ascii	"LED_05_B\000"
 3689      30355F42 
 3689      00
 3690              	.LASF77:
 3691 060f 4C45445F 		.ascii	"LED_05_G\000"
 3691      30355F47 
 3691      00
 3692              	.LASF10:
 3693 0618 696E7433 		.ascii	"int32_t\000"
 3693      325F7400 
 3694              	.LASF1:
 3695 0620 756E7369 		.ascii	"unsigned char\000"
 3695      676E6564 
 3695      20636861 
 3695      7200
 3696              	.LASF167:
 3697 062e 70527850 		.ascii	"pRxPacket_H\000"
 3697      61636B65 
 3697      745F4800 
 3698              	.LASF168:
 3699 063a 49544D5F 		.ascii	"ITM_RxBuffer\000"
 3699      52784275 
 3699      66666572 
 3699      00
 3700              	.LASF76:
 3701 0647 4C45445F 		.ascii	"LED_05_R\000"
 3701      30355F52 
 3701      00
 3702              	.LASF162:
 3703 0650 50425F4E 		.ascii	"PB_NextAction_Released\000"
 3703      65787441 
 3703      6374696F 
 3703      6E5F5265 
 3703      6C656173 
 3704              	.LASF175:
 3705 0667 53546573 		.ascii	"STest_Test_Amp1\000"
ARM GAS  C:\Users\MARTHN~1\AppData\Local\Temp\ccDJiEkb.s 			page 85


 3705      745F5465 
 3705      73745F41 
 3705      6D703100 
 3706              	.LASF160:
 3707 0677 53546573 		.ascii	"STest_20ms_isr_EN\000"
 3707      745F3230 
 3707      6D735F69 
 3707      73725F45 
 3707      4E00
 3708              	.LASF134:
 3709 0689 55415254 		.ascii	"UART_TX\000"
 3709      5F545800 
 3710              	.LASF19:
 3711 0691 54657374 		.ascii	"TestStep\000"
 3711      53746570 
 3711      00
 3712              	.LASF51:
 3713 069a 4C45445F 		.ascii	"LED_14_B\000"
 3713      31345F42 
 3713      00
 3714              	.LASF120:
 3715 06a3 53746F70 		.ascii	"StopByte2_Relay\000"
 3715      42797465 
 3715      325F5265 
 3715      6C617900 
 3716              	.LASF50:
 3717 06b3 4C45445F 		.ascii	"LED_14_G\000"
 3717      31345F47 
 3717      00
 3718              	.LASF18:
 3719 06bc 53656C65 		.ascii	"SelectedTest\000"
 3719      63746564 
 3719      54657374 
 3719      00
 3720              	.LASF165:
 3721 06c9 70527850 		.ascii	"pRxPacket_RelaySiren\000"
 3721      61636B65 
 3721      745F5265 
 3721      6C617953 
 3721      6972656E 
 3722              	.LASF49:
 3723 06de 4C45445F 		.ascii	"LED_14_R\000"
 3723      31345F52 
 3723      00
 3724              	.LASF163:
 3725 06e7 53546573 		.ascii	"STestStatus\000"
 3725      74537461 
 3725      74757300 
 3726              	.LASF105:
 3727 06f3 53697265 		.ascii	"Siren1Tone\000"
 3727      6E31546F 
 3727      6E6500
 3728              	.LASF118:
 3729 06fe 53697265 		.ascii	"SirenEnable\000"
 3729      6E456E61 
 3729      626C6500 
 3730              	.LASF113:
ARM GAS  C:\Users\MARTHN~1\AppData\Local\Temp\ccDJiEkb.s 			page 86


 3731 070a 4F757470 		.ascii	"Outputs_9to16\000"
 3731      7574735F 
 3731      39746F31 
 3731      3600
 3732              	.LASF16:
 3733 0718 6C6F6E67 		.ascii	"long double\000"
 3733      20646F75 
 3733      626C6500 
 3734              	.LASF15:
 3735 0724 63686172 		.ascii	"char\000"
 3735      00
 3736              	.LASF24:
 3737 0729 426C6F63 		.ascii	"BlockCurrent_1\000"
 3737      6B437572 
 3737      72656E74 
 3737      5F3100
 3738              	.LASF25:
 3739 0738 426C6F63 		.ascii	"BlockCurrent_2\000"
 3739      6B437572 
 3739      72656E74 
 3739      5F3200
 3740              	.LASF26:
 3741 0747 426C6F63 		.ascii	"BlockCurrent_3\000"
 3741      6B437572 
 3741      72656E74 
 3741      5F3300
 3742              	.LASF27:
 3743 0756 426C6F63 		.ascii	"BlockCurrent_4\000"
 3743      6B437572 
 3743      72656E74 
 3743      5F3400
 3744              	.LASF148:
 3745 0765 53546573 		.ascii	"STest_20ms_isr\000"
 3745      745F3230 
 3745      6D735F69 
 3745      737200
 3746              	.LASF9:
 3747 0774 5F5F696E 		.ascii	"__int32_t\000"
 3747      7433325F 
 3747      7400
 3748              	.LASF81:
 3749 077e 4C45445F 		.ascii	"LED_04_B\000"
 3749      30345F42 
 3749      00
 3750              	.LASF110:
 3751 0787 53746172 		.ascii	"StartByte1_Relay\000"
 3751      74427974 
 3751      65315F52 
 3751      656C6179 
 3751      00
 3752              	.LASF80:
 3753 0798 4C45445F 		.ascii	"LED_04_G\000"
 3753      30345F47 
 3753      00
 3754              	.LASF92:
 3755 07a1 42757A7A 		.ascii	"Buzzer_L\000"
 3755      65725F4C 
ARM GAS  C:\Users\MARTHN~1\AppData\Local\Temp\ccDJiEkb.s 			page 87


 3755      00
 3756              	.LASF3:
 3757 07aa 73686F72 		.ascii	"short unsigned int\000"
 3757      7420756E 
 3757      7369676E 
 3757      65642069 
 3757      6E7400
 3758              	.LASF169:
 3759 07bd 54657374 		.ascii	"Test\000"
 3759      00
 3760              	.LASF79:
 3761 07c2 4C45445F 		.ascii	"LED_04_R\000"
 3761      30345F52 
 3761      00
 3762              	.LASF108:
 3763 07cb 53746F70 		.ascii	"StopByte1_Siren\000"
 3763      42797465 
 3763      315F5369 
 3763      72656E00 
 3764              	.LASF98:
 3765 07db 57697265 		.ascii	"WireActivation1\000"
 3765      41637469 
 3765      76617469 
 3765      6F6E3100 
 3766              	.LASF99:
 3767 07eb 57697265 		.ascii	"WireActivation2\000"
 3767      41637469 
 3767      76617469 
 3767      6F6E3200 
 3768              	.LASF100:
 3769 07fb 57697265 		.ascii	"WireActivation3\000"
 3769      41637469 
 3769      76617469 
 3769      6F6E3300 
 3770              	.LASF137:
 3771 080b 41554449 		.ascii	"AUDIO_STREAM\000"
 3771      4F5F5354 
 3771      5245414D 
 3771      00
 3772              	.LASF35:
 3773 0818 52656C61 		.ascii	"RelayFirm_0\000"
 3773      79466972 
 3773      6D5F3000 
 3774              	.LASF138:
 3775 0824 464C4153 		.ascii	"FLASH\000"
 3775      4800
 3776              	.LASF37:
 3777 082a 52656C61 		.ascii	"RelayFirm_2\000"
 3777      79466972 
 3777      6D5F3200 
 3778              	.LASF23:
 3779 0836 72784461 		.ascii	"rxData_RelaySiren\000"
 3779      74615F52 
 3779      656C6179 
 3779      53697265 
 3779      6E00
 3780              	.LASF128:
ARM GAS  C:\Users\MARTHN~1\AppData\Local\Temp\ccDJiEkb.s 			page 88


 3781 0848 52544553 		.ascii	"RTEST_CONT\000"
 3781      545F434F 
 3781      4E5400
 3782              	.LASF93:
 3783 0853 53637265 		.ascii	"ScreenBrightness\000"
 3783      656E4272 
 3783      69676874 
 3783      6E657373 
 3783      00
 3784              	.LASF143:
 3785 0864 50425F4E 		.ascii	"PB_NextAction_prevstate\000"
 3785      65787441 
 3785      6374696F 
 3785      6E5F7072 
 3785      65767374 
 3786              	.LASF53:
 3787 087c 4C45445F 		.ascii	"LED_13_G\000"
 3787      31335F47 
 3787      00
 3788              	.LASF161:
 3789 0885 50425F4E 		.ascii	"PB_NextAction_Pressed\000"
 3789      65787441 
 3789      6374696F 
 3789      6E5F5072 
 3789      65737365 
 3790              	.LASF36:
 3791 089b 52656C61 		.ascii	"RelayFirm_1\000"
 3791      79466972 
 3791      6D5F3100 
 3792              	.LASF22:
 3793 08a7 73747275 		.ascii	"structTestInfo\000"
 3793      63745465 
 3793      7374496E 
 3793      666F00
 3794              	.LASF66:
 3795 08b6 4C45445F 		.ascii	"LED_09_B\000"
 3795      30395F42 
 3795      00
 3796              	.LASF52:
 3797 08bf 4C45445F 		.ascii	"LED_13_R\000"
 3797      31335F52 
 3797      00
 3798              	.LASF65:
 3799 08c8 4C45445F 		.ascii	"LED_09_G\000"
 3799      30395F47 
 3799      00
 3800              	.LASF129:
 3801 08d1 52544553 		.ascii	"RTEST_SIREN\000"
 3801      545F5349 
 3801      52454E00 
 3802              	.LASF64:
 3803 08dd 4C45445F 		.ascii	"LED_09_R\000"
 3803      30395F52 
 3803      00
 3804              	.LASF28:
 3805 08e6 566F6C74 		.ascii	"Voltage_BATT\000"
 3805      6167655F 
ARM GAS  C:\Users\MARTHN~1\AppData\Local\Temp\ccDJiEkb.s 			page 89


 3805      42415454 
 3805      00
 3806              	.LASF20:
 3807 08f3 53746174 		.ascii	"Status\000"
 3807      757300
 3808              	.LASF154:
 3809 08fa 53546573 		.ascii	"STest_PlayTestTone\000"
 3809      745F506C 
 3809      61795465 
 3809      7374546F 
 3809      6E6500
 3810              	.LASF173:
 3811 090d 433A5C55 		.ascii	"C:\\Users\\marthnick\\Desktop\\firm_F1-TestFixture\\"
 3811      73657273 
 3811      5C6D6172 
 3811      74686E69 
 3811      636B5C44 
 3812 093c 46312D54 		.ascii	"F1-TestFixture.cydsn\000"
 3812      65737446 
 3812      69787475 
 3812      72652E63 
 3812      7964736E 
 3813              	.LASF42:
 3814 0951 74784461 		.ascii	"txData\000"
 3814      746100
 3815              	.LASF142:
 3816 0958 50425F4E 		.ascii	"PB_NextAction_failcount\000"
 3816      65787441 
 3816      6374696F 
 3816      6E5F6661 
 3816      696C636F 
 3817              	.LASF84:
 3818 0970 4C45445F 		.ascii	"LED_03_B\000"
 3818      30335F42 
 3818      00
 3819              	.LASF140:
 3820 0979 50415353 		.ascii	"PASS\000"
 3820      00
 3821              	.LASF83:
 3822 097e 4C45445F 		.ascii	"LED_03_G\000"
 3822      30335F47 
 3822      00
 3823              		.ident	"GCC: (GNU Tools for ARM Embedded Processors) 5.4.1 20160609 (release) [ARM/embedded-5-bran
