ARM GAS  C:\Users\MARTHN~1\AppData\Local\Temp\cc9s7i0j.s 			page 1


   1              		.syntax unified
   2              		.cpu cortex-m3
   3              		.fpu softvfp
   4              		.eabi_attribute 20, 1
   5              		.eabi_attribute 21, 1
   6              		.eabi_attribute 23, 3
   7              		.eabi_attribute 24, 1
   8              		.eabi_attribute 25, 1
   9              		.eabi_attribute 26, 1
  10              		.eabi_attribute 30, 6
  11              		.eabi_attribute 34, 1
  12              		.eabi_attribute 18, 4
  13              		.thumb
  14              		.syntax unified
  15              		.file	"SirenTest.c"
  16              		.text
  17              	.Ltext0:
  18              		.cfi_sections	.debug_frame
  19              		.bss
  20              		.align	2
  21              	STestStatus:
  22 0000 00000000 		.space	8
  22      00000000 
  23              	TestState:
  24 0008 00       		.space	1
  25              		.section	.text.SirenTest,"ax",%progbits
  26              		.align	2
  27              		.global	SirenTest
  28              		.thumb
  29              		.thumb_func
  30              		.type	SirenTest, %function
  31              	SirenTest:
  32              	.LFB63:
  33              		.file 1 "SirenTest.c"
   1:SirenTest.c   **** /* ========================================
   2:SirenTest.c   ****  *
   3:SirenTest.c   ****  * Copyright YOUR COMPANY, THE YEAR
   4:SirenTest.c   ****  * All Rights Reserved
   5:SirenTest.c   ****  * UNPUBLISHED, LICENSED SOFTWARE.
   6:SirenTest.c   ****  *
   7:SirenTest.c   ****  * CONFIDENTIAL AND PROPRIETARY INFORMATION
   8:SirenTest.c   ****  * WHICH IS THE PROPERTY OF your company.
   9:SirenTest.c   ****  *
  10:SirenTest.c   ****  * ========================================
  11:SirenTest.c   **** */
  12:SirenTest.c   **** 
  13:SirenTest.c   **** #include <project.h>
  14:SirenTest.c   **** #include "SirenTest.h"
  15:SirenTest.c   **** #include "UART_230400_Functions.h"
  16:SirenTest.c   **** 
  17:SirenTest.c   **** #define NUMBER_TEST_STEPS 8
  18:SirenTest.c   **** 
  19:SirenTest.c   **** // --------------Test steps---------------
  20:SirenTest.c   **** enum TestStep
  21:SirenTest.c   **** { 
  22:SirenTest.c   ****     INITIALIZE_TEST, 
  23:SirenTest.c   ****     RRB_AMP1,
ARM GAS  C:\Users\MARTHN~1\AppData\Local\Temp\cc9s7i0j.s 			page 2


  24:SirenTest.c   ****     MIC_AMP2,
  25:SirenTest.c   ****     AUDIO_STREAM,
  26:SirenTest.c   ****     FLASH,
  27:SirenTest.c   ****     OVERLOAD,
  28:SirenTest.c   ****     FAIL
  29:SirenTest.c   **** };
  30:SirenTest.c   **** 
  31:SirenTest.c   **** static uint8 STestStatus[NUMBER_TEST_STEPS];
  32:SirenTest.c   **** 
  33:SirenTest.c   **** static uint8 TestState = INITIALIZE_TEST;
  34:SirenTest.c   **** 
  35:SirenTest.c   **** void SirenTest(void)
  36:SirenTest.c   **** {
  34              		.loc 1 36 0
  35              		.cfi_startproc
  36              		@ args = 0, pretend = 0, frame = 0
  37              		@ frame_needed = 1, uses_anonymous_args = 0
  38              		@ link register save eliminated.
  39 0000 80B4     		push	{r7}
  40              		.cfi_def_cfa_offset 4
  41              		.cfi_offset 7, -4
  42 0002 00AF     		add	r7, sp, #0
  43              		.cfi_def_cfa_register 7
  37:SirenTest.c   ****     
  38:SirenTest.c   ****     switch(TestState)
  44              		.loc 1 38 0
  45 0004 224B     		ldr	r3, .L14
  46 0006 1B78     		ldrb	r3, [r3]	@ zero_extendqisi2
  47 0008 062B     		cmp	r3, #6
  48 000a 3DD8     		bhi	.L12
  49 000c 01A2     		adr	r2, .L4
  50 000e 52F823F0 		ldr	pc, [r2, r3, lsl #2]
  51 0012 00BF     		.p2align 2
  52              	.L4:
  53 0014 31000000 		.word	.L3+1
  54 0018 39000000 		.word	.L5+1
  55 001c 67000000 		.word	.L6+1
  56 0020 6F000000 		.word	.L7+1
  57 0024 77000000 		.word	.L8+1
  58 0028 7F000000 		.word	.L9+1
  59 002c 87000000 		.word	.L13+1
  60              		.p2align 1
  61              	.L3:
  39:SirenTest.c   ****     {   
  40:SirenTest.c   ****         
  41:SirenTest.c   ****         //-------------------------         
  42:SirenTest.c   ****         case INITIALIZE_TEST:
  43:SirenTest.c   ****         
  44:SirenTest.c   ****             TestState = RRB_AMP1;
  62              		.loc 1 44 0
  63 0030 174B     		ldr	r3, .L14
  64 0032 0122     		movs	r2, #1
  65 0034 1A70     		strb	r2, [r3]
  45:SirenTest.c   ****         
  46:SirenTest.c   ****         break;
  66              		.loc 1 46 0
  67 0036 27E0     		b	.L2
ARM GAS  C:\Users\MARTHN~1\AppData\Local\Temp\cc9s7i0j.s 			page 3


  68              	.L5:
  47:SirenTest.c   ****         
  48:SirenTest.c   ****         //-------------------------        
  49:SirenTest.c   ****         case RRB_AMP1:
  50:SirenTest.c   ****                         
  51:SirenTest.c   ****             STestStatus[TestState] = 'B';
  69              		.loc 1 51 0
  70 0038 154B     		ldr	r3, .L14
  71 003a 1B78     		ldrb	r3, [r3]	@ zero_extendqisi2
  72 003c 1A46     		mov	r2, r3
  73 003e 154B     		ldr	r3, .L14+4
  74 0040 4221     		movs	r1, #66
  75 0042 9954     		strb	r1, [r3, r2]
  52:SirenTest.c   **** 
  53:SirenTest.c   ****             //STest_20ms_isr_count = 0;
  54:SirenTest.c   ****             //STest_20ms_isr_EN = 1;
  55:SirenTest.c   ****              
  56:SirenTest.c   ****             //while( (!STest_Test_Amp1()) && (STestStatus[TestState] != 'F') )              // Wait
  57:SirenTest.c   ****             //{} 
  58:SirenTest.c   ****             
  59:SirenTest.c   ****             //STest_20ms_isr_EN = 0;
  60:SirenTest.c   ****             
  61:SirenTest.c   ****             if(STestStatus[TestState] != 'F')       // If not failed, then pass
  76              		.loc 1 61 0
  77 0044 124B     		ldr	r3, .L14
  78 0046 1B78     		ldrb	r3, [r3]	@ zero_extendqisi2
  79 0048 1A46     		mov	r2, r3
  80 004a 124B     		ldr	r3, .L14+4
  81 004c 9B5C     		ldrb	r3, [r3, r2]	@ zero_extendqisi2
  82 004e 462B     		cmp	r3, #70
  83 0050 05D0     		beq	.L11
  62:SirenTest.c   ****                 STestStatus[TestState] = 'P';
  84              		.loc 1 62 0
  85 0052 0F4B     		ldr	r3, .L14
  86 0054 1B78     		ldrb	r3, [r3]	@ zero_extendqisi2
  87 0056 1A46     		mov	r2, r3
  88 0058 0E4B     		ldr	r3, .L14+4
  89 005a 5021     		movs	r1, #80
  90 005c 9954     		strb	r1, [r3, r2]
  91              	.L11:
  63:SirenTest.c   ****         
  64:SirenTest.c   ****             TestState = MIC_AMP2;
  92              		.loc 1 64 0
  93 005e 0C4B     		ldr	r3, .L14
  94 0060 0222     		movs	r2, #2
  95 0062 1A70     		strb	r2, [r3]
  65:SirenTest.c   ****         
  66:SirenTest.c   ****         break;    
  96              		.loc 1 66 0
  97 0064 10E0     		b	.L2
  98              	.L6:
  67:SirenTest.c   ****         
  68:SirenTest.c   ****         //-------------------------        
  69:SirenTest.c   ****         case MIC_AMP2:  
  70:SirenTest.c   ****         
  71:SirenTest.c   ****             TestState = AUDIO_STREAM;
  99              		.loc 1 71 0
ARM GAS  C:\Users\MARTHN~1\AppData\Local\Temp\cc9s7i0j.s 			page 4


 100 0066 0A4B     		ldr	r3, .L14
 101 0068 0322     		movs	r2, #3
 102 006a 1A70     		strb	r2, [r3]
  72:SirenTest.c   ****         
  73:SirenTest.c   ****         break;        
 103              		.loc 1 73 0
 104 006c 0CE0     		b	.L2
 105              	.L7:
  74:SirenTest.c   ****         
  75:SirenTest.c   ****         //-------------------------        
  76:SirenTest.c   ****         case AUDIO_STREAM:  
  77:SirenTest.c   ****         
  78:SirenTest.c   ****             TestState = FLASH;
 106              		.loc 1 78 0
 107 006e 084B     		ldr	r3, .L14
 108 0070 0422     		movs	r2, #4
 109 0072 1A70     		strb	r2, [r3]
  79:SirenTest.c   ****         
  80:SirenTest.c   ****         break;  
 110              		.loc 1 80 0
 111 0074 08E0     		b	.L2
 112              	.L8:
  81:SirenTest.c   ****         
  82:SirenTest.c   ****         //-------------------------        
  83:SirenTest.c   ****         case FLASH:  
  84:SirenTest.c   ****         
  85:SirenTest.c   ****             TestState = OVERLOAD;
 113              		.loc 1 85 0
 114 0076 064B     		ldr	r3, .L14
 115 0078 0522     		movs	r2, #5
 116 007a 1A70     		strb	r2, [r3]
  86:SirenTest.c   ****         
  87:SirenTest.c   ****         break;  
 117              		.loc 1 87 0
 118 007c 04E0     		b	.L2
 119              	.L9:
  88:SirenTest.c   ****         
  89:SirenTest.c   ****         //-------------------------        
  90:SirenTest.c   ****         case OVERLOAD:
  91:SirenTest.c   ****         
  92:SirenTest.c   ****             TestState = INITIALIZE_TEST;
 120              		.loc 1 92 0
 121 007e 044B     		ldr	r3, .L14
 122 0080 0022     		movs	r2, #0
 123 0082 1A70     		strb	r2, [r3]
  93:SirenTest.c   ****         
  94:SirenTest.c   ****         break;  
 124              		.loc 1 94 0
 125 0084 00E0     		b	.L2
 126              	.L13:
  95:SirenTest.c   ****         
  96:SirenTest.c   ****         //-------------------------        
  97:SirenTest.c   ****         case FAIL:  
  98:SirenTest.c   ****         
  99:SirenTest.c   ****         break;          
 127              		.loc 1 99 0
 128 0086 00BF     		nop
ARM GAS  C:\Users\MARTHN~1\AppData\Local\Temp\cc9s7i0j.s 			page 5


 129              	.L2:
 130              	.L12:
 100:SirenTest.c   ****            
 101:SirenTest.c   ****     }
 102:SirenTest.c   **** 
 103:SirenTest.c   **** }
 131              		.loc 1 103 0
 132 0088 00BF     		nop
 133 008a BD46     		mov	sp, r7
 134              		.cfi_def_cfa_register 13
 135              		@ sp needed
 136 008c 80BC     		pop	{r7}
 137              		.cfi_restore 7
 138              		.cfi_def_cfa_offset 0
 139 008e 7047     		bx	lr
 140              	.L15:
 141              		.align	2
 142              	.L14:
 143 0090 08000000 		.word	TestState
 144 0094 00000000 		.word	STestStatus
 145              		.cfi_endproc
 146              	.LFE63:
 147              		.size	SirenTest, .-SirenTest
 148              		.section	.text.STest_20ms_isr,"ax",%progbits
 149              		.align	2
 150              		.global	STest_20ms_isr
 151              		.thumb
 152              		.thumb_func
 153              		.type	STest_20ms_isr, %function
 154              	STest_20ms_isr:
 155              	.LFB64:
 104:SirenTest.c   **** 
 105:SirenTest.c   **** void STest_20ms_isr(void)
 106:SirenTest.c   **** {
 156              		.loc 1 106 0
 157              		.cfi_startproc
 158              		@ args = 0, pretend = 0, frame = 0
 159              		@ frame_needed = 1, uses_anonymous_args = 0
 160              		@ link register save eliminated.
 161 0000 80B4     		push	{r7}
 162              		.cfi_def_cfa_offset 4
 163              		.cfi_offset 7, -4
 164 0002 00AF     		add	r7, sp, #0
 165              		.cfi_def_cfa_register 7
 107:SirenTest.c   ****     
 108:SirenTest.c   ****     
 109:SirenTest.c   ****     
 110:SirenTest.c   **** }
 166              		.loc 1 110 0
 167 0004 00BF     		nop
 168 0006 BD46     		mov	sp, r7
 169              		.cfi_def_cfa_register 13
 170              		@ sp needed
 171 0008 80BC     		pop	{r7}
 172              		.cfi_restore 7
 173              		.cfi_def_cfa_offset 0
 174 000a 7047     		bx	lr
ARM GAS  C:\Users\MARTHN~1\AppData\Local\Temp\cc9s7i0j.s 			page 6


 175              		.cfi_endproc
 176              	.LFE64:
 177              		.size	STest_20ms_isr, .-STest_20ms_isr
 178              		.section	.text.STest_50ms_isr,"ax",%progbits
 179              		.align	2
 180              		.global	STest_50ms_isr
 181              		.thumb
 182              		.thumb_func
 183              		.type	STest_50ms_isr, %function
 184              	STest_50ms_isr:
 185              	.LFB65:
 111:SirenTest.c   **** 
 112:SirenTest.c   **** void STest_50ms_isr(void)
 113:SirenTest.c   **** {
 186              		.loc 1 113 0
 187              		.cfi_startproc
 188              		@ args = 0, pretend = 0, frame = 0
 189              		@ frame_needed = 1, uses_anonymous_args = 0
 190              		@ link register save eliminated.
 191 0000 80B4     		push	{r7}
 192              		.cfi_def_cfa_offset 4
 193              		.cfi_offset 7, -4
 194 0002 00AF     		add	r7, sp, #0
 195              		.cfi_def_cfa_register 7
 114:SirenTest.c   ****     
 115:SirenTest.c   ****     
 116:SirenTest.c   **** }
 196              		.loc 1 116 0
 197 0004 00BF     		nop
 198 0006 BD46     		mov	sp, r7
 199              		.cfi_def_cfa_register 13
 200              		@ sp needed
 201 0008 80BC     		pop	{r7}
 202              		.cfi_restore 7
 203              		.cfi_def_cfa_offset 0
 204 000a 7047     		bx	lr
 205              		.cfi_endproc
 206              	.LFE65:
 207              		.size	STest_50ms_isr, .-STest_50ms_isr
 208              		.section	.text.STest_sendDiagPacket,"ax",%progbits
 209              		.align	2
 210              		.global	STest_sendDiagPacket
 211              		.thumb
 212              		.thumb_func
 213              		.type	STest_sendDiagPacket, %function
 214              	STest_sendDiagPacket:
 215              	.LFB66:
 117:SirenTest.c   **** 
 118:SirenTest.c   **** void STest_sendDiagPacket(void)
 119:SirenTest.c   **** {
 216              		.loc 1 119 0
 217              		.cfi_startproc
 218              		@ args = 0, pretend = 0, frame = 8
 219              		@ frame_needed = 1, uses_anonymous_args = 0
 220 0000 80B5     		push	{r7, lr}
 221              		.cfi_def_cfa_offset 8
 222              		.cfi_offset 7, -8
ARM GAS  C:\Users\MARTHN~1\AppData\Local\Temp\cc9s7i0j.s 			page 7


 223              		.cfi_offset 14, -4
 224 0002 82B0     		sub	sp, sp, #8
 225              		.cfi_def_cfa_offset 16
 226 0004 00AF     		add	r7, sp, #0
 227              		.cfi_def_cfa_register 7
 228              	.LBB2:
 120:SirenTest.c   **** 
 121:SirenTest.c   ****     static uint8 STestStatus_display[ (NUMBER_TEST_STEPS*2) ];
 122:SirenTest.c   ****     
 123:SirenTest.c   ****     for(uint8 i=0;i<NUMBER_TEST_STEPS;i++)
 229              		.loc 1 123 0
 230 0006 0023     		movs	r3, #0
 231 0008 FB71     		strb	r3, [r7, #7]
 232 000a 0FE0     		b	.L19
 233              	.L20:
 124:SirenTest.c   ****     {
 125:SirenTest.c   ****         STestStatus_display[i*2] = STestStatus[i];
 234              		.loc 1 125 0 discriminator 3
 235 000c FB79     		ldrb	r3, [r7, #7]	@ zero_extendqisi2
 236 000e 5B00     		lsls	r3, r3, #1
 237 0010 FA79     		ldrb	r2, [r7, #7]	@ zero_extendqisi2
 238 0012 0F49     		ldr	r1, .L22
 239 0014 895C     		ldrb	r1, [r1, r2]	@ zero_extendqisi2
 240 0016 0F4A     		ldr	r2, .L22+4
 241 0018 D154     		strb	r1, [r2, r3]
 126:SirenTest.c   ****         STestStatus_display[(i*2) + 1] = ' ';
 242              		.loc 1 126 0 discriminator 3
 243 001a FB79     		ldrb	r3, [r7, #7]	@ zero_extendqisi2
 244 001c 5B00     		lsls	r3, r3, #1
 245 001e 0133     		adds	r3, r3, #1
 246 0020 0C4A     		ldr	r2, .L22+4
 247 0022 2021     		movs	r1, #32
 248 0024 D154     		strb	r1, [r2, r3]
 123:SirenTest.c   ****     {
 249              		.loc 1 123 0 discriminator 3
 250 0026 FB79     		ldrb	r3, [r7, #7]	@ zero_extendqisi2
 251 0028 0133     		adds	r3, r3, #1
 252 002a FB71     		strb	r3, [r7, #7]
 253              	.L19:
 123:SirenTest.c   ****     {
 254              		.loc 1 123 0 is_stmt 0 discriminator 1
 255 002c FB79     		ldrb	r3, [r7, #7]	@ zero_extendqisi2
 256 002e 072B     		cmp	r3, #7
 257 0030 ECD9     		bls	.L20
 258              	.LBE2:
 127:SirenTest.c   ****     }
 128:SirenTest.c   ****     
 129:SirenTest.c   ****     //DEMUX_CTRL_230400_Write();
 130:SirenTest.c   ****     
 131:SirenTest.c   ****     UART_230400_PutArray(STestStatus_display, (NUMBER_TEST_STEPS*2) );
 259              		.loc 1 131 0 is_stmt 1
 260 0032 1021     		movs	r1, #16
 261 0034 0748     		ldr	r0, .L22+4
 262 0036 FFF7FEFF 		bl	UART_230400_PutArray
 132:SirenTest.c   ****     
 133:SirenTest.c   ****     UART_230400_PutChar('\r');
 263              		.loc 1 133 0
ARM GAS  C:\Users\MARTHN~1\AppData\Local\Temp\cc9s7i0j.s 			page 8


 264 003a 0D20     		movs	r0, #13
 265 003c FFF7FEFF 		bl	UART_230400_PutChar
 134:SirenTest.c   ****     UART_230400_PutChar('\n');
 266              		.loc 1 134 0
 267 0040 0A20     		movs	r0, #10
 268 0042 FFF7FEFF 		bl	UART_230400_PutChar
 135:SirenTest.c   **** 
 136:SirenTest.c   ****     //LED_EN_Write(1);
 137:SirenTest.c   ****     
 138:SirenTest.c   ****     return;
 269              		.loc 1 138 0
 270 0046 00BF     		nop
 139:SirenTest.c   **** }
 271              		.loc 1 139 0
 272 0048 0837     		adds	r7, r7, #8
 273              		.cfi_def_cfa_offset 8
 274 004a BD46     		mov	sp, r7
 275              		.cfi_def_cfa_register 13
 276              		@ sp needed
 277 004c 80BD     		pop	{r7, pc}
 278              	.L23:
 279 004e 00BF     		.align	2
 280              	.L22:
 281 0050 00000000 		.word	STestStatus
 282 0054 0C000000 		.word	STestStatus_display.6314
 283              		.cfi_endproc
 284              	.LFE66:
 285              		.size	STest_sendDiagPacket, .-STest_sendDiagPacket
 286              		.bss
 287 0009 000000   		.align	2
 288              	STestStatus_display.6314:
 289 000c 00000000 		.space	16
 289      00000000 
 289      00000000 
 289      00000000 
 290              		.text
 291              	.Letext0:
 292              		.file 2 "c:\\program files (x86)\\cypress\\psoc creator\\4.3\\psoc creator\\import\\gnu\\arm\\5.4.
 293              		.file 3 "c:\\program files (x86)\\cypress\\psoc creator\\4.3\\psoc creator\\import\\gnu\\arm\\5.4.
 294              		.file 4 "Generated_Source\\PSoC5/cytypes.h"
 295              		.file 5 "Generated_Source\\PSoC5/core_cm3.h"