ARM GAS  C:\Users\MARTHN~1\AppData\Local\Temp\ccjAT0xc.s 			page 1


   1              		.syntax unified
   2              		.cpu cortex-m3
   3              		.fpu softvfp
   4              		.eabi_attribute 20, 1
   5              		.eabi_attribute 21, 1
   6              		.eabi_attribute 23, 3
   7              		.eabi_attribute 24, 1
   8              		.eabi_attribute 25, 1
   9              		.eabi_attribute 26, 1
  10              		.eabi_attribute 30, 6
  11              		.eabi_attribute 34, 1
  12              		.eabi_attribute 18, 4
  13              		.thumb
  14              		.syntax unified
  15              		.file	"UART_460800_Functions.c"
  16              		.text
  17              	.Ltext0:
  18              		.cfi_sections	.debug_frame
  19              		.comm	Test,3,4
  20              		.data
  21              		.align	2
  22              		.type	PacketList, %object
  23              		.size	PacketList, 10
  24              	PacketList:
  25 0000 7E       		.byte	126
  26 0001 41       		.byte	65
  27 0002 0A       		.byte	10
  28 0003 0D       		.byte	13
  29 0004 0A       		.byte	10
  30 0005 7E       		.byte	126
  31 0006 4C       		.byte	76
  32 0007 6F       		.byte	111
  33 0008 0D       		.byte	13
  34 0009 0A       		.byte	10
  35              		.bss
  36              		.align	2
  37              	packetsuccess:
  38 0000 00000000 		.space	8
  38      00000000 
  39              		.align	2
  40              	rxPacket_Quad:
  41 0008 00000000 		.space	111
  41      00000000 
  41      00000000 
  41      00000000 
  41      00000000 
  42 0077 00       		.align	2
  43              	pRxPacket_Quad:
  44 0078 00000000 		.space	4
  45              		.align	2
  46              	rxPacket_QuadSerial:
  47 007c 00000000 		.space	9
  47      00000000 
  47      00
  48 0085 000000   		.align	2
  49              	pRxPacket_QuadSerial:
  50 0088 00000000 		.space	4
ARM GAS  C:\Users\MARTHN~1\AppData\Local\Temp\ccjAT0xc.s 			page 2


  51              		.section	.text.processByteReceivedHandler_460800,"ax",%progbits
  52              		.align	2
  53              		.global	processByteReceivedHandler_460800
  54              		.thumb
  55              		.thumb_func
  56              		.type	processByteReceivedHandler_460800, %function
  57              	processByteReceivedHandler_460800:
  58              	.LFB63:
  59              		.file 1 "UART_460800_Functions.c"
   1:UART_460800_Functions.c **** /* ========================================
   2:UART_460800_Functions.c ****  *
   3:UART_460800_Functions.c ****  * Copyright FENIEX INDUSTRIES, 2016
   4:UART_460800_Functions.c ****  * 200W SIREN
   5:UART_460800_Functions.c ****  *
   6:UART_460800_Functions.c ****  * All Rights Reserved
   7:UART_460800_Functions.c ****  * UNPUBLISHED, LICENSED SOFTWARE.
   8:UART_460800_Functions.c ****  *
   9:UART_460800_Functions.c ****  * CONFIDENTIAL AND PROPRIETARY INFORMATION
  10:UART_460800_Functions.c ****  * WHICH IS THE PROPERTY OF your company.
  11:UART_460800_Functions.c ****  *
  12:UART_460800_Functions.c ****  * ========================================
  13:UART_460800_Functions.c **** */
  14:UART_460800_Functions.c **** 
  15:UART_460800_Functions.c **** /**********CHANGE LOG**********/
  16:UART_460800_Functions.c **** 
  17:UART_460800_Functions.c **** 
  18:UART_460800_Functions.c **** /**********PREPROCESSOR DIRECTIVES**********/
  19:UART_460800_Functions.c **** #include "CommonVariables.h"
  20:UART_460800_Functions.c **** #include "UART_460800_Functions.h"
  21:UART_460800_Functions.c **** 
  22:UART_460800_Functions.c **** #define HEADER_BYTE_COUNT       2
  23:UART_460800_Functions.c **** #define EOP_BYTE_COUNT          2
  24:UART_460800_Functions.c **** 
  25:UART_460800_Functions.c **** #define HEADER_START_INDEX      0
  26:UART_460800_Functions.c **** #define PAYLOAD_START_INDEX     HEADER_BYTE_COUNT
  27:UART_460800_Functions.c **** 
  28:UART_460800_Functions.c **** #define MAX_PAYLOAD_BYTE_COUNT  111
  29:UART_460800_Functions.c **** #define PACKET_TYPE_COUNT       2
  30:UART_460800_Functions.c **** 
  31:UART_460800_Functions.c **** /**************************************/
  32:UART_460800_Functions.c **** #define PACKET_VERIFICATION_COUNT   5
  33:UART_460800_Functions.c **** 
  34:UART_460800_Functions.c **** /**********DEFINED CONSTANTS**********/
  35:UART_460800_Functions.c **** enum DEMUX_460800_CHANNEL
  36:UART_460800_Functions.c **** { 
  37:UART_460800_Functions.c ****     CTEST_OBDII_TX,       
  38:UART_460800_Functions.c ****     RTEST_QUAD_TX,       
  39:UART_460800_Functions.c ****     STEST_AUDIO_TX,
  40:UART_460800_Functions.c **** };
  41:UART_460800_Functions.c **** 
  42:UART_460800_Functions.c **** enum DataType
  43:UART_460800_Functions.c **** { 
  44:UART_460800_Functions.c ****     CTEST_AUDIO,        // This is for both cont and relay tests
  45:UART_460800_Functions.c ****     CTEST_RTEST_QUAD,   // CTest/RTest - quad normal - (controller to relay, relay to quad)
  46:UART_460800_Functions.c **** //    CTEST_A,            //*** needs to  (*** not used - only need to look for 'L' packet)
  47:UART_460800_Functions.c **** //    QTEST_QUAD          // (*** not used - Quad-Controller packets - type 'C')
  48:UART_460800_Functions.c **** };
ARM GAS  C:\Users\MARTHN~1\AppData\Local\Temp\ccjAT0xc.s 			page 3


  49:UART_460800_Functions.c **** 
  50:UART_460800_Functions.c **** enum PacketState
  51:UART_460800_Functions.c **** {
  52:UART_460800_Functions.c ****     HEADER_STATE,
  53:UART_460800_Functions.c ****     PAYLOAD_STATE,
  54:UART_460800_Functions.c ****     EOP_STATE
  55:UART_460800_Functions.c **** };
  56:UART_460800_Functions.c **** 
  57:UART_460800_Functions.c **** /**********DATA STRUCTURES**********/
  58:UART_460800_Functions.c **** typedef struct
  59:UART_460800_Functions.c **** {
  60:UART_460800_Functions.c ****     const uint8 HEADER_BYTE;
  61:UART_460800_Functions.c ****     const uint8 PACKET_TYPE;
  62:UART_460800_Functions.c ****     const uint8 PAYLOAD_SIZE;
  63:UART_460800_Functions.c ****     const uint8 EOP_CARRIAGE_RETURN;
  64:UART_460800_Functions.c ****     const uint8 EOP_LINE_FEED;
  65:UART_460800_Functions.c **** }Packet;
  66:UART_460800_Functions.c **** 
  67:UART_460800_Functions.c **** static Packet PacketList[PACKET_TYPE_COUNT] = 
  68:UART_460800_Functions.c **** {
  69:UART_460800_Functions.c ****     {'~', 'A', 10, '\r', '\n'},             // CTest - audio stream - (controller to siren)
  70:UART_460800_Functions.c ****     {'~', 'L', 111, '\r', '\n'},            // CTest/RTest - quad stream - (controller to relay, re
  71:UART_460800_Functions.c **** //    {'~', 'Y', 9, '\r', '\n'},              // (*** not used - only need to look for 'L' packet)
  72:UART_460800_Functions.c **** //    {'~', 'C', 4, '\r', '\n'},              // (*** not used - Quad-Controller packets)
  73:UART_460800_Functions.c **** };
  74:UART_460800_Functions.c **** 
  75:UART_460800_Functions.c **** ///**********GLOBAL VARIABLES**********/
  76:UART_460800_Functions.c **** //static uint16 singlepacketsuccess = 0;
  77:UART_460800_Functions.c **** static uint16 packetsuccess[4] = {0,0,0,0};
  78:UART_460800_Functions.c **** 
  79:UART_460800_Functions.c **** static RxPacket_Quad rxPacket_Quad;            
  80:UART_460800_Functions.c **** static RxPacket_Quad * pRxPacket_Quad;  
  81:UART_460800_Functions.c **** 
  82:UART_460800_Functions.c **** static RxPacket_QuadSerial rxPacket_QuadSerial;            
  83:UART_460800_Functions.c **** static RxPacket_QuadSerial * pRxPacket_QuadSerial; 
  84:UART_460800_Functions.c **** 
  85:UART_460800_Functions.c **** 
  86:UART_460800_Functions.c **** /**********LOCAL FUNCTION PROTOTYPES**********/
  87:UART_460800_Functions.c **** static void detectPacket(uint8 dataByte);
  88:UART_460800_Functions.c **** 
  89:UART_460800_Functions.c **** /**********DEFINED GLOBAL FUNCTIONS**********/
  90:UART_460800_Functions.c **** 
  91:UART_460800_Functions.c **** //RxPacket_DL2 * getRxPacket_DL2(void)
  92:UART_460800_Functions.c **** //{
  93:UART_460800_Functions.c **** //    pRxPacket_DL2 = &rxPacket_DL2;
  94:UART_460800_Functions.c **** //    
  95:UART_460800_Functions.c **** //    return pRxPacket_DL2;
  96:UART_460800_Functions.c **** //}
  97:UART_460800_Functions.c **** 
  98:UART_460800_Functions.c **** //RxPacket * getRxPacket(void)
  99:UART_460800_Functions.c **** //{
 100:UART_460800_Functions.c **** //    pRxPacket = &rxPacket;
 101:UART_460800_Functions.c **** //    
 102:UART_460800_Functions.c **** //    return pRxPacket;
 103:UART_460800_Functions.c **** //}
 104:UART_460800_Functions.c **** 
 105:UART_460800_Functions.c **** /*******************************************************************************
ARM GAS  C:\Users\MARTHN~1\AppData\Local\Temp\ccjAT0xc.s 			page 4


 106:UART_460800_Functions.c **** * Function Name: processByteReceivedHandler
 107:UART_460800_Functions.c **** ********************************************************************************
 108:UART_460800_Functions.c **** *
 109:UART_460800_Functions.c **** * Summary:
 110:UART_460800_Functions.c **** *  Triggers when a byte is received in UART, called in UART_ISR(). If in voice
 111:UART_460800_Functions.c **** *  stream mode, the byte is sent directly to the DAC.
 112:UART_460800_Functions.c **** *
 113:UART_460800_Functions.c **** * Parameters:
 114:UART_460800_Functions.c **** *  None.
 115:UART_460800_Functions.c **** *
 116:UART_460800_Functions.c **** * Return:
 117:UART_460800_Functions.c **** *  None.
 118:UART_460800_Functions.c **** *
 119:UART_460800_Functions.c **** *******************************************************************************/
 120:UART_460800_Functions.c **** void processByteReceivedHandler_460800(void)
 121:UART_460800_Functions.c **** {
  60              		.loc 1 121 0
  61              		.cfi_startproc
  62              		@ args = 0, pretend = 0, frame = 8
  63              		@ frame_needed = 1, uses_anonymous_args = 0
  64 0000 80B5     		push	{r7, lr}
  65              		.cfi_def_cfa_offset 8
  66              		.cfi_offset 7, -8
  67              		.cfi_offset 14, -4
  68 0002 82B0     		sub	sp, sp, #8
  69              		.cfi_def_cfa_offset 16
  70 0004 00AF     		add	r7, sp, #0
  71              		.cfi_def_cfa_register 7
 122:UART_460800_Functions.c ****     uint8 dataByte = 0;
  72              		.loc 1 122 0
  73 0006 0023     		movs	r3, #0
  74 0008 FB71     		strb	r3, [r7, #7]
  75              	.L3:
 123:UART_460800_Functions.c ****     
 124:UART_460800_Functions.c ****     static uint8 testbuffer[100];
 125:UART_460800_Functions.c ****     static uint8 testbuffer_count = 0;
 126:UART_460800_Functions.c ****     
 127:UART_460800_Functions.c ****     do
 128:UART_460800_Functions.c ****     {
 129:UART_460800_Functions.c ****         dataByte = UART_460800_GetChar();
  76              		.loc 1 129 0
  77 000a FFF7FEFF 		bl	UART_460800_GetChar
  78 000e 0346     		mov	r3, r0
  79 0010 FB71     		strb	r3, [r7, #7]
 130:UART_460800_Functions.c ****         
 131:UART_460800_Functions.c ****         testbuffer[testbuffer_count] = dataByte;
  80              		.loc 1 131 0
  81 0012 114B     		ldr	r3, .L4
  82 0014 1B78     		ldrb	r3, [r3]	@ zero_extendqisi2
  83 0016 1946     		mov	r1, r3
  84 0018 104A     		ldr	r2, .L4+4
  85 001a FB79     		ldrb	r3, [r7, #7]
  86 001c 5354     		strb	r3, [r2, r1]
 132:UART_460800_Functions.c ****         testbuffer_count++;
  87              		.loc 1 132 0
  88 001e 0E4B     		ldr	r3, .L4
  89 0020 1B78     		ldrb	r3, [r3]	@ zero_extendqisi2
ARM GAS  C:\Users\MARTHN~1\AppData\Local\Temp\ccjAT0xc.s 			page 5


  90 0022 0133     		adds	r3, r3, #1
  91 0024 DAB2     		uxtb	r2, r3
  92 0026 0C4B     		ldr	r3, .L4
  93 0028 1A70     		strb	r2, [r3]
 133:UART_460800_Functions.c ****         if(testbuffer_count >= 100)
  94              		.loc 1 133 0
  95 002a 0B4B     		ldr	r3, .L4
  96 002c 1B78     		ldrb	r3, [r3]	@ zero_extendqisi2
  97 002e 632B     		cmp	r3, #99
  98 0030 02D9     		bls	.L2
 134:UART_460800_Functions.c ****             testbuffer_count = 0;
  99              		.loc 1 134 0
 100 0032 094B     		ldr	r3, .L4
 101 0034 0022     		movs	r2, #0
 102 0036 1A70     		strb	r2, [r3]
 103              	.L2:
 135:UART_460800_Functions.c ****         
 136:UART_460800_Functions.c ****         detectPacket(dataByte);
 104              		.loc 1 136 0
 105 0038 FB79     		ldrb	r3, [r7, #7]	@ zero_extendqisi2
 106 003a 1846     		mov	r0, r3
 107 003c FFF7FEFF 		bl	detectPacket
 137:UART_460800_Functions.c ****         
 138:UART_460800_Functions.c ****     }while(UART_460800_ReadRxStatus() & UART_460800_RX_STS_FIFO_NOTEMPTY);
 108              		.loc 1 138 0
 109 0040 FFF7FEFF 		bl	UART_460800_ReadRxStatus
 110 0044 0346     		mov	r3, r0
 111 0046 03F02003 		and	r3, r3, #32
 112 004a 002B     		cmp	r3, #0
 113 004c DDD1     		bne	.L3
 139:UART_460800_Functions.c ****     
 140:UART_460800_Functions.c ****     //UART_Timer_Start();
 141:UART_460800_Functions.c **** }
 114              		.loc 1 141 0
 115 004e 00BF     		nop
 116 0050 0837     		adds	r7, r7, #8
 117              		.cfi_def_cfa_offset 8
 118 0052 BD46     		mov	sp, r7
 119              		.cfi_def_cfa_register 13
 120              		@ sp needed
 121 0054 80BD     		pop	{r7, pc}
 122              	.L5:
 123 0056 00BF     		.align	2
 124              	.L4:
 125 0058 8C000000 		.word	testbuffer_count.7158
 126 005c 90000000 		.word	testbuffer.7157
 127              		.cfi_endproc
 128              	.LFE63:
 129              		.size	processByteReceivedHandler_460800, .-processByteReceivedHandler_460800
 130              		.section	.text.detectPacket,"ax",%progbits
 131              		.align	2
 132              		.thumb
 133              		.thumb_func
 134              		.type	detectPacket, %function
 135              	detectPacket:
 136              	.LFB64:
 142:UART_460800_Functions.c **** 
ARM GAS  C:\Users\MARTHN~1\AppData\Local\Temp\ccjAT0xc.s 			page 6


 143:UART_460800_Functions.c **** 
 144:UART_460800_Functions.c **** /**********DEFINED LOCAL FUNCTIONS**********/
 145:UART_460800_Functions.c **** /*******************************************************************************
 146:UART_460800_Functions.c **** * Function Name: detectPacket
 147:UART_460800_Functions.c **** ********************************************************************************
 148:UART_460800_Functions.c **** *
 149:UART_460800_Functions.c **** * Summary:
 150:UART_460800_Functions.c **** *  Determines if the incoming byte belongs to a valid packet. If the packet is for
 151:UART_460800_Functions.c **** *  for starting voice stream, voice stream mode will be activated.
 152:UART_460800_Functions.c **** *
 153:UART_460800_Functions.c **** * Parameters:
 154:UART_460800_Functions.c **** *  dataByte: The byte to check
 155:UART_460800_Functions.c **** *
 156:UART_460800_Functions.c **** * Return:
 157:UART_460800_Functions.c **** *  None.
 158:UART_460800_Functions.c **** *
 159:UART_460800_Functions.c **** *******************************************************************************/
 160:UART_460800_Functions.c **** static void detectPacket(uint8 dataByte)
 161:UART_460800_Functions.c **** {
 137              		.loc 1 161 0
 138              		.cfi_startproc
 139              		@ args = 0, pretend = 0, frame = 8
 140              		@ frame_needed = 1, uses_anonymous_args = 0
 141              		@ link register save eliminated.
 142 0000 80B4     		push	{r7}
 143              		.cfi_def_cfa_offset 4
 144              		.cfi_offset 7, -4
 145 0002 83B0     		sub	sp, sp, #12
 146              		.cfi_def_cfa_offset 16
 147 0004 00AF     		add	r7, sp, #0
 148              		.cfi_def_cfa_register 7
 149 0006 0346     		mov	r3, r0
 150 0008 FB71     		strb	r3, [r7, #7]
 162:UART_460800_Functions.c ****     static uint8 packet[MAX_PAYLOAD_BYTE_COUNT+HEADER_BYTE_COUNT+EOP_BYTE_COUNT];   
 163:UART_460800_Functions.c ****     static enum PacketState currentState = HEADER_STATE;
 164:UART_460800_Functions.c ****     static enum DataType currentType = CTEST_AUDIO;
 165:UART_460800_Functions.c ****     static uint8 currentPacketIndex = HEADER_START_INDEX;
 166:UART_460800_Functions.c ****     
 167:UART_460800_Functions.c ****     switch(currentState)
 151              		.loc 1 167 0
 152 000a 7E4B     		ldr	r3, .L27
 153 000c 1B78     		ldrb	r3, [r3]	@ zero_extendqisi2
 154 000e 012B     		cmp	r3, #1
 155 0010 5AD0     		beq	.L8
 156 0012 022B     		cmp	r3, #2
 157 0014 78D0     		beq	.L9
 158 0016 002B     		cmp	r3, #0
 159 0018 00D0     		beq	.L10
 168:UART_460800_Functions.c ****     {
 169:UART_460800_Functions.c ****         case HEADER_STATE:
 170:UART_460800_Functions.c ****             if( (currentPacketIndex == HEADER_START_INDEX) && ( (dataByte == PacketList[CTEST_AUDIO
 171:UART_460800_Functions.c ****                                                                 (dataByte == PacketList[CTEST_RTEST
 172:UART_460800_Functions.c **** //                                                                (dataByte == PacketList[CTEST_A].
 173:UART_460800_Functions.c **** //                                                                (dataByte == PacketList[QTEST_QUA
 174:UART_460800_Functions.c ****             {
 175:UART_460800_Functions.c ****                 packet[currentPacketIndex] = dataByte;
 176:UART_460800_Functions.c ****                 currentPacketIndex++;
ARM GAS  C:\Users\MARTHN~1\AppData\Local\Temp\ccjAT0xc.s 			page 7


 177:UART_460800_Functions.c ****             }
 178:UART_460800_Functions.c ****             else if( (currentPacketIndex == (HEADER_START_INDEX+1)) && ( (dataByte == PacketList[CT
 179:UART_460800_Functions.c ****                                                                             (dataByte == PacketList
 180:UART_460800_Functions.c **** //                                                                            (dataByte == PacketLi
 181:UART_460800_Functions.c **** //                                                                            (dataByte == PacketLi
 182:UART_460800_Functions.c ****             {
 183:UART_460800_Functions.c ****                 packet[currentPacketIndex] = dataByte;
 184:UART_460800_Functions.c ****                 currentPacketIndex++;
 185:UART_460800_Functions.c ****                 currentState = PAYLOAD_STATE;
 186:UART_460800_Functions.c ****                 
 187:UART_460800_Functions.c ****                 if(dataByte == PacketList[CTEST_AUDIO].PACKET_TYPE)
 188:UART_460800_Functions.c ****                     currentType = CTEST_AUDIO;
 189:UART_460800_Functions.c ****                 else if(dataByte == PacketList[CTEST_RTEST_QUAD].PACKET_TYPE)
 190:UART_460800_Functions.c ****                     currentType = CTEST_RTEST_QUAD;
 191:UART_460800_Functions.c **** //                else if(dataByte == PacketList[CTEST_A].PACKET_TYPE)
 192:UART_460800_Functions.c **** //                    currentType = CTEST_A;
 193:UART_460800_Functions.c **** //                else if(dataByte == PacketList[QTEST_QUAD].PACKET_TYPE)
 194:UART_460800_Functions.c **** //                    currentType = QTEST_QUAD;
 195:UART_460800_Functions.c ****                 else
 196:UART_460800_Functions.c ****                     currentType = CTEST_AUDIO;
 197:UART_460800_Functions.c ****             }
 198:UART_460800_Functions.c ****             else
 199:UART_460800_Functions.c ****             {
 200:UART_460800_Functions.c ****                 currentPacketIndex = HEADER_START_INDEX;
 201:UART_460800_Functions.c ****                 currentType = CTEST_AUDIO;
 202:UART_460800_Functions.c ****             }
 203:UART_460800_Functions.c ****             break;
 204:UART_460800_Functions.c ****             
 205:UART_460800_Functions.c ****         case PAYLOAD_STATE:
 206:UART_460800_Functions.c ****             packet[currentPacketIndex] = dataByte;
 207:UART_460800_Functions.c ****             currentPacketIndex++;
 208:UART_460800_Functions.c ****             
 209:UART_460800_Functions.c ****             if(currentPacketIndex >= (PAYLOAD_START_INDEX + PacketList[currentType].PAYLOAD_SIZE))
 210:UART_460800_Functions.c ****                 currentState = EOP_STATE;
 211:UART_460800_Functions.c ****             break;   
 212:UART_460800_Functions.c ****             
 213:UART_460800_Functions.c ****         case EOP_STATE:
 214:UART_460800_Functions.c ****             if((currentPacketIndex == (PAYLOAD_START_INDEX + PacketList[currentType].PAYLOAD_SIZE))
 215:UART_460800_Functions.c ****                 (dataByte == PacketList[currentType].EOP_CARRIAGE_RETURN))
 216:UART_460800_Functions.c ****             {
 217:UART_460800_Functions.c ****                 packet[currentPacketIndex] = dataByte;
 218:UART_460800_Functions.c ****                 currentPacketIndex++;
 219:UART_460800_Functions.c ****             }
 220:UART_460800_Functions.c ****             else if((currentPacketIndex == (PAYLOAD_START_INDEX + PacketList[currentType].PAYLOAD_S
 221:UART_460800_Functions.c ****                 (dataByte == PacketList[currentType].EOP_LINE_FEED))
 222:UART_460800_Functions.c ****             {
 223:UART_460800_Functions.c ****                 packet[currentPacketIndex] = dataByte;
 224:UART_460800_Functions.c ****                               
 225:UART_460800_Functions.c ****                 if(currentType == CTEST_AUDIO)
 226:UART_460800_Functions.c ****                 {
 227:UART_460800_Functions.c **** //                   pRxPacket_Controller = getRxPacket_Controller();
 228:UART_460800_Functions.c **** //                   memcpy(&pRxPacket_Controller->bytes[0], &packet[2], PacketList[CTEST_RELAY].PA
 229:UART_460800_Functions.c ****                     packetsuccess[CTEST_AUDIO]++;   
 230:UART_460800_Functions.c ****                 }
 231:UART_460800_Functions.c ****                 else if(currentType == CTEST_RTEST_QUAD)
 232:UART_460800_Functions.c ****                 {
 233:UART_460800_Functions.c **** //                   pRxPacket_Relay = getRxPacket_Relay();
ARM GAS  C:\Users\MARTHN~1\AppData\Local\Temp\ccjAT0xc.s 			page 8


 234:UART_460800_Functions.c **** //                   memcpy(&pRxPacket_Relay->bytes[0], &packet[2], PacketList[RTEST_CONTROLLER].PA
 235:UART_460800_Functions.c ****                    packetsuccess[CTEST_RTEST_QUAD]++;   
 236:UART_460800_Functions.c ****                 }
 237:UART_460800_Functions.c **** //                else if(currentType == CTEST_A)
 238:UART_460800_Functions.c **** //                   packetsuccess[CTEST_A]++;
 239:UART_460800_Functions.c **** //
 240:UART_460800_Functions.c **** //                else if(currentType == QTEST_QUAD)
 241:UART_460800_Functions.c **** //                   packetsuccess[QTEST_QUAD]++;
 242:UART_460800_Functions.c ****                 
 243:UART_460800_Functions.c ****                 currentPacketIndex = HEADER_START_INDEX;
 244:UART_460800_Functions.c ****                 currentState = HEADER_STATE;
 245:UART_460800_Functions.c ****                 currentType = CTEST_AUDIO;
 246:UART_460800_Functions.c ****             }
 247:UART_460800_Functions.c ****             else
 248:UART_460800_Functions.c ****             {
 249:UART_460800_Functions.c ****                 currentPacketIndex = HEADER_START_INDEX;
 250:UART_460800_Functions.c ****                 currentState = HEADER_STATE;
 251:UART_460800_Functions.c ****                 currentType = CTEST_AUDIO;
 252:UART_460800_Functions.c ****             }
 253:UART_460800_Functions.c ****             break;
 254:UART_460800_Functions.c ****     }
 255:UART_460800_Functions.c **** }
 160              		.loc 1 255 0
 161 001a EDE0     		b	.L26
 162              	.L10:
 170:UART_460800_Functions.c ****                                                                 (dataByte == PacketList[CTEST_RTEST
 163              		.loc 1 170 0
 164 001c 7A4B     		ldr	r3, .L27+4
 165 001e 1B78     		ldrb	r3, [r3]	@ zero_extendqisi2
 166 0020 002B     		cmp	r3, #0
 167 0022 16D1     		bne	.L11
 170:UART_460800_Functions.c ****                                                                 (dataByte == PacketList[CTEST_RTEST
 168              		.loc 1 170 0 is_stmt 0 discriminator 1
 169 0024 794B     		ldr	r3, .L27+8
 170 0026 1B78     		ldrb	r3, [r3]	@ zero_extendqisi2
 171 0028 FA79     		ldrb	r2, [r7, #7]	@ zero_extendqisi2
 172 002a 9A42     		cmp	r2, r3
 173 002c 04D0     		beq	.L12
 171:UART_460800_Functions.c **** //                                                                (dataByte == PacketList[CTEST_A].
 174              		.loc 1 171 0 is_stmt 1 discriminator 2
 175 002e 774B     		ldr	r3, .L27+8
 176 0030 5B79     		ldrb	r3, [r3, #5]	@ zero_extendqisi2
 170:UART_460800_Functions.c ****                                                                 (dataByte == PacketList[CTEST_RTEST
 177              		.loc 1 170 0 discriminator 2
 178 0032 FA79     		ldrb	r2, [r7, #7]	@ zero_extendqisi2
 179 0034 9A42     		cmp	r2, r3
 180 0036 0CD1     		bne	.L11
 181              	.L12:
 175:UART_460800_Functions.c ****                 currentPacketIndex++;
 182              		.loc 1 175 0
 183 0038 734B     		ldr	r3, .L27+4
 184 003a 1B78     		ldrb	r3, [r3]	@ zero_extendqisi2
 185 003c 1946     		mov	r1, r3
 186 003e 744A     		ldr	r2, .L27+12
 187 0040 FB79     		ldrb	r3, [r7, #7]
 188 0042 5354     		strb	r3, [r2, r1]
 176:UART_460800_Functions.c ****             }
ARM GAS  C:\Users\MARTHN~1\AppData\Local\Temp\ccjAT0xc.s 			page 9


 189              		.loc 1 176 0
 190 0044 704B     		ldr	r3, .L27+4
 191 0046 1B78     		ldrb	r3, [r3]	@ zero_extendqisi2
 192 0048 0133     		adds	r3, r3, #1
 193 004a DAB2     		uxtb	r2, r3
 194 004c 6E4B     		ldr	r3, .L27+4
 195 004e 1A70     		strb	r2, [r3]
 196 0050 39E0     		b	.L13
 197              	.L11:
 178:UART_460800_Functions.c ****                                                                             (dataByte == PacketList
 198              		.loc 1 178 0
 199 0052 6D4B     		ldr	r3, .L27+4
 200 0054 1B78     		ldrb	r3, [r3]	@ zero_extendqisi2
 201 0056 012B     		cmp	r3, #1
 202 0058 2ED1     		bne	.L14
 178:UART_460800_Functions.c ****                                                                             (dataByte == PacketList
 203              		.loc 1 178 0 is_stmt 0 discriminator 1
 204 005a 6C4B     		ldr	r3, .L27+8
 205 005c 5B78     		ldrb	r3, [r3, #1]	@ zero_extendqisi2
 206 005e FA79     		ldrb	r2, [r7, #7]	@ zero_extendqisi2
 207 0060 9A42     		cmp	r2, r3
 208 0062 04D0     		beq	.L15
 179:UART_460800_Functions.c **** //                                                                            (dataByte == PacketLi
 209              		.loc 1 179 0 is_stmt 1 discriminator 2
 210 0064 694B     		ldr	r3, .L27+8
 211 0066 9B79     		ldrb	r3, [r3, #6]	@ zero_extendqisi2
 178:UART_460800_Functions.c ****                                                                             (dataByte == PacketList
 212              		.loc 1 178 0 discriminator 2
 213 0068 FA79     		ldrb	r2, [r7, #7]	@ zero_extendqisi2
 214 006a 9A42     		cmp	r2, r3
 215 006c 24D1     		bne	.L14
 216              	.L15:
 183:UART_460800_Functions.c ****                 currentPacketIndex++;
 217              		.loc 1 183 0
 218 006e 664B     		ldr	r3, .L27+4
 219 0070 1B78     		ldrb	r3, [r3]	@ zero_extendqisi2
 220 0072 1946     		mov	r1, r3
 221 0074 664A     		ldr	r2, .L27+12
 222 0076 FB79     		ldrb	r3, [r7, #7]
 223 0078 5354     		strb	r3, [r2, r1]
 184:UART_460800_Functions.c ****                 currentState = PAYLOAD_STATE;
 224              		.loc 1 184 0
 225 007a 634B     		ldr	r3, .L27+4
 226 007c 1B78     		ldrb	r3, [r3]	@ zero_extendqisi2
 227 007e 0133     		adds	r3, r3, #1
 228 0080 DAB2     		uxtb	r2, r3
 229 0082 614B     		ldr	r3, .L27+4
 230 0084 1A70     		strb	r2, [r3]
 185:UART_460800_Functions.c ****                 
 231              		.loc 1 185 0
 232 0086 5F4B     		ldr	r3, .L27
 233 0088 0122     		movs	r2, #1
 234 008a 1A70     		strb	r2, [r3]
 187:UART_460800_Functions.c ****                     currentType = CTEST_AUDIO;
 235              		.loc 1 187 0
 236 008c 5F4B     		ldr	r3, .L27+8
 237 008e 5B78     		ldrb	r3, [r3, #1]	@ zero_extendqisi2
ARM GAS  C:\Users\MARTHN~1\AppData\Local\Temp\ccjAT0xc.s 			page 10


 238 0090 FA79     		ldrb	r2, [r7, #7]	@ zero_extendqisi2
 239 0092 9A42     		cmp	r2, r3
 240 0094 03D1     		bne	.L16
 188:UART_460800_Functions.c ****                 else if(dataByte == PacketList[CTEST_RTEST_QUAD].PACKET_TYPE)
 241              		.loc 1 188 0
 242 0096 5F4B     		ldr	r3, .L27+16
 243 0098 0022     		movs	r2, #0
 244 009a 1A70     		strb	r2, [r3]
 187:UART_460800_Functions.c ****                     currentType = CTEST_AUDIO;
 245              		.loc 1 187 0
 246 009c 13E0     		b	.L13
 247              	.L16:
 189:UART_460800_Functions.c ****                     currentType = CTEST_RTEST_QUAD;
 248              		.loc 1 189 0
 249 009e 5B4B     		ldr	r3, .L27+8
 250 00a0 9B79     		ldrb	r3, [r3, #6]	@ zero_extendqisi2
 251 00a2 FA79     		ldrb	r2, [r7, #7]	@ zero_extendqisi2
 252 00a4 9A42     		cmp	r2, r3
 253 00a6 03D1     		bne	.L18
 190:UART_460800_Functions.c **** //                else if(dataByte == PacketList[CTEST_A].PACKET_TYPE)
 254              		.loc 1 190 0
 255 00a8 5A4B     		ldr	r3, .L27+16
 256 00aa 0122     		movs	r2, #1
 257 00ac 1A70     		strb	r2, [r3]
 187:UART_460800_Functions.c ****                     currentType = CTEST_AUDIO;
 258              		.loc 1 187 0
 259 00ae 0AE0     		b	.L13
 260              	.L18:
 196:UART_460800_Functions.c ****             }
 261              		.loc 1 196 0
 262 00b0 584B     		ldr	r3, .L27+16
 263 00b2 0022     		movs	r2, #0
 264 00b4 1A70     		strb	r2, [r3]
 187:UART_460800_Functions.c ****                     currentType = CTEST_AUDIO;
 265              		.loc 1 187 0
 266 00b6 06E0     		b	.L13
 267              	.L14:
 200:UART_460800_Functions.c ****                 currentType = CTEST_AUDIO;
 268              		.loc 1 200 0
 269 00b8 534B     		ldr	r3, .L27+4
 270 00ba 0022     		movs	r2, #0
 271 00bc 1A70     		strb	r2, [r3]
 201:UART_460800_Functions.c ****             }
 272              		.loc 1 201 0
 273 00be 554B     		ldr	r3, .L27+16
 274 00c0 0022     		movs	r2, #0
 275 00c2 1A70     		strb	r2, [r3]
 203:UART_460800_Functions.c ****             
 276              		.loc 1 203 0
 277 00c4 98E0     		b	.L7
 278              	.L13:
 203:UART_460800_Functions.c ****             
 279              		.loc 1 203 0 is_stmt 0 discriminator 1
 280 00c6 97E0     		b	.L7
 281              	.L8:
 206:UART_460800_Functions.c ****             currentPacketIndex++;
 282              		.loc 1 206 0 is_stmt 1
ARM GAS  C:\Users\MARTHN~1\AppData\Local\Temp\ccjAT0xc.s 			page 11


 283 00c8 4F4B     		ldr	r3, .L27+4
 284 00ca 1B78     		ldrb	r3, [r3]	@ zero_extendqisi2
 285 00cc 1946     		mov	r1, r3
 286 00ce 504A     		ldr	r2, .L27+12
 287 00d0 FB79     		ldrb	r3, [r7, #7]
 288 00d2 5354     		strb	r3, [r2, r1]
 207:UART_460800_Functions.c ****             
 289              		.loc 1 207 0
 290 00d4 4C4B     		ldr	r3, .L27+4
 291 00d6 1B78     		ldrb	r3, [r3]	@ zero_extendqisi2
 292 00d8 0133     		adds	r3, r3, #1
 293 00da DAB2     		uxtb	r2, r3
 294 00dc 4A4B     		ldr	r3, .L27+4
 295 00de 1A70     		strb	r2, [r3]
 209:UART_460800_Functions.c ****                 currentState = EOP_STATE;
 296              		.loc 1 209 0
 297 00e0 494B     		ldr	r3, .L27+4
 298 00e2 1B78     		ldrb	r3, [r3]	@ zero_extendqisi2
 299 00e4 1846     		mov	r0, r3
 300 00e6 4B4B     		ldr	r3, .L27+16
 301 00e8 1B78     		ldrb	r3, [r3]	@ zero_extendqisi2
 302 00ea 1946     		mov	r1, r3
 303 00ec 474A     		ldr	r2, .L27+8
 304 00ee 0B46     		mov	r3, r1
 305 00f0 9B00     		lsls	r3, r3, #2
 306 00f2 0B44     		add	r3, r3, r1
 307 00f4 1344     		add	r3, r3, r2
 308 00f6 0233     		adds	r3, r3, #2
 309 00f8 1B78     		ldrb	r3, [r3]	@ zero_extendqisi2
 310 00fa 0233     		adds	r3, r3, #2
 311 00fc 9842     		cmp	r0, r3
 312 00fe 7ADB     		blt	.L25
 210:UART_460800_Functions.c ****             break;   
 313              		.loc 1 210 0
 314 0100 404B     		ldr	r3, .L27
 315 0102 0222     		movs	r2, #2
 316 0104 1A70     		strb	r2, [r3]
 211:UART_460800_Functions.c ****             
 317              		.loc 1 211 0
 318 0106 76E0     		b	.L25
 319              	.L9:
 214:UART_460800_Functions.c ****                 (dataByte == PacketList[currentType].EOP_CARRIAGE_RETURN))
 320              		.loc 1 214 0
 321 0108 3F4B     		ldr	r3, .L27+4
 322 010a 1B78     		ldrb	r3, [r3]	@ zero_extendqisi2
 323 010c 1846     		mov	r0, r3
 324 010e 414B     		ldr	r3, .L27+16
 325 0110 1B78     		ldrb	r3, [r3]	@ zero_extendqisi2
 326 0112 1946     		mov	r1, r3
 327 0114 3D4A     		ldr	r2, .L27+8
 328 0116 0B46     		mov	r3, r1
 329 0118 9B00     		lsls	r3, r3, #2
 330 011a 0B44     		add	r3, r3, r1
 331 011c 1344     		add	r3, r3, r2
 332 011e 0233     		adds	r3, r3, #2
 333 0120 1B78     		ldrb	r3, [r3]	@ zero_extendqisi2
 334 0122 0233     		adds	r3, r3, #2
ARM GAS  C:\Users\MARTHN~1\AppData\Local\Temp\ccjAT0xc.s 			page 12


 335 0124 9842     		cmp	r0, r3
 336 0126 19D1     		bne	.L20
 215:UART_460800_Functions.c ****             {
 337              		.loc 1 215 0 discriminator 1
 338 0128 3A4B     		ldr	r3, .L27+16
 339 012a 1B78     		ldrb	r3, [r3]	@ zero_extendqisi2
 340 012c 1946     		mov	r1, r3
 341 012e 374A     		ldr	r2, .L27+8
 342 0130 0B46     		mov	r3, r1
 343 0132 9B00     		lsls	r3, r3, #2
 344 0134 0B44     		add	r3, r3, r1
 345 0136 1344     		add	r3, r3, r2
 346 0138 0333     		adds	r3, r3, #3
 347 013a 1B78     		ldrb	r3, [r3]	@ zero_extendqisi2
 214:UART_460800_Functions.c ****                 (dataByte == PacketList[currentType].EOP_CARRIAGE_RETURN))
 348              		.loc 1 214 0 discriminator 1
 349 013c FA79     		ldrb	r2, [r7, #7]	@ zero_extendqisi2
 350 013e 9A42     		cmp	r2, r3
 351 0140 0CD1     		bne	.L20
 217:UART_460800_Functions.c ****                 currentPacketIndex++;
 352              		.loc 1 217 0
 353 0142 314B     		ldr	r3, .L27+4
 354 0144 1B78     		ldrb	r3, [r3]	@ zero_extendqisi2
 355 0146 1946     		mov	r1, r3
 356 0148 314A     		ldr	r2, .L27+12
 357 014a FB79     		ldrb	r3, [r7, #7]
 358 014c 5354     		strb	r3, [r2, r1]
 218:UART_460800_Functions.c ****             }
 359              		.loc 1 218 0
 360 014e 2E4B     		ldr	r3, .L27+4
 361 0150 1B78     		ldrb	r3, [r3]	@ zero_extendqisi2
 362 0152 0133     		adds	r3, r3, #1
 363 0154 DAB2     		uxtb	r2, r3
 364 0156 2C4B     		ldr	r3, .L27+4
 365 0158 1A70     		strb	r2, [r3]
 366 015a 4BE0     		b	.L21
 367              	.L20:
 220:UART_460800_Functions.c ****                 (dataByte == PacketList[currentType].EOP_LINE_FEED))
 368              		.loc 1 220 0
 369 015c 2A4B     		ldr	r3, .L27+4
 370 015e 1B78     		ldrb	r3, [r3]	@ zero_extendqisi2
 371 0160 1846     		mov	r0, r3
 372 0162 2C4B     		ldr	r3, .L27+16
 373 0164 1B78     		ldrb	r3, [r3]	@ zero_extendqisi2
 374 0166 1946     		mov	r1, r3
 375 0168 284A     		ldr	r2, .L27+8
 376 016a 0B46     		mov	r3, r1
 377 016c 9B00     		lsls	r3, r3, #2
 378 016e 0B44     		add	r3, r3, r1
 379 0170 1344     		add	r3, r3, r2
 380 0172 0233     		adds	r3, r3, #2
 381 0174 1B78     		ldrb	r3, [r3]	@ zero_extendqisi2
 382 0176 0333     		adds	r3, r3, #3
 383 0178 9842     		cmp	r0, r3
 384 017a 31D1     		bne	.L22
 221:UART_460800_Functions.c ****             {
 385              		.loc 1 221 0 discriminator 1
ARM GAS  C:\Users\MARTHN~1\AppData\Local\Temp\ccjAT0xc.s 			page 13


 386 017c 254B     		ldr	r3, .L27+16
 387 017e 1B78     		ldrb	r3, [r3]	@ zero_extendqisi2
 388 0180 1946     		mov	r1, r3
 389 0182 224A     		ldr	r2, .L27+8
 390 0184 0B46     		mov	r3, r1
 391 0186 9B00     		lsls	r3, r3, #2
 392 0188 0B44     		add	r3, r3, r1
 393 018a 1344     		add	r3, r3, r2
 394 018c 0433     		adds	r3, r3, #4
 395 018e 1B78     		ldrb	r3, [r3]	@ zero_extendqisi2
 220:UART_460800_Functions.c ****                 (dataByte == PacketList[currentType].EOP_LINE_FEED))
 396              		.loc 1 220 0 discriminator 1
 397 0190 FA79     		ldrb	r2, [r7, #7]	@ zero_extendqisi2
 398 0192 9A42     		cmp	r2, r3
 399 0194 24D1     		bne	.L22
 223:UART_460800_Functions.c ****                               
 400              		.loc 1 223 0
 401 0196 1C4B     		ldr	r3, .L27+4
 402 0198 1B78     		ldrb	r3, [r3]	@ zero_extendqisi2
 403 019a 1946     		mov	r1, r3
 404 019c 1C4A     		ldr	r2, .L27+12
 405 019e FB79     		ldrb	r3, [r7, #7]
 406 01a0 5354     		strb	r3, [r2, r1]
 225:UART_460800_Functions.c ****                 {
 407              		.loc 1 225 0
 408 01a2 1C4B     		ldr	r3, .L27+16
 409 01a4 1B78     		ldrb	r3, [r3]	@ zero_extendqisi2
 410 01a6 002B     		cmp	r3, #0
 411 01a8 06D1     		bne	.L23
 229:UART_460800_Functions.c ****                 }
 412              		.loc 1 229 0
 413 01aa 1B4B     		ldr	r3, .L27+20
 414 01ac 1B88     		ldrh	r3, [r3]
 415 01ae 0133     		adds	r3, r3, #1
 416 01b0 9AB2     		uxth	r2, r3
 417 01b2 194B     		ldr	r3, .L27+20
 418 01b4 1A80     		strh	r2, [r3]	@ movhi
 419 01b6 09E0     		b	.L24
 420              	.L23:
 231:UART_460800_Functions.c ****                 {
 421              		.loc 1 231 0
 422 01b8 164B     		ldr	r3, .L27+16
 423 01ba 1B78     		ldrb	r3, [r3]	@ zero_extendqisi2
 424 01bc 012B     		cmp	r3, #1
 425 01be 05D1     		bne	.L24
 235:UART_460800_Functions.c ****                 }
 426              		.loc 1 235 0
 427 01c0 154B     		ldr	r3, .L27+20
 428 01c2 5B88     		ldrh	r3, [r3, #2]
 429 01c4 0133     		adds	r3, r3, #1
 430 01c6 9AB2     		uxth	r2, r3
 431 01c8 134B     		ldr	r3, .L27+20
 432 01ca 5A80     		strh	r2, [r3, #2]	@ movhi
 433              	.L24:
 243:UART_460800_Functions.c ****                 currentState = HEADER_STATE;
 434              		.loc 1 243 0
 435 01cc 0E4B     		ldr	r3, .L27+4
ARM GAS  C:\Users\MARTHN~1\AppData\Local\Temp\ccjAT0xc.s 			page 14


 436 01ce 0022     		movs	r2, #0
 437 01d0 1A70     		strb	r2, [r3]
 244:UART_460800_Functions.c ****                 currentType = CTEST_AUDIO;
 438              		.loc 1 244 0
 439 01d2 0C4B     		ldr	r3, .L27
 440 01d4 0022     		movs	r2, #0
 441 01d6 1A70     		strb	r2, [r3]
 245:UART_460800_Functions.c ****             }
 442              		.loc 1 245 0
 443 01d8 0E4B     		ldr	r3, .L27+16
 444 01da 0022     		movs	r2, #0
 445 01dc 1A70     		strb	r2, [r3]
 446 01de 09E0     		b	.L21
 447              	.L22:
 249:UART_460800_Functions.c ****                 currentState = HEADER_STATE;
 448              		.loc 1 249 0
 449 01e0 094B     		ldr	r3, .L27+4
 450 01e2 0022     		movs	r2, #0
 451 01e4 1A70     		strb	r2, [r3]
 250:UART_460800_Functions.c ****                 currentType = CTEST_AUDIO;
 452              		.loc 1 250 0
 453 01e6 074B     		ldr	r3, .L27
 454 01e8 0022     		movs	r2, #0
 455 01ea 1A70     		strb	r2, [r3]
 251:UART_460800_Functions.c ****             }
 456              		.loc 1 251 0
 457 01ec 094B     		ldr	r3, .L27+16
 458 01ee 0022     		movs	r2, #0
 459 01f0 1A70     		strb	r2, [r3]
 253:UART_460800_Functions.c ****     }
 460              		.loc 1 253 0
 461 01f2 01E0     		b	.L7
 462              	.L21:
 463 01f4 00E0     		b	.L7
 464              	.L25:
 211:UART_460800_Functions.c ****             
 465              		.loc 1 211 0
 466 01f6 00BF     		nop
 467              	.L7:
 468              	.L26:
 469              		.loc 1 255 0
 470 01f8 00BF     		nop
 471 01fa 0C37     		adds	r7, r7, #12
 472              		.cfi_def_cfa_offset 4
 473 01fc BD46     		mov	sp, r7
 474              		.cfi_def_cfa_register 13
 475              		@ sp needed
 476 01fe 80BC     		pop	{r7}
 477              		.cfi_restore 7
 478              		.cfi_def_cfa_offset 0
 479 0200 7047     		bx	lr
 480              	.L28:
 481 0202 00BF     		.align	2
 482              	.L27:
 483 0204 F4000000 		.word	currentState.7165
 484 0208 F5000000 		.word	currentPacketIndex.7167
 485 020c 00000000 		.word	PacketList
ARM GAS  C:\Users\MARTHN~1\AppData\Local\Temp\ccjAT0xc.s 			page 15


 486 0210 F8000000 		.word	packet.7164
 487 0214 6B010000 		.word	currentType.7166
 488 0218 00000000 		.word	packetsuccess
 489              		.cfi_endproc
 490              	.LFE64:
 491              		.size	detectPacket, .-detectPacket
 492              		.section	.text.ResetPacketSuccess_460800,"ax",%progbits
 493              		.align	2
 494              		.global	ResetPacketSuccess_460800
 495              		.thumb
 496              		.thumb_func
 497              		.type	ResetPacketSuccess_460800, %function
 498              	ResetPacketSuccess_460800:
 499              	.LFB65:
 256:UART_460800_Functions.c **** 
 257:UART_460800_Functions.c **** //void sendPacketToController(void)                   //*** This part needs some work
 258:UART_460800_Functions.c **** //{
 259:UART_460800_Functions.c **** //    static uint16 iterator = 0;
 260:UART_460800_Functions.c **** //    static uint8 checkSumRelay = 0;
 261:UART_460800_Functions.c **** //    static uint8 checkSumRelayIterator = 0;
 262:UART_460800_Functions.c **** //    static uint8 toggleSend = 0;
 263:UART_460800_Functions.c **** //    
 264:UART_460800_Functions.c **** //    static TxPacket_Controller txPacket_Controller;            
 265:UART_460800_Functions.c **** //    static TxPacket_Controller * pTxPacket_Controller;
 266:UART_460800_Functions.c **** //    
 267:UART_460800_Functions.c **** //    pRxPacket_Controller = getRxPacket_Controller();
 268:UART_460800_Functions.c **** //
 269:UART_460800_Functions.c **** //    checkSumRelay = 0;
 270:UART_460800_Functions.c **** //    for(checkSumRelayIterator = 0; checkSumRelayIterator<PacketList[CTEST_RELAY].PAYLOAD_SIZE; ch
 271:UART_460800_Functions.c **** //    {
 272:UART_460800_Functions.c **** //        checkSumRelay ^= pTxPacket_Controller->bytes[checkSumRelayIterator];
 273:UART_460800_Functions.c **** //    }
 274:UART_460800_Functions.c **** //    
 275:UART_460800_Functions.c **** //    toggleSend^=0x01;
 276:UART_460800_Functions.c **** //    if(toggleSend == 1)
 277:UART_460800_Functions.c **** //    {
 278:UART_460800_Functions.c **** //
 279:UART_460800_Functions.c **** //        UART_230400_WriteTxData(0x7E);
 280:UART_460800_Functions.c **** //        UART_230400_WriteTxData('D');
 281:UART_460800_Functions.c **** //        for(iterator = 0; iterator<PacketList[CTEST_RELAY].PAYLOAD_SIZE; iterator++)             
 282:UART_460800_Functions.c **** //        {
 283:UART_460800_Functions.c **** //            UART_230400_WriteTxData(pTxPacket_Controller->bytes[iterator]);
 284:UART_460800_Functions.c **** //        }
 285:UART_460800_Functions.c **** //       
 286:UART_460800_Functions.c **** //        UART_230400_WriteTxData(checkSumRelay);
 287:UART_460800_Functions.c **** //        UART_230400_WriteTxData(0x0D);
 288:UART_460800_Functions.c **** //        UART_230400_WriteTxData(0x0A);
 289:UART_460800_Functions.c **** //    }
 290:UART_460800_Functions.c **** ////    else                                                                                    // 
 291:UART_460800_Functions.c **** ////    {
 292:UART_460800_Functions.c **** ////        for(iterator = 0; iterator<72; iterator++)
 293:UART_460800_Functions.c **** ////        {
 294:UART_460800_Functions.c **** ////            CONTROLLER_WriteTxData(gpsValuesToSend->byte[iterator]);
 295:UART_460800_Functions.c **** ////        }
 296:UART_460800_Functions.c **** ////    }
 297:UART_460800_Functions.c **** //}
 298:UART_460800_Functions.c **** 
ARM GAS  C:\Users\MARTHN~1\AppData\Local\Temp\ccjAT0xc.s 			page 16


 299:UART_460800_Functions.c **** void ResetPacketSuccess_460800(void)           //*** This can be improved
 300:UART_460800_Functions.c **** {
 500              		.loc 1 300 0
 501              		.cfi_startproc
 502              		@ args = 0, pretend = 0, frame = 0
 503              		@ frame_needed = 1, uses_anonymous_args = 0
 504              		@ link register save eliminated.
 505 0000 80B4     		push	{r7}
 506              		.cfi_def_cfa_offset 4
 507              		.cfi_offset 7, -4
 508 0002 00AF     		add	r7, sp, #0
 509              		.cfi_def_cfa_register 7
 301:UART_460800_Functions.c **** //    packetsuccess[0] = 0;
 302:UART_460800_Functions.c **** //    packetsuccess[1] = 0;
 303:UART_460800_Functions.c **** //    packetsuccess[2] = 0;
 304:UART_460800_Functions.c **** //    packetsuccess[3] = 0;
 305:UART_460800_Functions.c ****     
 306:UART_460800_Functions.c ****     return;
 510              		.loc 1 306 0
 511 0004 00BF     		nop
 307:UART_460800_Functions.c **** }
 512              		.loc 1 307 0
 513 0006 BD46     		mov	sp, r7
 514              		.cfi_def_cfa_register 13
 515              		@ sp needed
 516 0008 80BC     		pop	{r7}
 517              		.cfi_restore 7
 518              		.cfi_def_cfa_offset 0
 519 000a 7047     		bx	lr
 520              		.cfi_endproc
 521              	.LFE65:
 522              		.size	ResetPacketSuccess_460800, .-ResetPacketSuccess_460800
 523              		.section	.text.VerifyPacket_460800,"ax",%progbits
 524              		.align	2
 525              		.global	VerifyPacket_460800
 526              		.thumb
 527              		.thumb_func
 528              		.type	VerifyPacket_460800, %function
 529              	VerifyPacket_460800:
 530              	.LFB66:
 308:UART_460800_Functions.c **** 
 309:UART_460800_Functions.c **** uint8 VerifyPacket_460800(uint8 PacketType)
 310:UART_460800_Functions.c **** {
 531              		.loc 1 310 0
 532              		.cfi_startproc
 533              		@ args = 0, pretend = 0, frame = 8
 534              		@ frame_needed = 1, uses_anonymous_args = 0
 535              		@ link register save eliminated.
 536 0000 80B4     		push	{r7}
 537              		.cfi_def_cfa_offset 4
 538              		.cfi_offset 7, -4
 539 0002 83B0     		sub	sp, sp, #12
 540              		.cfi_def_cfa_offset 16
 541 0004 00AF     		add	r7, sp, #0
 542              		.cfi_def_cfa_register 7
 543 0006 0346     		mov	r3, r0
 544 0008 FB71     		strb	r3, [r7, #7]
ARM GAS  C:\Users\MARTHN~1\AppData\Local\Temp\ccjAT0xc.s 			page 17


 311:UART_460800_Functions.c ****     
 312:UART_460800_Functions.c ****     //MUX_CTRL_460800_Write(PacketType);
 313:UART_460800_Functions.c ****        
 314:UART_460800_Functions.c ****     if(packetsuccess[PacketType] >= PACKET_VERIFICATION_COUNT)                //maybe we wait until
 545              		.loc 1 314 0
 546 000a FB79     		ldrb	r3, [r7, #7]	@ zero_extendqisi2
 547 000c 084A     		ldr	r2, .L34
 548 000e 32F81330 		ldrh	r3, [r2, r3, lsl #1]
 549 0012 042B     		cmp	r3, #4
 550 0014 06D9     		bls	.L32
 315:UART_460800_Functions.c ****     {
 316:UART_460800_Functions.c ****         packetsuccess[PacketType] = 0;
 551              		.loc 1 316 0
 552 0016 FB79     		ldrb	r3, [r7, #7]	@ zero_extendqisi2
 553 0018 054A     		ldr	r2, .L34
 554 001a 0021     		movs	r1, #0
 555 001c 22F81310 		strh	r1, [r2, r3, lsl #1]	@ movhi
 317:UART_460800_Functions.c ****         
 318:UART_460800_Functions.c ****         //CurrentTest.Failures
 319:UART_460800_Functions.c ****         
 320:UART_460800_Functions.c ****         return(1);
 556              		.loc 1 320 0
 557 0020 0123     		movs	r3, #1
 558 0022 00E0     		b	.L33
 559              	.L32:
 321:UART_460800_Functions.c ****     }
 322:UART_460800_Functions.c ****     else
 323:UART_460800_Functions.c ****         return(0);
 560              		.loc 1 323 0
 561 0024 0023     		movs	r3, #0
 562              	.L33:
 324:UART_460800_Functions.c ****        
 325:UART_460800_Functions.c **** }
 563              		.loc 1 325 0
 564 0026 1846     		mov	r0, r3
 565 0028 0C37     		adds	r7, r7, #12
 566              		.cfi_def_cfa_offset 4
 567 002a BD46     		mov	sp, r7
 568              		.cfi_def_cfa_register 13
 569              		@ sp needed
 570 002c 80BC     		pop	{r7}
 571              		.cfi_restore 7
 572              		.cfi_def_cfa_offset 0
 573 002e 7047     		bx	lr
 574              	.L35:
 575              		.align	2
 576              	.L34:
 577 0030 00000000 		.word	packetsuccess
 578              		.cfi_endproc
 579              	.LFE66:
 580              		.size	VerifyPacket_460800, .-VerifyPacket_460800
 581              		.section	.text.sendPacketToRelay_Quad,"ax",%progbits
 582              		.align	2
 583              		.global	sendPacketToRelay_Quad
 584              		.thumb
 585              		.thumb_func
 586              		.type	sendPacketToRelay_Quad, %function
ARM GAS  C:\Users\MARTHN~1\AppData\Local\Temp\ccjAT0xc.s 			page 18


 587              	sendPacketToRelay_Quad:
 588              	.LFB67:
 326:UART_460800_Functions.c **** 
 327:UART_460800_Functions.c **** //  ---------RTest----------------------------
 328:UART_460800_Functions.c **** void sendPacketToRelay_Quad(void)              
 329:UART_460800_Functions.c **** {
 589              		.loc 1 329 0
 590              		.cfi_startproc
 591              		@ args = 0, pretend = 0, frame = 8
 592              		@ frame_needed = 1, uses_anonymous_args = 0
 593 0000 80B5     		push	{r7, lr}
 594              		.cfi_def_cfa_offset 8
 595              		.cfi_offset 7, -8
 596              		.cfi_offset 14, -4
 597 0002 82B0     		sub	sp, sp, #8
 598              		.cfi_def_cfa_offset 16
 599 0004 00AF     		add	r7, sp, #0
 600              		.cfi_def_cfa_register 7
 330:UART_460800_Functions.c ****     //static uint16 iterator = 0;
 331:UART_460800_Functions.c **** 
 332:UART_460800_Functions.c ****         UART_460800_WriteTxData('~');                          // Send 'L' packet 
 601              		.loc 1 332 0
 602 0006 7E20     		movs	r0, #126
 603 0008 FFF7FEFF 		bl	UART_460800_WriteTxData
 333:UART_460800_Functions.c ****         UART_460800_WriteTxData('L');
 604              		.loc 1 333 0
 605 000c 4C20     		movs	r0, #76
 606 000e FFF7FEFF 		bl	UART_460800_WriteTxData
 607              	.LBB2:
 334:UART_460800_Functions.c ****         for(uint8 iterator = 0; iterator<111; iterator++)             
 608              		.loc 1 334 0
 609 0012 0023     		movs	r3, #0
 610 0014 FB71     		strb	r3, [r7, #7]
 611 0016 06E0     		b	.L37
 612              	.L38:
 335:UART_460800_Functions.c ****         {
 336:UART_460800_Functions.c ****             UART_460800_WriteTxData(iterator);
 613              		.loc 1 336 0 discriminator 3
 614 0018 FB79     		ldrb	r3, [r7, #7]	@ zero_extendqisi2
 615 001a 1846     		mov	r0, r3
 616 001c FFF7FEFF 		bl	UART_460800_WriteTxData
 334:UART_460800_Functions.c ****         for(uint8 iterator = 0; iterator<111; iterator++)             
 617              		.loc 1 334 0 discriminator 3
 618 0020 FB79     		ldrb	r3, [r7, #7]	@ zero_extendqisi2
 619 0022 0133     		adds	r3, r3, #1
 620 0024 FB71     		strb	r3, [r7, #7]
 621              	.L37:
 334:UART_460800_Functions.c ****         for(uint8 iterator = 0; iterator<111; iterator++)             
 622              		.loc 1 334 0 is_stmt 0 discriminator 1
 623 0026 FB79     		ldrb	r3, [r7, #7]	@ zero_extendqisi2
 624 0028 6E2B     		cmp	r3, #110
 625 002a F5D9     		bls	.L38
 626              	.LBE2:
 337:UART_460800_Functions.c ****         }
 338:UART_460800_Functions.c ****         
 339:UART_460800_Functions.c **** //        for(uint8 iterator = 0; iterator<111; iterator++)             
 340:UART_460800_Functions.c **** //        {
ARM GAS  C:\Users\MARTHN~1\AppData\Local\Temp\ccjAT0xc.s 			page 19


 341:UART_460800_Functions.c **** //            UART_460800_WriteTxData(iterator);
 342:UART_460800_Functions.c **** //        }
 343:UART_460800_Functions.c **** 
 344:UART_460800_Functions.c ****         UART_460800_WriteTxData(0x0D);
 627              		.loc 1 344 0 is_stmt 1
 628 002c 0D20     		movs	r0, #13
 629 002e FFF7FEFF 		bl	UART_460800_WriteTxData
 345:UART_460800_Functions.c ****         UART_460800_WriteTxData(0x0A);
 630              		.loc 1 345 0
 631 0032 0A20     		movs	r0, #10
 632 0034 FFF7FEFF 		bl	UART_460800_WriteTxData
 346:UART_460800_Functions.c ****         
 347:UART_460800_Functions.c ****         return;
 633              		.loc 1 347 0
 634 0038 00BF     		nop
 348:UART_460800_Functions.c **** }
 635              		.loc 1 348 0
 636 003a 0837     		adds	r7, r7, #8
 637              		.cfi_def_cfa_offset 8
 638 003c BD46     		mov	sp, r7
 639              		.cfi_def_cfa_register 13
 640              		@ sp needed
 641 003e 80BD     		pop	{r7, pc}
 642              		.cfi_endproc
 643              	.LFE67:
 644              		.size	sendPacketToRelay_Quad, .-sendPacketToRelay_Quad
 645              		.section	.text.sendPacketToSiren_Audio,"ax",%progbits
 646              		.align	2
 647              		.global	sendPacketToSiren_Audio
 648              		.thumb
 649              		.thumb_func
 650              		.type	sendPacketToSiren_Audio, %function
 651              	sendPacketToSiren_Audio:
 652              	.LFB68:
 349:UART_460800_Functions.c **** 
 350:UART_460800_Functions.c **** //  ----------------STest---------------
 351:UART_460800_Functions.c **** void sendPacketToSiren_Audio(void)
 352:UART_460800_Functions.c **** {
 653              		.loc 1 352 0
 654              		.cfi_startproc
 655              		@ args = 0, pretend = 0, frame = 0
 656              		@ frame_needed = 1, uses_anonymous_args = 0
 657              		@ link register save eliminated.
 658 0000 80B4     		push	{r7}
 659              		.cfi_def_cfa_offset 4
 660              		.cfi_offset 7, -4
 661 0002 00AF     		add	r7, sp, #0
 662              		.cfi_def_cfa_register 7
 353:UART_460800_Functions.c ****     
 354:UART_460800_Functions.c ****     static uint16 iterator = 0;
 355:UART_460800_Functions.c ****     static uint16 ADCReading[100];
 356:UART_460800_Functions.c **** 
 357:UART_460800_Functions.c **** //    UART_460800_WriteTxData(0x7E);                          // Send 'L' packet 
 358:UART_460800_Functions.c **** //    UART_460800_WriteTxData('L');
 359:UART_460800_Functions.c **** //    for(iterator = 0; iterator<100; iterator++)             
 360:UART_460800_Functions.c **** //    {
 361:UART_460800_Functions.c **** //        UART_460800_WriteTxData(iterator);
ARM GAS  C:\Users\MARTHN~1\AppData\Local\Temp\ccjAT0xc.s 			page 20


 362:UART_460800_Functions.c **** //    }
 363:UART_460800_Functions.c **** //    UART_460800_WriteTxData(0x0D);
 364:UART_460800_Functions.c **** //    UART_460800_WriteTxData(0x0A);
 365:UART_460800_Functions.c ****     
 366:UART_460800_Functions.c ****     //UART_460800_WriteTxData(iterator);
 367:UART_460800_Functions.c ****     
 368:UART_460800_Functions.c **** //    ADCReading[iterator] = ADC_AudioStream_GetResult16();
 369:UART_460800_Functions.c **** //    UART_460800_WriteTxData( ADCReading[iterator] );
 370:UART_460800_Functions.c ****     
 371:UART_460800_Functions.c ****     iterator++;
 663              		.loc 1 371 0
 664 0004 084B     		ldr	r3, .L44
 665 0006 1B88     		ldrh	r3, [r3]
 666 0008 0133     		adds	r3, r3, #1
 667 000a 9AB2     		uxth	r2, r3
 668 000c 064B     		ldr	r3, .L44
 669 000e 1A80     		strh	r2, [r3]	@ movhi
 372:UART_460800_Functions.c ****     if(iterator > 100)
 670              		.loc 1 372 0
 671 0010 054B     		ldr	r3, .L44
 672 0012 1B88     		ldrh	r3, [r3]
 673 0014 642B     		cmp	r3, #100
 674 0016 03D9     		bls	.L43
 373:UART_460800_Functions.c ****         iterator = 0;
 675              		.loc 1 373 0
 676 0018 034B     		ldr	r3, .L44
 677 001a 0022     		movs	r2, #0
 678 001c 1A80     		strh	r2, [r3]	@ movhi
 374:UART_460800_Functions.c ****     
 375:UART_460800_Functions.c ****     return;
 679              		.loc 1 375 0
 680 001e 00BF     		nop
 681              	.L43:
 682 0020 00BF     		nop
 376:UART_460800_Functions.c **** }
 683              		.loc 1 376 0
 684 0022 BD46     		mov	sp, r7
 685              		.cfi_def_cfa_register 13
 686              		@ sp needed
 687 0024 80BC     		pop	{r7}
 688              		.cfi_restore 7
 689              		.cfi_def_cfa_offset 0
 690 0026 7047     		bx	lr
 691              	.L45:
 692              		.align	2
 693              	.L44:
 694 0028 6C010000 		.word	iterator.7188
 695              		.cfi_endproc
 696              	.LFE68:
 697              		.size	sendPacketToSiren_Audio, .-sendPacketToSiren_Audio
 698              		.section	.text.sendPacketToController_OBDII,"ax",%progbits
 699              		.align	2
 700              		.global	sendPacketToController_OBDII
 701              		.thumb
 702              		.thumb_func
 703              		.type	sendPacketToController_OBDII, %function
 704              	sendPacketToController_OBDII:
ARM GAS  C:\Users\MARTHN~1\AppData\Local\Temp\ccjAT0xc.s 			page 21


 705              	.LFB69:
 377:UART_460800_Functions.c **** 
 378:UART_460800_Functions.c **** void sendPacketToController_OBDII(void)
 379:UART_460800_Functions.c **** {
 706              		.loc 1 379 0
 707              		.cfi_startproc
 708              		@ args = 0, pretend = 0, frame = 8
 709              		@ frame_needed = 1, uses_anonymous_args = 0
 710 0000 80B5     		push	{r7, lr}
 711              		.cfi_def_cfa_offset 8
 712              		.cfi_offset 7, -8
 713              		.cfi_offset 14, -4
 714 0002 82B0     		sub	sp, sp, #8
 715              		.cfi_def_cfa_offset 16
 716 0004 00AF     		add	r7, sp, #0
 717              		.cfi_def_cfa_register 7
 380:UART_460800_Functions.c ****     
 381:UART_460800_Functions.c ****     DEMUX_CTRL_460800_Write(CTEST_OBDII_TX);
 718              		.loc 1 381 0
 719 0006 0020     		movs	r0, #0
 720 0008 FFF7FEFF 		bl	DEMUX_CTRL_460800_Write
 382:UART_460800_Functions.c ****     
 383:UART_460800_Functions.c ****     UART_460800_WriteTxData('~');                          // Send 'L' packet 
 721              		.loc 1 383 0
 722 000c 7E20     		movs	r0, #126
 723 000e FFF7FEFF 		bl	UART_460800_WriteTxData
 384:UART_460800_Functions.c ****     UART_460800_WriteTxData(2);
 724              		.loc 1 384 0
 725 0012 0220     		movs	r0, #2
 726 0014 FFF7FEFF 		bl	UART_460800_WriteTxData
 727              	.LBB3:
 385:UART_460800_Functions.c ****     for(uint8 iterator = 0; iterator<7; iterator++)             
 728              		.loc 1 385 0
 729 0018 0023     		movs	r3, #0
 730 001a FB71     		strb	r3, [r7, #7]
 731 001c 05E0     		b	.L47
 732              	.L48:
 386:UART_460800_Functions.c ****     {
 387:UART_460800_Functions.c ****         UART_460800_WriteTxData(0);
 733              		.loc 1 387 0 discriminator 3
 734 001e 0020     		movs	r0, #0
 735 0020 FFF7FEFF 		bl	UART_460800_WriteTxData
 385:UART_460800_Functions.c ****     for(uint8 iterator = 0; iterator<7; iterator++)             
 736              		.loc 1 385 0 discriminator 3
 737 0024 FB79     		ldrb	r3, [r7, #7]	@ zero_extendqisi2
 738 0026 0133     		adds	r3, r3, #1
 739 0028 FB71     		strb	r3, [r7, #7]
 740              	.L47:
 385:UART_460800_Functions.c ****     for(uint8 iterator = 0; iterator<7; iterator++)             
 741              		.loc 1 385 0 is_stmt 0 discriminator 1
 742 002a FB79     		ldrb	r3, [r7, #7]	@ zero_extendqisi2
 743 002c 062B     		cmp	r3, #6
 744 002e F6D9     		bls	.L48
 745              	.LBE3:
 388:UART_460800_Functions.c ****     }
 389:UART_460800_Functions.c ****     UART_460800_WriteTxData(0x40);      // Send 'drivers side door open' command
 746              		.loc 1 389 0 is_stmt 1
ARM GAS  C:\Users\MARTHN~1\AppData\Local\Temp\ccjAT0xc.s 			page 22


 747 0030 4020     		movs	r0, #64
 748 0032 FFF7FEFF 		bl	UART_460800_WriteTxData
 390:UART_460800_Functions.c ****     UART_460800_WriteTxData(0x42);      // Checksum
 749              		.loc 1 390 0
 750 0036 4220     		movs	r0, #66
 751 0038 FFF7FEFF 		bl	UART_460800_WriteTxData
 391:UART_460800_Functions.c ****     UART_460800_WriteTxData(0x0D);
 752              		.loc 1 391 0
 753 003c 0D20     		movs	r0, #13
 754 003e FFF7FEFF 		bl	UART_460800_WriteTxData
 392:UART_460800_Functions.c ****     UART_460800_WriteTxData(0x0A);  
 755              		.loc 1 392 0
 756 0042 0A20     		movs	r0, #10
 757 0044 FFF7FEFF 		bl	UART_460800_WriteTxData
 393:UART_460800_Functions.c ****     
 394:UART_460800_Functions.c ****     return;
 758              		.loc 1 394 0
 759 0048 00BF     		nop
 395:UART_460800_Functions.c **** }
 760              		.loc 1 395 0
 761 004a 0837     		adds	r7, r7, #8
 762              		.cfi_def_cfa_offset 8
 763 004c BD46     		mov	sp, r7
 764              		.cfi_def_cfa_register 13
 765              		@ sp needed
 766 004e 80BD     		pop	{r7, pc}
 767              		.cfi_endproc
 768              	.LFE69:
 769              		.size	sendPacketToController_OBDII, .-sendPacketToController_OBDII
 770              		.bss
 771              	testbuffer_count.7158:
 772 008c 00       		.space	1
 773 008d 000000   		.align	2
 774              	testbuffer.7157:
 775 0090 00000000 		.space	100
 775      00000000 
 775      00000000 
 775      00000000 
 775      00000000 
 776              	currentState.7165:
 777 00f4 00       		.space	1
 778              	currentPacketIndex.7167:
 779 00f5 00       		.space	1
 780 00f6 0000     		.align	2
 781              	packet.7164:
 782 00f8 00000000 		.space	115
 782      00000000 
 782      00000000 
 782      00000000 
 782      00000000 
 783              	currentType.7166:
 784 016b 00       		.space	1
 785              		.align	1
 786              	iterator.7188:
 787 016c 0000     		.space	2
 788 016e 0000     		.align	2
 789              	ADCReading.7189:
ARM GAS  C:\Users\MARTHN~1\AppData\Local\Temp\ccjAT0xc.s 			page 23


 790 0170 00000000 		.space	200
 790      00000000 
 790      00000000 
 790      00000000 
 790      00000000 
 791              		.text
 792              	.Letext0:
 793              		.file 2 "c:\\program files (x86)\\cypress\\psoc creator\\4.3\\psoc creator\\import\\gnu\\arm\\5.4.
 794              		.file 3 "c:\\program files (x86)\\cypress\\psoc creator\\4.3\\psoc creator\\import\\gnu\\arm\\5.4.
 795              		.file 4 "Generated_Source\\PSoC5/cytypes.h"
 796              		.file 5 "CommonVariables.h"
 797              		.file 6 "UART_460800_Functions.h"
 798              		.file 7 "Generated_Source\\PSoC5/core_cm3.h"