ARM GAS  C:\Users\MARTHN~1\AppData\Local\Temp\ccjh9O4t.s 			page 1


   1              		.syntax unified
   2              		.cpu cortex-m3
   3              		.fpu softvfp
   4              		.eabi_attribute 20, 1
   5              		.eabi_attribute 21, 1
   6              		.eabi_attribute 23, 3
   7              		.eabi_attribute 24, 1
   8              		.eabi_attribute 25, 1
   9              		.eabi_attribute 26, 1
  10              		.eabi_attribute 30, 6
  11              		.eabi_attribute 34, 1
  12              		.eabi_attribute 18, 4
  13              		.thumb
  14              		.syntax unified
  15              		.file	"UART_115200_Functions.c"
  16              		.text
  17              	.Ltext0:
  18              		.cfi_sections	.debug_frame
  19              		.data
  20              		.align	2
  21              		.type	PacketList, %object
  22              		.size	PacketList, 5
  23              	PacketList:
  24 0000 7E       		.byte	126
  25 0001 33       		.byte	51
  26 0002 03       		.byte	3
  27 0003 0D       		.byte	13
  28 0004 0A       		.byte	10
  29              		.bss
  30              		.align	2
  31              	packetsuccess:
  32 0000 0000     		.space	2
  33 0002 0000     		.align	2
  34              	rxPacket_DLink_S:
  35 0004 000000   		.space	3
  36              		.section	.text.processByteReceivedHandler_115200,"ax",%progbits
  37              		.align	2
  38              		.global	processByteReceivedHandler_115200
  39              		.thumb
  40              		.thumb_func
  41              		.type	processByteReceivedHandler_115200, %function
  42              	processByteReceivedHandler_115200:
  43              	.LFB63:
  44              		.file 1 "UART_115200_Functions.c"
   1:UART_115200_Functions.c **** /* ========================================
   2:UART_115200_Functions.c ****  *
   3:UART_115200_Functions.c ****  * Copyright FENIEX INDUSTRIES, 2016
   4:UART_115200_Functions.c ****  * 200W SIREN
   5:UART_115200_Functions.c ****  *
   6:UART_115200_Functions.c ****  * All Rights Reserved
   7:UART_115200_Functions.c ****  * UNPUBLISHED, LICENSED SOFTWARE.
   8:UART_115200_Functions.c ****  *
   9:UART_115200_Functions.c ****  * CONFIDENTIAL AND PROPRIETARY INFORMATION
  10:UART_115200_Functions.c ****  * WHICH IS THE PROPERTY OF your company.
  11:UART_115200_Functions.c ****  *
  12:UART_115200_Functions.c ****  * ========================================
  13:UART_115200_Functions.c **** */
ARM GAS  C:\Users\MARTHN~1\AppData\Local\Temp\ccjh9O4t.s 			page 2


  14:UART_115200_Functions.c **** 
  15:UART_115200_Functions.c **** /**********CHANGE LOG**********/
  16:UART_115200_Functions.c **** 
  17:UART_115200_Functions.c **** 
  18:UART_115200_Functions.c **** /**********PREPROCESSOR DIRECTIVES**********/
  19:UART_115200_Functions.c **** #include "UART_115200_Functions.h"
  20:UART_115200_Functions.c **** 
  21:UART_115200_Functions.c **** #define HEADER_BYTE_COUNT       2
  22:UART_115200_Functions.c **** #define EOP_BYTE_COUNT          2
  23:UART_115200_Functions.c **** 
  24:UART_115200_Functions.c **** #define HEADER_START_INDEX      0
  25:UART_115200_Functions.c **** #define PAYLOAD_START_INDEX     HEADER_BYTE_COUNT
  26:UART_115200_Functions.c **** 
  27:UART_115200_Functions.c **** #define MAX_PAYLOAD_BYTE_COUNT  3
  28:UART_115200_Functions.c **** #define PACKET_TYPE_COUNT       1
  29:UART_115200_Functions.c **** 
  30:UART_115200_Functions.c **** /**************************************/
  31:UART_115200_Functions.c **** #define PACKET_VERIFICATION_COUNT   5
  32:UART_115200_Functions.c **** 
  33:UART_115200_Functions.c **** /**********DEFINED CONSTANTS**********/
  34:UART_115200_Functions.c **** enum DataType           // MUX_115200 channel lineup
  35:UART_115200_Functions.c **** { 
  36:UART_115200_Functions.c ****     RTEST_DLINK,             //
  37:UART_115200_Functions.c **** //    RTEST_DLINK2,        // 
  38:UART_115200_Functions.c **** //    CTEST_USB_DEBUG,
  39:UART_115200_Functions.c ****     //DIAG_UART_RX         //
  40:UART_115200_Functions.c **** };
  41:UART_115200_Functions.c **** 
  42:UART_115200_Functions.c **** enum PacketState
  43:UART_115200_Functions.c **** {
  44:UART_115200_Functions.c ****     HEADER_STATE,
  45:UART_115200_Functions.c ****     PAYLOAD_STATE,
  46:UART_115200_Functions.c ****     EOP_STATE
  47:UART_115200_Functions.c **** };
  48:UART_115200_Functions.c **** 
  49:UART_115200_Functions.c **** /**********DATA STRUCTURES**********/
  50:UART_115200_Functions.c **** typedef struct
  51:UART_115200_Functions.c **** {
  52:UART_115200_Functions.c ****     const uint8 HEADER_BYTE;
  53:UART_115200_Functions.c ****     const uint8 PACKET_TYPE;
  54:UART_115200_Functions.c ****     const uint8 PAYLOAD_SIZE;
  55:UART_115200_Functions.c ****     const uint8 EOP_CARRIAGE_RETURN;
  56:UART_115200_Functions.c ****     const uint8 EOP_LINE_FEED;
  57:UART_115200_Functions.c **** }Packet;
  58:UART_115200_Functions.c **** 
  59:UART_115200_Functions.c **** static Packet PacketList[PACKET_TYPE_COUNT] = 
  60:UART_115200_Functions.c **** {
  61:UART_115200_Functions.c ****     //{'~', 'S', 3, '\r', '\n'},              // RTest - DataLink - (controller to siren)
  62:UART_115200_Functions.c ****     {'~', '3', 3, '\r', '\n'},
  63:UART_115200_Functions.c **** //    {'~', 'L', 111, '\r', '\n'},            // CTest - quad normal - (controller to relay)
  64:UART_115200_Functions.c **** //    {'~', 'Y', 9, '\r', '\n'},              // RTest - quad serial - (relay to modules)
  65:UART_115200_Functions.c **** //    {'~', 'C', 4, '\r', '\n'},              // (Quad-Controller packets)
  66:UART_115200_Functions.c **** };
  67:UART_115200_Functions.c **** 
  68:UART_115200_Functions.c **** ///**********GLOBAL VARIABLES**********/
  69:UART_115200_Functions.c **** //static uint16 singlepacketsuccess = 0;
  70:UART_115200_Functions.c **** static uint16 packetsuccess[1] = {0};
ARM GAS  C:\Users\MARTHN~1\AppData\Local\Temp\ccjh9O4t.s 			page 3


  71:UART_115200_Functions.c **** 
  72:UART_115200_Functions.c **** static RxPacket_DLink_S rxPacket_DLink_S;            
  73:UART_115200_Functions.c **** 
  74:UART_115200_Functions.c **** /**********LOCAL FUNCTION PROTOTYPES**********/
  75:UART_115200_Functions.c **** static void detectPacket(uint8 dataByte);
  76:UART_115200_Functions.c **** 
  77:UART_115200_Functions.c **** /**********DEFINED GLOBAL FUNCTIONS**********/
  78:UART_115200_Functions.c **** 
  79:UART_115200_Functions.c **** //RxPacket_DL2 * getRxPacket_DL2(void)
  80:UART_115200_Functions.c **** //{
  81:UART_115200_Functions.c **** //    pRxPacket_DL2 = &rxPacket_DL2;
  82:UART_115200_Functions.c **** //    
  83:UART_115200_Functions.c **** //    return pRxPacket_DL2;
  84:UART_115200_Functions.c **** //}
  85:UART_115200_Functions.c **** 
  86:UART_115200_Functions.c **** //RxPacket * getRxPacket(void)
  87:UART_115200_Functions.c **** //{
  88:UART_115200_Functions.c **** //    pRxPacket = &rxPacket;
  89:UART_115200_Functions.c **** //    
  90:UART_115200_Functions.c **** //    return pRxPacket;
  91:UART_115200_Functions.c **** //}
  92:UART_115200_Functions.c **** 
  93:UART_115200_Functions.c **** /*******************************************************************************
  94:UART_115200_Functions.c **** * Function Name: processByteReceivedHandler
  95:UART_115200_Functions.c **** ********************************************************************************
  96:UART_115200_Functions.c **** *
  97:UART_115200_Functions.c **** * Summary:
  98:UART_115200_Functions.c **** *  Triggers when a byte is received in UART, called in UART_ISR(). If in voice
  99:UART_115200_Functions.c **** *  stream mode, the byte is sent directly to the DAC.
 100:UART_115200_Functions.c **** *
 101:UART_115200_Functions.c **** * Parameters:
 102:UART_115200_Functions.c **** *  None.
 103:UART_115200_Functions.c **** *
 104:UART_115200_Functions.c **** * Return:
 105:UART_115200_Functions.c **** *  None.
 106:UART_115200_Functions.c **** *
 107:UART_115200_Functions.c **** *******************************************************************************/
 108:UART_115200_Functions.c **** void processByteReceivedHandler_115200(void)
 109:UART_115200_Functions.c **** {
  45              		.loc 1 109 0
  46              		.cfi_startproc
  47              		@ args = 0, pretend = 0, frame = 8
  48              		@ frame_needed = 1, uses_anonymous_args = 0
  49 0000 80B5     		push	{r7, lr}
  50              		.cfi_def_cfa_offset 8
  51              		.cfi_offset 7, -8
  52              		.cfi_offset 14, -4
  53 0002 82B0     		sub	sp, sp, #8
  54              		.cfi_def_cfa_offset 16
  55 0004 00AF     		add	r7, sp, #0
  56              		.cfi_def_cfa_register 7
 110:UART_115200_Functions.c ****     uint8 dataByte = 0;
  57              		.loc 1 110 0
  58 0006 0023     		movs	r3, #0
  59 0008 FB71     		strb	r3, [r7, #7]
  60              	.L3:
 111:UART_115200_Functions.c ****     
ARM GAS  C:\Users\MARTHN~1\AppData\Local\Temp\ccjh9O4t.s 			page 4


 112:UART_115200_Functions.c ****     static uint8 testbuffer[100];
 113:UART_115200_Functions.c ****     static uint8 testbuffer_count = 0;
 114:UART_115200_Functions.c ****     
 115:UART_115200_Functions.c ****     do
 116:UART_115200_Functions.c ****     {
 117:UART_115200_Functions.c ****         dataByte = UART_115200_GetChar();
  61              		.loc 1 117 0
  62 000a FFF7FEFF 		bl	UART_115200_GetChar
  63 000e 0346     		mov	r3, r0
  64 0010 FB71     		strb	r3, [r7, #7]
 118:UART_115200_Functions.c ****         
 119:UART_115200_Functions.c ****         testbuffer[testbuffer_count] = dataByte;
  65              		.loc 1 119 0
  66 0012 114B     		ldr	r3, .L4
  67 0014 1B78     		ldrb	r3, [r3]	@ zero_extendqisi2
  68 0016 1946     		mov	r1, r3
  69 0018 104A     		ldr	r2, .L4+4
  70 001a FB79     		ldrb	r3, [r7, #7]
  71 001c 5354     		strb	r3, [r2, r1]
 120:UART_115200_Functions.c ****         testbuffer_count++;
  72              		.loc 1 120 0
  73 001e 0E4B     		ldr	r3, .L4
  74 0020 1B78     		ldrb	r3, [r3]	@ zero_extendqisi2
  75 0022 0133     		adds	r3, r3, #1
  76 0024 DAB2     		uxtb	r2, r3
  77 0026 0C4B     		ldr	r3, .L4
  78 0028 1A70     		strb	r2, [r3]
 121:UART_115200_Functions.c ****         if(testbuffer_count >= 100)
  79              		.loc 1 121 0
  80 002a 0B4B     		ldr	r3, .L4
  81 002c 1B78     		ldrb	r3, [r3]	@ zero_extendqisi2
  82 002e 632B     		cmp	r3, #99
  83 0030 02D9     		bls	.L2
 122:UART_115200_Functions.c ****             testbuffer_count = 0;
  84              		.loc 1 122 0
  85 0032 094B     		ldr	r3, .L4
  86 0034 0022     		movs	r2, #0
  87 0036 1A70     		strb	r2, [r3]
  88              	.L2:
 123:UART_115200_Functions.c ****         
 124:UART_115200_Functions.c ****         detectPacket(dataByte);
  89              		.loc 1 124 0
  90 0038 FB79     		ldrb	r3, [r7, #7]	@ zero_extendqisi2
  91 003a 1846     		mov	r0, r3
  92 003c FFF7FEFF 		bl	detectPacket
 125:UART_115200_Functions.c ****         
 126:UART_115200_Functions.c ****     }while(UART_115200_ReadRxStatus() & UART_115200_RX_STS_FIFO_NOTEMPTY);
  93              		.loc 1 126 0
  94 0040 FFF7FEFF 		bl	UART_115200_ReadRxStatus
  95 0044 0346     		mov	r3, r0
  96 0046 03F02003 		and	r3, r3, #32
  97 004a 002B     		cmp	r3, #0
  98 004c DDD1     		bne	.L3
 127:UART_115200_Functions.c ****     
 128:UART_115200_Functions.c ****     //UART_Timer_Start();
 129:UART_115200_Functions.c **** }
  99              		.loc 1 129 0
ARM GAS  C:\Users\MARTHN~1\AppData\Local\Temp\ccjh9O4t.s 			page 5


 100 004e 00BF     		nop
 101 0050 0837     		adds	r7, r7, #8
 102              		.cfi_def_cfa_offset 8
 103 0052 BD46     		mov	sp, r7
 104              		.cfi_def_cfa_register 13
 105              		@ sp needed
 106 0054 80BD     		pop	{r7, pc}
 107              	.L5:
 108 0056 00BF     		.align	2
 109              	.L4:
 110 0058 07000000 		.word	testbuffer_count.6922
 111 005c 08000000 		.word	testbuffer.6921
 112              		.cfi_endproc
 113              	.LFE63:
 114              		.size	processByteReceivedHandler_115200, .-processByteReceivedHandler_115200
 115              		.section	.text.detectPacket,"ax",%progbits
 116              		.align	2
 117              		.thumb
 118              		.thumb_func
 119              		.type	detectPacket, %function
 120              	detectPacket:
 121              	.LFB64:
 130:UART_115200_Functions.c **** 
 131:UART_115200_Functions.c **** 
 132:UART_115200_Functions.c **** /**********DEFINED LOCAL FUNCTIONS**********/
 133:UART_115200_Functions.c **** /*******************************************************************************
 134:UART_115200_Functions.c **** * Function Name: detectPacket
 135:UART_115200_Functions.c **** ********************************************************************************
 136:UART_115200_Functions.c **** *
 137:UART_115200_Functions.c **** * Summary:
 138:UART_115200_Functions.c **** *  Determines if the incoming byte belongs to a valid packet. If the packet is for
 139:UART_115200_Functions.c **** *  for starting voice stream, voice stream mode will be activated.
 140:UART_115200_Functions.c **** *
 141:UART_115200_Functions.c **** * Parameters:
 142:UART_115200_Functions.c **** *  dataByte: The byte to check
 143:UART_115200_Functions.c **** *
 144:UART_115200_Functions.c **** * Return:
 145:UART_115200_Functions.c **** *  None.
 146:UART_115200_Functions.c **** *
 147:UART_115200_Functions.c **** *******************************************************************************/
 148:UART_115200_Functions.c **** static void detectPacket(uint8 dataByte)
 149:UART_115200_Functions.c **** {
 122              		.loc 1 149 0
 123              		.cfi_startproc
 124              		@ args = 0, pretend = 0, frame = 8
 125              		@ frame_needed = 1, uses_anonymous_args = 0
 126              		@ link register save eliminated.
 127 0000 80B4     		push	{r7}
 128              		.cfi_def_cfa_offset 4
 129              		.cfi_offset 7, -4
 130 0002 83B0     		sub	sp, sp, #12
 131              		.cfi_def_cfa_offset 16
 132 0004 00AF     		add	r7, sp, #0
 133              		.cfi_def_cfa_register 7
 134 0006 0346     		mov	r3, r0
 135 0008 FB71     		strb	r3, [r7, #7]
 150:UART_115200_Functions.c ****     static uint8 packet[MAX_PAYLOAD_BYTE_COUNT+HEADER_BYTE_COUNT+EOP_BYTE_COUNT];   
ARM GAS  C:\Users\MARTHN~1\AppData\Local\Temp\ccjh9O4t.s 			page 6


 151:UART_115200_Functions.c ****     static enum PacketState currentState = HEADER_STATE;
 152:UART_115200_Functions.c ****     static enum DataType currentType = RTEST_DLINK;
 153:UART_115200_Functions.c ****     static uint8 currentPacketIndex = HEADER_START_INDEX;
 154:UART_115200_Functions.c ****     
 155:UART_115200_Functions.c ****     switch(currentState)
 136              		.loc 1 155 0
 137 000a 6D4B     		ldr	r3, .L22
 138 000c 1B78     		ldrb	r3, [r3]	@ zero_extendqisi2
 139 000e 012B     		cmp	r3, #1
 140 0010 43D0     		beq	.L8
 141 0012 022B     		cmp	r3, #2
 142 0014 61D0     		beq	.L9
 143 0016 002B     		cmp	r3, #0
 144 0018 00D0     		beq	.L10
 156:UART_115200_Functions.c ****     {
 157:UART_115200_Functions.c ****         case HEADER_STATE:
 158:UART_115200_Functions.c ****             if( (currentPacketIndex == HEADER_START_INDEX) && ( (dataByte == PacketList[RTEST_DLINK
 159:UART_115200_Functions.c **** //                                                                (dataByte == PacketList[CTEST_QUA
 160:UART_115200_Functions.c **** //                                                                (dataByte == PacketList[CTEST_AUD
 161:UART_115200_Functions.c **** //                                                                (dataByte == PacketList[QTEST_QUA
 162:UART_115200_Functions.c ****             {
 163:UART_115200_Functions.c ****                 packet[currentPacketIndex] = dataByte;
 164:UART_115200_Functions.c ****                 currentPacketIndex++;
 165:UART_115200_Functions.c ****             }
 166:UART_115200_Functions.c ****             else if( (currentPacketIndex == (HEADER_START_INDEX+1)) && ( (dataByte == PacketList[RT
 167:UART_115200_Functions.c **** //                                                                            (dataByte == PacketLi
 168:UART_115200_Functions.c **** //                                                                            (dataByte == PacketLi
 169:UART_115200_Functions.c **** //                                                                            (dataByte == PacketLi
 170:UART_115200_Functions.c ****             {
 171:UART_115200_Functions.c ****                 packet[currentPacketIndex] = dataByte;
 172:UART_115200_Functions.c ****                 currentPacketIndex++;
 173:UART_115200_Functions.c ****                 currentState = PAYLOAD_STATE;
 174:UART_115200_Functions.c ****                 
 175:UART_115200_Functions.c ****                 if(dataByte == PacketList[RTEST_DLINK].PACKET_TYPE)
 176:UART_115200_Functions.c ****                     currentType = RTEST_DLINK;
 177:UART_115200_Functions.c **** //                else if(dataByte == PacketList[CTEST_QUADSERIAL].PACKET_TYPE)
 178:UART_115200_Functions.c **** //                    currentType = CTEST_QUADSERIAL;
 179:UART_115200_Functions.c **** //                else if(dataByte == PacketList[CTEST_AUDIO].PACKET_TYPE)
 180:UART_115200_Functions.c **** //                    currentType = CTEST_AUDIO;
 181:UART_115200_Functions.c **** //                else if(dataByte == PacketList[QTEST_QUAD].PACKET_TYPE)
 182:UART_115200_Functions.c **** //                    currentType = QTEST_QUAD;
 183:UART_115200_Functions.c **** //                else
 184:UART_115200_Functions.c **** //                    currentType = CTEST_QUAD;
 185:UART_115200_Functions.c ****             }
 186:UART_115200_Functions.c ****             else
 187:UART_115200_Functions.c ****             {
 188:UART_115200_Functions.c ****                 currentPacketIndex = HEADER_START_INDEX;
 189:UART_115200_Functions.c ****                 currentType = RTEST_DLINK;
 190:UART_115200_Functions.c ****             }
 191:UART_115200_Functions.c ****             break;
 192:UART_115200_Functions.c ****             
 193:UART_115200_Functions.c ****         case PAYLOAD_STATE:
 194:UART_115200_Functions.c ****             packet[currentPacketIndex] = dataByte;
 195:UART_115200_Functions.c ****             currentPacketIndex++;
 196:UART_115200_Functions.c ****             
 197:UART_115200_Functions.c ****             if(currentPacketIndex >= (PAYLOAD_START_INDEX + PacketList[currentType].PAYLOAD_SIZE))
 198:UART_115200_Functions.c ****                 currentState = EOP_STATE;
ARM GAS  C:\Users\MARTHN~1\AppData\Local\Temp\ccjh9O4t.s 			page 7


 199:UART_115200_Functions.c ****             break;   
 200:UART_115200_Functions.c ****             
 201:UART_115200_Functions.c ****         case EOP_STATE:
 202:UART_115200_Functions.c ****             if((currentPacketIndex == (PAYLOAD_START_INDEX + PacketList[currentType].PAYLOAD_SIZE))
 203:UART_115200_Functions.c ****                 (dataByte == PacketList[currentType].EOP_CARRIAGE_RETURN))
 204:UART_115200_Functions.c ****             {
 205:UART_115200_Functions.c ****                 packet[currentPacketIndex] = dataByte;
 206:UART_115200_Functions.c ****                 currentPacketIndex++;
 207:UART_115200_Functions.c ****             }
 208:UART_115200_Functions.c ****             else if((currentPacketIndex == (PAYLOAD_START_INDEX + PacketList[currentType].PAYLOAD_S
 209:UART_115200_Functions.c ****                 (dataByte == PacketList[currentType].EOP_LINE_FEED))
 210:UART_115200_Functions.c ****             {
 211:UART_115200_Functions.c ****                 packet[currentPacketIndex] = dataByte;
 212:UART_115200_Functions.c ****                               
 213:UART_115200_Functions.c ****                 if(currentType == RTEST_DLINK)
 214:UART_115200_Functions.c ****                 {
 215:UART_115200_Functions.c **** //                   pRxPacket_Controller = getRxPacket_Controller();
 216:UART_115200_Functions.c **** //                   memcpy(&pRxPacket_Controller->bytes[0], &packet[2], PacketList[CTEST_RELAY].PA
 217:UART_115200_Functions.c ****                     packetsuccess[RTEST_DLINK]++;   
 218:UART_115200_Functions.c ****                 }
 219:UART_115200_Functions.c **** //                else if(currentType == CTEST_QUADSERIAL)
 220:UART_115200_Functions.c **** //                {
 221:UART_115200_Functions.c **** ////                   pRxPacket_Relay = getRxPacket_Relay();
 222:UART_115200_Functions.c **** ////                   memcpy(&pRxPacket_Relay->bytes[0], &packet[2], PacketList[RTEST_CONTROLLER].
 223:UART_115200_Functions.c **** //                   packetsuccess[CTEST_QUADSERIAL]++;   
 224:UART_115200_Functions.c **** //                }
 225:UART_115200_Functions.c **** //                else if(currentType == CTEST_AUDIO)
 226:UART_115200_Functions.c **** //                   packetsuccess[CTEST_AUDIO]++;
 227:UART_115200_Functions.c **** //
 228:UART_115200_Functions.c **** //                else if(currentType == QTEST_QUAD)
 229:UART_115200_Functions.c **** //                   packetsuccess[QTEST_QUAD]++;
 230:UART_115200_Functions.c **** //
 231:UART_115200_Functions.c **** ////                if(packetsuccess[0] > 1000)
 232:UART_115200_Functions.c **** ////                    packetsuccess[0] = 0;
 233:UART_115200_Functions.c **** ////                if(packetsuccess[2] > 1000)
 234:UART_115200_Functions.c **** ////                    packetsuccess[2] = 0;
 235:UART_115200_Functions.c **** //
 236:UART_115200_Functions.c **** ////                if(count >= 50)
 237:UART_115200_Functions.c **** ////                    packetsuccess[2] = 0;
 238:UART_115200_Functions.c **** ////                if(count == 0)
 239:UART_115200_Functions.c **** ////                    packetsuccess[2] = 0;
 240:UART_115200_Functions.c ****                 
 241:UART_115200_Functions.c ****                 currentPacketIndex = HEADER_START_INDEX;
 242:UART_115200_Functions.c ****                 currentState = HEADER_STATE;
 243:UART_115200_Functions.c ****                 currentType = RTEST_DLINK;
 244:UART_115200_Functions.c ****             }
 245:UART_115200_Functions.c ****             else
 246:UART_115200_Functions.c ****             {
 247:UART_115200_Functions.c ****                 currentPacketIndex = HEADER_START_INDEX;
 248:UART_115200_Functions.c ****                 currentState = HEADER_STATE;
 249:UART_115200_Functions.c ****                 currentType = RTEST_DLINK;
 250:UART_115200_Functions.c ****             }
 251:UART_115200_Functions.c ****             break;
 252:UART_115200_Functions.c ****     }
 253:UART_115200_Functions.c **** }
 145              		.loc 1 253 0
 146 001a CBE0     		b	.L21
ARM GAS  C:\Users\MARTHN~1\AppData\Local\Temp\ccjh9O4t.s 			page 8


 147              	.L10:
 158:UART_115200_Functions.c **** //                                                                (dataByte == PacketList[CTEST_QUA
 148              		.loc 1 158 0
 149 001c 694B     		ldr	r3, .L22+4
 150 001e 1B78     		ldrb	r3, [r3]	@ zero_extendqisi2
 151 0020 002B     		cmp	r3, #0
 152 0022 11D1     		bne	.L11
 158:UART_115200_Functions.c **** //                                                                (dataByte == PacketList[CTEST_QUA
 153              		.loc 1 158 0 is_stmt 0 discriminator 1
 154 0024 684B     		ldr	r3, .L22+8
 155 0026 1B78     		ldrb	r3, [r3]	@ zero_extendqisi2
 156 0028 FA79     		ldrb	r2, [r7, #7]	@ zero_extendqisi2
 157 002a 9A42     		cmp	r2, r3
 158 002c 0CD1     		bne	.L11
 163:UART_115200_Functions.c ****                 currentPacketIndex++;
 159              		.loc 1 163 0 is_stmt 1
 160 002e 654B     		ldr	r3, .L22+4
 161 0030 1B78     		ldrb	r3, [r3]	@ zero_extendqisi2
 162 0032 1946     		mov	r1, r3
 163 0034 654A     		ldr	r2, .L22+12
 164 0036 FB79     		ldrb	r3, [r7, #7]
 165 0038 5354     		strb	r3, [r2, r1]
 164:UART_115200_Functions.c ****             }
 166              		.loc 1 164 0
 167 003a 624B     		ldr	r3, .L22+4
 168 003c 1B78     		ldrb	r3, [r3]	@ zero_extendqisi2
 169 003e 0133     		adds	r3, r3, #1
 170 0040 DAB2     		uxtb	r2, r3
 171 0042 604B     		ldr	r3, .L22+4
 172 0044 1A70     		strb	r2, [r3]
 173 0046 27E0     		b	.L12
 174              	.L11:
 166:UART_115200_Functions.c **** //                                                                            (dataByte == PacketLi
 175              		.loc 1 166 0
 176 0048 5E4B     		ldr	r3, .L22+4
 177 004a 1B78     		ldrb	r3, [r3]	@ zero_extendqisi2
 178 004c 012B     		cmp	r3, #1
 179 004e 1CD1     		bne	.L13
 166:UART_115200_Functions.c **** //                                                                            (dataByte == PacketLi
 180              		.loc 1 166 0 is_stmt 0 discriminator 1
 181 0050 5D4B     		ldr	r3, .L22+8
 182 0052 5B78     		ldrb	r3, [r3, #1]	@ zero_extendqisi2
 183 0054 FA79     		ldrb	r2, [r7, #7]	@ zero_extendqisi2
 184 0056 9A42     		cmp	r2, r3
 185 0058 17D1     		bne	.L13
 171:UART_115200_Functions.c ****                 currentPacketIndex++;
 186              		.loc 1 171 0 is_stmt 1
 187 005a 5A4B     		ldr	r3, .L22+4
 188 005c 1B78     		ldrb	r3, [r3]	@ zero_extendqisi2
 189 005e 1946     		mov	r1, r3
 190 0060 5A4A     		ldr	r2, .L22+12
 191 0062 FB79     		ldrb	r3, [r7, #7]
 192 0064 5354     		strb	r3, [r2, r1]
 172:UART_115200_Functions.c ****                 currentState = PAYLOAD_STATE;
 193              		.loc 1 172 0
 194 0066 574B     		ldr	r3, .L22+4
 195 0068 1B78     		ldrb	r3, [r3]	@ zero_extendqisi2
ARM GAS  C:\Users\MARTHN~1\AppData\Local\Temp\ccjh9O4t.s 			page 9


 196 006a 0133     		adds	r3, r3, #1
 197 006c DAB2     		uxtb	r2, r3
 198 006e 554B     		ldr	r3, .L22+4
 199 0070 1A70     		strb	r2, [r3]
 173:UART_115200_Functions.c ****                 
 200              		.loc 1 173 0
 201 0072 534B     		ldr	r3, .L22
 202 0074 0122     		movs	r2, #1
 203 0076 1A70     		strb	r2, [r3]
 175:UART_115200_Functions.c ****                     currentType = RTEST_DLINK;
 204              		.loc 1 175 0
 205 0078 534B     		ldr	r3, .L22+8
 206 007a 5B78     		ldrb	r3, [r3, #1]	@ zero_extendqisi2
 207 007c FA79     		ldrb	r2, [r7, #7]	@ zero_extendqisi2
 208 007e 9A42     		cmp	r2, r3
 209 0080 0AD1     		bne	.L12
 176:UART_115200_Functions.c **** //                else if(dataByte == PacketList[CTEST_QUADSERIAL].PACKET_TYPE)
 210              		.loc 1 176 0
 211 0082 534B     		ldr	r3, .L22+16
 212 0084 0022     		movs	r2, #0
 213 0086 1A70     		strb	r2, [r3]
 175:UART_115200_Functions.c ****                     currentType = RTEST_DLINK;
 214              		.loc 1 175 0
 215 0088 06E0     		b	.L12
 216              	.L13:
 188:UART_115200_Functions.c ****                 currentType = RTEST_DLINK;
 217              		.loc 1 188 0
 218 008a 4E4B     		ldr	r3, .L22+4
 219 008c 0022     		movs	r2, #0
 220 008e 1A70     		strb	r2, [r3]
 189:UART_115200_Functions.c ****             }
 221              		.loc 1 189 0
 222 0090 4F4B     		ldr	r3, .L22+16
 223 0092 0022     		movs	r2, #0
 224 0094 1A70     		strb	r2, [r3]
 191:UART_115200_Functions.c ****             
 225              		.loc 1 191 0
 226 0096 8DE0     		b	.L7
 227              	.L12:
 191:UART_115200_Functions.c ****             
 228              		.loc 1 191 0 is_stmt 0 discriminator 1
 229 0098 8CE0     		b	.L7
 230              	.L8:
 194:UART_115200_Functions.c ****             currentPacketIndex++;
 231              		.loc 1 194 0 is_stmt 1
 232 009a 4A4B     		ldr	r3, .L22+4
 233 009c 1B78     		ldrb	r3, [r3]	@ zero_extendqisi2
 234 009e 1946     		mov	r1, r3
 235 00a0 4A4A     		ldr	r2, .L22+12
 236 00a2 FB79     		ldrb	r3, [r7, #7]
 237 00a4 5354     		strb	r3, [r2, r1]
 195:UART_115200_Functions.c ****             
 238              		.loc 1 195 0
 239 00a6 474B     		ldr	r3, .L22+4
 240 00a8 1B78     		ldrb	r3, [r3]	@ zero_extendqisi2
 241 00aa 0133     		adds	r3, r3, #1
 242 00ac DAB2     		uxtb	r2, r3
ARM GAS  C:\Users\MARTHN~1\AppData\Local\Temp\ccjh9O4t.s 			page 10


 243 00ae 454B     		ldr	r3, .L22+4
 244 00b0 1A70     		strb	r2, [r3]
 197:UART_115200_Functions.c ****                 currentState = EOP_STATE;
 245              		.loc 1 197 0
 246 00b2 444B     		ldr	r3, .L22+4
 247 00b4 1B78     		ldrb	r3, [r3]	@ zero_extendqisi2
 248 00b6 1846     		mov	r0, r3
 249 00b8 454B     		ldr	r3, .L22+16
 250 00ba 1B78     		ldrb	r3, [r3]	@ zero_extendqisi2
 251 00bc 1946     		mov	r1, r3
 252 00be 424A     		ldr	r2, .L22+8
 253 00c0 0B46     		mov	r3, r1
 254 00c2 9B00     		lsls	r3, r3, #2
 255 00c4 0B44     		add	r3, r3, r1
 256 00c6 1344     		add	r3, r3, r2
 257 00c8 0233     		adds	r3, r3, #2
 258 00ca 1B78     		ldrb	r3, [r3]	@ zero_extendqisi2
 259 00cc 0233     		adds	r3, r3, #2
 260 00ce 9842     		cmp	r0, r3
 261 00d0 6FDB     		blt	.L20
 198:UART_115200_Functions.c ****             break;   
 262              		.loc 1 198 0
 263 00d2 3B4B     		ldr	r3, .L22
 264 00d4 0222     		movs	r2, #2
 265 00d6 1A70     		strb	r2, [r3]
 199:UART_115200_Functions.c ****             
 266              		.loc 1 199 0
 267 00d8 6BE0     		b	.L20
 268              	.L9:
 202:UART_115200_Functions.c ****                 (dataByte == PacketList[currentType].EOP_CARRIAGE_RETURN))
 269              		.loc 1 202 0
 270 00da 3A4B     		ldr	r3, .L22+4
 271 00dc 1B78     		ldrb	r3, [r3]	@ zero_extendqisi2
 272 00de 1846     		mov	r0, r3
 273 00e0 3B4B     		ldr	r3, .L22+16
 274 00e2 1B78     		ldrb	r3, [r3]	@ zero_extendqisi2
 275 00e4 1946     		mov	r1, r3
 276 00e6 384A     		ldr	r2, .L22+8
 277 00e8 0B46     		mov	r3, r1
 278 00ea 9B00     		lsls	r3, r3, #2
 279 00ec 0B44     		add	r3, r3, r1
 280 00ee 1344     		add	r3, r3, r2
 281 00f0 0233     		adds	r3, r3, #2
 282 00f2 1B78     		ldrb	r3, [r3]	@ zero_extendqisi2
 283 00f4 0233     		adds	r3, r3, #2
 284 00f6 9842     		cmp	r0, r3
 285 00f8 19D1     		bne	.L16
 203:UART_115200_Functions.c ****             {
 286              		.loc 1 203 0 discriminator 1
 287 00fa 354B     		ldr	r3, .L22+16
 288 00fc 1B78     		ldrb	r3, [r3]	@ zero_extendqisi2
 289 00fe 1946     		mov	r1, r3
 290 0100 314A     		ldr	r2, .L22+8
 291 0102 0B46     		mov	r3, r1
 292 0104 9B00     		lsls	r3, r3, #2
 293 0106 0B44     		add	r3, r3, r1
 294 0108 1344     		add	r3, r3, r2
ARM GAS  C:\Users\MARTHN~1\AppData\Local\Temp\ccjh9O4t.s 			page 11


 295 010a 0333     		adds	r3, r3, #3
 296 010c 1B78     		ldrb	r3, [r3]	@ zero_extendqisi2
 202:UART_115200_Functions.c ****                 (dataByte == PacketList[currentType].EOP_CARRIAGE_RETURN))
 297              		.loc 1 202 0 discriminator 1
 298 010e FA79     		ldrb	r2, [r7, #7]	@ zero_extendqisi2
 299 0110 9A42     		cmp	r2, r3
 300 0112 0CD1     		bne	.L16
 205:UART_115200_Functions.c ****                 currentPacketIndex++;
 301              		.loc 1 205 0
 302 0114 2B4B     		ldr	r3, .L22+4
 303 0116 1B78     		ldrb	r3, [r3]	@ zero_extendqisi2
 304 0118 1946     		mov	r1, r3
 305 011a 2C4A     		ldr	r2, .L22+12
 306 011c FB79     		ldrb	r3, [r7, #7]
 307 011e 5354     		strb	r3, [r2, r1]
 206:UART_115200_Functions.c ****             }
 308              		.loc 1 206 0
 309 0120 284B     		ldr	r3, .L22+4
 310 0122 1B78     		ldrb	r3, [r3]	@ zero_extendqisi2
 311 0124 0133     		adds	r3, r3, #1
 312 0126 DAB2     		uxtb	r2, r3
 313 0128 264B     		ldr	r3, .L22+4
 314 012a 1A70     		strb	r2, [r3]
 315 012c 40E0     		b	.L17
 316              	.L16:
 208:UART_115200_Functions.c ****                 (dataByte == PacketList[currentType].EOP_LINE_FEED))
 317              		.loc 1 208 0
 318 012e 254B     		ldr	r3, .L22+4
 319 0130 1B78     		ldrb	r3, [r3]	@ zero_extendqisi2
 320 0132 1846     		mov	r0, r3
 321 0134 264B     		ldr	r3, .L22+16
 322 0136 1B78     		ldrb	r3, [r3]	@ zero_extendqisi2
 323 0138 1946     		mov	r1, r3
 324 013a 234A     		ldr	r2, .L22+8
 325 013c 0B46     		mov	r3, r1
 326 013e 9B00     		lsls	r3, r3, #2
 327 0140 0B44     		add	r3, r3, r1
 328 0142 1344     		add	r3, r3, r2
 329 0144 0233     		adds	r3, r3, #2
 330 0146 1B78     		ldrb	r3, [r3]	@ zero_extendqisi2
 331 0148 0333     		adds	r3, r3, #3
 332 014a 9842     		cmp	r0, r3
 333 014c 26D1     		bne	.L18
 209:UART_115200_Functions.c ****             {
 334              		.loc 1 209 0 discriminator 1
 335 014e 204B     		ldr	r3, .L22+16
 336 0150 1B78     		ldrb	r3, [r3]	@ zero_extendqisi2
 337 0152 1946     		mov	r1, r3
 338 0154 1C4A     		ldr	r2, .L22+8
 339 0156 0B46     		mov	r3, r1
 340 0158 9B00     		lsls	r3, r3, #2
 341 015a 0B44     		add	r3, r3, r1
 342 015c 1344     		add	r3, r3, r2
 343 015e 0433     		adds	r3, r3, #4
 344 0160 1B78     		ldrb	r3, [r3]	@ zero_extendqisi2
 208:UART_115200_Functions.c ****                 (dataByte == PacketList[currentType].EOP_LINE_FEED))
 345              		.loc 1 208 0 discriminator 1
ARM GAS  C:\Users\MARTHN~1\AppData\Local\Temp\ccjh9O4t.s 			page 12


 346 0162 FA79     		ldrb	r2, [r7, #7]	@ zero_extendqisi2
 347 0164 9A42     		cmp	r2, r3
 348 0166 19D1     		bne	.L18
 211:UART_115200_Functions.c ****                               
 349              		.loc 1 211 0
 350 0168 164B     		ldr	r3, .L22+4
 351 016a 1B78     		ldrb	r3, [r3]	@ zero_extendqisi2
 352 016c 1946     		mov	r1, r3
 353 016e 174A     		ldr	r2, .L22+12
 354 0170 FB79     		ldrb	r3, [r7, #7]
 355 0172 5354     		strb	r3, [r2, r1]
 213:UART_115200_Functions.c ****                 {
 356              		.loc 1 213 0
 357 0174 164B     		ldr	r3, .L22+16
 358 0176 1B78     		ldrb	r3, [r3]	@ zero_extendqisi2
 359 0178 002B     		cmp	r3, #0
 360 017a 05D1     		bne	.L19
 217:UART_115200_Functions.c ****                 }
 361              		.loc 1 217 0
 362 017c 154B     		ldr	r3, .L22+20
 363 017e 1B88     		ldrh	r3, [r3]
 364 0180 0133     		adds	r3, r3, #1
 365 0182 9AB2     		uxth	r2, r3
 366 0184 134B     		ldr	r3, .L22+20
 367 0186 1A80     		strh	r2, [r3]	@ movhi
 368              	.L19:
 241:UART_115200_Functions.c ****                 currentState = HEADER_STATE;
 369              		.loc 1 241 0
 370 0188 0E4B     		ldr	r3, .L22+4
 371 018a 0022     		movs	r2, #0
 372 018c 1A70     		strb	r2, [r3]
 242:UART_115200_Functions.c ****                 currentType = RTEST_DLINK;
 373              		.loc 1 242 0
 374 018e 0C4B     		ldr	r3, .L22
 375 0190 0022     		movs	r2, #0
 376 0192 1A70     		strb	r2, [r3]
 243:UART_115200_Functions.c ****             }
 377              		.loc 1 243 0
 378 0194 0E4B     		ldr	r3, .L22+16
 379 0196 0022     		movs	r2, #0
 380 0198 1A70     		strb	r2, [r3]
 381 019a 09E0     		b	.L17
 382              	.L18:
 247:UART_115200_Functions.c ****                 currentState = HEADER_STATE;
 383              		.loc 1 247 0
 384 019c 094B     		ldr	r3, .L22+4
 385 019e 0022     		movs	r2, #0
 386 01a0 1A70     		strb	r2, [r3]
 248:UART_115200_Functions.c ****                 currentType = RTEST_DLINK;
 387              		.loc 1 248 0
 388 01a2 074B     		ldr	r3, .L22
 389 01a4 0022     		movs	r2, #0
 390 01a6 1A70     		strb	r2, [r3]
 249:UART_115200_Functions.c ****             }
 391              		.loc 1 249 0
 392 01a8 094B     		ldr	r3, .L22+16
 393 01aa 0022     		movs	r2, #0
ARM GAS  C:\Users\MARTHN~1\AppData\Local\Temp\ccjh9O4t.s 			page 13


 394 01ac 1A70     		strb	r2, [r3]
 251:UART_115200_Functions.c ****     }
 395              		.loc 1 251 0
 396 01ae 01E0     		b	.L7
 397              	.L17:
 398 01b0 00E0     		b	.L7
 399              	.L20:
 199:UART_115200_Functions.c ****             
 400              		.loc 1 199 0
 401 01b2 00BF     		nop
 402              	.L7:
 403              	.L21:
 404              		.loc 1 253 0
 405 01b4 00BF     		nop
 406 01b6 0C37     		adds	r7, r7, #12
 407              		.cfi_def_cfa_offset 4
 408 01b8 BD46     		mov	sp, r7
 409              		.cfi_def_cfa_register 13
 410              		@ sp needed
 411 01ba 80BC     		pop	{r7}
 412              		.cfi_restore 7
 413              		.cfi_def_cfa_offset 0
 414 01bc 7047     		bx	lr
 415              	.L23:
 416 01be 00BF     		.align	2
 417              	.L22:
 418 01c0 6C000000 		.word	currentState.6929
 419 01c4 6D000000 		.word	currentPacketIndex.6931
 420 01c8 00000000 		.word	PacketList
 421 01cc 70000000 		.word	packet.6928
 422 01d0 77000000 		.word	currentType.6930
 423 01d4 00000000 		.word	packetsuccess
 424              		.cfi_endproc
 425              	.LFE64:
 426              		.size	detectPacket, .-detectPacket
 427              		.section	.text.ResetPacketSuccess_115200,"ax",%progbits
 428              		.align	2
 429              		.global	ResetPacketSuccess_115200
 430              		.thumb
 431              		.thumb_func
 432              		.type	ResetPacketSuccess_115200, %function
 433              	ResetPacketSuccess_115200:
 434              	.LFB65:
 254:UART_115200_Functions.c **** 
 255:UART_115200_Functions.c **** //void sendPacketToController(void)                   //*** This part needs some work
 256:UART_115200_Functions.c **** //{
 257:UART_115200_Functions.c **** //    static uint16 iterator = 0;
 258:UART_115200_Functions.c **** //    static uint8 checkSumRelay = 0;
 259:UART_115200_Functions.c **** //    static uint8 checkSumRelayIterator = 0;
 260:UART_115200_Functions.c **** //    static uint8 toggleSend = 0;
 261:UART_115200_Functions.c **** //    
 262:UART_115200_Functions.c **** //    static TxPacket_Controller txPacket_Controller;            
 263:UART_115200_Functions.c **** //    static TxPacket_Controller * pTxPacket_Controller;
 264:UART_115200_Functions.c **** //    
 265:UART_115200_Functions.c **** //    pRxPacket_Controller = getRxPacket_Controller();
 266:UART_115200_Functions.c **** //
 267:UART_115200_Functions.c **** //    checkSumRelay = 0;
ARM GAS  C:\Users\MARTHN~1\AppData\Local\Temp\ccjh9O4t.s 			page 14


 268:UART_115200_Functions.c **** //    for(checkSumRelayIterator = 0; checkSumRelayIterator<PacketList[CTEST_RELAY].PAYLOAD_SIZE; ch
 269:UART_115200_Functions.c **** //    {
 270:UART_115200_Functions.c **** //        checkSumRelay ^= pTxPacket_Controller->bytes[checkSumRelayIterator];
 271:UART_115200_Functions.c **** //    }
 272:UART_115200_Functions.c **** //    
 273:UART_115200_Functions.c **** //    toggleSend^=0x01;
 274:UART_115200_Functions.c **** //    if(toggleSend == 1)
 275:UART_115200_Functions.c **** //    {
 276:UART_115200_Functions.c **** //
 277:UART_115200_Functions.c **** //        UART_230400_WriteTxData(0x7E);
 278:UART_115200_Functions.c **** //        UART_230400_WriteTxData('D');
 279:UART_115200_Functions.c **** //        for(iterator = 0; iterator<PacketList[CTEST_RELAY].PAYLOAD_SIZE; iterator++)             
 280:UART_115200_Functions.c **** //        {
 281:UART_115200_Functions.c **** //            UART_230400_WriteTxData(pTxPacket_Controller->bytes[iterator]);
 282:UART_115200_Functions.c **** //        }
 283:UART_115200_Functions.c **** //       
 284:UART_115200_Functions.c **** //        UART_230400_WriteTxData(checkSumRelay);
 285:UART_115200_Functions.c **** //        UART_230400_WriteTxData(0x0D);
 286:UART_115200_Functions.c **** //        UART_230400_WriteTxData(0x0A);
 287:UART_115200_Functions.c **** //    }
 288:UART_115200_Functions.c **** ////    else                                                                                    // 
 289:UART_115200_Functions.c **** ////    {
 290:UART_115200_Functions.c **** ////        for(iterator = 0; iterator<72; iterator++)
 291:UART_115200_Functions.c **** ////        {
 292:UART_115200_Functions.c **** ////            CONTROLLER_WriteTxData(gpsValuesToSend->byte[iterator]);
 293:UART_115200_Functions.c **** ////        }
 294:UART_115200_Functions.c **** ////    }
 295:UART_115200_Functions.c **** //}
 296:UART_115200_Functions.c **** 
 297:UART_115200_Functions.c **** void ResetPacketSuccess_115200(void)           //*** This can be improved
 298:UART_115200_Functions.c **** {
 435              		.loc 1 298 0
 436              		.cfi_startproc
 437              		@ args = 0, pretend = 0, frame = 0
 438              		@ frame_needed = 1, uses_anonymous_args = 0
 439              		@ link register save eliminated.
 440 0000 80B4     		push	{r7}
 441              		.cfi_def_cfa_offset 4
 442              		.cfi_offset 7, -4
 443 0002 00AF     		add	r7, sp, #0
 444              		.cfi_def_cfa_register 7
 299:UART_115200_Functions.c **** //    packetsuccess[0] = 0;
 300:UART_115200_Functions.c **** //    packetsuccess[1] = 0;
 301:UART_115200_Functions.c **** //    packetsuccess[2] = 0;
 302:UART_115200_Functions.c **** //    packetsuccess[3] = 0;
 303:UART_115200_Functions.c ****     
 304:UART_115200_Functions.c ****     return;
 445              		.loc 1 304 0
 446 0004 00BF     		nop
 305:UART_115200_Functions.c **** }
 447              		.loc 1 305 0
 448 0006 BD46     		mov	sp, r7
 449              		.cfi_def_cfa_register 13
 450              		@ sp needed
 451 0008 80BC     		pop	{r7}
 452              		.cfi_restore 7
 453              		.cfi_def_cfa_offset 0
ARM GAS  C:\Users\MARTHN~1\AppData\Local\Temp\ccjh9O4t.s 			page 15


 454 000a 7047     		bx	lr
 455              		.cfi_endproc
 456              	.LFE65:
 457              		.size	ResetPacketSuccess_115200, .-ResetPacketSuccess_115200
 458              		.section	.text.VerifyPacket_115200,"ax",%progbits
 459              		.align	2
 460              		.global	VerifyPacket_115200
 461              		.thumb
 462              		.thumb_func
 463              		.type	VerifyPacket_115200, %function
 464              	VerifyPacket_115200:
 465              	.LFB66:
 306:UART_115200_Functions.c **** 
 307:UART_115200_Functions.c **** uint8 VerifyPacket_115200(uint8 PacketType)
 308:UART_115200_Functions.c **** {
 466              		.loc 1 308 0
 467              		.cfi_startproc
 468              		@ args = 0, pretend = 0, frame = 8
 469              		@ frame_needed = 1, uses_anonymous_args = 0
 470              		@ link register save eliminated.
 471 0000 80B4     		push	{r7}
 472              		.cfi_def_cfa_offset 4
 473              		.cfi_offset 7, -4
 474 0002 83B0     		sub	sp, sp, #12
 475              		.cfi_def_cfa_offset 16
 476 0004 00AF     		add	r7, sp, #0
 477              		.cfi_def_cfa_register 7
 478 0006 0346     		mov	r3, r0
 479 0008 FB71     		strb	r3, [r7, #7]
 309:UART_115200_Functions.c ****     
 310:UART_115200_Functions.c ****     if(packetsuccess[PacketType] == PACKET_VERIFICATION_COUNT)                //maybe we wait until
 480              		.loc 1 310 0
 481 000a FB79     		ldrb	r3, [r7, #7]	@ zero_extendqisi2
 482 000c 0E4A     		ldr	r2, .L30
 483 000e 32F81330 		ldrh	r3, [r2, r3, lsl #1]
 484 0012 052B     		cmp	r3, #5
 485 0014 06D1     		bne	.L27
 311:UART_115200_Functions.c ****     {
 312:UART_115200_Functions.c ****         packetsuccess[PacketType] = 0;
 486              		.loc 1 312 0
 487 0016 FB79     		ldrb	r3, [r7, #7]	@ zero_extendqisi2
 488 0018 0B4A     		ldr	r2, .L30
 489 001a 0021     		movs	r1, #0
 490 001c 22F81310 		strh	r1, [r2, r3, lsl #1]	@ movhi
 313:UART_115200_Functions.c ****         return(1);
 491              		.loc 1 313 0
 492 0020 0123     		movs	r3, #1
 493 0022 0BE0     		b	.L28
 494              	.L27:
 314:UART_115200_Functions.c ****     }
 315:UART_115200_Functions.c ****     else if(packetsuccess[PacketType] > PACKET_VERIFICATION_COUNT)
 495              		.loc 1 315 0
 496 0024 FB79     		ldrb	r3, [r7, #7]	@ zero_extendqisi2
 497 0026 084A     		ldr	r2, .L30
 498 0028 32F81330 		ldrh	r3, [r2, r3, lsl #1]
 499 002c 052B     		cmp	r3, #5
 500 002e 04D9     		bls	.L29
ARM GAS  C:\Users\MARTHN~1\AppData\Local\Temp\ccjh9O4t.s 			page 16


 316:UART_115200_Functions.c ****         packetsuccess[PacketType] = 0;
 501              		.loc 1 316 0
 502 0030 FB79     		ldrb	r3, [r7, #7]	@ zero_extendqisi2
 503 0032 054A     		ldr	r2, .L30
 504 0034 0021     		movs	r1, #0
 505 0036 22F81310 		strh	r1, [r2, r3, lsl #1]	@ movhi
 506              	.L29:
 317:UART_115200_Functions.c ****     
 318:UART_115200_Functions.c ****         
 319:UART_115200_Functions.c ****     return(0);
 507              		.loc 1 319 0
 508 003a 0023     		movs	r3, #0
 509              	.L28:
 320:UART_115200_Functions.c ****         
 321:UART_115200_Functions.c ****         
 322:UART_115200_Functions.c **** //    if(packetsuccess[PacketType] >= PACKET_VERIFICATION_COUNT)                //maybe we wait unt
 323:UART_115200_Functions.c **** //        return(1);
 324:UART_115200_Functions.c **** //    else
 325:UART_115200_Functions.c **** //        return(0);
 326:UART_115200_Functions.c ****        
 327:UART_115200_Functions.c **** }
 510              		.loc 1 327 0
 511 003c 1846     		mov	r0, r3
 512 003e 0C37     		adds	r7, r7, #12
 513              		.cfi_def_cfa_offset 4
 514 0040 BD46     		mov	sp, r7
 515              		.cfi_def_cfa_register 13
 516              		@ sp needed
 517 0042 80BC     		pop	{r7}
 518              		.cfi_restore 7
 519              		.cfi_def_cfa_offset 0
 520 0044 7047     		bx	lr
 521              	.L31:
 522 0046 00BF     		.align	2
 523              	.L30:
 524 0048 00000000 		.word	packetsuccess
 525              		.cfi_endproc
 526              	.LFE66:
 527              		.size	VerifyPacket_115200, .-VerifyPacket_115200
 528              		.bss
 529              	testbuffer_count.6922:
 530 0007 00       		.space	1
 531              		.align	2
 532              	testbuffer.6921:
 533 0008 00000000 		.space	100
 533      00000000 
 533      00000000 
 533      00000000 
 533      00000000 
 534              	currentState.6929:
 535 006c 00       		.space	1
 536              	currentPacketIndex.6931:
 537 006d 00       		.space	1
 538 006e 0000     		.align	2
 539              	packet.6928:
 540 0070 00000000 		.space	7
 540      000000
ARM GAS  C:\Users\MARTHN~1\AppData\Local\Temp\ccjh9O4t.s 			page 17


 541              	currentType.6930:
 542 0077 00       		.space	1
 543              		.text
 544              	.Letext0:
 545              		.file 2 "c:\\program files (x86)\\cypress\\psoc creator\\4.3\\psoc creator\\import\\gnu\\arm\\5.4.
 546              		.file 3 "c:\\program files (x86)\\cypress\\psoc creator\\4.3\\psoc creator\\import\\gnu\\arm\\5.4.
 547              		.file 4 "Generated_Source\\PSoC5/cytypes.h"
 548              		.file 5 "UART_115200_Functions.h"
 549              		.file 6 "Generated_Source\\PSoC5/core_cm3.h"