ARM GAS  C:\Users\MARTHN~1\AppData\Local\Temp\ccMhA5Of.s 			page 1


   1              		.syntax unified
   2              		.cpu cortex-m3
   3              		.fpu softvfp
   4              		.eabi_attribute 20, 1
   5              		.eabi_attribute 21, 1
   6              		.eabi_attribute 23, 3
   7              		.eabi_attribute 24, 1
   8              		.eabi_attribute 25, 1
   9              		.eabi_attribute 26, 1
  10              		.eabi_attribute 30, 6
  11              		.eabi_attribute 34, 1
  12              		.eabi_attribute 18, 4
  13              		.thumb
  14              		.syntax unified
  15              		.file	"UART_230400_INT.c"
  16              		.text
  17              	.Ltext0:
  18              		.cfi_sections	.debug_frame
  19              		.section	.text.UART_230400_TXISR,"ax",%progbits
  20              		.align	2
  21              		.global	UART_230400_TXISR
  22              		.thumb
  23              		.thumb_func
  24              		.type	UART_230400_TXISR, %function
  25              	UART_230400_TXISR:
  26              	.LFB0:
  27              		.file 1 "Generated_Source\\PSoC5\\UART_230400_INT.c"
   1:Generated_Source\PSoC5/UART_230400_INT.c **** /*******************************************************************************
   2:Generated_Source\PSoC5/UART_230400_INT.c **** * File Name: UART_230400INT.c
   3:Generated_Source\PSoC5/UART_230400_INT.c **** * Version 2.50
   4:Generated_Source\PSoC5/UART_230400_INT.c **** *
   5:Generated_Source\PSoC5/UART_230400_INT.c **** * Description:
   6:Generated_Source\PSoC5/UART_230400_INT.c **** *  This file provides all Interrupt Service functionality of the UART component
   7:Generated_Source\PSoC5/UART_230400_INT.c **** *
   8:Generated_Source\PSoC5/UART_230400_INT.c **** ********************************************************************************
   9:Generated_Source\PSoC5/UART_230400_INT.c **** * Copyright 2008-2015, Cypress Semiconductor Corporation.  All rights reserved.
  10:Generated_Source\PSoC5/UART_230400_INT.c **** * You may use this file only in accordance with the license, terms, conditions,
  11:Generated_Source\PSoC5/UART_230400_INT.c **** * disclaimers, and limitations in the end user license agreement accompanying
  12:Generated_Source\PSoC5/UART_230400_INT.c **** * the software package with which this file was provided.
  13:Generated_Source\PSoC5/UART_230400_INT.c **** *******************************************************************************/
  14:Generated_Source\PSoC5/UART_230400_INT.c **** 
  15:Generated_Source\PSoC5/UART_230400_INT.c **** #include "UART_230400.h"
  16:Generated_Source\PSoC5/UART_230400_INT.c **** #include "cyapicallbacks.h"
  17:Generated_Source\PSoC5/UART_230400_INT.c **** 
  18:Generated_Source\PSoC5/UART_230400_INT.c **** 
  19:Generated_Source\PSoC5/UART_230400_INT.c **** /***************************************
  20:Generated_Source\PSoC5/UART_230400_INT.c **** * Custom Declarations
  21:Generated_Source\PSoC5/UART_230400_INT.c **** ***************************************/
  22:Generated_Source\PSoC5/UART_230400_INT.c **** /* `#START CUSTOM_DECLARATIONS` Place your declaration here */
  23:Generated_Source\PSoC5/UART_230400_INT.c **** 
  24:Generated_Source\PSoC5/UART_230400_INT.c **** /* `#END` */
  25:Generated_Source\PSoC5/UART_230400_INT.c **** 
  26:Generated_Source\PSoC5/UART_230400_INT.c **** #if (UART_230400_RX_INTERRUPT_ENABLED && (UART_230400_RX_ENABLED || UART_230400_HD_ENABLED))
  27:Generated_Source\PSoC5/UART_230400_INT.c ****     /*******************************************************************************
  28:Generated_Source\PSoC5/UART_230400_INT.c ****     * Function Name: UART_230400_RXISR
  29:Generated_Source\PSoC5/UART_230400_INT.c ****     ********************************************************************************
  30:Generated_Source\PSoC5/UART_230400_INT.c ****     *
ARM GAS  C:\Users\MARTHN~1\AppData\Local\Temp\ccMhA5Of.s 			page 2


  31:Generated_Source\PSoC5/UART_230400_INT.c ****     * Summary:
  32:Generated_Source\PSoC5/UART_230400_INT.c ****     *  Interrupt Service Routine for RX portion of the UART
  33:Generated_Source\PSoC5/UART_230400_INT.c ****     *
  34:Generated_Source\PSoC5/UART_230400_INT.c ****     * Parameters:
  35:Generated_Source\PSoC5/UART_230400_INT.c ****     *  None.
  36:Generated_Source\PSoC5/UART_230400_INT.c ****     *
  37:Generated_Source\PSoC5/UART_230400_INT.c ****     * Return:
  38:Generated_Source\PSoC5/UART_230400_INT.c ****     *  None.
  39:Generated_Source\PSoC5/UART_230400_INT.c ****     *
  40:Generated_Source\PSoC5/UART_230400_INT.c ****     * Global Variables:
  41:Generated_Source\PSoC5/UART_230400_INT.c ****     *  UART_230400_rxBuffer - RAM buffer pointer for save received data.
  42:Generated_Source\PSoC5/UART_230400_INT.c ****     *  UART_230400_rxBufferWrite - cyclic index for write to rxBuffer,
  43:Generated_Source\PSoC5/UART_230400_INT.c ****     *     increments after each byte saved to buffer.
  44:Generated_Source\PSoC5/UART_230400_INT.c ****     *  UART_230400_rxBufferRead - cyclic index for read from rxBuffer,
  45:Generated_Source\PSoC5/UART_230400_INT.c ****     *     checked to detect overflow condition.
  46:Generated_Source\PSoC5/UART_230400_INT.c ****     *  UART_230400_rxBufferOverflow - software overflow flag. Set to one
  47:Generated_Source\PSoC5/UART_230400_INT.c ****     *     when UART_230400_rxBufferWrite index overtakes
  48:Generated_Source\PSoC5/UART_230400_INT.c ****     *     UART_230400_rxBufferRead index.
  49:Generated_Source\PSoC5/UART_230400_INT.c ****     *  UART_230400_rxBufferLoopDetect - additional variable to detect overflow.
  50:Generated_Source\PSoC5/UART_230400_INT.c ****     *     Set to one when UART_230400_rxBufferWrite is equal to
  51:Generated_Source\PSoC5/UART_230400_INT.c ****     *    UART_230400_rxBufferRead
  52:Generated_Source\PSoC5/UART_230400_INT.c ****     *  UART_230400_rxAddressMode - this variable contains the Address mode,
  53:Generated_Source\PSoC5/UART_230400_INT.c ****     *     selected in customizer or set by UART_SetRxAddressMode() API.
  54:Generated_Source\PSoC5/UART_230400_INT.c ****     *  UART_230400_rxAddressDetected - set to 1 when correct address received,
  55:Generated_Source\PSoC5/UART_230400_INT.c ****     *     and analysed to store following addressed data bytes to the buffer.
  56:Generated_Source\PSoC5/UART_230400_INT.c ****     *     When not correct address received, set to 0 to skip following data bytes.
  57:Generated_Source\PSoC5/UART_230400_INT.c ****     *
  58:Generated_Source\PSoC5/UART_230400_INT.c ****     *******************************************************************************/
  59:Generated_Source\PSoC5/UART_230400_INT.c ****     CY_ISR(UART_230400_RXISR)
  60:Generated_Source\PSoC5/UART_230400_INT.c ****     {
  61:Generated_Source\PSoC5/UART_230400_INT.c ****         uint8 readData;
  62:Generated_Source\PSoC5/UART_230400_INT.c ****         uint8 readStatus;
  63:Generated_Source\PSoC5/UART_230400_INT.c ****         uint8 increment_pointer = 0u;
  64:Generated_Source\PSoC5/UART_230400_INT.c **** 
  65:Generated_Source\PSoC5/UART_230400_INT.c ****     #if(CY_PSOC3)
  66:Generated_Source\PSoC5/UART_230400_INT.c ****         uint8 int_en;
  67:Generated_Source\PSoC5/UART_230400_INT.c ****     #endif /* (CY_PSOC3) */
  68:Generated_Source\PSoC5/UART_230400_INT.c **** 
  69:Generated_Source\PSoC5/UART_230400_INT.c ****     #ifdef UART_230400_RXISR_ENTRY_CALLBACK
  70:Generated_Source\PSoC5/UART_230400_INT.c ****         UART_230400_RXISR_EntryCallback();
  71:Generated_Source\PSoC5/UART_230400_INT.c ****     #endif /* UART_230400_RXISR_ENTRY_CALLBACK */
  72:Generated_Source\PSoC5/UART_230400_INT.c **** 
  73:Generated_Source\PSoC5/UART_230400_INT.c ****         /* User code required at start of ISR */
  74:Generated_Source\PSoC5/UART_230400_INT.c ****         /* `#START UART_230400_RXISR_START` */
  75:Generated_Source\PSoC5/UART_230400_INT.c **** 
  76:Generated_Source\PSoC5/UART_230400_INT.c ****         /* `#END` */
  77:Generated_Source\PSoC5/UART_230400_INT.c **** 
  78:Generated_Source\PSoC5/UART_230400_INT.c ****     #if(CY_PSOC3)   /* Make sure nested interrupt is enabled */
  79:Generated_Source\PSoC5/UART_230400_INT.c ****         int_en = EA;
  80:Generated_Source\PSoC5/UART_230400_INT.c ****         CyGlobalIntEnable;
  81:Generated_Source\PSoC5/UART_230400_INT.c ****     #endif /* (CY_PSOC3) */
  82:Generated_Source\PSoC5/UART_230400_INT.c **** 
  83:Generated_Source\PSoC5/UART_230400_INT.c ****         do
  84:Generated_Source\PSoC5/UART_230400_INT.c ****         {
  85:Generated_Source\PSoC5/UART_230400_INT.c ****             /* Read receiver status register */
  86:Generated_Source\PSoC5/UART_230400_INT.c ****             readStatus = UART_230400_RXSTATUS_REG;
  87:Generated_Source\PSoC5/UART_230400_INT.c ****             /* Copy the same status to readData variable for backward compatibility support 
ARM GAS  C:\Users\MARTHN~1\AppData\Local\Temp\ccMhA5Of.s 			page 3


  88:Generated_Source\PSoC5/UART_230400_INT.c ****             *  of the user code in UART_230400_RXISR_ERROR` section. 
  89:Generated_Source\PSoC5/UART_230400_INT.c ****             */
  90:Generated_Source\PSoC5/UART_230400_INT.c ****             readData = readStatus;
  91:Generated_Source\PSoC5/UART_230400_INT.c **** 
  92:Generated_Source\PSoC5/UART_230400_INT.c ****             if((readStatus & (UART_230400_RX_STS_BREAK | 
  93:Generated_Source\PSoC5/UART_230400_INT.c ****                             UART_230400_RX_STS_PAR_ERROR |
  94:Generated_Source\PSoC5/UART_230400_INT.c ****                             UART_230400_RX_STS_STOP_ERROR | 
  95:Generated_Source\PSoC5/UART_230400_INT.c ****                             UART_230400_RX_STS_OVERRUN)) != 0u)
  96:Generated_Source\PSoC5/UART_230400_INT.c ****             {
  97:Generated_Source\PSoC5/UART_230400_INT.c ****                 /* ERROR handling. */
  98:Generated_Source\PSoC5/UART_230400_INT.c ****                 UART_230400_errorStatus |= readStatus & ( UART_230400_RX_STS_BREAK | 
  99:Generated_Source\PSoC5/UART_230400_INT.c ****                                                             UART_230400_RX_STS_PAR_ERROR | 
 100:Generated_Source\PSoC5/UART_230400_INT.c ****                                                             UART_230400_RX_STS_STOP_ERROR | 
 101:Generated_Source\PSoC5/UART_230400_INT.c ****                                                             UART_230400_RX_STS_OVERRUN);
 102:Generated_Source\PSoC5/UART_230400_INT.c ****                 /* `#START UART_230400_RXISR_ERROR` */
 103:Generated_Source\PSoC5/UART_230400_INT.c **** 
 104:Generated_Source\PSoC5/UART_230400_INT.c ****                 /* `#END` */
 105:Generated_Source\PSoC5/UART_230400_INT.c ****                 
 106:Generated_Source\PSoC5/UART_230400_INT.c ****             #ifdef UART_230400_RXISR_ERROR_CALLBACK
 107:Generated_Source\PSoC5/UART_230400_INT.c ****                 UART_230400_RXISR_ERROR_Callback();
 108:Generated_Source\PSoC5/UART_230400_INT.c ****             #endif /* UART_230400_RXISR_ERROR_CALLBACK */
 109:Generated_Source\PSoC5/UART_230400_INT.c ****             }
 110:Generated_Source\PSoC5/UART_230400_INT.c ****             
 111:Generated_Source\PSoC5/UART_230400_INT.c ****             if((readStatus & UART_230400_RX_STS_FIFO_NOTEMPTY) != 0u)
 112:Generated_Source\PSoC5/UART_230400_INT.c ****             {
 113:Generated_Source\PSoC5/UART_230400_INT.c ****                 /* Read data from the RX data register */
 114:Generated_Source\PSoC5/UART_230400_INT.c ****                 readData = UART_230400_RXDATA_REG;
 115:Generated_Source\PSoC5/UART_230400_INT.c ****             #if (UART_230400_RXHW_ADDRESS_ENABLED)
 116:Generated_Source\PSoC5/UART_230400_INT.c ****                 if(UART_230400_rxAddressMode == (uint8)UART_230400__B_UART__AM_SW_DETECT_TO_BUFFER)
 117:Generated_Source\PSoC5/UART_230400_INT.c ****                 {
 118:Generated_Source\PSoC5/UART_230400_INT.c ****                     if((readStatus & UART_230400_RX_STS_MRKSPC) != 0u)
 119:Generated_Source\PSoC5/UART_230400_INT.c ****                     {
 120:Generated_Source\PSoC5/UART_230400_INT.c ****                         if ((readStatus & UART_230400_RX_STS_ADDR_MATCH) != 0u)
 121:Generated_Source\PSoC5/UART_230400_INT.c ****                         {
 122:Generated_Source\PSoC5/UART_230400_INT.c ****                             UART_230400_rxAddressDetected = 1u;
 123:Generated_Source\PSoC5/UART_230400_INT.c ****                         }
 124:Generated_Source\PSoC5/UART_230400_INT.c ****                         else
 125:Generated_Source\PSoC5/UART_230400_INT.c ****                         {
 126:Generated_Source\PSoC5/UART_230400_INT.c ****                             UART_230400_rxAddressDetected = 0u;
 127:Generated_Source\PSoC5/UART_230400_INT.c ****                         }
 128:Generated_Source\PSoC5/UART_230400_INT.c ****                     }
 129:Generated_Source\PSoC5/UART_230400_INT.c ****                     if(UART_230400_rxAddressDetected != 0u)
 130:Generated_Source\PSoC5/UART_230400_INT.c ****                     {   /* Store only addressed data */
 131:Generated_Source\PSoC5/UART_230400_INT.c ****                         UART_230400_rxBuffer[UART_230400_rxBufferWrite] = readData;
 132:Generated_Source\PSoC5/UART_230400_INT.c ****                         increment_pointer = 1u;
 133:Generated_Source\PSoC5/UART_230400_INT.c ****                     }
 134:Generated_Source\PSoC5/UART_230400_INT.c ****                 }
 135:Generated_Source\PSoC5/UART_230400_INT.c ****                 else /* Without software addressing */
 136:Generated_Source\PSoC5/UART_230400_INT.c ****                 {
 137:Generated_Source\PSoC5/UART_230400_INT.c ****                     UART_230400_rxBuffer[UART_230400_rxBufferWrite] = readData;
 138:Generated_Source\PSoC5/UART_230400_INT.c ****                     increment_pointer = 1u;
 139:Generated_Source\PSoC5/UART_230400_INT.c ****                 }
 140:Generated_Source\PSoC5/UART_230400_INT.c ****             #else  /* Without addressing */
 141:Generated_Source\PSoC5/UART_230400_INT.c ****                 UART_230400_rxBuffer[UART_230400_rxBufferWrite] = readData;
 142:Generated_Source\PSoC5/UART_230400_INT.c ****                 increment_pointer = 1u;
 143:Generated_Source\PSoC5/UART_230400_INT.c ****             #endif /* (UART_230400_RXHW_ADDRESS_ENABLED) */
 144:Generated_Source\PSoC5/UART_230400_INT.c **** 
ARM GAS  C:\Users\MARTHN~1\AppData\Local\Temp\ccMhA5Of.s 			page 4


 145:Generated_Source\PSoC5/UART_230400_INT.c ****                 /* Do not increment buffer pointer when skip not addressed data */
 146:Generated_Source\PSoC5/UART_230400_INT.c ****                 if(increment_pointer != 0u)
 147:Generated_Source\PSoC5/UART_230400_INT.c ****                 {
 148:Generated_Source\PSoC5/UART_230400_INT.c ****                     if(UART_230400_rxBufferLoopDetect != 0u)
 149:Generated_Source\PSoC5/UART_230400_INT.c ****                     {   /* Set Software Buffer status Overflow */
 150:Generated_Source\PSoC5/UART_230400_INT.c ****                         UART_230400_rxBufferOverflow = 1u;
 151:Generated_Source\PSoC5/UART_230400_INT.c ****                     }
 152:Generated_Source\PSoC5/UART_230400_INT.c ****                     /* Set next pointer. */
 153:Generated_Source\PSoC5/UART_230400_INT.c ****                     UART_230400_rxBufferWrite++;
 154:Generated_Source\PSoC5/UART_230400_INT.c **** 
 155:Generated_Source\PSoC5/UART_230400_INT.c ****                     /* Check pointer for a loop condition */
 156:Generated_Source\PSoC5/UART_230400_INT.c ****                     if(UART_230400_rxBufferWrite >= UART_230400_RX_BUFFER_SIZE)
 157:Generated_Source\PSoC5/UART_230400_INT.c ****                     {
 158:Generated_Source\PSoC5/UART_230400_INT.c ****                         UART_230400_rxBufferWrite = 0u;
 159:Generated_Source\PSoC5/UART_230400_INT.c ****                     }
 160:Generated_Source\PSoC5/UART_230400_INT.c **** 
 161:Generated_Source\PSoC5/UART_230400_INT.c ****                     /* Detect pre-overload condition and set flag */
 162:Generated_Source\PSoC5/UART_230400_INT.c ****                     if(UART_230400_rxBufferWrite == UART_230400_rxBufferRead)
 163:Generated_Source\PSoC5/UART_230400_INT.c ****                     {
 164:Generated_Source\PSoC5/UART_230400_INT.c ****                         UART_230400_rxBufferLoopDetect = 1u;
 165:Generated_Source\PSoC5/UART_230400_INT.c ****                         /* When Hardware Flow Control selected */
 166:Generated_Source\PSoC5/UART_230400_INT.c ****                         #if (UART_230400_FLOW_CONTROL != 0u)
 167:Generated_Source\PSoC5/UART_230400_INT.c ****                             /* Disable RX interrupt mask, it is enabled when user read data from th
 168:Generated_Source\PSoC5/UART_230400_INT.c ****                             UART_230400_RXSTATUS_MASK_REG  &= (uint8)~UART_230400_RX_STS_FIFO_NOTEM
 169:Generated_Source\PSoC5/UART_230400_INT.c ****                             CyIntClearPending(UART_230400_RX_VECT_NUM);
 170:Generated_Source\PSoC5/UART_230400_INT.c ****                             break; /* Break the reading of the FIFO loop, leave the data there for 
 171:Generated_Source\PSoC5/UART_230400_INT.c ****                         #endif /* (UART_230400_FLOW_CONTROL != 0u) */
 172:Generated_Source\PSoC5/UART_230400_INT.c ****                     }
 173:Generated_Source\PSoC5/UART_230400_INT.c ****                 }
 174:Generated_Source\PSoC5/UART_230400_INT.c ****             }
 175:Generated_Source\PSoC5/UART_230400_INT.c ****         }while((readStatus & UART_230400_RX_STS_FIFO_NOTEMPTY) != 0u);
 176:Generated_Source\PSoC5/UART_230400_INT.c **** 
 177:Generated_Source\PSoC5/UART_230400_INT.c ****         /* User code required at end of ISR (Optional) */
 178:Generated_Source\PSoC5/UART_230400_INT.c ****         /* `#START UART_230400_RXISR_END` */
 179:Generated_Source\PSoC5/UART_230400_INT.c **** 
 180:Generated_Source\PSoC5/UART_230400_INT.c ****         /* `#END` */
 181:Generated_Source\PSoC5/UART_230400_INT.c **** 
 182:Generated_Source\PSoC5/UART_230400_INT.c ****     #ifdef UART_230400_RXISR_EXIT_CALLBACK
 183:Generated_Source\PSoC5/UART_230400_INT.c ****         UART_230400_RXISR_ExitCallback();
 184:Generated_Source\PSoC5/UART_230400_INT.c ****     #endif /* UART_230400_RXISR_EXIT_CALLBACK */
 185:Generated_Source\PSoC5/UART_230400_INT.c **** 
 186:Generated_Source\PSoC5/UART_230400_INT.c ****     #if(CY_PSOC3)
 187:Generated_Source\PSoC5/UART_230400_INT.c ****         EA = int_en;
 188:Generated_Source\PSoC5/UART_230400_INT.c ****     #endif /* (CY_PSOC3) */
 189:Generated_Source\PSoC5/UART_230400_INT.c ****     }
 190:Generated_Source\PSoC5/UART_230400_INT.c ****     
 191:Generated_Source\PSoC5/UART_230400_INT.c **** #endif /* (UART_230400_RX_INTERRUPT_ENABLED && (UART_230400_RX_ENABLED || UART_230400_HD_ENABLED)) 
 192:Generated_Source\PSoC5/UART_230400_INT.c **** 
 193:Generated_Source\PSoC5/UART_230400_INT.c **** 
 194:Generated_Source\PSoC5/UART_230400_INT.c **** #if (UART_230400_TX_INTERRUPT_ENABLED && UART_230400_TX_ENABLED)
 195:Generated_Source\PSoC5/UART_230400_INT.c ****     /*******************************************************************************
 196:Generated_Source\PSoC5/UART_230400_INT.c ****     * Function Name: UART_230400_TXISR
 197:Generated_Source\PSoC5/UART_230400_INT.c ****     ********************************************************************************
 198:Generated_Source\PSoC5/UART_230400_INT.c ****     *
 199:Generated_Source\PSoC5/UART_230400_INT.c ****     * Summary:
 200:Generated_Source\PSoC5/UART_230400_INT.c ****     * Interrupt Service Routine for the TX portion of the UART
 201:Generated_Source\PSoC5/UART_230400_INT.c ****     *
ARM GAS  C:\Users\MARTHN~1\AppData\Local\Temp\ccMhA5Of.s 			page 5


 202:Generated_Source\PSoC5/UART_230400_INT.c ****     * Parameters:
 203:Generated_Source\PSoC5/UART_230400_INT.c ****     *  None.
 204:Generated_Source\PSoC5/UART_230400_INT.c ****     *
 205:Generated_Source\PSoC5/UART_230400_INT.c ****     * Return:
 206:Generated_Source\PSoC5/UART_230400_INT.c ****     *  None.
 207:Generated_Source\PSoC5/UART_230400_INT.c ****     *
 208:Generated_Source\PSoC5/UART_230400_INT.c ****     * Global Variables:
 209:Generated_Source\PSoC5/UART_230400_INT.c ****     *  UART_230400_txBuffer - RAM buffer pointer for transmit data from.
 210:Generated_Source\PSoC5/UART_230400_INT.c ****     *  UART_230400_txBufferRead - cyclic index for read and transmit data
 211:Generated_Source\PSoC5/UART_230400_INT.c ****     *     from txBuffer, increments after each transmitted byte.
 212:Generated_Source\PSoC5/UART_230400_INT.c ****     *  UART_230400_rxBufferWrite - cyclic index for write to txBuffer,
 213:Generated_Source\PSoC5/UART_230400_INT.c ****     *     checked to detect available for transmission bytes.
 214:Generated_Source\PSoC5/UART_230400_INT.c ****     *
 215:Generated_Source\PSoC5/UART_230400_INT.c ****     *******************************************************************************/
 216:Generated_Source\PSoC5/UART_230400_INT.c ****     CY_ISR(UART_230400_TXISR)
 217:Generated_Source\PSoC5/UART_230400_INT.c ****     {
  28              		.loc 1 217 0
  29              		.cfi_startproc
  30              		@ args = 0, pretend = 0, frame = 0
  31              		@ frame_needed = 1, uses_anonymous_args = 0
  32              		@ link register save eliminated.
  33 0000 80B4     		push	{r7}
  34              		.cfi_def_cfa_offset 4
  35              		.cfi_offset 7, -4
  36 0002 00AF     		add	r7, sp, #0
  37              		.cfi_def_cfa_register 7
 218:Generated_Source\PSoC5/UART_230400_INT.c ****     #if(CY_PSOC3)
 219:Generated_Source\PSoC5/UART_230400_INT.c ****         uint8 int_en;
 220:Generated_Source\PSoC5/UART_230400_INT.c ****     #endif /* (CY_PSOC3) */
 221:Generated_Source\PSoC5/UART_230400_INT.c **** 
 222:Generated_Source\PSoC5/UART_230400_INT.c ****     #ifdef UART_230400_TXISR_ENTRY_CALLBACK
 223:Generated_Source\PSoC5/UART_230400_INT.c ****         UART_230400_TXISR_EntryCallback();
 224:Generated_Source\PSoC5/UART_230400_INT.c ****     #endif /* UART_230400_TXISR_ENTRY_CALLBACK */
 225:Generated_Source\PSoC5/UART_230400_INT.c **** 
 226:Generated_Source\PSoC5/UART_230400_INT.c ****         /* User code required at start of ISR */
 227:Generated_Source\PSoC5/UART_230400_INT.c ****         /* `#START UART_230400_TXISR_START` */
 228:Generated_Source\PSoC5/UART_230400_INT.c **** 
 229:Generated_Source\PSoC5/UART_230400_INT.c ****         /* `#END` */
 230:Generated_Source\PSoC5/UART_230400_INT.c **** 
 231:Generated_Source\PSoC5/UART_230400_INT.c ****     #if(CY_PSOC3)   /* Make sure nested interrupt is enabled */
 232:Generated_Source\PSoC5/UART_230400_INT.c ****         int_en = EA;
 233:Generated_Source\PSoC5/UART_230400_INT.c ****         CyGlobalIntEnable;
 234:Generated_Source\PSoC5/UART_230400_INT.c ****     #endif /* (CY_PSOC3) */
 235:Generated_Source\PSoC5/UART_230400_INT.c **** 
 236:Generated_Source\PSoC5/UART_230400_INT.c ****         while((UART_230400_txBufferRead != UART_230400_txBufferWrite) &&
  38              		.loc 1 236 0
  39 0004 18E0     		b	.L2
  40              	.L5:
 237:Generated_Source\PSoC5/UART_230400_INT.c ****              ((UART_230400_TXSTATUS_REG & UART_230400_TX_STS_FIFO_FULL) == 0u))
 238:Generated_Source\PSoC5/UART_230400_INT.c ****         {
 239:Generated_Source\PSoC5/UART_230400_INT.c ****             /* Check pointer wrap around */
 240:Generated_Source\PSoC5/UART_230400_INT.c ****             if(UART_230400_txBufferRead >= UART_230400_TX_BUFFER_SIZE)
  41              		.loc 1 240 0
  42 0006 154B     		ldr	r3, .L7
  43 0008 1B88     		ldrh	r3, [r3]	@ movhi
  44 000a 9BB2     		uxth	r3, r3
  45 000c B3F5806F 		cmp	r3, #1024
ARM GAS  C:\Users\MARTHN~1\AppData\Local\Temp\ccMhA5Of.s 			page 6


  46 0010 02D3     		bcc	.L3
 241:Generated_Source\PSoC5/UART_230400_INT.c ****             {
 242:Generated_Source\PSoC5/UART_230400_INT.c ****                 UART_230400_txBufferRead = 0u;
  47              		.loc 1 242 0
  48 0012 124B     		ldr	r3, .L7
  49 0014 0022     		movs	r2, #0
  50 0016 1A80     		strh	r2, [r3]	@ movhi
  51              	.L3:
 243:Generated_Source\PSoC5/UART_230400_INT.c ****             }
 244:Generated_Source\PSoC5/UART_230400_INT.c **** 
 245:Generated_Source\PSoC5/UART_230400_INT.c ****             UART_230400_TXDATA_REG = UART_230400_txBuffer[UART_230400_txBufferRead];
  52              		.loc 1 245 0
  53 0018 114B     		ldr	r3, .L7+4
  54 001a 104A     		ldr	r2, .L7
  55 001c 1288     		ldrh	r2, [r2]	@ movhi
  56 001e 92B2     		uxth	r2, r2
  57 0020 1146     		mov	r1, r2
  58 0022 104A     		ldr	r2, .L7+8
  59 0024 525C     		ldrb	r2, [r2, r1]
  60 0026 D2B2     		uxtb	r2, r2
  61 0028 1A70     		strb	r2, [r3]
 246:Generated_Source\PSoC5/UART_230400_INT.c **** 
 247:Generated_Source\PSoC5/UART_230400_INT.c ****             /* Set next pointer */
 248:Generated_Source\PSoC5/UART_230400_INT.c ****             UART_230400_txBufferRead++;
  62              		.loc 1 248 0
  63 002a 0C4B     		ldr	r3, .L7
  64 002c 1B88     		ldrh	r3, [r3]	@ movhi
  65 002e 9BB2     		uxth	r3, r3
  66 0030 0133     		adds	r3, r3, #1
  67 0032 9AB2     		uxth	r2, r3
  68 0034 094B     		ldr	r3, .L7
  69 0036 1A80     		strh	r2, [r3]	@ movhi
  70              	.L2:
 236:Generated_Source\PSoC5/UART_230400_INT.c ****              ((UART_230400_TXSTATUS_REG & UART_230400_TX_STS_FIFO_FULL) == 0u))
  71              		.loc 1 236 0
  72 0038 084B     		ldr	r3, .L7
  73 003a 1B88     		ldrh	r3, [r3]	@ movhi
  74 003c 9AB2     		uxth	r2, r3
  75 003e 0A4B     		ldr	r3, .L7+12
  76 0040 1B88     		ldrh	r3, [r3]
  77 0042 9A42     		cmp	r2, r3
  78 0044 06D0     		beq	.L6
 237:Generated_Source\PSoC5/UART_230400_INT.c ****         {
  79              		.loc 1 237 0 discriminator 1
  80 0046 094B     		ldr	r3, .L7+16
  81 0048 1B78     		ldrb	r3, [r3]
  82 004a DBB2     		uxtb	r3, r3
  83 004c 03F00403 		and	r3, r3, #4
 236:Generated_Source\PSoC5/UART_230400_INT.c ****              ((UART_230400_TXSTATUS_REG & UART_230400_TX_STS_FIFO_FULL) == 0u))
  84              		.loc 1 236 0 discriminator 1
  85 0050 002B     		cmp	r3, #0
  86 0052 D8D0     		beq	.L5
  87              	.L6:
 249:Generated_Source\PSoC5/UART_230400_INT.c ****         }
 250:Generated_Source\PSoC5/UART_230400_INT.c **** 
 251:Generated_Source\PSoC5/UART_230400_INT.c ****         /* User code required at end of ISR (Optional) */
 252:Generated_Source\PSoC5/UART_230400_INT.c ****         /* `#START UART_230400_TXISR_END` */
ARM GAS  C:\Users\MARTHN~1\AppData\Local\Temp\ccMhA5Of.s 			page 7


 253:Generated_Source\PSoC5/UART_230400_INT.c **** 
 254:Generated_Source\PSoC5/UART_230400_INT.c ****         /* `#END` */
 255:Generated_Source\PSoC5/UART_230400_INT.c **** 
 256:Generated_Source\PSoC5/UART_230400_INT.c ****     #ifdef UART_230400_TXISR_EXIT_CALLBACK
 257:Generated_Source\PSoC5/UART_230400_INT.c ****         UART_230400_TXISR_ExitCallback();
 258:Generated_Source\PSoC5/UART_230400_INT.c ****     #endif /* UART_230400_TXISR_EXIT_CALLBACK */
 259:Generated_Source\PSoC5/UART_230400_INT.c **** 
 260:Generated_Source\PSoC5/UART_230400_INT.c ****     #if(CY_PSOC3)
 261:Generated_Source\PSoC5/UART_230400_INT.c ****         EA = int_en;
 262:Generated_Source\PSoC5/UART_230400_INT.c ****     #endif /* (CY_PSOC3) */
 263:Generated_Source\PSoC5/UART_230400_INT.c ****    }
  88              		.loc 1 263 0
  89 0054 00BF     		nop
  90 0056 BD46     		mov	sp, r7
  91              		.cfi_def_cfa_register 13
  92              		@ sp needed
  93 0058 80BC     		pop	{r7}
  94              		.cfi_restore 7
  95              		.cfi_def_cfa_offset 0
  96 005a 7047     		bx	lr
  97              	.L8:
  98              		.align	2
  99              	.L7:
 100 005c 00000000 		.word	UART_230400_txBufferRead
 101 0060 45640040 		.word	1073767493
 102 0064 00000000 		.word	UART_230400_txBuffer
 103 0068 00000000 		.word	UART_230400_txBufferWrite
 104 006c 65640040 		.word	1073767525
 105              		.cfi_endproc
 106              	.LFE0:
 107              		.size	UART_230400_TXISR, .-UART_230400_TXISR
 108              		.text
 109              	.Letext0:
 110              		.file 2 "Generated_Source\\PSoC5\\cytypes.h"
 111              		.file 3 "Generated_Source\\PSoC5\\UART_230400.h"