ARM GAS  C:\Users\MARTHN~1\AppData\Local\Temp\ccjh9O4t.s 			page 1


   1              		.syntax unified
   2              		.cpu cortex-m3
   3              		.fpu softvfp
   4              		.eabi_attribute 20, 1
   5              		.eabi_attribute 21, 1
   6              		.eabi_attribute 23, 3
   7              		.eabi_attribute 24, 1
   8              		.eabi_attribute 25, 1
   9              		.eabi_attribute 26, 1
  10              		.eabi_attribute 30, 6
  11              		.eabi_attribute 34, 1
  12              		.eabi_attribute 18, 4
  13              		.thumb
  14              		.syntax unified
  15              		.file	"UART_115200_Functions.c"
  16              		.text
  17              	.Ltext0:
  18              		.cfi_sections	.debug_frame
  19              		.data
  20              		.align	2
  21              		.type	PacketList, %object
  22              		.size	PacketList, 5
  23              	PacketList:
  24 0000 7E       		.byte	126
  25 0001 33       		.byte	51
  26 0002 03       		.byte	3
  27 0003 0D       		.byte	13
  28 0004 0A       		.byte	10
  29              		.bss
  30              		.align	2
  31              	packetsuccess:
  32 0000 0000     		.space	2
  33 0002 0000     		.align	2
  34              	rxPacket_DLink_S:
  35 0004 000000   		.space	3
  36              		.section	.text.processByteReceivedHandler_115200,"ax",%progbits
  37              		.align	2
  38              		.global	processByteReceivedHandler_115200
  39              		.thumb
  40              		.thumb_func
  41              		.type	processByteReceivedHandler_115200, %function
  42              	processByteReceivedHandler_115200:
  43              	.LFB63:
  44              		.file 1 "UART_115200_Functions.c"
   1:UART_115200_Functions.c **** /* ========================================
   2:UART_115200_Functions.c ****  *
   3:UART_115200_Functions.c ****  * Copyright FENIEX INDUSTRIES, 2016
   4:UART_115200_Functions.c ****  * 200W SIREN
   5:UART_115200_Functions.c ****  *
   6:UART_115200_Functions.c ****  * All Rights Reserved
   7:UART_115200_Functions.c ****  * UNPUBLISHED, LICENSED SOFTWARE.
   8:UART_115200_Functions.c ****  *
   9:UART_115200_Functions.c ****  * CONFIDENTIAL AND PROPRIETARY INFORMATION
  10:UART_115200_Functions.c ****  * WHICH IS THE PROPERTY OF your company.
  11:UART_115200_Functions.c ****  *
  12:UART_115200_Functions.c ****  * ========================================
  13:UART_115200_Functions.c **** */
ARM GAS  C:\Users\MARTHN~1\AppData\Local\Temp\ccjh9O4t.s 			page 2


  14:UART_115200_Functions.c **** 
  15:UART_115200_Functions.c **** /**********CHANGE LOG**********/
  16:UART_115200_Functions.c **** 
  17:UART_115200_Functions.c **** 
  18:UART_115200_Functions.c **** /**********PREPROCESSOR DIRECTIVES**********/
  19:UART_115200_Functions.c **** #include "UART_115200_Functions.h"
  20:UART_115200_Functions.c **** 
  21:UART_115200_Functions.c **** #define HEADER_BYTE_COUNT       2
  22:UART_115200_Functions.c **** #define EOP_BYTE_COUNT          2
  23:UART_115200_Functions.c **** 
  24:UART_115200_Functions.c **** #define HEADER_START_INDEX      0
  25:UART_115200_Functions.c **** #define PAYLOAD_START_INDEX     HEADER_BYTE_COUNT
  26:UART_115200_Functions.c **** 
  27:UART_115200_Functions.c **** #define MAX_PAYLOAD_BYTE_COUNT  3
  28:UART_115200_Functions.c **** #define PACKET_TYPE_COUNT       1
  29:UART_115200_Functions.c **** 
  30:UART_115200_Functions.c **** /**************************************/
  31:UART_115200_Functions.c **** #define PACKET_VERIFICATION_COUNT   5
  32:UART_115200_Functions.c **** 
  33:UART_115200_Functions.c **** /**********DEFINED CONSTANTS**********/
  34:UART_115200_Functions.c **** enum DataType           // MUX_115200 channel lineup
  35:UART_115200_Functions.c **** { 
  36:UART_115200_Functions.c ****     RTEST_DLINK,             //
  37:UART_115200_Functions.c **** //    RTEST_DLINK2,        // 
  38:UART_115200_Functions.c **** //    CTEST_USB_DEBUG,
  39:UART_115200_Functions.c ****     //DIAG_UART_RX         //
  40:UART_115200_Functions.c **** };
  41:UART_115200_Functions.c **** 
  42:UART_115200_Functions.c **** enum PacketState
  43:UART_115200_Functions.c **** {
  44:UART_115200_Functions.c ****     HEADER_STATE,
  45:UART_115200_Functions.c ****     PAYLOAD_STATE,
  46:UART_115200_Functions.c ****     EOP_STATE
  47:UART_115200_Functions.c **** };
  48:UART_115200_Functions.c **** 
  49:UART_115200_Functions.c **** /**********DATA STRUCTURES**********/
  50:UART_115200_Functions.c **** typedef struct
  51:UART_115200_Functions.c **** {
  52:UART_115200_Functions.c ****     const uint8 HEADER_BYTE;
  53:UART_115200_Functions.c ****     const uint8 PACKET_TYPE;
  54:UART_115200_Functions.c ****     const uint8 PAYLOAD_SIZE;
  55:UART_115200_Functions.c ****     const uint8 EOP_CARRIAGE_RETURN;
  56:UART_115200_Functions.c ****     const uint8 EOP_LINE_FEED;
  57:UART_115200_Functions.c **** }Packet;
  58:UART_115200_Functions.c **** 
  59:UART_115200_Functions.c **** static Packet PacketList[PACKET_TYPE_COUNT] = 
  60:UART_115200_Functions.c **** {
  61:UART_115200_Functions.c ****     //{'~', 'S', 3, '\r', '\n'},              // RTest - DataLink - (controller to siren)
  62:UART_115200_Functions.c ****     {'~', '3', 3, '\r', '\n'},
  63:UART_115200_Functions.c **** //    {'~', 'L', 111, '\r', '\n'},            // CTest - quad normal - (controller to relay)
  64:UART_115200_Functions.c **** //    {'~', 'Y', 9, '\r', '\n'},              // RTest - quad serial - (relay to modules)
  65:UART_115200_Functions.c **** //    {'~', 'C', 4, '\r', '\n'},              // (Quad-Controller packets)
  66:UART_115200_Functions.c **** };
  67:UART_115200_Functions.c **** 
  68:UART_115200_Functions.c **** ///**********GLOBAL VARIABLES**********/
  69:UART_115200_Functions.c **** //static uint16 singlepacketsuccess = 0;
  70:UART_115200_Functions.c **** static uint16 packetsuccess[1] = {0};
ARM GAS  C:\Users\MARTHN~1\AppData\Local\Temp\ccjh9O4t.s 			page 3


  71:UART_115200_Functions.c **** 
  72:UART_115200_Functions.c **** static RxPacket_DLink_S rxPacket_DLink_S;            
  73:UART_115200_Functions.c **** 
  74:UART_115200_Functions.c **** /**********LOCAL FUNCTION PROTOTYPES**********/
  75:UART_115200_Functions.c **** static void detectPacket(uint8 dataByte);
  76:UART_115200_Functions.c **** 
  77:UART_115200_Functions.c **** /**********DEFINED GLOBAL FUNCTIONS**********/
  78:UART_115200_Functions.c **** 
  79:UART_115200_Functions.c **** //RxPacket_DL2 * getRxPacket_DL2(void)
  80:UART_115200_Functions.c **** //{
  81:UART_115200_Functions.c **** //    pRxPacket_DL2 = &rxPacket_DL2;
  82:UART_115200_Functions.c **** //    
  83:UART_115200_Functions.c **** //    return pRxPacket_DL2;
  84:UART_115200_Functions.c **** //}
  85:UART_115200_Functions.c **** 
  86:UART_115200_Functions.c **** //RxPacket * getRxPacket(void)
  87:UART_115200_Functions.c **** //{
  88:UART_115200_Functions.c **** //    pRxPacket = &rxPacket;
  89:UART_115200_Functions.c **** //    
  90:UART_115200_Functions.c **** //    return pRxPacket;
  91:UART_115200_Functions.c **** //}
  92:UART_115200_Functions.c **** 
  93:UART_115200_Functions.c **** /*******************************************************************************
  94:UART_115200_Functions.c **** * Function Name: processByteReceivedHandler
  95:UART_115200_Functions.c **** ********************************************************************************
  96:UART_115200_Functions.c **** *
  97:UART_115200_Functions.c **** * Summary:
  98:UART_115200_Functions.c **** *  Triggers when a byte is received in UART, called in UART_ISR(). If in voice
  99:UART_115200_Functions.c **** *  stream mode, the byte is sent directly to the DAC.
 100:UART_115200_Functions.c **** *
 101:UART_115200_Functions.c **** * Parameters:
 102:UART_115200_Functions.c **** *  None.
 103:UART_115200_Functions.c **** *
 104:UART_115200_Functions.c **** * Return:
 105:UART_115200_Functions.c **** *  None.
 106:UART_115200_Functions.c **** *
 107:UART_115200_Functions.c **** *******************************************************************************/
 108:UART_115200_Functions.c **** void processByteReceivedHandler_115200(void)
 109:UART_115200_Functions.c **** {
  45              		.loc 1 109 0
  46              		.cfi_startproc
  47              		@ args = 0, pretend = 0, frame = 8
  48              		@ frame_needed = 1, uses_anonymous_args = 0
  49 0000 80B5     		push	{r7, lr}
  50              		.cfi_def_cfa_offset 8
  51              		.cfi_offset 7, -8
  52              		.cfi_offset 14, -4
  53 0002 82B0     		sub	sp, sp, #8
  54              		.cfi_def_cfa_offset 16
  55 0004 00AF     		add	r7, sp, #0
  56              		.cfi_def_cfa_register 7
 110:UART_115200_Functions.c ****     uint8 dataByte = 0;
  57              		.loc 1 110 0
  58 0006 0023     		movs	r3, #0
  59 0008 FB71     		strb	r3, [r7, #7]
  60              	.L3:
 111:UART_115200_Functions.c ****     
ARM GAS  C:\Users\MARTHN~1\AppData\Local\Temp\ccjh9O4t.s 			page 4


 112:UART_115200_Functions.c ****     static uint8 testbuffer[100];
 113:UART_115200_Functions.c ****     static uint8 testbuffer_count = 0;
 114:UART_115200_Functions.c ****     
 115:UART_115200_Functions.c ****     do
 116:UART_115200_Functions.c ****     {
 117:UART_115200_Functions.c ****         dataByte = UART_115200_GetChar();
  61              		.loc 1 117 0
  62 000a FFF7FEFF 		bl	UART_115200_GetChar
  63 000e 0346     		mov	r3, r0
  64 0010 FB71     		strb	r3, [r7, #7]
 118:UART_115200_Functions.c ****         
 119:UART_115200_Functions.c ****         testbuffer[testbuffer_count] = dataByte;
  65              		.loc 1 119 0
  66 0012 114B     		ldr	r3, .L4
  67 0014 1B78     		ldrb	r3, [r3]	@ zero_extendqisi2
  68 0016 1946     		mov	r1, r3
  69 0018 104A     		ldr	r2, .L4+4
  70 001a FB79     		ldrb	r3, [r7, #7]
  71 001c 5354     		strb	r3, [r2, r1]
 120:UART_115200_Functions.c ****         testbuffer_count++;
  72              		.loc 1 120 0
  73 001e 0E4B     		ldr	r3, .L4
  74 0020 1B78     		ldrb	r3, [r3]	@ zero_extendqisi2
  75 0022 0133     		adds	r3, r3, #1
  76 0024 DAB2     		uxtb	r2, r3
  77 0026 0C4B     		ldr	r3, .L4
  78 0028 1A70     		strb	r2, [r3]
 121:UART_115200_Functions.c ****         if(testbuffer_count >= 100)
  79              		.loc 1 121 0
  80 002a 0B4B     		ldr	r3, .L4
  81 002c 1B78     		ldrb	r3, [r3]	@ zero_extendqisi2
  82 002e 632B     		cmp	r3, #99
  83 0030 02D9     		bls	.L2
 122:UART_115200_Functions.c ****             testbuffer_count = 0;
  84              		.loc 1 122 0
  85 0032 094B     		ldr	r3, .L4
  86 0034 0022     		movs	r2, #0
  87 0036 1A70     		strb	r2, [r3]
  88              	.L2:
 123:UART_115200_Functions.c ****         
 124:UART_115200_Functions.c ****         detectPacket(dataByte);
  89              		.loc 1 124 0
  90 0038 FB79     		ldrb	r3, [r7, #7]	@ zero_extendqisi2
  91 003a 1846     		mov	r0, r3
  92 003c FFF7FEFF 		bl	detectPacket
 125:UART_115200_Functions.c ****         
 126:UART_115200_Functions.c ****     }while(UART_115200_ReadRxStatus() & UART_115200_RX_STS_FIFO_NOTEMPTY);
  93              		.loc 1 126 0
  94 0040 FFF7FEFF 		bl	UART_115200_ReadRxStatus
  95 0044 0346     		mov	r3, r0
  96 0046 03F02003 		and	r3, r3, #32
  97 004a 002B     		cmp	r3, #0
  98 004c DDD1     		bne	.L3
 127:UART_115200_Functions.c ****     
 128:UART_115200_Functions.c ****     //UART_Timer_Start();
 129:UART_115200_Functions.c **** }
  99              		.loc 1 129 0
ARM GAS  C:\Users\MARTHN~1\AppData\Local\Temp\ccjh9O4t.s 			page 5


 100 004e 00BF     		nop
 101 0050 0837     		adds	r7, r7, #8
 102              		.cfi_def_cfa_offset 8
 103 0052 BD46     		mov	sp, r7
 104              		.cfi_def_cfa_register 13
 105              		@ sp needed
 106 0054 80BD     		pop	{r7, pc}
 107              	.L5:
 108 0056 00BF     		.align	2
 109              	.L4:
 110 0058 07000000 		.word	testbuffer_count.6922
 111 005c 08000000 		.word	testbuffer.6921
 112              		.cfi_endproc
 113              	.LFE63:
 114              		.size	processByteReceivedHandler_115200, .-processByteReceivedHandler_115200
 115              		.section	.text.detectPacket,"ax",%progbits
 116              		.align	2
 117              		.thumb
 118              		.thumb_func
 119              		.type	detectPacket, %function
 120              	detectPacket:
 121              	.LFB64:
 130:UART_115200_Functions.c **** 
 131:UART_115200_Functions.c **** 
 132:UART_115200_Functions.c **** /**********DEFINED LOCAL FUNCTIONS**********/
 133:UART_115200_Functions.c **** /*******************************************************************************
 134:UART_115200_Functions.c **** * Function Name: detectPacket
 135:UART_115200_Functions.c **** ********************************************************************************
 136:UART_115200_Functions.c **** *
 137:UART_115200_Functions.c **** * Summary:
 138:UART_115200_Functions.c **** *  Determines if the incoming byte belongs to a valid packet. If the packet is for
 139:UART_115200_Functions.c **** *  for starting voice stream, voice stream mode will be activated.
 140:UART_115200_Functions.c **** *
 141:UART_115200_Functions.c **** * Parameters:
 142:UART_115200_Functions.c **** *  dataByte: The byte to check
 143:UART_115200_Functions.c **** *
 144:UART_115200_Functions.c **** * Return:
 145:UART_115200_Functions.c **** *  None.
 146:UART_115200_Functions.c **** *
 147:UART_115200_Functions.c **** *******************************************************************************/
 148:UART_115200_Functions.c **** static void detectPacket(uint8 dataByte)
 149:UART_115200_Functions.c **** {
 122              		.loc 1 149 0
 123              		.cfi_startproc
 124              		@ args = 0, pretend = 0, frame = 8
 125              		@ frame_needed = 1, uses_anonymous_args = 0
 126              		@ link register save eliminated.
 127 0000 80B4     		push	{r7}
 128              		.cfi_def_cfa_offset 4
 129              		.cfi_offset 7, -4
 130 0002 83B0     		sub	sp, sp, #12
 131              		.cfi_def_cfa_offset 16
 132 0004 00AF     		add	r7, sp, #0
 133              		.cfi_def_cfa_register 7
 134 0006 0346     		mov	r3, r0
 135 0008 FB71     		strb	r3, [r7, #7]
 150:UART_115200_Functions.c ****     static uint8 packet[MAX_PAYLOAD_BYTE_COUNT+HEADER_BYTE_COUNT+EOP_BYTE_COUNT];   
ARM GAS  C:\Users\MARTHN~1\AppData\Local\Temp\ccjh9O4t.s 			page 6


 151:UART_115200_Functions.c ****     static enum PacketState currentState = HEADER_STATE;
 152:UART_115200_Functions.c ****     static enum DataType currentType = RTEST_DLINK;
 153:UART_115200_Functions.c ****     static uint8 currentPacketIndex = HEADER_START_INDEX;
 154:UART_115200_Functions.c ****     
 155:UART_115200_Functions.c ****     switch(currentState)
 136              		.loc 1 155 0
 137 000a 6D4B     		ldr	r3, .L22
 138 000c 1B78     		ldrb	r3, [r3]	@ zero_extendqisi2
 139 000e 012B     		cmp	r3, #1
 140 0010 43D0     		beq	.L8
 141 0012 022B     		cmp	r3, #2
 142 0014 61D0     		beq	.L9
 143 0016 002B     		cmp	r3, #0
 144 0018 00D0     		beq	.L10
 156:UART_115200_Functions.c ****     {
 157:UART_115200_Functions.c ****         case HEADER_STATE:
 158:UART_115200_Functions.c ****             if( (currentPacketIndex == HEADER_START_INDEX) && ( (dataByte == PacketList[RTEST_DLINK
 159:UART_115200_Functions.c **** //                                                                (dataByte == PacketList[CTEST_QUA
 160:UART_115200_Functions.c **** //                                                                (dataByte == PacketList[CTEST_AUD
 161:UART_115200_Functions.c **** //                                                                (dataByte == PacketList[QTEST_QUA
 162:UART_115200_Functions.c ****             {
 163:UART_115200_Functions.c ****                 packet[currentPacketIndex] = dataByte;
 164:UART_115200_Functions.c ****                 currentPacketIndex++;
 165:UART_115200_Functions.c ****             }
 166:UART_115200_Functions.c ****             else if( (currentPacketIndex == (HEADER_START_INDEX+1)) && ( (dataByte == PacketList[RT
 167:UART_115200_Functions.c **** //                                                                            (dataByte == PacketLi
 168:UART_115200_Functions.c **** //                                                                            (dataByte == PacketLi
 169:UART_115200_Functions.c **** //                                                                            (dataByte == PacketLi
 170:UART_115200_Functions.c ****             {
 171:UART_115200_Functions.c ****                 packet[currentPacketIndex] = dataByte;
 172:UART_115200_Functions.c ****                 currentPacketIndex++;
 173:UART_115200_Functions.c ****                 currentState = PAYLOAD_STATE;
 174:UART_115200_Functions.c ****                 
 175:UART_115200_Functions.c ****                 if(dataByte == PacketList[RTEST_DLINK].PACKET_TYPE)
 176:UART_115200_Functions.c ****                     currentType = RTEST_DLINK;
 177:UART_115200_Functions.c **** //                else if(dataByte == PacketList[CTEST_QUADSERIAL].PACKET_TYPE)
 178:UART_115200_Functions.c **** //                    currentType = CTEST_QUADSERIAL;
 179:UART_115200_Functions.c **** //                else if(dataByte == PacketList[CTEST_AUDIO].PACKET_TYPE)
 180:UART_115200_Functions.c **** //                    currentType = CTEST_AUDIO;
 181:UART_115200_Functions.c **** //                else if(dataByte == PacketList[QTEST_QUAD].PACKET_TYPE)
 182:UART_115200_Functions.c **** //                    currentType = QTEST_QUAD;
 183:UART_115200_Functions.c **** //                else
 184:UART_115200_Functions.c **** //                    currentType = CTEST_QUAD;
 185:UART_115200_Functions.c ****             }
 186:UART_115200_Functions.c ****             else
 187:UART_115200_Functions.c ****             {
 188:UART_115200_Functions.c ****                 currentPacketIndex = HEADER_START_INDEX;
 189:UART_115200_Functions.c ****                 currentType = RTEST_DLINK;
 190:UART_115200_Functions.c ****             }
 191:UART_115200_Functions.c ****             break;
 192:UART_115200_Functions.c ****             
 193:UART_115200_Functions.c ****         case PAYLOAD_STATE:
 194:UART_115200_Functions.c ****             packet[currentPacketIndex] = dataByte;
 195:UART_115200_Functions.c ****             currentPacketIndex++;
 196:UART_115200_Functions.c ****             
 197:UART_115200_Functions.c ****             if(currentPacketIndex >= (PAYLOAD_START_INDEX + PacketList[currentType].PAYLOAD_SIZE))
 198:UART_115200_Functions.c ****                 currentState = EOP_STATE;
ARM GAS  C:\Users\MARTHN~1\AppData\Local\Temp\ccjh9O4t.s 			page 7


 199:UART_115200_Functions.c ****             break;   
 200:UART_115200_Functions.c ****             
 201:UART_115200_Functions.c ****         case EOP_STATE:
 202:UART_115200_Functions.c ****             if((currentPacketIndex == (PAYLOAD_START_INDEX + PacketList[currentType].PAYLOAD_SIZE))
 203:UART_115200_Functions.c ****                 (dataByte == PacketList[currentType].EOP_CARRIAGE_RETURN))
 204:UART_115200_Functions.c ****             {
 205:UART_115200_Functions.c ****                 packet[currentPacketIndex] = dataByte;
 206:UART_115200_Functions.c ****                 currentPacketIndex++;
 207:UART_115200_Functions.c ****             }
 208:UART_115200_Functions.c ****             else if((currentPacketIndex == (PAYLOAD_START_INDEX + PacketList[currentType].PAYLOAD_S
 209:UART_115200_Functions.c ****                 (dataByte == PacketList[currentType].EOP_LINE_FEED))
 210:UART_115200_Functions.c ****             {
 211:UART_115200_Functions.c ****                 packet[currentPacketIndex] = dataByte;
 212:UART_115200_Functions.c ****                               
 213:UART_115200_Functions.c ****                 if(currentType == RTEST_DLINK)
 214:UART_115200_Functions.c ****                 {
 215:UART_115200_Functions.c **** //                   pRxPacket_Controller = getRxPacket_Controller();
 216:UART_115200_Functions.c **** //                   memcpy(&pRxPacket_Controller->bytes[0], &packet[2], PacketList[CTEST_RELAY].PA
 217:UART_115200_Functions.c ****                     packetsuccess[RTEST_DLINK]++;   
 218:UART_115200_Functions.c ****                 }
 219:UART_115200_Functions.c **** //                else if(currentType == CTEST_QUADSERIAL)
 220:UART_115200_Functions.c **** //                {
 221:UART_115200_Functions.c **** ////                   pRxPacket_Relay = getRxPacket_Relay();
 222:UART_115200_Functions.c **** ////                   memcpy(&pRxPacket_Relay->bytes[0], &packet[2], PacketList[RTEST_CONTROLLER].
 223:UART_115200_Functions.c **** //                   packetsuccess[CTEST_QUADSERIAL]++;   
 224:UART_115200_Functions.c **** //                }
 225:UART_115200_Functions.c **** //                else if(currentType == CTEST_AUDIO)
 226:UART_115200_Functions.c **** //                   packetsuccess[CTEST_AUDIO]++;
 227:UART_115200_Functions.c **** //
 228:UART_115200_Functions.c **** //                else if(currentType == QTEST_QUAD)
 229:UART_115200_Functions.c **** //                   packetsuccess[QTEST_QUAD]++;
 230:UART_115200_Functions.c **** //
 231:UART_115200_Functions.c **** ////                if(packetsuccess[0] > 1000)
 232:UART_115200_Functions.c **** ////                    packetsuccess[0] = 0;
 233:UART_115200_Functions.c **** ////                if(packetsuccess[2] > 1000)
 234:UART_115200_Functions.c **** ////                    packetsuccess[2] = 0;
 235:UART_115200_Functions.c **** //
 236:UART_115200_Functions.c **** ////                if(count >= 50)
 237:UART_115200_Functions.c **** ////                    packetsuccess[2] = 0;
 238:UART_115200_Functions.c **** ////                if(count == 0)
 239:UART_115200_Functions.c **** ////                    packetsuccess[2] = 0;
 240:UART_115200_Functions.c ****                 
 241:UART_115200_Functions.c ****                 currentPacketIndex = HEADER_START_INDEX;
 242:UART_115200_Functions.c ****                 currentState = HEADER_STATE;
 243:UART_115200_Functions.c ****                 currentType = RTEST_DLINK;
 244:UART_115200_Functions.c ****             }
 245:UART_115200_Functions.c ****             else
 246:UART_115200_Functions.c ****             {
 247:UART_115200_Functions.c ****                 currentPacketIndex = HEADER_START_INDEX;
 248:UART_115200_Functions.c ****                 currentState = HEADER_STATE;
 249:UART_115200_Functions.c ****                 currentType = RTEST_DLINK;
 250:UART_115200_Functions.c ****             }
 251:UART_115200_Functions.c ****             break;
 252:UART_115200_Functions.c ****     }
 253:UART_115200_Functions.c **** }
 145              		.loc 1 253 0
 146 001a CBE0     		b	.L21
ARM GAS  C:\Users\MARTHN~1\AppData\Local\Temp\ccjh9O4t.s 			page 8


 147              	.L10:
 158:UART_115200_Functions.c **** //                                                                (dataByte == PacketList[CTEST_QUA
 148              		.loc 1 158 0
 149 001c 694B     		ldr	r3, .L22+4
 150 001e 1B78     		ldrb	r3, [r3]	@ zero_extendqisi2
 151 0020 002B     		cmp	r3, #0
 152 0022 11D1     		bne	.L11
 158:UART_115200_Functions.c **** //                                                                (dataByte == PacketList[CTEST_QUA
 153              		.loc 1 158 0 is_stmt 0 discriminator 1
 154 0024 684B     		ldr	r3, .L22+8
 155 0026 1B78     		ldrb	r3, [r3]	@ zero_extendqisi2
 156 0028 FA79     		ldrb	r2, [r7, #7]	@ zero_extendqisi2
 157 002a 9A42     		cmp	r2, r3
 158 002c 0CD1     		bne	.L11
 163:UART_115200_Functions.c ****                 currentPacketIndex++;
 159              		.loc 1 163 0 is_stmt 1
 160 002e 654B     		ldr	r3, .L22+4
 161 0030 1B78     		ldrb	r3, [r3]	@ zero_extendqisi2
 162 0032 1946     		mov	r1, r3
 163 0034 654A     		ldr	r2, .L22+12
 164 0036 FB79     		ldrb	r3, [r7, #7]
 165 0038 5354     		strb	r3, [r2, r1]
 164:UART_115200_Functions.c ****             }
 166              		.loc 1 164 0
 167 003a 624B     		ldr	r3, .L22+4
 168 003c 1B78     		ldrb	r3, [r3]	@ zero_extendqisi2
 169 003e 0133     		adds	r3, r3, #1
 170 0040 DAB2     		uxtb	r2, r3
 171 0042 604B     		ldr	r3, .L22+4
 172 0044 1A70     		strb	r2, [r3]
 173 0046 27E0     		b	.L12
 174              	.L11:
 166:UART_115200_Functions.c **** //                                                                            (dataByte == PacketLi
 175              		.loc 1 166 0
 176 0048 5E4B     		ldr	r3, .L22+4
 177 004a 1B78     		ldrb	r3, [r3]	@ zero_extendqisi2
 178 004c 012B     		cmp	r3, #1
 179 004e 1CD1     		bne	.L13
 166:UART_115200_Functions.c **** //                                                                            (dataByte == PacketLi
 180              		.loc 1 166 0 is_stmt 0 discriminator 1
 181 0050 5D4B     		ldr	r3, .L22+8
 182 0052 5B78     		ldrb	r3, [r3, #1]	@ zero_extendqisi2
 183 0054 FA79     		ldrb	r2, [r7, #7]	@ zero_extendqisi2
 184 0056 9A42     		cmp	r2, r3
 185 0058 17D1     		bne	.L13
 171:UART_115200_Functions.c ****                 currentPacketIndex++;
 186              		.loc 1 171 0 is_stmt 1
 187 005a 5A4B     		ldr	r3, .L22+4
 188 005c 1B78     		ldrb	r3, [r3]	@ zero_extendqisi2
 189 005e 1946     		mov	r1, r3
 190 0060 5A4A     		ldr	r2, .L22+12
 191 0062 FB79     		ldrb	r3, [r7, #7]
 192 0064 5354     		strb	r3, [r2, r1]
 172:UART_115200_Functions.c ****                 currentState = PAYLOAD_STATE;
 193              		.loc 1 172 0
 194 0066 574B     		ldr	r3, .L22+4
 195 0068 1B78     		ldrb	r3, [r3]	@ zero_extendqisi2
ARM GAS  C:\Users\MARTHN~1\AppData\Local\Temp\ccjh9O4t.s 			page 9


 196 006a 0133     		adds	r3, r3, #1
 197 006c DAB2     		uxtb	r2, r3
 198 006e 554B     		ldr	r3, .L22+4
 199 0070 1A70     		strb	r2, [r3]
 173:UART_115200_Functions.c ****                 
 200              		.loc 1 173 0
 201 0072 534B     		ldr	r3, .L22
 202 0074 0122     		movs	r2, #1
 203 0076 1A70     		strb	r2, [r3]
 175:UART_115200_Functions.c ****                     currentType = RTEST_DLINK;
 204              		.loc 1 175 0
 205 0078 534B     		ldr	r3, .L22+8
 206 007a 5B78     		ldrb	r3, [r3, #1]	@ zero_extendqisi2
 207 007c FA79     		ldrb	r2, [r7, #7]	@ zero_extendqisi2
 208 007e 9A42     		cmp	r2, r3
 209 0080 0AD1     		bne	.L12
 176:UART_115200_Functions.c **** //                else if(dataByte == PacketList[CTEST_QUADSERIAL].PACKET_TYPE)
 210              		.loc 1 176 0
 211 0082 534B     		ldr	r3, .L22+16
 212 0084 0022     		movs	r2, #0
 213 0086 1A70     		strb	r2, [r3]
 175:UART_115200_Functions.c ****                     currentType = RTEST_DLINK;
 214              		.loc 1 175 0
 215 0088 06E0     		b	.L12
 216              	.L13:
 188:UART_115200_Functions.c ****                 currentType = RTEST_DLINK;
 217              		.loc 1 188 0
 218 008a 4E4B     		ldr	r3, .L22+4
 219 008c 0022     		movs	r2, #0
 220 008e 1A70     		strb	r2, [r3]
 189:UART_115200_Functions.c ****             }
 221              		.loc 1 189 0
 222 0090 4F4B     		ldr	r3, .L22+16
 223 0092 0022     		movs	r2, #0
 224 0094 1A70     		strb	r2, [r3]
 191:UART_115200_Functions.c ****             
 225              		.loc 1 191 0
 226 0096 8DE0     		b	.L7
 227              	.L12:
 191:UART_115200_Functions.c ****             
 228              		.loc 1 191 0 is_stmt 0 discriminator 1
 229 0098 8CE0     		b	.L7
 230              	.L8:
 194:UART_115200_Functions.c ****             currentPacketIndex++;
 231              		.loc 1 194 0 is_stmt 1
 232 009a 4A4B     		ldr	r3, .L22+4
 233 009c 1B78     		ldrb	r3, [r3]	@ zero_extendqisi2
 234 009e 1946     		mov	r1, r3
 235 00a0 4A4A     		ldr	r2, .L22+12
 236 00a2 FB79     		ldrb	r3, [r7, #7]
 237 00a4 5354     		strb	r3, [r2, r1]
 195:UART_115200_Functions.c ****             
 238              		.loc 1 195 0
 239 00a6 474B     		ldr	r3, .L22+4
 240 00a8 1B78     		ldrb	r3, [r3]	@ zero_extendqisi2
 241 00aa 0133     		adds	r3, r3, #1
 242 00ac DAB2     		uxtb	r2, r3
ARM GAS  C:\Users\MARTHN~1\AppData\Local\Temp\ccjh9O4t.s 			page 10


 243 00ae 454B     		ldr	r3, .L22+4
 244 00b0 1A70     		strb	r2, [r3]
 197:UART_115200_Functions.c ****                 currentState = EOP_STATE;
 245              		.loc 1 197 0
 246 00b2 444B     		ldr	r3, .L22+4
 247 00b4 1B78     		ldrb	r3, [r3]	@ zero_extendqisi2
 248 00b6 1846     		mov	r0, r3
 249 00b8 454B     		ldr	r3, .L22+16
 250 00ba 1B78     		ldrb	r3, [r3]	@ zero_extendqisi2
 251 00bc 1946     		mov	r1, r3
 252 00be 424A     		ldr	r2, .L22+8
 253 00c0 0B46     		mov	r3, r1
 254 00c2 9B00     		lsls	r3, r3, #2
 255 00c4 0B44     		add	r3, r3, r1
 256 00c6 1344     		add	r3, r3, r2
 257 00c8 0233     		adds	r3, r3, #2
 258 00ca 1B78     		ldrb	r3, [r3]	@ zero_extendqisi2
 259 00cc 0233     		adds	r3, r3, #2
 260 00ce 9842     		cmp	r0, r3
 261 00d0 6FDB     		blt	.L20
 198:UART_115200_Functions.c ****             break;   
 262              		.loc 1 198 0
 263 00d2 3B4B     		ldr	r3, .L22
 264 00d4 0222     		movs	r2, #2
 265 00d6 1A70     		strb	r2, [r3]
 199:UART_115200_Functions.c ****             
 266              		.loc 1 199 0
 267 00d8 6BE0     		b	.L20
 268              	.L9:
 202:UART_115200_Functions.c ****                 (dataByte == PacketList[currentType].EOP_CARRIAGE_RETURN))
 269              		.loc 1 202 0
 270 00da 3A4B     		ldr	r3, .L22+4
 271 00dc 1B78     		ldrb	r3, [r3]	@ zero_extendqisi2
 272 00de 1846     		mov	r0, r3
 273 00e0 3B4B     		ldr	r3, .L22+16
 274 00e2 1B78     		ldrb	r3, [r3]	@ zero_extendqisi2
 275 00e4 1946     		mov	r1, r3
 276 00e6 384A     		ldr	r2, .L22+8
 277 00e8 0B46     		mov	r3, r1
 278 00ea 9B00     		lsls	r3, r3, #2
 279 00ec 0B44     		add	r3, r3, r1
 280 00ee 1344     		add	r3, r3, r2
 281 00f0 0233     		adds	r3, r3, #2
 282 00f2 1B78     		ldrb	r3, [r3]	@ zero_extendqisi2
 283 00f4 0233     		adds	r3, r3, #2
 284 00f6 9842     		cmp	r0, r3
 285 00f8 19D1     		bne	.L16
 203:UART_115200_Functions.c ****             {
 286              		.loc 1 203 0 discriminator 1
 287 00fa 354B     		ldr	r3, .L22+16
 288 00fc 1B78     		ldrb	r3, [r3]	@ zero_extendqisi2
 289 00fe 1946     		mov	r1, r3
 290 0100 314A     		ldr	r2, .L22+8
 291 0102 0B46     		mov	r3, r1
 292 0104 9B00     		lsls	r3, r3, #2
 293 0106 0B44     		add	r3, r3, r1
 294 0108 1344     		add	r3, r3, r2
ARM GAS  C:\Users\MARTHN~1\AppData\Local\Temp\ccjh9O4t.s 			page 11


 295 010a 0333     		adds	r3, r3, #3
 296 010c 1B78     		ldrb	r3, [r3]	@ zero_extendqisi2
 202:UART_115200_Functions.c ****                 (dataByte == PacketList[currentType].EOP_CARRIAGE_RETURN))
 297              		.loc 1 202 0 discriminator 1
 298 010e FA79     		ldrb	r2, [r7, #7]	@ zero_extendqisi2
 299 0110 9A42     		cmp	r2, r3
 300 0112 0CD1     		bne	.L16
 205:UART_115200_Functions.c ****                 currentPacketIndex++;
 301              		.loc 1 205 0
 302 0114 2B4B     		ldr	r3, .L22+4
 303 0116 1B78     		ldrb	r3, [r3]	@ zero_extendqisi2
 304 0118 1946     		mov	r1, r3
 305 011a 2C4A     		ldr	r2, .L22+12
 306 011c FB79     		ldrb	r3, [r7, #7]
 307 011e 5354     		strb	r3, [r2, r1]
 206:UART_115200_Functions.c ****             }
 308              		.loc 1 206 0
 309 0120 284B     		ldr	r3, .L22+4
 310 0122 1B78     		ldrb	r3, [r3]	@ zero_extendqisi2
 311 0124 0133     		adds	r3, r3, #1
 312 0126 DAB2     		uxtb	r2, r3
 313 0128 264B     		ldr	r3, .L22+4
 314 012a 1A70     		strb	r2, [r3]
 315 012c 40E0     		b	.L17
 316              	.L16:
 208:UART_115200_Functions.c ****                 (dataByte == PacketList[currentType].EOP_LINE_FEED))
 317              		.loc 1 208 0
 318 012e 254B     		ldr	r3, .L22+4
 319 0130 1B78     		ldrb	r3, [r3]	@ zero_extendqisi2
 320 0132 1846     		mov	r0, r3
 321 0134 264B     		ldr	r3, .L22+16
 322 0136 1B78     		ldrb	r3, [r3]	@ zero_extendqisi2
 323 0138 1946     		mov	r1, r3
 324 013a 234A     		ldr	r2, .L22+8
 325 013c 0B46     		mov	r3, r1
 326 013e 9B00     		lsls	r3, r3, #2
 327 0140 0B44     		add	r3, r3, r1
 328 0142 1344     		add	r3, r3, r2
 329 0144 0233     		adds	r3, r3, #2
 330 0146 1B78     		ldrb	r3, [r3]	@ zero_extendqisi2
 331 0148 0333     		adds	r3, r3, #3
 332 014a 9842     		cmp	r0, r3
 333 014c 26D1     		bne	.L18
 209:UART_115200_Functions.c ****             {
 334              		.loc 1 209 0 discriminator 1
 335 014e 204B     		ldr	r3, .L22+16
 336 0150 1B78     		ldrb	r3, [r3]	@ zero_extendqisi2
 337 0152 1946     		mov	r1, r3
 338 0154 1C4A     		ldr	r2, .L22+8
 339 0156 0B46     		mov	r3, r1
 340 0158 9B00     		lsls	r3, r3, #2
 341 015a 0B44     		add	r3, r3, r1
 342 015c 1344     		add	r3, r3, r2
 343 015e 0433     		adds	r3, r3, #4
 344 0160 1B78     		ldrb	r3, [r3]	@ zero_extendqisi2
 208:UART_115200_Functions.c ****                 (dataByte == PacketList[currentType].EOP_LINE_FEED))
 345              		.loc 1 208 0 discriminator 1
ARM GAS  C:\Users\MARTHN~1\AppData\Local\Temp\ccjh9O4t.s 			page 12


 346 0162 FA79     		ldrb	r2, [r7, #7]	@ zero_extendqisi2
 347 0164 9A42     		cmp	r2, r3
 348 0166 19D1     		bne	.L18
 211:UART_115200_Functions.c ****                               
 349              		.loc 1 211 0
 350 0168 164B     		ldr	r3, .L22+4
 351 016a 1B78     		ldrb	r3, [r3]	@ zero_extendqisi2
 352 016c 1946     		mov	r1, r3
 353 016e 174A     		ldr	r2, .L22+12
 354 0170 FB79     		ldrb	r3, [r7, #7]
 355 0172 5354     		strb	r3, [r2, r1]
 213:UART_115200_Functions.c ****                 {
 356              		.loc 1 213 0
 357 0174 164B     		ldr	r3, .L22+16
 358 0176 1B78     		ldrb	r3, [r3]	@ zero_extendqisi2
 359 0178 002B     		cmp	r3, #0
 360 017a 05D1     		bne	.L19
 217:UART_115200_Functions.c ****                 }
 361              		.loc 1 217 0
 362 017c 154B     		ldr	r3, .L22+20
 363 017e 1B88     		ldrh	r3, [r3]
 364 0180 0133     		adds	r3, r3, #1
 365 0182 9AB2     		uxth	r2, r3
 366 0184 134B     		ldr	r3, .L22+20
 367 0186 1A80     		strh	r2, [r3]	@ movhi
 368              	.L19:
 241:UART_115200_Functions.c ****                 currentState = HEADER_STATE;
 369              		.loc 1 241 0
 370 0188 0E4B     		ldr	r3, .L22+4
 371 018a 0022     		movs	r2, #0
 372 018c 1A70     		strb	r2, [r3]
 242:UART_115200_Functions.c ****                 currentType = RTEST_DLINK;
 373              		.loc 1 242 0
 374 018e 0C4B     		ldr	r3, .L22
 375 0190 0022     		movs	r2, #0
 376 0192 1A70     		strb	r2, [r3]
 243:UART_115200_Functions.c ****             }
 377              		.loc 1 243 0
 378 0194 0E4B     		ldr	r3, .L22+16
 379 0196 0022     		movs	r2, #0
 380 0198 1A70     		strb	r2, [r3]
 381 019a 09E0     		b	.L17
 382              	.L18:
 247:UART_115200_Functions.c ****                 currentState = HEADER_STATE;
 383              		.loc 1 247 0
 384 019c 094B     		ldr	r3, .L22+4
 385 019e 0022     		movs	r2, #0
 386 01a0 1A70     		strb	r2, [r3]
 248:UART_115200_Functions.c ****                 currentType = RTEST_DLINK;
 387              		.loc 1 248 0
 388 01a2 074B     		ldr	r3, .L22
 389 01a4 0022     		movs	r2, #0
 390 01a6 1A70     		strb	r2, [r3]
 249:UART_115200_Functions.c ****             }
 391              		.loc 1 249 0
 392 01a8 094B     		ldr	r3, .L22+16
 393 01aa 0022     		movs	r2, #0
ARM GAS  C:\Users\MARTHN~1\AppData\Local\Temp\ccjh9O4t.s 			page 13


 394 01ac 1A70     		strb	r2, [r3]
 251:UART_115200_Functions.c ****     }
 395              		.loc 1 251 0
 396 01ae 01E0     		b	.L7
 397              	.L17:
 398 01b0 00E0     		b	.L7
 399              	.L20:
 199:UART_115200_Functions.c ****             
 400              		.loc 1 199 0
 401 01b2 00BF     		nop
 402              	.L7:
 403              	.L21:
 404              		.loc 1 253 0
 405 01b4 00BF     		nop
 406 01b6 0C37     		adds	r7, r7, #12
 407              		.cfi_def_cfa_offset 4
 408 01b8 BD46     		mov	sp, r7
 409              		.cfi_def_cfa_register 13
 410              		@ sp needed
 411 01ba 80BC     		pop	{r7}
 412              		.cfi_restore 7
 413              		.cfi_def_cfa_offset 0
 414 01bc 7047     		bx	lr
 415              	.L23:
 416 01be 00BF     		.align	2
 417              	.L22:
 418 01c0 6C000000 		.word	currentState.6929
 419 01c4 6D000000 		.word	currentPacketIndex.6931
 420 01c8 00000000 		.word	PacketList
 421 01cc 70000000 		.word	packet.6928
 422 01d0 77000000 		.word	currentType.6930
 423 01d4 00000000 		.word	packetsuccess
 424              		.cfi_endproc
 425              	.LFE64:
 426              		.size	detectPacket, .-detectPacket
 427              		.section	.text.ResetPacketSuccess_115200,"ax",%progbits
 428              		.align	2
 429              		.global	ResetPacketSuccess_115200
 430              		.thumb
 431              		.thumb_func
 432              		.type	ResetPacketSuccess_115200, %function
 433              	ResetPacketSuccess_115200:
 434              	.LFB65:
 254:UART_115200_Functions.c **** 
 255:UART_115200_Functions.c **** //void sendPacketToController(void)                   //*** This part needs some work
 256:UART_115200_Functions.c **** //{
 257:UART_115200_Functions.c **** //    static uint16 iterator = 0;
 258:UART_115200_Functions.c **** //    static uint8 checkSumRelay = 0;
 259:UART_115200_Functions.c **** //    static uint8 checkSumRelayIterator = 0;
 260:UART_115200_Functions.c **** //    static uint8 toggleSend = 0;
 261:UART_115200_Functions.c **** //    
 262:UART_115200_Functions.c **** //    static TxPacket_Controller txPacket_Controller;            
 263:UART_115200_Functions.c **** //    static TxPacket_Controller * pTxPacket_Controller;
 264:UART_115200_Functions.c **** //    
 265:UART_115200_Functions.c **** //    pRxPacket_Controller = getRxPacket_Controller();
 266:UART_115200_Functions.c **** //
 267:UART_115200_Functions.c **** //    checkSumRelay = 0;
ARM GAS  C:\Users\MARTHN~1\AppData\Local\Temp\ccjh9O4t.s 			page 14


 268:UART_115200_Functions.c **** //    for(checkSumRelayIterator = 0; checkSumRelayIterator<PacketList[CTEST_RELAY].PAYLOAD_SIZE; ch
 269:UART_115200_Functions.c **** //    {
 270:UART_115200_Functions.c **** //        checkSumRelay ^= pTxPacket_Controller->bytes[checkSumRelayIterator];
 271:UART_115200_Functions.c **** //    }
 272:UART_115200_Functions.c **** //    
 273:UART_115200_Functions.c **** //    toggleSend^=0x01;
 274:UART_115200_Functions.c **** //    if(toggleSend == 1)
 275:UART_115200_Functions.c **** //    {
 276:UART_115200_Functions.c **** //
 277:UART_115200_Functions.c **** //        UART_230400_WriteTxData(0x7E);
 278:UART_115200_Functions.c **** //        UART_230400_WriteTxData('D');
 279:UART_115200_Functions.c **** //        for(iterator = 0; iterator<PacketList[CTEST_RELAY].PAYLOAD_SIZE; iterator++)             
 280:UART_115200_Functions.c **** //        {
 281:UART_115200_Functions.c **** //            UART_230400_WriteTxData(pTxPacket_Controller->bytes[iterator]);
 282:UART_115200_Functions.c **** //        }
 283:UART_115200_Functions.c **** //       
 284:UART_115200_Functions.c **** //        UART_230400_WriteTxData(checkSumRelay);
 285:UART_115200_Functions.c **** //        UART_230400_WriteTxData(0x0D);
 286:UART_115200_Functions.c **** //        UART_230400_WriteTxData(0x0A);
 287:UART_115200_Functions.c **** //    }
 288:UART_115200_Functions.c **** ////    else                                                                                    // 
 289:UART_115200_Functions.c **** ////    {
 290:UART_115200_Functions.c **** ////        for(iterator = 0; iterator<72; iterator++)
 291:UART_115200_Functions.c **** ////        {
 292:UART_115200_Functions.c **** ////            CONTROLLER_WriteTxData(gpsValuesToSend->byte[iterator]);
 293:UART_115200_Functions.c **** ////        }
 294:UART_115200_Functions.c **** ////    }
 295:UART_115200_Functions.c **** //}
 296:UART_115200_Functions.c **** 
 297:UART_115200_Functions.c **** void ResetPacketSuccess_115200(void)           //*** This can be improved
 298:UART_115200_Functions.c **** {
 435              		.loc 1 298 0
 436              		.cfi_startproc
 437              		@ args = 0, pretend = 0, frame = 0
 438              		@ frame_needed = 1, uses_anonymous_args = 0
 439              		@ link register save eliminated.
 440 0000 80B4     		push	{r7}
 441              		.cfi_def_cfa_offset 4
 442              		.cfi_offset 7, -4
 443 0002 00AF     		add	r7, sp, #0
 444              		.cfi_def_cfa_register 7
 299:UART_115200_Functions.c **** //    packetsuccess[0] = 0;
 300:UART_115200_Functions.c **** //    packetsuccess[1] = 0;
 301:UART_115200_Functions.c **** //    packetsuccess[2] = 0;
 302:UART_115200_Functions.c **** //    packetsuccess[3] = 0;
 303:UART_115200_Functions.c ****     
 304:UART_115200_Functions.c ****     return;
 445              		.loc 1 304 0
 446 0004 00BF     		nop
 305:UART_115200_Functions.c **** }
 447              		.loc 1 305 0
 448 0006 BD46     		mov	sp, r7
 449              		.cfi_def_cfa_register 13
 450              		@ sp needed
 451 0008 80BC     		pop	{r7}
 452              		.cfi_restore 7
 453              		.cfi_def_cfa_offset 0
ARM GAS  C:\Users\MARTHN~1\AppData\Local\Temp\ccjh9O4t.s 			page 15


 454 000a 7047     		bx	lr
 455              		.cfi_endproc
 456              	.LFE65:
 457              		.size	ResetPacketSuccess_115200, .-ResetPacketSuccess_115200
 458              		.section	.text.VerifyPacket_115200,"ax",%progbits
 459              		.align	2
 460              		.global	VerifyPacket_115200
 461              		.thumb
 462              		.thumb_func
 463              		.type	VerifyPacket_115200, %function
 464              	VerifyPacket_115200:
 465              	.LFB66:
 306:UART_115200_Functions.c **** 
 307:UART_115200_Functions.c **** uint8 VerifyPacket_115200(uint8 PacketType)
 308:UART_115200_Functions.c **** {
 466              		.loc 1 308 0
 467              		.cfi_startproc
 468              		@ args = 0, pretend = 0, frame = 8
 469              		@ frame_needed = 1, uses_anonymous_args = 0
 470              		@ link register save eliminated.
 471 0000 80B4     		push	{r7}
 472              		.cfi_def_cfa_offset 4
 473              		.cfi_offset 7, -4
 474 0002 83B0     		sub	sp, sp, #12
 475              		.cfi_def_cfa_offset 16
 476 0004 00AF     		add	r7, sp, #0
 477              		.cfi_def_cfa_register 7
 478 0006 0346     		mov	r3, r0
 479 0008 FB71     		strb	r3, [r7, #7]
 309:UART_115200_Functions.c ****     
 310:UART_115200_Functions.c ****     if(packetsuccess[PacketType] == PACKET_VERIFICATION_COUNT)                //maybe we wait until
 480              		.loc 1 310 0
 481 000a FB79     		ldrb	r3, [r7, #7]	@ zero_extendqisi2
 482 000c 0E4A     		ldr	r2, .L30
 483 000e 32F81330 		ldrh	r3, [r2, r3, lsl #1]
 484 0012 052B     		cmp	r3, #5
 485 0014 06D1     		bne	.L27
 311:UART_115200_Functions.c ****     {
 312:UART_115200_Functions.c ****         packetsuccess[PacketType] = 0;
 486              		.loc 1 312 0
 487 0016 FB79     		ldrb	r3, [r7, #7]	@ zero_extendqisi2
 488 0018 0B4A     		ldr	r2, .L30
 489 001a 0021     		movs	r1, #0
 490 001c 22F81310 		strh	r1, [r2, r3, lsl #1]	@ movhi
 313:UART_115200_Functions.c ****         return(1);
 491              		.loc 1 313 0
 492 0020 0123     		movs	r3, #1
 493 0022 0BE0     		b	.L28
 494              	.L27:
 314:UART_115200_Functions.c ****     }
 315:UART_115200_Functions.c ****     else if(packetsuccess[PacketType] > PACKET_VERIFICATION_COUNT)
 495              		.loc 1 315 0
 496 0024 FB79     		ldrb	r3, [r7, #7]	@ zero_extendqisi2
 497 0026 084A     		ldr	r2, .L30
 498 0028 32F81330 		ldrh	r3, [r2, r3, lsl #1]
 499 002c 052B     		cmp	r3, #5
 500 002e 04D9     		bls	.L29
ARM GAS  C:\Users\MARTHN~1\AppData\Local\Temp\ccjh9O4t.s 			page 16


 316:UART_115200_Functions.c ****         packetsuccess[PacketType] = 0;
 501              		.loc 1 316 0
 502 0030 FB79     		ldrb	r3, [r7, #7]	@ zero_extendqisi2
 503 0032 054A     		ldr	r2, .L30
 504 0034 0021     		movs	r1, #0
 505 0036 22F81310 		strh	r1, [r2, r3, lsl #1]	@ movhi
 506              	.L29:
 317:UART_115200_Functions.c ****     
 318:UART_115200_Functions.c ****         
 319:UART_115200_Functions.c ****     return(0);
 507              		.loc 1 319 0
 508 003a 0023     		movs	r3, #0
 509              	.L28:
 320:UART_115200_Functions.c ****         
 321:UART_115200_Functions.c ****         
 322:UART_115200_Functions.c **** //    if(packetsuccess[PacketType] >= PACKET_VERIFICATION_COUNT)                //maybe we wait unt
 323:UART_115200_Functions.c **** //        return(1);
 324:UART_115200_Functions.c **** //    else
 325:UART_115200_Functions.c **** //        return(0);
 326:UART_115200_Functions.c ****        
 327:UART_115200_Functions.c **** }
 510              		.loc 1 327 0
 511 003c 1846     		mov	r0, r3
 512 003e 0C37     		adds	r7, r7, #12
 513              		.cfi_def_cfa_offset 4
 514 0040 BD46     		mov	sp, r7
 515              		.cfi_def_cfa_register 13
 516              		@ sp needed
 517 0042 80BC     		pop	{r7}
 518              		.cfi_restore 7
 519              		.cfi_def_cfa_offset 0
 520 0044 7047     		bx	lr
 521              	.L31:
 522 0046 00BF     		.align	2
 523              	.L30:
 524 0048 00000000 		.word	packetsuccess
 525              		.cfi_endproc
 526              	.LFE66:
 527              		.size	VerifyPacket_115200, .-VerifyPacket_115200
 528              		.bss
 529              	testbuffer_count.6922:
 530 0007 00       		.space	1
 531              		.align	2
 532              	testbuffer.6921:
 533 0008 00000000 		.space	100
 533      00000000 
 533      00000000 
 533      00000000 
 533      00000000 
 534              	currentState.6929:
 535 006c 00       		.space	1
 536              	currentPacketIndex.6931:
 537 006d 00       		.space	1
 538 006e 0000     		.align	2
 539              	packet.6928:
 540 0070 00000000 		.space	7
 540      000000
ARM GAS  C:\Users\MARTHN~1\AppData\Local\Temp\ccjh9O4t.s 			page 17


 541              	currentType.6930:
 542 0077 00       		.space	1
 543              		.text
 544              	.Letext0:
 545              		.file 2 "c:\\program files (x86)\\cypress\\psoc creator\\4.3\\psoc creator\\import\\gnu\\arm\\5.4.
 546              		.file 3 "c:\\program files (x86)\\cypress\\psoc creator\\4.3\\psoc creator\\import\\gnu\\arm\\5.4.
 547              		.file 4 "Generated_Source\\PSoC5/cytypes.h"
 548              		.file 5 "UART_115200_Functions.h"
 549              		.file 6 "Generated_Source\\PSoC5/core_cm3.h"
 550              		.section	.debug_info,"",%progbits
 551              	.Ldebug_info0:
 552 0000 25030000 		.4byte	0x325
 553 0004 0400     		.2byte	0x4
 554 0006 00000000 		.4byte	.Ldebug_abbrev0
 555 000a 04       		.byte	0x4
 556 000b 01       		.uleb128 0x1
 557 000c 00000000 		.4byte	.LASF47
 558 0010 0C       		.byte	0xc
 559 0011 4B010000 		.4byte	.LASF48
 560 0015 92010000 		.4byte	.LASF49
 561 0019 00000000 		.4byte	.Ldebug_ranges0+0
 562 001d 00000000 		.4byte	0
 563 0021 00000000 		.4byte	.Ldebug_line0
 564 0025 02       		.uleb128 0x2
 565 0026 01       		.byte	0x1
 566 0027 06       		.byte	0x6
 567 0028 5C030000 		.4byte	.LASF0
 568 002c 02       		.uleb128 0x2
 569 002d 01       		.byte	0x1
 570 002e 08       		.byte	0x8
 571 002f 31010000 		.4byte	.LASF1
 572 0033 02       		.uleb128 0x2
 573 0034 02       		.byte	0x2
 574 0035 05       		.byte	0x5
 575 0036 0D030000 		.4byte	.LASF2
 576 003a 02       		.uleb128 0x2
 577 003b 02       		.byte	0x2
 578 003c 07       		.byte	0x7
 579 003d 75010000 		.4byte	.LASF3
 580 0041 03       		.uleb128 0x3
 581 0042 AC000000 		.4byte	.LASF9
 582 0046 02       		.byte	0x2
 583 0047 3F       		.byte	0x3f
 584 0048 4C000000 		.4byte	0x4c
 585 004c 02       		.uleb128 0x2
 586 004d 04       		.byte	0x4
 587 004e 05       		.byte	0x5
 588 004f CA000000 		.4byte	.LASF4
 589 0053 02       		.uleb128 0x2
 590 0054 04       		.byte	0x4
 591 0055 07       		.byte	0x7
 592 0056 63010000 		.4byte	.LASF5
 593 005a 02       		.uleb128 0x2
 594 005b 08       		.byte	0x8
 595 005c 05       		.byte	0x5
 596 005d D4020000 		.4byte	.LASF6
 597 0061 02       		.uleb128 0x2
ARM GAS  C:\Users\MARTHN~1\AppData\Local\Temp\ccjh9O4t.s 			page 18


 598 0062 08       		.byte	0x8
 599 0063 07       		.byte	0x7
 600 0064 54020000 		.4byte	.LASF7
 601 0068 04       		.uleb128 0x4
 602 0069 04       		.byte	0x4
 603 006a 05       		.byte	0x5
 604 006b 696E7400 		.ascii	"int\000"
 605 006f 02       		.uleb128 0x2
 606 0070 04       		.byte	0x4
 607 0071 07       		.byte	0x7
 608 0072 47020000 		.4byte	.LASF8
 609 0076 03       		.uleb128 0x3
 610 0077 0A010000 		.4byte	.LASF10
 611 007b 03       		.byte	0x3
 612 007c 2C       		.byte	0x2c
 613 007d 41000000 		.4byte	0x41
 614 0081 05       		.uleb128 0x5
 615 0082 17030000 		.4byte	.LASF11
 616 0086 04       		.byte	0x4
 617 0087 E401     		.2byte	0x1e4
 618 0089 2C000000 		.4byte	0x2c
 619 008d 05       		.uleb128 0x5
 620 008e 2D020000 		.4byte	.LASF12
 621 0092 04       		.byte	0x4
 622 0093 E501     		.2byte	0x1e5
 623 0095 3A000000 		.4byte	0x3a
 624 0099 02       		.uleb128 0x2
 625 009a 04       		.byte	0x4
 626 009b 04       		.byte	0x4
 627 009c 1A010000 		.4byte	.LASF13
 628 00a0 02       		.uleb128 0x2
 629 00a1 08       		.byte	0x8
 630 00a2 04       		.byte	0x4
 631 00a3 E6000000 		.4byte	.LASF14
 632 00a7 02       		.uleb128 0x2
 633 00a8 01       		.byte	0x1
 634 00a9 08       		.byte	0x8
 635 00aa E2020000 		.4byte	.LASF15
 636 00ae 02       		.uleb128 0x2
 637 00af 08       		.byte	0x8
 638 00b0 04       		.byte	0x4
 639 00b1 50030000 		.4byte	.LASF16
 640 00b5 02       		.uleb128 0x2
 641 00b6 04       		.byte	0x4
 642 00b7 07       		.byte	0x7
 643 00b8 CB020000 		.4byte	.LASF17
 644 00bc 06       		.uleb128 0x6
 645 00bd ED000000 		.4byte	.LASF50
 646 00c1 03       		.byte	0x3
 647 00c2 05       		.byte	0x5
 648 00c3 1F       		.byte	0x1f
 649 00c4 ED000000 		.4byte	0xed
 650 00c8 07       		.uleb128 0x7
 651 00c9 3F030000 		.4byte	.LASF18
 652 00cd 05       		.byte	0x5
 653 00ce 21       		.byte	0x21
 654 00cf 81000000 		.4byte	0x81
ARM GAS  C:\Users\MARTHN~1\AppData\Local\Temp\ccjh9O4t.s 			page 19


 655 00d3 00       		.byte	0
 656 00d4 07       		.uleb128 0x7
 657 00d5 8C020000 		.4byte	.LASF19
 658 00d9 05       		.byte	0x5
 659 00da 22       		.byte	0x22
 660 00db 81000000 		.4byte	0x81
 661 00df 01       		.byte	0x1
 662 00e0 07       		.uleb128 0x7
 663 00e1 88010000 		.4byte	.LASF20
 664 00e5 05       		.byte	0x5
 665 00e6 23       		.byte	0x23
 666 00e7 81000000 		.4byte	0x81
 667 00eb 02       		.byte	0x2
 668 00ec 00       		.byte	0
 669 00ed 08       		.uleb128 0x8
 670 00ee 97020000 		.4byte	.LASF46
 671 00f2 03       		.byte	0x3
 672 00f3 05       		.byte	0x5
 673 00f4 1B       		.byte	0x1b
 674 00f5 10010000 		.4byte	0x110
 675 00f9 09       		.uleb128 0x9
 676 00fa 4A030000 		.4byte	.LASF21
 677 00fe 05       		.byte	0x5
 678 00ff 1D       		.byte	0x1d
 679 0100 10010000 		.4byte	0x110
 680 0104 09       		.uleb128 0x9
 681 0105 12010000 		.4byte	.LASF22
 682 0109 05       		.byte	0x5
 683 010a 24       		.byte	0x24
 684 010b BC000000 		.4byte	0xbc
 685 010f 00       		.byte	0
 686 0110 0A       		.uleb128 0xa
 687 0111 81000000 		.4byte	0x81
 688 0115 20010000 		.4byte	0x120
 689 0119 0B       		.uleb128 0xb
 690 011a B5000000 		.4byte	0xb5
 691 011e 02       		.byte	0x2
 692 011f 00       		.byte	0
 693 0120 03       		.uleb128 0x3
 694 0121 9B000000 		.4byte	.LASF23
 695 0125 05       		.byte	0x5
 696 0126 25       		.byte	0x25
 697 0127 ED000000 		.4byte	0xed
 698 012b 0C       		.uleb128 0xc
 699 012c DD000000 		.4byte	.LASF24
 700 0130 01       		.byte	0x1
 701 0131 2C000000 		.4byte	0x2c
 702 0135 01       		.byte	0x1
 703 0136 22       		.byte	0x22
 704 0137 42010000 		.4byte	0x142
 705 013b 0D       		.uleb128 0xd
 706 013c A8020000 		.4byte	.LASF26
 707 0140 00       		.byte	0
 708 0141 00       		.byte	0
 709 0142 0C       		.uleb128 0xc
 710 0143 3F010000 		.4byte	.LASF25
 711 0147 01       		.byte	0x1
ARM GAS  C:\Users\MARTHN~1\AppData\Local\Temp\ccjh9O4t.s 			page 20


 712 0148 2C000000 		.4byte	0x2c
 713 014c 01       		.byte	0x1
 714 014d 2A       		.byte	0x2a
 715 014e 65010000 		.4byte	0x165
 716 0152 0D       		.uleb128 0xd
 717 0153 73030000 		.4byte	.LASF27
 718 0157 00       		.byte	0
 719 0158 0D       		.uleb128 0xd
 720 0159 18020000 		.4byte	.LASF28
 721 015d 01       		.byte	0x1
 722 015e 0D       		.uleb128 0xd
 723 015f D3000000 		.4byte	.LASF29
 724 0163 02       		.byte	0x2
 725 0164 00       		.byte	0
 726 0165 0E       		.uleb128 0xe
 727 0166 05       		.byte	0x5
 728 0167 01       		.byte	0x1
 729 0168 32       		.byte	0x32
 730 0169 AA010000 		.4byte	0x1aa
 731 016d 07       		.uleb128 0x7
 732 016e E7020000 		.4byte	.LASF30
 733 0172 01       		.byte	0x1
 734 0173 34       		.byte	0x34
 735 0174 AA010000 		.4byte	0x1aa
 736 0178 00       		.byte	0
 737 0179 07       		.uleb128 0x7
 738 017a BF020000 		.4byte	.LASF31
 739 017e 01       		.byte	0x1
 740 017f 35       		.byte	0x35
 741 0180 AA010000 		.4byte	0x1aa
 742 0184 01       		.byte	0x1
 743 0185 07       		.uleb128 0x7
 744 0186 80030000 		.4byte	.LASF32
 745 018a 01       		.byte	0x1
 746 018b 36       		.byte	0x36
 747 018c AA010000 		.4byte	0x1aa
 748 0190 02       		.byte	0x2
 749 0191 07       		.uleb128 0x7
 750 0192 78020000 		.4byte	.LASF33
 751 0196 01       		.byte	0x1
 752 0197 37       		.byte	0x37
 753 0198 AA010000 		.4byte	0x1aa
 754 019c 03       		.byte	0x3
 755 019d 07       		.uleb128 0x7
 756 019e FF020000 		.4byte	.LASF34
 757 01a2 01       		.byte	0x1
 758 01a3 38       		.byte	0x38
 759 01a4 AA010000 		.4byte	0x1aa
 760 01a8 04       		.byte	0x4
 761 01a9 00       		.byte	0
 762 01aa 0F       		.uleb128 0xf
 763 01ab 81000000 		.4byte	0x81
 764 01af 03       		.uleb128 0x3
 765 01b0 EC010000 		.4byte	.LASF35
 766 01b4 01       		.byte	0x1
 767 01b5 39       		.byte	0x39
 768 01b6 65010000 		.4byte	0x165
ARM GAS  C:\Users\MARTHN~1\AppData\Local\Temp\ccjh9O4t.s 			page 21


 769 01ba 10       		.uleb128 0x10
 770 01bb 1D030000 		.4byte	.LASF51
 771 01bf 01       		.byte	0x1
 772 01c0 6C       		.byte	0x6c
 773 01c1 00000000 		.4byte	.LFB63
 774 01c5 60000000 		.4byte	.LFE63-.LFB63
 775 01c9 01       		.uleb128 0x1
 776 01ca 9C       		.byte	0x9c
 777 01cb 00020000 		.4byte	0x200
 778 01cf 11       		.uleb128 0x11
 779 01d0 E3010000 		.4byte	.LASF36
 780 01d4 01       		.byte	0x1
 781 01d5 6E       		.byte	0x6e
 782 01d6 81000000 		.4byte	0x81
 783 01da 02       		.uleb128 0x2
 784 01db 91       		.byte	0x91
 785 01dc 77       		.sleb128 -9
 786 01dd 11       		.uleb128 0x11
 787 01de B4020000 		.4byte	.LASF37
 788 01e2 01       		.byte	0x1
 789 01e3 70       		.byte	0x70
 790 01e4 00020000 		.4byte	0x200
 791 01e8 05       		.uleb128 0x5
 792 01e9 03       		.byte	0x3
 793 01ea 08000000 		.4byte	testbuffer.6921
 794 01ee 11       		.uleb128 0x11
 795 01ef 20010000 		.4byte	.LASF38
 796 01f3 01       		.byte	0x1
 797 01f4 71       		.byte	0x71
 798 01f5 81000000 		.4byte	0x81
 799 01f9 05       		.uleb128 0x5
 800 01fa 03       		.byte	0x3
 801 01fb 07000000 		.4byte	testbuffer_count.6922
 802 01ff 00       		.byte	0
 803 0200 0A       		.uleb128 0xa
 804 0201 81000000 		.4byte	0x81
 805 0205 10020000 		.4byte	0x210
 806 0209 0B       		.uleb128 0xb
 807 020a B5000000 		.4byte	0xb5
 808 020e 63       		.byte	0x63
 809 020f 00       		.byte	0
 810 0210 12       		.uleb128 0x12
 811 0211 6B020000 		.4byte	.LASF52
 812 0215 01       		.byte	0x1
 813 0216 94       		.byte	0x94
 814 0217 00000000 		.4byte	.LFB64
 815 021b D8010000 		.4byte	.LFE64-.LFB64
 816 021f 01       		.uleb128 0x1
 817 0220 9C       		.byte	0x9c
 818 0221 78020000 		.4byte	0x278
 819 0225 13       		.uleb128 0x13
 820 0226 E3010000 		.4byte	.LASF36
 821 022a 01       		.byte	0x1
 822 022b 94       		.byte	0x94
 823 022c 81000000 		.4byte	0x81
 824 0230 02       		.uleb128 0x2
 825 0231 91       		.byte	0x91
ARM GAS  C:\Users\MARTHN~1\AppData\Local\Temp\ccjh9O4t.s 			page 22


 826 0232 77       		.sleb128 -9
 827 0233 11       		.uleb128 0x11
 828 0234 26020000 		.4byte	.LASF39
 829 0238 01       		.byte	0x1
 830 0239 96       		.byte	0x96
 831 023a 78020000 		.4byte	0x278
 832 023e 05       		.uleb128 0x5
 833 023f 03       		.byte	0x3
 834 0240 70000000 		.4byte	packet.6928
 835 0244 11       		.uleb128 0x11
 836 0245 8E000000 		.4byte	.LASF40
 837 0249 01       		.byte	0x1
 838 024a 97       		.byte	0x97
 839 024b 42010000 		.4byte	0x142
 840 024f 05       		.uleb128 0x5
 841 0250 03       		.byte	0x3
 842 0251 6C000000 		.4byte	currentState.6929
 843 0255 11       		.uleb128 0x11
 844 0256 F3020000 		.4byte	.LASF41
 845 025a 01       		.byte	0x1
 846 025b 98       		.byte	0x98
 847 025c 2B010000 		.4byte	0x12b
 848 0260 05       		.uleb128 0x5
 849 0261 03       		.byte	0x3
 850 0262 77000000 		.4byte	currentType.6930
 851 0266 11       		.uleb128 0x11
 852 0267 34020000 		.4byte	.LASF42
 853 026b 01       		.byte	0x1
 854 026c 99       		.byte	0x99
 855 026d 81000000 		.4byte	0x81
 856 0271 05       		.uleb128 0x5
 857 0272 03       		.byte	0x3
 858 0273 6D000000 		.4byte	currentPacketIndex.6931
 859 0277 00       		.byte	0
 860 0278 0A       		.uleb128 0xa
 861 0279 81000000 		.4byte	0x81
 862 027d 88020000 		.4byte	0x288
 863 0281 0B       		.uleb128 0xb
 864 0282 B5000000 		.4byte	0xb5
 865 0286 06       		.byte	0x6
 866 0287 00       		.byte	0
 867 0288 14       		.uleb128 0x14
 868 0289 F3010000 		.4byte	.LASF53
 869 028d 01       		.byte	0x1
 870 028e 2901     		.2byte	0x129
 871 0290 00000000 		.4byte	.LFB65
 872 0294 0C000000 		.4byte	.LFE65-.LFB65
 873 0298 01       		.uleb128 0x1
 874 0299 9C       		.byte	0x9c
 875 029a 15       		.uleb128 0x15
 876 029b B6000000 		.4byte	.LASF54
 877 029f 01       		.byte	0x1
 878 02a0 3301     		.2byte	0x133
 879 02a2 81000000 		.4byte	0x81
 880 02a6 00000000 		.4byte	.LFB66
 881 02aa 4C000000 		.4byte	.LFE66-.LFB66
 882 02ae 01       		.uleb128 0x1
ARM GAS  C:\Users\MARTHN~1\AppData\Local\Temp\ccjh9O4t.s 			page 23


 883 02af 9C       		.byte	0x9c
 884 02b0 C4020000 		.4byte	0x2c4
 885 02b4 16       		.uleb128 0x16
 886 02b5 0D020000 		.4byte	.LASF43
 887 02b9 01       		.byte	0x1
 888 02ba 3301     		.2byte	0x133
 889 02bc 81000000 		.4byte	0x81
 890 02c0 02       		.uleb128 0x2
 891 02c1 91       		.byte	0x91
 892 02c2 77       		.sleb128 -9
 893 02c3 00       		.byte	0
 894 02c4 0A       		.uleb128 0xa
 895 02c5 AF010000 		.4byte	0x1af
 896 02c9 D4020000 		.4byte	0x2d4
 897 02cd 0B       		.uleb128 0xb
 898 02ce B5000000 		.4byte	0xb5
 899 02d2 00       		.byte	0
 900 02d3 00       		.byte	0
 901 02d4 11       		.uleb128 0x11
 902 02d5 68030000 		.4byte	.LASF44
 903 02d9 01       		.byte	0x1
 904 02da 3B       		.byte	0x3b
 905 02db C4020000 		.4byte	0x2c4
 906 02df 05       		.uleb128 0x5
 907 02e0 03       		.byte	0x3
 908 02e1 00000000 		.4byte	PacketList
 909 02e5 0A       		.uleb128 0xa
 910 02e6 8D000000 		.4byte	0x8d
 911 02ea F5020000 		.4byte	0x2f5
 912 02ee 0B       		.uleb128 0xb
 913 02ef B5000000 		.4byte	0xb5
 914 02f3 00       		.byte	0
 915 02f4 00       		.byte	0
 916 02f5 11       		.uleb128 0x11
 917 02f6 FC000000 		.4byte	.LASF45
 918 02fa 01       		.byte	0x1
 919 02fb 46       		.byte	0x46
 920 02fc E5020000 		.4byte	0x2e5
 921 0300 05       		.uleb128 0x5
 922 0301 03       		.byte	0x3
 923 0302 00000000 		.4byte	packetsuccess
 924 0306 11       		.uleb128 0x11
 925 0307 97020000 		.4byte	.LASF46
 926 030b 01       		.byte	0x1
 927 030c 48       		.byte	0x48
 928 030d 20010000 		.4byte	0x120
 929 0311 05       		.uleb128 0x5
 930 0312 03       		.byte	0x3
 931 0313 04000000 		.4byte	rxPacket_DLink_S
 932 0317 17       		.uleb128 0x17
 933 0318 D6010000 		.4byte	.LASF55
 934 031c 06       		.byte	0x6
 935 031d 1207     		.2byte	0x712
 936 031f 23030000 		.4byte	0x323
 937 0323 18       		.uleb128 0x18
 938 0324 76000000 		.4byte	0x76
 939 0328 00       		.byte	0
ARM GAS  C:\Users\MARTHN~1\AppData\Local\Temp\ccjh9O4t.s 			page 24


 940              		.section	.debug_abbrev,"",%progbits
 941              	.Ldebug_abbrev0:
 942 0000 01       		.uleb128 0x1
 943 0001 11       		.uleb128 0x11
 944 0002 01       		.byte	0x1
 945 0003 25       		.uleb128 0x25
 946 0004 0E       		.uleb128 0xe
 947 0005 13       		.uleb128 0x13
 948 0006 0B       		.uleb128 0xb
 949 0007 03       		.uleb128 0x3
 950 0008 0E       		.uleb128 0xe
 951 0009 1B       		.uleb128 0x1b
 952 000a 0E       		.uleb128 0xe
 953 000b 55       		.uleb128 0x55
 954 000c 17       		.uleb128 0x17
 955 000d 11       		.uleb128 0x11
 956 000e 01       		.uleb128 0x1
 957 000f 10       		.uleb128 0x10
 958 0010 17       		.uleb128 0x17
 959 0011 00       		.byte	0
 960 0012 00       		.byte	0
 961 0013 02       		.uleb128 0x2
 962 0014 24       		.uleb128 0x24
 963 0015 00       		.byte	0
 964 0016 0B       		.uleb128 0xb
 965 0017 0B       		.uleb128 0xb
 966 0018 3E       		.uleb128 0x3e
 967 0019 0B       		.uleb128 0xb
 968 001a 03       		.uleb128 0x3
 969 001b 0E       		.uleb128 0xe
 970 001c 00       		.byte	0
 971 001d 00       		.byte	0
 972 001e 03       		.uleb128 0x3
 973 001f 16       		.uleb128 0x16
 974 0020 00       		.byte	0
 975 0021 03       		.uleb128 0x3
 976 0022 0E       		.uleb128 0xe
 977 0023 3A       		.uleb128 0x3a
 978 0024 0B       		.uleb128 0xb
 979 0025 3B       		.uleb128 0x3b
 980 0026 0B       		.uleb128 0xb
 981 0027 49       		.uleb128 0x49
 982 0028 13       		.uleb128 0x13
 983 0029 00       		.byte	0
 984 002a 00       		.byte	0
 985 002b 04       		.uleb128 0x4
 986 002c 24       		.uleb128 0x24
 987 002d 00       		.byte	0
 988 002e 0B       		.uleb128 0xb
 989 002f 0B       		.uleb128 0xb
 990 0030 3E       		.uleb128 0x3e
 991 0031 0B       		.uleb128 0xb
 992 0032 03       		.uleb128 0x3
 993 0033 08       		.uleb128 0x8
 994 0034 00       		.byte	0
 995 0035 00       		.byte	0
 996 0036 05       		.uleb128 0x5
ARM GAS  C:\Users\MARTHN~1\AppData\Local\Temp\ccjh9O4t.s 			page 25


 997 0037 16       		.uleb128 0x16
 998 0038 00       		.byte	0
 999 0039 03       		.uleb128 0x3
 1000 003a 0E       		.uleb128 0xe
 1001 003b 3A       		.uleb128 0x3a
 1002 003c 0B       		.uleb128 0xb
 1003 003d 3B       		.uleb128 0x3b
 1004 003e 05       		.uleb128 0x5
 1005 003f 49       		.uleb128 0x49
 1006 0040 13       		.uleb128 0x13
 1007 0041 00       		.byte	0
 1008 0042 00       		.byte	0
 1009 0043 06       		.uleb128 0x6
 1010 0044 13       		.uleb128 0x13
 1011 0045 01       		.byte	0x1
 1012 0046 03       		.uleb128 0x3
 1013 0047 0E       		.uleb128 0xe
 1014 0048 0B       		.uleb128 0xb
 1015 0049 0B       		.uleb128 0xb
 1016 004a 3A       		.uleb128 0x3a
 1017 004b 0B       		.uleb128 0xb
 1018 004c 3B       		.uleb128 0x3b
 1019 004d 0B       		.uleb128 0xb
 1020 004e 01       		.uleb128 0x1
 1021 004f 13       		.uleb128 0x13
 1022 0050 00       		.byte	0
 1023 0051 00       		.byte	0
 1024 0052 07       		.uleb128 0x7
 1025 0053 0D       		.uleb128 0xd
 1026 0054 00       		.byte	0
 1027 0055 03       		.uleb128 0x3
 1028 0056 0E       		.uleb128 0xe
 1029 0057 3A       		.uleb128 0x3a
 1030 0058 0B       		.uleb128 0xb
 1031 0059 3B       		.uleb128 0x3b
 1032 005a 0B       		.uleb128 0xb
 1033 005b 49       		.uleb128 0x49
 1034 005c 13       		.uleb128 0x13
 1035 005d 38       		.uleb128 0x38
 1036 005e 0B       		.uleb128 0xb
 1037 005f 00       		.byte	0
 1038 0060 00       		.byte	0
 1039 0061 08       		.uleb128 0x8
 1040 0062 17       		.uleb128 0x17
 1041 0063 01       		.byte	0x1
 1042 0064 03       		.uleb128 0x3
 1043 0065 0E       		.uleb128 0xe
 1044 0066 0B       		.uleb128 0xb
 1045 0067 0B       		.uleb128 0xb
 1046 0068 3A       		.uleb128 0x3a
 1047 0069 0B       		.uleb128 0xb
 1048 006a 3B       		.uleb128 0x3b
 1049 006b 0B       		.uleb128 0xb
 1050 006c 01       		.uleb128 0x1
 1051 006d 13       		.uleb128 0x13
 1052 006e 00       		.byte	0
 1053 006f 00       		.byte	0
ARM GAS  C:\Users\MARTHN~1\AppData\Local\Temp\ccjh9O4t.s 			page 26


 1054 0070 09       		.uleb128 0x9
 1055 0071 0D       		.uleb128 0xd
 1056 0072 00       		.byte	0
 1057 0073 03       		.uleb128 0x3
 1058 0074 0E       		.uleb128 0xe
 1059 0075 3A       		.uleb128 0x3a
 1060 0076 0B       		.uleb128 0xb
 1061 0077 3B       		.uleb128 0x3b
 1062 0078 0B       		.uleb128 0xb
 1063 0079 49       		.uleb128 0x49
 1064 007a 13       		.uleb128 0x13
 1065 007b 00       		.byte	0
 1066 007c 00       		.byte	0
 1067 007d 0A       		.uleb128 0xa
 1068 007e 01       		.uleb128 0x1
 1069 007f 01       		.byte	0x1
 1070 0080 49       		.uleb128 0x49
 1071 0081 13       		.uleb128 0x13
 1072 0082 01       		.uleb128 0x1
 1073 0083 13       		.uleb128 0x13
 1074 0084 00       		.byte	0
 1075 0085 00       		.byte	0
 1076 0086 0B       		.uleb128 0xb
 1077 0087 21       		.uleb128 0x21
 1078 0088 00       		.byte	0
 1079 0089 49       		.uleb128 0x49
 1080 008a 13       		.uleb128 0x13
 1081 008b 2F       		.uleb128 0x2f
 1082 008c 0B       		.uleb128 0xb
 1083 008d 00       		.byte	0
 1084 008e 00       		.byte	0
 1085 008f 0C       		.uleb128 0xc
 1086 0090 04       		.uleb128 0x4
 1087 0091 01       		.byte	0x1
 1088 0092 03       		.uleb128 0x3
 1089 0093 0E       		.uleb128 0xe
 1090 0094 0B       		.uleb128 0xb
 1091 0095 0B       		.uleb128 0xb
 1092 0096 49       		.uleb128 0x49
 1093 0097 13       		.uleb128 0x13
 1094 0098 3A       		.uleb128 0x3a
 1095 0099 0B       		.uleb128 0xb
 1096 009a 3B       		.uleb128 0x3b
 1097 009b 0B       		.uleb128 0xb
 1098 009c 01       		.uleb128 0x1
 1099 009d 13       		.uleb128 0x13
 1100 009e 00       		.byte	0
 1101 009f 00       		.byte	0
 1102 00a0 0D       		.uleb128 0xd
 1103 00a1 28       		.uleb128 0x28
 1104 00a2 00       		.byte	0
 1105 00a3 03       		.uleb128 0x3
 1106 00a4 0E       		.uleb128 0xe
 1107 00a5 1C       		.uleb128 0x1c
 1108 00a6 0B       		.uleb128 0xb
 1109 00a7 00       		.byte	0
 1110 00a8 00       		.byte	0
ARM GAS  C:\Users\MARTHN~1\AppData\Local\Temp\ccjh9O4t.s 			page 27


 1111 00a9 0E       		.uleb128 0xe
 1112 00aa 13       		.uleb128 0x13
 1113 00ab 01       		.byte	0x1
 1114 00ac 0B       		.uleb128 0xb
 1115 00ad 0B       		.uleb128 0xb
 1116 00ae 3A       		.uleb128 0x3a
 1117 00af 0B       		.uleb128 0xb
 1118 00b0 3B       		.uleb128 0x3b
 1119 00b1 0B       		.uleb128 0xb
 1120 00b2 01       		.uleb128 0x1
 1121 00b3 13       		.uleb128 0x13
 1122 00b4 00       		.byte	0
 1123 00b5 00       		.byte	0
 1124 00b6 0F       		.uleb128 0xf
 1125 00b7 26       		.uleb128 0x26
 1126 00b8 00       		.byte	0
 1127 00b9 49       		.uleb128 0x49
 1128 00ba 13       		.uleb128 0x13
 1129 00bb 00       		.byte	0
 1130 00bc 00       		.byte	0
 1131 00bd 10       		.uleb128 0x10
 1132 00be 2E       		.uleb128 0x2e
 1133 00bf 01       		.byte	0x1
 1134 00c0 3F       		.uleb128 0x3f
 1135 00c1 19       		.uleb128 0x19
 1136 00c2 03       		.uleb128 0x3
 1137 00c3 0E       		.uleb128 0xe
 1138 00c4 3A       		.uleb128 0x3a
 1139 00c5 0B       		.uleb128 0xb
 1140 00c6 3B       		.uleb128 0x3b
 1141 00c7 0B       		.uleb128 0xb
 1142 00c8 27       		.uleb128 0x27
 1143 00c9 19       		.uleb128 0x19
 1144 00ca 11       		.uleb128 0x11
 1145 00cb 01       		.uleb128 0x1
 1146 00cc 12       		.uleb128 0x12
 1147 00cd 06       		.uleb128 0x6
 1148 00ce 40       		.uleb128 0x40
 1149 00cf 18       		.uleb128 0x18
 1150 00d0 9642     		.uleb128 0x2116
 1151 00d2 19       		.uleb128 0x19
 1152 00d3 01       		.uleb128 0x1
 1153 00d4 13       		.uleb128 0x13
 1154 00d5 00       		.byte	0
 1155 00d6 00       		.byte	0
 1156 00d7 11       		.uleb128 0x11
 1157 00d8 34       		.uleb128 0x34
 1158 00d9 00       		.byte	0
 1159 00da 03       		.uleb128 0x3
 1160 00db 0E       		.uleb128 0xe
 1161 00dc 3A       		.uleb128 0x3a
 1162 00dd 0B       		.uleb128 0xb
 1163 00de 3B       		.uleb128 0x3b
 1164 00df 0B       		.uleb128 0xb
 1165 00e0 49       		.uleb128 0x49
 1166 00e1 13       		.uleb128 0x13
 1167 00e2 02       		.uleb128 0x2
ARM GAS  C:\Users\MARTHN~1\AppData\Local\Temp\ccjh9O4t.s 			page 28


 1168 00e3 18       		.uleb128 0x18
 1169 00e4 00       		.byte	0
 1170 00e5 00       		.byte	0
 1171 00e6 12       		.uleb128 0x12
 1172 00e7 2E       		.uleb128 0x2e
 1173 00e8 01       		.byte	0x1
 1174 00e9 03       		.uleb128 0x3
 1175 00ea 0E       		.uleb128 0xe
 1176 00eb 3A       		.uleb128 0x3a
 1177 00ec 0B       		.uleb128 0xb
 1178 00ed 3B       		.uleb128 0x3b
 1179 00ee 0B       		.uleb128 0xb
 1180 00ef 27       		.uleb128 0x27
 1181 00f0 19       		.uleb128 0x19
 1182 00f1 11       		.uleb128 0x11
 1183 00f2 01       		.uleb128 0x1
 1184 00f3 12       		.uleb128 0x12
 1185 00f4 06       		.uleb128 0x6
 1186 00f5 40       		.uleb128 0x40
 1187 00f6 18       		.uleb128 0x18
 1188 00f7 9742     		.uleb128 0x2117
 1189 00f9 19       		.uleb128 0x19
 1190 00fa 01       		.uleb128 0x1
 1191 00fb 13       		.uleb128 0x13
 1192 00fc 00       		.byte	0
 1193 00fd 00       		.byte	0
 1194 00fe 13       		.uleb128 0x13
 1195 00ff 05       		.uleb128 0x5
 1196 0100 00       		.byte	0
 1197 0101 03       		.uleb128 0x3
 1198 0102 0E       		.uleb128 0xe
 1199 0103 3A       		.uleb128 0x3a
 1200 0104 0B       		.uleb128 0xb
 1201 0105 3B       		.uleb128 0x3b
 1202 0106 0B       		.uleb128 0xb
 1203 0107 49       		.uleb128 0x49
 1204 0108 13       		.uleb128 0x13
 1205 0109 02       		.uleb128 0x2
 1206 010a 18       		.uleb128 0x18
 1207 010b 00       		.byte	0
 1208 010c 00       		.byte	0
 1209 010d 14       		.uleb128 0x14
 1210 010e 2E       		.uleb128 0x2e
 1211 010f 00       		.byte	0
 1212 0110 3F       		.uleb128 0x3f
 1213 0111 19       		.uleb128 0x19
 1214 0112 03       		.uleb128 0x3
 1215 0113 0E       		.uleb128 0xe
 1216 0114 3A       		.uleb128 0x3a
 1217 0115 0B       		.uleb128 0xb
 1218 0116 3B       		.uleb128 0x3b
 1219 0117 05       		.uleb128 0x5
 1220 0118 27       		.uleb128 0x27
 1221 0119 19       		.uleb128 0x19
 1222 011a 11       		.uleb128 0x11
 1223 011b 01       		.uleb128 0x1
 1224 011c 12       		.uleb128 0x12
ARM GAS  C:\Users\MARTHN~1\AppData\Local\Temp\ccjh9O4t.s 			page 29


 1225 011d 06       		.uleb128 0x6
 1226 011e 40       		.uleb128 0x40
 1227 011f 18       		.uleb128 0x18
 1228 0120 9742     		.uleb128 0x2117
 1229 0122 19       		.uleb128 0x19
 1230 0123 00       		.byte	0
 1231 0124 00       		.byte	0
 1232 0125 15       		.uleb128 0x15
 1233 0126 2E       		.uleb128 0x2e
 1234 0127 01       		.byte	0x1
 1235 0128 3F       		.uleb128 0x3f
 1236 0129 19       		.uleb128 0x19
 1237 012a 03       		.uleb128 0x3
 1238 012b 0E       		.uleb128 0xe
 1239 012c 3A       		.uleb128 0x3a
 1240 012d 0B       		.uleb128 0xb
 1241 012e 3B       		.uleb128 0x3b
 1242 012f 05       		.uleb128 0x5
 1243 0130 27       		.uleb128 0x27
 1244 0131 19       		.uleb128 0x19
 1245 0132 49       		.uleb128 0x49
 1246 0133 13       		.uleb128 0x13
 1247 0134 11       		.uleb128 0x11
 1248 0135 01       		.uleb128 0x1
 1249 0136 12       		.uleb128 0x12
 1250 0137 06       		.uleb128 0x6
 1251 0138 40       		.uleb128 0x40
 1252 0139 18       		.uleb128 0x18
 1253 013a 9742     		.uleb128 0x2117
 1254 013c 19       		.uleb128 0x19
 1255 013d 01       		.uleb128 0x1
 1256 013e 13       		.uleb128 0x13
 1257 013f 00       		.byte	0
 1258 0140 00       		.byte	0
 1259 0141 16       		.uleb128 0x16
 1260 0142 05       		.uleb128 0x5
 1261 0143 00       		.byte	0
 1262 0144 03       		.uleb128 0x3
 1263 0145 0E       		.uleb128 0xe
 1264 0146 3A       		.uleb128 0x3a
 1265 0147 0B       		.uleb128 0xb
 1266 0148 3B       		.uleb128 0x3b
 1267 0149 05       		.uleb128 0x5
 1268 014a 49       		.uleb128 0x49
 1269 014b 13       		.uleb128 0x13
 1270 014c 02       		.uleb128 0x2
 1271 014d 18       		.uleb128 0x18
 1272 014e 00       		.byte	0
 1273 014f 00       		.byte	0
 1274 0150 17       		.uleb128 0x17
 1275 0151 34       		.uleb128 0x34
 1276 0152 00       		.byte	0
 1277 0153 03       		.uleb128 0x3
 1278 0154 0E       		.uleb128 0xe
 1279 0155 3A       		.uleb128 0x3a
 1280 0156 0B       		.uleb128 0xb
 1281 0157 3B       		.uleb128 0x3b
ARM GAS  C:\Users\MARTHN~1\AppData\Local\Temp\ccjh9O4t.s 			page 30


 1282 0158 05       		.uleb128 0x5
 1283 0159 49       		.uleb128 0x49
 1284 015a 13       		.uleb128 0x13
 1285 015b 3F       		.uleb128 0x3f
 1286 015c 19       		.uleb128 0x19
 1287 015d 3C       		.uleb128 0x3c
 1288 015e 19       		.uleb128 0x19
 1289 015f 00       		.byte	0
 1290 0160 00       		.byte	0
 1291 0161 18       		.uleb128 0x18
 1292 0162 35       		.uleb128 0x35
 1293 0163 00       		.byte	0
 1294 0164 49       		.uleb128 0x49
 1295 0165 13       		.uleb128 0x13
 1296 0166 00       		.byte	0
 1297 0167 00       		.byte	0
 1298 0168 00       		.byte	0
 1299              		.section	.debug_aranges,"",%progbits
 1300 0000 34000000 		.4byte	0x34
 1301 0004 0200     		.2byte	0x2
 1302 0006 00000000 		.4byte	.Ldebug_info0
 1303 000a 04       		.byte	0x4
 1304 000b 00       		.byte	0
 1305 000c 0000     		.2byte	0
 1306 000e 0000     		.2byte	0
 1307 0010 00000000 		.4byte	.LFB63
 1308 0014 60000000 		.4byte	.LFE63-.LFB63
 1309 0018 00000000 		.4byte	.LFB64
 1310 001c D8010000 		.4byte	.LFE64-.LFB64
 1311 0020 00000000 		.4byte	.LFB65
 1312 0024 0C000000 		.4byte	.LFE65-.LFB65
 1313 0028 00000000 		.4byte	.LFB66
 1314 002c 4C000000 		.4byte	.LFE66-.LFB66
 1315 0030 00000000 		.4byte	0
 1316 0034 00000000 		.4byte	0
 1317              		.section	.debug_ranges,"",%progbits
 1318              	.Ldebug_ranges0:
 1319 0000 00000000 		.4byte	.LFB63
 1320 0004 60000000 		.4byte	.LFE63
 1321 0008 00000000 		.4byte	.LFB64
 1322 000c D8010000 		.4byte	.LFE64
 1323 0010 00000000 		.4byte	.LFB65
 1324 0014 0C000000 		.4byte	.LFE65
 1325 0018 00000000 		.4byte	.LFB66
 1326 001c 4C000000 		.4byte	.LFE66
 1327 0020 00000000 		.4byte	0
 1328 0024 00000000 		.4byte	0
 1329              		.section	.debug_line,"",%progbits
 1330              	.Ldebug_line0:
 1331 0000 2B020000 		.section	.debug_str,"MS",%progbits,1
 1331      02007801 
 1331      00000201 
 1331      FB0E0D00 
 1331      01010101 
 1332              	.LASF47:
 1333 0000 474E5520 		.ascii	"GNU C11 5.4.1 20160609 (release) [ARM/embedded-5-br"
 1333      43313120 
ARM GAS  C:\Users\MARTHN~1\AppData\Local\Temp\ccjh9O4t.s 			page 31


 1333      352E342E 
 1333      31203230 
 1333      31363036 
 1334 0033 616E6368 		.ascii	"anch revision 237715] -mcpu=cortex-m3 -mthumb -g -O"
 1334      20726576 
 1334      6973696F 
 1334      6E203233 
 1334      37373135 
 1335 0066 30202D66 		.ascii	"0 -ffunction-sections -ffat-lto-objects\000"
 1335      66756E63 
 1335      74696F6E 
 1335      2D736563 
 1335      74696F6E 
 1336              	.LASF40:
 1337 008e 63757272 		.ascii	"currentState\000"
 1337      656E7453 
 1337      74617465 
 1337      00
 1338              	.LASF23:
 1339 009b 52785061 		.ascii	"RxPacket_DLink_S\000"
 1339      636B6574 
 1339      5F444C69 
 1339      6E6B5F53 
 1339      00
 1340              	.LASF9:
 1341 00ac 5F5F696E 		.ascii	"__int32_t\000"
 1341      7433325F 
 1341      7400
 1342              	.LASF54:
 1343 00b6 56657269 		.ascii	"VerifyPacket_115200\000"
 1343      66795061 
 1343      636B6574 
 1343      5F313135 
 1343      32303000 
 1344              	.LASF4:
 1345 00ca 6C6F6E67 		.ascii	"long int\000"
 1345      20696E74 
 1345      00
 1346              	.LASF29:
 1347 00d3 454F505F 		.ascii	"EOP_STATE\000"
 1347      53544154 
 1347      4500
 1348              	.LASF24:
 1349 00dd 44617461 		.ascii	"DataType\000"
 1349      54797065 
 1349      00
 1350              	.LASF14:
 1351 00e6 646F7562 		.ascii	"double\000"
 1351      6C6500
 1352              	.LASF50:
 1353 00ed 72784461 		.ascii	"rxData_DLink_S\000"
 1353      74615F44 
 1353      4C696E6B 
 1353      5F5300
 1354              	.LASF45:
 1355 00fc 7061636B 		.ascii	"packetsuccess\000"
 1355      65747375 
ARM GAS  C:\Users\MARTHN~1\AppData\Local\Temp\ccjh9O4t.s 			page 32


 1355      63636573 
 1355      7300
 1356              	.LASF10:
 1357 010a 696E7433 		.ascii	"int32_t\000"
 1357      325F7400 
 1358              	.LASF22:
 1359 0112 5061796C 		.ascii	"Payload\000"
 1359      6F616400 
 1360              	.LASF13:
 1361 011a 666C6F61 		.ascii	"float\000"
 1361      7400
 1362              	.LASF38:
 1363 0120 74657374 		.ascii	"testbuffer_count\000"
 1363      62756666 
 1363      65725F63 
 1363      6F756E74 
 1363      00
 1364              	.LASF1:
 1365 0131 756E7369 		.ascii	"unsigned char\000"
 1365      676E6564 
 1365      20636861 
 1365      7200
 1366              	.LASF25:
 1367 013f 5061636B 		.ascii	"PacketState\000"
 1367      65745374 
 1367      61746500 
 1368              	.LASF48:
 1369 014b 55415254 		.ascii	"UART_115200_Functions.c\000"
 1369      5F313135 
 1369      3230305F 
 1369      46756E63 
 1369      74696F6E 
 1370              	.LASF5:
 1371 0163 6C6F6E67 		.ascii	"long unsigned int\000"
 1371      20756E73 
 1371      69676E65 
 1371      6420696E 
 1371      7400
 1372              	.LASF3:
 1373 0175 73686F72 		.ascii	"short unsigned int\000"
 1373      7420756E 
 1373      7369676E 
 1373      65642069 
 1373      6E7400
 1374              	.LASF20:
 1375 0188 4475616C 		.ascii	"DualDelay\000"
 1375      44656C61 
 1375      7900
 1376              	.LASF49:
 1377 0192 433A5C55 		.ascii	"C:\\Users\\marthnick\\Desktop\\firm_F1-TestFixture\\"
 1377      73657273 
 1377      5C6D6172 
 1377      74686E69 
 1377      636B5C44 
 1378 01c1 46312D54 		.ascii	"F1-TestFixture.cydsn\000"
 1378      65737446 
 1378      69787475 
ARM GAS  C:\Users\MARTHN~1\AppData\Local\Temp\ccjh9O4t.s 			page 33


 1378      72652E63 
 1378      7964736E 
 1379              	.LASF55:
 1380 01d6 49544D5F 		.ascii	"ITM_RxBuffer\000"
 1380      52784275 
 1380      66666572 
 1380      00
 1381              	.LASF36:
 1382 01e3 64617461 		.ascii	"dataByte\000"
 1382      42797465 
 1382      00
 1383              	.LASF35:
 1384 01ec 5061636B 		.ascii	"Packet\000"
 1384      657400
 1385              	.LASF53:
 1386 01f3 52657365 		.ascii	"ResetPacketSuccess_115200\000"
 1386      74506163 
 1386      6B657453 
 1386      75636365 
 1386      73735F31 
 1387              	.LASF43:
 1388 020d 5061636B 		.ascii	"PacketType\000"
 1388      65745479 
 1388      706500
 1389              	.LASF28:
 1390 0218 5041594C 		.ascii	"PAYLOAD_STATE\000"
 1390      4F41445F 
 1390      53544154 
 1390      4500
 1391              	.LASF39:
 1392 0226 7061636B 		.ascii	"packet\000"
 1392      657400
 1393              	.LASF12:
 1394 022d 75696E74 		.ascii	"uint16\000"
 1394      313600
 1395              	.LASF42:
 1396 0234 63757272 		.ascii	"currentPacketIndex\000"
 1396      656E7450 
 1396      61636B65 
 1396      74496E64 
 1396      657800
 1397              	.LASF8:
 1398 0247 756E7369 		.ascii	"unsigned int\000"
 1398      676E6564 
 1398      20696E74 
 1398      00
 1399              	.LASF7:
 1400 0254 6C6F6E67 		.ascii	"long long unsigned int\000"
 1400      206C6F6E 
 1400      6720756E 
 1400      7369676E 
 1400      65642069 
 1401              	.LASF52:
 1402 026b 64657465 		.ascii	"detectPacket\000"
 1402      63745061 
 1402      636B6574 
 1402      00
ARM GAS  C:\Users\MARTHN~1\AppData\Local\Temp\ccjh9O4t.s 			page 34


 1403              	.LASF33:
 1404 0278 454F505F 		.ascii	"EOP_CARRIAGE_RETURN\000"
 1404      43415252 
 1404      49414745 
 1404      5F524554 
 1404      55524E00 
 1405              	.LASF19:
 1406 028c 53697265 		.ascii	"Siren2Tone\000"
 1406      6E32546F 
 1406      6E6500
 1407              	.LASF46:
 1408 0297 72785061 		.ascii	"rxPacket_DLink_S\000"
 1408      636B6574 
 1408      5F444C69 
 1408      6E6B5F53 
 1408      00
 1409              	.LASF26:
 1410 02a8 52544553 		.ascii	"RTEST_DLINK\000"
 1410      545F444C 
 1410      494E4B00 
 1411              	.LASF37:
 1412 02b4 74657374 		.ascii	"testbuffer\000"
 1412      62756666 
 1412      657200
 1413              	.LASF31:
 1414 02bf 5041434B 		.ascii	"PACKET_TYPE\000"
 1414      45545F54 
 1414      59504500 
 1415              	.LASF17:
 1416 02cb 73697A65 		.ascii	"sizetype\000"
 1416      74797065 
 1416      00
 1417              	.LASF6:
 1418 02d4 6C6F6E67 		.ascii	"long long int\000"
 1418      206C6F6E 
 1418      6720696E 
 1418      7400
 1419              	.LASF15:
 1420 02e2 63686172 		.ascii	"char\000"
 1420      00
 1421              	.LASF30:
 1422 02e7 48454144 		.ascii	"HEADER_BYTE\000"
 1422      45525F42 
 1422      59544500 
 1423              	.LASF41:
 1424 02f3 63757272 		.ascii	"currentType\000"
 1424      656E7454 
 1424      79706500 
 1425              	.LASF34:
 1426 02ff 454F505F 		.ascii	"EOP_LINE_FEED\000"
 1426      4C494E45 
 1426      5F464545 
 1426      4400
 1427              	.LASF2:
 1428 030d 73686F72 		.ascii	"short int\000"
 1428      7420696E 
 1428      7400
ARM GAS  C:\Users\MARTHN~1\AppData\Local\Temp\ccjh9O4t.s 			page 35


 1429              	.LASF11:
 1430 0317 75696E74 		.ascii	"uint8\000"
 1430      3800
 1431              	.LASF51:
 1432 031d 70726F63 		.ascii	"processByteReceivedHandler_115200\000"
 1432      65737342 
 1432      79746552 
 1432      65636569 
 1432      76656448 
 1433              	.LASF18:
 1434 033f 53697265 		.ascii	"Siren1Tone\000"
 1434      6E31546F 
 1434      6E6500
 1435              	.LASF21:
 1436 034a 62797465 		.ascii	"bytes\000"
 1436      7300
 1437              	.LASF16:
 1438 0350 6C6F6E67 		.ascii	"long double\000"
 1438      20646F75 
 1438      626C6500 
 1439              	.LASF0:
 1440 035c 7369676E 		.ascii	"signed char\000"
 1440      65642063 
 1440      68617200 
 1441              	.LASF44:
 1442 0368 5061636B 		.ascii	"PacketList\000"
 1442      65744C69 
 1442      737400
 1443              	.LASF27:
 1444 0373 48454144 		.ascii	"HEADER_STATE\000"
 1444      45525F53 
 1444      54415445 
 1444      00
 1445              	.LASF32:
 1446 0380 5041594C 		.ascii	"PAYLOAD_SIZE\000"
 1446      4F41445F 
 1446      53495A45 
 1446      00
 1447              		.ident	"GCC: (GNU Tools for ARM Embedded Processors) 5.4.1 20160609 (release) [ARM/embedded-5-bran
