ARM GAS  C:\Users\MARTHN~1\AppData\Local\Temp\ccSb3FLu.s 			page 1


   1              		.syntax unified
   2              		.cpu cortex-m3
   3              		.fpu softvfp
   4              		.eabi_attribute 20, 1
   5              		.eabi_attribute 21, 1
   6              		.eabi_attribute 23, 3
   7              		.eabi_attribute 24, 1
   8              		.eabi_attribute 25, 1
   9              		.eabi_attribute 26, 1
  10              		.eabi_attribute 30, 6
  11              		.eabi_attribute 34, 1
  12              		.eabi_attribute 18, 4
  13              		.thumb
  14              		.syntax unified
  15              		.file	"UART_230400_Functions.c"
  16              		.text
  17              	.Ltext0:
  18              		.cfi_sections	.debug_frame
  19              		.data
  20              		.align	2
  21              		.type	PacketList, %object
  22              		.size	PacketList, 20
  23              	PacketList:
  24 0000 7E       		.byte	126
  25 0001 50       		.byte	80
  26 0002 08       		.byte	8
  27 0003 0D       		.byte	13
  28 0004 0A       		.byte	10
  29 0005 7E       		.byte	126
  30 0006 44       		.byte	68
  31 0007 0F       		.byte	15
  32 0008 0D       		.byte	13
  33 0009 0A       		.byte	10
  34 000a 7E       		.byte	126
  35 000b 48       		.byte	72
  36 000c 03       		.byte	3
  37 000d 0D       		.byte	13
  38 000e 0A       		.byte	10
  39 000f 7E       		.byte	126
  40 0010 53       		.byte	83
  41 0011 03       		.byte	3
  42 0012 0D       		.byte	13
  43 0013 0A       		.byte	10
  44              		.bss
  45              		.align	2
  46              	packetsuccess:
  47 0000 00000000 		.space	8
  47      00000000 
  48              		.align	2
  49              	rxPacket_Controller:
  50 0008 00000000 		.space	8
  50      00000000 
  51              		.align	2
  52              	pRxPacket_Controller:
  53 0010 00000000 		.space	4
  54              		.align	2
  55              	rxPacket_Relay:
ARM GAS  C:\Users\MARTHN~1\AppData\Local\Temp\ccSb3FLu.s 			page 2


  56 0014 00000000 		.space	15
  56      00000000 
  56      00000000 
  56      000000
  57 0023 00       		.align	2
  58              	pRxPacket_Relay:
  59 0024 00000000 		.space	4
  60              		.align	2
  61              	txPacket_Relay:
  62 0028 00000000 		.space	5
  62      00
  63 002d 000000   		.align	2
  64              	pTxPacket_Controller:
  65 0030 00000000 		.space	4
  66              		.section	.text.processByteReceivedHandler,"ax",%progbits
  67              		.align	2
  68              		.global	processByteReceivedHandler
  69              		.thumb
  70              		.thumb_func
  71              		.type	processByteReceivedHandler, %function
  72              	processByteReceivedHandler:
  73              	.LFB63:
  74              		.file 1 "UART_230400_Functions.c"
   1:UART_230400_Functions.c **** /* ========================================
   2:UART_230400_Functions.c ****  *
   3:UART_230400_Functions.c ****  * Copyright FENIEX INDUSTRIES, 2016
   4:UART_230400_Functions.c ****  * 200W SIREN
   5:UART_230400_Functions.c ****  *
   6:UART_230400_Functions.c ****  * All Rights Reserved
   7:UART_230400_Functions.c ****  * UNPUBLISHED, LICENSED SOFTWARE.
   8:UART_230400_Functions.c ****  *
   9:UART_230400_Functions.c ****  * CONFIDENTIAL AND PROPRIETARY INFORMATION
  10:UART_230400_Functions.c ****  * WHICH IS THE PROPERTY OF your company.
  11:UART_230400_Functions.c ****  *
  12:UART_230400_Functions.c ****  * ========================================
  13:UART_230400_Functions.c **** */
  14:UART_230400_Functions.c **** 
  15:UART_230400_Functions.c **** /**********CHANGE LOG**********/
  16:UART_230400_Functions.c **** 
  17:UART_230400_Functions.c **** 
  18:UART_230400_Functions.c **** /**********PREPROCESSOR DIRECTIVES**********/
  19:UART_230400_Functions.c **** #include "UART_230400_Functions.h"
  20:UART_230400_Functions.c **** 
  21:UART_230400_Functions.c **** #define HEADER_BYTE_COUNT       2
  22:UART_230400_Functions.c **** #define EOP_BYTE_COUNT          2
  23:UART_230400_Functions.c **** 
  24:UART_230400_Functions.c **** #define HEADER_START_INDEX      0
  25:UART_230400_Functions.c **** #define PAYLOAD_START_INDEX     HEADER_BYTE_COUNT
  26:UART_230400_Functions.c **** 
  27:UART_230400_Functions.c **** #define MAX_PAYLOAD_BYTE_COUNT  15
  28:UART_230400_Functions.c **** #define PACKET_TYPE_COUNT       4
  29:UART_230400_Functions.c **** 
  30:UART_230400_Functions.c **** /**************************************/
  31:UART_230400_Functions.c **** #define PACKET_VERIFICATION_COUNT   5
  32:UART_230400_Functions.c **** 
  33:UART_230400_Functions.c **** /**********DEFINED CONSTANTS**********/
  34:UART_230400_Functions.c **** enum DataType
ARM GAS  C:\Users\MARTHN~1\AppData\Local\Temp\ccSb3FLu.s 			page 3


  35:UART_230400_Functions.c **** { 
  36:UART_230400_Functions.c ****     CTEST_RELAY, 
  37:UART_230400_Functions.c ****     RTEST_CONTROLLER,
  38:UART_230400_Functions.c ****     RTEST_SIREN,
  39:UART_230400_Functions.c ****     STEST_RELAY
  40:UART_230400_Functions.c **** };
  41:UART_230400_Functions.c **** 
  42:UART_230400_Functions.c **** enum PacketState
  43:UART_230400_Functions.c **** {
  44:UART_230400_Functions.c ****     HEADER_STATE,
  45:UART_230400_Functions.c ****     PAYLOAD_STATE,
  46:UART_230400_Functions.c ****     EOP_STATE
  47:UART_230400_Functions.c **** };
  48:UART_230400_Functions.c **** 
  49:UART_230400_Functions.c **** /**********DATA STRUCTURES**********/
  50:UART_230400_Functions.c **** typedef struct
  51:UART_230400_Functions.c **** {
  52:UART_230400_Functions.c ****     const uint8 HEADER_BYTE;
  53:UART_230400_Functions.c ****     const uint8 PACKET_TYPE;
  54:UART_230400_Functions.c ****     const uint8 PAYLOAD_SIZE;
  55:UART_230400_Functions.c ****     const uint8 EOP_CARRIAGE_RETURN;
  56:UART_230400_Functions.c ****     const uint8 EOP_LINE_FEED;
  57:UART_230400_Functions.c **** }Packet;
  58:UART_230400_Functions.c **** 
  59:UART_230400_Functions.c **** static Packet PacketList[PACKET_TYPE_COUNT] = 
  60:UART_230400_Functions.c **** {
  61:UART_230400_Functions.c ****     {'~', 'P', 8, '\r', '\n'},          // CTest - RelayPacket(from Controller)
  62:UART_230400_Functions.c ****     {'~', 'D', 15, '\r', '\n'},         // RTest - RelayPacket(to Controller)
  63:UART_230400_Functions.c ****     {'~', 'H', 3, '\r', '\n'},          // RTest - RelayPacket(from Siren)
  64:UART_230400_Functions.c ****     {'~', 'S', 3, '\r', '\n'},          // STest - SirenPacket(from Relay)
  65:UART_230400_Functions.c **** };
  66:UART_230400_Functions.c **** 
  67:UART_230400_Functions.c **** ///**********GLOBAL VARIABLES**********/
  68:UART_230400_Functions.c **** //static uint16 singlepacketsuccess = 0;
  69:UART_230400_Functions.c **** static uint16 packetsuccess[4] = {0,0,0,0};
  70:UART_230400_Functions.c **** //static uint8 packetsuccess_log[100];
  71:UART_230400_Functions.c **** //static uint8 count = 0;
  72:UART_230400_Functions.c **** 
  73:UART_230400_Functions.c **** //static RxPacket_DL2 rxPacket_DL2;                    
  74:UART_230400_Functions.c **** //static RxPacket_DL2 * pRxPacket_DL2;      
  75:UART_230400_Functions.c **** //static RxPacket rxPacket;            
  76:UART_230400_Functions.c **** //static RxPacket * pRxPacket;       
  77:UART_230400_Functions.c **** 
  78:UART_230400_Functions.c **** static RxPacket_Controller rxPacket_Controller;            
  79:UART_230400_Functions.c **** static RxPacket_Controller * pRxPacket_Controller;  
  80:UART_230400_Functions.c **** 
  81:UART_230400_Functions.c **** static RxPacket_RelaySiren rxPacket_Relay;            
  82:UART_230400_Functions.c **** static RxPacket_RelaySiren * pRxPacket_Relay;  
  83:UART_230400_Functions.c **** 
  84:UART_230400_Functions.c **** static TxPacket_Relay txPacket_Relay;            
  85:UART_230400_Functions.c **** static TxPacket_Controller * pTxPacket_Controller; 
  86:UART_230400_Functions.c **** 
  87:UART_230400_Functions.c **** 
  88:UART_230400_Functions.c **** /**********LOCAL FUNCTION PROTOTYPES**********/
  89:UART_230400_Functions.c **** static void detectPacket(uint8 dataByte);
  90:UART_230400_Functions.c **** 
  91:UART_230400_Functions.c **** /**********DEFINED GLOBAL FUNCTIONS**********/
ARM GAS  C:\Users\MARTHN~1\AppData\Local\Temp\ccSb3FLu.s 			page 4


  92:UART_230400_Functions.c **** 
  93:UART_230400_Functions.c **** //RxPacket_DL2 * getRxPacket_DL2(void)
  94:UART_230400_Functions.c **** //{
  95:UART_230400_Functions.c **** //    pRxPacket_DL2 = &rxPacket_DL2;
  96:UART_230400_Functions.c **** //    
  97:UART_230400_Functions.c **** //    return pRxPacket_DL2;
  98:UART_230400_Functions.c **** //}
  99:UART_230400_Functions.c **** 
 100:UART_230400_Functions.c **** //RxPacket * getRxPacket(void)
 101:UART_230400_Functions.c **** //{
 102:UART_230400_Functions.c **** //    pRxPacket = &rxPacket;
 103:UART_230400_Functions.c **** //    
 104:UART_230400_Functions.c **** //    return pRxPacket;
 105:UART_230400_Functions.c **** //}
 106:UART_230400_Functions.c **** 
 107:UART_230400_Functions.c **** /*******************************************************************************
 108:UART_230400_Functions.c **** * Function Name: processByteReceivedHandler
 109:UART_230400_Functions.c **** ********************************************************************************
 110:UART_230400_Functions.c **** *
 111:UART_230400_Functions.c **** * Summary:
 112:UART_230400_Functions.c **** *  Triggers when a byte is received in UART, called in UART_ISR(). If in voice
 113:UART_230400_Functions.c **** *  stream mode, the byte is sent directly to the DAC.
 114:UART_230400_Functions.c **** *
 115:UART_230400_Functions.c **** * Parameters:
 116:UART_230400_Functions.c **** *  None.
 117:UART_230400_Functions.c **** *
 118:UART_230400_Functions.c **** * Return:
 119:UART_230400_Functions.c **** *  None.
 120:UART_230400_Functions.c **** *
 121:UART_230400_Functions.c **** *******************************************************************************/
 122:UART_230400_Functions.c **** void processByteReceivedHandler(void)
 123:UART_230400_Functions.c **** {
  75              		.loc 1 123 0
  76              		.cfi_startproc
  77              		@ args = 0, pretend = 0, frame = 8
  78              		@ frame_needed = 1, uses_anonymous_args = 0
  79 0000 80B5     		push	{r7, lr}
  80              		.cfi_def_cfa_offset 8
  81              		.cfi_offset 7, -8
  82              		.cfi_offset 14, -4
  83 0002 82B0     		sub	sp, sp, #8
  84              		.cfi_def_cfa_offset 16
  85 0004 00AF     		add	r7, sp, #0
  86              		.cfi_def_cfa_register 7
 124:UART_230400_Functions.c ****     uint8 dataByte = 0;
  87              		.loc 1 124 0
  88 0006 0023     		movs	r3, #0
  89 0008 FB71     		strb	r3, [r7, #7]
  90              	.L3:
 125:UART_230400_Functions.c ****     
 126:UART_230400_Functions.c ****     static uint8 testbuffer[100];
 127:UART_230400_Functions.c ****     static uint8 testbuffer_count = 0;
 128:UART_230400_Functions.c ****     
 129:UART_230400_Functions.c ****     do
 130:UART_230400_Functions.c ****     {
 131:UART_230400_Functions.c ****         dataByte = UART_230400_GetChar();
  91              		.loc 1 131 0
ARM GAS  C:\Users\MARTHN~1\AppData\Local\Temp\ccSb3FLu.s 			page 5


  92 000a FFF7FEFF 		bl	UART_230400_GetChar
  93 000e 0346     		mov	r3, r0
  94 0010 FB71     		strb	r3, [r7, #7]
 132:UART_230400_Functions.c ****         
 133:UART_230400_Functions.c ****         testbuffer[testbuffer_count] = dataByte;
  95              		.loc 1 133 0
  96 0012 114B     		ldr	r3, .L4
  97 0014 1B78     		ldrb	r3, [r3]	@ zero_extendqisi2
  98 0016 1946     		mov	r1, r3
  99 0018 104A     		ldr	r2, .L4+4
 100 001a FB79     		ldrb	r3, [r7, #7]
 101 001c 5354     		strb	r3, [r2, r1]
 134:UART_230400_Functions.c ****         testbuffer_count++;
 102              		.loc 1 134 0
 103 001e 0E4B     		ldr	r3, .L4
 104 0020 1B78     		ldrb	r3, [r3]	@ zero_extendqisi2
 105 0022 0133     		adds	r3, r3, #1
 106 0024 DAB2     		uxtb	r2, r3
 107 0026 0C4B     		ldr	r3, .L4
 108 0028 1A70     		strb	r2, [r3]
 135:UART_230400_Functions.c ****         if(testbuffer_count >= 100)
 109              		.loc 1 135 0
 110 002a 0B4B     		ldr	r3, .L4
 111 002c 1B78     		ldrb	r3, [r3]	@ zero_extendqisi2
 112 002e 632B     		cmp	r3, #99
 113 0030 02D9     		bls	.L2
 136:UART_230400_Functions.c ****             testbuffer_count = 0;
 114              		.loc 1 136 0
 115 0032 094B     		ldr	r3, .L4
 116 0034 0022     		movs	r2, #0
 117 0036 1A70     		strb	r2, [r3]
 118              	.L2:
 137:UART_230400_Functions.c ****         
 138:UART_230400_Functions.c ****         detectPacket(dataByte);
 119              		.loc 1 138 0
 120 0038 FB79     		ldrb	r3, [r7, #7]	@ zero_extendqisi2
 121 003a 1846     		mov	r0, r3
 122 003c FFF7FEFF 		bl	detectPacket
 139:UART_230400_Functions.c ****         
 140:UART_230400_Functions.c ****     }while(UART_230400_ReadRxStatus() & UART_230400_RX_STS_FIFO_NOTEMPTY);
 123              		.loc 1 140 0
 124 0040 FFF7FEFF 		bl	UART_230400_ReadRxStatus
 125 0044 0346     		mov	r3, r0
 126 0046 03F02003 		and	r3, r3, #32
 127 004a 002B     		cmp	r3, #0
 128 004c DDD1     		bne	.L3
 141:UART_230400_Functions.c ****     
 142:UART_230400_Functions.c ****     //UART_Timer_Start();
 143:UART_230400_Functions.c **** }
 129              		.loc 1 143 0
 130 004e 00BF     		nop
 131 0050 0837     		adds	r7, r7, #8
 132              		.cfi_def_cfa_offset 8
 133 0052 BD46     		mov	sp, r7
 134              		.cfi_def_cfa_register 13
 135              		@ sp needed
 136 0054 80BD     		pop	{r7, pc}
ARM GAS  C:\Users\MARTHN~1\AppData\Local\Temp\ccSb3FLu.s 			page 6


 137              	.L5:
 138 0056 00BF     		.align	2
 139              	.L4:
 140 0058 34000000 		.word	testbuffer_count.6203
 141 005c 38000000 		.word	testbuffer.6202
 142              		.cfi_endproc
 143              	.LFE63:
 144              		.size	processByteReceivedHandler, .-processByteReceivedHandler
 145              		.section	.text.detectPacket,"ax",%progbits
 146              		.align	2
 147              		.thumb
 148              		.thumb_func
 149              		.type	detectPacket, %function
 150              	detectPacket:
 151              	.LFB64:
 144:UART_230400_Functions.c **** 
 145:UART_230400_Functions.c **** 
 146:UART_230400_Functions.c **** /**********DEFINED LOCAL FUNCTIONS**********/
 147:UART_230400_Functions.c **** /*******************************************************************************
 148:UART_230400_Functions.c **** * Function Name: detectPacket
 149:UART_230400_Functions.c **** ********************************************************************************
 150:UART_230400_Functions.c **** *
 151:UART_230400_Functions.c **** * Summary:
 152:UART_230400_Functions.c **** *  Determines if the incoming byte belongs to a valid packet. If the packet is for
 153:UART_230400_Functions.c **** *  for starting voice stream, voice stream mode will be activated.
 154:UART_230400_Functions.c **** *
 155:UART_230400_Functions.c **** * Parameters:
 156:UART_230400_Functions.c **** *  dataByte: The byte to check
 157:UART_230400_Functions.c **** *
 158:UART_230400_Functions.c **** * Return:
 159:UART_230400_Functions.c **** *  None.
 160:UART_230400_Functions.c **** *
 161:UART_230400_Functions.c **** *******************************************************************************/
 162:UART_230400_Functions.c **** static void detectPacket(uint8 dataByte)
 163:UART_230400_Functions.c **** {
 152              		.loc 1 163 0
 153              		.cfi_startproc
 154              		@ args = 0, pretend = 0, frame = 8
 155              		@ frame_needed = 1, uses_anonymous_args = 0
 156 0000 80B5     		push	{r7, lr}
 157              		.cfi_def_cfa_offset 8
 158              		.cfi_offset 7, -8
 159              		.cfi_offset 14, -4
 160 0002 82B0     		sub	sp, sp, #8
 161              		.cfi_def_cfa_offset 16
 162 0004 00AF     		add	r7, sp, #0
 163              		.cfi_def_cfa_register 7
 164 0006 0346     		mov	r3, r0
 165 0008 FB71     		strb	r3, [r7, #7]
 164:UART_230400_Functions.c ****     static uint8 packet[MAX_PAYLOAD_BYTE_COUNT+HEADER_BYTE_COUNT+EOP_BYTE_COUNT];   
 165:UART_230400_Functions.c ****     static enum PacketState currentState = HEADER_STATE;
 166:UART_230400_Functions.c ****     static enum DataType currentType = CTEST_RELAY;
 167:UART_230400_Functions.c ****     static uint8 currentPacketIndex = HEADER_START_INDEX;
 168:UART_230400_Functions.c ****     
 169:UART_230400_Functions.c ****     switch(currentState)
 166              		.loc 1 169 0
 167 000a 9E4B     		ldr	r3, .L30
ARM GAS  C:\Users\MARTHN~1\AppData\Local\Temp\ccSb3FLu.s 			page 7


 168 000c 1B78     		ldrb	r3, [r3]	@ zero_extendqisi2
 169 000e 012B     		cmp	r3, #1
 170 0010 78D0     		beq	.L8
 171 0012 022B     		cmp	r3, #2
 172 0014 00F09780 		beq	.L9
 173 0018 002B     		cmp	r3, #0
 174 001a 00D0     		beq	.L10
 170:UART_230400_Functions.c ****     {
 171:UART_230400_Functions.c ****         case HEADER_STATE:
 172:UART_230400_Functions.c ****             if((currentPacketIndex == HEADER_START_INDEX) && ( (dataByte == PacketList[CTEST_RELAY]
 173:UART_230400_Functions.c ****                                                                (dataByte == PacketList[RTEST_CONTRO
 174:UART_230400_Functions.c ****                                                                (dataByte == PacketList[RTEST_SIREN]
 175:UART_230400_Functions.c ****                                                                (dataByte == PacketList[STEST_RELAY]
 176:UART_230400_Functions.c ****             {
 177:UART_230400_Functions.c ****                 packet[currentPacketIndex] = dataByte;
 178:UART_230400_Functions.c ****                 currentPacketIndex++;
 179:UART_230400_Functions.c ****             }
 180:UART_230400_Functions.c ****             else if((currentPacketIndex == (HEADER_START_INDEX+1)) && ( (dataByte == PacketList[CTE
 181:UART_230400_Functions.c ****                                                                         (dataByte == PacketList[RTE
 182:UART_230400_Functions.c ****                                                                         (dataByte == PacketList[RTE
 183:UART_230400_Functions.c ****                                                                         (dataByte == PacketList[STE
 184:UART_230400_Functions.c ****             {
 185:UART_230400_Functions.c ****                 packet[currentPacketIndex] = dataByte;
 186:UART_230400_Functions.c ****                 currentPacketIndex++;
 187:UART_230400_Functions.c ****                 currentState = PAYLOAD_STATE;
 188:UART_230400_Functions.c ****                 
 189:UART_230400_Functions.c ****                 if(dataByte == PacketList[RTEST_CONTROLLER].PACKET_TYPE)
 190:UART_230400_Functions.c ****                     currentType = RTEST_CONTROLLER;
 191:UART_230400_Functions.c ****                 else if(dataByte == PacketList[RTEST_SIREN].PACKET_TYPE)
 192:UART_230400_Functions.c ****                     currentType = RTEST_SIREN;
 193:UART_230400_Functions.c ****                 else if(dataByte == PacketList[STEST_RELAY].PACKET_TYPE)
 194:UART_230400_Functions.c ****                     currentType = STEST_RELAY;
 195:UART_230400_Functions.c ****                 else
 196:UART_230400_Functions.c ****                     currentType = CTEST_RELAY;
 197:UART_230400_Functions.c ****             }
 198:UART_230400_Functions.c ****             else
 199:UART_230400_Functions.c ****             {
 200:UART_230400_Functions.c ****                 currentPacketIndex = HEADER_START_INDEX;
 201:UART_230400_Functions.c ****                 currentType = CTEST_RELAY;
 202:UART_230400_Functions.c ****             }
 203:UART_230400_Functions.c ****             break;
 204:UART_230400_Functions.c ****             
 205:UART_230400_Functions.c ****         case PAYLOAD_STATE:
 206:UART_230400_Functions.c ****             packet[currentPacketIndex] = dataByte;
 207:UART_230400_Functions.c ****             currentPacketIndex++;
 208:UART_230400_Functions.c ****             
 209:UART_230400_Functions.c ****             if(currentPacketIndex >= (PAYLOAD_START_INDEX + PacketList[currentType].PAYLOAD_SIZE))
 210:UART_230400_Functions.c ****                 currentState = EOP_STATE;
 211:UART_230400_Functions.c ****             break;   
 212:UART_230400_Functions.c ****             
 213:UART_230400_Functions.c ****         case EOP_STATE:
 214:UART_230400_Functions.c ****             if((currentPacketIndex == (PAYLOAD_START_INDEX + PacketList[currentType].PAYLOAD_SIZE))
 215:UART_230400_Functions.c ****                 (dataByte == PacketList[currentType].EOP_CARRIAGE_RETURN))
 216:UART_230400_Functions.c ****             {
 217:UART_230400_Functions.c ****                 packet[currentPacketIndex] = dataByte;
 218:UART_230400_Functions.c ****                 currentPacketIndex++;
 219:UART_230400_Functions.c ****             }
ARM GAS  C:\Users\MARTHN~1\AppData\Local\Temp\ccSb3FLu.s 			page 8


 220:UART_230400_Functions.c ****             else if((currentPacketIndex == (PAYLOAD_START_INDEX + PacketList[currentType].PAYLOAD_S
 221:UART_230400_Functions.c ****                 (dataByte == PacketList[currentType].EOP_LINE_FEED))
 222:UART_230400_Functions.c ****             {
 223:UART_230400_Functions.c ****                 packet[currentPacketIndex] = dataByte;
 224:UART_230400_Functions.c ****                               
 225:UART_230400_Functions.c ****                 if(currentType == CTEST_RELAY)
 226:UART_230400_Functions.c ****                 {
 227:UART_230400_Functions.c ****                    pRxPacket_Controller = getRxPacket_Controller();
 228:UART_230400_Functions.c ****                    memcpy(&pRxPacket_Controller->bytes[0], &packet[2], PacketList[CTEST_RELAY].PAYL
 229:UART_230400_Functions.c ****                     packetsuccess[CTEST_RELAY]++;   
 230:UART_230400_Functions.c ****                 }
 231:UART_230400_Functions.c ****                 else if(currentType == RTEST_CONTROLLER)
 232:UART_230400_Functions.c ****                 {
 233:UART_230400_Functions.c ****                    pRxPacket_Relay = getRxPacket_Relay();
 234:UART_230400_Functions.c ****                    memcpy(&pRxPacket_Relay->bytes[0], &packet[2], PacketList[RTEST_CONTROLLER].PAYL
 235:UART_230400_Functions.c ****                    packetsuccess[RTEST_CONTROLLER]++;   
 236:UART_230400_Functions.c ****                 }
 237:UART_230400_Functions.c ****                 else if(currentType == RTEST_SIREN)
 238:UART_230400_Functions.c ****                    packetsuccess[RTEST_SIREN]++;
 239:UART_230400_Functions.c ****                 else if(currentType == STEST_RELAY)
 240:UART_230400_Functions.c ****                    packetsuccess[STEST_RELAY]++;
 241:UART_230400_Functions.c **** 
 242:UART_230400_Functions.c **** 
 243:UART_230400_Functions.c **** //                if(packetsuccess[0] > 1000)
 244:UART_230400_Functions.c **** //                    packetsuccess[0] = 0;
 245:UART_230400_Functions.c **** //                if(packetsuccess[2] > 1000)
 246:UART_230400_Functions.c **** //                    packetsuccess[2] = 0;
 247:UART_230400_Functions.c **** 
 248:UART_230400_Functions.c **** //                if(count >= 50)
 249:UART_230400_Functions.c **** //                    packetsuccess[2] = 0;
 250:UART_230400_Functions.c **** //                if(count == 0)
 251:UART_230400_Functions.c **** //                    packetsuccess[2] = 0;
 252:UART_230400_Functions.c ****                 
 253:UART_230400_Functions.c ****                 currentPacketIndex = HEADER_START_INDEX;
 254:UART_230400_Functions.c ****                 currentState = HEADER_STATE;
 255:UART_230400_Functions.c ****                 currentType = CTEST_RELAY;
 256:UART_230400_Functions.c ****             }
 257:UART_230400_Functions.c ****             else
 258:UART_230400_Functions.c ****             {
 259:UART_230400_Functions.c ****                 currentPacketIndex = HEADER_START_INDEX;
 260:UART_230400_Functions.c ****                 currentState = HEADER_STATE;
 261:UART_230400_Functions.c ****                 currentType = CTEST_RELAY;
 262:UART_230400_Functions.c ****             }
 263:UART_230400_Functions.c ****             break;
 264:UART_230400_Functions.c ****     }
 265:UART_230400_Functions.c **** }
 175              		.loc 1 265 0
 176 001c 50E1     		b	.L29
 177              	.L10:
 172:UART_230400_Functions.c ****                                                                (dataByte == PacketList[RTEST_CONTRO
 178              		.loc 1 172 0
 179 001e 9A4B     		ldr	r3, .L30+4
 180 0020 1B78     		ldrb	r3, [r3]	@ zero_extendqisi2
 181 0022 002B     		cmp	r3, #0
 182 0024 20D1     		bne	.L11
 172:UART_230400_Functions.c ****                                                                (dataByte == PacketList[RTEST_CONTRO
 183              		.loc 1 172 0 is_stmt 0 discriminator 1
ARM GAS  C:\Users\MARTHN~1\AppData\Local\Temp\ccSb3FLu.s 			page 9


 184 0026 994B     		ldr	r3, .L30+8
 185 0028 1B78     		ldrb	r3, [r3]	@ zero_extendqisi2
 186 002a FA79     		ldrb	r2, [r7, #7]	@ zero_extendqisi2
 187 002c 9A42     		cmp	r2, r3
 188 002e 0ED0     		beq	.L12
 173:UART_230400_Functions.c ****                                                                (dataByte == PacketList[RTEST_SIREN]
 189              		.loc 1 173 0 is_stmt 1 discriminator 2
 190 0030 964B     		ldr	r3, .L30+8
 191 0032 5B79     		ldrb	r3, [r3, #5]	@ zero_extendqisi2
 172:UART_230400_Functions.c ****                                                                (dataByte == PacketList[RTEST_CONTRO
 192              		.loc 1 172 0 discriminator 2
 193 0034 FA79     		ldrb	r2, [r7, #7]	@ zero_extendqisi2
 194 0036 9A42     		cmp	r2, r3
 195 0038 09D0     		beq	.L12
 174:UART_230400_Functions.c ****                                                                (dataByte == PacketList[STEST_RELAY]
 196              		.loc 1 174 0
 197 003a 944B     		ldr	r3, .L30+8
 198 003c 9B7A     		ldrb	r3, [r3, #10]	@ zero_extendqisi2
 173:UART_230400_Functions.c ****                                                                (dataByte == PacketList[RTEST_SIREN]
 199              		.loc 1 173 0
 200 003e FA79     		ldrb	r2, [r7, #7]	@ zero_extendqisi2
 201 0040 9A42     		cmp	r2, r3
 202 0042 04D0     		beq	.L12
 175:UART_230400_Functions.c ****             {
 203              		.loc 1 175 0
 204 0044 914B     		ldr	r3, .L30+8
 205 0046 DB7B     		ldrb	r3, [r3, #15]	@ zero_extendqisi2
 174:UART_230400_Functions.c ****                                                                (dataByte == PacketList[STEST_RELAY]
 206              		.loc 1 174 0
 207 0048 FA79     		ldrb	r2, [r7, #7]	@ zero_extendqisi2
 208 004a 9A42     		cmp	r2, r3
 209 004c 0CD1     		bne	.L11
 210              	.L12:
 177:UART_230400_Functions.c ****                 currentPacketIndex++;
 211              		.loc 1 177 0
 212 004e 8E4B     		ldr	r3, .L30+4
 213 0050 1B78     		ldrb	r3, [r3]	@ zero_extendqisi2
 214 0052 1946     		mov	r1, r3
 215 0054 8E4A     		ldr	r2, .L30+12
 216 0056 FB79     		ldrb	r3, [r7, #7]
 217 0058 5354     		strb	r3, [r2, r1]
 178:UART_230400_Functions.c ****             }
 218              		.loc 1 178 0
 219 005a 8B4B     		ldr	r3, .L30+4
 220 005c 1B78     		ldrb	r3, [r3]	@ zero_extendqisi2
 221 005e 0133     		adds	r3, r3, #1
 222 0060 DAB2     		uxtb	r2, r3
 223 0062 894B     		ldr	r3, .L30+4
 224 0064 1A70     		strb	r2, [r3]
 225 0066 4CE0     		b	.L13
 226              	.L11:
 180:UART_230400_Functions.c ****                                                                         (dataByte == PacketList[RTE
 227              		.loc 1 180 0
 228 0068 874B     		ldr	r3, .L30+4
 229 006a 1B78     		ldrb	r3, [r3]	@ zero_extendqisi2
 230 006c 012B     		cmp	r3, #1
 231 006e 41D1     		bne	.L14
ARM GAS  C:\Users\MARTHN~1\AppData\Local\Temp\ccSb3FLu.s 			page 10


 180:UART_230400_Functions.c ****                                                                         (dataByte == PacketList[RTE
 232              		.loc 1 180 0 is_stmt 0 discriminator 1
 233 0070 864B     		ldr	r3, .L30+8
 234 0072 5B78     		ldrb	r3, [r3, #1]	@ zero_extendqisi2
 235 0074 FA79     		ldrb	r2, [r7, #7]	@ zero_extendqisi2
 236 0076 9A42     		cmp	r2, r3
 237 0078 0ED0     		beq	.L15
 181:UART_230400_Functions.c ****                                                                         (dataByte == PacketList[RTE
 238              		.loc 1 181 0 is_stmt 1 discriminator 2
 239 007a 844B     		ldr	r3, .L30+8
 240 007c 9B79     		ldrb	r3, [r3, #6]	@ zero_extendqisi2
 180:UART_230400_Functions.c ****                                                                         (dataByte == PacketList[RTE
 241              		.loc 1 180 0 discriminator 2
 242 007e FA79     		ldrb	r2, [r7, #7]	@ zero_extendqisi2
 243 0080 9A42     		cmp	r2, r3
 244 0082 09D0     		beq	.L15
 182:UART_230400_Functions.c ****                                                                         (dataByte == PacketList[STE
 245              		.loc 1 182 0
 246 0084 814B     		ldr	r3, .L30+8
 247 0086 DB7A     		ldrb	r3, [r3, #11]	@ zero_extendqisi2
 181:UART_230400_Functions.c ****                                                                         (dataByte == PacketList[RTE
 248              		.loc 1 181 0
 249 0088 FA79     		ldrb	r2, [r7, #7]	@ zero_extendqisi2
 250 008a 9A42     		cmp	r2, r3
 251 008c 04D0     		beq	.L15
 183:UART_230400_Functions.c ****             {
 252              		.loc 1 183 0
 253 008e 7F4B     		ldr	r3, .L30+8
 254 0090 1B7C     		ldrb	r3, [r3, #16]	@ zero_extendqisi2
 182:UART_230400_Functions.c ****                                                                         (dataByte == PacketList[STE
 255              		.loc 1 182 0
 256 0092 FA79     		ldrb	r2, [r7, #7]	@ zero_extendqisi2
 257 0094 9A42     		cmp	r2, r3
 258 0096 2DD1     		bne	.L14
 259              	.L15:
 185:UART_230400_Functions.c ****                 currentPacketIndex++;
 260              		.loc 1 185 0
 261 0098 7B4B     		ldr	r3, .L30+4
 262 009a 1B78     		ldrb	r3, [r3]	@ zero_extendqisi2
 263 009c 1946     		mov	r1, r3
 264 009e 7C4A     		ldr	r2, .L30+12
 265 00a0 FB79     		ldrb	r3, [r7, #7]
 266 00a2 5354     		strb	r3, [r2, r1]
 186:UART_230400_Functions.c ****                 currentState = PAYLOAD_STATE;
 267              		.loc 1 186 0
 268 00a4 784B     		ldr	r3, .L30+4
 269 00a6 1B78     		ldrb	r3, [r3]	@ zero_extendqisi2
 270 00a8 0133     		adds	r3, r3, #1
 271 00aa DAB2     		uxtb	r2, r3
 272 00ac 764B     		ldr	r3, .L30+4
 273 00ae 1A70     		strb	r2, [r3]
 187:UART_230400_Functions.c ****                 
 274              		.loc 1 187 0
 275 00b0 744B     		ldr	r3, .L30
 276 00b2 0122     		movs	r2, #1
 277 00b4 1A70     		strb	r2, [r3]
 189:UART_230400_Functions.c ****                     currentType = RTEST_CONTROLLER;
ARM GAS  C:\Users\MARTHN~1\AppData\Local\Temp\ccSb3FLu.s 			page 11


 278              		.loc 1 189 0
 279 00b6 754B     		ldr	r3, .L30+8
 280 00b8 9B79     		ldrb	r3, [r3, #6]	@ zero_extendqisi2
 281 00ba FA79     		ldrb	r2, [r7, #7]	@ zero_extendqisi2
 282 00bc 9A42     		cmp	r2, r3
 283 00be 03D1     		bne	.L16
 190:UART_230400_Functions.c ****                 else if(dataByte == PacketList[RTEST_SIREN].PACKET_TYPE)
 284              		.loc 1 190 0
 285 00c0 744B     		ldr	r3, .L30+16
 286 00c2 0122     		movs	r2, #1
 287 00c4 1A70     		strb	r2, [r3]
 189:UART_230400_Functions.c ****                     currentType = RTEST_CONTROLLER;
 288              		.loc 1 189 0
 289 00c6 1CE0     		b	.L13
 290              	.L16:
 191:UART_230400_Functions.c ****                     currentType = RTEST_SIREN;
 291              		.loc 1 191 0
 292 00c8 704B     		ldr	r3, .L30+8
 293 00ca DB7A     		ldrb	r3, [r3, #11]	@ zero_extendqisi2
 294 00cc FA79     		ldrb	r2, [r7, #7]	@ zero_extendqisi2
 295 00ce 9A42     		cmp	r2, r3
 296 00d0 03D1     		bne	.L18
 192:UART_230400_Functions.c ****                 else if(dataByte == PacketList[STEST_RELAY].PACKET_TYPE)
 297              		.loc 1 192 0
 298 00d2 704B     		ldr	r3, .L30+16
 299 00d4 0222     		movs	r2, #2
 300 00d6 1A70     		strb	r2, [r3]
 189:UART_230400_Functions.c ****                     currentType = RTEST_CONTROLLER;
 301              		.loc 1 189 0
 302 00d8 13E0     		b	.L13
 303              	.L18:
 193:UART_230400_Functions.c ****                     currentType = STEST_RELAY;
 304              		.loc 1 193 0
 305 00da 6C4B     		ldr	r3, .L30+8
 306 00dc 1B7C     		ldrb	r3, [r3, #16]	@ zero_extendqisi2
 307 00de FA79     		ldrb	r2, [r7, #7]	@ zero_extendqisi2
 308 00e0 9A42     		cmp	r2, r3
 309 00e2 03D1     		bne	.L19
 194:UART_230400_Functions.c ****                 else
 310              		.loc 1 194 0
 311 00e4 6B4B     		ldr	r3, .L30+16
 312 00e6 0322     		movs	r2, #3
 313 00e8 1A70     		strb	r2, [r3]
 189:UART_230400_Functions.c ****                     currentType = RTEST_CONTROLLER;
 314              		.loc 1 189 0
 315 00ea 0AE0     		b	.L13
 316              	.L19:
 196:UART_230400_Functions.c ****             }
 317              		.loc 1 196 0
 318 00ec 694B     		ldr	r3, .L30+16
 319 00ee 0022     		movs	r2, #0
 320 00f0 1A70     		strb	r2, [r3]
 189:UART_230400_Functions.c ****                     currentType = RTEST_CONTROLLER;
 321              		.loc 1 189 0
 322 00f2 06E0     		b	.L13
 323              	.L14:
 200:UART_230400_Functions.c ****                 currentType = CTEST_RELAY;
ARM GAS  C:\Users\MARTHN~1\AppData\Local\Temp\ccSb3FLu.s 			page 12


 324              		.loc 1 200 0
 325 00f4 644B     		ldr	r3, .L30+4
 326 00f6 0022     		movs	r2, #0
 327 00f8 1A70     		strb	r2, [r3]
 201:UART_230400_Functions.c ****             }
 328              		.loc 1 201 0
 329 00fa 664B     		ldr	r3, .L30+16
 330 00fc 0022     		movs	r2, #0
 331 00fe 1A70     		strb	r2, [r3]
 203:UART_230400_Functions.c ****             
 332              		.loc 1 203 0
 333 0100 DEE0     		b	.L7
 334              	.L13:
 203:UART_230400_Functions.c ****             
 335              		.loc 1 203 0 is_stmt 0 discriminator 1
 336 0102 DDE0     		b	.L7
 337              	.L8:
 206:UART_230400_Functions.c ****             currentPacketIndex++;
 338              		.loc 1 206 0 is_stmt 1
 339 0104 604B     		ldr	r3, .L30+4
 340 0106 1B78     		ldrb	r3, [r3]	@ zero_extendqisi2
 341 0108 1946     		mov	r1, r3
 342 010a 614A     		ldr	r2, .L30+12
 343 010c FB79     		ldrb	r3, [r7, #7]
 344 010e 5354     		strb	r3, [r2, r1]
 207:UART_230400_Functions.c ****             
 345              		.loc 1 207 0
 346 0110 5D4B     		ldr	r3, .L30+4
 347 0112 1B78     		ldrb	r3, [r3]	@ zero_extendqisi2
 348 0114 0133     		adds	r3, r3, #1
 349 0116 DAB2     		uxtb	r2, r3
 350 0118 5B4B     		ldr	r3, .L30+4
 351 011a 1A70     		strb	r2, [r3]
 209:UART_230400_Functions.c ****                 currentState = EOP_STATE;
 352              		.loc 1 209 0
 353 011c 5A4B     		ldr	r3, .L30+4
 354 011e 1B78     		ldrb	r3, [r3]	@ zero_extendqisi2
 355 0120 1846     		mov	r0, r3
 356 0122 5C4B     		ldr	r3, .L30+16
 357 0124 1B78     		ldrb	r3, [r3]	@ zero_extendqisi2
 358 0126 1946     		mov	r1, r3
 359 0128 584A     		ldr	r2, .L30+8
 360 012a 0B46     		mov	r3, r1
 361 012c 9B00     		lsls	r3, r3, #2
 362 012e 0B44     		add	r3, r3, r1
 363 0130 1344     		add	r3, r3, r2
 364 0132 0233     		adds	r3, r3, #2
 365 0134 1B78     		ldrb	r3, [r3]	@ zero_extendqisi2
 366 0136 0233     		adds	r3, r3, #2
 367 0138 9842     		cmp	r0, r3
 368 013a C0F2C080 		blt	.L28
 210:UART_230400_Functions.c ****             break;   
 369              		.loc 1 210 0
 370 013e 514B     		ldr	r3, .L30
 371 0140 0222     		movs	r2, #2
 372 0142 1A70     		strb	r2, [r3]
 211:UART_230400_Functions.c ****             
ARM GAS  C:\Users\MARTHN~1\AppData\Local\Temp\ccSb3FLu.s 			page 13


 373              		.loc 1 211 0
 374 0144 BBE0     		b	.L28
 375              	.L9:
 214:UART_230400_Functions.c ****                 (dataByte == PacketList[currentType].EOP_CARRIAGE_RETURN))
 376              		.loc 1 214 0
 377 0146 504B     		ldr	r3, .L30+4
 378 0148 1B78     		ldrb	r3, [r3]	@ zero_extendqisi2
 379 014a 1846     		mov	r0, r3
 380 014c 514B     		ldr	r3, .L30+16
 381 014e 1B78     		ldrb	r3, [r3]	@ zero_extendqisi2
 382 0150 1946     		mov	r1, r3
 383 0152 4E4A     		ldr	r2, .L30+8
 384 0154 0B46     		mov	r3, r1
 385 0156 9B00     		lsls	r3, r3, #2
 386 0158 0B44     		add	r3, r3, r1
 387 015a 1344     		add	r3, r3, r2
 388 015c 0233     		adds	r3, r3, #2
 389 015e 1B78     		ldrb	r3, [r3]	@ zero_extendqisi2
 390 0160 0233     		adds	r3, r3, #2
 391 0162 9842     		cmp	r0, r3
 392 0164 19D1     		bne	.L21
 215:UART_230400_Functions.c ****             {
 393              		.loc 1 215 0 discriminator 1
 394 0166 4B4B     		ldr	r3, .L30+16
 395 0168 1B78     		ldrb	r3, [r3]	@ zero_extendqisi2
 396 016a 1946     		mov	r1, r3
 397 016c 474A     		ldr	r2, .L30+8
 398 016e 0B46     		mov	r3, r1
 399 0170 9B00     		lsls	r3, r3, #2
 400 0172 0B44     		add	r3, r3, r1
 401 0174 1344     		add	r3, r3, r2
 402 0176 0333     		adds	r3, r3, #3
 403 0178 1B78     		ldrb	r3, [r3]	@ zero_extendqisi2
 214:UART_230400_Functions.c ****                 (dataByte == PacketList[currentType].EOP_CARRIAGE_RETURN))
 404              		.loc 1 214 0 discriminator 1
 405 017a FA79     		ldrb	r2, [r7, #7]	@ zero_extendqisi2
 406 017c 9A42     		cmp	r2, r3
 407 017e 0CD1     		bne	.L21
 217:UART_230400_Functions.c ****                 currentPacketIndex++;
 408              		.loc 1 217 0
 409 0180 414B     		ldr	r3, .L30+4
 410 0182 1B78     		ldrb	r3, [r3]	@ zero_extendqisi2
 411 0184 1946     		mov	r1, r3
 412 0186 424A     		ldr	r2, .L30+12
 413 0188 FB79     		ldrb	r3, [r7, #7]
 414 018a 5354     		strb	r3, [r2, r1]
 218:UART_230400_Functions.c ****             }
 415              		.loc 1 218 0
 416 018c 3E4B     		ldr	r3, .L30+4
 417 018e 1B78     		ldrb	r3, [r3]	@ zero_extendqisi2
 418 0190 0133     		adds	r3, r3, #1
 419 0192 DAB2     		uxtb	r2, r3
 420 0194 3C4B     		ldr	r3, .L30+4
 421 0196 1A70     		strb	r2, [r3]
 422 0198 90E0     		b	.L22
 423              	.L21:
 220:UART_230400_Functions.c ****                 (dataByte == PacketList[currentType].EOP_LINE_FEED))
ARM GAS  C:\Users\MARTHN~1\AppData\Local\Temp\ccSb3FLu.s 			page 14


 424              		.loc 1 220 0
 425 019a 3B4B     		ldr	r3, .L30+4
 426 019c 1B78     		ldrb	r3, [r3]	@ zero_extendqisi2
 427 019e 1846     		mov	r0, r3
 428 01a0 3C4B     		ldr	r3, .L30+16
 429 01a2 1B78     		ldrb	r3, [r3]	@ zero_extendqisi2
 430 01a4 1946     		mov	r1, r3
 431 01a6 394A     		ldr	r2, .L30+8
 432 01a8 0B46     		mov	r3, r1
 433 01aa 9B00     		lsls	r3, r3, #2
 434 01ac 0B44     		add	r3, r3, r1
 435 01ae 1344     		add	r3, r3, r2
 436 01b0 0233     		adds	r3, r3, #2
 437 01b2 1B78     		ldrb	r3, [r3]	@ zero_extendqisi2
 438 01b4 0333     		adds	r3, r3, #3
 439 01b6 9842     		cmp	r0, r3
 440 01b8 76D1     		bne	.L23
 221:UART_230400_Functions.c ****             {
 441              		.loc 1 221 0 discriminator 1
 442 01ba 364B     		ldr	r3, .L30+16
 443 01bc 1B78     		ldrb	r3, [r3]	@ zero_extendqisi2
 444 01be 1946     		mov	r1, r3
 445 01c0 324A     		ldr	r2, .L30+8
 446 01c2 0B46     		mov	r3, r1
 447 01c4 9B00     		lsls	r3, r3, #2
 448 01c6 0B44     		add	r3, r3, r1
 449 01c8 1344     		add	r3, r3, r2
 450 01ca 0433     		adds	r3, r3, #4
 451 01cc 1B78     		ldrb	r3, [r3]	@ zero_extendqisi2
 220:UART_230400_Functions.c ****                 (dataByte == PacketList[currentType].EOP_LINE_FEED))
 452              		.loc 1 220 0 discriminator 1
 453 01ce FA79     		ldrb	r2, [r7, #7]	@ zero_extendqisi2
 454 01d0 9A42     		cmp	r2, r3
 455 01d2 69D1     		bne	.L23
 223:UART_230400_Functions.c ****                               
 456              		.loc 1 223 0
 457 01d4 2C4B     		ldr	r3, .L30+4
 458 01d6 1B78     		ldrb	r3, [r3]	@ zero_extendqisi2
 459 01d8 1946     		mov	r1, r3
 460 01da 2D4A     		ldr	r2, .L30+12
 461 01dc FB79     		ldrb	r3, [r7, #7]
 462 01de 5354     		strb	r3, [r2, r1]
 225:UART_230400_Functions.c ****                 {
 463              		.loc 1 225 0
 464 01e0 2C4B     		ldr	r3, .L30+16
 465 01e2 1B78     		ldrb	r3, [r3]	@ zero_extendqisi2
 466 01e4 002B     		cmp	r3, #0
 467 01e6 14D1     		bne	.L24
 227:UART_230400_Functions.c ****                    memcpy(&pRxPacket_Controller->bytes[0], &packet[2], PacketList[CTEST_RELAY].PAYL
 468              		.loc 1 227 0
 469 01e8 FFF7FEFF 		bl	getRxPacket_Controller
 470 01ec 0246     		mov	r2, r0
 471 01ee 2A4B     		ldr	r3, .L30+20
 472 01f0 1A60     		str	r2, [r3]
 228:UART_230400_Functions.c ****                     packetsuccess[CTEST_RELAY]++;   
 473              		.loc 1 228 0
 474 01f2 294B     		ldr	r3, .L30+20
ARM GAS  C:\Users\MARTHN~1\AppData\Local\Temp\ccSb3FLu.s 			page 15


 475 01f4 1B68     		ldr	r3, [r3]
 476 01f6 1846     		mov	r0, r3
 477 01f8 244B     		ldr	r3, .L30+8
 478 01fa 9B78     		ldrb	r3, [r3, #2]	@ zero_extendqisi2
 479 01fc 1A46     		mov	r2, r3
 480 01fe 2749     		ldr	r1, .L30+24
 481 0200 FFF7FEFF 		bl	memcpy
 229:UART_230400_Functions.c ****                 }
 482              		.loc 1 229 0
 483 0204 264B     		ldr	r3, .L30+28
 484 0206 1B88     		ldrh	r3, [r3]
 485 0208 0133     		adds	r3, r3, #1
 486 020a 9AB2     		uxth	r2, r3
 487 020c 244B     		ldr	r3, .L30+28
 488 020e 1A80     		strh	r2, [r3]	@ movhi
 489 0210 2DE0     		b	.L25
 490              	.L24:
 231:UART_230400_Functions.c ****                 {
 491              		.loc 1 231 0
 492 0212 204B     		ldr	r3, .L30+16
 493 0214 1B78     		ldrb	r3, [r3]	@ zero_extendqisi2
 494 0216 012B     		cmp	r3, #1
 495 0218 14D1     		bne	.L26
 233:UART_230400_Functions.c ****                    memcpy(&pRxPacket_Relay->bytes[0], &packet[2], PacketList[RTEST_CONTROLLER].PAYL
 496              		.loc 1 233 0
 497 021a FFF7FEFF 		bl	getRxPacket_Relay
 498 021e 0246     		mov	r2, r0
 499 0220 204B     		ldr	r3, .L30+32
 500 0222 1A60     		str	r2, [r3]
 234:UART_230400_Functions.c ****                    packetsuccess[RTEST_CONTROLLER]++;   
 501              		.loc 1 234 0
 502 0224 1F4B     		ldr	r3, .L30+32
 503 0226 1B68     		ldr	r3, [r3]
 504 0228 1846     		mov	r0, r3
 505 022a 184B     		ldr	r3, .L30+8
 506 022c DB79     		ldrb	r3, [r3, #7]	@ zero_extendqisi2
 507 022e 1A46     		mov	r2, r3
 508 0230 1A49     		ldr	r1, .L30+24
 509 0232 FFF7FEFF 		bl	memcpy
 235:UART_230400_Functions.c ****                 }
 510              		.loc 1 235 0
 511 0236 1A4B     		ldr	r3, .L30+28
 512 0238 5B88     		ldrh	r3, [r3, #2]
 513 023a 0133     		adds	r3, r3, #1
 514 023c 9AB2     		uxth	r2, r3
 515 023e 184B     		ldr	r3, .L30+28
 516 0240 5A80     		strh	r2, [r3, #2]	@ movhi
 517 0242 14E0     		b	.L25
 518              	.L26:
 237:UART_230400_Functions.c ****                    packetsuccess[RTEST_SIREN]++;
 519              		.loc 1 237 0
 520 0244 134B     		ldr	r3, .L30+16
 521 0246 1B78     		ldrb	r3, [r3]	@ zero_extendqisi2
 522 0248 022B     		cmp	r3, #2
 523 024a 06D1     		bne	.L27
 238:UART_230400_Functions.c ****                 else if(currentType == STEST_RELAY)
 524              		.loc 1 238 0
ARM GAS  C:\Users\MARTHN~1\AppData\Local\Temp\ccSb3FLu.s 			page 16


 525 024c 144B     		ldr	r3, .L30+28
 526 024e 9B88     		ldrh	r3, [r3, #4]
 527 0250 0133     		adds	r3, r3, #1
 528 0252 9AB2     		uxth	r2, r3
 529 0254 124B     		ldr	r3, .L30+28
 530 0256 9A80     		strh	r2, [r3, #4]	@ movhi
 531 0258 09E0     		b	.L25
 532              	.L27:
 239:UART_230400_Functions.c ****                    packetsuccess[STEST_RELAY]++;
 533              		.loc 1 239 0
 534 025a 0E4B     		ldr	r3, .L30+16
 535 025c 1B78     		ldrb	r3, [r3]	@ zero_extendqisi2
 536 025e 032B     		cmp	r3, #3
 537 0260 05D1     		bne	.L25
 240:UART_230400_Functions.c **** 
 538              		.loc 1 240 0
 539 0262 0F4B     		ldr	r3, .L30+28
 540 0264 DB88     		ldrh	r3, [r3, #6]
 541 0266 0133     		adds	r3, r3, #1
 542 0268 9AB2     		uxth	r2, r3
 543 026a 0D4B     		ldr	r3, .L30+28
 544 026c DA80     		strh	r2, [r3, #6]	@ movhi
 545              	.L25:
 253:UART_230400_Functions.c ****                 currentState = HEADER_STATE;
 546              		.loc 1 253 0
 547 026e 064B     		ldr	r3, .L30+4
 548 0270 0022     		movs	r2, #0
 549 0272 1A70     		strb	r2, [r3]
 254:UART_230400_Functions.c ****                 currentType = CTEST_RELAY;
 550              		.loc 1 254 0
 551 0274 034B     		ldr	r3, .L30
 552 0276 0022     		movs	r2, #0
 553 0278 1A70     		strb	r2, [r3]
 255:UART_230400_Functions.c ****             }
 554              		.loc 1 255 0
 555 027a 064B     		ldr	r3, .L30+16
 556 027c 0022     		movs	r2, #0
 557 027e 1A70     		strb	r2, [r3]
 558 0280 1CE0     		b	.L22
 559              	.L31:
 560 0282 00BF     		.align	2
 561              	.L30:
 562 0284 9C000000 		.word	currentState.6210
 563 0288 9D000000 		.word	currentPacketIndex.6212
 564 028c 00000000 		.word	PacketList
 565 0290 A0000000 		.word	packet.6209
 566 0294 B3000000 		.word	currentType.6211
 567 0298 10000000 		.word	pRxPacket_Controller
 568 029c A2000000 		.word	packet.6209+2
 569 02a0 00000000 		.word	packetsuccess
 570 02a4 24000000 		.word	pRxPacket_Relay
 571              	.L23:
 259:UART_230400_Functions.c ****                 currentState = HEADER_STATE;
 572              		.loc 1 259 0
 573 02a8 074B     		ldr	r3, .L32
 574 02aa 0022     		movs	r2, #0
 575 02ac 1A70     		strb	r2, [r3]
ARM GAS  C:\Users\MARTHN~1\AppData\Local\Temp\ccSb3FLu.s 			page 17


 260:UART_230400_Functions.c ****                 currentType = CTEST_RELAY;
 576              		.loc 1 260 0
 577 02ae 074B     		ldr	r3, .L32+4
 578 02b0 0022     		movs	r2, #0
 579 02b2 1A70     		strb	r2, [r3]
 261:UART_230400_Functions.c ****             }
 580              		.loc 1 261 0
 581 02b4 064B     		ldr	r3, .L32+8
 582 02b6 0022     		movs	r2, #0
 583 02b8 1A70     		strb	r2, [r3]
 263:UART_230400_Functions.c ****     }
 584              		.loc 1 263 0
 585 02ba 01E0     		b	.L7
 586              	.L22:
 587 02bc 00E0     		b	.L7
 588              	.L28:
 211:UART_230400_Functions.c ****             
 589              		.loc 1 211 0
 590 02be 00BF     		nop
 591              	.L7:
 592              	.L29:
 593              		.loc 1 265 0
 594 02c0 00BF     		nop
 595 02c2 0837     		adds	r7, r7, #8
 596              		.cfi_def_cfa_offset 8
 597 02c4 BD46     		mov	sp, r7
 598              		.cfi_def_cfa_register 13
 599              		@ sp needed
 600 02c6 80BD     		pop	{r7, pc}
 601              	.L33:
 602              		.align	2
 603              	.L32:
 604 02c8 9D000000 		.word	currentPacketIndex.6212
 605 02cc 9C000000 		.word	currentState.6210
 606 02d0 B3000000 		.word	currentType.6211
 607              		.cfi_endproc
 608              	.LFE64:
 609              		.size	detectPacket, .-detectPacket
 610              		.section	.text.sendPacketToRelaySiren,"ax",%progbits
 611              		.align	2
 612              		.global	sendPacketToRelaySiren
 613              		.thumb
 614              		.thumb_func
 615              		.type	sendPacketToRelaySiren, %function
 616              	sendPacketToRelaySiren:
 617              	.LFB65:
 266:UART_230400_Functions.c **** 
 267:UART_230400_Functions.c **** void sendPacketToRelaySiren(void)                   //*** This part needs some work
 268:UART_230400_Functions.c **** {
 618              		.loc 1 268 0
 619              		.cfi_startproc
 620              		@ args = 0, pretend = 0, frame = 0
 621              		@ frame_needed = 1, uses_anonymous_args = 0
 622 0000 80B5     		push	{r7, lr}
 623              		.cfi_def_cfa_offset 8
 624              		.cfi_offset 7, -8
 625              		.cfi_offset 14, -4
ARM GAS  C:\Users\MARTHN~1\AppData\Local\Temp\ccSb3FLu.s 			page 18


 626 0002 00AF     		add	r7, sp, #0
 627              		.cfi_def_cfa_register 7
 269:UART_230400_Functions.c ****     static uint16 iterator = 0;
 270:UART_230400_Functions.c **** //    static uint8 checkSumRelay = 0;
 271:UART_230400_Functions.c **** //    static uint8 checkSumRelayIterator = 0;
 272:UART_230400_Functions.c **** //    static uint8 toggleSend = 0;
 273:UART_230400_Functions.c ****     
 274:UART_230400_Functions.c **** //    static TxPacket_Controller txPacket_Controller;            
 275:UART_230400_Functions.c **** //    static TxPacket_Controller * pTxPacket_Controller;
 276:UART_230400_Functions.c **** //    
 277:UART_230400_Functions.c **** //    pRxPacket_Controller = getRxPacket_Controller();
 278:UART_230400_Functions.c ****     
 279:UART_230400_Functions.c ****     static TxPacket_RelaySiren txPacket_RelaySiren;            
 280:UART_230400_Functions.c ****     static TxPacket_RelaySiren * pTxPacket_RelaySiren;
 281:UART_230400_Functions.c ****     
 282:UART_230400_Functions.c ****     pTxPacket_RelaySiren = getTxPacket_RelaySiren();              // Tx - Get pointers to packet 
 628              		.loc 1 282 0
 629 0004 FFF7FEFF 		bl	getTxPacket_RelaySiren
 630 0008 0246     		mov	r2, r0
 631 000a 134B     		ldr	r3, .L37
 632 000c 1A60     		str	r2, [r3]
 283:UART_230400_Functions.c ****     
 284:UART_230400_Functions.c ****     
 285:UART_230400_Functions.c ****     
 286:UART_230400_Functions.c ****     
 287:UART_230400_Functions.c **** 
 288:UART_230400_Functions.c **** //    checkSumRelay = 0;
 289:UART_230400_Functions.c **** //    for(checkSumRelayIterator = 0; checkSumRelayIterator<PacketList[CTEST_RELAY].PAYLOAD_SIZE; ch
 290:UART_230400_Functions.c **** //    {
 291:UART_230400_Functions.c **** //        checkSumRelay ^= pTxPacket_Controller->bytes[checkSumRelayIterator];
 292:UART_230400_Functions.c **** //    }
 293:UART_230400_Functions.c ****     
 294:UART_230400_Functions.c ****     
 295:UART_230400_Functions.c **** 
 296:UART_230400_Functions.c ****         // Specific code for Controller to Relay/Siren packet 
 297:UART_230400_Functions.c ****         UART_230400_WriteTxData(0x7E);
 633              		.loc 1 297 0
 634 000e 7E20     		movs	r0, #126
 635 0010 FFF7FEFF 		bl	UART_230400_WriteTxData
 298:UART_230400_Functions.c ****         UART_230400_WriteTxData('I');
 636              		.loc 1 298 0
 637 0014 4920     		movs	r0, #73
 638 0016 FFF7FEFF 		bl	UART_230400_WriteTxData
 299:UART_230400_Functions.c ****         for(iterator = 0; iterator<79; iterator++)              // Send entire payload every other 
 639              		.loc 1 299 0
 640 001a 104B     		ldr	r3, .L37+4
 641 001c 0022     		movs	r2, #0
 642 001e 1A80     		strh	r2, [r3]	@ movhi
 643 0020 0DE0     		b	.L35
 644              	.L36:
 300:UART_230400_Functions.c ****         {
 301:UART_230400_Functions.c ****             UART_230400_WriteTxData(pTxPacket_RelaySiren->bytes[iterator]);
 645              		.loc 1 301 0 discriminator 3
 646 0022 0D4B     		ldr	r3, .L37
 647 0024 1B68     		ldr	r3, [r3]
 648 0026 0D4A     		ldr	r2, .L37+4
 649 0028 1288     		ldrh	r2, [r2]
ARM GAS  C:\Users\MARTHN~1\AppData\Local\Temp\ccSb3FLu.s 			page 19


 650 002a 9B5C     		ldrb	r3, [r3, r2]	@ zero_extendqisi2
 651 002c 1846     		mov	r0, r3
 652 002e FFF7FEFF 		bl	UART_230400_WriteTxData
 299:UART_230400_Functions.c ****         for(iterator = 0; iterator<79; iterator++)              // Send entire payload every other 
 653              		.loc 1 299 0 discriminator 3
 654 0032 0A4B     		ldr	r3, .L37+4
 655 0034 1B88     		ldrh	r3, [r3]
 656 0036 0133     		adds	r3, r3, #1
 657 0038 9AB2     		uxth	r2, r3
 658 003a 084B     		ldr	r3, .L37+4
 659 003c 1A80     		strh	r2, [r3]	@ movhi
 660              	.L35:
 299:UART_230400_Functions.c ****         for(iterator = 0; iterator<79; iterator++)              // Send entire payload every other 
 661              		.loc 1 299 0 is_stmt 0 discriminator 1
 662 003e 074B     		ldr	r3, .L37+4
 663 0040 1B88     		ldrh	r3, [r3]
 664 0042 4E2B     		cmp	r3, #78
 665 0044 EDD9     		bls	.L36
 302:UART_230400_Functions.c ****         }
 303:UART_230400_Functions.c **** //       
 304:UART_230400_Functions.c **** //        UART_230400_WriteTxData(checkSumRelay);
 305:UART_230400_Functions.c ****         UART_230400_WriteTxData(0x0D);
 666              		.loc 1 305 0 is_stmt 1
 667 0046 0D20     		movs	r0, #13
 668 0048 FFF7FEFF 		bl	UART_230400_WriteTxData
 306:UART_230400_Functions.c ****         UART_230400_WriteTxData(0x0A);
 669              		.loc 1 306 0
 670 004c 0A20     		movs	r0, #10
 671 004e FFF7FEFF 		bl	UART_230400_WriteTxData
 307:UART_230400_Functions.c **** 
 308:UART_230400_Functions.c **** }
 672              		.loc 1 308 0
 673 0052 00BF     		nop
 674 0054 80BD     		pop	{r7, pc}
 675              	.L38:
 676 0056 00BF     		.align	2
 677              	.L37:
 678 0058 B4000000 		.word	pTxPacket_RelaySiren.6222
 679 005c B8000000 		.word	iterator.6220
 680              		.cfi_endproc
 681              	.LFE65:
 682              		.size	sendPacketToRelaySiren, .-sendPacketToRelaySiren
 683              		.section	.text.ResetPacketSuccess,"ax",%progbits
 684              		.align	2
 685              		.global	ResetPacketSuccess
 686              		.thumb
 687              		.thumb_func
 688              		.type	ResetPacketSuccess, %function
 689              	ResetPacketSuccess:
 690              	.LFB66:
 309:UART_230400_Functions.c **** 
 310:UART_230400_Functions.c **** void ResetPacketSuccess(void)           //*** This can be improved
 311:UART_230400_Functions.c **** {
 691              		.loc 1 311 0
 692              		.cfi_startproc
 693              		@ args = 0, pretend = 0, frame = 0
 694              		@ frame_needed = 1, uses_anonymous_args = 0
ARM GAS  C:\Users\MARTHN~1\AppData\Local\Temp\ccSb3FLu.s 			page 20


 695              		@ link register save eliminated.
 696 0000 80B4     		push	{r7}
 697              		.cfi_def_cfa_offset 4
 698              		.cfi_offset 7, -4
 699 0002 00AF     		add	r7, sp, #0
 700              		.cfi_def_cfa_register 7
 312:UART_230400_Functions.c ****     packetsuccess[0] = 0;
 701              		.loc 1 312 0
 702 0004 074B     		ldr	r3, .L41
 703 0006 0022     		movs	r2, #0
 704 0008 1A80     		strh	r2, [r3]	@ movhi
 313:UART_230400_Functions.c ****     packetsuccess[1] = 0;
 705              		.loc 1 313 0
 706 000a 064B     		ldr	r3, .L41
 707 000c 0022     		movs	r2, #0
 708 000e 5A80     		strh	r2, [r3, #2]	@ movhi
 314:UART_230400_Functions.c ****     packetsuccess[2] = 0;
 709              		.loc 1 314 0
 710 0010 044B     		ldr	r3, .L41
 711 0012 0022     		movs	r2, #0
 712 0014 9A80     		strh	r2, [r3, #4]	@ movhi
 315:UART_230400_Functions.c ****     packetsuccess[3] = 0;
 713              		.loc 1 315 0
 714 0016 034B     		ldr	r3, .L41
 715 0018 0022     		movs	r2, #0
 716 001a DA80     		strh	r2, [r3, #6]	@ movhi
 316:UART_230400_Functions.c ****     
 317:UART_230400_Functions.c ****     return;
 717              		.loc 1 317 0
 718 001c 00BF     		nop
 318:UART_230400_Functions.c **** }
 719              		.loc 1 318 0
 720 001e BD46     		mov	sp, r7
 721              		.cfi_def_cfa_register 13
 722              		@ sp needed
 723 0020 80BC     		pop	{r7}
 724              		.cfi_restore 7
 725              		.cfi_def_cfa_offset 0
 726 0022 7047     		bx	lr
 727              	.L42:
 728              		.align	2
 729              	.L41:
 730 0024 00000000 		.word	packetsuccess
 731              		.cfi_endproc
 732              	.LFE66:
 733              		.size	ResetPacketSuccess, .-ResetPacketSuccess
 734              		.section	.text.VerifyPacket_230400,"ax",%progbits
 735              		.align	2
 736              		.global	VerifyPacket_230400
 737              		.thumb
 738              		.thumb_func
 739              		.type	VerifyPacket_230400, %function
 740              	VerifyPacket_230400:
 741              	.LFB67:
 319:UART_230400_Functions.c **** 
 320:UART_230400_Functions.c **** uint8 VerifyPacket_230400(uint8 PacketType)
 321:UART_230400_Functions.c **** {
ARM GAS  C:\Users\MARTHN~1\AppData\Local\Temp\ccSb3FLu.s 			page 21


 742              		.loc 1 321 0
 743              		.cfi_startproc
 744              		@ args = 0, pretend = 0, frame = 8
 745              		@ frame_needed = 1, uses_anonymous_args = 0
 746              		@ link register save eliminated.
 747 0000 80B4     		push	{r7}
 748              		.cfi_def_cfa_offset 4
 749              		.cfi_offset 7, -4
 750 0002 83B0     		sub	sp, sp, #12
 751              		.cfi_def_cfa_offset 16
 752 0004 00AF     		add	r7, sp, #0
 753              		.cfi_def_cfa_register 7
 754 0006 0346     		mov	r3, r0
 755 0008 FB71     		strb	r3, [r7, #7]
 322:UART_230400_Functions.c ****     
 323:UART_230400_Functions.c ****     static uint16 singlepacketsuccess = 0;
 324:UART_230400_Functions.c ****     
 325:UART_230400_Functions.c ****     if(PacketType == 0)
 756              		.loc 1 325 0
 757 000a FB79     		ldrb	r3, [r7, #7]	@ zero_extendqisi2
 758 000c 002B     		cmp	r3, #0
 759 000e 06D1     		bne	.L44
 326:UART_230400_Functions.c **** //        MUX_CTRL_460800_Write(0x00);
 327:UART_230400_Functions.c ****     
 328:UART_230400_Functions.c ****     if(PacketType == 0)
 760              		.loc 1 328 0
 761 0010 FB79     		ldrb	r3, [r7, #7]	@ zero_extendqisi2
 762 0012 002B     		cmp	r3, #0
 763 0014 03D1     		bne	.L44
 329:UART_230400_Functions.c ****         singlepacketsuccess = packetsuccess[0];
 764              		.loc 1 329 0
 765 0016 084B     		ldr	r3, .L47
 766 0018 1A88     		ldrh	r2, [r3]
 767 001a 084B     		ldr	r3, .L47+4
 768 001c 1A80     		strh	r2, [r3]	@ movhi
 769              	.L44:
 330:UART_230400_Functions.c **** //    else if(PacketType == 1)
 331:UART_230400_Functions.c **** //        singlepacketsuccess = packetsuccess[1];
 332:UART_230400_Functions.c ****         
 333:UART_230400_Functions.c ****         
 334:UART_230400_Functions.c ****     if(singlepacketsuccess >= PACKET_VERIFICATION_COUNT)                //maybe we wait until pass 
 770              		.loc 1 334 0
 771 001e 074B     		ldr	r3, .L47+4
 772 0020 1B88     		ldrh	r3, [r3]
 773 0022 042B     		cmp	r3, #4
 774 0024 01D9     		bls	.L45
 335:UART_230400_Functions.c ****         return(1);
 775              		.loc 1 335 0
 776 0026 0123     		movs	r3, #1
 777 0028 00E0     		b	.L46
 778              	.L45:
 336:UART_230400_Functions.c ****     else
 337:UART_230400_Functions.c ****         return(0);
 779              		.loc 1 337 0
 780 002a 0023     		movs	r3, #0
 781              	.L46:
 338:UART_230400_Functions.c ****        
ARM GAS  C:\Users\MARTHN~1\AppData\Local\Temp\ccSb3FLu.s 			page 22


 339:UART_230400_Functions.c **** }
 782              		.loc 1 339 0
 783 002c 1846     		mov	r0, r3
 784 002e 0C37     		adds	r7, r7, #12
 785              		.cfi_def_cfa_offset 4
 786 0030 BD46     		mov	sp, r7
 787              		.cfi_def_cfa_register 13
 788              		@ sp needed
 789 0032 80BC     		pop	{r7}
 790              		.cfi_restore 7
 791              		.cfi_def_cfa_offset 0
 792 0034 7047     		bx	lr
 793              	.L48:
 794 0036 00BF     		.align	2
 795              	.L47:
 796 0038 00000000 		.word	packetsuccess
 797 003c 0C010000 		.word	singlepacketsuccess.6232
 798              		.cfi_endproc
 799              	.LFE67:
 800              		.size	VerifyPacket_230400, .-VerifyPacket_230400
 801              		.bss
 802              	testbuffer_count.6203:
 803 0034 00       		.space	1
 804 0035 000000   		.align	2
 805              	testbuffer.6202:
 806 0038 00000000 		.space	100
 806      00000000 
 806      00000000 
 806      00000000 
 806      00000000 
 807              	currentState.6210:
 808 009c 00       		.space	1
 809              	currentPacketIndex.6212:
 810 009d 00       		.space	1
 811 009e 0000     		.align	2
 812              	packet.6209:
 813 00a0 00000000 		.space	19
 813      00000000 
 813      00000000 
 813      00000000 
 813      000000
 814              	currentType.6211:
 815 00b3 00       		.space	1
 816              		.align	2
 817              	pTxPacket_RelaySiren.6222:
 818 00b4 00000000 		.space	4
 819              		.align	1
 820              	iterator.6220:
 821 00b8 0000     		.space	2
 822 00ba 0000     		.align	2
 823              	txPacket_RelaySiren.6221:
 824 00bc 00000000 		.space	79
 824      00000000 
 824      00000000 
 824      00000000 
 824      00000000 
 825 010b 00       		.align	1
ARM GAS  C:\Users\MARTHN~1\AppData\Local\Temp\ccSb3FLu.s 			page 23


 826              	singlepacketsuccess.6232:
 827 010c 0000     		.space	2
 828              		.text
 829              	.Letext0:
 830              		.file 2 "c:\\program files (x86)\\cypress\\psoc creator\\4.3\\psoc creator\\import\\gnu\\arm\\5.4.
 831              		.file 3 "c:\\program files (x86)\\cypress\\psoc creator\\4.3\\psoc creator\\import\\gnu\\arm\\5.4.
 832              		.file 4 "Generated_Source\\PSoC5/cytypes.h"
 833              		.file 5 "UART_230400_Functions.h"
 834              		.file 6 "Generated_Source\\PSoC5/core_cm3.h"