ARM GAS  C:\Users\MARTHN~1\AppData\Local\Temp\ccCsUtlu.s 			page 1


   1              		.syntax unified
   2              		.cpu cortex-m3
   3              		.fpu softvfp
   4              		.eabi_attribute 20, 1
   5              		.eabi_attribute 21, 1
   6              		.eabi_attribute 23, 3
   7              		.eabi_attribute 24, 1
   8              		.eabi_attribute 25, 1
   9              		.eabi_attribute 26, 1
  10              		.eabi_attribute 30, 6
  11              		.eabi_attribute 34, 1
  12              		.eabi_attribute 18, 4
  13              		.thumb
  14              		.syntax unified
  15              		.file	"USBUART_cls.c"
  16              		.text
  17              	.Ltext0:
  18              		.cfi_sections	.debug_frame
  19              		.section	.text.USBUART_DispatchClassRqst,"ax",%progbits
  20              		.align	2
  21              		.global	USBUART_DispatchClassRqst
  22              		.thumb
  23              		.thumb_func
  24              		.type	USBUART_DispatchClassRqst, %function
  25              	USBUART_DispatchClassRqst:
  26              	.LFB0:
  27              		.file 1 "Generated_Source\\PSoC5\\USBUART_cls.c"
   1:Generated_Source\PSoC5/USBUART_cls.c **** /*******************************************************************************
   2:Generated_Source\PSoC5/USBUART_cls.c **** * File Name: USBUART_cls.c
   3:Generated_Source\PSoC5/USBUART_cls.c **** * Version 2.80
   4:Generated_Source\PSoC5/USBUART_cls.c **** *
   5:Generated_Source\PSoC5/USBUART_cls.c **** * Description:
   6:Generated_Source\PSoC5/USBUART_cls.c **** *  USB Class request handler.
   7:Generated_Source\PSoC5/USBUART_cls.c **** *
   8:Generated_Source\PSoC5/USBUART_cls.c **** * Note:
   9:Generated_Source\PSoC5/USBUART_cls.c **** *
  10:Generated_Source\PSoC5/USBUART_cls.c **** ********************************************************************************
  11:Generated_Source\PSoC5/USBUART_cls.c **** * Copyright 2008-2014, Cypress Semiconductor Corporation.  All rights reserved.
  12:Generated_Source\PSoC5/USBUART_cls.c **** * You may use this file only in accordance with the license, terms, conditions,
  13:Generated_Source\PSoC5/USBUART_cls.c **** * disclaimers, and limitations in the end user license agreement accompanying
  14:Generated_Source\PSoC5/USBUART_cls.c **** * the software package with which this file was provided.
  15:Generated_Source\PSoC5/USBUART_cls.c **** *******************************************************************************/
  16:Generated_Source\PSoC5/USBUART_cls.c **** 
  17:Generated_Source\PSoC5/USBUART_cls.c **** #include "USBUART.h"
  18:Generated_Source\PSoC5/USBUART_cls.c **** 
  19:Generated_Source\PSoC5/USBUART_cls.c **** #if(USBUART_EXTERN_CLS == USBUART_FALSE)
  20:Generated_Source\PSoC5/USBUART_cls.c **** 
  21:Generated_Source\PSoC5/USBUART_cls.c **** #include "USBUART_pvt.h"
  22:Generated_Source\PSoC5/USBUART_cls.c **** #include "cyapicallbacks.h"
  23:Generated_Source\PSoC5/USBUART_cls.c **** 
  24:Generated_Source\PSoC5/USBUART_cls.c **** 
  25:Generated_Source\PSoC5/USBUART_cls.c **** /***************************************
  26:Generated_Source\PSoC5/USBUART_cls.c **** * User Implemented Class Driver Declarations.
  27:Generated_Source\PSoC5/USBUART_cls.c **** ***************************************/
  28:Generated_Source\PSoC5/USBUART_cls.c **** /* `#START USER_DEFINED_CLASS_DECLARATIONS` Place your declaration here */
  29:Generated_Source\PSoC5/USBUART_cls.c **** 
  30:Generated_Source\PSoC5/USBUART_cls.c **** /* `#END` */
ARM GAS  C:\Users\MARTHN~1\AppData\Local\Temp\ccCsUtlu.s 			page 2


  31:Generated_Source\PSoC5/USBUART_cls.c **** 
  32:Generated_Source\PSoC5/USBUART_cls.c **** 
  33:Generated_Source\PSoC5/USBUART_cls.c **** /*******************************************************************************
  34:Generated_Source\PSoC5/USBUART_cls.c **** * Function Name: USBUART_DispatchClassRqst
  35:Generated_Source\PSoC5/USBUART_cls.c **** ********************************************************************************
  36:Generated_Source\PSoC5/USBUART_cls.c **** * Summary:
  37:Generated_Source\PSoC5/USBUART_cls.c **** *  This routine dispatches class specific requests depend on interface class.
  38:Generated_Source\PSoC5/USBUART_cls.c **** *
  39:Generated_Source\PSoC5/USBUART_cls.c **** * Parameters:
  40:Generated_Source\PSoC5/USBUART_cls.c **** *  None.
  41:Generated_Source\PSoC5/USBUART_cls.c **** *
  42:Generated_Source\PSoC5/USBUART_cls.c **** * Return:
  43:Generated_Source\PSoC5/USBUART_cls.c **** *  requestHandled.
  44:Generated_Source\PSoC5/USBUART_cls.c **** *
  45:Generated_Source\PSoC5/USBUART_cls.c **** * Reentrant:
  46:Generated_Source\PSoC5/USBUART_cls.c **** *  No.
  47:Generated_Source\PSoC5/USBUART_cls.c **** *
  48:Generated_Source\PSoC5/USBUART_cls.c **** *******************************************************************************/
  49:Generated_Source\PSoC5/USBUART_cls.c **** uint8 USBUART_DispatchClassRqst(void) 
  50:Generated_Source\PSoC5/USBUART_cls.c **** {
  28              		.loc 1 50 0
  29              		.cfi_startproc
  30              		@ args = 0, pretend = 0, frame = 8
  31              		@ frame_needed = 1, uses_anonymous_args = 0
  32 0000 80B5     		push	{r7, lr}
  33              		.cfi_def_cfa_offset 8
  34              		.cfi_offset 7, -8
  35              		.cfi_offset 14, -4
  36 0002 82B0     		sub	sp, sp, #8
  37              		.cfi_def_cfa_offset 16
  38 0004 00AF     		add	r7, sp, #0
  39              		.cfi_def_cfa_register 7
  51:Generated_Source\PSoC5/USBUART_cls.c ****     uint8 requestHandled = USBUART_FALSE;
  40              		.loc 1 51 0
  41 0006 0023     		movs	r3, #0
  42 0008 FB71     		strb	r3, [r7, #7]
  52:Generated_Source\PSoC5/USBUART_cls.c ****     uint8 interfaceNumber = 0u;
  43              		.loc 1 52 0
  44 000a 0023     		movs	r3, #0
  45 000c BB71     		strb	r3, [r7, #6]
  53:Generated_Source\PSoC5/USBUART_cls.c **** 
  54:Generated_Source\PSoC5/USBUART_cls.c ****     switch(CY_GET_REG8(USBUART_bmRequestType) & USBUART_RQST_RCPT_MASK)
  46              		.loc 1 54 0
  47 000e 1B4B     		ldr	r3, .L14
  48 0010 1B78     		ldrb	r3, [r3]
  49 0012 DBB2     		uxtb	r3, r3
  50 0014 03F00303 		and	r3, r3, #3
  51 0018 012B     		cmp	r3, #1
  52 001a 02D0     		beq	.L3
  53 001c 022B     		cmp	r3, #2
  54 001e 04D0     		beq	.L4
  55:Generated_Source\PSoC5/USBUART_cls.c ****     {
  56:Generated_Source\PSoC5/USBUART_cls.c ****         case USBUART_RQST_RCPT_IFC:        /* Class-specific request directed to an interface */
  57:Generated_Source\PSoC5/USBUART_cls.c ****             interfaceNumber = CY_GET_REG8(USBUART_wIndexLo); /* wIndexLo contain Interface number *
  58:Generated_Source\PSoC5/USBUART_cls.c ****             break;
  59:Generated_Source\PSoC5/USBUART_cls.c ****         case USBUART_RQST_RCPT_EP:         /* Class-specific request directed to the endpoint */
  60:Generated_Source\PSoC5/USBUART_cls.c ****             /* Find related interface to the endpoint, wIndexLo contain EP number */
ARM GAS  C:\Users\MARTHN~1\AppData\Local\Temp\ccCsUtlu.s 			page 3


  61:Generated_Source\PSoC5/USBUART_cls.c ****             interfaceNumber = USBUART_EP[CY_GET_REG8(USBUART_wIndexLo) &
  62:Generated_Source\PSoC5/USBUART_cls.c ****                               USBUART_DIR_UNUSED].interface;
  63:Generated_Source\PSoC5/USBUART_cls.c ****             break;
  64:Generated_Source\PSoC5/USBUART_cls.c ****         default:    /* RequestHandled is initialized as FALSE by default */
  65:Generated_Source\PSoC5/USBUART_cls.c ****             break;
  55              		.loc 1 65 0
  56 0020 12E0     		b	.L5
  57              	.L3:
  57:Generated_Source\PSoC5/USBUART_cls.c ****             break;
  58              		.loc 1 57 0
  59 0022 174B     		ldr	r3, .L14+4
  60 0024 1B78     		ldrb	r3, [r3]
  61 0026 BB71     		strb	r3, [r7, #6]
  58:Generated_Source\PSoC5/USBUART_cls.c ****         case USBUART_RQST_RCPT_EP:         /* Class-specific request directed to the endpoint */
  62              		.loc 1 58 0
  63 0028 0EE0     		b	.L5
  64              	.L4:
  61:Generated_Source\PSoC5/USBUART_cls.c ****                               USBUART_DIR_UNUSED].interface;
  65              		.loc 1 61 0
  66 002a 154B     		ldr	r3, .L14+4
  67 002c 1B78     		ldrb	r3, [r3]
  68 002e DBB2     		uxtb	r3, r3
  69 0030 03F07F02 		and	r2, r3, #127
  70 0034 1349     		ldr	r1, .L14+8
  71 0036 1346     		mov	r3, r2
  72 0038 5B00     		lsls	r3, r3, #1
  73 003a 1344     		add	r3, r3, r2
  74 003c 9B00     		lsls	r3, r3, #2
  75 003e 0B44     		add	r3, r3, r1
  76 0040 0A33     		adds	r3, r3, #10
  77 0042 1B78     		ldrb	r3, [r3]
  78 0044 BB71     		strb	r3, [r7, #6]
  63:Generated_Source\PSoC5/USBUART_cls.c ****         default:    /* RequestHandled is initialized as FALSE by default */
  79              		.loc 1 63 0
  80 0046 00BF     		nop
  81              	.L5:
  66:Generated_Source\PSoC5/USBUART_cls.c ****     }
  67:Generated_Source\PSoC5/USBUART_cls.c ****     /* Handle Class request depend on interface type */
  68:Generated_Source\PSoC5/USBUART_cls.c ****     switch(USBUART_interfaceClass[interfaceNumber])
  82              		.loc 1 68 0
  83 0048 0F4B     		ldr	r3, .L14+12
  84 004a 1A68     		ldr	r2, [r3]
  85 004c BB79     		ldrb	r3, [r7, #6]	@ zero_extendqisi2
  86 004e 1344     		add	r3, r3, r2
  87 0050 1B78     		ldrb	r3, [r3]	@ zero_extendqisi2
  88 0052 022B     		cmp	r3, #2
  89 0054 04D0     		beq	.L7
  90 0056 032B     		cmp	r3, #3
  91 0058 07D0     		beq	.L12
  92 005a 012B     		cmp	r3, #1
  93 005c 07D0     		beq	.L13
  69:Generated_Source\PSoC5/USBUART_cls.c ****     {
  70:Generated_Source\PSoC5/USBUART_cls.c ****         case USBUART_CLASS_HID:
  71:Generated_Source\PSoC5/USBUART_cls.c ****             #if defined(USBUART_ENABLE_HID_CLASS)
  72:Generated_Source\PSoC5/USBUART_cls.c ****                 requestHandled = USBUART_DispatchHIDClassRqst();
  73:Generated_Source\PSoC5/USBUART_cls.c ****             #endif /* USBUART_ENABLE_HID_CLASS */
  74:Generated_Source\PSoC5/USBUART_cls.c ****             break;
ARM GAS  C:\Users\MARTHN~1\AppData\Local\Temp\ccCsUtlu.s 			page 4


  75:Generated_Source\PSoC5/USBUART_cls.c ****         case USBUART_CLASS_AUDIO:
  76:Generated_Source\PSoC5/USBUART_cls.c ****             #if defined(USBUART_ENABLE_AUDIO_CLASS)
  77:Generated_Source\PSoC5/USBUART_cls.c ****                 requestHandled = USBUART_DispatchAUDIOClassRqst();
  78:Generated_Source\PSoC5/USBUART_cls.c ****             #endif /* USBUART_CLASS_AUDIO */
  79:Generated_Source\PSoC5/USBUART_cls.c ****             break;
  80:Generated_Source\PSoC5/USBUART_cls.c ****         case USBUART_CLASS_CDC:
  81:Generated_Source\PSoC5/USBUART_cls.c ****             #if defined(USBUART_ENABLE_CDC_CLASS)
  82:Generated_Source\PSoC5/USBUART_cls.c ****                 requestHandled = USBUART_DispatchCDCClassRqst();
  83:Generated_Source\PSoC5/USBUART_cls.c ****             #endif /* USBUART_ENABLE_CDC_CLASS */
  84:Generated_Source\PSoC5/USBUART_cls.c ****             break;
  85:Generated_Source\PSoC5/USBUART_cls.c ****         default:    /* requestHandled is initialized as FALSE by default */
  86:Generated_Source\PSoC5/USBUART_cls.c ****             break;
  94              		.loc 1 86 0
  95 005e 07E0     		b	.L10
  96              	.L7:
  82:Generated_Source\PSoC5/USBUART_cls.c ****             #endif /* USBUART_ENABLE_CDC_CLASS */
  97              		.loc 1 82 0
  98 0060 FFF7FEFF 		bl	USBUART_DispatchCDCClassRqst
  99 0064 0346     		mov	r3, r0
 100 0066 FB71     		strb	r3, [r7, #7]
  84:Generated_Source\PSoC5/USBUART_cls.c ****         default:    /* requestHandled is initialized as FALSE by default */
 101              		.loc 1 84 0
 102 0068 02E0     		b	.L10
 103              	.L12:
  74:Generated_Source\PSoC5/USBUART_cls.c ****         case USBUART_CLASS_AUDIO:
 104              		.loc 1 74 0
 105 006a 00BF     		nop
 106 006c 00E0     		b	.L10
 107              	.L13:
  79:Generated_Source\PSoC5/USBUART_cls.c ****         case USBUART_CLASS_CDC:
 108              		.loc 1 79 0
 109 006e 00BF     		nop
 110              	.L10:
  87:Generated_Source\PSoC5/USBUART_cls.c ****     }
  88:Generated_Source\PSoC5/USBUART_cls.c **** 
  89:Generated_Source\PSoC5/USBUART_cls.c ****     /* `#START USER_DEFINED_CLASS_CODE` Place your Class request here */
  90:Generated_Source\PSoC5/USBUART_cls.c **** 
  91:Generated_Source\PSoC5/USBUART_cls.c ****     /* `#END` */
  92:Generated_Source\PSoC5/USBUART_cls.c **** 
  93:Generated_Source\PSoC5/USBUART_cls.c ****     #ifdef USBUART_DISPATCH_CLASS_RQST_CALLBACK
  94:Generated_Source\PSoC5/USBUART_cls.c ****         USBUART_DispatchClassRqst_Callback();
  95:Generated_Source\PSoC5/USBUART_cls.c ****     #endif /* USBUART_DISPATCH_CLASS_RQST_CALLBACK */
  96:Generated_Source\PSoC5/USBUART_cls.c **** 
  97:Generated_Source\PSoC5/USBUART_cls.c ****     return(requestHandled);
 111              		.loc 1 97 0
 112 0070 FB79     		ldrb	r3, [r7, #7]	@ zero_extendqisi2
  98:Generated_Source\PSoC5/USBUART_cls.c **** }
 113              		.loc 1 98 0
 114 0072 1846     		mov	r0, r3
 115 0074 0837     		adds	r7, r7, #8
 116              		.cfi_def_cfa_offset 8
 117 0076 BD46     		mov	sp, r7
 118              		.cfi_def_cfa_register 13
 119              		@ sp needed
 120 0078 80BD     		pop	{r7, pc}
 121              	.L15:
 122 007a 00BF     		.align	2
ARM GAS  C:\Users\MARTHN~1\AppData\Local\Temp\ccCsUtlu.s 			page 5


 123              	.L14:
 124 007c 00600040 		.word	1073766400
 125 0080 04600040 		.word	1073766404
 126 0084 00000000 		.word	USBUART_EP
 127 0088 00000000 		.word	USBUART_interfaceClass
 128              		.cfi_endproc
 129              	.LFE0:
 130              		.size	USBUART_DispatchClassRqst, .-USBUART_DispatchClassRqst
 131              		.text
 132              	.Letext0:
 133              		.file 2 "Generated_Source\\PSoC5\\cytypes.h"
 134              		.file 3 "Generated_Source\\PSoC5\\USBUART.h"
 135              		.file 4 "Generated_Source\\PSoC5\\USBUART_pvt.h"