ARM GAS  C:\Users\MARTHN~1\AppData\Local\Temp\ccH64qNm.s 			page 1


   1              		.syntax unified
   2              		.cpu cortex-m3
   3              		.fpu softvfp
   4              		.eabi_attribute 20, 1
   5              		.eabi_attribute 21, 1
   6              		.eabi_attribute 23, 3
   7              		.eabi_attribute 24, 1
   8              		.eabi_attribute 25, 1
   9              		.eabi_attribute 26, 1
  10              		.eabi_attribute 30, 6
  11              		.eabi_attribute 34, 1
  12              		.eabi_attribute 18, 4
  13              		.thumb
  14              		.syntax unified
  15              		.file	"USBUART_pm.c"
  16              		.text
  17              	.Ltext0:
  18              		.cfi_sections	.debug_frame
  19              		.bss
  20              		.align	2
  21              	USBUART_backup:
  22 0000 0000     		.space	2
  23              		.section	.text.USBUART_DP_ISR,"ax",%progbits
  24              		.align	2
  25              		.global	USBUART_DP_ISR
  26              		.thumb
  27              		.thumb_func
  28              		.type	USBUART_DP_ISR, %function
  29              	USBUART_DP_ISR:
  30              	.LFB63:
  31              		.file 1 "Generated_Source\\PSoC5\\USBUART_pm.c"
   1:Generated_Source\PSoC5/USBUART_pm.c **** /*******************************************************************************
   2:Generated_Source\PSoC5/USBUART_pm.c **** * File Name: USBUART_pm.c
   3:Generated_Source\PSoC5/USBUART_pm.c **** * Version 2.80
   4:Generated_Source\PSoC5/USBUART_pm.c **** *
   5:Generated_Source\PSoC5/USBUART_pm.c **** * Description:
   6:Generated_Source\PSoC5/USBUART_pm.c **** *  This file provides Suspend/Resume APIs functionality.
   7:Generated_Source\PSoC5/USBUART_pm.c **** *
   8:Generated_Source\PSoC5/USBUART_pm.c **** * Note:
   9:Generated_Source\PSoC5/USBUART_pm.c **** *
  10:Generated_Source\PSoC5/USBUART_pm.c **** ********************************************************************************
  11:Generated_Source\PSoC5/USBUART_pm.c **** * Copyright 2008-2014, Cypress Semiconductor Corporation.  All rights reserved.
  12:Generated_Source\PSoC5/USBUART_pm.c **** * You may use this file only in accordance with the license, terms, conditions,
  13:Generated_Source\PSoC5/USBUART_pm.c **** * disclaimers, and limitations in the end user license agreement accompanying
  14:Generated_Source\PSoC5/USBUART_pm.c **** * the software package with which this file was provided.
  15:Generated_Source\PSoC5/USBUART_pm.c **** *******************************************************************************/
  16:Generated_Source\PSoC5/USBUART_pm.c **** 
  17:Generated_Source\PSoC5/USBUART_pm.c **** #include "project.h"
  18:Generated_Source\PSoC5/USBUART_pm.c **** #include "USBUART.h"
  19:Generated_Source\PSoC5/USBUART_pm.c **** #include "USBUART_pvt.h"
  20:Generated_Source\PSoC5/USBUART_pm.c **** #include "cyapicallbacks.h"
  21:Generated_Source\PSoC5/USBUART_pm.c **** 
  22:Generated_Source\PSoC5/USBUART_pm.c **** 
  23:Generated_Source\PSoC5/USBUART_pm.c **** /***************************************
  24:Generated_Source\PSoC5/USBUART_pm.c **** * Custom Declarations
  25:Generated_Source\PSoC5/USBUART_pm.c **** ***************************************/
  26:Generated_Source\PSoC5/USBUART_pm.c **** /* `#START PM_CUSTOM_DECLARATIONS` Place your declaration here */
ARM GAS  C:\Users\MARTHN~1\AppData\Local\Temp\ccH64qNm.s 			page 2


  27:Generated_Source\PSoC5/USBUART_pm.c **** 
  28:Generated_Source\PSoC5/USBUART_pm.c **** /* `#END` */
  29:Generated_Source\PSoC5/USBUART_pm.c **** 
  30:Generated_Source\PSoC5/USBUART_pm.c **** 
  31:Generated_Source\PSoC5/USBUART_pm.c **** /***************************************
  32:Generated_Source\PSoC5/USBUART_pm.c **** * Local data allocation
  33:Generated_Source\PSoC5/USBUART_pm.c **** ***************************************/
  34:Generated_Source\PSoC5/USBUART_pm.c **** 
  35:Generated_Source\PSoC5/USBUART_pm.c **** static USBUART_BACKUP_STRUCT  USBUART_backup;
  36:Generated_Source\PSoC5/USBUART_pm.c **** 
  37:Generated_Source\PSoC5/USBUART_pm.c **** 
  38:Generated_Source\PSoC5/USBUART_pm.c **** #if(USBUART_DP_ISR_REMOVE == 0u)
  39:Generated_Source\PSoC5/USBUART_pm.c **** 
  40:Generated_Source\PSoC5/USBUART_pm.c ****     /*******************************************************************************
  41:Generated_Source\PSoC5/USBUART_pm.c ****     * Function Name: USBUART_DP_Interrupt
  42:Generated_Source\PSoC5/USBUART_pm.c ****     ********************************************************************************
  43:Generated_Source\PSoC5/USBUART_pm.c ****     *
  44:Generated_Source\PSoC5/USBUART_pm.c ****     * Summary:
  45:Generated_Source\PSoC5/USBUART_pm.c ****     *  This Interrupt Service Routine handles DP pin changes for wake-up from
  46:Generated_Source\PSoC5/USBUART_pm.c ****     *  the sleep mode.
  47:Generated_Source\PSoC5/USBUART_pm.c ****     *
  48:Generated_Source\PSoC5/USBUART_pm.c ****     * Parameters:
  49:Generated_Source\PSoC5/USBUART_pm.c ****     *  None.
  50:Generated_Source\PSoC5/USBUART_pm.c ****     *
  51:Generated_Source\PSoC5/USBUART_pm.c ****     * Return:
  52:Generated_Source\PSoC5/USBUART_pm.c ****     *  None.
  53:Generated_Source\PSoC5/USBUART_pm.c ****     *
  54:Generated_Source\PSoC5/USBUART_pm.c ****     *******************************************************************************/
  55:Generated_Source\PSoC5/USBUART_pm.c ****     CY_ISR(USBUART_DP_ISR)
  56:Generated_Source\PSoC5/USBUART_pm.c ****     {
  32              		.loc 1 56 0
  33              		.cfi_startproc
  34              		@ args = 0, pretend = 0, frame = 0
  35              		@ frame_needed = 1, uses_anonymous_args = 0
  36              		@ link register save eliminated.
  37 0000 80B4     		push	{r7}
  38              		.cfi_def_cfa_offset 4
  39              		.cfi_offset 7, -4
  40 0002 00AF     		add	r7, sp, #0
  41              		.cfi_def_cfa_register 7
  57:Generated_Source\PSoC5/USBUART_pm.c ****         #ifdef USBUART_DP_ISR_ENTRY_CALLBACK
  58:Generated_Source\PSoC5/USBUART_pm.c ****             USBUART_DP_ISR_EntryCallback();
  59:Generated_Source\PSoC5/USBUART_pm.c ****         #endif /* USBUART_DP_ISR_ENTRY_CALLBACK */
  60:Generated_Source\PSoC5/USBUART_pm.c **** 
  61:Generated_Source\PSoC5/USBUART_pm.c ****         /* `#START DP_USER_CODE` Place your code here */
  62:Generated_Source\PSoC5/USBUART_pm.c **** 
  63:Generated_Source\PSoC5/USBUART_pm.c ****         /* `#END` */
  64:Generated_Source\PSoC5/USBUART_pm.c **** 
  65:Generated_Source\PSoC5/USBUART_pm.c ****         /* Clears active interrupt */
  66:Generated_Source\PSoC5/USBUART_pm.c ****         CY_GET_REG8(USBUART_DP_INTSTAT_PTR);
  42              		.loc 1 66 0
  43 0004 024B     		ldr	r3, .L2
  44 0006 1B78     		ldrb	r3, [r3]
  67:Generated_Source\PSoC5/USBUART_pm.c **** 
  68:Generated_Source\PSoC5/USBUART_pm.c ****         #ifdef USBUART_DP_ISR_EXIT_CALLBACK
  69:Generated_Source\PSoC5/USBUART_pm.c ****             USBUART_DP_ISR_ExitCallback();
  70:Generated_Source\PSoC5/USBUART_pm.c ****         #endif /* USBUART_DP_ISR_EXIT_CALLBACK */
ARM GAS  C:\Users\MARTHN~1\AppData\Local\Temp\ccH64qNm.s 			page 3


  71:Generated_Source\PSoC5/USBUART_pm.c ****     }
  45              		.loc 1 71 0
  46 0008 00BF     		nop
  47 000a BD46     		mov	sp, r7
  48              		.cfi_def_cfa_register 13
  49              		@ sp needed
  50 000c 80BC     		pop	{r7}
  51              		.cfi_restore 7
  52              		.cfi_def_cfa_offset 0
  53 000e 7047     		bx	lr
  54              	.L3:
  55              		.align	2
  56              	.L2:
  57 0010 8F450040 		.word	1073759631
  58              		.cfi_endproc
  59              	.LFE63:
  60              		.size	USBUART_DP_ISR, .-USBUART_DP_ISR
  61              		.section	.text.USBUART_SaveConfig,"ax",%progbits
  62              		.align	2
  63              		.global	USBUART_SaveConfig
  64              		.thumb
  65              		.thumb_func
  66              		.type	USBUART_SaveConfig, %function
  67              	USBUART_SaveConfig:
  68              	.LFB64:
  72:Generated_Source\PSoC5/USBUART_pm.c **** 
  73:Generated_Source\PSoC5/USBUART_pm.c **** #endif /* (USBUART_DP_ISR_REMOVE == 0u) */
  74:Generated_Source\PSoC5/USBUART_pm.c **** 
  75:Generated_Source\PSoC5/USBUART_pm.c **** 
  76:Generated_Source\PSoC5/USBUART_pm.c **** /*******************************************************************************
  77:Generated_Source\PSoC5/USBUART_pm.c **** * Function Name: USBUART_SaveConfig
  78:Generated_Source\PSoC5/USBUART_pm.c **** ********************************************************************************
  79:Generated_Source\PSoC5/USBUART_pm.c **** *
  80:Generated_Source\PSoC5/USBUART_pm.c **** * Summary:
  81:Generated_Source\PSoC5/USBUART_pm.c **** *  Saves the current user configuration.
  82:Generated_Source\PSoC5/USBUART_pm.c **** *
  83:Generated_Source\PSoC5/USBUART_pm.c **** * Parameters:
  84:Generated_Source\PSoC5/USBUART_pm.c **** *  None.
  85:Generated_Source\PSoC5/USBUART_pm.c **** *
  86:Generated_Source\PSoC5/USBUART_pm.c **** * Return:
  87:Generated_Source\PSoC5/USBUART_pm.c **** *  None.
  88:Generated_Source\PSoC5/USBUART_pm.c **** *
  89:Generated_Source\PSoC5/USBUART_pm.c **** * Reentrant:
  90:Generated_Source\PSoC5/USBUART_pm.c **** *  No.
  91:Generated_Source\PSoC5/USBUART_pm.c **** *
  92:Generated_Source\PSoC5/USBUART_pm.c **** *******************************************************************************/
  93:Generated_Source\PSoC5/USBUART_pm.c **** void USBUART_SaveConfig(void) 
  94:Generated_Source\PSoC5/USBUART_pm.c **** {
  69              		.loc 1 94 0
  70              		.cfi_startproc
  71              		@ args = 0, pretend = 0, frame = 0
  72              		@ frame_needed = 1, uses_anonymous_args = 0
  73              		@ link register save eliminated.
  74 0000 80B4     		push	{r7}
  75              		.cfi_def_cfa_offset 4
  76              		.cfi_offset 7, -4
  77 0002 00AF     		add	r7, sp, #0
ARM GAS  C:\Users\MARTHN~1\AppData\Local\Temp\ccH64qNm.s 			page 4


  78              		.cfi_def_cfa_register 7
  95:Generated_Source\PSoC5/USBUART_pm.c **** 
  96:Generated_Source\PSoC5/USBUART_pm.c **** }
  79              		.loc 1 96 0
  80 0004 00BF     		nop
  81 0006 BD46     		mov	sp, r7
  82              		.cfi_def_cfa_register 13
  83              		@ sp needed
  84 0008 80BC     		pop	{r7}
  85              		.cfi_restore 7
  86              		.cfi_def_cfa_offset 0
  87 000a 7047     		bx	lr
  88              		.cfi_endproc
  89              	.LFE64:
  90              		.size	USBUART_SaveConfig, .-USBUART_SaveConfig
  91              		.section	.text.USBUART_RestoreConfig,"ax",%progbits
  92              		.align	2
  93              		.global	USBUART_RestoreConfig
  94              		.thumb
  95              		.thumb_func
  96              		.type	USBUART_RestoreConfig, %function
  97              	USBUART_RestoreConfig:
  98              	.LFB65:
  97:Generated_Source\PSoC5/USBUART_pm.c **** 
  98:Generated_Source\PSoC5/USBUART_pm.c **** 
  99:Generated_Source\PSoC5/USBUART_pm.c **** /*******************************************************************************
 100:Generated_Source\PSoC5/USBUART_pm.c **** * Function Name: USBUART_RestoreConfig
 101:Generated_Source\PSoC5/USBUART_pm.c **** ********************************************************************************
 102:Generated_Source\PSoC5/USBUART_pm.c **** *
 103:Generated_Source\PSoC5/USBUART_pm.c **** * Summary:
 104:Generated_Source\PSoC5/USBUART_pm.c **** *  Restores the current user configuration.
 105:Generated_Source\PSoC5/USBUART_pm.c **** *
 106:Generated_Source\PSoC5/USBUART_pm.c **** * Parameters:
 107:Generated_Source\PSoC5/USBUART_pm.c **** *  None.
 108:Generated_Source\PSoC5/USBUART_pm.c **** *
 109:Generated_Source\PSoC5/USBUART_pm.c **** * Return:
 110:Generated_Source\PSoC5/USBUART_pm.c **** *  None.
 111:Generated_Source\PSoC5/USBUART_pm.c **** *
 112:Generated_Source\PSoC5/USBUART_pm.c **** * Reentrant:
 113:Generated_Source\PSoC5/USBUART_pm.c **** *  No.
 114:Generated_Source\PSoC5/USBUART_pm.c **** *
 115:Generated_Source\PSoC5/USBUART_pm.c **** *******************************************************************************/
 116:Generated_Source\PSoC5/USBUART_pm.c **** void USBUART_RestoreConfig(void) 
 117:Generated_Source\PSoC5/USBUART_pm.c **** {
  99              		.loc 1 117 0
 100              		.cfi_startproc
 101              		@ args = 0, pretend = 0, frame = 0
 102              		@ frame_needed = 1, uses_anonymous_args = 0
 103 0000 80B5     		push	{r7, lr}
 104              		.cfi_def_cfa_offset 8
 105              		.cfi_offset 7, -8
 106              		.cfi_offset 14, -4
 107 0002 00AF     		add	r7, sp, #0
 108              		.cfi_def_cfa_register 7
 118:Generated_Source\PSoC5/USBUART_pm.c ****     if(USBUART_configuration != 0u)
 109              		.loc 1 118 0
 110 0004 044B     		ldr	r3, .L8
ARM GAS  C:\Users\MARTHN~1\AppData\Local\Temp\ccH64qNm.s 			page 5


 111 0006 1B78     		ldrb	r3, [r3]
 112 0008 DBB2     		uxtb	r3, r3
 113 000a 002B     		cmp	r3, #0
 114 000c 01D0     		beq	.L7
 119:Generated_Source\PSoC5/USBUART_pm.c ****     {
 120:Generated_Source\PSoC5/USBUART_pm.c ****         USBUART_ConfigReg();
 115              		.loc 1 120 0
 116 000e FFF7FEFF 		bl	USBUART_ConfigReg
 117              	.L7:
 121:Generated_Source\PSoC5/USBUART_pm.c ****     }
 122:Generated_Source\PSoC5/USBUART_pm.c **** }
 118              		.loc 1 122 0
 119 0012 00BF     		nop
 120 0014 80BD     		pop	{r7, pc}
 121              	.L9:
 122 0016 00BF     		.align	2
 123              	.L8:
 124 0018 00000000 		.word	USBUART_configuration
 125              		.cfi_endproc
 126              	.LFE65:
 127              		.size	USBUART_RestoreConfig, .-USBUART_RestoreConfig
 128              		.section	.text.USBUART_Suspend,"ax",%progbits
 129              		.align	2
 130              		.global	USBUART_Suspend
 131              		.thumb
 132              		.thumb_func
 133              		.type	USBUART_Suspend, %function
 134              	USBUART_Suspend:
 135              	.LFB66:
 123:Generated_Source\PSoC5/USBUART_pm.c **** 
 124:Generated_Source\PSoC5/USBUART_pm.c **** 
 125:Generated_Source\PSoC5/USBUART_pm.c **** /*******************************************************************************
 126:Generated_Source\PSoC5/USBUART_pm.c **** * Function Name: USBUART_Suspend
 127:Generated_Source\PSoC5/USBUART_pm.c **** ********************************************************************************
 128:Generated_Source\PSoC5/USBUART_pm.c **** *
 129:Generated_Source\PSoC5/USBUART_pm.c **** * Summary:
 130:Generated_Source\PSoC5/USBUART_pm.c **** *  This function disables the USBFS block and prepares for power down mode.
 131:Generated_Source\PSoC5/USBUART_pm.c **** *
 132:Generated_Source\PSoC5/USBUART_pm.c **** * Parameters:
 133:Generated_Source\PSoC5/USBUART_pm.c **** *  None.
 134:Generated_Source\PSoC5/USBUART_pm.c **** *
 135:Generated_Source\PSoC5/USBUART_pm.c **** * Return:
 136:Generated_Source\PSoC5/USBUART_pm.c **** *   None.
 137:Generated_Source\PSoC5/USBUART_pm.c **** *
 138:Generated_Source\PSoC5/USBUART_pm.c **** * Global variables:
 139:Generated_Source\PSoC5/USBUART_pm.c **** *  USBUART_backup.enable:  modified.
 140:Generated_Source\PSoC5/USBUART_pm.c **** *
 141:Generated_Source\PSoC5/USBUART_pm.c **** * Reentrant:
 142:Generated_Source\PSoC5/USBUART_pm.c **** *  No.
 143:Generated_Source\PSoC5/USBUART_pm.c **** *
 144:Generated_Source\PSoC5/USBUART_pm.c **** *******************************************************************************/
 145:Generated_Source\PSoC5/USBUART_pm.c **** void USBUART_Suspend(void) 
 146:Generated_Source\PSoC5/USBUART_pm.c **** {
 136              		.loc 1 146 0
 137              		.cfi_startproc
 138              		@ args = 0, pretend = 0, frame = 8
 139              		@ frame_needed = 1, uses_anonymous_args = 0
ARM GAS  C:\Users\MARTHN~1\AppData\Local\Temp\ccH64qNm.s 			page 6


 140 0000 80B5     		push	{r7, lr}
 141              		.cfi_def_cfa_offset 8
 142              		.cfi_offset 7, -8
 143              		.cfi_offset 14, -4
 144 0002 82B0     		sub	sp, sp, #8
 145              		.cfi_def_cfa_offset 16
 146 0004 00AF     		add	r7, sp, #0
 147              		.cfi_def_cfa_register 7
 147:Generated_Source\PSoC5/USBUART_pm.c ****     uint8 enableInterrupts;
 148:Generated_Source\PSoC5/USBUART_pm.c ****     enableInterrupts = CyEnterCriticalSection();
 148              		.loc 1 148 0
 149 0006 FFF7FEFF 		bl	CyEnterCriticalSection
 150 000a 0346     		mov	r3, r0
 151 000c FB71     		strb	r3, [r7, #7]
 149:Generated_Source\PSoC5/USBUART_pm.c **** 
 150:Generated_Source\PSoC5/USBUART_pm.c ****     if((CY_GET_REG8(USBUART_CR0_PTR) & USBUART_CR0_ENABLE) != 0u)
 152              		.loc 1 150 0
 153 000e 3C4B     		ldr	r3, .L13
 154 0010 1B78     		ldrb	r3, [r3]
 155 0012 DBB2     		uxtb	r3, r3
 156 0014 5BB2     		sxtb	r3, r3
 157 0016 002B     		cmp	r3, #0
 158 0018 57DA     		bge	.L11
 151:Generated_Source\PSoC5/USBUART_pm.c ****     {   /* USB block is enabled */
 152:Generated_Source\PSoC5/USBUART_pm.c ****         USBUART_backup.enableState = 1u;
 159              		.loc 1 152 0
 160 001a 3A4B     		ldr	r3, .L13+4
 161 001c 0122     		movs	r2, #1
 162 001e 1A70     		strb	r2, [r3]
 153:Generated_Source\PSoC5/USBUART_pm.c **** 
 154:Generated_Source\PSoC5/USBUART_pm.c ****         #if(USBUART_EP_MM != USBUART__EP_MANUAL)
 155:Generated_Source\PSoC5/USBUART_pm.c ****             USBUART_Stop_DMA(USBUART_MAX_EP);     /* Stop all DMAs */
 156:Generated_Source\PSoC5/USBUART_pm.c ****         #endif   /*  USBUART_EP_MM != USBUART__EP_MANUAL */
 157:Generated_Source\PSoC5/USBUART_pm.c **** 
 158:Generated_Source\PSoC5/USBUART_pm.c ****         /* Ensure USB transmit enable is low (USB_USBIO_CR0.ten). - Manual Transmission - Disabled 
 159:Generated_Source\PSoC5/USBUART_pm.c ****         USBUART_USBIO_CR0_REG &= (uint8)~USBUART_USBIO_CR0_TEN;
 163              		.loc 1 159 0
 164 0020 394A     		ldr	r2, .L13+8
 165 0022 394B     		ldr	r3, .L13+8
 166 0024 1B78     		ldrb	r3, [r3]
 167 0026 DBB2     		uxtb	r3, r3
 168 0028 03F07F03 		and	r3, r3, #127
 169 002c DBB2     		uxtb	r3, r3
 170 002e 1370     		strb	r3, [r2]
 160:Generated_Source\PSoC5/USBUART_pm.c ****         CyDelayUs(0u);  /*~50ns delay */
 171              		.loc 1 160 0
 172 0030 0020     		movs	r0, #0
 173 0032 FFF7FEFF 		bl	CyDelayUs
 161:Generated_Source\PSoC5/USBUART_pm.c **** 
 162:Generated_Source\PSoC5/USBUART_pm.c ****         /* Disable the USBIO by asserting PM.USB_CR0.fsusbio_pd_n(Inverted) and pd_pullup_hv(Invert
 163:Generated_Source\PSoC5/USBUART_pm.c ****         USBUART_PM_USB_CR0_REG &=
 174              		.loc 1 163 0
 175 0036 354A     		ldr	r2, .L13+12
 176 0038 344B     		ldr	r3, .L13+12
 177 003a 1B78     		ldrb	r3, [r3]
 178 003c DBB2     		uxtb	r3, r3
 179 003e 23F00603 		bic	r3, r3, #6
ARM GAS  C:\Users\MARTHN~1\AppData\Local\Temp\ccH64qNm.s 			page 7


 180 0042 DBB2     		uxtb	r3, r3
 181 0044 1370     		strb	r3, [r2]
 164:Generated_Source\PSoC5/USBUART_pm.c ****                                 (uint8)~(USBUART_PM_USB_CR0_PD_N | USBUART_PM_USB_CR0_PD_PULLUP_N);
 165:Generated_Source\PSoC5/USBUART_pm.c **** 
 166:Generated_Source\PSoC5/USBUART_pm.c ****         /* Disable the SIE */
 167:Generated_Source\PSoC5/USBUART_pm.c ****         USBUART_CR0_REG &= (uint8)~USBUART_CR0_ENABLE;
 182              		.loc 1 167 0
 183 0046 2E4A     		ldr	r2, .L13
 184 0048 2D4B     		ldr	r3, .L13
 185 004a 1B78     		ldrb	r3, [r3]
 186 004c DBB2     		uxtb	r3, r3
 187 004e 03F07F03 		and	r3, r3, #127
 188 0052 DBB2     		uxtb	r3, r3
 189 0054 1370     		strb	r3, [r2]
 168:Generated_Source\PSoC5/USBUART_pm.c **** 
 169:Generated_Source\PSoC5/USBUART_pm.c ****         CyDelayUs(0u);  /* ~50ns delay */
 190              		.loc 1 169 0
 191 0056 0020     		movs	r0, #0
 192 0058 FFF7FEFF 		bl	CyDelayUs
 170:Generated_Source\PSoC5/USBUART_pm.c ****         /* Store mode and Disable VRegulator*/
 171:Generated_Source\PSoC5/USBUART_pm.c ****         USBUART_backup.mode = USBUART_CR1_REG & USBUART_CR1_REG_ENABLE;
 193              		.loc 1 171 0
 194 005c 2C4B     		ldr	r3, .L13+16
 195 005e 1B78     		ldrb	r3, [r3]
 196 0060 DBB2     		uxtb	r3, r3
 197 0062 03F00103 		and	r3, r3, #1
 198 0066 DAB2     		uxtb	r2, r3
 199 0068 264B     		ldr	r3, .L13+4
 200 006a 5A70     		strb	r2, [r3, #1]
 172:Generated_Source\PSoC5/USBUART_pm.c ****         USBUART_CR1_REG &= (uint8)~USBUART_CR1_REG_ENABLE;
 201              		.loc 1 172 0
 202 006c 284A     		ldr	r2, .L13+16
 203 006e 284B     		ldr	r3, .L13+16
 204 0070 1B78     		ldrb	r3, [r3]
 205 0072 DBB2     		uxtb	r3, r3
 206 0074 23F00103 		bic	r3, r3, #1
 207 0078 DBB2     		uxtb	r3, r3
 208 007a 1370     		strb	r3, [r2]
 173:Generated_Source\PSoC5/USBUART_pm.c **** 
 174:Generated_Source\PSoC5/USBUART_pm.c ****         CyDelayUs(1u);  /* 0.5 us min delay */
 209              		.loc 1 174 0
 210 007c 0120     		movs	r0, #1
 211 007e FFF7FEFF 		bl	CyDelayUs
 175:Generated_Source\PSoC5/USBUART_pm.c ****         /* Disable the USBIO reference by setting PM.USB_CR0.fsusbio_ref_en.*/
 176:Generated_Source\PSoC5/USBUART_pm.c ****         USBUART_PM_USB_CR0_REG &= (uint8)~USBUART_PM_USB_CR0_REF_EN;
 212              		.loc 1 176 0
 213 0082 224A     		ldr	r2, .L13+12
 214 0084 214B     		ldr	r3, .L13+12
 215 0086 1B78     		ldrb	r3, [r3]
 216 0088 DBB2     		uxtb	r3, r3
 217 008a 23F00103 		bic	r3, r3, #1
 218 008e DBB2     		uxtb	r3, r3
 219 0090 1370     		strb	r3, [r2]
 177:Generated_Source\PSoC5/USBUART_pm.c **** 
 178:Generated_Source\PSoC5/USBUART_pm.c ****         /* Switch DP and DM terminals to GPIO mode and disconnect 1.5k pullup*/
 179:Generated_Source\PSoC5/USBUART_pm.c ****         USBUART_USBIO_CR1_REG |= USBUART_USBIO_CR1_IOMODE;
 220              		.loc 1 179 0
ARM GAS  C:\Users\MARTHN~1\AppData\Local\Temp\ccH64qNm.s 			page 8


 221 0092 204A     		ldr	r2, .L13+20
 222 0094 1F4B     		ldr	r3, .L13+20
 223 0096 1B78     		ldrb	r3, [r3]
 224 0098 DBB2     		uxtb	r3, r3
 225 009a 43F02003 		orr	r3, r3, #32
 226 009e DBB2     		uxtb	r3, r3
 227 00a0 1370     		strb	r3, [r2]
 180:Generated_Source\PSoC5/USBUART_pm.c **** 
 181:Generated_Source\PSoC5/USBUART_pm.c ****         /* Disable USB in ACT PM */
 182:Generated_Source\PSoC5/USBUART_pm.c ****         USBUART_PM_ACT_CFG_REG &= (uint8)~USBUART_PM_ACT_EN_FSUSB;
 228              		.loc 1 182 0
 229 00a2 1D4A     		ldr	r2, .L13+24
 230 00a4 1C4B     		ldr	r3, .L13+24
 231 00a6 1B78     		ldrb	r3, [r3]
 232 00a8 DBB2     		uxtb	r3, r3
 233 00aa 23F00103 		bic	r3, r3, #1
 234 00ae DBB2     		uxtb	r3, r3
 235 00b0 1370     		strb	r3, [r2]
 183:Generated_Source\PSoC5/USBUART_pm.c ****         /* Disable USB block for Standby Power Mode */
 184:Generated_Source\PSoC5/USBUART_pm.c ****         USBUART_PM_STBY_CFG_REG &= (uint8)~USBUART_PM_STBY_EN_FSUSB;
 236              		.loc 1 184 0
 237 00b2 1A4A     		ldr	r2, .L13+28
 238 00b4 194B     		ldr	r3, .L13+28
 239 00b6 1B78     		ldrb	r3, [r3]
 240 00b8 DBB2     		uxtb	r3, r3
 241 00ba 23F00103 		bic	r3, r3, #1
 242 00be DBB2     		uxtb	r3, r3
 243 00c0 1370     		strb	r3, [r2]
 185:Generated_Source\PSoC5/USBUART_pm.c ****         CyDelayUs(1u); /* min  0.5us delay required */
 244              		.loc 1 185 0
 245 00c2 0120     		movs	r0, #1
 246 00c4 FFF7FEFF 		bl	CyDelayUs
 247 00c8 02E0     		b	.L12
 248              	.L11:
 186:Generated_Source\PSoC5/USBUART_pm.c **** 
 187:Generated_Source\PSoC5/USBUART_pm.c ****     }
 188:Generated_Source\PSoC5/USBUART_pm.c ****     else
 189:Generated_Source\PSoC5/USBUART_pm.c ****     {
 190:Generated_Source\PSoC5/USBUART_pm.c ****         USBUART_backup.enableState = 0u;
 249              		.loc 1 190 0
 250 00ca 0E4B     		ldr	r3, .L13+4
 251 00cc 0022     		movs	r2, #0
 252 00ce 1A70     		strb	r2, [r3]
 253              	.L12:
 191:Generated_Source\PSoC5/USBUART_pm.c ****     }
 192:Generated_Source\PSoC5/USBUART_pm.c **** 
 193:Generated_Source\PSoC5/USBUART_pm.c ****     CyExitCriticalSection(enableInterrupts);
 254              		.loc 1 193 0
 255 00d0 FB79     		ldrb	r3, [r7, #7]	@ zero_extendqisi2
 256 00d2 1846     		mov	r0, r3
 257 00d4 FFF7FEFF 		bl	CyExitCriticalSection
 194:Generated_Source\PSoC5/USBUART_pm.c **** 
 195:Generated_Source\PSoC5/USBUART_pm.c ****     /* Set the DP Interrupt for wake-up from sleep mode. */
 196:Generated_Source\PSoC5/USBUART_pm.c ****     #if(USBUART_DP_ISR_REMOVE == 0u)
 197:Generated_Source\PSoC5/USBUART_pm.c ****         (void) CyIntSetVector(USBUART_DP_INTC_VECT_NUM, &USBUART_DP_ISR);
 258              		.loc 1 197 0
 259 00d8 1149     		ldr	r1, .L13+32
ARM GAS  C:\Users\MARTHN~1\AppData\Local\Temp\ccH64qNm.s 			page 9


 260 00da 0C20     		movs	r0, #12
 261 00dc FFF7FEFF 		bl	CyIntSetVector
 198:Generated_Source\PSoC5/USBUART_pm.c ****         CyIntSetPriority(USBUART_DP_INTC_VECT_NUM, USBUART_DP_INTC_PRIOR);
 262              		.loc 1 198 0
 263 00e0 0721     		movs	r1, #7
 264 00e2 0C20     		movs	r0, #12
 265 00e4 FFF7FEFF 		bl	CyIntSetPriority
 199:Generated_Source\PSoC5/USBUART_pm.c ****         CyIntClearPending(USBUART_DP_INTC_VECT_NUM);
 266              		.loc 1 199 0
 267 00e8 0E4B     		ldr	r3, .L13+36
 268 00ea 4FF48052 		mov	r2, #4096
 269 00ee 1A60     		str	r2, [r3]
 200:Generated_Source\PSoC5/USBUART_pm.c ****         CyIntEnable(USBUART_DP_INTC_VECT_NUM);
 270              		.loc 1 200 0
 271 00f0 0D4B     		ldr	r3, .L13+40
 272 00f2 4FF48052 		mov	r2, #4096
 273 00f6 1A60     		str	r2, [r3]
 201:Generated_Source\PSoC5/USBUART_pm.c ****     #endif /* (USBUART_DP_ISR_REMOVE == 0u) */
 202:Generated_Source\PSoC5/USBUART_pm.c **** }
 274              		.loc 1 202 0
 275 00f8 00BF     		nop
 276 00fa 0837     		adds	r7, r7, #8
 277              		.cfi_def_cfa_offset 8
 278 00fc BD46     		mov	sp, r7
 279              		.cfi_def_cfa_register 13
 280              		@ sp needed
 281 00fe 80BD     		pop	{r7, pc}
 282              	.L14:
 283              		.align	2
 284              	.L13:
 285 0100 08600040 		.word	1073766408
 286 0104 00000000 		.word	USBUART_backup
 287 0108 10600040 		.word	1073766416
 288 010c 94430040 		.word	1073759124
 289 0110 09600040 		.word	1073766409
 290 0114 12600040 		.word	1073766418
 291 0118 A5430040 		.word	1073759141
 292 011c B5430040 		.word	1073759157
 293 0120 00000000 		.word	USBUART_DP_ISR
 294 0124 80E200E0 		.word	-536812928
 295 0128 00E100E0 		.word	-536813312
 296              		.cfi_endproc
 297              	.LFE66:
 298              		.size	USBUART_Suspend, .-USBUART_Suspend
 299              		.section	.text.USBUART_Resume,"ax",%progbits
 300              		.align	2
 301              		.global	USBUART_Resume
 302              		.thumb
 303              		.thumb_func
 304              		.type	USBUART_Resume, %function
 305              	USBUART_Resume:
 306              	.LFB67:
 203:Generated_Source\PSoC5/USBUART_pm.c **** 
 204:Generated_Source\PSoC5/USBUART_pm.c **** 
 205:Generated_Source\PSoC5/USBUART_pm.c **** /*******************************************************************************
 206:Generated_Source\PSoC5/USBUART_pm.c **** * Function Name: USBUART_Resume
 207:Generated_Source\PSoC5/USBUART_pm.c **** ********************************************************************************
ARM GAS  C:\Users\MARTHN~1\AppData\Local\Temp\ccH64qNm.s 			page 10


 208:Generated_Source\PSoC5/USBUART_pm.c **** *
 209:Generated_Source\PSoC5/USBUART_pm.c **** * Summary:
 210:Generated_Source\PSoC5/USBUART_pm.c **** *  This function enables the USBFS block after power down mode.
 211:Generated_Source\PSoC5/USBUART_pm.c **** *
 212:Generated_Source\PSoC5/USBUART_pm.c **** * Parameters:
 213:Generated_Source\PSoC5/USBUART_pm.c **** *  None.
 214:Generated_Source\PSoC5/USBUART_pm.c **** *
 215:Generated_Source\PSoC5/USBUART_pm.c **** * Return:
 216:Generated_Source\PSoC5/USBUART_pm.c **** *  None.
 217:Generated_Source\PSoC5/USBUART_pm.c **** *
 218:Generated_Source\PSoC5/USBUART_pm.c **** * Global variables:
 219:Generated_Source\PSoC5/USBUART_pm.c **** *  USBUART_backup - checked.
 220:Generated_Source\PSoC5/USBUART_pm.c **** *
 221:Generated_Source\PSoC5/USBUART_pm.c **** * Reentrant:
 222:Generated_Source\PSoC5/USBUART_pm.c **** *  No.
 223:Generated_Source\PSoC5/USBUART_pm.c **** *
 224:Generated_Source\PSoC5/USBUART_pm.c **** *******************************************************************************/
 225:Generated_Source\PSoC5/USBUART_pm.c **** void USBUART_Resume(void) 
 226:Generated_Source\PSoC5/USBUART_pm.c **** {
 307              		.loc 1 226 0
 308              		.cfi_startproc
 309              		@ args = 0, pretend = 0, frame = 8
 310              		@ frame_needed = 1, uses_anonymous_args = 0
 311 0000 80B5     		push	{r7, lr}
 312              		.cfi_def_cfa_offset 8
 313              		.cfi_offset 7, -8
 314              		.cfi_offset 14, -4
 315 0002 82B0     		sub	sp, sp, #8
 316              		.cfi_def_cfa_offset 16
 317 0004 00AF     		add	r7, sp, #0
 318              		.cfi_def_cfa_register 7
 227:Generated_Source\PSoC5/USBUART_pm.c ****     uint8 enableInterrupts;
 228:Generated_Source\PSoC5/USBUART_pm.c ****     enableInterrupts = CyEnterCriticalSection();
 319              		.loc 1 228 0
 320 0006 FFF7FEFF 		bl	CyEnterCriticalSection
 321 000a 0346     		mov	r3, r0
 322 000c FB71     		strb	r3, [r7, #7]
 229:Generated_Source\PSoC5/USBUART_pm.c **** 
 230:Generated_Source\PSoC5/USBUART_pm.c ****     if(USBUART_backup.enableState != 0u)
 323              		.loc 1 230 0
 324 000e 324B     		ldr	r3, .L17
 325 0010 1B78     		ldrb	r3, [r3]	@ zero_extendqisi2
 326 0012 002B     		cmp	r3, #0
 327 0014 58D0     		beq	.L16
 231:Generated_Source\PSoC5/USBUART_pm.c ****     {
 232:Generated_Source\PSoC5/USBUART_pm.c ****         #if(USBUART_DP_ISR_REMOVE == 0u)
 233:Generated_Source\PSoC5/USBUART_pm.c ****             CyIntDisable(USBUART_DP_INTC_VECT_NUM);
 328              		.loc 1 233 0
 329 0016 314B     		ldr	r3, .L17+4
 330 0018 4FF48052 		mov	r2, #4096
 331 001c 1A60     		str	r2, [r3]
 234:Generated_Source\PSoC5/USBUART_pm.c ****         #endif /*  USBUART_DP_ISR_REMOVE */
 235:Generated_Source\PSoC5/USBUART_pm.c **** 
 236:Generated_Source\PSoC5/USBUART_pm.c ****         /* Enable USB block */
 237:Generated_Source\PSoC5/USBUART_pm.c ****         USBUART_PM_ACT_CFG_REG |= USBUART_PM_ACT_EN_FSUSB;
 332              		.loc 1 237 0
 333 001e 304A     		ldr	r2, .L17+8
ARM GAS  C:\Users\MARTHN~1\AppData\Local\Temp\ccH64qNm.s 			page 11


 334 0020 2F4B     		ldr	r3, .L17+8
 335 0022 1B78     		ldrb	r3, [r3]
 336 0024 DBB2     		uxtb	r3, r3
 337 0026 43F00103 		orr	r3, r3, #1
 338 002a DBB2     		uxtb	r3, r3
 339 002c 1370     		strb	r3, [r2]
 238:Generated_Source\PSoC5/USBUART_pm.c ****         /* Enable USB block for Standby Power Mode */
 239:Generated_Source\PSoC5/USBUART_pm.c ****         USBUART_PM_STBY_CFG_REG |= USBUART_PM_STBY_EN_FSUSB;
 340              		.loc 1 239 0
 341 002e 2D4A     		ldr	r2, .L17+12
 342 0030 2C4B     		ldr	r3, .L17+12
 343 0032 1B78     		ldrb	r3, [r3]
 344 0034 DBB2     		uxtb	r3, r3
 345 0036 43F00103 		orr	r3, r3, #1
 346 003a DBB2     		uxtb	r3, r3
 347 003c 1370     		strb	r3, [r2]
 240:Generated_Source\PSoC5/USBUART_pm.c ****         /* Enable core clock */
 241:Generated_Source\PSoC5/USBUART_pm.c ****         USBUART_USB_CLK_EN_REG |= USBUART_USB_CLK_ENABLE;
 348              		.loc 1 241 0
 349 003e 2A4A     		ldr	r2, .L17+16
 350 0040 294B     		ldr	r3, .L17+16
 351 0042 1B78     		ldrb	r3, [r3]
 352 0044 DBB2     		uxtb	r3, r3
 353 0046 43F00103 		orr	r3, r3, #1
 354 004a DBB2     		uxtb	r3, r3
 355 004c 1370     		strb	r3, [r2]
 242:Generated_Source\PSoC5/USBUART_pm.c **** 
 243:Generated_Source\PSoC5/USBUART_pm.c ****         /* Enable the USBIO reference by setting PM.USB_CR0.fsusbio_ref_en.*/
 244:Generated_Source\PSoC5/USBUART_pm.c ****         USBUART_PM_USB_CR0_REG |= USBUART_PM_USB_CR0_REF_EN;
 356              		.loc 1 244 0
 357 004e 274A     		ldr	r2, .L17+20
 358 0050 264B     		ldr	r3, .L17+20
 359 0052 1B78     		ldrb	r3, [r3]
 360 0054 DBB2     		uxtb	r3, r3
 361 0056 43F00103 		orr	r3, r3, #1
 362 005a DBB2     		uxtb	r3, r3
 363 005c 1370     		strb	r3, [r2]
 245:Generated_Source\PSoC5/USBUART_pm.c ****         /* The reference will be available ~40us after power restored */
 246:Generated_Source\PSoC5/USBUART_pm.c ****         CyDelayUs(40u);
 364              		.loc 1 246 0
 365 005e 2820     		movs	r0, #40
 366 0060 FFF7FEFF 		bl	CyDelayUs
 247:Generated_Source\PSoC5/USBUART_pm.c ****         /* Return VRegulator*/
 248:Generated_Source\PSoC5/USBUART_pm.c ****         USBUART_CR1_REG |= USBUART_backup.mode;
 367              		.loc 1 248 0
 368 0064 2249     		ldr	r1, .L17+24
 369 0066 224B     		ldr	r3, .L17+24
 370 0068 1B78     		ldrb	r3, [r3]
 371 006a DAB2     		uxtb	r2, r3
 372 006c 1A4B     		ldr	r3, .L17
 373 006e 5B78     		ldrb	r3, [r3, #1]	@ zero_extendqisi2
 374 0070 1343     		orrs	r3, r3, r2
 375 0072 DBB2     		uxtb	r3, r3
 376 0074 0B70     		strb	r3, [r1]
 249:Generated_Source\PSoC5/USBUART_pm.c ****         CyDelayUs(0u);  /*~50ns delay */
 377              		.loc 1 249 0
 378 0076 0020     		movs	r0, #0
ARM GAS  C:\Users\MARTHN~1\AppData\Local\Temp\ccH64qNm.s 			page 12


 379 0078 FFF7FEFF 		bl	CyDelayUs
 250:Generated_Source\PSoC5/USBUART_pm.c ****         /* Enable USBIO */
 251:Generated_Source\PSoC5/USBUART_pm.c ****         USBUART_PM_USB_CR0_REG |= USBUART_PM_USB_CR0_PD_N;
 380              		.loc 1 251 0
 381 007c 1B4A     		ldr	r2, .L17+20
 382 007e 1B4B     		ldr	r3, .L17+20
 383 0080 1B78     		ldrb	r3, [r3]
 384 0082 DBB2     		uxtb	r3, r3
 385 0084 43F00203 		orr	r3, r3, #2
 386 0088 DBB2     		uxtb	r3, r3
 387 008a 1370     		strb	r3, [r2]
 252:Generated_Source\PSoC5/USBUART_pm.c ****         CyDelayUs(2u);
 388              		.loc 1 252 0
 389 008c 0220     		movs	r0, #2
 390 008e FFF7FEFF 		bl	CyDelayUs
 253:Generated_Source\PSoC5/USBUART_pm.c ****         /* Set the USBIO pull-up enable */
 254:Generated_Source\PSoC5/USBUART_pm.c ****         USBUART_PM_USB_CR0_REG |= USBUART_PM_USB_CR0_PD_PULLUP_N;
 391              		.loc 1 254 0
 392 0092 164A     		ldr	r2, .L17+20
 393 0094 154B     		ldr	r3, .L17+20
 394 0096 1B78     		ldrb	r3, [r3]
 395 0098 DBB2     		uxtb	r3, r3
 396 009a 43F00403 		orr	r3, r3, #4
 397 009e DBB2     		uxtb	r3, r3
 398 00a0 1370     		strb	r3, [r2]
 255:Generated_Source\PSoC5/USBUART_pm.c **** 
 256:Generated_Source\PSoC5/USBUART_pm.c ****         /* Re-init Arbiter configuration for DMA transfers */
 257:Generated_Source\PSoC5/USBUART_pm.c ****         #if(USBUART_EP_MM != USBUART__EP_MANUAL)
 258:Generated_Source\PSoC5/USBUART_pm.c ****             /* Usb arb interrupt enable */
 259:Generated_Source\PSoC5/USBUART_pm.c ****             USBUART_ARB_INT_EN_REG = USBUART_ARB_INT_MASK;
 260:Generated_Source\PSoC5/USBUART_pm.c ****             #if(USBUART_EP_MM == USBUART__EP_DMAMANUAL)
 261:Generated_Source\PSoC5/USBUART_pm.c ****                 USBUART_ARB_CFG_REG = USBUART_ARB_CFG_MANUAL_DMA;
 262:Generated_Source\PSoC5/USBUART_pm.c ****             #endif   /*  USBUART_EP_MM == USBUART__EP_DMAMANUAL */
 263:Generated_Source\PSoC5/USBUART_pm.c ****             #if(USBUART_EP_MM == USBUART__EP_DMAAUTO)
 264:Generated_Source\PSoC5/USBUART_pm.c ****                 /*Set cfg cmplt this rises DMA request when the full configuration is done */
 265:Generated_Source\PSoC5/USBUART_pm.c ****                 USBUART_ARB_CFG_REG = USBUART_ARB_CFG_AUTO_DMA | USBUART_ARB_CFG_AUTO_MEM;
 266:Generated_Source\PSoC5/USBUART_pm.c ****             #endif   /*  USBUART_EP_MM == USBUART__EP_DMAAUTO */
 267:Generated_Source\PSoC5/USBUART_pm.c ****         #endif   /*  USBUART_EP_MM != USBUART__EP_MANUAL */
 268:Generated_Source\PSoC5/USBUART_pm.c **** 
 269:Generated_Source\PSoC5/USBUART_pm.c ****         /* STALL_IN_OUT */
 270:Generated_Source\PSoC5/USBUART_pm.c ****         CY_SET_REG8(USBUART_EP0_CR_PTR, USBUART_MODE_STALL_IN_OUT);
 399              		.loc 1 270 0
 400 00a2 144B     		ldr	r3, .L17+28
 401 00a4 0322     		movs	r2, #3
 402 00a6 1A70     		strb	r2, [r3]
 271:Generated_Source\PSoC5/USBUART_pm.c ****         /* Enable the SIE with a last address */
 272:Generated_Source\PSoC5/USBUART_pm.c ****         USBUART_CR0_REG |= USBUART_CR0_ENABLE;
 403              		.loc 1 272 0
 404 00a8 134A     		ldr	r2, .L17+32
 405 00aa 134B     		ldr	r3, .L17+32
 406 00ac 1B78     		ldrb	r3, [r3]
 407 00ae DBB2     		uxtb	r3, r3
 408 00b0 63F07F03 		orn	r3, r3, #127
 409 00b4 DBB2     		uxtb	r3, r3
 410 00b6 1370     		strb	r3, [r2]
 273:Generated_Source\PSoC5/USBUART_pm.c ****         CyDelayCycles(1u);
 411              		.loc 1 273 0
ARM GAS  C:\Users\MARTHN~1\AppData\Local\Temp\ccH64qNm.s 			page 13


 412 00b8 0120     		movs	r0, #1
 413 00ba FFF7FEFF 		bl	CyDelayCycles
 274:Generated_Source\PSoC5/USBUART_pm.c ****         /* Finally, Enable d+ pullup and select iomode to USB mode*/
 275:Generated_Source\PSoC5/USBUART_pm.c ****         CY_SET_REG8(USBUART_USBIO_CR1_PTR, USBUART_USBIO_CR1_USBPUEN);
 414              		.loc 1 275 0
 415 00be 0F4B     		ldr	r3, .L17+36
 416 00c0 0422     		movs	r2, #4
 417 00c2 1A70     		strb	r2, [r3]
 276:Generated_Source\PSoC5/USBUART_pm.c **** 
 277:Generated_Source\PSoC5/USBUART_pm.c ****         /* Restore USB register settings */
 278:Generated_Source\PSoC5/USBUART_pm.c ****         USBUART_RestoreConfig();
 418              		.loc 1 278 0
 419 00c4 FFF7FEFF 		bl	USBUART_RestoreConfig
 420              	.L16:
 279:Generated_Source\PSoC5/USBUART_pm.c ****     }
 280:Generated_Source\PSoC5/USBUART_pm.c **** 
 281:Generated_Source\PSoC5/USBUART_pm.c ****     CyExitCriticalSection(enableInterrupts);
 421              		.loc 1 281 0
 422 00c8 FB79     		ldrb	r3, [r7, #7]	@ zero_extendqisi2
 423 00ca 1846     		mov	r0, r3
 424 00cc FFF7FEFF 		bl	CyExitCriticalSection
 282:Generated_Source\PSoC5/USBUART_pm.c **** }
 425              		.loc 1 282 0
 426 00d0 00BF     		nop
 427 00d2 0837     		adds	r7, r7, #8
 428              		.cfi_def_cfa_offset 8
 429 00d4 BD46     		mov	sp, r7
 430              		.cfi_def_cfa_register 13
 431              		@ sp needed
 432 00d6 80BD     		pop	{r7, pc}
 433              	.L18:
 434              		.align	2
 435              	.L17:
 436 00d8 00000000 		.word	USBUART_backup
 437 00dc 80E100E0 		.word	-536813184
 438 00e0 A5430040 		.word	1073759141
 439 00e4 B5430040 		.word	1073759157
 440 00e8 9D600040 		.word	1073766557
 441 00ec 94430040 		.word	1073759124
 442 00f0 09600040 		.word	1073766409
 443 00f4 28600040 		.word	1073766440
 444 00f8 08600040 		.word	1073766408
 445 00fc 12600040 		.word	1073766418
 446              		.cfi_endproc
 447              	.LFE67:
 448              		.size	USBUART_Resume, .-USBUART_Resume
 449              		.text
 450              	.Letext0:
 451              		.file 2 "c:\\program files (x86)\\cypress\\psoc creator\\4.2\\psoc creator\\import\\gnu\\arm\\5.4.
 452              		.file 3 "c:\\program files (x86)\\cypress\\psoc creator\\4.2\\psoc creator\\import\\gnu\\arm\\5.4.
 453              		.file 4 "Generated_Source\\PSoC5\\cytypes.h"
 454              		.file 5 "Generated_Source\\PSoC5\\USBUART.h"
 455              		.file 6 "Generated_Source\\PSoC5/core_cm3.h"