ARM GAS  C:\Users\MARTHN~1\AppData\Local\Temp\ccp8lHLI.s 			page 1


   1              		.syntax unified
   2              		.cpu cortex-m3
   3              		.fpu softvfp
   4              		.eabi_attribute 20, 1
   5              		.eabi_attribute 21, 1
   6              		.eabi_attribute 23, 3
   7              		.eabi_attribute 24, 1
   8              		.eabi_attribute 25, 1
   9              		.eabi_attribute 26, 1
  10              		.eabi_attribute 30, 6
  11              		.eabi_attribute 34, 1
  12              		.eabi_attribute 18, 4
  13              		.thumb
  14              		.syntax unified
  15              		.file	"USBUART.c"
  16              		.text
  17              	.Ltext0:
  18              		.cfi_sections	.debug_frame
  19              		.global	USBUART_initVar
  20              		.bss
  21              		.type	USBUART_initVar, %object
  22              		.size	USBUART_initVar, 1
  23              	USBUART_initVar:
  24 0000 00       		.space	1
  25              		.section	.text.USBUART_Start,"ax",%progbits
  26              		.align	2
  27              		.global	USBUART_Start
  28              		.thumb
  29              		.thumb_func
  30              		.type	USBUART_Start, %function
  31              	USBUART_Start:
  32              	.LFB0:
  33              		.file 1 "Generated_Source\\PSoC5\\USBUART.c"
   1:Generated_Source\PSoC5/USBUART.c **** /*******************************************************************************
   2:Generated_Source\PSoC5/USBUART.c **** * File Name: USBUART.c
   3:Generated_Source\PSoC5/USBUART.c **** * Version 2.80
   4:Generated_Source\PSoC5/USBUART.c **** *
   5:Generated_Source\PSoC5/USBUART.c **** * Description:
   6:Generated_Source\PSoC5/USBUART.c **** *  API for USBFS Component.
   7:Generated_Source\PSoC5/USBUART.c **** *
   8:Generated_Source\PSoC5/USBUART.c **** * Note:
   9:Generated_Source\PSoC5/USBUART.c **** *  Many of the functions use endpoint number.  RAM arrays are sized with 9
  10:Generated_Source\PSoC5/USBUART.c **** *  elements so they are indexed directly by epNumber.  The SIE and ARB
  11:Generated_Source\PSoC5/USBUART.c **** *  registers are indexed by variations of epNumber - 1.
  12:Generated_Source\PSoC5/USBUART.c **** *
  13:Generated_Source\PSoC5/USBUART.c **** ********************************************************************************
  14:Generated_Source\PSoC5/USBUART.c **** * Copyright 2008-2014, Cypress Semiconductor Corporation.  All rights reserved.
  15:Generated_Source\PSoC5/USBUART.c **** * You may use this file only in accordance with the license, terms, conditions,
  16:Generated_Source\PSoC5/USBUART.c **** * disclaimers, and limitations in the end user license agreement accompanying
  17:Generated_Source\PSoC5/USBUART.c **** * the software package with which this file was provided.
  18:Generated_Source\PSoC5/USBUART.c **** *******************************************************************************/
  19:Generated_Source\PSoC5/USBUART.c **** 
  20:Generated_Source\PSoC5/USBUART.c **** #include <CyDmac.h>
  21:Generated_Source\PSoC5/USBUART.c **** #include "USBUART.h"
  22:Generated_Source\PSoC5/USBUART.c **** #include "USBUART_pvt.h"
  23:Generated_Source\PSoC5/USBUART.c **** #include "USBUART_hid.h"
  24:Generated_Source\PSoC5/USBUART.c **** #if(USBUART_DMA1_REMOVE == 0u)
ARM GAS  C:\Users\MARTHN~1\AppData\Local\Temp\ccp8lHLI.s 			page 2


  25:Generated_Source\PSoC5/USBUART.c ****     #include "USBUART_ep1_dma.h"
  26:Generated_Source\PSoC5/USBUART.c **** #endif   /*  USBUART_DMA1_REMOVE */
  27:Generated_Source\PSoC5/USBUART.c **** #if(USBUART_DMA2_REMOVE == 0u)
  28:Generated_Source\PSoC5/USBUART.c ****     #include "USBUART_ep2_dma.h"
  29:Generated_Source\PSoC5/USBUART.c **** #endif   /*  USBUART_DMA2_REMOVE */
  30:Generated_Source\PSoC5/USBUART.c **** #if(USBUART_DMA3_REMOVE == 0u)
  31:Generated_Source\PSoC5/USBUART.c ****     #include "USBUART_ep3_dma.h"
  32:Generated_Source\PSoC5/USBUART.c **** #endif   /*  USBUART_DMA3_REMOVE */
  33:Generated_Source\PSoC5/USBUART.c **** #if(USBUART_DMA4_REMOVE == 0u)
  34:Generated_Source\PSoC5/USBUART.c ****     #include "USBUART_ep4_dma.h"
  35:Generated_Source\PSoC5/USBUART.c **** #endif   /*  USBUART_DMA4_REMOVE */
  36:Generated_Source\PSoC5/USBUART.c **** #if(USBUART_DMA5_REMOVE == 0u)
  37:Generated_Source\PSoC5/USBUART.c ****     #include "USBUART_ep5_dma.h"
  38:Generated_Source\PSoC5/USBUART.c **** #endif   /*  USBUART_DMA5_REMOVE */
  39:Generated_Source\PSoC5/USBUART.c **** #if(USBUART_DMA6_REMOVE == 0u)
  40:Generated_Source\PSoC5/USBUART.c ****     #include "USBUART_ep6_dma.h"
  41:Generated_Source\PSoC5/USBUART.c **** #endif   /*  USBUART_DMA6_REMOVE */
  42:Generated_Source\PSoC5/USBUART.c **** #if(USBUART_DMA7_REMOVE == 0u)
  43:Generated_Source\PSoC5/USBUART.c ****     #include "USBUART_ep7_dma.h"
  44:Generated_Source\PSoC5/USBUART.c **** #endif   /*  USBUART_DMA7_REMOVE */
  45:Generated_Source\PSoC5/USBUART.c **** #if(USBUART_DMA8_REMOVE == 0u)
  46:Generated_Source\PSoC5/USBUART.c ****     #include "USBUART_ep8_dma.h"
  47:Generated_Source\PSoC5/USBUART.c **** #endif   /*  USBUART_DMA8_REMOVE */
  48:Generated_Source\PSoC5/USBUART.c **** #if((USBUART_EP_MM == USBUART__EP_DMAAUTO) && (USBUART_EP_DMA_AUTO_OPT == 0u))
  49:Generated_Source\PSoC5/USBUART.c ****     #include "USBUART_EP_DMA_Done_isr.h"
  50:Generated_Source\PSoC5/USBUART.c ****     #include "USBUART_EP8_DMA_Done_SR.h"
  51:Generated_Source\PSoC5/USBUART.c ****     #include "USBUART_EP17_DMA_Done_SR.h"
  52:Generated_Source\PSoC5/USBUART.c **** #endif /* ((USBUART_EP_MM == USBUART__EP_DMAAUTO) && (USBUART_EP_DMA_AUTO_OPT == 0u)) */
  53:Generated_Source\PSoC5/USBUART.c **** 
  54:Generated_Source\PSoC5/USBUART.c **** 
  55:Generated_Source\PSoC5/USBUART.c **** /***************************************
  56:Generated_Source\PSoC5/USBUART.c **** * Global data allocation
  57:Generated_Source\PSoC5/USBUART.c **** ***************************************/
  58:Generated_Source\PSoC5/USBUART.c **** 
  59:Generated_Source\PSoC5/USBUART.c **** uint8 USBUART_initVar = 0u;
  60:Generated_Source\PSoC5/USBUART.c **** #if(USBUART_EP_MM != USBUART__EP_MANUAL)
  61:Generated_Source\PSoC5/USBUART.c ****     uint8 USBUART_DmaChan[USBUART_MAX_EP];
  62:Generated_Source\PSoC5/USBUART.c ****     uint8 USBUART_DmaTd[USBUART_MAX_EP];
  63:Generated_Source\PSoC5/USBUART.c **** #endif /*  USBUART_EP_MM */
  64:Generated_Source\PSoC5/USBUART.c **** #if((USBUART_EP_MM == USBUART__EP_DMAAUTO) && (USBUART_EP_DMA_AUTO_OPT == 0u))
  65:Generated_Source\PSoC5/USBUART.c ****     static uint8 clearInDataRdyStatus = USBUART_ARB_EPX_CFG_DEFAULT;
  66:Generated_Source\PSoC5/USBUART.c ****     uint8 USBUART_DmaNextTd[USBUART_MAX_EP];
  67:Generated_Source\PSoC5/USBUART.c ****     const uint8 USBUART_epX_TD_TERMOUT_EN[USBUART_MAX_EP] =
  68:Generated_Source\PSoC5/USBUART.c ****     {   0u,
  69:Generated_Source\PSoC5/USBUART.c ****         USBUART_ep1_TD_TERMOUT_EN,
  70:Generated_Source\PSoC5/USBUART.c ****         USBUART_ep2_TD_TERMOUT_EN,
  71:Generated_Source\PSoC5/USBUART.c ****         USBUART_ep3_TD_TERMOUT_EN,
  72:Generated_Source\PSoC5/USBUART.c ****         USBUART_ep4_TD_TERMOUT_EN,
  73:Generated_Source\PSoC5/USBUART.c ****         USBUART_ep5_TD_TERMOUT_EN,
  74:Generated_Source\PSoC5/USBUART.c ****         USBUART_ep6_TD_TERMOUT_EN,
  75:Generated_Source\PSoC5/USBUART.c ****         USBUART_ep7_TD_TERMOUT_EN,
  76:Generated_Source\PSoC5/USBUART.c ****         USBUART_ep8_TD_TERMOUT_EN
  77:Generated_Source\PSoC5/USBUART.c ****     };
  78:Generated_Source\PSoC5/USBUART.c ****     volatile uint16 USBUART_inLength[USBUART_MAX_EP];
  79:Generated_Source\PSoC5/USBUART.c ****     const uint8 *USBUART_inDataPointer[USBUART_MAX_EP];
  80:Generated_Source\PSoC5/USBUART.c ****     volatile uint8 USBUART_inBufFull[USBUART_MAX_EP];
  81:Generated_Source\PSoC5/USBUART.c **** #endif /* ((USBUART_EP_MM == USBUART__EP_DMAAUTO) && (USBUART_EP_DMA_AUTO_OPT == 0u)) */
ARM GAS  C:\Users\MARTHN~1\AppData\Local\Temp\ccp8lHLI.s 			page 3


  82:Generated_Source\PSoC5/USBUART.c **** 
  83:Generated_Source\PSoC5/USBUART.c **** 
  84:Generated_Source\PSoC5/USBUART.c **** /*******************************************************************************
  85:Generated_Source\PSoC5/USBUART.c **** * Function Name: USBUART_Start
  86:Generated_Source\PSoC5/USBUART.c **** ********************************************************************************
  87:Generated_Source\PSoC5/USBUART.c **** *
  88:Generated_Source\PSoC5/USBUART.c **** * Summary:
  89:Generated_Source\PSoC5/USBUART.c **** *  This function initialize the USB SIE, arbiter and the
  90:Generated_Source\PSoC5/USBUART.c **** *  endpoint APIs, including setting the D+ Pullup
  91:Generated_Source\PSoC5/USBUART.c **** *
  92:Generated_Source\PSoC5/USBUART.c **** * Parameters:
  93:Generated_Source\PSoC5/USBUART.c **** *  device: Contains the device number of the desired device descriptor.
  94:Generated_Source\PSoC5/USBUART.c **** *          The device number can be found in the Device Descriptor Tab of
  95:Generated_Source\PSoC5/USBUART.c **** *          "Configure" dialog, under the settings of desired Device Descriptor,
  96:Generated_Source\PSoC5/USBUART.c **** *          in the "Device Number" field.
  97:Generated_Source\PSoC5/USBUART.c **** *  mode: The operating voltage. This determines whether the voltage regulator
  98:Generated_Source\PSoC5/USBUART.c **** *        is enabled for 5V operation or if pass through mode is used for 3.3V
  99:Generated_Source\PSoC5/USBUART.c **** *        operation. Symbolic names and their associated values are given in the
 100:Generated_Source\PSoC5/USBUART.c **** *        following table.
 101:Generated_Source\PSoC5/USBUART.c **** *       USBUART_3V_OPERATION - Disable voltage regulator and pass-thru
 102:Generated_Source\PSoC5/USBUART.c **** *                                       Vcc for pull-up
 103:Generated_Source\PSoC5/USBUART.c **** *       USBUART_5V_OPERATION - Enable voltage regulator and use
 104:Generated_Source\PSoC5/USBUART.c **** *                                       regulator for pull-up
 105:Generated_Source\PSoC5/USBUART.c **** *       USBUART_DWR_VDDD_OPERATION - Enable or Disable voltage
 106:Generated_Source\PSoC5/USBUART.c **** *                         regulator depend on Vddd Voltage configuration in DWR.
 107:Generated_Source\PSoC5/USBUART.c **** *
 108:Generated_Source\PSoC5/USBUART.c **** * Return:
 109:Generated_Source\PSoC5/USBUART.c **** *   None.
 110:Generated_Source\PSoC5/USBUART.c **** *
 111:Generated_Source\PSoC5/USBUART.c **** * Global variables:
 112:Generated_Source\PSoC5/USBUART.c **** *  The USBUART_intiVar variable is used to indicate initial
 113:Generated_Source\PSoC5/USBUART.c **** *  configuration of this component. The variable is initialized to zero (0u)
 114:Generated_Source\PSoC5/USBUART.c **** *  and set to one (1u) the first time USBUART_Start() is called.
 115:Generated_Source\PSoC5/USBUART.c **** *  This allows for component Re-Start without unnecessary re-initialization
 116:Generated_Source\PSoC5/USBUART.c **** *  in all subsequent calls to the USBUART_Start() routine.
 117:Generated_Source\PSoC5/USBUART.c **** *  If re-initialization of the component is required the variable should be set
 118:Generated_Source\PSoC5/USBUART.c **** *  to zero before call of UART_Start() routine, or the user may call
 119:Generated_Source\PSoC5/USBUART.c **** *  USBUART_Init() and USBUART_InitComponent() as done
 120:Generated_Source\PSoC5/USBUART.c **** *  in the USBUART_Start() routine.
 121:Generated_Source\PSoC5/USBUART.c **** *
 122:Generated_Source\PSoC5/USBUART.c **** * Side Effects:
 123:Generated_Source\PSoC5/USBUART.c **** *   This function will reset all communication states to default.
 124:Generated_Source\PSoC5/USBUART.c **** *
 125:Generated_Source\PSoC5/USBUART.c **** * Reentrant:
 126:Generated_Source\PSoC5/USBUART.c **** *  No.
 127:Generated_Source\PSoC5/USBUART.c **** *
 128:Generated_Source\PSoC5/USBUART.c **** *******************************************************************************/
 129:Generated_Source\PSoC5/USBUART.c **** void USBUART_Start(uint8 device, uint8 mode) 
 130:Generated_Source\PSoC5/USBUART.c **** {
  34              		.loc 1 130 0
  35              		.cfi_startproc
  36              		@ args = 0, pretend = 0, frame = 8
  37              		@ frame_needed = 1, uses_anonymous_args = 0
  38 0000 80B5     		push	{r7, lr}
  39              		.cfi_def_cfa_offset 8
  40              		.cfi_offset 7, -8
  41              		.cfi_offset 14, -4
ARM GAS  C:\Users\MARTHN~1\AppData\Local\Temp\ccp8lHLI.s 			page 4


  42 0002 82B0     		sub	sp, sp, #8
  43              		.cfi_def_cfa_offset 16
  44 0004 00AF     		add	r7, sp, #0
  45              		.cfi_def_cfa_register 7
  46 0006 0346     		mov	r3, r0
  47 0008 0A46     		mov	r2, r1
  48 000a FB71     		strb	r3, [r7, #7]
  49 000c 1346     		mov	r3, r2
  50 000e BB71     		strb	r3, [r7, #6]
 131:Generated_Source\PSoC5/USBUART.c ****     /* If not Initialized then initialize all required hardware and software */
 132:Generated_Source\PSoC5/USBUART.c ****     if(USBUART_initVar == 0u)
  51              		.loc 1 132 0
  52 0010 094B     		ldr	r3, .L3
  53 0012 1B78     		ldrb	r3, [r3]	@ zero_extendqisi2
  54 0014 002B     		cmp	r3, #0
  55 0016 04D1     		bne	.L2
 133:Generated_Source\PSoC5/USBUART.c ****     {
 134:Generated_Source\PSoC5/USBUART.c ****         USBUART_Init();
  56              		.loc 1 134 0
  57 0018 FFF7FEFF 		bl	USBUART_Init
 135:Generated_Source\PSoC5/USBUART.c ****         USBUART_initVar = 1u;
  58              		.loc 1 135 0
  59 001c 064B     		ldr	r3, .L3
  60 001e 0122     		movs	r2, #1
  61 0020 1A70     		strb	r2, [r3]
  62              	.L2:
 136:Generated_Source\PSoC5/USBUART.c ****     }
 137:Generated_Source\PSoC5/USBUART.c ****     USBUART_InitComponent(device, mode);
  63              		.loc 1 137 0
  64 0022 BA79     		ldrb	r2, [r7, #6]	@ zero_extendqisi2
  65 0024 FB79     		ldrb	r3, [r7, #7]	@ zero_extendqisi2
  66 0026 1146     		mov	r1, r2
  67 0028 1846     		mov	r0, r3
  68 002a FFF7FEFF 		bl	USBUART_InitComponent
 138:Generated_Source\PSoC5/USBUART.c **** }
  69              		.loc 1 138 0
  70 002e 00BF     		nop
  71 0030 0837     		adds	r7, r7, #8
  72              		.cfi_def_cfa_offset 8
  73 0032 BD46     		mov	sp, r7
  74              		.cfi_def_cfa_register 13
  75              		@ sp needed
  76 0034 80BD     		pop	{r7, pc}
  77              	.L4:
  78 0036 00BF     		.align	2
  79              	.L3:
  80 0038 00000000 		.word	USBUART_initVar
  81              		.cfi_endproc
  82              	.LFE0:
  83              		.size	USBUART_Start, .-USBUART_Start
  84              		.section	.text.USBUART_Init,"ax",%progbits
  85              		.align	2
  86              		.global	USBUART_Init
  87              		.thumb
  88              		.thumb_func
  89              		.type	USBUART_Init, %function
  90              	USBUART_Init:
ARM GAS  C:\Users\MARTHN~1\AppData\Local\Temp\ccp8lHLI.s 			page 5


  91              	.LFB1:
 139:Generated_Source\PSoC5/USBUART.c **** 
 140:Generated_Source\PSoC5/USBUART.c **** 
 141:Generated_Source\PSoC5/USBUART.c **** /*******************************************************************************
 142:Generated_Source\PSoC5/USBUART.c **** * Function Name: USBUART_Init
 143:Generated_Source\PSoC5/USBUART.c **** ********************************************************************************
 144:Generated_Source\PSoC5/USBUART.c **** *
 145:Generated_Source\PSoC5/USBUART.c **** * Summary:
 146:Generated_Source\PSoC5/USBUART.c **** *  Initialize component's hardware. Usually called in USBUART_Start().
 147:Generated_Source\PSoC5/USBUART.c **** *
 148:Generated_Source\PSoC5/USBUART.c **** * Parameters:
 149:Generated_Source\PSoC5/USBUART.c **** *  None.
 150:Generated_Source\PSoC5/USBUART.c **** *
 151:Generated_Source\PSoC5/USBUART.c **** * Return:
 152:Generated_Source\PSoC5/USBUART.c **** *  None.
 153:Generated_Source\PSoC5/USBUART.c **** *
 154:Generated_Source\PSoC5/USBUART.c **** * Reentrant:
 155:Generated_Source\PSoC5/USBUART.c **** *  No.
 156:Generated_Source\PSoC5/USBUART.c **** *
 157:Generated_Source\PSoC5/USBUART.c **** *******************************************************************************/
 158:Generated_Source\PSoC5/USBUART.c **** void USBUART_Init(void) 
 159:Generated_Source\PSoC5/USBUART.c **** {
  92              		.loc 1 159 0
  93              		.cfi_startproc
  94              		@ args = 0, pretend = 0, frame = 8
  95              		@ frame_needed = 1, uses_anonymous_args = 0
  96 0000 80B5     		push	{r7, lr}
  97              		.cfi_def_cfa_offset 8
  98              		.cfi_offset 7, -8
  99              		.cfi_offset 14, -4
 100 0002 82B0     		sub	sp, sp, #8
 101              		.cfi_def_cfa_offset 16
 102 0004 00AF     		add	r7, sp, #0
 103              		.cfi_def_cfa_register 7
 160:Generated_Source\PSoC5/USBUART.c ****     uint8 enableInterrupts;
 161:Generated_Source\PSoC5/USBUART.c ****     #if(USBUART_EP_MM != USBUART__EP_MANUAL)
 162:Generated_Source\PSoC5/USBUART.c ****         uint16 i;
 163:Generated_Source\PSoC5/USBUART.c ****     #endif   /*  USBUART_EP_MM != USBUART__EP_MANUAL */
 164:Generated_Source\PSoC5/USBUART.c **** 
 165:Generated_Source\PSoC5/USBUART.c ****     enableInterrupts = CyEnterCriticalSection();
 104              		.loc 1 165 0
 105 0006 FFF7FEFF 		bl	CyEnterCriticalSection
 106 000a 0346     		mov	r3, r0
 107 000c FB71     		strb	r3, [r7, #7]
 166:Generated_Source\PSoC5/USBUART.c **** 
 167:Generated_Source\PSoC5/USBUART.c ****     /* Enable USB block  */
 168:Generated_Source\PSoC5/USBUART.c ****     USBUART_PM_ACT_CFG_REG |= USBUART_PM_ACT_EN_FSUSB;
 108              		.loc 1 168 0
 109 000e 504A     		ldr	r2, .L6
 110 0010 4F4B     		ldr	r3, .L6
 111 0012 1B78     		ldrb	r3, [r3]
 112 0014 DBB2     		uxtb	r3, r3
 113 0016 43F00103 		orr	r3, r3, #1
 114 001a DBB2     		uxtb	r3, r3
 115 001c 1370     		strb	r3, [r2]
 169:Generated_Source\PSoC5/USBUART.c ****     /* Enable USB block for Standby Power Mode */
 170:Generated_Source\PSoC5/USBUART.c ****     USBUART_PM_STBY_CFG_REG |= USBUART_PM_STBY_EN_FSUSB;
ARM GAS  C:\Users\MARTHN~1\AppData\Local\Temp\ccp8lHLI.s 			page 6


 116              		.loc 1 170 0
 117 001e 4D4A     		ldr	r2, .L6+4
 118 0020 4C4B     		ldr	r3, .L6+4
 119 0022 1B78     		ldrb	r3, [r3]
 120 0024 DBB2     		uxtb	r3, r3
 121 0026 43F00103 		orr	r3, r3, #1
 122 002a DBB2     		uxtb	r3, r3
 123 002c 1370     		strb	r3, [r2]
 171:Generated_Source\PSoC5/USBUART.c **** 
 172:Generated_Source\PSoC5/USBUART.c ****     /* Enable core clock */
 173:Generated_Source\PSoC5/USBUART.c ****     USBUART_USB_CLK_EN_REG = USBUART_USB_CLK_ENABLE;
 124              		.loc 1 173 0
 125 002e 4A4B     		ldr	r3, .L6+8
 126 0030 0122     		movs	r2, #1
 127 0032 1A70     		strb	r2, [r3]
 174:Generated_Source\PSoC5/USBUART.c **** 
 175:Generated_Source\PSoC5/USBUART.c ****     USBUART_CR1_REG = USBUART_CR1_ENABLE_LOCK;
 128              		.loc 1 175 0
 129 0034 494B     		ldr	r3, .L6+12
 130 0036 0222     		movs	r2, #2
 131 0038 1A70     		strb	r2, [r3]
 176:Generated_Source\PSoC5/USBUART.c **** 
 177:Generated_Source\PSoC5/USBUART.c ****     /* ENABLING USBIO PADS IN USB MODE FROM I/O MODE */
 178:Generated_Source\PSoC5/USBUART.c ****     /* Ensure USB transmit enable is low (USB_USBIO_CR0.ten). - Manual Transmission - Disabled */
 179:Generated_Source\PSoC5/USBUART.c ****     USBUART_USBIO_CR0_REG &= ((uint8)(~USBUART_USBIO_CR0_TEN));
 132              		.loc 1 179 0
 133 003a 494A     		ldr	r2, .L6+16
 134 003c 484B     		ldr	r3, .L6+16
 135 003e 1B78     		ldrb	r3, [r3]
 136 0040 DBB2     		uxtb	r3, r3
 137 0042 03F07F03 		and	r3, r3, #127
 138 0046 DBB2     		uxtb	r3, r3
 139 0048 1370     		strb	r3, [r2]
 180:Generated_Source\PSoC5/USBUART.c ****     CyDelayUs(0u);  /*~50ns delay */
 140              		.loc 1 180 0
 141 004a 0020     		movs	r0, #0
 142 004c FFF7FEFF 		bl	CyDelayUs
 181:Generated_Source\PSoC5/USBUART.c ****     /* Disable the USBIO by asserting PM.USB_CR0.fsusbio_pd_n(Inverted)
 182:Generated_Source\PSoC5/USBUART.c ****     *  high. This will have been set low by the power manger out of reset.
 183:Generated_Source\PSoC5/USBUART.c ****     *  Also confirm USBIO pull-up disabled
 184:Generated_Source\PSoC5/USBUART.c ****     */
 185:Generated_Source\PSoC5/USBUART.c ****     USBUART_PM_USB_CR0_REG &= ((uint8)(~(USBUART_PM_USB_CR0_PD_N |
 143              		.loc 1 185 0
 144 0050 444A     		ldr	r2, .L6+20
 145 0052 444B     		ldr	r3, .L6+20
 146 0054 1B78     		ldrb	r3, [r3]
 147 0056 DBB2     		uxtb	r3, r3
 148 0058 23F00603 		bic	r3, r3, #6
 149 005c DBB2     		uxtb	r3, r3
 150 005e 1370     		strb	r3, [r2]
 186:Generated_Source\PSoC5/USBUART.c ****                                                   USBUART_PM_USB_CR0_PD_PULLUP_N)));
 187:Generated_Source\PSoC5/USBUART.c **** 
 188:Generated_Source\PSoC5/USBUART.c ****     /* Select iomode to USB mode*/
 189:Generated_Source\PSoC5/USBUART.c ****     USBUART_USBIO_CR1_REG &= ((uint8)(~USBUART_USBIO_CR1_IOMODE));
 151              		.loc 1 189 0
 152 0060 414A     		ldr	r2, .L6+24
 153 0062 414B     		ldr	r3, .L6+24
ARM GAS  C:\Users\MARTHN~1\AppData\Local\Temp\ccp8lHLI.s 			page 7


 154 0064 1B78     		ldrb	r3, [r3]
 155 0066 DBB2     		uxtb	r3, r3
 156 0068 23F02003 		bic	r3, r3, #32
 157 006c DBB2     		uxtb	r3, r3
 158 006e 1370     		strb	r3, [r2]
 190:Generated_Source\PSoC5/USBUART.c **** 
 191:Generated_Source\PSoC5/USBUART.c ****     /* Enable the USBIO reference by setting PM.USB_CR0.fsusbio_ref_en.*/
 192:Generated_Source\PSoC5/USBUART.c ****     USBUART_PM_USB_CR0_REG |= USBUART_PM_USB_CR0_REF_EN;
 159              		.loc 1 192 0
 160 0070 3C4A     		ldr	r2, .L6+20
 161 0072 3C4B     		ldr	r3, .L6+20
 162 0074 1B78     		ldrb	r3, [r3]
 163 0076 DBB2     		uxtb	r3, r3
 164 0078 43F00103 		orr	r3, r3, #1
 165 007c DBB2     		uxtb	r3, r3
 166 007e 1370     		strb	r3, [r2]
 193:Generated_Source\PSoC5/USBUART.c ****     /* The reference will be available 1 us after the regulator is enabled */
 194:Generated_Source\PSoC5/USBUART.c ****     CyDelayUs(1u);
 167              		.loc 1 194 0
 168 0080 0120     		movs	r0, #1
 169 0082 FFF7FEFF 		bl	CyDelayUs
 195:Generated_Source\PSoC5/USBUART.c ****     /* OR 40us after power restored */
 196:Generated_Source\PSoC5/USBUART.c ****     CyDelayUs(40u);
 170              		.loc 1 196 0
 171 0086 2820     		movs	r0, #40
 172 0088 FFF7FEFF 		bl	CyDelayUs
 197:Generated_Source\PSoC5/USBUART.c ****     /* Ensure the single ended disable bits are low (PRT15.INP_DIS[7:6])(input receiver enabled). *
 198:Generated_Source\PSoC5/USBUART.c ****     USBUART_DM_INP_DIS_REG &= ((uint8)(~USBUART_DM_MASK));
 173              		.loc 1 198 0
 174 008c 374A     		ldr	r2, .L6+28
 175 008e 374B     		ldr	r3, .L6+28
 176 0090 1B78     		ldrb	r3, [r3]
 177 0092 DBB2     		uxtb	r3, r3
 178 0094 03F07F03 		and	r3, r3, #127
 179 0098 DBB2     		uxtb	r3, r3
 180 009a 1370     		strb	r3, [r2]
 199:Generated_Source\PSoC5/USBUART.c ****     USBUART_DP_INP_DIS_REG &= ((uint8)(~USBUART_DP_MASK));
 181              		.loc 1 199 0
 182 009c 334A     		ldr	r2, .L6+28
 183 009e 334B     		ldr	r3, .L6+28
 184 00a0 1B78     		ldrb	r3, [r3]
 185 00a2 DBB2     		uxtb	r3, r3
 186 00a4 23F04003 		bic	r3, r3, #64
 187 00a8 DBB2     		uxtb	r3, r3
 188 00aa 1370     		strb	r3, [r2]
 200:Generated_Source\PSoC5/USBUART.c **** 
 201:Generated_Source\PSoC5/USBUART.c ****     /* Enable USBIO */
 202:Generated_Source\PSoC5/USBUART.c ****     USBUART_PM_USB_CR0_REG |= USBUART_PM_USB_CR0_PD_N;
 189              		.loc 1 202 0
 190 00ac 2D4A     		ldr	r2, .L6+20
 191 00ae 2D4B     		ldr	r3, .L6+20
 192 00b0 1B78     		ldrb	r3, [r3]
 193 00b2 DBB2     		uxtb	r3, r3
 194 00b4 43F00203 		orr	r3, r3, #2
 195 00b8 DBB2     		uxtb	r3, r3
 196 00ba 1370     		strb	r3, [r2]
 203:Generated_Source\PSoC5/USBUART.c ****     CyDelayUs(2u);
ARM GAS  C:\Users\MARTHN~1\AppData\Local\Temp\ccp8lHLI.s 			page 8


 197              		.loc 1 203 0
 198 00bc 0220     		movs	r0, #2
 199 00be FFF7FEFF 		bl	CyDelayUs
 204:Generated_Source\PSoC5/USBUART.c ****     /* Set the USBIO pull-up enable */
 205:Generated_Source\PSoC5/USBUART.c ****     USBUART_PM_USB_CR0_REG |= USBUART_PM_USB_CR0_PD_PULLUP_N;
 200              		.loc 1 205 0
 201 00c2 284A     		ldr	r2, .L6+20
 202 00c4 274B     		ldr	r3, .L6+20
 203 00c6 1B78     		ldrb	r3, [r3]
 204 00c8 DBB2     		uxtb	r3, r3
 205 00ca 43F00403 		orr	r3, r3, #4
 206 00ce DBB2     		uxtb	r3, r3
 207 00d0 1370     		strb	r3, [r2]
 206:Generated_Source\PSoC5/USBUART.c **** 
 207:Generated_Source\PSoC5/USBUART.c ****     /* Write WAx */
 208:Generated_Source\PSoC5/USBUART.c ****     CY_SET_REG8(USBUART_ARB_RW1_WA_PTR,     0u);
 208              		.loc 1 208 0
 209 00d2 274B     		ldr	r3, .L6+32
 210 00d4 0022     		movs	r2, #0
 211 00d6 1A70     		strb	r2, [r3]
 209:Generated_Source\PSoC5/USBUART.c ****     CY_SET_REG8(USBUART_ARB_RW1_WA_MSB_PTR, 0u);
 212              		.loc 1 209 0
 213 00d8 264B     		ldr	r3, .L6+36
 214 00da 0022     		movs	r2, #0
 215 00dc 1A70     		strb	r2, [r3]
 210:Generated_Source\PSoC5/USBUART.c **** 
 211:Generated_Source\PSoC5/USBUART.c ****     #if(USBUART_EP_MM != USBUART__EP_MANUAL)
 212:Generated_Source\PSoC5/USBUART.c ****         /* Init transfer descriptor. This will be used to detect the DMA state - initialized or not
 213:Generated_Source\PSoC5/USBUART.c ****         for (i = 0u; i < USBUART_MAX_EP; i++)
 214:Generated_Source\PSoC5/USBUART.c ****         {
 215:Generated_Source\PSoC5/USBUART.c ****             USBUART_DmaTd[i] = DMA_INVALID_TD;
 216:Generated_Source\PSoC5/USBUART.c ****             #if ((USBUART_EP_MM == USBUART__EP_DMAAUTO) && (USBUART_EP_DMA_AUTO_OPT == 0u))
 217:Generated_Source\PSoC5/USBUART.c ****                 USBUART_DmaNextTd[i] = DMA_INVALID_TD;
 218:Generated_Source\PSoC5/USBUART.c ****             #endif /* ((USBUART_EP_MM == USBUART__EP_DMAAUTO) && (USBUART_EP_DMA_AUTO_OPT == 0u)) *
 219:Generated_Source\PSoC5/USBUART.c ****         }
 220:Generated_Source\PSoC5/USBUART.c ****     #endif   /*  USBUART_EP_MM != USBUART__EP_MANUAL */
 221:Generated_Source\PSoC5/USBUART.c **** 
 222:Generated_Source\PSoC5/USBUART.c ****     CyExitCriticalSection(enableInterrupts);
 216              		.loc 1 222 0
 217 00de FB79     		ldrb	r3, [r7, #7]	@ zero_extendqisi2
 218 00e0 1846     		mov	r0, r3
 219 00e2 FFF7FEFF 		bl	CyExitCriticalSection
 223:Generated_Source\PSoC5/USBUART.c **** 
 224:Generated_Source\PSoC5/USBUART.c **** 
 225:Generated_Source\PSoC5/USBUART.c ****     /* Set the bus reset Interrupt. */
 226:Generated_Source\PSoC5/USBUART.c ****     (void) CyIntSetVector(USBUART_BUS_RESET_VECT_NUM,   &USBUART_BUS_RESET_ISR);
 220              		.loc 1 226 0
 221 00e6 2449     		ldr	r1, .L6+40
 222 00e8 1720     		movs	r0, #23
 223 00ea FFF7FEFF 		bl	CyIntSetVector
 227:Generated_Source\PSoC5/USBUART.c ****     CyIntSetPriority(USBUART_BUS_RESET_VECT_NUM, USBUART_BUS_RESET_PRIOR);
 224              		.loc 1 227 0
 225 00ee 0721     		movs	r1, #7
 226 00f0 1720     		movs	r0, #23
 227 00f2 FFF7FEFF 		bl	CyIntSetPriority
 228:Generated_Source\PSoC5/USBUART.c **** 
 229:Generated_Source\PSoC5/USBUART.c ****     /* Set the SOF Interrupt. */
ARM GAS  C:\Users\MARTHN~1\AppData\Local\Temp\ccp8lHLI.s 			page 9


 230:Generated_Source\PSoC5/USBUART.c ****     #if(USBUART_SOF_ISR_REMOVE == 0u)
 231:Generated_Source\PSoC5/USBUART.c ****         (void) CyIntSetVector(USBUART_SOF_VECT_NUM,   &USBUART_SOF_ISR);
 228              		.loc 1 231 0
 229 00f6 2149     		ldr	r1, .L6+44
 230 00f8 1520     		movs	r0, #21
 231 00fa FFF7FEFF 		bl	CyIntSetVector
 232:Generated_Source\PSoC5/USBUART.c ****         CyIntSetPriority(USBUART_SOF_VECT_NUM, USBUART_SOF_PRIOR);
 232              		.loc 1 232 0
 233 00fe 0721     		movs	r1, #7
 234 0100 1520     		movs	r0, #21
 235 0102 FFF7FEFF 		bl	CyIntSetPriority
 233:Generated_Source\PSoC5/USBUART.c ****     #endif   /*  USBUART_SOF_ISR_REMOVE */
 234:Generated_Source\PSoC5/USBUART.c **** 
 235:Generated_Source\PSoC5/USBUART.c ****     /* Set the Control Endpoint Interrupt. */
 236:Generated_Source\PSoC5/USBUART.c ****     (void) CyIntSetVector(USBUART_EP_0_VECT_NUM,   &USBUART_EP_0_ISR);
 236              		.loc 1 236 0
 237 0106 1E49     		ldr	r1, .L6+48
 238 0108 1820     		movs	r0, #24
 239 010a FFF7FEFF 		bl	CyIntSetVector
 237:Generated_Source\PSoC5/USBUART.c ****     CyIntSetPriority(USBUART_EP_0_VECT_NUM, USBUART_EP_0_PRIOR);
 240              		.loc 1 237 0
 241 010e 0721     		movs	r1, #7
 242 0110 1820     		movs	r0, #24
 243 0112 FFF7FEFF 		bl	CyIntSetPriority
 238:Generated_Source\PSoC5/USBUART.c **** 
 239:Generated_Source\PSoC5/USBUART.c ****     /* Set the Data Endpoint 1 Interrupt. */
 240:Generated_Source\PSoC5/USBUART.c ****     #if(USBUART_EP1_ISR_REMOVE == 0u)
 241:Generated_Source\PSoC5/USBUART.c ****         (void) CyIntSetVector(USBUART_EP_1_VECT_NUM,   &USBUART_EP_1_ISR);
 244              		.loc 1 241 0
 245 0116 1B49     		ldr	r1, .L6+52
 246 0118 0820     		movs	r0, #8
 247 011a FFF7FEFF 		bl	CyIntSetVector
 242:Generated_Source\PSoC5/USBUART.c ****         CyIntSetPriority(USBUART_EP_1_VECT_NUM, USBUART_EP_1_PRIOR);
 248              		.loc 1 242 0
 249 011e 0721     		movs	r1, #7
 250 0120 0820     		movs	r0, #8
 251 0122 FFF7FEFF 		bl	CyIntSetPriority
 243:Generated_Source\PSoC5/USBUART.c ****     #endif   /*  USBUART_EP1_ISR_REMOVE */
 244:Generated_Source\PSoC5/USBUART.c **** 
 245:Generated_Source\PSoC5/USBUART.c ****     /* Set the Data Endpoint 2 Interrupt. */
 246:Generated_Source\PSoC5/USBUART.c ****     #if(USBUART_EP2_ISR_REMOVE == 0u)
 247:Generated_Source\PSoC5/USBUART.c ****         (void) CyIntSetVector(USBUART_EP_2_VECT_NUM,   &USBUART_EP_2_ISR);
 252              		.loc 1 247 0
 253 0126 1849     		ldr	r1, .L6+56
 254 0128 0920     		movs	r0, #9
 255 012a FFF7FEFF 		bl	CyIntSetVector
 248:Generated_Source\PSoC5/USBUART.c ****         CyIntSetPriority(USBUART_EP_2_VECT_NUM, USBUART_EP_2_PRIOR);
 256              		.loc 1 248 0
 257 012e 0721     		movs	r1, #7
 258 0130 0920     		movs	r0, #9
 259 0132 FFF7FEFF 		bl	CyIntSetPriority
 249:Generated_Source\PSoC5/USBUART.c ****     #endif   /*  USBUART_EP2_ISR_REMOVE */
 250:Generated_Source\PSoC5/USBUART.c **** 
 251:Generated_Source\PSoC5/USBUART.c ****     /* Set the Data Endpoint 3 Interrupt. */
 252:Generated_Source\PSoC5/USBUART.c ****     #if(USBUART_EP3_ISR_REMOVE == 0u)
 253:Generated_Source\PSoC5/USBUART.c ****         (void) CyIntSetVector(USBUART_EP_3_VECT_NUM,   &USBUART_EP_3_ISR);
 260              		.loc 1 253 0
ARM GAS  C:\Users\MARTHN~1\AppData\Local\Temp\ccp8lHLI.s 			page 10


 261 0136 1549     		ldr	r1, .L6+60
 262 0138 0A20     		movs	r0, #10
 263 013a FFF7FEFF 		bl	CyIntSetVector
 254:Generated_Source\PSoC5/USBUART.c ****         CyIntSetPriority(USBUART_EP_3_VECT_NUM, USBUART_EP_3_PRIOR);
 264              		.loc 1 254 0
 265 013e 0721     		movs	r1, #7
 266 0140 0A20     		movs	r0, #10
 267 0142 FFF7FEFF 		bl	CyIntSetPriority
 255:Generated_Source\PSoC5/USBUART.c ****     #endif   /*  USBUART_EP3_ISR_REMOVE */
 256:Generated_Source\PSoC5/USBUART.c **** 
 257:Generated_Source\PSoC5/USBUART.c ****     /* Set the Data Endpoint 4 Interrupt. */
 258:Generated_Source\PSoC5/USBUART.c ****     #if(USBUART_EP4_ISR_REMOVE == 0u)
 259:Generated_Source\PSoC5/USBUART.c ****         (void) CyIntSetVector(USBUART_EP_4_VECT_NUM,   &USBUART_EP_4_ISR);
 260:Generated_Source\PSoC5/USBUART.c ****         CyIntSetPriority(USBUART_EP_4_VECT_NUM, USBUART_EP_4_PRIOR);
 261:Generated_Source\PSoC5/USBUART.c ****     #endif   /*  USBUART_EP4_ISR_REMOVE */
 262:Generated_Source\PSoC5/USBUART.c **** 
 263:Generated_Source\PSoC5/USBUART.c ****     /* Set the Data Endpoint 5 Interrupt. */
 264:Generated_Source\PSoC5/USBUART.c ****     #if(USBUART_EP5_ISR_REMOVE == 0u)
 265:Generated_Source\PSoC5/USBUART.c ****         (void) CyIntSetVector(USBUART_EP_5_VECT_NUM,   &USBUART_EP_5_ISR);
 266:Generated_Source\PSoC5/USBUART.c ****         CyIntSetPriority(USBUART_EP_5_VECT_NUM, USBUART_EP_5_PRIOR);
 267:Generated_Source\PSoC5/USBUART.c ****     #endif   /*  USBUART_EP5_ISR_REMOVE */
 268:Generated_Source\PSoC5/USBUART.c **** 
 269:Generated_Source\PSoC5/USBUART.c ****     /* Set the Data Endpoint 6 Interrupt. */
 270:Generated_Source\PSoC5/USBUART.c ****     #if(USBUART_EP6_ISR_REMOVE == 0u)
 271:Generated_Source\PSoC5/USBUART.c ****         (void) CyIntSetVector(USBUART_EP_6_VECT_NUM,   &USBUART_EP_6_ISR);
 272:Generated_Source\PSoC5/USBUART.c ****         CyIntSetPriority(USBUART_EP_6_VECT_NUM, USBUART_EP_6_PRIOR);
 273:Generated_Source\PSoC5/USBUART.c ****     #endif   /*  USBUART_EP6_ISR_REMOVE */
 274:Generated_Source\PSoC5/USBUART.c **** 
 275:Generated_Source\PSoC5/USBUART.c ****      /* Set the Data Endpoint 7 Interrupt. */
 276:Generated_Source\PSoC5/USBUART.c ****     #if(USBUART_EP7_ISR_REMOVE == 0u)
 277:Generated_Source\PSoC5/USBUART.c ****         (void) CyIntSetVector(USBUART_EP_7_VECT_NUM,   &USBUART_EP_7_ISR);
 278:Generated_Source\PSoC5/USBUART.c ****         CyIntSetPriority(USBUART_EP_7_VECT_NUM, USBUART_EP_7_PRIOR);
 279:Generated_Source\PSoC5/USBUART.c ****     #endif   /*  USBUART_EP7_ISR_REMOVE */
 280:Generated_Source\PSoC5/USBUART.c **** 
 281:Generated_Source\PSoC5/USBUART.c ****     /* Set the Data Endpoint 8 Interrupt. */
 282:Generated_Source\PSoC5/USBUART.c ****     #if(USBUART_EP8_ISR_REMOVE == 0u)
 283:Generated_Source\PSoC5/USBUART.c ****         (void) CyIntSetVector(USBUART_EP_8_VECT_NUM,   &USBUART_EP_8_ISR);
 284:Generated_Source\PSoC5/USBUART.c ****         CyIntSetPriority(USBUART_EP_8_VECT_NUM, USBUART_EP_8_PRIOR);
 285:Generated_Source\PSoC5/USBUART.c ****     #endif   /*  USBUART_EP8_ISR_REMOVE */
 286:Generated_Source\PSoC5/USBUART.c **** 
 287:Generated_Source\PSoC5/USBUART.c ****     #if((USBUART_EP_MM != USBUART__EP_MANUAL) && (USBUART_ARB_ISR_REMOVE == 0u))
 288:Generated_Source\PSoC5/USBUART.c ****         /* Set the ARB Interrupt. */
 289:Generated_Source\PSoC5/USBUART.c ****         (void) CyIntSetVector(USBUART_ARB_VECT_NUM,   &USBUART_ARB_ISR);
 290:Generated_Source\PSoC5/USBUART.c ****         CyIntSetPriority(USBUART_ARB_VECT_NUM, USBUART_ARB_PRIOR);
 291:Generated_Source\PSoC5/USBUART.c ****     #endif   /*  USBUART_EP_MM != USBUART__EP_MANUAL */
 292:Generated_Source\PSoC5/USBUART.c **** 
 293:Generated_Source\PSoC5/USBUART.c **** }
 268              		.loc 1 293 0
 269 0146 00BF     		nop
 270 0148 0837     		adds	r7, r7, #8
 271              		.cfi_def_cfa_offset 8
 272 014a BD46     		mov	sp, r7
 273              		.cfi_def_cfa_register 13
 274              		@ sp needed
 275 014c 80BD     		pop	{r7, pc}
 276              	.L7:
 277 014e 00BF     		.align	2
ARM GAS  C:\Users\MARTHN~1\AppData\Local\Temp\ccp8lHLI.s 			page 11


 278              	.L6:
 279 0150 A5430040 		.word	1073759141
 280 0154 B5430040 		.word	1073759157
 281 0158 9D600040 		.word	1073766557
 282 015c 09600040 		.word	1073766409
 283 0160 10600040 		.word	1073766416
 284 0164 94430040 		.word	1073759124
 285 0168 12600040 		.word	1073766418
 286 016c F8510040 		.word	1073762808
 287 0170 84600040 		.word	1073766532
 288 0174 85600040 		.word	1073766533
 289 0178 00000000 		.word	USBUART_BUS_RESET_ISR
 290 017c 00000000 		.word	USBUART_SOF_ISR
 291 0180 00000000 		.word	USBUART_EP_0_ISR
 292 0184 00000000 		.word	USBUART_EP_1_ISR
 293 0188 00000000 		.word	USBUART_EP_2_ISR
 294 018c 00000000 		.word	USBUART_EP_3_ISR
 295              		.cfi_endproc
 296              	.LFE1:
 297              		.size	USBUART_Init, .-USBUART_Init
 298              		.section	.text.USBUART_InitComponent,"ax",%progbits
 299              		.align	2
 300              		.global	USBUART_InitComponent
 301              		.thumb
 302              		.thumb_func
 303              		.type	USBUART_InitComponent, %function
 304              	USBUART_InitComponent:
 305              	.LFB2:
 294:Generated_Source\PSoC5/USBUART.c **** 
 295:Generated_Source\PSoC5/USBUART.c **** 
 296:Generated_Source\PSoC5/USBUART.c **** /*******************************************************************************
 297:Generated_Source\PSoC5/USBUART.c **** * Function Name: USBUART_InitComponent
 298:Generated_Source\PSoC5/USBUART.c **** ********************************************************************************
 299:Generated_Source\PSoC5/USBUART.c **** *
 300:Generated_Source\PSoC5/USBUART.c **** * Summary:
 301:Generated_Source\PSoC5/USBUART.c **** *  Initialize the component, except for the HW which is done one time in
 302:Generated_Source\PSoC5/USBUART.c **** *  the Start function.  This function pulls up D+.
 303:Generated_Source\PSoC5/USBUART.c **** *
 304:Generated_Source\PSoC5/USBUART.c **** * Parameters:
 305:Generated_Source\PSoC5/USBUART.c **** *  device: Contains the device number of the desired device descriptor.
 306:Generated_Source\PSoC5/USBUART.c **** *          The device number can be found in the Device Descriptor Tab of
 307:Generated_Source\PSoC5/USBUART.c **** *          "Configure" dialog, under the settings of desired Device Descriptor,
 308:Generated_Source\PSoC5/USBUART.c **** *          in the "Device Number" field.
 309:Generated_Source\PSoC5/USBUART.c **** *  mode: The operating voltage. This determines whether the voltage regulator
 310:Generated_Source\PSoC5/USBUART.c **** *        is enabled for 5V operation or if pass through mode is used for 3.3V
 311:Generated_Source\PSoC5/USBUART.c **** *        operation. Symbolic names and their associated values are given in the
 312:Generated_Source\PSoC5/USBUART.c **** *        following table.
 313:Generated_Source\PSoC5/USBUART.c **** *       USBUART_3V_OPERATION - Disable voltage regulator and pass-thru
 314:Generated_Source\PSoC5/USBUART.c **** *                                       Vcc for pull-up
 315:Generated_Source\PSoC5/USBUART.c **** *       USBUART_5V_OPERATION - Enable voltage regulator and use
 316:Generated_Source\PSoC5/USBUART.c **** *                                       regulator for pull-up
 317:Generated_Source\PSoC5/USBUART.c **** *       USBUART_DWR_VDDD_OPERATION - Enable or Disable voltage
 318:Generated_Source\PSoC5/USBUART.c **** *                         regulator depend on Vddd Voltage configuration in DWR.
 319:Generated_Source\PSoC5/USBUART.c **** *
 320:Generated_Source\PSoC5/USBUART.c **** * Return:
 321:Generated_Source\PSoC5/USBUART.c **** *   None.
 322:Generated_Source\PSoC5/USBUART.c **** *
ARM GAS  C:\Users\MARTHN~1\AppData\Local\Temp\ccp8lHLI.s 			page 12


 323:Generated_Source\PSoC5/USBUART.c **** * Global variables:
 324:Generated_Source\PSoC5/USBUART.c **** *   USBUART_device: Contains the device number of the desired device
 325:Generated_Source\PSoC5/USBUART.c **** *       descriptor. The device number can be found in the Device Descriptor Tab
 326:Generated_Source\PSoC5/USBUART.c **** *       of "Configure" dialog, under the settings of desired Device Descriptor,
 327:Generated_Source\PSoC5/USBUART.c **** *       in the "Device Number" field.
 328:Generated_Source\PSoC5/USBUART.c **** *   USBUART_transferState: This variable used by the communication
 329:Generated_Source\PSoC5/USBUART.c **** *       functions to handle current transfer state. Initialized to
 330:Generated_Source\PSoC5/USBUART.c **** *       TRANS_STATE_IDLE in this API.
 331:Generated_Source\PSoC5/USBUART.c **** *   USBUART_configuration: Contains current configuration number
 332:Generated_Source\PSoC5/USBUART.c **** *       which is set by the Host using SET_CONFIGURATION request.
 333:Generated_Source\PSoC5/USBUART.c **** *       Initialized to zero in this API.
 334:Generated_Source\PSoC5/USBUART.c **** *   USBUART_deviceAddress: Contains current device address. This
 335:Generated_Source\PSoC5/USBUART.c **** *       variable is initialized to zero in this API. Host starts to communicate
 336:Generated_Source\PSoC5/USBUART.c **** *      to device with address 0 and then set it to whatever value using
 337:Generated_Source\PSoC5/USBUART.c **** *      SET_ADDRESS request.
 338:Generated_Source\PSoC5/USBUART.c **** *   USBUART_deviceStatus: initialized to 0.
 339:Generated_Source\PSoC5/USBUART.c **** *       This is two bit variable which contain power status in first bit
 340:Generated_Source\PSoC5/USBUART.c **** *       (DEVICE_STATUS_BUS_POWERED or DEVICE_STATUS_SELF_POWERED) and remote
 341:Generated_Source\PSoC5/USBUART.c **** *       wakeup status (DEVICE_STATUS_REMOTE_WAKEUP) in second bit.
 342:Generated_Source\PSoC5/USBUART.c **** *   USBUART_lastPacketSize initialized to 0;
 343:Generated_Source\PSoC5/USBUART.c **** *
 344:Generated_Source\PSoC5/USBUART.c **** * Reentrant:
 345:Generated_Source\PSoC5/USBUART.c **** *  No.
 346:Generated_Source\PSoC5/USBUART.c **** *
 347:Generated_Source\PSoC5/USBUART.c **** *******************************************************************************/
 348:Generated_Source\PSoC5/USBUART.c **** void USBUART_InitComponent(uint8 device, uint8 mode) 
 349:Generated_Source\PSoC5/USBUART.c **** {
 306              		.loc 1 349 0
 307              		.cfi_startproc
 308              		@ args = 0, pretend = 0, frame = 8
 309              		@ frame_needed = 1, uses_anonymous_args = 0
 310 0000 80B5     		push	{r7, lr}
 311              		.cfi_def_cfa_offset 8
 312              		.cfi_offset 7, -8
 313              		.cfi_offset 14, -4
 314 0002 82B0     		sub	sp, sp, #8
 315              		.cfi_def_cfa_offset 16
 316 0004 00AF     		add	r7, sp, #0
 317              		.cfi_def_cfa_register 7
 318 0006 0346     		mov	r3, r0
 319 0008 0A46     		mov	r2, r1
 320 000a FB71     		strb	r3, [r7, #7]
 321 000c 1346     		mov	r3, r2
 322 000e BB71     		strb	r3, [r7, #6]
 350:Generated_Source\PSoC5/USBUART.c ****     /* Initialize _hidProtocol variable to comply with
 351:Generated_Source\PSoC5/USBUART.c ****     *  HID 7.2.6 Set_Protocol Request:
 352:Generated_Source\PSoC5/USBUART.c ****     *  "When initialized, all devices default to report protocol."
 353:Generated_Source\PSoC5/USBUART.c ****     */
 354:Generated_Source\PSoC5/USBUART.c ****     #if defined(USBUART_ENABLE_HID_CLASS)
 355:Generated_Source\PSoC5/USBUART.c ****         uint8 i;
 356:Generated_Source\PSoC5/USBUART.c **** 
 357:Generated_Source\PSoC5/USBUART.c ****         for (i = 0u; i < USBUART_MAX_INTERFACES_NUMBER; i++)
 358:Generated_Source\PSoC5/USBUART.c ****         {
 359:Generated_Source\PSoC5/USBUART.c ****             USBUART_hidProtocol[i] = USBUART_PROTOCOL_REPORT;
 360:Generated_Source\PSoC5/USBUART.c ****         }
 361:Generated_Source\PSoC5/USBUART.c ****     #endif /* USBUART_ENABLE_HID_CLASS */
 362:Generated_Source\PSoC5/USBUART.c **** 
ARM GAS  C:\Users\MARTHN~1\AppData\Local\Temp\ccp8lHLI.s 			page 13


 363:Generated_Source\PSoC5/USBUART.c ****     /* Enable Interrupts. */
 364:Generated_Source\PSoC5/USBUART.c ****     CyIntEnable(USBUART_BUS_RESET_VECT_NUM);
 323              		.loc 1 364 0
 324 0010 264B     		ldr	r3, .L14
 325 0012 4FF40002 		mov	r2, #8388608
 326 0016 1A60     		str	r2, [r3]
 365:Generated_Source\PSoC5/USBUART.c ****     CyIntEnable(USBUART_EP_0_VECT_NUM);
 327              		.loc 1 365 0
 328 0018 244B     		ldr	r3, .L14
 329 001a 4FF08072 		mov	r2, #16777216
 330 001e 1A60     		str	r2, [r3]
 366:Generated_Source\PSoC5/USBUART.c ****     #if(USBUART_EP1_ISR_REMOVE == 0u)
 367:Generated_Source\PSoC5/USBUART.c ****         CyIntEnable(USBUART_EP_1_VECT_NUM);
 331              		.loc 1 367 0
 332 0020 224B     		ldr	r3, .L14
 333 0022 4FF48072 		mov	r2, #256
 334 0026 1A60     		str	r2, [r3]
 368:Generated_Source\PSoC5/USBUART.c ****     #endif   /*  USBUART_EP1_ISR_REMOVE */
 369:Generated_Source\PSoC5/USBUART.c ****     #if(USBUART_EP2_ISR_REMOVE == 0u)
 370:Generated_Source\PSoC5/USBUART.c ****         CyIntEnable(USBUART_EP_2_VECT_NUM);
 335              		.loc 1 370 0
 336 0028 204B     		ldr	r3, .L14
 337 002a 4FF40072 		mov	r2, #512
 338 002e 1A60     		str	r2, [r3]
 371:Generated_Source\PSoC5/USBUART.c ****     #endif   /*  USBUART_EP2_ISR_REMOVE */
 372:Generated_Source\PSoC5/USBUART.c ****     #if(USBUART_EP3_ISR_REMOVE == 0u)
 373:Generated_Source\PSoC5/USBUART.c ****         CyIntEnable(USBUART_EP_3_VECT_NUM);
 339              		.loc 1 373 0
 340 0030 1E4B     		ldr	r3, .L14
 341 0032 4FF48062 		mov	r2, #1024
 342 0036 1A60     		str	r2, [r3]
 374:Generated_Source\PSoC5/USBUART.c ****     #endif   /*  USBUART_EP3_ISR_REMOVE */
 375:Generated_Source\PSoC5/USBUART.c ****     #if(USBUART_EP4_ISR_REMOVE == 0u)
 376:Generated_Source\PSoC5/USBUART.c ****         CyIntEnable(USBUART_EP_4_VECT_NUM);
 377:Generated_Source\PSoC5/USBUART.c ****     #endif   /*  USBUART_EP4_ISR_REMOVE */
 378:Generated_Source\PSoC5/USBUART.c ****     #if(USBUART_EP5_ISR_REMOVE == 0u)
 379:Generated_Source\PSoC5/USBUART.c ****         CyIntEnable(USBUART_EP_5_VECT_NUM);
 380:Generated_Source\PSoC5/USBUART.c ****     #endif   /*  USBUART_EP5_ISR_REMOVE */
 381:Generated_Source\PSoC5/USBUART.c ****     #if(USBUART_EP6_ISR_REMOVE == 0u)
 382:Generated_Source\PSoC5/USBUART.c ****         CyIntEnable(USBUART_EP_6_VECT_NUM);
 383:Generated_Source\PSoC5/USBUART.c ****     #endif   /*  USBUART_EP6_ISR_REMOVE */
 384:Generated_Source\PSoC5/USBUART.c ****     #if(USBUART_EP7_ISR_REMOVE == 0u)
 385:Generated_Source\PSoC5/USBUART.c ****         CyIntEnable(USBUART_EP_7_VECT_NUM);
 386:Generated_Source\PSoC5/USBUART.c ****     #endif   /*  USBUART_EP7_ISR_REMOVE */
 387:Generated_Source\PSoC5/USBUART.c ****     #if(USBUART_EP8_ISR_REMOVE == 0u)
 388:Generated_Source\PSoC5/USBUART.c ****         CyIntEnable(USBUART_EP_8_VECT_NUM);
 389:Generated_Source\PSoC5/USBUART.c ****     #endif   /*  USBUART_EP8_ISR_REMOVE */
 390:Generated_Source\PSoC5/USBUART.c ****     #if((USBUART_EP_MM != USBUART__EP_MANUAL) && (USBUART_ARB_ISR_REMOVE == 0u))
 391:Generated_Source\PSoC5/USBUART.c ****         /* usb arb interrupt enable */
 392:Generated_Source\PSoC5/USBUART.c ****         USBUART_ARB_INT_EN_REG = USBUART_ARB_INT_MASK;
 393:Generated_Source\PSoC5/USBUART.c ****         CyIntEnable(USBUART_ARB_VECT_NUM);
 394:Generated_Source\PSoC5/USBUART.c ****     #endif   /*  USBUART_EP_MM != USBUART__EP_MANUAL */
 395:Generated_Source\PSoC5/USBUART.c **** 
 396:Generated_Source\PSoC5/USBUART.c ****     /* Arbiter configuration for DMA transfers */
 397:Generated_Source\PSoC5/USBUART.c ****     #if(USBUART_EP_MM != USBUART__EP_MANUAL)
 398:Generated_Source\PSoC5/USBUART.c ****         #if(USBUART_EP_MM == USBUART__EP_DMAMANUAL)
 399:Generated_Source\PSoC5/USBUART.c ****             USBUART_ARB_CFG_REG = USBUART_ARB_CFG_MANUAL_DMA;
ARM GAS  C:\Users\MARTHN~1\AppData\Local\Temp\ccp8lHLI.s 			page 14


 400:Generated_Source\PSoC5/USBUART.c ****         #endif   /*  USBUART_EP_MM == USBUART__EP_DMAMANUAL */
 401:Generated_Source\PSoC5/USBUART.c ****         #if(USBUART_EP_MM == USBUART__EP_DMAAUTO)
 402:Generated_Source\PSoC5/USBUART.c ****             /*Set cfg cmplt this rises DMA request when the full configuration is done */
 403:Generated_Source\PSoC5/USBUART.c ****             USBUART_ARB_CFG_REG = USBUART_ARB_CFG_AUTO_DMA | USBUART_ARB_CFG_AUTO_MEM;
 404:Generated_Source\PSoC5/USBUART.c ****             #if(USBUART_EP_DMA_AUTO_OPT == 0u)
 405:Generated_Source\PSoC5/USBUART.c ****                 /* Init interrupt which handles verification of the successful DMA transaction */
 406:Generated_Source\PSoC5/USBUART.c ****                 USBUART_EP_DMA_Done_isr_StartEx(&USBUART_EP_DMA_DONE_ISR);
 407:Generated_Source\PSoC5/USBUART.c ****                 USBUART_EP17_DMA_Done_SR_InterruptEnable();
 408:Generated_Source\PSoC5/USBUART.c ****                 USBUART_EP8_DMA_Done_SR_InterruptEnable();
 409:Generated_Source\PSoC5/USBUART.c ****             #endif /* USBUART_EP_DMA_AUTO_OPT == 0u */
 410:Generated_Source\PSoC5/USBUART.c ****         #endif   /*  USBUART_EP_MM == USBUART__EP_DMAAUTO */
 411:Generated_Source\PSoC5/USBUART.c ****     #endif   /*  USBUART_EP_MM != USBUART__EP_MANUAL */
 412:Generated_Source\PSoC5/USBUART.c **** 
 413:Generated_Source\PSoC5/USBUART.c ****     USBUART_transferState = USBUART_TRANS_STATE_IDLE;
 343              		.loc 1 413 0
 344 0038 1D4B     		ldr	r3, .L14+4
 345 003a 0022     		movs	r2, #0
 346 003c 1A70     		strb	r2, [r3]
 414:Generated_Source\PSoC5/USBUART.c **** 
 415:Generated_Source\PSoC5/USBUART.c ****     /* USB Locking: Enabled, VRegulator: depend on mode or DWR Voltage configuration*/
 416:Generated_Source\PSoC5/USBUART.c ****     switch(mode)
 347              		.loc 1 416 0
 348 003e BB79     		ldrb	r3, [r7, #6]	@ zero_extendqisi2
 349 0040 002B     		cmp	r3, #0
 350 0042 02D0     		beq	.L10
 351 0044 012B     		cmp	r3, #1
 352 0046 04D0     		beq	.L11
 353 0048 07E0     		b	.L13
 354              	.L10:
 417:Generated_Source\PSoC5/USBUART.c ****     {
 418:Generated_Source\PSoC5/USBUART.c ****         case USBUART_3V_OPERATION:
 419:Generated_Source\PSoC5/USBUART.c ****             USBUART_CR1_REG = USBUART_CR1_ENABLE_LOCK;
 355              		.loc 1 419 0
 356 004a 1A4B     		ldr	r3, .L14+8
 357 004c 0222     		movs	r2, #2
 358 004e 1A70     		strb	r2, [r3]
 420:Generated_Source\PSoC5/USBUART.c ****             break;
 359              		.loc 1 420 0
 360 0050 07E0     		b	.L12
 361              	.L11:
 421:Generated_Source\PSoC5/USBUART.c ****         case USBUART_5V_OPERATION:
 422:Generated_Source\PSoC5/USBUART.c ****             USBUART_CR1_REG = USBUART_CR1_ENABLE_LOCK | USBUART_CR1_REG_ENABLE;
 362              		.loc 1 422 0
 363 0052 184B     		ldr	r3, .L14+8
 364 0054 0322     		movs	r2, #3
 365 0056 1A70     		strb	r2, [r3]
 423:Generated_Source\PSoC5/USBUART.c ****             break;
 366              		.loc 1 423 0
 367 0058 03E0     		b	.L12
 368              	.L13:
 424:Generated_Source\PSoC5/USBUART.c ****         default:   /*USBUART_DWR_VDDD_OPERATION */
 425:Generated_Source\PSoC5/USBUART.c ****             #if(USBUART_VDDD_MV < USBUART_3500MV)
 426:Generated_Source\PSoC5/USBUART.c ****                 USBUART_CR1_REG = USBUART_CR1_ENABLE_LOCK;
 427:Generated_Source\PSoC5/USBUART.c ****             #else
 428:Generated_Source\PSoC5/USBUART.c ****                 USBUART_CR1_REG = USBUART_CR1_ENABLE_LOCK | USBUART_CR1_REG_ENABLE;
 369              		.loc 1 428 0
 370 005a 164B     		ldr	r3, .L14+8
ARM GAS  C:\Users\MARTHN~1\AppData\Local\Temp\ccp8lHLI.s 			page 15


 371 005c 0322     		movs	r2, #3
 372 005e 1A70     		strb	r2, [r3]
 429:Generated_Source\PSoC5/USBUART.c ****             #endif /*  USBUART_VDDD_MV < USBUART_3500MV */
 430:Generated_Source\PSoC5/USBUART.c ****             break;
 373              		.loc 1 430 0
 374 0060 00BF     		nop
 375              	.L12:
 431:Generated_Source\PSoC5/USBUART.c ****     }
 432:Generated_Source\PSoC5/USBUART.c **** 
 433:Generated_Source\PSoC5/USBUART.c ****     /* Record the descriptor selection */
 434:Generated_Source\PSoC5/USBUART.c ****     USBUART_device = device;
 376              		.loc 1 434 0
 377 0062 154A     		ldr	r2, .L14+12
 378 0064 FB79     		ldrb	r3, [r7, #7]
 379 0066 1370     		strb	r3, [r2]
 435:Generated_Source\PSoC5/USBUART.c **** 
 436:Generated_Source\PSoC5/USBUART.c ****     /* Clear all of the component data */
 437:Generated_Source\PSoC5/USBUART.c ****     USBUART_configuration = 0u;
 380              		.loc 1 437 0
 381 0068 144B     		ldr	r3, .L14+16
 382 006a 0022     		movs	r2, #0
 383 006c 1A70     		strb	r2, [r3]
 438:Generated_Source\PSoC5/USBUART.c ****     USBUART_interfaceNumber = 0u;
 384              		.loc 1 438 0
 385 006e 144B     		ldr	r3, .L14+20
 386 0070 0022     		movs	r2, #0
 387 0072 1A70     		strb	r2, [r3]
 439:Generated_Source\PSoC5/USBUART.c ****     USBUART_configurationChanged = 0u;
 388              		.loc 1 439 0
 389 0074 134B     		ldr	r3, .L14+24
 390 0076 0022     		movs	r2, #0
 391 0078 1A70     		strb	r2, [r3]
 440:Generated_Source\PSoC5/USBUART.c ****     USBUART_deviceAddress  = 0u;
 392              		.loc 1 440 0
 393 007a 134B     		ldr	r3, .L14+28
 394 007c 0022     		movs	r2, #0
 395 007e 1A70     		strb	r2, [r3]
 441:Generated_Source\PSoC5/USBUART.c ****     USBUART_deviceStatus = 0u;
 396              		.loc 1 441 0
 397 0080 124B     		ldr	r3, .L14+32
 398 0082 0022     		movs	r2, #0
 399 0084 1A70     		strb	r2, [r3]
 442:Generated_Source\PSoC5/USBUART.c **** 
 443:Generated_Source\PSoC5/USBUART.c ****     USBUART_lastPacketSize = 0u;
 400              		.loc 1 443 0
 401 0086 124B     		ldr	r3, .L14+36
 402 0088 0022     		movs	r2, #0
 403 008a 1A70     		strb	r2, [r3]
 444:Generated_Source\PSoC5/USBUART.c **** 
 445:Generated_Source\PSoC5/USBUART.c ****     /*  ACK Setup, Stall IN/OUT */
 446:Generated_Source\PSoC5/USBUART.c ****     CY_SET_REG8(USBUART_EP0_CR_PTR, USBUART_MODE_STALL_IN_OUT);
 404              		.loc 1 446 0
 405 008c 114B     		ldr	r3, .L14+40
 406 008e 0322     		movs	r2, #3
 407 0090 1A70     		strb	r2, [r3]
 447:Generated_Source\PSoC5/USBUART.c **** 
 448:Generated_Source\PSoC5/USBUART.c ****     /* Enable the SIE with an address 0 */
ARM GAS  C:\Users\MARTHN~1\AppData\Local\Temp\ccp8lHLI.s 			page 16


 449:Generated_Source\PSoC5/USBUART.c ****     CY_SET_REG8(USBUART_CR0_PTR, USBUART_CR0_ENABLE);
 408              		.loc 1 449 0
 409 0092 114B     		ldr	r3, .L14+44
 410 0094 8022     		movs	r2, #128
 411 0096 1A70     		strb	r2, [r3]
 450:Generated_Source\PSoC5/USBUART.c **** 
 451:Generated_Source\PSoC5/USBUART.c ****     /* Workaround for PSOC5LP */
 452:Generated_Source\PSoC5/USBUART.c ****     CyDelayCycles(1u);
 412              		.loc 1 452 0
 413 0098 0120     		movs	r0, #1
 414 009a FFF7FEFF 		bl	CyDelayCycles
 453:Generated_Source\PSoC5/USBUART.c **** 
 454:Generated_Source\PSoC5/USBUART.c ****     /* Finally, Enable d+ pullup and select iomode to USB mode*/
 455:Generated_Source\PSoC5/USBUART.c ****     CY_SET_REG8(USBUART_USBIO_CR1_PTR, USBUART_USBIO_CR1_USBPUEN);
 415              		.loc 1 455 0
 416 009e 0F4B     		ldr	r3, .L14+48
 417 00a0 0422     		movs	r2, #4
 418 00a2 1A70     		strb	r2, [r3]
 456:Generated_Source\PSoC5/USBUART.c **** }
 419              		.loc 1 456 0
 420 00a4 00BF     		nop
 421 00a6 0837     		adds	r7, r7, #8
 422              		.cfi_def_cfa_offset 8
 423 00a8 BD46     		mov	sp, r7
 424              		.cfi_def_cfa_register 13
 425              		@ sp needed
 426 00aa 80BD     		pop	{r7, pc}
 427              	.L15:
 428              		.align	2
 429              	.L14:
 430 00ac 00E100E0 		.word	-536813312
 431 00b0 00000000 		.word	USBUART_transferState
 432 00b4 09600040 		.word	1073766409
 433 00b8 00000000 		.word	USBUART_device
 434 00bc 00000000 		.word	USBUART_configuration
 435 00c0 00000000 		.word	USBUART_interfaceNumber
 436 00c4 00000000 		.word	USBUART_configurationChanged
 437 00c8 00000000 		.word	USBUART_deviceAddress
 438 00cc 00000000 		.word	USBUART_deviceStatus
 439 00d0 00000000 		.word	USBUART_lastPacketSize
 440 00d4 28600040 		.word	1073766440
 441 00d8 08600040 		.word	1073766408
 442 00dc 12600040 		.word	1073766418
 443              		.cfi_endproc
 444              	.LFE2:
 445              		.size	USBUART_InitComponent, .-USBUART_InitComponent
 446              		.section	.text.USBUART_ReInitComponent,"ax",%progbits
 447              		.align	2
 448              		.global	USBUART_ReInitComponent
 449              		.thumb
 450              		.thumb_func
 451              		.type	USBUART_ReInitComponent, %function
 452              	USBUART_ReInitComponent:
 453              	.LFB3:
 457:Generated_Source\PSoC5/USBUART.c **** 
 458:Generated_Source\PSoC5/USBUART.c **** 
 459:Generated_Source\PSoC5/USBUART.c **** /*******************************************************************************
ARM GAS  C:\Users\MARTHN~1\AppData\Local\Temp\ccp8lHLI.s 			page 17


 460:Generated_Source\PSoC5/USBUART.c **** * Function Name: USBUART_ReInitComponent
 461:Generated_Source\PSoC5/USBUART.c **** ********************************************************************************
 462:Generated_Source\PSoC5/USBUART.c **** *
 463:Generated_Source\PSoC5/USBUART.c **** * Summary:
 464:Generated_Source\PSoC5/USBUART.c **** *  This function reinitialize the component configuration and is
 465:Generated_Source\PSoC5/USBUART.c **** *  intend to be called from the Reset interrupt.
 466:Generated_Source\PSoC5/USBUART.c **** *
 467:Generated_Source\PSoC5/USBUART.c **** * Parameters:
 468:Generated_Source\PSoC5/USBUART.c **** *  None.
 469:Generated_Source\PSoC5/USBUART.c **** *
 470:Generated_Source\PSoC5/USBUART.c **** * Return:
 471:Generated_Source\PSoC5/USBUART.c **** *   None.
 472:Generated_Source\PSoC5/USBUART.c **** *
 473:Generated_Source\PSoC5/USBUART.c **** * Global variables:
 474:Generated_Source\PSoC5/USBUART.c **** *   USBUART_device: Contains the device number of the desired device
 475:Generated_Source\PSoC5/USBUART.c **** *        descriptor. The device number can be found in the Device Descriptor Tab
 476:Generated_Source\PSoC5/USBUART.c **** *       of "Configure" dialog, under the settings of desired Device Descriptor,
 477:Generated_Source\PSoC5/USBUART.c **** *       in the "Device Number" field.
 478:Generated_Source\PSoC5/USBUART.c **** *   USBUART_transferState: This variable used by the communication
 479:Generated_Source\PSoC5/USBUART.c **** *       functions to handle current transfer state. Initialized to
 480:Generated_Source\PSoC5/USBUART.c **** *       TRANS_STATE_IDLE in this API.
 481:Generated_Source\PSoC5/USBUART.c **** *   USBUART_configuration: Contains current configuration number
 482:Generated_Source\PSoC5/USBUART.c **** *       which is set by the Host using SET_CONFIGURATION request.
 483:Generated_Source\PSoC5/USBUART.c **** *       Initialized to zero in this API.
 484:Generated_Source\PSoC5/USBUART.c **** *   USBUART_deviceAddress: Contains current device address. This
 485:Generated_Source\PSoC5/USBUART.c **** *       variable is initialized to zero in this API. Host starts to communicate
 486:Generated_Source\PSoC5/USBUART.c **** *      to device with address 0 and then set it to whatever value using
 487:Generated_Source\PSoC5/USBUART.c **** *      SET_ADDRESS request.
 488:Generated_Source\PSoC5/USBUART.c **** *   USBUART_deviceStatus: initialized to 0.
 489:Generated_Source\PSoC5/USBUART.c **** *       This is two bit variable which contain power status in first bit
 490:Generated_Source\PSoC5/USBUART.c **** *       (DEVICE_STATUS_BUS_POWERED or DEVICE_STATUS_SELF_POWERED) and remote
 491:Generated_Source\PSoC5/USBUART.c **** *       wakeup status (DEVICE_STATUS_REMOTE_WAKEUP) in second bit.
 492:Generated_Source\PSoC5/USBUART.c **** *   USBUART_lastPacketSize initialized to 0;
 493:Generated_Source\PSoC5/USBUART.c **** *
 494:Generated_Source\PSoC5/USBUART.c **** * Reentrant:
 495:Generated_Source\PSoC5/USBUART.c **** *  No.
 496:Generated_Source\PSoC5/USBUART.c **** *
 497:Generated_Source\PSoC5/USBUART.c **** *******************************************************************************/
 498:Generated_Source\PSoC5/USBUART.c **** void USBUART_ReInitComponent(void) 
 499:Generated_Source\PSoC5/USBUART.c **** {
 454              		.loc 1 499 0
 455              		.cfi_startproc
 456              		@ args = 0, pretend = 0, frame = 0
 457              		@ frame_needed = 1, uses_anonymous_args = 0
 458              		@ link register save eliminated.
 459 0000 80B4     		push	{r7}
 460              		.cfi_def_cfa_offset 4
 461              		.cfi_offset 7, -4
 462 0002 00AF     		add	r7, sp, #0
 463              		.cfi_def_cfa_register 7
 500:Generated_Source\PSoC5/USBUART.c ****     /* Initialize _hidProtocol variable to comply with HID 7.2.6 Set_Protocol
 501:Generated_Source\PSoC5/USBUART.c ****     *  Request: "When initialized, all devices default to report protocol."
 502:Generated_Source\PSoC5/USBUART.c ****     */
 503:Generated_Source\PSoC5/USBUART.c ****     #if defined(USBUART_ENABLE_HID_CLASS)
 504:Generated_Source\PSoC5/USBUART.c ****         uint8 i;
 505:Generated_Source\PSoC5/USBUART.c **** 
 506:Generated_Source\PSoC5/USBUART.c ****         for (i = 0u; i < USBUART_MAX_INTERFACES_NUMBER; i++)
ARM GAS  C:\Users\MARTHN~1\AppData\Local\Temp\ccp8lHLI.s 			page 18


 507:Generated_Source\PSoC5/USBUART.c ****         {
 508:Generated_Source\PSoC5/USBUART.c ****             USBUART_hidProtocol[i] = USBUART_PROTOCOL_REPORT;
 509:Generated_Source\PSoC5/USBUART.c ****         }
 510:Generated_Source\PSoC5/USBUART.c ****     #endif /* USBUART_ENABLE_HID_CLASS */
 511:Generated_Source\PSoC5/USBUART.c **** 
 512:Generated_Source\PSoC5/USBUART.c ****     USBUART_transferState = USBUART_TRANS_STATE_IDLE;
 464              		.loc 1 512 0
 465 0004 0F4B     		ldr	r3, .L17
 466 0006 0022     		movs	r2, #0
 467 0008 1A70     		strb	r2, [r3]
 513:Generated_Source\PSoC5/USBUART.c **** 
 514:Generated_Source\PSoC5/USBUART.c ****     /* Clear all of the component data */
 515:Generated_Source\PSoC5/USBUART.c ****     USBUART_configuration = 0u;
 468              		.loc 1 515 0
 469 000a 0F4B     		ldr	r3, .L17+4
 470 000c 0022     		movs	r2, #0
 471 000e 1A70     		strb	r2, [r3]
 516:Generated_Source\PSoC5/USBUART.c ****     USBUART_interfaceNumber = 0u;
 472              		.loc 1 516 0
 473 0010 0E4B     		ldr	r3, .L17+8
 474 0012 0022     		movs	r2, #0
 475 0014 1A70     		strb	r2, [r3]
 517:Generated_Source\PSoC5/USBUART.c ****     USBUART_configurationChanged = 0u;
 476              		.loc 1 517 0
 477 0016 0E4B     		ldr	r3, .L17+12
 478 0018 0022     		movs	r2, #0
 479 001a 1A70     		strb	r2, [r3]
 518:Generated_Source\PSoC5/USBUART.c ****     USBUART_deviceAddress  = 0u;
 480              		.loc 1 518 0
 481 001c 0D4B     		ldr	r3, .L17+16
 482 001e 0022     		movs	r2, #0
 483 0020 1A70     		strb	r2, [r3]
 519:Generated_Source\PSoC5/USBUART.c ****     USBUART_deviceStatus = 0u;
 484              		.loc 1 519 0
 485 0022 0D4B     		ldr	r3, .L17+20
 486 0024 0022     		movs	r2, #0
 487 0026 1A70     		strb	r2, [r3]
 520:Generated_Source\PSoC5/USBUART.c **** 
 521:Generated_Source\PSoC5/USBUART.c ****     USBUART_lastPacketSize = 0u;
 488              		.loc 1 521 0
 489 0028 0C4B     		ldr	r3, .L17+24
 490 002a 0022     		movs	r2, #0
 491 002c 1A70     		strb	r2, [r3]
 522:Generated_Source\PSoC5/USBUART.c **** 
 523:Generated_Source\PSoC5/USBUART.c **** 
 524:Generated_Source\PSoC5/USBUART.c ****     /*  ACK Setup, Stall IN/OUT */
 525:Generated_Source\PSoC5/USBUART.c ****     CY_SET_REG8(USBUART_EP0_CR_PTR, USBUART_MODE_STALL_IN_OUT);
 492              		.loc 1 525 0
 493 002e 0C4B     		ldr	r3, .L17+28
 494 0030 0322     		movs	r2, #3
 495 0032 1A70     		strb	r2, [r3]
 526:Generated_Source\PSoC5/USBUART.c **** 
 527:Generated_Source\PSoC5/USBUART.c ****     /* Enable the SIE with an address 0 */
 528:Generated_Source\PSoC5/USBUART.c ****     CY_SET_REG8(USBUART_CR0_PTR, USBUART_CR0_ENABLE);
 496              		.loc 1 528 0
 497 0034 0B4B     		ldr	r3, .L17+32
 498 0036 8022     		movs	r2, #128
ARM GAS  C:\Users\MARTHN~1\AppData\Local\Temp\ccp8lHLI.s 			page 19


 499 0038 1A70     		strb	r2, [r3]
 529:Generated_Source\PSoC5/USBUART.c **** 
 530:Generated_Source\PSoC5/USBUART.c **** }
 500              		.loc 1 530 0
 501 003a 00BF     		nop
 502 003c BD46     		mov	sp, r7
 503              		.cfi_def_cfa_register 13
 504              		@ sp needed
 505 003e 80BC     		pop	{r7}
 506              		.cfi_restore 7
 507              		.cfi_def_cfa_offset 0
 508 0040 7047     		bx	lr
 509              	.L18:
 510 0042 00BF     		.align	2
 511              	.L17:
 512 0044 00000000 		.word	USBUART_transferState
 513 0048 00000000 		.word	USBUART_configuration
 514 004c 00000000 		.word	USBUART_interfaceNumber
 515 0050 00000000 		.word	USBUART_configurationChanged
 516 0054 00000000 		.word	USBUART_deviceAddress
 517 0058 00000000 		.word	USBUART_deviceStatus
 518 005c 00000000 		.word	USBUART_lastPacketSize
 519 0060 28600040 		.word	1073766440
 520 0064 08600040 		.word	1073766408
 521              		.cfi_endproc
 522              	.LFE3:
 523              		.size	USBUART_ReInitComponent, .-USBUART_ReInitComponent
 524              		.section	.text.USBUART_Stop,"ax",%progbits
 525              		.align	2
 526              		.global	USBUART_Stop
 527              		.thumb
 528              		.thumb_func
 529              		.type	USBUART_Stop, %function
 530              	USBUART_Stop:
 531              	.LFB4:
 531:Generated_Source\PSoC5/USBUART.c **** 
 532:Generated_Source\PSoC5/USBUART.c **** 
 533:Generated_Source\PSoC5/USBUART.c **** /*******************************************************************************
 534:Generated_Source\PSoC5/USBUART.c **** * Function Name: USBUART_Stop
 535:Generated_Source\PSoC5/USBUART.c **** ********************************************************************************
 536:Generated_Source\PSoC5/USBUART.c **** *
 537:Generated_Source\PSoC5/USBUART.c **** * Summary:
 538:Generated_Source\PSoC5/USBUART.c **** *  This function shuts down the USB function including to release
 539:Generated_Source\PSoC5/USBUART.c **** *  the D+ Pullup and disabling the SIE.
 540:Generated_Source\PSoC5/USBUART.c **** *
 541:Generated_Source\PSoC5/USBUART.c **** * Parameters:
 542:Generated_Source\PSoC5/USBUART.c **** *  None.
 543:Generated_Source\PSoC5/USBUART.c **** *
 544:Generated_Source\PSoC5/USBUART.c **** * Return:
 545:Generated_Source\PSoC5/USBUART.c **** *  None.
 546:Generated_Source\PSoC5/USBUART.c **** *
 547:Generated_Source\PSoC5/USBUART.c **** * Global variables:
 548:Generated_Source\PSoC5/USBUART.c **** *   USBUART_configuration: Contains current configuration number
 549:Generated_Source\PSoC5/USBUART.c **** *       which is set by the Host using SET_CONFIGURATION request.
 550:Generated_Source\PSoC5/USBUART.c **** *       Initialized to zero in this API.
 551:Generated_Source\PSoC5/USBUART.c **** *   USBUART_deviceAddress: Contains current device address. This
 552:Generated_Source\PSoC5/USBUART.c **** *       variable is initialized to zero in this API. Host starts to communicate
ARM GAS  C:\Users\MARTHN~1\AppData\Local\Temp\ccp8lHLI.s 			page 20


 553:Generated_Source\PSoC5/USBUART.c **** *      to device with address 0 and then set it to whatever value using
 554:Generated_Source\PSoC5/USBUART.c **** *      SET_ADDRESS request.
 555:Generated_Source\PSoC5/USBUART.c **** *   USBUART_deviceStatus: initialized to 0.
 556:Generated_Source\PSoC5/USBUART.c **** *       This is two bit variable which contain power status in first bit
 557:Generated_Source\PSoC5/USBUART.c **** *       (DEVICE_STATUS_BUS_POWERED or DEVICE_STATUS_SELF_POWERED) and remote
 558:Generated_Source\PSoC5/USBUART.c **** *       wakeup status (DEVICE_STATUS_REMOTE_WAKEUP) in second bit.
 559:Generated_Source\PSoC5/USBUART.c **** *   USBUART_configurationChanged: This variable is set to one after
 560:Generated_Source\PSoC5/USBUART.c **** *       SET_CONFIGURATION request and cleared in this function.
 561:Generated_Source\PSoC5/USBUART.c **** *   USBUART_intiVar variable is set to zero
 562:Generated_Source\PSoC5/USBUART.c **** *
 563:Generated_Source\PSoC5/USBUART.c **** *******************************************************************************/
 564:Generated_Source\PSoC5/USBUART.c **** void USBUART_Stop(void) 
 565:Generated_Source\PSoC5/USBUART.c **** {
 532              		.loc 1 565 0
 533              		.cfi_startproc
 534              		@ args = 0, pretend = 0, frame = 0
 535              		@ frame_needed = 1, uses_anonymous_args = 0
 536              		@ link register save eliminated.
 537 0000 80B4     		push	{r7}
 538              		.cfi_def_cfa_offset 4
 539              		.cfi_offset 7, -4
 540 0002 00AF     		add	r7, sp, #0
 541              		.cfi_def_cfa_register 7
 566:Generated_Source\PSoC5/USBUART.c **** 
 567:Generated_Source\PSoC5/USBUART.c ****     #if(USBUART_EP_MM != USBUART__EP_MANUAL)
 568:Generated_Source\PSoC5/USBUART.c ****         USBUART_Stop_DMA(USBUART_MAX_EP);     /* Stop all DMAs */
 569:Generated_Source\PSoC5/USBUART.c ****     #endif   /*  USBUART_EP_MM != USBUART__EP_MANUAL */
 570:Generated_Source\PSoC5/USBUART.c **** 
 571:Generated_Source\PSoC5/USBUART.c ****     /* Disable the SIE */
 572:Generated_Source\PSoC5/USBUART.c ****     USBUART_CR0_REG &= (uint8)(~USBUART_CR0_ENABLE);
 542              		.loc 1 572 0
 543 0004 244A     		ldr	r2, .L20
 544 0006 244B     		ldr	r3, .L20
 545 0008 1B78     		ldrb	r3, [r3]
 546 000a DBB2     		uxtb	r3, r3
 547 000c 03F07F03 		and	r3, r3, #127
 548 0010 DBB2     		uxtb	r3, r3
 549 0012 1370     		strb	r3, [r2]
 573:Generated_Source\PSoC5/USBUART.c ****     /* Disable the d+ pullup */
 574:Generated_Source\PSoC5/USBUART.c ****     USBUART_USBIO_CR1_REG &= (uint8)(~USBUART_USBIO_CR1_USBPUEN);
 550              		.loc 1 574 0
 551 0014 214A     		ldr	r2, .L20+4
 552 0016 214B     		ldr	r3, .L20+4
 553 0018 1B78     		ldrb	r3, [r3]
 554 001a DBB2     		uxtb	r3, r3
 555 001c 23F00403 		bic	r3, r3, #4
 556 0020 DBB2     		uxtb	r3, r3
 557 0022 1370     		strb	r3, [r2]
 575:Generated_Source\PSoC5/USBUART.c ****     /* Disable USB in ACT PM */
 576:Generated_Source\PSoC5/USBUART.c ****     USBUART_PM_ACT_CFG_REG &= (uint8)(~USBUART_PM_ACT_EN_FSUSB);
 558              		.loc 1 576 0
 559 0024 1E4A     		ldr	r2, .L20+8
 560 0026 1E4B     		ldr	r3, .L20+8
 561 0028 1B78     		ldrb	r3, [r3]
 562 002a DBB2     		uxtb	r3, r3
 563 002c 23F00103 		bic	r3, r3, #1
 564 0030 DBB2     		uxtb	r3, r3
ARM GAS  C:\Users\MARTHN~1\AppData\Local\Temp\ccp8lHLI.s 			page 21


 565 0032 1370     		strb	r3, [r2]
 577:Generated_Source\PSoC5/USBUART.c ****     /* Disable USB block for Standby Power Mode */
 578:Generated_Source\PSoC5/USBUART.c ****     USBUART_PM_STBY_CFG_REG &= (uint8)(~USBUART_PM_STBY_EN_FSUSB);
 566              		.loc 1 578 0
 567 0034 1B4A     		ldr	r2, .L20+12
 568 0036 1B4B     		ldr	r3, .L20+12
 569 0038 1B78     		ldrb	r3, [r3]
 570 003a DBB2     		uxtb	r3, r3
 571 003c 23F00103 		bic	r3, r3, #1
 572 0040 DBB2     		uxtb	r3, r3
 573 0042 1370     		strb	r3, [r2]
 579:Generated_Source\PSoC5/USBUART.c **** 
 580:Generated_Source\PSoC5/USBUART.c ****     /* Disable the reset and EP interrupts */
 581:Generated_Source\PSoC5/USBUART.c ****     CyIntDisable(USBUART_BUS_RESET_VECT_NUM);
 574              		.loc 1 581 0
 575 0044 184B     		ldr	r3, .L20+16
 576 0046 4FF40002 		mov	r2, #8388608
 577 004a 1A60     		str	r2, [r3]
 582:Generated_Source\PSoC5/USBUART.c ****     CyIntDisable(USBUART_EP_0_VECT_NUM);
 578              		.loc 1 582 0
 579 004c 164B     		ldr	r3, .L20+16
 580 004e 4FF08072 		mov	r2, #16777216
 581 0052 1A60     		str	r2, [r3]
 583:Generated_Source\PSoC5/USBUART.c ****     #if(USBUART_EP1_ISR_REMOVE == 0u)
 584:Generated_Source\PSoC5/USBUART.c ****         CyIntDisable(USBUART_EP_1_VECT_NUM);
 582              		.loc 1 584 0
 583 0054 144B     		ldr	r3, .L20+16
 584 0056 4FF48072 		mov	r2, #256
 585 005a 1A60     		str	r2, [r3]
 585:Generated_Source\PSoC5/USBUART.c ****     #endif   /*  USBUART_EP1_ISR_REMOVE */
 586:Generated_Source\PSoC5/USBUART.c ****     #if(USBUART_EP2_ISR_REMOVE == 0u)
 587:Generated_Source\PSoC5/USBUART.c ****         CyIntDisable(USBUART_EP_2_VECT_NUM);
 586              		.loc 1 587 0
 587 005c 124B     		ldr	r3, .L20+16
 588 005e 4FF40072 		mov	r2, #512
 589 0062 1A60     		str	r2, [r3]
 588:Generated_Source\PSoC5/USBUART.c ****     #endif   /*  USBUART_EP2_ISR_REMOVE */
 589:Generated_Source\PSoC5/USBUART.c ****     #if(USBUART_EP3_ISR_REMOVE == 0u)
 590:Generated_Source\PSoC5/USBUART.c ****         CyIntDisable(USBUART_EP_3_VECT_NUM);
 590              		.loc 1 590 0
 591 0064 104B     		ldr	r3, .L20+16
 592 0066 4FF48062 		mov	r2, #1024
 593 006a 1A60     		str	r2, [r3]
 591:Generated_Source\PSoC5/USBUART.c ****     #endif   /*  USBUART_EP3_ISR_REMOVE */
 592:Generated_Source\PSoC5/USBUART.c ****     #if(USBUART_EP4_ISR_REMOVE == 0u)
 593:Generated_Source\PSoC5/USBUART.c ****         CyIntDisable(USBUART_EP_4_VECT_NUM);
 594:Generated_Source\PSoC5/USBUART.c ****     #endif   /*  USBUART_EP4_ISR_REMOVE */
 595:Generated_Source\PSoC5/USBUART.c ****     #if(USBUART_EP5_ISR_REMOVE == 0u)
 596:Generated_Source\PSoC5/USBUART.c ****         CyIntDisable(USBUART_EP_5_VECT_NUM);
 597:Generated_Source\PSoC5/USBUART.c ****     #endif   /*  USBUART_EP5_ISR_REMOVE */
 598:Generated_Source\PSoC5/USBUART.c ****     #if(USBUART_EP6_ISR_REMOVE == 0u)
 599:Generated_Source\PSoC5/USBUART.c ****         CyIntDisable(USBUART_EP_6_VECT_NUM);
 600:Generated_Source\PSoC5/USBUART.c ****     #endif   /*  USBUART_EP6_ISR_REMOVE */
 601:Generated_Source\PSoC5/USBUART.c ****     #if(USBUART_EP7_ISR_REMOVE == 0u)
 602:Generated_Source\PSoC5/USBUART.c ****         CyIntDisable(USBUART_EP_7_VECT_NUM);
 603:Generated_Source\PSoC5/USBUART.c ****     #endif   /*  USBUART_EP7_ISR_REMOVE */
 604:Generated_Source\PSoC5/USBUART.c ****     #if(USBUART_EP8_ISR_REMOVE == 0u)
ARM GAS  C:\Users\MARTHN~1\AppData\Local\Temp\ccp8lHLI.s 			page 22


 605:Generated_Source\PSoC5/USBUART.c ****         CyIntDisable(USBUART_EP_8_VECT_NUM);
 606:Generated_Source\PSoC5/USBUART.c ****     #endif   /*  USBUART_EP8_ISR_REMOVE */
 607:Generated_Source\PSoC5/USBUART.c **** 
 608:Generated_Source\PSoC5/USBUART.c ****     /* Clear all of the component data */
 609:Generated_Source\PSoC5/USBUART.c ****     USBUART_configuration = 0u;
 594              		.loc 1 609 0
 595 006c 0F4B     		ldr	r3, .L20+20
 596 006e 0022     		movs	r2, #0
 597 0070 1A70     		strb	r2, [r3]
 610:Generated_Source\PSoC5/USBUART.c ****     USBUART_interfaceNumber = 0u;
 598              		.loc 1 610 0
 599 0072 0F4B     		ldr	r3, .L20+24
 600 0074 0022     		movs	r2, #0
 601 0076 1A70     		strb	r2, [r3]
 611:Generated_Source\PSoC5/USBUART.c ****     USBUART_configurationChanged = 0u;
 602              		.loc 1 611 0
 603 0078 0E4B     		ldr	r3, .L20+28
 604 007a 0022     		movs	r2, #0
 605 007c 1A70     		strb	r2, [r3]
 612:Generated_Source\PSoC5/USBUART.c ****     USBUART_deviceAddress  = 0u;
 606              		.loc 1 612 0
 607 007e 0E4B     		ldr	r3, .L20+32
 608 0080 0022     		movs	r2, #0
 609 0082 1A70     		strb	r2, [r3]
 613:Generated_Source\PSoC5/USBUART.c ****     USBUART_deviceStatus = 0u;
 610              		.loc 1 613 0
 611 0084 0D4B     		ldr	r3, .L20+36
 612 0086 0022     		movs	r2, #0
 613 0088 1A70     		strb	r2, [r3]
 614:Generated_Source\PSoC5/USBUART.c ****     USBUART_initVar = 0u;
 614              		.loc 1 614 0
 615 008a 0D4B     		ldr	r3, .L20+40
 616 008c 0022     		movs	r2, #0
 617 008e 1A70     		strb	r2, [r3]
 615:Generated_Source\PSoC5/USBUART.c **** 
 616:Generated_Source\PSoC5/USBUART.c **** }
 618              		.loc 1 616 0
 619 0090 00BF     		nop
 620 0092 BD46     		mov	sp, r7
 621              		.cfi_def_cfa_register 13
 622              		@ sp needed
 623 0094 80BC     		pop	{r7}
 624              		.cfi_restore 7
 625              		.cfi_def_cfa_offset 0
 626 0096 7047     		bx	lr
 627              	.L21:
 628              		.align	2
 629              	.L20:
 630 0098 08600040 		.word	1073766408
 631 009c 12600040 		.word	1073766418
 632 00a0 A5430040 		.word	1073759141
 633 00a4 B5430040 		.word	1073759157
 634 00a8 80E100E0 		.word	-536813184
 635 00ac 00000000 		.word	USBUART_configuration
 636 00b0 00000000 		.word	USBUART_interfaceNumber
 637 00b4 00000000 		.word	USBUART_configurationChanged
 638 00b8 00000000 		.word	USBUART_deviceAddress
ARM GAS  C:\Users\MARTHN~1\AppData\Local\Temp\ccp8lHLI.s 			page 23


 639 00bc 00000000 		.word	USBUART_deviceStatus
 640 00c0 00000000 		.word	USBUART_initVar
 641              		.cfi_endproc
 642              	.LFE4:
 643              		.size	USBUART_Stop, .-USBUART_Stop
 644              		.section	.text.USBUART_CheckActivity,"ax",%progbits
 645              		.align	2
 646              		.global	USBUART_CheckActivity
 647              		.thumb
 648              		.thumb_func
 649              		.type	USBUART_CheckActivity, %function
 650              	USBUART_CheckActivity:
 651              	.LFB5:
 617:Generated_Source\PSoC5/USBUART.c **** 
 618:Generated_Source\PSoC5/USBUART.c **** 
 619:Generated_Source\PSoC5/USBUART.c **** /*******************************************************************************
 620:Generated_Source\PSoC5/USBUART.c **** * Function Name: USBUART_CheckActivity
 621:Generated_Source\PSoC5/USBUART.c **** ********************************************************************************
 622:Generated_Source\PSoC5/USBUART.c **** *
 623:Generated_Source\PSoC5/USBUART.c **** * Summary:
 624:Generated_Source\PSoC5/USBUART.c **** *  Returns the activity status of the bus.  Clears the status hardware to
 625:Generated_Source\PSoC5/USBUART.c **** *  provide fresh activity status on the next call of this routine.
 626:Generated_Source\PSoC5/USBUART.c **** *
 627:Generated_Source\PSoC5/USBUART.c **** * Parameters:
 628:Generated_Source\PSoC5/USBUART.c **** *  None.
 629:Generated_Source\PSoC5/USBUART.c **** *
 630:Generated_Source\PSoC5/USBUART.c **** * Return:
 631:Generated_Source\PSoC5/USBUART.c **** *  1 - If bus activity was detected since the last call to this function
 632:Generated_Source\PSoC5/USBUART.c **** *  0 - If bus activity not was detected since the last call to this function
 633:Generated_Source\PSoC5/USBUART.c **** *
 634:Generated_Source\PSoC5/USBUART.c **** *******************************************************************************/
 635:Generated_Source\PSoC5/USBUART.c **** uint8 USBUART_CheckActivity(void) 
 636:Generated_Source\PSoC5/USBUART.c **** {
 652              		.loc 1 636 0
 653              		.cfi_startproc
 654              		@ args = 0, pretend = 0, frame = 8
 655              		@ frame_needed = 1, uses_anonymous_args = 0
 656              		@ link register save eliminated.
 657 0000 80B4     		push	{r7}
 658              		.cfi_def_cfa_offset 4
 659              		.cfi_offset 7, -4
 660 0002 83B0     		sub	sp, sp, #12
 661              		.cfi_def_cfa_offset 16
 662 0004 00AF     		add	r7, sp, #0
 663              		.cfi_def_cfa_register 7
 637:Generated_Source\PSoC5/USBUART.c ****     uint8 r;
 638:Generated_Source\PSoC5/USBUART.c **** 
 639:Generated_Source\PSoC5/USBUART.c ****     r = CY_GET_REG8(USBUART_CR1_PTR);
 664              		.loc 1 639 0
 665 0006 0A4B     		ldr	r3, .L24
 666 0008 1B78     		ldrb	r3, [r3]
 667 000a FB71     		strb	r3, [r7, #7]
 640:Generated_Source\PSoC5/USBUART.c ****     CY_SET_REG8(USBUART_CR1_PTR, (r & ((uint8)(~USBUART_CR1_BUS_ACTIVITY))));
 668              		.loc 1 640 0
 669 000c 084A     		ldr	r2, .L24
 670 000e FB79     		ldrb	r3, [r7, #7]
 671 0010 23F00403 		bic	r3, r3, #4
ARM GAS  C:\Users\MARTHN~1\AppData\Local\Temp\ccp8lHLI.s 			page 24


 672 0014 DBB2     		uxtb	r3, r3
 673 0016 1370     		strb	r3, [r2]
 641:Generated_Source\PSoC5/USBUART.c **** 
 642:Generated_Source\PSoC5/USBUART.c ****     return((r & USBUART_CR1_BUS_ACTIVITY) >> USBUART_CR1_BUS_ACTIVITY_SHIFT);
 674              		.loc 1 642 0
 675 0018 FB79     		ldrb	r3, [r7, #7]	@ zero_extendqisi2
 676 001a 9B10     		asrs	r3, r3, #2
 677 001c DBB2     		uxtb	r3, r3
 678 001e 03F00103 		and	r3, r3, #1
 679 0022 DBB2     		uxtb	r3, r3
 643:Generated_Source\PSoC5/USBUART.c **** }
 680              		.loc 1 643 0
 681 0024 1846     		mov	r0, r3
 682 0026 0C37     		adds	r7, r7, #12
 683              		.cfi_def_cfa_offset 4
 684 0028 BD46     		mov	sp, r7
 685              		.cfi_def_cfa_register 13
 686              		@ sp needed
 687 002a 80BC     		pop	{r7}
 688              		.cfi_restore 7
 689              		.cfi_def_cfa_offset 0
 690 002c 7047     		bx	lr
 691              	.L25:
 692 002e 00BF     		.align	2
 693              	.L24:
 694 0030 09600040 		.word	1073766409
 695              		.cfi_endproc
 696              	.LFE5:
 697              		.size	USBUART_CheckActivity, .-USBUART_CheckActivity
 698              		.section	.text.USBUART_GetConfiguration,"ax",%progbits
 699              		.align	2
 700              		.global	USBUART_GetConfiguration
 701              		.thumb
 702              		.thumb_func
 703              		.type	USBUART_GetConfiguration, %function
 704              	USBUART_GetConfiguration:
 705              	.LFB6:
 644:Generated_Source\PSoC5/USBUART.c **** 
 645:Generated_Source\PSoC5/USBUART.c **** 
 646:Generated_Source\PSoC5/USBUART.c **** /*******************************************************************************
 647:Generated_Source\PSoC5/USBUART.c **** * Function Name: USBUART_GetConfiguration
 648:Generated_Source\PSoC5/USBUART.c **** ********************************************************************************
 649:Generated_Source\PSoC5/USBUART.c **** *
 650:Generated_Source\PSoC5/USBUART.c **** * Summary:
 651:Generated_Source\PSoC5/USBUART.c **** *  Returns the current configuration setting
 652:Generated_Source\PSoC5/USBUART.c **** *
 653:Generated_Source\PSoC5/USBUART.c **** * Parameters:
 654:Generated_Source\PSoC5/USBUART.c **** *  None.
 655:Generated_Source\PSoC5/USBUART.c **** *
 656:Generated_Source\PSoC5/USBUART.c **** * Return:
 657:Generated_Source\PSoC5/USBUART.c **** *  configuration.
 658:Generated_Source\PSoC5/USBUART.c **** *
 659:Generated_Source\PSoC5/USBUART.c **** *******************************************************************************/
 660:Generated_Source\PSoC5/USBUART.c **** uint8 USBUART_GetConfiguration(void) 
 661:Generated_Source\PSoC5/USBUART.c **** {
 706              		.loc 1 661 0
 707              		.cfi_startproc
ARM GAS  C:\Users\MARTHN~1\AppData\Local\Temp\ccp8lHLI.s 			page 25


 708              		@ args = 0, pretend = 0, frame = 0
 709              		@ frame_needed = 1, uses_anonymous_args = 0
 710              		@ link register save eliminated.
 711 0000 80B4     		push	{r7}
 712              		.cfi_def_cfa_offset 4
 713              		.cfi_offset 7, -4
 714 0002 00AF     		add	r7, sp, #0
 715              		.cfi_def_cfa_register 7
 662:Generated_Source\PSoC5/USBUART.c ****     return(USBUART_configuration);
 716              		.loc 1 662 0
 717 0004 034B     		ldr	r3, .L28
 718 0006 1B78     		ldrb	r3, [r3]
 719 0008 DBB2     		uxtb	r3, r3
 663:Generated_Source\PSoC5/USBUART.c **** }
 720              		.loc 1 663 0
 721 000a 1846     		mov	r0, r3
 722 000c BD46     		mov	sp, r7
 723              		.cfi_def_cfa_register 13
 724              		@ sp needed
 725 000e 80BC     		pop	{r7}
 726              		.cfi_restore 7
 727              		.cfi_def_cfa_offset 0
 728 0010 7047     		bx	lr
 729              	.L29:
 730 0012 00BF     		.align	2
 731              	.L28:
 732 0014 00000000 		.word	USBUART_configuration
 733              		.cfi_endproc
 734              	.LFE6:
 735              		.size	USBUART_GetConfiguration, .-USBUART_GetConfiguration
 736              		.section	.text.USBUART_IsConfigurationChanged,"ax",%progbits
 737              		.align	2
 738              		.global	USBUART_IsConfigurationChanged
 739              		.thumb
 740              		.thumb_func
 741              		.type	USBUART_IsConfigurationChanged, %function
 742              	USBUART_IsConfigurationChanged:
 743              	.LFB7:
 664:Generated_Source\PSoC5/USBUART.c **** 
 665:Generated_Source\PSoC5/USBUART.c **** 
 666:Generated_Source\PSoC5/USBUART.c **** /*******************************************************************************
 667:Generated_Source\PSoC5/USBUART.c **** * Function Name: USBUART_IsConfigurationChanged
 668:Generated_Source\PSoC5/USBUART.c **** ********************************************************************************
 669:Generated_Source\PSoC5/USBUART.c **** *
 670:Generated_Source\PSoC5/USBUART.c **** * Summary:
 671:Generated_Source\PSoC5/USBUART.c **** *  Returns the clear on read configuration state. It is usefull when PC send
 672:Generated_Source\PSoC5/USBUART.c **** *  double SET_CONFIGURATION request with same configuration number.
 673:Generated_Source\PSoC5/USBUART.c **** *
 674:Generated_Source\PSoC5/USBUART.c **** * Parameters:
 675:Generated_Source\PSoC5/USBUART.c **** *  None.
 676:Generated_Source\PSoC5/USBUART.c **** *
 677:Generated_Source\PSoC5/USBUART.c **** * Return:
 678:Generated_Source\PSoC5/USBUART.c **** *  Not zero value when new configuration has been changed, otherwise zero is
 679:Generated_Source\PSoC5/USBUART.c **** *  returned.
 680:Generated_Source\PSoC5/USBUART.c **** *
 681:Generated_Source\PSoC5/USBUART.c **** * Global variables:
 682:Generated_Source\PSoC5/USBUART.c **** *   USBUART_configurationChanged: This variable is set to one after
ARM GAS  C:\Users\MARTHN~1\AppData\Local\Temp\ccp8lHLI.s 			page 26


 683:Generated_Source\PSoC5/USBUART.c **** *       SET_CONFIGURATION request and cleared in this function.
 684:Generated_Source\PSoC5/USBUART.c **** *
 685:Generated_Source\PSoC5/USBUART.c **** *******************************************************************************/
 686:Generated_Source\PSoC5/USBUART.c **** uint8 USBUART_IsConfigurationChanged(void) 
 687:Generated_Source\PSoC5/USBUART.c **** {
 744              		.loc 1 687 0
 745              		.cfi_startproc
 746              		@ args = 0, pretend = 0, frame = 8
 747              		@ frame_needed = 1, uses_anonymous_args = 0
 748              		@ link register save eliminated.
 749 0000 80B4     		push	{r7}
 750              		.cfi_def_cfa_offset 4
 751              		.cfi_offset 7, -4
 752 0002 83B0     		sub	sp, sp, #12
 753              		.cfi_def_cfa_offset 16
 754 0004 00AF     		add	r7, sp, #0
 755              		.cfi_def_cfa_register 7
 688:Generated_Source\PSoC5/USBUART.c ****     uint8 res = 0u;
 756              		.loc 1 688 0
 757 0006 0023     		movs	r3, #0
 758 0008 FB71     		strb	r3, [r7, #7]
 689:Generated_Source\PSoC5/USBUART.c **** 
 690:Generated_Source\PSoC5/USBUART.c ****     if(USBUART_configurationChanged != 0u)
 759              		.loc 1 690 0
 760 000a 084B     		ldr	r3, .L33
 761 000c 1B78     		ldrb	r3, [r3]
 762 000e DBB2     		uxtb	r3, r3
 763 0010 002B     		cmp	r3, #0
 764 0012 05D0     		beq	.L31
 691:Generated_Source\PSoC5/USBUART.c ****     {
 692:Generated_Source\PSoC5/USBUART.c ****         res = USBUART_configurationChanged;
 765              		.loc 1 692 0
 766 0014 054B     		ldr	r3, .L33
 767 0016 1B78     		ldrb	r3, [r3]
 768 0018 FB71     		strb	r3, [r7, #7]
 693:Generated_Source\PSoC5/USBUART.c ****         USBUART_configurationChanged = 0u;
 769              		.loc 1 693 0
 770 001a 044B     		ldr	r3, .L33
 771 001c 0022     		movs	r2, #0
 772 001e 1A70     		strb	r2, [r3]
 773              	.L31:
 694:Generated_Source\PSoC5/USBUART.c ****     }
 695:Generated_Source\PSoC5/USBUART.c **** 
 696:Generated_Source\PSoC5/USBUART.c ****     return(res);
 774              		.loc 1 696 0
 775 0020 FB79     		ldrb	r3, [r7, #7]	@ zero_extendqisi2
 697:Generated_Source\PSoC5/USBUART.c **** }
 776              		.loc 1 697 0
 777 0022 1846     		mov	r0, r3
 778 0024 0C37     		adds	r7, r7, #12
 779              		.cfi_def_cfa_offset 4
 780 0026 BD46     		mov	sp, r7
 781              		.cfi_def_cfa_register 13
 782              		@ sp needed
 783 0028 80BC     		pop	{r7}
 784              		.cfi_restore 7
 785              		.cfi_def_cfa_offset 0
ARM GAS  C:\Users\MARTHN~1\AppData\Local\Temp\ccp8lHLI.s 			page 27


 786 002a 7047     		bx	lr
 787              	.L34:
 788              		.align	2
 789              	.L33:
 790 002c 00000000 		.word	USBUART_configurationChanged
 791              		.cfi_endproc
 792              	.LFE7:
 793              		.size	USBUART_IsConfigurationChanged, .-USBUART_IsConfigurationChanged
 794              		.section	.text.USBUART_GetInterfaceSetting,"ax",%progbits
 795              		.align	2
 796              		.global	USBUART_GetInterfaceSetting
 797              		.thumb
 798              		.thumb_func
 799              		.type	USBUART_GetInterfaceSetting, %function
 800              	USBUART_GetInterfaceSetting:
 801              	.LFB8:
 698:Generated_Source\PSoC5/USBUART.c **** 
 699:Generated_Source\PSoC5/USBUART.c **** 
 700:Generated_Source\PSoC5/USBUART.c **** /*******************************************************************************
 701:Generated_Source\PSoC5/USBUART.c **** * Function Name: USBUART_GetInterfaceSetting
 702:Generated_Source\PSoC5/USBUART.c **** ********************************************************************************
 703:Generated_Source\PSoC5/USBUART.c **** *
 704:Generated_Source\PSoC5/USBUART.c **** * Summary:
 705:Generated_Source\PSoC5/USBUART.c **** *  Returns the alternate setting from current interface
 706:Generated_Source\PSoC5/USBUART.c **** *
 707:Generated_Source\PSoC5/USBUART.c **** * Parameters:
 708:Generated_Source\PSoC5/USBUART.c **** *  uint8 interfaceNumber, interface number
 709:Generated_Source\PSoC5/USBUART.c **** *
 710:Generated_Source\PSoC5/USBUART.c **** * Return:
 711:Generated_Source\PSoC5/USBUART.c **** *  Alternate setting.
 712:Generated_Source\PSoC5/USBUART.c **** *
 713:Generated_Source\PSoC5/USBUART.c **** *******************************************************************************/
 714:Generated_Source\PSoC5/USBUART.c **** uint8  USBUART_GetInterfaceSetting(uint8 interfaceNumber)
 715:Generated_Source\PSoC5/USBUART.c ****                                                     
 716:Generated_Source\PSoC5/USBUART.c **** {
 802              		.loc 1 716 0
 803              		.cfi_startproc
 804              		@ args = 0, pretend = 0, frame = 8
 805              		@ frame_needed = 1, uses_anonymous_args = 0
 806              		@ link register save eliminated.
 807 0000 80B4     		push	{r7}
 808              		.cfi_def_cfa_offset 4
 809              		.cfi_offset 7, -4
 810 0002 83B0     		sub	sp, sp, #12
 811              		.cfi_def_cfa_offset 16
 812 0004 00AF     		add	r7, sp, #0
 813              		.cfi_def_cfa_register 7
 814 0006 0346     		mov	r3, r0
 815 0008 FB71     		strb	r3, [r7, #7]
 717:Generated_Source\PSoC5/USBUART.c ****     return(USBUART_interfaceSetting[interfaceNumber]);
 816              		.loc 1 717 0
 817 000a FB79     		ldrb	r3, [r7, #7]	@ zero_extendqisi2
 818 000c 034A     		ldr	r2, .L37
 819 000e D35C     		ldrb	r3, [r2, r3]
 820 0010 DBB2     		uxtb	r3, r3
 718:Generated_Source\PSoC5/USBUART.c **** }
 821              		.loc 1 718 0
ARM GAS  C:\Users\MARTHN~1\AppData\Local\Temp\ccp8lHLI.s 			page 28


 822 0012 1846     		mov	r0, r3
 823 0014 0C37     		adds	r7, r7, #12
 824              		.cfi_def_cfa_offset 4
 825 0016 BD46     		mov	sp, r7
 826              		.cfi_def_cfa_register 13
 827              		@ sp needed
 828 0018 80BC     		pop	{r7}
 829              		.cfi_restore 7
 830              		.cfi_def_cfa_offset 0
 831 001a 7047     		bx	lr
 832              	.L38:
 833              		.align	2
 834              	.L37:
 835 001c 00000000 		.word	USBUART_interfaceSetting
 836              		.cfi_endproc
 837              	.LFE8:
 838              		.size	USBUART_GetInterfaceSetting, .-USBUART_GetInterfaceSetting
 839              		.section	.text.USBUART_GetEPState,"ax",%progbits
 840              		.align	2
 841              		.global	USBUART_GetEPState
 842              		.thumb
 843              		.thumb_func
 844              		.type	USBUART_GetEPState, %function
 845              	USBUART_GetEPState:
 846              	.LFB9:
 719:Generated_Source\PSoC5/USBUART.c **** 
 720:Generated_Source\PSoC5/USBUART.c **** 
 721:Generated_Source\PSoC5/USBUART.c **** /*******************************************************************************
 722:Generated_Source\PSoC5/USBUART.c **** * Function Name: USBUART_GetEPState
 723:Generated_Source\PSoC5/USBUART.c **** ********************************************************************************
 724:Generated_Source\PSoC5/USBUART.c **** *
 725:Generated_Source\PSoC5/USBUART.c **** * Summary:
 726:Generated_Source\PSoC5/USBUART.c **** *  Returned the state of the requested endpoint.
 727:Generated_Source\PSoC5/USBUART.c **** *
 728:Generated_Source\PSoC5/USBUART.c **** * Parameters:
 729:Generated_Source\PSoC5/USBUART.c **** *  epNumber: Endpoint Number
 730:Generated_Source\PSoC5/USBUART.c **** *
 731:Generated_Source\PSoC5/USBUART.c **** * Return:
 732:Generated_Source\PSoC5/USBUART.c **** *  State of the requested endpoint.
 733:Generated_Source\PSoC5/USBUART.c **** *
 734:Generated_Source\PSoC5/USBUART.c **** *******************************************************************************/
 735:Generated_Source\PSoC5/USBUART.c **** uint8 USBUART_GetEPState(uint8 epNumber) 
 736:Generated_Source\PSoC5/USBUART.c **** {
 847              		.loc 1 736 0
 848              		.cfi_startproc
 849              		@ args = 0, pretend = 0, frame = 8
 850              		@ frame_needed = 1, uses_anonymous_args = 0
 851              		@ link register save eliminated.
 852 0000 80B4     		push	{r7}
 853              		.cfi_def_cfa_offset 4
 854              		.cfi_offset 7, -4
 855 0002 83B0     		sub	sp, sp, #12
 856              		.cfi_def_cfa_offset 16
 857 0004 00AF     		add	r7, sp, #0
 858              		.cfi_def_cfa_register 7
 859 0006 0346     		mov	r3, r0
 860 0008 FB71     		strb	r3, [r7, #7]
ARM GAS  C:\Users\MARTHN~1\AppData\Local\Temp\ccp8lHLI.s 			page 29


 737:Generated_Source\PSoC5/USBUART.c ****     return(USBUART_EP[epNumber].apiEpState);
 861              		.loc 1 737 0
 862 000a FA79     		ldrb	r2, [r7, #7]	@ zero_extendqisi2
 863 000c 0649     		ldr	r1, .L41
 864 000e 1346     		mov	r3, r2
 865 0010 5B00     		lsls	r3, r3, #1
 866 0012 1344     		add	r3, r3, r2
 867 0014 9B00     		lsls	r3, r3, #2
 868 0016 0B44     		add	r3, r3, r1
 869 0018 0133     		adds	r3, r3, #1
 870 001a 1B78     		ldrb	r3, [r3]
 871 001c DBB2     		uxtb	r3, r3
 738:Generated_Source\PSoC5/USBUART.c **** }
 872              		.loc 1 738 0
 873 001e 1846     		mov	r0, r3
 874 0020 0C37     		adds	r7, r7, #12
 875              		.cfi_def_cfa_offset 4
 876 0022 BD46     		mov	sp, r7
 877              		.cfi_def_cfa_register 13
 878              		@ sp needed
 879 0024 80BC     		pop	{r7}
 880              		.cfi_restore 7
 881              		.cfi_def_cfa_offset 0
 882 0026 7047     		bx	lr
 883              	.L42:
 884              		.align	2
 885              	.L41:
 886 0028 00000000 		.word	USBUART_EP
 887              		.cfi_endproc
 888              	.LFE9:
 889              		.size	USBUART_GetEPState, .-USBUART_GetEPState
 890              		.section	.text.USBUART_GetEPCount,"ax",%progbits
 891              		.align	2
 892              		.global	USBUART_GetEPCount
 893              		.thumb
 894              		.thumb_func
 895              		.type	USBUART_GetEPCount, %function
 896              	USBUART_GetEPCount:
 897              	.LFB10:
 739:Generated_Source\PSoC5/USBUART.c **** 
 740:Generated_Source\PSoC5/USBUART.c **** 
 741:Generated_Source\PSoC5/USBUART.c **** /*******************************************************************************
 742:Generated_Source\PSoC5/USBUART.c **** * Function Name: USBUART_GetEPCount
 743:Generated_Source\PSoC5/USBUART.c **** ********************************************************************************
 744:Generated_Source\PSoC5/USBUART.c **** *
 745:Generated_Source\PSoC5/USBUART.c **** * Summary:
 746:Generated_Source\PSoC5/USBUART.c **** *  This function supports Data Endpoints only(EP1-EP8).
 747:Generated_Source\PSoC5/USBUART.c **** *  Returns the transfer count for the requested endpoint.  The value from
 748:Generated_Source\PSoC5/USBUART.c **** *  the count registers includes 2 counts for the two byte checksum of the
 749:Generated_Source\PSoC5/USBUART.c **** *  packet.  This function subtracts the two counts.
 750:Generated_Source\PSoC5/USBUART.c **** *
 751:Generated_Source\PSoC5/USBUART.c **** * Parameters:
 752:Generated_Source\PSoC5/USBUART.c **** *  epNumber: Data Endpoint Number.
 753:Generated_Source\PSoC5/USBUART.c **** *            Valid values are between 1 and 8.
 754:Generated_Source\PSoC5/USBUART.c **** *
 755:Generated_Source\PSoC5/USBUART.c **** * Return:
 756:Generated_Source\PSoC5/USBUART.c **** *  Returns the current byte count from the specified endpoint or 0 for an
ARM GAS  C:\Users\MARTHN~1\AppData\Local\Temp\ccp8lHLI.s 			page 30


 757:Generated_Source\PSoC5/USBUART.c **** *  invalid endpoint.
 758:Generated_Source\PSoC5/USBUART.c **** *
 759:Generated_Source\PSoC5/USBUART.c **** *******************************************************************************/
 760:Generated_Source\PSoC5/USBUART.c **** uint16 USBUART_GetEPCount(uint8 epNumber) 
 761:Generated_Source\PSoC5/USBUART.c **** {
 898              		.loc 1 761 0
 899              		.cfi_startproc
 900              		@ args = 0, pretend = 0, frame = 16
 901              		@ frame_needed = 1, uses_anonymous_args = 0
 902              		@ link register save eliminated.
 903 0000 80B4     		push	{r7}
 904              		.cfi_def_cfa_offset 4
 905              		.cfi_offset 7, -4
 906 0002 85B0     		sub	sp, sp, #20
 907              		.cfi_def_cfa_offset 24
 908 0004 00AF     		add	r7, sp, #0
 909              		.cfi_def_cfa_register 7
 910 0006 0346     		mov	r3, r0
 911 0008 FB71     		strb	r3, [r7, #7]
 762:Generated_Source\PSoC5/USBUART.c ****     uint8 ri;
 763:Generated_Source\PSoC5/USBUART.c ****     uint16 result = 0u;
 912              		.loc 1 763 0
 913 000a 0023     		movs	r3, #0
 914 000c FB81     		strh	r3, [r7, #14]	@ movhi
 764:Generated_Source\PSoC5/USBUART.c **** 
 765:Generated_Source\PSoC5/USBUART.c ****     if((epNumber > USBUART_EP0) && (epNumber < USBUART_MAX_EP))
 915              		.loc 1 765 0
 916 000e FB79     		ldrb	r3, [r7, #7]	@ zero_extendqisi2
 917 0010 002B     		cmp	r3, #0
 918 0012 1FD0     		beq	.L44
 919              		.loc 1 765 0 is_stmt 0 discriminator 1
 920 0014 FB79     		ldrb	r3, [r7, #7]	@ zero_extendqisi2
 921 0016 082B     		cmp	r3, #8
 922 0018 1CD8     		bhi	.L44
 766:Generated_Source\PSoC5/USBUART.c ****     {
 767:Generated_Source\PSoC5/USBUART.c ****         ri = ((epNumber - USBUART_EP1) << USBUART_EPX_CNTX_ADDR_SHIFT);
 923              		.loc 1 767 0 is_stmt 1
 924 001a FB79     		ldrb	r3, [r7, #7]
 925 001c 013B     		subs	r3, r3, #1
 926 001e DBB2     		uxtb	r3, r3
 927 0020 1B01     		lsls	r3, r3, #4
 928 0022 7B73     		strb	r3, [r7, #13]
 768:Generated_Source\PSoC5/USBUART.c **** 
 769:Generated_Source\PSoC5/USBUART.c ****         result = (uint8)(CY_GET_REG8((reg8 *)(USBUART_SIE_EP1_CNT0_IND + ri)) &
 929              		.loc 1 769 0
 930 0024 7A7B     		ldrb	r2, [r7, #13]	@ zero_extendqisi2
 931 0026 0E4B     		ldr	r3, .L46
 932 0028 1344     		add	r3, r3, r2
 933 002a 1B78     		ldrb	r3, [r3]
 934 002c DBB2     		uxtb	r3, r3
 935 002e 9BB2     		uxth	r3, r3
 936 0030 03F00F03 		and	r3, r3, #15
 937 0034 FB81     		strh	r3, [r7, #14]	@ movhi
 770:Generated_Source\PSoC5/USBUART.c ****                           USBUART_EPX_CNT0_MASK);
 771:Generated_Source\PSoC5/USBUART.c ****         result = (result << 8u) | CY_GET_REG8((reg8 *)(USBUART_SIE_EP1_CNT1_IND + ri));
 938              		.loc 1 771 0
 939 0036 FB89     		ldrh	r3, [r7, #14]
ARM GAS  C:\Users\MARTHN~1\AppData\Local\Temp\ccp8lHLI.s 			page 31


 940 0038 1B02     		lsls	r3, r3, #8
 941 003a 1AB2     		sxth	r2, r3
 942 003c 797B     		ldrb	r1, [r7, #13]	@ zero_extendqisi2
 943 003e 094B     		ldr	r3, .L46+4
 944 0040 0B44     		add	r3, r3, r1
 945 0042 1B78     		ldrb	r3, [r3]
 946 0044 DBB2     		uxtb	r3, r3
 947 0046 1BB2     		sxth	r3, r3
 948 0048 1343     		orrs	r3, r3, r2
 949 004a 1BB2     		sxth	r3, r3
 950 004c FB81     		strh	r3, [r7, #14]	@ movhi
 772:Generated_Source\PSoC5/USBUART.c ****         result -= USBUART_EPX_CNTX_CRC_COUNT;
 951              		.loc 1 772 0
 952 004e FB89     		ldrh	r3, [r7, #14]	@ movhi
 953 0050 023B     		subs	r3, r3, #2
 954 0052 FB81     		strh	r3, [r7, #14]	@ movhi
 955              	.L44:
 773:Generated_Source\PSoC5/USBUART.c ****     }
 774:Generated_Source\PSoC5/USBUART.c ****     return(result);
 956              		.loc 1 774 0
 957 0054 FB89     		ldrh	r3, [r7, #14]
 775:Generated_Source\PSoC5/USBUART.c **** }
 958              		.loc 1 775 0
 959 0056 1846     		mov	r0, r3
 960 0058 1437     		adds	r7, r7, #20
 961              		.cfi_def_cfa_offset 4
 962 005a BD46     		mov	sp, r7
 963              		.cfi_def_cfa_register 13
 964              		@ sp needed
 965 005c 80BC     		pop	{r7}
 966              		.cfi_restore 7
 967              		.cfi_def_cfa_offset 0
 968 005e 7047     		bx	lr
 969              	.L47:
 970              		.align	2
 971              	.L46:
 972 0060 0C600040 		.word	1073766412
 973 0064 0D600040 		.word	1073766413
 974              		.cfi_endproc
 975              	.LFE10:
 976              		.size	USBUART_GetEPCount, .-USBUART_GetEPCount
 977              		.section	.text.USBUART_LoadInEP,"ax",%progbits
 978              		.align	2
 979              		.global	USBUART_LoadInEP
 980              		.thumb
 981              		.thumb_func
 982              		.type	USBUART_LoadInEP, %function
 983              	USBUART_LoadInEP:
 984              	.LFB11:
 776:Generated_Source\PSoC5/USBUART.c **** 
 777:Generated_Source\PSoC5/USBUART.c **** 
 778:Generated_Source\PSoC5/USBUART.c **** #if(USBUART_EP_MM != USBUART__EP_MANUAL)
 779:Generated_Source\PSoC5/USBUART.c **** 
 780:Generated_Source\PSoC5/USBUART.c **** 
 781:Generated_Source\PSoC5/USBUART.c ****     /*******************************************************************************
 782:Generated_Source\PSoC5/USBUART.c ****     * Function Name: USBUART_InitEP_DMA
 783:Generated_Source\PSoC5/USBUART.c ****     ********************************************************************************
ARM GAS  C:\Users\MARTHN~1\AppData\Local\Temp\ccp8lHLI.s 			page 32


 784:Generated_Source\PSoC5/USBUART.c ****     *
 785:Generated_Source\PSoC5/USBUART.c ****     * Summary:
 786:Generated_Source\PSoC5/USBUART.c ****     *  This function allocates and initializes a DMA channel to be used by the
 787:Generated_Source\PSoC5/USBUART.c ****     *  USBUART_LoadInEP() or USBUART_ReadOutEP() APIs for data
 788:Generated_Source\PSoC5/USBUART.c ****     *  transfer.
 789:Generated_Source\PSoC5/USBUART.c ****     *
 790:Generated_Source\PSoC5/USBUART.c ****     * Parameters:
 791:Generated_Source\PSoC5/USBUART.c ****     *  epNumber: Contains the data endpoint number.
 792:Generated_Source\PSoC5/USBUART.c ****     *            Valid values are between 1 and 8.
 793:Generated_Source\PSoC5/USBUART.c ****     *  *pData: Pointer to a data array that is related to the EP transfers.
 794:Generated_Source\PSoC5/USBUART.c ****     *
 795:Generated_Source\PSoC5/USBUART.c ****     * Return:
 796:Generated_Source\PSoC5/USBUART.c ****     *  None.
 797:Generated_Source\PSoC5/USBUART.c ****     *
 798:Generated_Source\PSoC5/USBUART.c ****     * Reentrant:
 799:Generated_Source\PSoC5/USBUART.c ****     *  No.
 800:Generated_Source\PSoC5/USBUART.c ****     *
 801:Generated_Source\PSoC5/USBUART.c ****     *******************************************************************************/
 802:Generated_Source\PSoC5/USBUART.c ****     void USBUART_InitEP_DMA(uint8 epNumber, const uint8* pData)
 803:Generated_Source\PSoC5/USBUART.c ****                                                                     
 804:Generated_Source\PSoC5/USBUART.c ****     {
 805:Generated_Source\PSoC5/USBUART.c ****         uint16 src;
 806:Generated_Source\PSoC5/USBUART.c ****         uint16 dst;
 807:Generated_Source\PSoC5/USBUART.c ****         #if (CY_PSOC3)                  /* PSoC 3 */
 808:Generated_Source\PSoC5/USBUART.c ****             src = HI16(CYDEV_SRAM_BASE);
 809:Generated_Source\PSoC5/USBUART.c ****             dst = HI16(CYDEV_PERIPH_BASE);
 810:Generated_Source\PSoC5/USBUART.c ****             pData = pData;
 811:Generated_Source\PSoC5/USBUART.c ****         #else                           /* PSoC 5 */
 812:Generated_Source\PSoC5/USBUART.c ****             if((USBUART_EP[epNumber].addr & USBUART_DIR_IN) != 0u )
 813:Generated_Source\PSoC5/USBUART.c ****             {   /* for the IN EP source is the SRAM memory buffer */
 814:Generated_Source\PSoC5/USBUART.c ****                 src = HI16(pData);
 815:Generated_Source\PSoC5/USBUART.c ****                 dst = HI16(CYDEV_PERIPH_BASE);
 816:Generated_Source\PSoC5/USBUART.c ****             }
 817:Generated_Source\PSoC5/USBUART.c ****             else
 818:Generated_Source\PSoC5/USBUART.c ****             {   /* for the OUT EP source is the SIE register */
 819:Generated_Source\PSoC5/USBUART.c ****                 src = HI16(CYDEV_PERIPH_BASE);
 820:Generated_Source\PSoC5/USBUART.c ****                 dst = HI16(pData);
 821:Generated_Source\PSoC5/USBUART.c ****             }
 822:Generated_Source\PSoC5/USBUART.c ****         #endif  /*  C51 */
 823:Generated_Source\PSoC5/USBUART.c ****         switch(epNumber)
 824:Generated_Source\PSoC5/USBUART.c ****         {
 825:Generated_Source\PSoC5/USBUART.c ****             case USBUART_EP1:
 826:Generated_Source\PSoC5/USBUART.c ****                 #if(USBUART_DMA1_REMOVE == 0u)
 827:Generated_Source\PSoC5/USBUART.c ****                     USBUART_DmaChan[epNumber] = USBUART_ep1_DmaInitialize(
 828:Generated_Source\PSoC5/USBUART.c ****                         USBUART_DMA_BYTES_PER_BURST, USBUART_DMA_REQUEST_PER_BURST, src, dst);
 829:Generated_Source\PSoC5/USBUART.c ****                 #endif   /*  USBUART_DMA1_REMOVE */
 830:Generated_Source\PSoC5/USBUART.c ****                 break;
 831:Generated_Source\PSoC5/USBUART.c ****             case USBUART_EP2:
 832:Generated_Source\PSoC5/USBUART.c ****                 #if(USBUART_DMA2_REMOVE == 0u)
 833:Generated_Source\PSoC5/USBUART.c ****                     USBUART_DmaChan[epNumber] = USBUART_ep2_DmaInitialize(
 834:Generated_Source\PSoC5/USBUART.c ****                         USBUART_DMA_BYTES_PER_BURST, USBUART_DMA_REQUEST_PER_BURST, src, dst);
 835:Generated_Source\PSoC5/USBUART.c ****                 #endif   /*  USBUART_DMA2_REMOVE */
 836:Generated_Source\PSoC5/USBUART.c ****                 break;
 837:Generated_Source\PSoC5/USBUART.c ****             case USBUART_EP3:
 838:Generated_Source\PSoC5/USBUART.c ****                 #if(USBUART_DMA3_REMOVE == 0u)
 839:Generated_Source\PSoC5/USBUART.c ****                     USBUART_DmaChan[epNumber] = USBUART_ep3_DmaInitialize(
 840:Generated_Source\PSoC5/USBUART.c ****                         USBUART_DMA_BYTES_PER_BURST, USBUART_DMA_REQUEST_PER_BURST, src, dst);
ARM GAS  C:\Users\MARTHN~1\AppData\Local\Temp\ccp8lHLI.s 			page 33


 841:Generated_Source\PSoC5/USBUART.c ****                 #endif   /*  USBUART_DMA3_REMOVE */
 842:Generated_Source\PSoC5/USBUART.c ****                 break;
 843:Generated_Source\PSoC5/USBUART.c ****             case USBUART_EP4:
 844:Generated_Source\PSoC5/USBUART.c ****                 #if(USBUART_DMA4_REMOVE == 0u)
 845:Generated_Source\PSoC5/USBUART.c ****                     USBUART_DmaChan[epNumber] = USBUART_ep4_DmaInitialize(
 846:Generated_Source\PSoC5/USBUART.c ****                         USBUART_DMA_BYTES_PER_BURST, USBUART_DMA_REQUEST_PER_BURST, src, dst);
 847:Generated_Source\PSoC5/USBUART.c ****                 #endif   /*  USBUART_DMA4_REMOVE */
 848:Generated_Source\PSoC5/USBUART.c ****                 break;
 849:Generated_Source\PSoC5/USBUART.c ****             case USBUART_EP5:
 850:Generated_Source\PSoC5/USBUART.c ****                 #if(USBUART_DMA5_REMOVE == 0u)
 851:Generated_Source\PSoC5/USBUART.c ****                     USBUART_DmaChan[epNumber] = USBUART_ep5_DmaInitialize(
 852:Generated_Source\PSoC5/USBUART.c ****                         USBUART_DMA_BYTES_PER_BURST, USBUART_DMA_REQUEST_PER_BURST, src, dst);
 853:Generated_Source\PSoC5/USBUART.c ****                 #endif   /*  USBUART_DMA5_REMOVE */
 854:Generated_Source\PSoC5/USBUART.c ****                 break;
 855:Generated_Source\PSoC5/USBUART.c ****             case USBUART_EP6:
 856:Generated_Source\PSoC5/USBUART.c ****                 #if(USBUART_DMA6_REMOVE == 0u)
 857:Generated_Source\PSoC5/USBUART.c ****                     USBUART_DmaChan[epNumber] = USBUART_ep6_DmaInitialize(
 858:Generated_Source\PSoC5/USBUART.c ****                         USBUART_DMA_BYTES_PER_BURST, USBUART_DMA_REQUEST_PER_BURST, src, dst);
 859:Generated_Source\PSoC5/USBUART.c ****                 #endif   /*  USBUART_DMA6_REMOVE */
 860:Generated_Source\PSoC5/USBUART.c ****                 break;
 861:Generated_Source\PSoC5/USBUART.c ****             case USBUART_EP7:
 862:Generated_Source\PSoC5/USBUART.c ****                 #if(USBUART_DMA7_REMOVE == 0u)
 863:Generated_Source\PSoC5/USBUART.c ****                     USBUART_DmaChan[epNumber] = USBUART_ep7_DmaInitialize(
 864:Generated_Source\PSoC5/USBUART.c ****                         USBUART_DMA_BYTES_PER_BURST, USBUART_DMA_REQUEST_PER_BURST, src, dst);
 865:Generated_Source\PSoC5/USBUART.c ****                 #endif   /*  USBUART_DMA7_REMOVE */
 866:Generated_Source\PSoC5/USBUART.c ****                 break;
 867:Generated_Source\PSoC5/USBUART.c ****             case USBUART_EP8:
 868:Generated_Source\PSoC5/USBUART.c ****                 #if(USBUART_DMA8_REMOVE == 0u)
 869:Generated_Source\PSoC5/USBUART.c ****                     USBUART_DmaChan[epNumber] = USBUART_ep8_DmaInitialize(
 870:Generated_Source\PSoC5/USBUART.c ****                         USBUART_DMA_BYTES_PER_BURST, USBUART_DMA_REQUEST_PER_BURST, src, dst);
 871:Generated_Source\PSoC5/USBUART.c ****                 #endif   /*  USBUART_DMA8_REMOVE */
 872:Generated_Source\PSoC5/USBUART.c ****                 break;
 873:Generated_Source\PSoC5/USBUART.c ****             default:
 874:Generated_Source\PSoC5/USBUART.c ****                 /* Do not support EP0 DMA transfers */
 875:Generated_Source\PSoC5/USBUART.c ****                 break;
 876:Generated_Source\PSoC5/USBUART.c ****         }
 877:Generated_Source\PSoC5/USBUART.c ****         if((epNumber > USBUART_EP0) && (epNumber < USBUART_MAX_EP))
 878:Generated_Source\PSoC5/USBUART.c ****         {
 879:Generated_Source\PSoC5/USBUART.c ****             USBUART_DmaTd[epNumber] = CyDmaTdAllocate();
 880:Generated_Source\PSoC5/USBUART.c ****             #if ((USBUART_EP_MM == USBUART__EP_DMAAUTO) && (USBUART_EP_DMA_AUTO_OPT == 0u))
 881:Generated_Source\PSoC5/USBUART.c ****                 USBUART_DmaNextTd[epNumber] = CyDmaTdAllocate();
 882:Generated_Source\PSoC5/USBUART.c ****             #endif /*  ((USBUART_EP_MM == USBUART__EP_DMAAUTO) && (USBUART_EP_DMA_AUTO_OPT == 0u)) 
 883:Generated_Source\PSoC5/USBUART.c **** 
 884:Generated_Source\PSoC5/USBUART.c ****         }
 885:Generated_Source\PSoC5/USBUART.c ****     }
 886:Generated_Source\PSoC5/USBUART.c **** 
 887:Generated_Source\PSoC5/USBUART.c **** 
 888:Generated_Source\PSoC5/USBUART.c ****     /*******************************************************************************
 889:Generated_Source\PSoC5/USBUART.c ****     * Function Name: USBUART_Stop_DMA
 890:Generated_Source\PSoC5/USBUART.c ****     ********************************************************************************
 891:Generated_Source\PSoC5/USBUART.c ****     *
 892:Generated_Source\PSoC5/USBUART.c ****     * Summary: Stops and free DMA
 893:Generated_Source\PSoC5/USBUART.c ****     *
 894:Generated_Source\PSoC5/USBUART.c ****     * Parameters:
 895:Generated_Source\PSoC5/USBUART.c ****     *  epNumber: Contains the data endpoint number or
 896:Generated_Source\PSoC5/USBUART.c ****     *           USBUART_MAX_EP to stop all DMAs
 897:Generated_Source\PSoC5/USBUART.c ****     *
ARM GAS  C:\Users\MARTHN~1\AppData\Local\Temp\ccp8lHLI.s 			page 34


 898:Generated_Source\PSoC5/USBUART.c ****     * Return:
 899:Generated_Source\PSoC5/USBUART.c ****     *  None.
 900:Generated_Source\PSoC5/USBUART.c ****     *
 901:Generated_Source\PSoC5/USBUART.c ****     * Reentrant:
 902:Generated_Source\PSoC5/USBUART.c ****     *  No.
 903:Generated_Source\PSoC5/USBUART.c ****     *
 904:Generated_Source\PSoC5/USBUART.c ****     *******************************************************************************/
 905:Generated_Source\PSoC5/USBUART.c ****     void USBUART_Stop_DMA(uint8 epNumber) 
 906:Generated_Source\PSoC5/USBUART.c ****     {
 907:Generated_Source\PSoC5/USBUART.c ****         uint8 i;
 908:Generated_Source\PSoC5/USBUART.c ****         i = (epNumber < USBUART_MAX_EP) ? epNumber : USBUART_EP1;
 909:Generated_Source\PSoC5/USBUART.c ****         do
 910:Generated_Source\PSoC5/USBUART.c ****         {
 911:Generated_Source\PSoC5/USBUART.c ****             if(USBUART_DmaTd[i] != DMA_INVALID_TD)
 912:Generated_Source\PSoC5/USBUART.c ****             {
 913:Generated_Source\PSoC5/USBUART.c ****                 (void) CyDmaChDisable(USBUART_DmaChan[i]);
 914:Generated_Source\PSoC5/USBUART.c ****                 CyDmaTdFree(USBUART_DmaTd[i]);
 915:Generated_Source\PSoC5/USBUART.c ****                 USBUART_DmaTd[i] = DMA_INVALID_TD;
 916:Generated_Source\PSoC5/USBUART.c ****             }
 917:Generated_Source\PSoC5/USBUART.c ****             #if ((USBUART_EP_MM == USBUART__EP_DMAAUTO) && (USBUART_EP_DMA_AUTO_OPT == 0u))
 918:Generated_Source\PSoC5/USBUART.c ****                 if(USBUART_DmaNextTd[i] != DMA_INVALID_TD)
 919:Generated_Source\PSoC5/USBUART.c ****                 {
 920:Generated_Source\PSoC5/USBUART.c ****                     CyDmaTdFree(USBUART_DmaNextTd[i]);
 921:Generated_Source\PSoC5/USBUART.c ****                     USBUART_DmaNextTd[i] = DMA_INVALID_TD;
 922:Generated_Source\PSoC5/USBUART.c ****                 }
 923:Generated_Source\PSoC5/USBUART.c ****             #endif /* ((USBUART_EP_MM == USBUART__EP_DMAAUTO) && (USBUART_EP_DMA_AUTO_OPT == 0u)) *
 924:Generated_Source\PSoC5/USBUART.c ****             i++;
 925:Generated_Source\PSoC5/USBUART.c ****         }while((i < USBUART_MAX_EP) && (epNumber == USBUART_MAX_EP));
 926:Generated_Source\PSoC5/USBUART.c ****     }
 927:Generated_Source\PSoC5/USBUART.c **** 
 928:Generated_Source\PSoC5/USBUART.c **** #endif /*  USBUART_EP_MM != USBUART__EP_MANUAL */
 929:Generated_Source\PSoC5/USBUART.c **** 
 930:Generated_Source\PSoC5/USBUART.c **** 
 931:Generated_Source\PSoC5/USBUART.c **** #if ((USBUART_EP_MM == USBUART__EP_DMAAUTO) && (USBUART_EP_DMA_AUTO_OPT == 0u))
 932:Generated_Source\PSoC5/USBUART.c **** 
 933:Generated_Source\PSoC5/USBUART.c **** 
 934:Generated_Source\PSoC5/USBUART.c ****     /*******************************************************************************
 935:Generated_Source\PSoC5/USBUART.c ****     * Function Name: USBUART_LoadNextInEP
 936:Generated_Source\PSoC5/USBUART.c ****     ********************************************************************************
 937:Generated_Source\PSoC5/USBUART.c ****     *
 938:Generated_Source\PSoC5/USBUART.c ****     * Summary:
 939:Generated_Source\PSoC5/USBUART.c ****     *  This internal function is used for IN endpoint DMA reconfiguration in
 940:Generated_Source\PSoC5/USBUART.c ****     *  Auto DMA mode.
 941:Generated_Source\PSoC5/USBUART.c ****     *
 942:Generated_Source\PSoC5/USBUART.c ****     * Parameters:
 943:Generated_Source\PSoC5/USBUART.c ****     *  epNumber: Contains the data endpoint number.
 944:Generated_Source\PSoC5/USBUART.c ****     *  mode:   0 - Configure DMA to send the the rest of data.
 945:Generated_Source\PSoC5/USBUART.c ****     *          1 - Configure DMA to repeat 2 last bytes of the first burst.
 946:Generated_Source\PSoC5/USBUART.c ****     *
 947:Generated_Source\PSoC5/USBUART.c ****     * Return:
 948:Generated_Source\PSoC5/USBUART.c ****     *  None.
 949:Generated_Source\PSoC5/USBUART.c ****     *
 950:Generated_Source\PSoC5/USBUART.c ****     *******************************************************************************/
 951:Generated_Source\PSoC5/USBUART.c ****     void USBUART_LoadNextInEP(uint8 epNumber, uint8 mode) 
 952:Generated_Source\PSoC5/USBUART.c ****     {
 953:Generated_Source\PSoC5/USBUART.c ****         reg16 *convert;
 954:Generated_Source\PSoC5/USBUART.c **** 
ARM GAS  C:\Users\MARTHN~1\AppData\Local\Temp\ccp8lHLI.s 			page 35


 955:Generated_Source\PSoC5/USBUART.c ****         if(mode == 0u)
 956:Generated_Source\PSoC5/USBUART.c ****         {
 957:Generated_Source\PSoC5/USBUART.c ****             /* Configure DMA to send the the rest of data */
 958:Generated_Source\PSoC5/USBUART.c ****             /* CyDmaTdSetConfiguration API is optimised to change only transfer length and configur
 959:Generated_Source\PSoC5/USBUART.c ****             convert = (reg16 *) &CY_DMA_TDMEM_STRUCT_PTR[USBUART_DmaTd[epNumber]].TD0[0u];
 960:Generated_Source\PSoC5/USBUART.c ****             /* Set transfer length */
 961:Generated_Source\PSoC5/USBUART.c ****             CY_SET_REG16(convert, USBUART_inLength[epNumber] - USBUART_DMA_BYTES_PER_BURST);
 962:Generated_Source\PSoC5/USBUART.c ****             /* CyDmaTdSetAddress API is optimized to change only source address */
 963:Generated_Source\PSoC5/USBUART.c ****             convert = (reg16 *) &CY_DMA_TDMEM_STRUCT_PTR[USBUART_DmaTd[epNumber]].TD1[0u];
 964:Generated_Source\PSoC5/USBUART.c ****             CY_SET_REG16(convert, LO16((uint32)USBUART_inDataPointer[epNumber] +
 965:Generated_Source\PSoC5/USBUART.c ****                                             USBUART_DMA_BYTES_PER_BURST));
 966:Generated_Source\PSoC5/USBUART.c ****             USBUART_inBufFull[epNumber] = 1u;
 967:Generated_Source\PSoC5/USBUART.c ****         }
 968:Generated_Source\PSoC5/USBUART.c ****         else
 969:Generated_Source\PSoC5/USBUART.c ****         {
 970:Generated_Source\PSoC5/USBUART.c ****             /* Configure DMA to repeat 2 last bytes of the first burst. */
 971:Generated_Source\PSoC5/USBUART.c ****             /* CyDmaTdSetConfiguration API is optimised to change only transfer length and configur
 972:Generated_Source\PSoC5/USBUART.c ****             convert = (reg16 *) &CY_DMA_TDMEM_STRUCT_PTR[USBUART_DmaTd[epNumber]].TD0[0u];
 973:Generated_Source\PSoC5/USBUART.c ****             /* Set transfer length */
 974:Generated_Source\PSoC5/USBUART.c ****             CY_SET_REG16(convert, USBUART_DMA_BYTES_REPEAT);
 975:Generated_Source\PSoC5/USBUART.c ****             /* CyDmaTdSetAddress API is optimized to change only source address */
 976:Generated_Source\PSoC5/USBUART.c ****             convert = (reg16 *) &CY_DMA_TDMEM_STRUCT_PTR[USBUART_DmaTd[epNumber]].TD1[0u];
 977:Generated_Source\PSoC5/USBUART.c ****             CY_SET_REG16(convert,  LO16((uint32)USBUART_inDataPointer[epNumber] +
 978:Generated_Source\PSoC5/USBUART.c ****                                    USBUART_DMA_BYTES_PER_BURST - USBUART_DMA_BYTES_REPEAT));
 979:Generated_Source\PSoC5/USBUART.c ****         }
 980:Generated_Source\PSoC5/USBUART.c **** 
 981:Generated_Source\PSoC5/USBUART.c ****         /* CyDmaChSetInitialTd API is optimised to init TD */
 982:Generated_Source\PSoC5/USBUART.c ****         CY_DMA_CH_STRUCT_PTR[USBUART_DmaChan[epNumber]].basic_status[1u] = USBUART_DmaTd[epNumber];
 983:Generated_Source\PSoC5/USBUART.c ****     }
 984:Generated_Source\PSoC5/USBUART.c **** #endif /* ((USBUART_EP_MM == USBUART__EP_DMAAUTO) && (USBUART_EP_DMA_AUTO_OPT == 0u)) */
 985:Generated_Source\PSoC5/USBUART.c **** 
 986:Generated_Source\PSoC5/USBUART.c **** 
 987:Generated_Source\PSoC5/USBUART.c **** /*******************************************************************************
 988:Generated_Source\PSoC5/USBUART.c **** * Function Name: USBUART_LoadInEP
 989:Generated_Source\PSoC5/USBUART.c **** ********************************************************************************
 990:Generated_Source\PSoC5/USBUART.c **** *
 991:Generated_Source\PSoC5/USBUART.c **** * Summary:
 992:Generated_Source\PSoC5/USBUART.c **** *  Loads and enables the specified USB data endpoint for an IN transfer.
 993:Generated_Source\PSoC5/USBUART.c **** *
 994:Generated_Source\PSoC5/USBUART.c **** * Parameters:
 995:Generated_Source\PSoC5/USBUART.c **** *  epNumber: Contains the data endpoint number.
 996:Generated_Source\PSoC5/USBUART.c **** *            Valid values are between 1 and 8.
 997:Generated_Source\PSoC5/USBUART.c **** *  *pData: A pointer to a data array from which the data for the endpoint space
 998:Generated_Source\PSoC5/USBUART.c **** *          is loaded.
 999:Generated_Source\PSoC5/USBUART.c **** *  length: The number of bytes to transfer from the array and then send as a
1000:Generated_Source\PSoC5/USBUART.c **** *          result of an IN request. Valid values are between 0 and 512.
1001:Generated_Source\PSoC5/USBUART.c **** *
1002:Generated_Source\PSoC5/USBUART.c **** * Return:
1003:Generated_Source\PSoC5/USBUART.c **** *  None.
1004:Generated_Source\PSoC5/USBUART.c **** *
1005:Generated_Source\PSoC5/USBUART.c **** * Reentrant:
1006:Generated_Source\PSoC5/USBUART.c **** *  No.
1007:Generated_Source\PSoC5/USBUART.c **** *
1008:Generated_Source\PSoC5/USBUART.c **** *******************************************************************************/
1009:Generated_Source\PSoC5/USBUART.c **** void USBUART_LoadInEP(uint8 epNumber, const uint8 pData[], uint16 length)
1010:Generated_Source\PSoC5/USBUART.c ****                                                                         
1011:Generated_Source\PSoC5/USBUART.c **** {
ARM GAS  C:\Users\MARTHN~1\AppData\Local\Temp\ccp8lHLI.s 			page 36


 985              		.loc 1 1011 0
 986              		.cfi_startproc
 987              		@ args = 0, pretend = 0, frame = 16
 988              		@ frame_needed = 1, uses_anonymous_args = 0
 989              		@ link register save eliminated.
 990 0000 90B4     		push	{r4, r7}
 991              		.cfi_def_cfa_offset 8
 992              		.cfi_offset 4, -8
 993              		.cfi_offset 7, -4
 994 0002 84B0     		sub	sp, sp, #16
 995              		.cfi_def_cfa_offset 24
 996 0004 00AF     		add	r7, sp, #0
 997              		.cfi_def_cfa_register 7
 998 0006 0346     		mov	r3, r0
 999 0008 3960     		str	r1, [r7]
 1000 000a FB71     		strb	r3, [r7, #7]
 1001 000c 1346     		mov	r3, r2	@ movhi
 1002 000e BB80     		strh	r3, [r7, #4]	@ movhi
1012:Generated_Source\PSoC5/USBUART.c ****     uint8 ri;
1013:Generated_Source\PSoC5/USBUART.c ****     reg8 *p;
1014:Generated_Source\PSoC5/USBUART.c ****     #if(USBUART_EP_MM == USBUART__EP_MANUAL)
1015:Generated_Source\PSoC5/USBUART.c ****         uint16 i;
1016:Generated_Source\PSoC5/USBUART.c ****     #endif /*  USBUART_EP_MM == USBUART__EP_MANUAL */
1017:Generated_Source\PSoC5/USBUART.c **** 
1018:Generated_Source\PSoC5/USBUART.c ****     if((epNumber > USBUART_EP0) && (epNumber < USBUART_MAX_EP))
 1003              		.loc 1 1018 0
 1004 0010 FB79     		ldrb	r3, [r7, #7]	@ zero_extendqisi2
 1005 0012 002B     		cmp	r3, #0
 1006 0014 6ED0     		beq	.L54
 1007              		.loc 1 1018 0 is_stmt 0 discriminator 1
 1008 0016 FB79     		ldrb	r3, [r7, #7]	@ zero_extendqisi2
 1009 0018 082B     		cmp	r3, #8
 1010 001a 6BD8     		bhi	.L54
1019:Generated_Source\PSoC5/USBUART.c ****     {
1020:Generated_Source\PSoC5/USBUART.c ****         ri = ((epNumber - USBUART_EP1) << USBUART_EPX_CNTX_ADDR_SHIFT);
 1011              		.loc 1 1020 0 is_stmt 1
 1012 001c FB79     		ldrb	r3, [r7, #7]
 1013 001e 013B     		subs	r3, r3, #1
 1014 0020 DBB2     		uxtb	r3, r3
 1015 0022 1B01     		lsls	r3, r3, #4
 1016 0024 7B73     		strb	r3, [r7, #13]
1021:Generated_Source\PSoC5/USBUART.c ****         p = (reg8 *)(USBUART_ARB_RW1_DR_IND + ri);
 1017              		.loc 1 1021 0
 1018 0026 7A7B     		ldrb	r2, [r7, #13]	@ zero_extendqisi2
 1019 0028 354B     		ldr	r3, .L55
 1020 002a 1344     		add	r3, r3, r2
 1021 002c BB60     		str	r3, [r7, #8]
1022:Generated_Source\PSoC5/USBUART.c **** 
1023:Generated_Source\PSoC5/USBUART.c ****         #if(USBUART_EP_MM != USBUART__EP_DMAAUTO)
1024:Generated_Source\PSoC5/USBUART.c ****             /* Limits length to available buffer space, auto MM could send packets up to 1024 bytes
1025:Generated_Source\PSoC5/USBUART.c ****             if(length > (USBUART_EPX_DATA_BUF_MAX - USBUART_EP[epNumber].buffOffset))
 1022              		.loc 1 1025 0
 1023 002e B988     		ldrh	r1, [r7, #4]
 1024 0030 FA79     		ldrb	r2, [r7, #7]	@ zero_extendqisi2
 1025 0032 3448     		ldr	r0, .L55+4
 1026 0034 1346     		mov	r3, r2
 1027 0036 5B00     		lsls	r3, r3, #1
ARM GAS  C:\Users\MARTHN~1\AppData\Local\Temp\ccp8lHLI.s 			page 37


 1028 0038 1344     		add	r3, r3, r2
 1029 003a 9B00     		lsls	r3, r3, #2
 1030 003c 0344     		add	r3, r3, r0
 1031 003e 0633     		adds	r3, r3, #6
 1032 0040 1B88     		ldrh	r3, [r3]	@ movhi
 1033 0042 9BB2     		uxth	r3, r3
 1034 0044 C3F50073 		rsb	r3, r3, #512
 1035 0048 9942     		cmp	r1, r3
 1036 004a 0CD9     		bls	.L50
1026:Generated_Source\PSoC5/USBUART.c ****             {
1027:Generated_Source\PSoC5/USBUART.c ****                 length = USBUART_EPX_DATA_BUF_MAX - USBUART_EP[epNumber].buffOffset;
 1037              		.loc 1 1027 0
 1038 004c FA79     		ldrb	r2, [r7, #7]	@ zero_extendqisi2
 1039 004e 2D49     		ldr	r1, .L55+4
 1040 0050 1346     		mov	r3, r2
 1041 0052 5B00     		lsls	r3, r3, #1
 1042 0054 1344     		add	r3, r3, r2
 1043 0056 9B00     		lsls	r3, r3, #2
 1044 0058 0B44     		add	r3, r3, r1
 1045 005a 0633     		adds	r3, r3, #6
 1046 005c 1B88     		ldrh	r3, [r3]	@ movhi
 1047 005e 9BB2     		uxth	r3, r3
 1048 0060 C3F50073 		rsb	r3, r3, #512
 1049 0064 BB80     		strh	r3, [r7, #4]	@ movhi
 1050              	.L50:
1028:Generated_Source\PSoC5/USBUART.c ****             }
1029:Generated_Source\PSoC5/USBUART.c ****         #endif /*  USBUART_EP_MM != USBUART__EP_DMAAUTO */
1030:Generated_Source\PSoC5/USBUART.c **** 
1031:Generated_Source\PSoC5/USBUART.c ****         /* Set the count and data toggle */
1032:Generated_Source\PSoC5/USBUART.c ****         CY_SET_REG8((reg8 *)(USBUART_SIE_EP1_CNT0_IND + ri),
 1051              		.loc 1 1032 0
 1052 0066 7A7B     		ldrb	r2, [r7, #13]	@ zero_extendqisi2
 1053 0068 274B     		ldr	r3, .L55+8
 1054 006a 1344     		add	r3, r3, r2
 1055 006c 1C46     		mov	r4, r3
 1056 006e BB88     		ldrh	r3, [r7, #4]
 1057 0070 1B0A     		lsrs	r3, r3, #8
 1058 0072 9BB2     		uxth	r3, r3
 1059 0074 D9B2     		uxtb	r1, r3
 1060 0076 FA79     		ldrb	r2, [r7, #7]	@ zero_extendqisi2
 1061 0078 2248     		ldr	r0, .L55+4
 1062 007a 1346     		mov	r3, r2
 1063 007c 5B00     		lsls	r3, r3, #1
 1064 007e 1344     		add	r3, r3, r2
 1065 0080 9B00     		lsls	r3, r3, #2
 1066 0082 0344     		add	r3, r3, r0
 1067 0084 0333     		adds	r3, r3, #3
 1068 0086 1B78     		ldrb	r3, [r3]
 1069 0088 DBB2     		uxtb	r3, r3
 1070 008a 0B43     		orrs	r3, r3, r1
 1071 008c DBB2     		uxtb	r3, r3
 1072 008e 2370     		strb	r3, [r4]
1033:Generated_Source\PSoC5/USBUART.c ****                             (length >> 8u) | (USBUART_EP[epNumber].epToggle));
1034:Generated_Source\PSoC5/USBUART.c ****         CY_SET_REG8((reg8 *)(USBUART_SIE_EP1_CNT1_IND + ri),  length & 0xFFu);
 1073              		.loc 1 1034 0
 1074 0090 7A7B     		ldrb	r2, [r7, #13]	@ zero_extendqisi2
 1075 0092 1E4B     		ldr	r3, .L55+12
ARM GAS  C:\Users\MARTHN~1\AppData\Local\Temp\ccp8lHLI.s 			page 38


 1076 0094 1344     		add	r3, r3, r2
 1077 0096 BA88     		ldrh	r2, [r7, #4]	@ movhi
 1078 0098 D2B2     		uxtb	r2, r2
 1079 009a 1A70     		strb	r2, [r3]
1035:Generated_Source\PSoC5/USBUART.c **** 
1036:Generated_Source\PSoC5/USBUART.c ****         #if(USBUART_EP_MM == USBUART__EP_MANUAL)
1037:Generated_Source\PSoC5/USBUART.c ****             if(pData != NULL)
 1080              		.loc 1 1037 0
 1081 009c 3B68     		ldr	r3, [r7]
 1082 009e 002B     		cmp	r3, #0
 1083 00a0 0FD0     		beq	.L51
1038:Generated_Source\PSoC5/USBUART.c ****             {
1039:Generated_Source\PSoC5/USBUART.c ****                 /* Copy the data using the arbiter data register */
1040:Generated_Source\PSoC5/USBUART.c ****                 for (i = 0u; i < length; i++)
 1084              		.loc 1 1040 0
 1085 00a2 0023     		movs	r3, #0
 1086 00a4 FB81     		strh	r3, [r7, #14]	@ movhi
 1087 00a6 08E0     		b	.L52
 1088              	.L53:
1041:Generated_Source\PSoC5/USBUART.c ****                 {
1042:Generated_Source\PSoC5/USBUART.c ****                     CY_SET_REG8(p, pData[i]);
 1089              		.loc 1 1042 0 discriminator 3
 1090 00a8 FB89     		ldrh	r3, [r7, #14]
 1091 00aa 3A68     		ldr	r2, [r7]
 1092 00ac 1344     		add	r3, r3, r2
 1093 00ae 1A78     		ldrb	r2, [r3]	@ zero_extendqisi2
 1094 00b0 BB68     		ldr	r3, [r7, #8]
 1095 00b2 1A70     		strb	r2, [r3]
1040:Generated_Source\PSoC5/USBUART.c ****                 {
 1096              		.loc 1 1040 0 discriminator 3
 1097 00b4 FB89     		ldrh	r3, [r7, #14]
 1098 00b6 0133     		adds	r3, r3, #1
 1099 00b8 FB81     		strh	r3, [r7, #14]	@ movhi
 1100              	.L52:
1040:Generated_Source\PSoC5/USBUART.c ****                 {
 1101              		.loc 1 1040 0 is_stmt 0 discriminator 1
 1102 00ba FA89     		ldrh	r2, [r7, #14]
 1103 00bc BB88     		ldrh	r3, [r7, #4]
 1104 00be 9A42     		cmp	r2, r3
 1105 00c0 F2D3     		bcc	.L53
 1106              	.L51:
1043:Generated_Source\PSoC5/USBUART.c ****                 }
1044:Generated_Source\PSoC5/USBUART.c ****             }
1045:Generated_Source\PSoC5/USBUART.c ****             USBUART_EP[epNumber].apiEpState = USBUART_NO_EVENT_PENDING;
 1107              		.loc 1 1045 0 is_stmt 1
 1108 00c2 FA79     		ldrb	r2, [r7, #7]	@ zero_extendqisi2
 1109 00c4 0F49     		ldr	r1, .L55+4
 1110 00c6 1346     		mov	r3, r2
 1111 00c8 5B00     		lsls	r3, r3, #1
 1112 00ca 1344     		add	r3, r3, r2
 1113 00cc 9B00     		lsls	r3, r3, #2
 1114 00ce 0B44     		add	r3, r3, r1
 1115 00d0 0133     		adds	r3, r3, #1
 1116 00d2 0022     		movs	r2, #0
 1117 00d4 1A70     		strb	r2, [r3]
1046:Generated_Source\PSoC5/USBUART.c ****             /* Write the Mode register */
1047:Generated_Source\PSoC5/USBUART.c ****             CY_SET_REG8((reg8 *)(USBUART_SIE_EP1_CR0_IND + ri), USBUART_EP[epNumber].epMode);
ARM GAS  C:\Users\MARTHN~1\AppData\Local\Temp\ccp8lHLI.s 			page 39


 1118              		.loc 1 1047 0
 1119 00d6 7A7B     		ldrb	r2, [r7, #13]	@ zero_extendqisi2
 1120 00d8 0D4B     		ldr	r3, .L55+16
 1121 00da 1344     		add	r3, r3, r2
 1122 00dc 1846     		mov	r0, r3
 1123 00de FA79     		ldrb	r2, [r7, #7]	@ zero_extendqisi2
 1124 00e0 0849     		ldr	r1, .L55+4
 1125 00e2 1346     		mov	r3, r2
 1126 00e4 5B00     		lsls	r3, r3, #1
 1127 00e6 1344     		add	r3, r3, r2
 1128 00e8 9B00     		lsls	r3, r3, #2
 1129 00ea 0B44     		add	r3, r3, r1
 1130 00ec 0533     		adds	r3, r3, #5
 1131 00ee 1B78     		ldrb	r3, [r3]
 1132 00f0 DBB2     		uxtb	r3, r3
 1133 00f2 0370     		strb	r3, [r0]
 1134              	.L54:
1048:Generated_Source\PSoC5/USBUART.c ****         #else
1049:Generated_Source\PSoC5/USBUART.c ****             /* Init DMA if it was not initialized */
1050:Generated_Source\PSoC5/USBUART.c ****             if (USBUART_DmaTd[epNumber] == DMA_INVALID_TD)
1051:Generated_Source\PSoC5/USBUART.c ****             {
1052:Generated_Source\PSoC5/USBUART.c ****                 USBUART_InitEP_DMA(epNumber, pData);
1053:Generated_Source\PSoC5/USBUART.c ****             }
1054:Generated_Source\PSoC5/USBUART.c ****         #endif /*  USBUART_EP_MM == USBUART__EP_MANUAL */
1055:Generated_Source\PSoC5/USBUART.c **** 
1056:Generated_Source\PSoC5/USBUART.c ****         #if(USBUART_EP_MM == USBUART__EP_DMAMANUAL)
1057:Generated_Source\PSoC5/USBUART.c ****             USBUART_EP[epNumber].apiEpState = USBUART_NO_EVENT_PENDING;
1058:Generated_Source\PSoC5/USBUART.c ****             if ((pData != NULL) && (length > 0u))
1059:Generated_Source\PSoC5/USBUART.c ****             {
1060:Generated_Source\PSoC5/USBUART.c ****                 /* Enable DMA in mode2 for transferring data */
1061:Generated_Source\PSoC5/USBUART.c ****                 (void) CyDmaChDisable(USBUART_DmaChan[epNumber]);
1062:Generated_Source\PSoC5/USBUART.c ****                 (void) CyDmaTdSetConfiguration(USBUART_DmaTd[epNumber], length, CY_DMA_DISABLE_TD,
1063:Generated_Source\PSoC5/USBUART.c ****                                                                                  TD_TERMIN_EN | TD_
1064:Generated_Source\PSoC5/USBUART.c ****                 (void) CyDmaTdSetAddress(USBUART_DmaTd[epNumber],  LO16((uint32)pData), LO16((uint3
1065:Generated_Source\PSoC5/USBUART.c ****                 /* Enable the DMA */
1066:Generated_Source\PSoC5/USBUART.c ****                 (void) CyDmaChSetInitialTd(USBUART_DmaChan[epNumber], USBUART_DmaTd[epNumber]);
1067:Generated_Source\PSoC5/USBUART.c ****                 (void) CyDmaChEnable(USBUART_DmaChan[epNumber], 1u);
1068:Generated_Source\PSoC5/USBUART.c ****                 /* Generate DMA request */
1069:Generated_Source\PSoC5/USBUART.c ****                 * (reg8 *)(USBUART_ARB_EP1_CFG_IND + ri) |= USBUART_ARB_EPX_CFG_DMA_REQ;
1070:Generated_Source\PSoC5/USBUART.c ****                 * (reg8 *)(USBUART_ARB_EP1_CFG_IND + ri) &= ((uint8)(~USBUART_ARB_EPX_CFG_DMA_REQ))
1071:Generated_Source\PSoC5/USBUART.c ****                 /* Mode register will be written in arb ISR after DMA transfer complete */
1072:Generated_Source\PSoC5/USBUART.c ****             }
1073:Generated_Source\PSoC5/USBUART.c ****             else
1074:Generated_Source\PSoC5/USBUART.c ****             {
1075:Generated_Source\PSoC5/USBUART.c ****                 /* When zero-length packet - write the Mode register directly */
1076:Generated_Source\PSoC5/USBUART.c ****                 CY_SET_REG8((reg8 *)(USBUART_SIE_EP1_CR0_IND + ri), USBUART_EP[epNumber].epMode);
1077:Generated_Source\PSoC5/USBUART.c ****             }
1078:Generated_Source\PSoC5/USBUART.c ****         #endif /*  USBUART_EP_MM == USBUART__EP_DMAMANUAL */
1079:Generated_Source\PSoC5/USBUART.c **** 
1080:Generated_Source\PSoC5/USBUART.c ****         #if(USBUART_EP_MM == USBUART__EP_DMAAUTO)
1081:Generated_Source\PSoC5/USBUART.c ****             if (pData != NULL)
1082:Generated_Source\PSoC5/USBUART.c ****             {
1083:Generated_Source\PSoC5/USBUART.c ****                 /* Enable DMA in mode3 for transferring data */
1084:Generated_Source\PSoC5/USBUART.c ****                 (void) CyDmaChDisable(USBUART_DmaChan[epNumber]);
1085:Generated_Source\PSoC5/USBUART.c ****             #if (USBUART_EP_DMA_AUTO_OPT == 0u)
1086:Generated_Source\PSoC5/USBUART.c ****                 USBUART_inLength[epNumber] = length;
1087:Generated_Source\PSoC5/USBUART.c ****                 USBUART_inDataPointer[epNumber] = pData;
ARM GAS  C:\Users\MARTHN~1\AppData\Local\Temp\ccp8lHLI.s 			page 40


1088:Generated_Source\PSoC5/USBUART.c ****                 /* Configure DMA to send the data only for the first burst */
1089:Generated_Source\PSoC5/USBUART.c ****                 (void) CyDmaTdSetConfiguration(USBUART_DmaTd[epNumber],
1090:Generated_Source\PSoC5/USBUART.c ****                     (length > USBUART_DMA_BYTES_PER_BURST) ? USBUART_DMA_BYTES_PER_BURST : length,
1091:Generated_Source\PSoC5/USBUART.c ****                     USBUART_DmaNextTd[epNumber], TD_TERMIN_EN | TD_INC_SRC_ADR);
1092:Generated_Source\PSoC5/USBUART.c ****                 (void) CyDmaTdSetAddress(USBUART_DmaTd[epNumber],  LO16((uint32)pData), LO16((uint3
1093:Generated_Source\PSoC5/USBUART.c ****                 /* The second TD will be executed only when the first one fails.
1094:Generated_Source\PSoC5/USBUART.c ****                 *  The intention of this TD is to generate NRQ interrupt
1095:Generated_Source\PSoC5/USBUART.c ****                 *  and repeat 2 last bytes of the first burst.
1096:Generated_Source\PSoC5/USBUART.c ****                 */
1097:Generated_Source\PSoC5/USBUART.c ****                 (void) CyDmaTdSetConfiguration(USBUART_DmaNextTd[epNumber], 1u,
1098:Generated_Source\PSoC5/USBUART.c ****                                                USBUART_DmaNextTd[epNumber],
1099:Generated_Source\PSoC5/USBUART.c ****                                                USBUART_epX_TD_TERMOUT_EN[epNumber]);
1100:Generated_Source\PSoC5/USBUART.c ****                 /* Configure DmaNextTd to clear Data ready status */
1101:Generated_Source\PSoC5/USBUART.c ****                 (void) CyDmaTdSetAddress(USBUART_DmaNextTd[epNumber],  LO16((uint32)&clearInDataRdy
1102:Generated_Source\PSoC5/USBUART.c ****                                                                 LO16((uint32)(USBUART_ARB_EP1_CFG_I
1103:Generated_Source\PSoC5/USBUART.c ****             #else /* Configure DMA to send all data*/
1104:Generated_Source\PSoC5/USBUART.c ****                 (void) CyDmaTdSetConfiguration(USBUART_DmaTd[epNumber], length,
1105:Generated_Source\PSoC5/USBUART.c ****                                                USBUART_DmaTd[epNumber], TD_TERMIN_EN | TD_INC_SRC_A
1106:Generated_Source\PSoC5/USBUART.c ****                 (void) CyDmaTdSetAddress(USBUART_DmaTd[epNumber],  LO16((uint32)pData), LO16((uint3
1107:Generated_Source\PSoC5/USBUART.c ****             #endif /* USBUART_EP_DMA_AUTO_OPT == 0u */
1108:Generated_Source\PSoC5/USBUART.c **** 
1109:Generated_Source\PSoC5/USBUART.c ****                 /* Clear Any potential pending DMA requests before starting the DMA channel to tran
1110:Generated_Source\PSoC5/USBUART.c ****                 (void) CyDmaClearPendingDrq(USBUART_DmaChan[epNumber]);
1111:Generated_Source\PSoC5/USBUART.c ****                 /* Enable the DMA */
1112:Generated_Source\PSoC5/USBUART.c ****                 (void) CyDmaChSetInitialTd(USBUART_DmaChan[epNumber], USBUART_DmaTd[epNumber]);
1113:Generated_Source\PSoC5/USBUART.c ****                 (void) CyDmaChEnable(USBUART_DmaChan[epNumber], 1u);
1114:Generated_Source\PSoC5/USBUART.c ****             }
1115:Generated_Source\PSoC5/USBUART.c ****             else
1116:Generated_Source\PSoC5/USBUART.c ****             {
1117:Generated_Source\PSoC5/USBUART.c ****                 USBUART_EP[epNumber].apiEpState = USBUART_NO_EVENT_PENDING;
1118:Generated_Source\PSoC5/USBUART.c ****                 if(length > 0u)
1119:Generated_Source\PSoC5/USBUART.c ****                 {
1120:Generated_Source\PSoC5/USBUART.c ****                 #if (USBUART_EP_DMA_AUTO_OPT == 0u)
1121:Generated_Source\PSoC5/USBUART.c ****                     USBUART_inLength[epNumber] = length;
1122:Generated_Source\PSoC5/USBUART.c ****                     USBUART_inBufFull[epNumber] = 0u;
1123:Generated_Source\PSoC5/USBUART.c ****                     (void) CyDmaChDisable(USBUART_DmaChan[epNumber]);
1124:Generated_Source\PSoC5/USBUART.c ****                     /* Configure DMA to send the data only for the first burst */
1125:Generated_Source\PSoC5/USBUART.c ****                     (void) CyDmaTdSetConfiguration(
1126:Generated_Source\PSoC5/USBUART.c ****                         USBUART_DmaTd[epNumber], (length > USBUART_DMA_BYTES_PER_BURST) ?
1127:Generated_Source\PSoC5/USBUART.c ****                         USBUART_DMA_BYTES_PER_BURST : length,
1128:Generated_Source\PSoC5/USBUART.c ****                         USBUART_DmaNextTd[epNumber], TD_TERMIN_EN | TD_INC_SRC_ADR );
1129:Generated_Source\PSoC5/USBUART.c ****                     (void) CyDmaTdSetAddress(USBUART_DmaTd[epNumber],
1130:Generated_Source\PSoC5/USBUART.c ****                                              LO16((uint32)USBUART_inDataPointer[epNumber]), LO16((u
1131:Generated_Source\PSoC5/USBUART.c ****                     /* Clear Any potential pending DMA requests before starting the DMA channel to 
1132:Generated_Source\PSoC5/USBUART.c ****                     (void) CyDmaClearPendingDrq(USBUART_DmaChan[epNumber]);
1133:Generated_Source\PSoC5/USBUART.c ****                     /* Enable the DMA */
1134:Generated_Source\PSoC5/USBUART.c ****                     (void) CyDmaChSetInitialTd(USBUART_DmaChan[epNumber], USBUART_DmaTd[epNumber]);
1135:Generated_Source\PSoC5/USBUART.c ****                     (void) CyDmaChEnable(USBUART_DmaChan[epNumber], 1u);
1136:Generated_Source\PSoC5/USBUART.c ****                 #endif /* (USBUART_EP_DMA_AUTO_OPT == 0u) */
1137:Generated_Source\PSoC5/USBUART.c **** 
1138:Generated_Source\PSoC5/USBUART.c ****                     /* Set Data ready status, This will generate DMA request */
1139:Generated_Source\PSoC5/USBUART.c ****                     #ifndef USBUART_MANUAL_IN_EP_ARM
1140:Generated_Source\PSoC5/USBUART.c ****                         * (reg8 *)(USBUART_ARB_EP1_CFG_IND + ri) |= USBUART_ARB_EPX_CFG_IN_DATA_RDY
1141:Generated_Source\PSoC5/USBUART.c ****                     #endif  /* USBUART_MANUAL_IN_EP_ARM */
1142:Generated_Source\PSoC5/USBUART.c ****                     /* Mode register will be written in arb ISR(In Buffer Full) after first DMA tra
1143:Generated_Source\PSoC5/USBUART.c ****                 }
1144:Generated_Source\PSoC5/USBUART.c ****                 else
ARM GAS  C:\Users\MARTHN~1\AppData\Local\Temp\ccp8lHLI.s 			page 41


1145:Generated_Source\PSoC5/USBUART.c ****                 {
1146:Generated_Source\PSoC5/USBUART.c ****                     /* When zero-length packet - write the Mode register directly */
1147:Generated_Source\PSoC5/USBUART.c ****                     CY_SET_REG8((reg8 *)(USBUART_SIE_EP1_CR0_IND + ri), USBUART_EP[epNumber].epMode
1148:Generated_Source\PSoC5/USBUART.c ****                 }
1149:Generated_Source\PSoC5/USBUART.c ****             }
1150:Generated_Source\PSoC5/USBUART.c ****         #endif /*  USBUART_EP_MM == USBUART__EP_DMAAUTO */
1151:Generated_Source\PSoC5/USBUART.c ****     }
1152:Generated_Source\PSoC5/USBUART.c **** }
 1135              		.loc 1 1152 0
 1136 00f4 00BF     		nop
 1137 00f6 1037     		adds	r7, r7, #16
 1138              		.cfi_def_cfa_offset 8
 1139 00f8 BD46     		mov	sp, r7
 1140              		.cfi_def_cfa_register 13
 1141              		@ sp needed
 1142 00fa 90BC     		pop	{r4, r7}
 1143              		.cfi_restore 7
 1144              		.cfi_restore 4
 1145              		.cfi_def_cfa_offset 0
 1146 00fc 7047     		bx	lr
 1147              	.L56:
 1148 00fe 00BF     		.align	2
 1149              	.L55:
 1150 0100 88600040 		.word	1073766536
 1151 0104 00000000 		.word	USBUART_EP
 1152 0108 0C600040 		.word	1073766412
 1153 010c 0D600040 		.word	1073766413
 1154 0110 0E600040 		.word	1073766414
 1155              		.cfi_endproc
 1156              	.LFE11:
 1157              		.size	USBUART_LoadInEP, .-USBUART_LoadInEP
 1158              		.section	.text.USBUART_ReadOutEP,"ax",%progbits
 1159              		.align	2
 1160              		.global	USBUART_ReadOutEP
 1161              		.thumb
 1162              		.thumb_func
 1163              		.type	USBUART_ReadOutEP, %function
 1164              	USBUART_ReadOutEP:
 1165              	.LFB12:
1153:Generated_Source\PSoC5/USBUART.c **** 
1154:Generated_Source\PSoC5/USBUART.c **** 
1155:Generated_Source\PSoC5/USBUART.c **** /*******************************************************************************
1156:Generated_Source\PSoC5/USBUART.c **** * Function Name: USBUART_ReadOutEP
1157:Generated_Source\PSoC5/USBUART.c **** ********************************************************************************
1158:Generated_Source\PSoC5/USBUART.c **** *
1159:Generated_Source\PSoC5/USBUART.c **** * Summary:
1160:Generated_Source\PSoC5/USBUART.c **** *  Read data from an endpoint.  The application must call
1161:Generated_Source\PSoC5/USBUART.c **** *  USBUART_GetEPState to see if an event is pending.
1162:Generated_Source\PSoC5/USBUART.c **** *
1163:Generated_Source\PSoC5/USBUART.c **** * Parameters:
1164:Generated_Source\PSoC5/USBUART.c **** *  epNumber: Contains the data endpoint number.
1165:Generated_Source\PSoC5/USBUART.c **** *            Valid values are between 1 and 8.
1166:Generated_Source\PSoC5/USBUART.c **** *  pData: A pointer to a data array from which the data for the endpoint space
1167:Generated_Source\PSoC5/USBUART.c **** *         is loaded.
1168:Generated_Source\PSoC5/USBUART.c **** *  length: The number of bytes to transfer from the USB Out endpoint and loads
1169:Generated_Source\PSoC5/USBUART.c **** *          it into data array. Valid values are between 0 and 1023. The function
1170:Generated_Source\PSoC5/USBUART.c **** *          moves fewer than the requested number of bytes if the host sends
ARM GAS  C:\Users\MARTHN~1\AppData\Local\Temp\ccp8lHLI.s 			page 42


1171:Generated_Source\PSoC5/USBUART.c **** *          fewer bytes than requested.
1172:Generated_Source\PSoC5/USBUART.c **** *
1173:Generated_Source\PSoC5/USBUART.c **** * Returns:
1174:Generated_Source\PSoC5/USBUART.c **** *  Number of bytes received, 0 for an invalid endpoint.
1175:Generated_Source\PSoC5/USBUART.c **** *
1176:Generated_Source\PSoC5/USBUART.c **** * Reentrant:
1177:Generated_Source\PSoC5/USBUART.c **** *  No.
1178:Generated_Source\PSoC5/USBUART.c **** *
1179:Generated_Source\PSoC5/USBUART.c **** *******************************************************************************/
1180:Generated_Source\PSoC5/USBUART.c **** uint16 USBUART_ReadOutEP(uint8 epNumber, uint8 pData[], uint16 length)
1181:Generated_Source\PSoC5/USBUART.c ****                                                                         
1182:Generated_Source\PSoC5/USBUART.c **** {
 1166              		.loc 1 1182 0
 1167              		.cfi_startproc
 1168              		@ args = 0, pretend = 0, frame = 24
 1169              		@ frame_needed = 1, uses_anonymous_args = 0
 1170 0000 80B5     		push	{r7, lr}
 1171              		.cfi_def_cfa_offset 8
 1172              		.cfi_offset 7, -8
 1173              		.cfi_offset 14, -4
 1174 0002 86B0     		sub	sp, sp, #24
 1175              		.cfi_def_cfa_offset 32
 1176 0004 00AF     		add	r7, sp, #0
 1177              		.cfi_def_cfa_register 7
 1178 0006 0346     		mov	r3, r0
 1179 0008 3960     		str	r1, [r7]
 1180 000a FB71     		strb	r3, [r7, #7]
 1181 000c 1346     		mov	r3, r2	@ movhi
 1182 000e BB80     		strh	r3, [r7, #4]	@ movhi
1183:Generated_Source\PSoC5/USBUART.c ****     uint8 ri;
1184:Generated_Source\PSoC5/USBUART.c ****     reg8 *p;
1185:Generated_Source\PSoC5/USBUART.c ****     #if(USBUART_EP_MM == USBUART__EP_MANUAL)
1186:Generated_Source\PSoC5/USBUART.c ****         uint16 i;
1187:Generated_Source\PSoC5/USBUART.c ****     #endif /*  USBUART_EP_MM == USBUART__EP_MANUAL */
1188:Generated_Source\PSoC5/USBUART.c ****     #if(USBUART_EP_MM != USBUART__EP_DMAAUTO)
1189:Generated_Source\PSoC5/USBUART.c ****         uint16 xferCount;
1190:Generated_Source\PSoC5/USBUART.c ****     #endif /*  USBUART_EP_MM != USBUART__EP_DMAAUTO */
1191:Generated_Source\PSoC5/USBUART.c **** 
1192:Generated_Source\PSoC5/USBUART.c ****     if((epNumber > USBUART_EP0) && (epNumber < USBUART_MAX_EP) && (pData != NULL))
 1183              		.loc 1 1192 0
 1184 0010 FB79     		ldrb	r3, [r7, #7]	@ zero_extendqisi2
 1185 0012 002B     		cmp	r3, #0
 1186 0014 30D0     		beq	.L58
 1187              		.loc 1 1192 0 is_stmt 0 discriminator 1
 1188 0016 FB79     		ldrb	r3, [r7, #7]	@ zero_extendqisi2
 1189 0018 082B     		cmp	r3, #8
 1190 001a 2DD8     		bhi	.L58
 1191              		.loc 1 1192 0 discriminator 2
 1192 001c 3B68     		ldr	r3, [r7]
 1193 001e 002B     		cmp	r3, #0
 1194 0020 2AD0     		beq	.L58
1193:Generated_Source\PSoC5/USBUART.c ****     {
1194:Generated_Source\PSoC5/USBUART.c ****         ri = ((epNumber - USBUART_EP1) << USBUART_EPX_CNTX_ADDR_SHIFT);
 1195              		.loc 1 1194 0 is_stmt 1
 1196 0022 FB79     		ldrb	r3, [r7, #7]
 1197 0024 013B     		subs	r3, r3, #1
 1198 0026 DBB2     		uxtb	r3, r3
ARM GAS  C:\Users\MARTHN~1\AppData\Local\Temp\ccp8lHLI.s 			page 43


 1199 0028 1B01     		lsls	r3, r3, #4
 1200 002a 7B75     		strb	r3, [r7, #21]
1195:Generated_Source\PSoC5/USBUART.c ****         p = (reg8 *)(USBUART_ARB_RW1_DR_IND + ri);
 1201              		.loc 1 1195 0
 1202 002c 7A7D     		ldrb	r2, [r7, #21]	@ zero_extendqisi2
 1203 002e 164B     		ldr	r3, .L64
 1204 0030 1344     		add	r3, r3, r2
 1205 0032 3B61     		str	r3, [r7, #16]
1196:Generated_Source\PSoC5/USBUART.c **** 
1197:Generated_Source\PSoC5/USBUART.c ****         #if(USBUART_EP_MM != USBUART__EP_DMAAUTO)
1198:Generated_Source\PSoC5/USBUART.c ****             /* Determine which is smaller the requested data or the available data */
1199:Generated_Source\PSoC5/USBUART.c ****             xferCount = USBUART_GetEPCount(epNumber);
 1206              		.loc 1 1199 0
 1207 0034 FB79     		ldrb	r3, [r7, #7]	@ zero_extendqisi2
 1208 0036 1846     		mov	r0, r3
 1209 0038 FFF7FEFF 		bl	USBUART_GetEPCount
 1210 003c 0346     		mov	r3, r0
 1211 003e FB81     		strh	r3, [r7, #14]	@ movhi
1200:Generated_Source\PSoC5/USBUART.c ****             if (length > xferCount)
 1212              		.loc 1 1200 0
 1213 0040 BA88     		ldrh	r2, [r7, #4]
 1214 0042 FB89     		ldrh	r3, [r7, #14]
 1215 0044 9A42     		cmp	r2, r3
 1216 0046 01D9     		bls	.L59
1201:Generated_Source\PSoC5/USBUART.c ****             {
1202:Generated_Source\PSoC5/USBUART.c ****                 length = xferCount;
 1217              		.loc 1 1202 0
 1218 0048 FB89     		ldrh	r3, [r7, #14]	@ movhi
 1219 004a BB80     		strh	r3, [r7, #4]	@ movhi
 1220              	.L59:
1203:Generated_Source\PSoC5/USBUART.c ****             }
1204:Generated_Source\PSoC5/USBUART.c ****         #endif /*  USBUART_EP_MM != USBUART__EP_DMAAUTO */
1205:Generated_Source\PSoC5/USBUART.c **** 
1206:Generated_Source\PSoC5/USBUART.c ****         #if(USBUART_EP_MM == USBUART__EP_MANUAL)
1207:Generated_Source\PSoC5/USBUART.c ****             /* Copy the data using the arbiter data register */
1208:Generated_Source\PSoC5/USBUART.c ****             for (i = 0u; i < length; i++)
 1221              		.loc 1 1208 0
 1222 004c 0023     		movs	r3, #0
 1223 004e FB82     		strh	r3, [r7, #22]	@ movhi
 1224 0050 09E0     		b	.L60
 1225              	.L61:
1209:Generated_Source\PSoC5/USBUART.c ****             {
1210:Generated_Source\PSoC5/USBUART.c ****                 pData[i] = CY_GET_REG8(p);
 1226              		.loc 1 1210 0 discriminator 3
 1227 0052 FB8A     		ldrh	r3, [r7, #22]
 1228 0054 3A68     		ldr	r2, [r7]
 1229 0056 1344     		add	r3, r3, r2
 1230 0058 3A69     		ldr	r2, [r7, #16]
 1231 005a 1278     		ldrb	r2, [r2]
 1232 005c D2B2     		uxtb	r2, r2
 1233 005e 1A70     		strb	r2, [r3]
1208:Generated_Source\PSoC5/USBUART.c ****             {
 1234              		.loc 1 1208 0 discriminator 3
 1235 0060 FB8A     		ldrh	r3, [r7, #22]
 1236 0062 0133     		adds	r3, r3, #1
 1237 0064 FB82     		strh	r3, [r7, #22]	@ movhi
 1238              	.L60:
ARM GAS  C:\Users\MARTHN~1\AppData\Local\Temp\ccp8lHLI.s 			page 44


1208:Generated_Source\PSoC5/USBUART.c ****             {
 1239              		.loc 1 1208 0 is_stmt 0 discriminator 1
 1240 0066 FA8A     		ldrh	r2, [r7, #22]
 1241 0068 BB88     		ldrh	r3, [r7, #4]
 1242 006a 9A42     		cmp	r2, r3
 1243 006c F1D3     		bcc	.L61
1211:Generated_Source\PSoC5/USBUART.c ****             }
1212:Generated_Source\PSoC5/USBUART.c **** 
1213:Generated_Source\PSoC5/USBUART.c ****             /* (re)arming of OUT endpoint */
1214:Generated_Source\PSoC5/USBUART.c ****             USBUART_EnableOutEP(epNumber);
 1244              		.loc 1 1214 0 is_stmt 1
 1245 006e FB79     		ldrb	r3, [r7, #7]	@ zero_extendqisi2
 1246 0070 1846     		mov	r0, r3
 1247 0072 FFF7FEFF 		bl	USBUART_EnableOutEP
 1248 0076 01E0     		b	.L62
 1249              	.L58:
1215:Generated_Source\PSoC5/USBUART.c ****         #else
1216:Generated_Source\PSoC5/USBUART.c ****             /*Init DMA if it was not initialized */
1217:Generated_Source\PSoC5/USBUART.c ****             if(USBUART_DmaTd[epNumber] == DMA_INVALID_TD)
1218:Generated_Source\PSoC5/USBUART.c ****             {
1219:Generated_Source\PSoC5/USBUART.c ****                 USBUART_InitEP_DMA(epNumber, pData);
1220:Generated_Source\PSoC5/USBUART.c ****             }
1221:Generated_Source\PSoC5/USBUART.c **** 
1222:Generated_Source\PSoC5/USBUART.c ****         #endif /*  USBUART_EP_MM == USBUART__EP_MANUAL */
1223:Generated_Source\PSoC5/USBUART.c **** 
1224:Generated_Source\PSoC5/USBUART.c ****         #if(USBUART_EP_MM == USBUART__EP_DMAMANUAL)
1225:Generated_Source\PSoC5/USBUART.c ****             /* Enable DMA in mode2 for transferring data */
1226:Generated_Source\PSoC5/USBUART.c ****             (void) CyDmaChDisable(USBUART_DmaChan[epNumber]);
1227:Generated_Source\PSoC5/USBUART.c ****             (void) CyDmaTdSetConfiguration(USBUART_DmaTd[epNumber], length, CY_DMA_DISABLE_TD,
1228:Generated_Source\PSoC5/USBUART.c ****                                                                                 TD_TERMIN_EN | TD_I
1229:Generated_Source\PSoC5/USBUART.c ****             (void) CyDmaTdSetAddress(USBUART_DmaTd[epNumber],  LO16((uint32)p), LO16((uint32)pData)
1230:Generated_Source\PSoC5/USBUART.c ****             /* Enable the DMA */
1231:Generated_Source\PSoC5/USBUART.c ****             (void) CyDmaChSetInitialTd(USBUART_DmaChan[epNumber], USBUART_DmaTd[epNumber]);
1232:Generated_Source\PSoC5/USBUART.c ****             (void) CyDmaChEnable(USBUART_DmaChan[epNumber], 1u);
1233:Generated_Source\PSoC5/USBUART.c **** 
1234:Generated_Source\PSoC5/USBUART.c ****             /* Generate DMA request */
1235:Generated_Source\PSoC5/USBUART.c ****             * (reg8 *)(USBUART_ARB_EP1_CFG_IND + ri) |= USBUART_ARB_EPX_CFG_DMA_REQ;
1236:Generated_Source\PSoC5/USBUART.c ****             * (reg8 *)(USBUART_ARB_EP1_CFG_IND + ri) &= ((uint8)(~USBUART_ARB_EPX_CFG_DMA_REQ));
1237:Generated_Source\PSoC5/USBUART.c ****             /* Out EP will be (re)armed in arb ISR after transfer complete */
1238:Generated_Source\PSoC5/USBUART.c ****         #endif /*  USBUART_EP_MM == USBUART__EP_DMAMANUAL */
1239:Generated_Source\PSoC5/USBUART.c **** 
1240:Generated_Source\PSoC5/USBUART.c ****         #if(USBUART_EP_MM == USBUART__EP_DMAAUTO)
1241:Generated_Source\PSoC5/USBUART.c ****             /* Enable DMA in mode3 for transferring data */
1242:Generated_Source\PSoC5/USBUART.c ****             (void) CyDmaChDisable(USBUART_DmaChan[epNumber]);
1243:Generated_Source\PSoC5/USBUART.c ****             (void) CyDmaTdSetConfiguration(USBUART_DmaTd[epNumber], length, USBUART_DmaTd[epNumber]
1244:Generated_Source\PSoC5/USBUART.c ****                                                                                 TD_TERMIN_EN | TD_I
1245:Generated_Source\PSoC5/USBUART.c ****             (void) CyDmaTdSetAddress(USBUART_DmaTd[epNumber],  LO16((uint32)p), LO16((uint32)pData)
1246:Generated_Source\PSoC5/USBUART.c **** 
1247:Generated_Source\PSoC5/USBUART.c ****             /* Clear Any potential pending DMA requests before starting the DMA channel to transfer
1248:Generated_Source\PSoC5/USBUART.c ****             (void) CyDmaClearPendingDrq(USBUART_DmaChan[epNumber]);
1249:Generated_Source\PSoC5/USBUART.c ****             /* Enable the DMA */
1250:Generated_Source\PSoC5/USBUART.c ****             (void) CyDmaChSetInitialTd(USBUART_DmaChan[epNumber], USBUART_DmaTd[epNumber]);
1251:Generated_Source\PSoC5/USBUART.c ****             (void) CyDmaChEnable(USBUART_DmaChan[epNumber], 1u);
1252:Generated_Source\PSoC5/USBUART.c ****             /* Out EP will be (re)armed in arb ISR after transfer complete */
1253:Generated_Source\PSoC5/USBUART.c ****         #endif /*  USBUART_EP_MM == USBUART__EP_DMAAUTO */
1254:Generated_Source\PSoC5/USBUART.c **** 
1255:Generated_Source\PSoC5/USBUART.c ****     }
ARM GAS  C:\Users\MARTHN~1\AppData\Local\Temp\ccp8lHLI.s 			page 45


1256:Generated_Source\PSoC5/USBUART.c ****     else
1257:Generated_Source\PSoC5/USBUART.c ****     {
1258:Generated_Source\PSoC5/USBUART.c ****         length = 0u;
 1250              		.loc 1 1258 0
 1251 0078 0023     		movs	r3, #0
 1252 007a BB80     		strh	r3, [r7, #4]	@ movhi
 1253              	.L62:
1259:Generated_Source\PSoC5/USBUART.c ****     }
1260:Generated_Source\PSoC5/USBUART.c **** 
1261:Generated_Source\PSoC5/USBUART.c ****     return(length);
 1254              		.loc 1 1261 0
 1255 007c BB88     		ldrh	r3, [r7, #4]
1262:Generated_Source\PSoC5/USBUART.c **** }
 1256              		.loc 1 1262 0
 1257 007e 1846     		mov	r0, r3
 1258 0080 1837     		adds	r7, r7, #24
 1259              		.cfi_def_cfa_offset 8
 1260 0082 BD46     		mov	sp, r7
 1261              		.cfi_def_cfa_register 13
 1262              		@ sp needed
 1263 0084 80BD     		pop	{r7, pc}
 1264              	.L65:
 1265 0086 00BF     		.align	2
 1266              	.L64:
 1267 0088 88600040 		.word	1073766536
 1268              		.cfi_endproc
 1269              	.LFE12:
 1270              		.size	USBUART_ReadOutEP, .-USBUART_ReadOutEP
 1271              		.section	.text.USBUART_EnableOutEP,"ax",%progbits
 1272              		.align	2
 1273              		.global	USBUART_EnableOutEP
 1274              		.thumb
 1275              		.thumb_func
 1276              		.type	USBUART_EnableOutEP, %function
 1277              	USBUART_EnableOutEP:
 1278              	.LFB13:
1263:Generated_Source\PSoC5/USBUART.c **** 
1264:Generated_Source\PSoC5/USBUART.c **** 
1265:Generated_Source\PSoC5/USBUART.c **** /*******************************************************************************
1266:Generated_Source\PSoC5/USBUART.c **** * Function Name: USBUART_EnableOutEP
1267:Generated_Source\PSoC5/USBUART.c **** ********************************************************************************
1268:Generated_Source\PSoC5/USBUART.c **** *
1269:Generated_Source\PSoC5/USBUART.c **** * Summary:
1270:Generated_Source\PSoC5/USBUART.c **** *  This function enables an OUT endpoint.  It should not be
1271:Generated_Source\PSoC5/USBUART.c **** *  called for an IN endpoint.
1272:Generated_Source\PSoC5/USBUART.c **** *
1273:Generated_Source\PSoC5/USBUART.c **** * Parameters:
1274:Generated_Source\PSoC5/USBUART.c **** *  epNumber: Endpoint Number
1275:Generated_Source\PSoC5/USBUART.c **** *            Valid values are between 1 and 8.
1276:Generated_Source\PSoC5/USBUART.c **** *
1277:Generated_Source\PSoC5/USBUART.c **** * Return:
1278:Generated_Source\PSoC5/USBUART.c **** *   None.
1279:Generated_Source\PSoC5/USBUART.c **** *
1280:Generated_Source\PSoC5/USBUART.c **** * Global variables:
1281:Generated_Source\PSoC5/USBUART.c **** *  USBUART_EP[epNumber].apiEpState - set to NO_EVENT_PENDING
1282:Generated_Source\PSoC5/USBUART.c **** *
1283:Generated_Source\PSoC5/USBUART.c **** * Reentrant:
ARM GAS  C:\Users\MARTHN~1\AppData\Local\Temp\ccp8lHLI.s 			page 46


1284:Generated_Source\PSoC5/USBUART.c **** *  No.
1285:Generated_Source\PSoC5/USBUART.c **** *
1286:Generated_Source\PSoC5/USBUART.c **** *******************************************************************************/
1287:Generated_Source\PSoC5/USBUART.c **** void USBUART_EnableOutEP(uint8 epNumber) 
1288:Generated_Source\PSoC5/USBUART.c **** {
 1279              		.loc 1 1288 0
 1280              		.cfi_startproc
 1281              		@ args = 0, pretend = 0, frame = 16
 1282              		@ frame_needed = 1, uses_anonymous_args = 0
 1283              		@ link register save eliminated.
 1284 0000 80B4     		push	{r7}
 1285              		.cfi_def_cfa_offset 4
 1286              		.cfi_offset 7, -4
 1287 0002 85B0     		sub	sp, sp, #20
 1288              		.cfi_def_cfa_offset 24
 1289 0004 00AF     		add	r7, sp, #0
 1290              		.cfi_def_cfa_register 7
 1291 0006 0346     		mov	r3, r0
 1292 0008 FB71     		strb	r3, [r7, #7]
1289:Generated_Source\PSoC5/USBUART.c ****     uint8 ri;
1290:Generated_Source\PSoC5/USBUART.c **** 
1291:Generated_Source\PSoC5/USBUART.c ****     if((epNumber > USBUART_EP0) && (epNumber < USBUART_MAX_EP))
 1293              		.loc 1 1291 0
 1294 000a FB79     		ldrb	r3, [r7, #7]	@ zero_extendqisi2
 1295 000c 002B     		cmp	r3, #0
 1296 000e 20D0     		beq	.L68
 1297              		.loc 1 1291 0 is_stmt 0 discriminator 1
 1298 0010 FB79     		ldrb	r3, [r7, #7]	@ zero_extendqisi2
 1299 0012 082B     		cmp	r3, #8
 1300 0014 1DD8     		bhi	.L68
1292:Generated_Source\PSoC5/USBUART.c ****     {
1293:Generated_Source\PSoC5/USBUART.c ****         ri = ((epNumber - USBUART_EP1) << USBUART_EPX_CNTX_ADDR_SHIFT);
 1301              		.loc 1 1293 0 is_stmt 1
 1302 0016 FB79     		ldrb	r3, [r7, #7]
 1303 0018 013B     		subs	r3, r3, #1
 1304 001a DBB2     		uxtb	r3, r3
 1305 001c 1B01     		lsls	r3, r3, #4
 1306 001e FB73     		strb	r3, [r7, #15]
1294:Generated_Source\PSoC5/USBUART.c ****         USBUART_EP[epNumber].apiEpState = USBUART_NO_EVENT_PENDING;
 1307              		.loc 1 1294 0
 1308 0020 FA79     		ldrb	r2, [r7, #7]	@ zero_extendqisi2
 1309 0022 0E49     		ldr	r1, .L69
 1310 0024 1346     		mov	r3, r2
 1311 0026 5B00     		lsls	r3, r3, #1
 1312 0028 1344     		add	r3, r3, r2
 1313 002a 9B00     		lsls	r3, r3, #2
 1314 002c 0B44     		add	r3, r3, r1
 1315 002e 0133     		adds	r3, r3, #1
 1316 0030 0022     		movs	r2, #0
 1317 0032 1A70     		strb	r2, [r3]
1295:Generated_Source\PSoC5/USBUART.c ****         /* Write the Mode register */
1296:Generated_Source\PSoC5/USBUART.c ****         CY_SET_REG8((reg8 *)(USBUART_SIE_EP1_CR0_IND + ri), USBUART_EP[epNumber].epMode);
 1318              		.loc 1 1296 0
 1319 0034 FA7B     		ldrb	r2, [r7, #15]	@ zero_extendqisi2
 1320 0036 0A4B     		ldr	r3, .L69+4
 1321 0038 1344     		add	r3, r3, r2
 1322 003a 1846     		mov	r0, r3
ARM GAS  C:\Users\MARTHN~1\AppData\Local\Temp\ccp8lHLI.s 			page 47


 1323 003c FA79     		ldrb	r2, [r7, #7]	@ zero_extendqisi2
 1324 003e 0749     		ldr	r1, .L69
 1325 0040 1346     		mov	r3, r2
 1326 0042 5B00     		lsls	r3, r3, #1
 1327 0044 1344     		add	r3, r3, r2
 1328 0046 9B00     		lsls	r3, r3, #2
 1329 0048 0B44     		add	r3, r3, r1
 1330 004a 0533     		adds	r3, r3, #5
 1331 004c 1B78     		ldrb	r3, [r3]
 1332 004e DBB2     		uxtb	r3, r3
 1333 0050 0370     		strb	r3, [r0]
 1334              	.L68:
1297:Generated_Source\PSoC5/USBUART.c ****     }
1298:Generated_Source\PSoC5/USBUART.c **** }
 1335              		.loc 1 1298 0
 1336 0052 00BF     		nop
 1337 0054 1437     		adds	r7, r7, #20
 1338              		.cfi_def_cfa_offset 4
 1339 0056 BD46     		mov	sp, r7
 1340              		.cfi_def_cfa_register 13
 1341              		@ sp needed
 1342 0058 80BC     		pop	{r7}
 1343              		.cfi_restore 7
 1344              		.cfi_def_cfa_offset 0
 1345 005a 7047     		bx	lr
 1346              	.L70:
 1347              		.align	2
 1348              	.L69:
 1349 005c 00000000 		.word	USBUART_EP
 1350 0060 0E600040 		.word	1073766414
 1351              		.cfi_endproc
 1352              	.LFE13:
 1353              		.size	USBUART_EnableOutEP, .-USBUART_EnableOutEP
 1354              		.section	.text.USBUART_DisableOutEP,"ax",%progbits
 1355              		.align	2
 1356              		.global	USBUART_DisableOutEP
 1357              		.thumb
 1358              		.thumb_func
 1359              		.type	USBUART_DisableOutEP, %function
 1360              	USBUART_DisableOutEP:
 1361              	.LFB14:
1299:Generated_Source\PSoC5/USBUART.c **** 
1300:Generated_Source\PSoC5/USBUART.c **** 
1301:Generated_Source\PSoC5/USBUART.c **** /*******************************************************************************
1302:Generated_Source\PSoC5/USBUART.c **** * Function Name: USBUART_DisableOutEP
1303:Generated_Source\PSoC5/USBUART.c **** ********************************************************************************
1304:Generated_Source\PSoC5/USBUART.c **** *
1305:Generated_Source\PSoC5/USBUART.c **** * Summary:
1306:Generated_Source\PSoC5/USBUART.c **** *  This function disables an OUT endpoint.  It should not be
1307:Generated_Source\PSoC5/USBUART.c **** *  called for an IN endpoint.
1308:Generated_Source\PSoC5/USBUART.c **** *
1309:Generated_Source\PSoC5/USBUART.c **** * Parameters:
1310:Generated_Source\PSoC5/USBUART.c **** *  epNumber: Endpoint Number
1311:Generated_Source\PSoC5/USBUART.c **** *            Valid values are between 1 and 8.
1312:Generated_Source\PSoC5/USBUART.c **** *
1313:Generated_Source\PSoC5/USBUART.c **** * Return:
1314:Generated_Source\PSoC5/USBUART.c **** *  None.
ARM GAS  C:\Users\MARTHN~1\AppData\Local\Temp\ccp8lHLI.s 			page 48


1315:Generated_Source\PSoC5/USBUART.c **** *
1316:Generated_Source\PSoC5/USBUART.c **** *******************************************************************************/
1317:Generated_Source\PSoC5/USBUART.c **** void USBUART_DisableOutEP(uint8 epNumber) 
1318:Generated_Source\PSoC5/USBUART.c **** {
 1362              		.loc 1 1318 0
 1363              		.cfi_startproc
 1364              		@ args = 0, pretend = 0, frame = 16
 1365              		@ frame_needed = 1, uses_anonymous_args = 0
 1366              		@ link register save eliminated.
 1367 0000 80B4     		push	{r7}
 1368              		.cfi_def_cfa_offset 4
 1369              		.cfi_offset 7, -4
 1370 0002 85B0     		sub	sp, sp, #20
 1371              		.cfi_def_cfa_offset 24
 1372 0004 00AF     		add	r7, sp, #0
 1373              		.cfi_def_cfa_register 7
 1374 0006 0346     		mov	r3, r0
 1375 0008 FB71     		strb	r3, [r7, #7]
1319:Generated_Source\PSoC5/USBUART.c ****     uint8 ri ;
1320:Generated_Source\PSoC5/USBUART.c **** 
1321:Generated_Source\PSoC5/USBUART.c ****     if((epNumber > USBUART_EP0) && (epNumber < USBUART_MAX_EP))
 1376              		.loc 1 1321 0
 1377 000a FB79     		ldrb	r3, [r7, #7]	@ zero_extendqisi2
 1378 000c 002B     		cmp	r3, #0
 1379 000e 0CD0     		beq	.L73
 1380              		.loc 1 1321 0 is_stmt 0 discriminator 1
 1381 0010 FB79     		ldrb	r3, [r7, #7]	@ zero_extendqisi2
 1382 0012 082B     		cmp	r3, #8
 1383 0014 09D8     		bhi	.L73
1322:Generated_Source\PSoC5/USBUART.c ****     {
1323:Generated_Source\PSoC5/USBUART.c ****         ri = ((epNumber - USBUART_EP1) << USBUART_EPX_CNTX_ADDR_SHIFT);
 1384              		.loc 1 1323 0 is_stmt 1
 1385 0016 FB79     		ldrb	r3, [r7, #7]
 1386 0018 013B     		subs	r3, r3, #1
 1387 001a DBB2     		uxtb	r3, r3
 1388 001c 1B01     		lsls	r3, r3, #4
 1389 001e FB73     		strb	r3, [r7, #15]
1324:Generated_Source\PSoC5/USBUART.c ****         /* Write the Mode register */
1325:Generated_Source\PSoC5/USBUART.c ****         CY_SET_REG8((reg8 *)(USBUART_SIE_EP1_CR0_IND + ri), USBUART_MODE_NAK_OUT);
 1390              		.loc 1 1325 0
 1391 0020 FA7B     		ldrb	r2, [r7, #15]	@ zero_extendqisi2
 1392 0022 044B     		ldr	r3, .L74
 1393 0024 1344     		add	r3, r3, r2
 1394 0026 0822     		movs	r2, #8
 1395 0028 1A70     		strb	r2, [r3]
 1396              	.L73:
1326:Generated_Source\PSoC5/USBUART.c ****     }
1327:Generated_Source\PSoC5/USBUART.c **** }
 1397              		.loc 1 1327 0
 1398 002a 00BF     		nop
 1399 002c 1437     		adds	r7, r7, #20
 1400              		.cfi_def_cfa_offset 4
 1401 002e BD46     		mov	sp, r7
 1402              		.cfi_def_cfa_register 13
 1403              		@ sp needed
 1404 0030 80BC     		pop	{r7}
 1405              		.cfi_restore 7
ARM GAS  C:\Users\MARTHN~1\AppData\Local\Temp\ccp8lHLI.s 			page 49


 1406              		.cfi_def_cfa_offset 0
 1407 0032 7047     		bx	lr
 1408              	.L75:
 1409              		.align	2
 1410              	.L74:
 1411 0034 0E600040 		.word	1073766414
 1412              		.cfi_endproc
 1413              	.LFE14:
 1414              		.size	USBUART_DisableOutEP, .-USBUART_DisableOutEP
 1415              		.section	.text.USBUART_Force,"ax",%progbits
 1416              		.align	2
 1417              		.global	USBUART_Force
 1418              		.thumb
 1419              		.thumb_func
 1420              		.type	USBUART_Force, %function
 1421              	USBUART_Force:
 1422              	.LFB15:
1328:Generated_Source\PSoC5/USBUART.c **** 
1329:Generated_Source\PSoC5/USBUART.c **** 
1330:Generated_Source\PSoC5/USBUART.c **** /*******************************************************************************
1331:Generated_Source\PSoC5/USBUART.c **** * Function Name: USBUART_Force
1332:Generated_Source\PSoC5/USBUART.c **** ********************************************************************************
1333:Generated_Source\PSoC5/USBUART.c **** *
1334:Generated_Source\PSoC5/USBUART.c **** * Summary:
1335:Generated_Source\PSoC5/USBUART.c **** *  Forces the bus state
1336:Generated_Source\PSoC5/USBUART.c **** *
1337:Generated_Source\PSoC5/USBUART.c **** * Parameters:
1338:Generated_Source\PSoC5/USBUART.c **** *  bState
1339:Generated_Source\PSoC5/USBUART.c **** *    USBUART_FORCE_J
1340:Generated_Source\PSoC5/USBUART.c **** *    USBUART_FORCE_K
1341:Generated_Source\PSoC5/USBUART.c **** *    USBUART_FORCE_SE0
1342:Generated_Source\PSoC5/USBUART.c **** *    USBUART_FORCE_NONE
1343:Generated_Source\PSoC5/USBUART.c **** *
1344:Generated_Source\PSoC5/USBUART.c **** * Return:
1345:Generated_Source\PSoC5/USBUART.c **** *  None.
1346:Generated_Source\PSoC5/USBUART.c **** *
1347:Generated_Source\PSoC5/USBUART.c **** *******************************************************************************/
1348:Generated_Source\PSoC5/USBUART.c **** void USBUART_Force(uint8 bState) 
1349:Generated_Source\PSoC5/USBUART.c **** {
 1423              		.loc 1 1349 0
 1424              		.cfi_startproc
 1425              		@ args = 0, pretend = 0, frame = 8
 1426              		@ frame_needed = 1, uses_anonymous_args = 0
 1427              		@ link register save eliminated.
 1428 0000 80B4     		push	{r7}
 1429              		.cfi_def_cfa_offset 4
 1430              		.cfi_offset 7, -4
 1431 0002 83B0     		sub	sp, sp, #12
 1432              		.cfi_def_cfa_offset 16
 1433 0004 00AF     		add	r7, sp, #0
 1434              		.cfi_def_cfa_register 7
 1435 0006 0346     		mov	r3, r0
 1436 0008 FB71     		strb	r3, [r7, #7]
1350:Generated_Source\PSoC5/USBUART.c ****     CY_SET_REG8(USBUART_USBIO_CR0_PTR, bState);
 1437              		.loc 1 1350 0
 1438 000a 044A     		ldr	r2, .L77
 1439 000c FB79     		ldrb	r3, [r7, #7]
ARM GAS  C:\Users\MARTHN~1\AppData\Local\Temp\ccp8lHLI.s 			page 50


 1440 000e 1370     		strb	r3, [r2]
1351:Generated_Source\PSoC5/USBUART.c **** }
 1441              		.loc 1 1351 0
 1442 0010 00BF     		nop
 1443 0012 0C37     		adds	r7, r7, #12
 1444              		.cfi_def_cfa_offset 4
 1445 0014 BD46     		mov	sp, r7
 1446              		.cfi_def_cfa_register 13
 1447              		@ sp needed
 1448 0016 80BC     		pop	{r7}
 1449              		.cfi_restore 7
 1450              		.cfi_def_cfa_offset 0
 1451 0018 7047     		bx	lr
 1452              	.L78:
 1453 001a 00BF     		.align	2
 1454              	.L77:
 1455 001c 10600040 		.word	1073766416
 1456              		.cfi_endproc
 1457              	.LFE15:
 1458              		.size	USBUART_Force, .-USBUART_Force
 1459              		.section	.text.USBUART_GetEPAckState,"ax",%progbits
 1460              		.align	2
 1461              		.global	USBUART_GetEPAckState
 1462              		.thumb
 1463              		.thumb_func
 1464              		.type	USBUART_GetEPAckState, %function
 1465              	USBUART_GetEPAckState:
 1466              	.LFB16:
1352:Generated_Source\PSoC5/USBUART.c **** 
1353:Generated_Source\PSoC5/USBUART.c **** 
1354:Generated_Source\PSoC5/USBUART.c **** /*******************************************************************************
1355:Generated_Source\PSoC5/USBUART.c **** * Function Name: USBUART_GetEPAckState
1356:Generated_Source\PSoC5/USBUART.c **** ********************************************************************************
1357:Generated_Source\PSoC5/USBUART.c **** *
1358:Generated_Source\PSoC5/USBUART.c **** * Summary:
1359:Generated_Source\PSoC5/USBUART.c **** *  Returns the ACK of the CR0 Register (ACKD)
1360:Generated_Source\PSoC5/USBUART.c **** *
1361:Generated_Source\PSoC5/USBUART.c **** * Parameters:
1362:Generated_Source\PSoC5/USBUART.c **** *  epNumber: Endpoint Number
1363:Generated_Source\PSoC5/USBUART.c **** *            Valid values are between 1 and 8.
1364:Generated_Source\PSoC5/USBUART.c **** *
1365:Generated_Source\PSoC5/USBUART.c **** * Returns
1366:Generated_Source\PSoC5/USBUART.c **** *  0 if nothing has been ACKD, non-=zero something has been ACKD
1367:Generated_Source\PSoC5/USBUART.c **** *
1368:Generated_Source\PSoC5/USBUART.c **** *******************************************************************************/
1369:Generated_Source\PSoC5/USBUART.c **** uint8 USBUART_GetEPAckState(uint8 epNumber) 
1370:Generated_Source\PSoC5/USBUART.c **** {
 1467              		.loc 1 1370 0
 1468              		.cfi_startproc
 1469              		@ args = 0, pretend = 0, frame = 16
 1470              		@ frame_needed = 1, uses_anonymous_args = 0
 1471              		@ link register save eliminated.
 1472 0000 80B4     		push	{r7}
 1473              		.cfi_def_cfa_offset 4
 1474              		.cfi_offset 7, -4
 1475 0002 85B0     		sub	sp, sp, #20
 1476              		.cfi_def_cfa_offset 24
ARM GAS  C:\Users\MARTHN~1\AppData\Local\Temp\ccp8lHLI.s 			page 51


 1477 0004 00AF     		add	r7, sp, #0
 1478              		.cfi_def_cfa_register 7
 1479 0006 0346     		mov	r3, r0
 1480 0008 FB71     		strb	r3, [r7, #7]
1371:Generated_Source\PSoC5/USBUART.c ****     uint8 ri;
1372:Generated_Source\PSoC5/USBUART.c ****     uint8 cr = 0u;
 1481              		.loc 1 1372 0
 1482 000a 0023     		movs	r3, #0
 1483 000c FB73     		strb	r3, [r7, #15]
1373:Generated_Source\PSoC5/USBUART.c **** 
1374:Generated_Source\PSoC5/USBUART.c ****     if((epNumber > USBUART_EP0) && (epNumber < USBUART_MAX_EP))
 1484              		.loc 1 1374 0
 1485 000e FB79     		ldrb	r3, [r7, #7]	@ zero_extendqisi2
 1486 0010 002B     		cmp	r3, #0
 1487 0012 0FD0     		beq	.L80
 1488              		.loc 1 1374 0 is_stmt 0 discriminator 1
 1489 0014 FB79     		ldrb	r3, [r7, #7]	@ zero_extendqisi2
 1490 0016 082B     		cmp	r3, #8
 1491 0018 0CD8     		bhi	.L80
1375:Generated_Source\PSoC5/USBUART.c ****     {
1376:Generated_Source\PSoC5/USBUART.c ****         ri = ((epNumber - USBUART_EP1) << USBUART_EPX_CNTX_ADDR_SHIFT);
 1492              		.loc 1 1376 0 is_stmt 1
 1493 001a FB79     		ldrb	r3, [r7, #7]
 1494 001c 013B     		subs	r3, r3, #1
 1495 001e DBB2     		uxtb	r3, r3
 1496 0020 1B01     		lsls	r3, r3, #4
 1497 0022 BB73     		strb	r3, [r7, #14]
1377:Generated_Source\PSoC5/USBUART.c ****         cr = CY_GET_REG8((reg8 *)(USBUART_SIE_EP1_CR0_IND + ri)) & USBUART_MODE_ACKD;
 1498              		.loc 1 1377 0
 1499 0024 BA7B     		ldrb	r2, [r7, #14]	@ zero_extendqisi2
 1500 0026 064B     		ldr	r3, .L82
 1501 0028 1344     		add	r3, r3, r2
 1502 002a 1B78     		ldrb	r3, [r3]
 1503 002c DBB2     		uxtb	r3, r3
 1504 002e 03F01003 		and	r3, r3, #16
 1505 0032 FB73     		strb	r3, [r7, #15]
 1506              	.L80:
1378:Generated_Source\PSoC5/USBUART.c ****     }
1379:Generated_Source\PSoC5/USBUART.c **** 
1380:Generated_Source\PSoC5/USBUART.c ****     return(cr);
 1507              		.loc 1 1380 0
 1508 0034 FB7B     		ldrb	r3, [r7, #15]	@ zero_extendqisi2
1381:Generated_Source\PSoC5/USBUART.c **** }
 1509              		.loc 1 1381 0
 1510 0036 1846     		mov	r0, r3
 1511 0038 1437     		adds	r7, r7, #20
 1512              		.cfi_def_cfa_offset 4
 1513 003a BD46     		mov	sp, r7
 1514              		.cfi_def_cfa_register 13
 1515              		@ sp needed
 1516 003c 80BC     		pop	{r7}
 1517              		.cfi_restore 7
 1518              		.cfi_def_cfa_offset 0
 1519 003e 7047     		bx	lr
 1520              	.L83:
 1521              		.align	2
 1522              	.L82:
ARM GAS  C:\Users\MARTHN~1\AppData\Local\Temp\ccp8lHLI.s 			page 52


 1523 0040 0E600040 		.word	1073766414
 1524              		.cfi_endproc
 1525              	.LFE16:
 1526              		.size	USBUART_GetEPAckState, .-USBUART_GetEPAckState
 1527              		.section	.text.USBUART_SetPowerStatus,"ax",%progbits
 1528              		.align	2
 1529              		.global	USBUART_SetPowerStatus
 1530              		.thumb
 1531              		.thumb_func
 1532              		.type	USBUART_SetPowerStatus, %function
 1533              	USBUART_SetPowerStatus:
 1534              	.LFB17:
1382:Generated_Source\PSoC5/USBUART.c **** 
1383:Generated_Source\PSoC5/USBUART.c **** 
1384:Generated_Source\PSoC5/USBUART.c **** /*******************************************************************************
1385:Generated_Source\PSoC5/USBUART.c **** * Function Name: USBUART_SetPowerStatus
1386:Generated_Source\PSoC5/USBUART.c **** ********************************************************************************
1387:Generated_Source\PSoC5/USBUART.c **** *
1388:Generated_Source\PSoC5/USBUART.c **** * Summary:
1389:Generated_Source\PSoC5/USBUART.c **** *  Sets the device power status for reporting in the Get Device Status
1390:Generated_Source\PSoC5/USBUART.c **** *  request
1391:Generated_Source\PSoC5/USBUART.c **** *
1392:Generated_Source\PSoC5/USBUART.c **** * Parameters:
1393:Generated_Source\PSoC5/USBUART.c **** *  powerStatus: USBUART_DEVICE_STATUS_BUS_POWERED(0) - Bus Powered,
1394:Generated_Source\PSoC5/USBUART.c **** *               USBUART_DEVICE_STATUS_SELF_POWERED(1) - Self Powered
1395:Generated_Source\PSoC5/USBUART.c **** *
1396:Generated_Source\PSoC5/USBUART.c **** * Return:
1397:Generated_Source\PSoC5/USBUART.c **** *   None.
1398:Generated_Source\PSoC5/USBUART.c **** *
1399:Generated_Source\PSoC5/USBUART.c **** * Global variables:
1400:Generated_Source\PSoC5/USBUART.c **** *  USBUART_deviceStatus - set power status
1401:Generated_Source\PSoC5/USBUART.c **** *
1402:Generated_Source\PSoC5/USBUART.c **** * Reentrant:
1403:Generated_Source\PSoC5/USBUART.c **** *  No.
1404:Generated_Source\PSoC5/USBUART.c **** *
1405:Generated_Source\PSoC5/USBUART.c **** *******************************************************************************/
1406:Generated_Source\PSoC5/USBUART.c **** void USBUART_SetPowerStatus(uint8 powerStatus) 
1407:Generated_Source\PSoC5/USBUART.c **** {
 1535              		.loc 1 1407 0
 1536              		.cfi_startproc
 1537              		@ args = 0, pretend = 0, frame = 8
 1538              		@ frame_needed = 1, uses_anonymous_args = 0
 1539              		@ link register save eliminated.
 1540 0000 80B4     		push	{r7}
 1541              		.cfi_def_cfa_offset 4
 1542              		.cfi_offset 7, -4
 1543 0002 83B0     		sub	sp, sp, #12
 1544              		.cfi_def_cfa_offset 16
 1545 0004 00AF     		add	r7, sp, #0
 1546              		.cfi_def_cfa_register 7
 1547 0006 0346     		mov	r3, r0
 1548 0008 FB71     		strb	r3, [r7, #7]
1408:Generated_Source\PSoC5/USBUART.c ****     if (powerStatus != USBUART_DEVICE_STATUS_BUS_POWERED)
 1549              		.loc 1 1408 0
 1550 000a FB79     		ldrb	r3, [r7, #7]	@ zero_extendqisi2
 1551 000c 002B     		cmp	r3, #0
 1552 000e 08D0     		beq	.L85
ARM GAS  C:\Users\MARTHN~1\AppData\Local\Temp\ccp8lHLI.s 			page 53


1409:Generated_Source\PSoC5/USBUART.c ****     {
1410:Generated_Source\PSoC5/USBUART.c ****         USBUART_deviceStatus |=  USBUART_DEVICE_STATUS_SELF_POWERED;
 1553              		.loc 1 1410 0
 1554 0010 0A4B     		ldr	r3, .L88
 1555 0012 1B78     		ldrb	r3, [r3]
 1556 0014 DBB2     		uxtb	r3, r3
 1557 0016 43F00103 		orr	r3, r3, #1
 1558 001a DAB2     		uxtb	r2, r3
 1559 001c 074B     		ldr	r3, .L88
 1560 001e 1A70     		strb	r2, [r3]
1411:Generated_Source\PSoC5/USBUART.c ****     }
1412:Generated_Source\PSoC5/USBUART.c ****     else
1413:Generated_Source\PSoC5/USBUART.c ****     {
1414:Generated_Source\PSoC5/USBUART.c ****         USBUART_deviceStatus &=  ((uint8)(~USBUART_DEVICE_STATUS_SELF_POWERED));
1415:Generated_Source\PSoC5/USBUART.c ****     }
1416:Generated_Source\PSoC5/USBUART.c **** }
 1561              		.loc 1 1416 0
 1562 0020 07E0     		b	.L87
 1563              	.L85:
1414:Generated_Source\PSoC5/USBUART.c ****     }
 1564              		.loc 1 1414 0
 1565 0022 064B     		ldr	r3, .L88
 1566 0024 1B78     		ldrb	r3, [r3]
 1567 0026 DBB2     		uxtb	r3, r3
 1568 0028 23F00103 		bic	r3, r3, #1
 1569 002c DAB2     		uxtb	r2, r3
 1570 002e 034B     		ldr	r3, .L88
 1571 0030 1A70     		strb	r2, [r3]
 1572              	.L87:
 1573              		.loc 1 1416 0
 1574 0032 00BF     		nop
 1575 0034 0C37     		adds	r7, r7, #12
 1576              		.cfi_def_cfa_offset 4
 1577 0036 BD46     		mov	sp, r7
 1578              		.cfi_def_cfa_register 13
 1579              		@ sp needed
 1580 0038 80BC     		pop	{r7}
 1581              		.cfi_restore 7
 1582              		.cfi_def_cfa_offset 0
 1583 003a 7047     		bx	lr
 1584              	.L89:
 1585              		.align	2
 1586              	.L88:
 1587 003c 00000000 		.word	USBUART_deviceStatus
 1588              		.cfi_endproc
 1589              	.LFE17:
 1590              		.size	USBUART_SetPowerStatus, .-USBUART_SetPowerStatus
 1591              		.section	.text.USBUART_VBusPresent,"ax",%progbits
 1592              		.align	2
 1593              		.global	USBUART_VBusPresent
 1594              		.thumb
 1595              		.thumb_func
 1596              		.type	USBUART_VBusPresent, %function
 1597              	USBUART_VBusPresent:
 1598              	.LFB18:
1417:Generated_Source\PSoC5/USBUART.c **** 
1418:Generated_Source\PSoC5/USBUART.c **** 
ARM GAS  C:\Users\MARTHN~1\AppData\Local\Temp\ccp8lHLI.s 			page 54


1419:Generated_Source\PSoC5/USBUART.c **** #if (USBUART_MON_VBUS == 1u)
1420:Generated_Source\PSoC5/USBUART.c **** 
1421:Generated_Source\PSoC5/USBUART.c ****     /*******************************************************************************
1422:Generated_Source\PSoC5/USBUART.c ****     * Function Name: USBUART_VBusPresent
1423:Generated_Source\PSoC5/USBUART.c ****     ********************************************************************************
1424:Generated_Source\PSoC5/USBUART.c ****     *
1425:Generated_Source\PSoC5/USBUART.c ****     * Summary:
1426:Generated_Source\PSoC5/USBUART.c ****     *  Determines VBUS presence for Self Powered Devices.
1427:Generated_Source\PSoC5/USBUART.c ****     *
1428:Generated_Source\PSoC5/USBUART.c ****     * Parameters:
1429:Generated_Source\PSoC5/USBUART.c ****     *  None.
1430:Generated_Source\PSoC5/USBUART.c ****     *
1431:Generated_Source\PSoC5/USBUART.c ****     * Return:
1432:Generated_Source\PSoC5/USBUART.c ****     *  1 if VBUS is present, otherwise 0.
1433:Generated_Source\PSoC5/USBUART.c ****     *
1434:Generated_Source\PSoC5/USBUART.c ****     *******************************************************************************/
1435:Generated_Source\PSoC5/USBUART.c ****     uint8 USBUART_VBusPresent(void) 
1436:Generated_Source\PSoC5/USBUART.c ****     {
 1599              		.loc 1 1436 0
 1600              		.cfi_startproc
 1601              		@ args = 0, pretend = 0, frame = 0
 1602              		@ frame_needed = 1, uses_anonymous_args = 0
 1603              		@ link register save eliminated.
 1604 0000 80B4     		push	{r7}
 1605              		.cfi_def_cfa_offset 4
 1606              		.cfi_offset 7, -4
 1607 0002 00AF     		add	r7, sp, #0
 1608              		.cfi_def_cfa_register 7
1437:Generated_Source\PSoC5/USBUART.c ****         return((0u != (CY_GET_REG8(USBUART_VBUS_PS_PTR) & USBUART_VBUS_MASK)) ? 1u : 0u);
 1609              		.loc 1 1437 0
 1610 0004 064B     		ldr	r3, .L94
 1611 0006 1B78     		ldrb	r3, [r3]
 1612 0008 DBB2     		uxtb	r3, r3
 1613 000a 5BB2     		sxtb	r3, r3
 1614 000c 002B     		cmp	r3, #0
 1615 000e 01DA     		bge	.L91
 1616              		.loc 1 1437 0 is_stmt 0 discriminator 1
 1617 0010 0123     		movs	r3, #1
 1618 0012 00E0     		b	.L92
 1619              	.L91:
 1620              		.loc 1 1437 0 discriminator 2
 1621 0014 0023     		movs	r3, #0
 1622              	.L92:
1438:Generated_Source\PSoC5/USBUART.c ****     }
 1623              		.loc 1 1438 0 is_stmt 1 discriminator 4
 1624 0016 1846     		mov	r0, r3
 1625 0018 BD46     		mov	sp, r7
 1626              		.cfi_def_cfa_register 13
 1627              		@ sp needed
 1628 001a 80BC     		pop	{r7}
 1629              		.cfi_restore 7
 1630              		.cfi_def_cfa_offset 0
 1631 001c 7047     		bx	lr
 1632              	.L95:
 1633 001e 00BF     		.align	2
 1634              	.L94:
 1635 0020 51510040 		.word	1073762641
ARM GAS  C:\Users\MARTHN~1\AppData\Local\Temp\ccp8lHLI.s 			page 55


 1636              		.cfi_endproc
 1637              	.LFE18:
 1638              		.size	USBUART_VBusPresent, .-USBUART_VBusPresent
 1639              		.section	.text.USBUART_RWUEnabled,"ax",%progbits
 1640              		.align	2
 1641              		.global	USBUART_RWUEnabled
 1642              		.thumb
 1643              		.thumb_func
 1644              		.type	USBUART_RWUEnabled, %function
 1645              	USBUART_RWUEnabled:
 1646              	.LFB19:
1439:Generated_Source\PSoC5/USBUART.c **** 
1440:Generated_Source\PSoC5/USBUART.c **** #endif /* USBUART_MON_VBUS */
1441:Generated_Source\PSoC5/USBUART.c **** 
1442:Generated_Source\PSoC5/USBUART.c **** 
1443:Generated_Source\PSoC5/USBUART.c **** /*******************************************************************************
1444:Generated_Source\PSoC5/USBUART.c **** * Function Name: USBUART_RWUEnabled
1445:Generated_Source\PSoC5/USBUART.c **** ********************************************************************************
1446:Generated_Source\PSoC5/USBUART.c **** *
1447:Generated_Source\PSoC5/USBUART.c **** * Summary:
1448:Generated_Source\PSoC5/USBUART.c **** *  Returns TRUE if Remote Wake Up is enabled, otherwise FALSE
1449:Generated_Source\PSoC5/USBUART.c **** *
1450:Generated_Source\PSoC5/USBUART.c **** * Parameters:
1451:Generated_Source\PSoC5/USBUART.c **** *   None.
1452:Generated_Source\PSoC5/USBUART.c **** *
1453:Generated_Source\PSoC5/USBUART.c **** * Return:
1454:Generated_Source\PSoC5/USBUART.c **** *  TRUE -  Remote Wake Up Enabled
1455:Generated_Source\PSoC5/USBUART.c **** *  FALSE - Remote Wake Up Disabled
1456:Generated_Source\PSoC5/USBUART.c **** *
1457:Generated_Source\PSoC5/USBUART.c **** * Global variables:
1458:Generated_Source\PSoC5/USBUART.c **** *  USBUART_deviceStatus - checked to determine remote status
1459:Generated_Source\PSoC5/USBUART.c **** *
1460:Generated_Source\PSoC5/USBUART.c **** *******************************************************************************/
1461:Generated_Source\PSoC5/USBUART.c **** uint8 USBUART_RWUEnabled(void) 
1462:Generated_Source\PSoC5/USBUART.c **** {
 1647              		.loc 1 1462 0
 1648              		.cfi_startproc
 1649              		@ args = 0, pretend = 0, frame = 8
 1650              		@ frame_needed = 1, uses_anonymous_args = 0
 1651              		@ link register save eliminated.
 1652 0000 80B4     		push	{r7}
 1653              		.cfi_def_cfa_offset 4
 1654              		.cfi_offset 7, -4
 1655 0002 83B0     		sub	sp, sp, #12
 1656              		.cfi_def_cfa_offset 16
 1657 0004 00AF     		add	r7, sp, #0
 1658              		.cfi_def_cfa_register 7
1463:Generated_Source\PSoC5/USBUART.c ****     uint8 result = USBUART_FALSE;
 1659              		.loc 1 1463 0
 1660 0006 0023     		movs	r3, #0
 1661 0008 FB71     		strb	r3, [r7, #7]
1464:Generated_Source\PSoC5/USBUART.c ****     if((USBUART_deviceStatus & USBUART_DEVICE_STATUS_REMOTE_WAKEUP) != 0u)
 1662              		.loc 1 1464 0
 1663 000a 074B     		ldr	r3, .L99
 1664 000c 1B78     		ldrb	r3, [r3]
 1665 000e DBB2     		uxtb	r3, r3
 1666 0010 03F00203 		and	r3, r3, #2
ARM GAS  C:\Users\MARTHN~1\AppData\Local\Temp\ccp8lHLI.s 			page 56


 1667 0014 002B     		cmp	r3, #0
 1668 0016 01D0     		beq	.L97
1465:Generated_Source\PSoC5/USBUART.c ****     {
1466:Generated_Source\PSoC5/USBUART.c ****         result = USBUART_TRUE;
 1669              		.loc 1 1466 0
 1670 0018 0123     		movs	r3, #1
 1671 001a FB71     		strb	r3, [r7, #7]
 1672              	.L97:
1467:Generated_Source\PSoC5/USBUART.c ****     }
1468:Generated_Source\PSoC5/USBUART.c **** 
1469:Generated_Source\PSoC5/USBUART.c ****     return(result);
 1673              		.loc 1 1469 0
 1674 001c FB79     		ldrb	r3, [r7, #7]	@ zero_extendqisi2
1470:Generated_Source\PSoC5/USBUART.c **** }
 1675              		.loc 1 1470 0
 1676 001e 1846     		mov	r0, r3
 1677 0020 0C37     		adds	r7, r7, #12
 1678              		.cfi_def_cfa_offset 4
 1679 0022 BD46     		mov	sp, r7
 1680              		.cfi_def_cfa_register 13
 1681              		@ sp needed
 1682 0024 80BC     		pop	{r7}
 1683              		.cfi_restore 7
 1684              		.cfi_def_cfa_offset 0
 1685 0026 7047     		bx	lr
 1686              	.L100:
 1687              		.align	2
 1688              	.L99:
 1689 0028 00000000 		.word	USBUART_deviceStatus
 1690              		.cfi_endproc
 1691              	.LFE19:
 1692              		.size	USBUART_RWUEnabled, .-USBUART_RWUEnabled
 1693              		.text
 1694              	.Letext0:
 1695              		.file 2 "Generated_Source\\PSoC5/cytypes.h"
 1696              		.file 3 "Generated_Source\\PSoC5\\USBUART.h"
 1697              		.file 4 "Generated_Source\\PSoC5\\USBUART_pvt.h"