ARM GAS  C:\Users\MARTHN~1\AppData\Local\Temp\ccEtjiw9.s 			page 1


   1              		.syntax unified
   2              		.cpu cortex-m3
   3              		.fpu softvfp
   4              		.eabi_attribute 20, 1
   5              		.eabi_attribute 21, 1
   6              		.eabi_attribute 23, 3
   7              		.eabi_attribute 24, 1
   8              		.eabi_attribute 25, 1
   9              		.eabi_attribute 26, 1
  10              		.eabi_attribute 30, 6
  11              		.eabi_attribute 34, 1
  12              		.eabi_attribute 18, 4
  13              		.thumb
  14              		.syntax unified
  15              		.file	"USBUART_episr.c"
  16              		.text
  17              	.Ltext0:
  18              		.cfi_sections	.debug_frame
  19              		.section	.text.USBUART_EP_1_ISR,"ax",%progbits
  20              		.align	2
  21              		.global	USBUART_EP_1_ISR
  22              		.thumb
  23              		.thumb_func
  24              		.type	USBUART_EP_1_ISR, %function
  25              	USBUART_EP_1_ISR:
  26              	.LFB0:
  27              		.file 1 "Generated_Source\\PSoC5\\USBUART_episr.c"
   1:Generated_Source\PSoC5/USBUART_episr.c **** /*******************************************************************************
   2:Generated_Source\PSoC5/USBUART_episr.c **** * File Name: USBUART_episr.c
   3:Generated_Source\PSoC5/USBUART_episr.c **** * Version 2.80
   4:Generated_Source\PSoC5/USBUART_episr.c **** *
   5:Generated_Source\PSoC5/USBUART_episr.c **** * Description:
   6:Generated_Source\PSoC5/USBUART_episr.c **** *  Data endpoint Interrupt Service Routines
   7:Generated_Source\PSoC5/USBUART_episr.c **** *
   8:Generated_Source\PSoC5/USBUART_episr.c **** * Note:
   9:Generated_Source\PSoC5/USBUART_episr.c **** *
  10:Generated_Source\PSoC5/USBUART_episr.c **** ********************************************************************************
  11:Generated_Source\PSoC5/USBUART_episr.c **** * Copyright 2008-2014, Cypress Semiconductor Corporation.  All rights reserved.
  12:Generated_Source\PSoC5/USBUART_episr.c **** * You may use this file only in accordance with the license, terms, conditions,
  13:Generated_Source\PSoC5/USBUART_episr.c **** * disclaimers, and limitations in the end user license agreement accompanying
  14:Generated_Source\PSoC5/USBUART_episr.c **** * the software package with which this file was provided.
  15:Generated_Source\PSoC5/USBUART_episr.c **** *******************************************************************************/
  16:Generated_Source\PSoC5/USBUART_episr.c **** 
  17:Generated_Source\PSoC5/USBUART_episr.c **** #include "USBUART.h"
  18:Generated_Source\PSoC5/USBUART_episr.c **** #include "USBUART_pvt.h"
  19:Generated_Source\PSoC5/USBUART_episr.c **** #include "cyapicallbacks.h"
  20:Generated_Source\PSoC5/USBUART_episr.c **** #if (defined(USBUART_ENABLE_MIDI_STREAMING) && (USBUART_ENABLE_MIDI_API != 0u))
  21:Generated_Source\PSoC5/USBUART_episr.c ****     #include "USBUART_midi.h"
  22:Generated_Source\PSoC5/USBUART_episr.c **** #endif /* (defined(USBUART_ENABLE_MIDI_STREAMING) && (USBUART_ENABLE_MIDI_API != 0u)) */
  23:Generated_Source\PSoC5/USBUART_episr.c **** #if ((USBUART_EP_MM == USBUART__EP_DMAAUTO) && (USBUART_EP_DMA_AUTO_OPT == 0u))
  24:Generated_Source\PSoC5/USBUART_episr.c ****     #include "USBUART_EP8_DMA_Done_SR.h"
  25:Generated_Source\PSoC5/USBUART_episr.c ****     #include "USBUART_EP17_DMA_Done_SR.h"
  26:Generated_Source\PSoC5/USBUART_episr.c **** #endif /* (USBUART_EP_MM == USBUART__EP_DMAAUTO) && (USBUART_EP_DMA_AUTO_OPT == 0u) */
  27:Generated_Source\PSoC5/USBUART_episr.c **** 
  28:Generated_Source\PSoC5/USBUART_episr.c **** 
  29:Generated_Source\PSoC5/USBUART_episr.c **** /***************************************
  30:Generated_Source\PSoC5/USBUART_episr.c **** * Custom Declarations
ARM GAS  C:\Users\MARTHN~1\AppData\Local\Temp\ccEtjiw9.s 			page 2


  31:Generated_Source\PSoC5/USBUART_episr.c **** ***************************************/
  32:Generated_Source\PSoC5/USBUART_episr.c **** /* `#START CUSTOM_DECLARATIONS` Place your declaration here */
  33:Generated_Source\PSoC5/USBUART_episr.c **** 
  34:Generated_Source\PSoC5/USBUART_episr.c **** /* `#END` */
  35:Generated_Source\PSoC5/USBUART_episr.c **** 
  36:Generated_Source\PSoC5/USBUART_episr.c **** 
  37:Generated_Source\PSoC5/USBUART_episr.c **** #if(USBUART_EP1_ISR_REMOVE == 0u)
  38:Generated_Source\PSoC5/USBUART_episr.c **** 
  39:Generated_Source\PSoC5/USBUART_episr.c **** 
  40:Generated_Source\PSoC5/USBUART_episr.c ****     /******************************************************************************
  41:Generated_Source\PSoC5/USBUART_episr.c ****     * Function Name: USBUART_EP_1_ISR
  42:Generated_Source\PSoC5/USBUART_episr.c ****     *******************************************************************************
  43:Generated_Source\PSoC5/USBUART_episr.c ****     *
  44:Generated_Source\PSoC5/USBUART_episr.c ****     * Summary:
  45:Generated_Source\PSoC5/USBUART_episr.c ****     *  Endpoint 1 Interrupt Service Routine
  46:Generated_Source\PSoC5/USBUART_episr.c ****     *
  47:Generated_Source\PSoC5/USBUART_episr.c ****     * Parameters:
  48:Generated_Source\PSoC5/USBUART_episr.c ****     *  None.
  49:Generated_Source\PSoC5/USBUART_episr.c ****     *
  50:Generated_Source\PSoC5/USBUART_episr.c ****     * Return:
  51:Generated_Source\PSoC5/USBUART_episr.c ****     *  None.
  52:Generated_Source\PSoC5/USBUART_episr.c ****     *
  53:Generated_Source\PSoC5/USBUART_episr.c ****     ******************************************************************************/
  54:Generated_Source\PSoC5/USBUART_episr.c ****     CY_ISR(USBUART_EP_1_ISR)
  55:Generated_Source\PSoC5/USBUART_episr.c ****     {
  28              		.loc 1 55 0
  29              		.cfi_startproc
  30              		@ args = 0, pretend = 0, frame = 0
  31              		@ frame_needed = 1, uses_anonymous_args = 0
  32              		@ link register save eliminated.
  33 0000 80B4     		push	{r7}
  34              		.cfi_def_cfa_offset 4
  35              		.cfi_offset 7, -4
  36 0002 00AF     		add	r7, sp, #0
  37              		.cfi_def_cfa_register 7
  56:Generated_Source\PSoC5/USBUART_episr.c ****         #if (defined(USBUART_ENABLE_MIDI_STREAMING) && !defined(USBUART_MAIN_SERVICE_MIDI_OUT)  && 
  57:Generated_Source\PSoC5/USBUART_episr.c ****                      USBUART_ISR_SERVICE_MIDI_OUT && CY_PSOC3)
  58:Generated_Source\PSoC5/USBUART_episr.c ****             uint8 int_en;
  59:Generated_Source\PSoC5/USBUART_episr.c ****         #endif /* USBUART_ISR_SERVICE_MIDI_OUT && CY_PSOC3 */
  60:Generated_Source\PSoC5/USBUART_episr.c **** 
  61:Generated_Source\PSoC5/USBUART_episr.c ****         #ifdef USBUART_EP_1_ISR_ENTRY_CALLBACK
  62:Generated_Source\PSoC5/USBUART_episr.c ****             USBUART_EP_1_ISR_EntryCallback();
  63:Generated_Source\PSoC5/USBUART_episr.c ****         #endif /* USBUART_EP_1_ISR_ENTRY_CALLBACK */
  64:Generated_Source\PSoC5/USBUART_episr.c **** 
  65:Generated_Source\PSoC5/USBUART_episr.c ****         /* `#START EP1_USER_CODE` Place your code here */
  66:Generated_Source\PSoC5/USBUART_episr.c **** 
  67:Generated_Source\PSoC5/USBUART_episr.c ****         /* `#END` */
  68:Generated_Source\PSoC5/USBUART_episr.c **** 
  69:Generated_Source\PSoC5/USBUART_episr.c ****         #if (defined(USBUART_ENABLE_MIDI_STREAMING) && !defined(USBUART_MAIN_SERVICE_MIDI_OUT) && \
  70:Generated_Source\PSoC5/USBUART_episr.c ****                      USBUART_ISR_SERVICE_MIDI_OUT && CY_PSOC3)
  71:Generated_Source\PSoC5/USBUART_episr.c ****             int_en = EA;
  72:Generated_Source\PSoC5/USBUART_episr.c ****             CyGlobalIntEnable;  /* Make sure nested interrupt is enabled */
  73:Generated_Source\PSoC5/USBUART_episr.c ****         #endif /* USBUART_ISR_SERVICE_MIDI_OUT && CY_PSOC3 */
  74:Generated_Source\PSoC5/USBUART_episr.c **** 
  75:Generated_Source\PSoC5/USBUART_episr.c ****         CY_GET_REG8(USBUART_SIE_EP1_CR0_PTR); /* Must read the mode reg */
  38              		.loc 1 75 0
  39 0004 104B     		ldr	r3, .L3
ARM GAS  C:\Users\MARTHN~1\AppData\Local\Temp\ccEtjiw9.s 			page 3


  40 0006 1B78     		ldrb	r3, [r3]
  76:Generated_Source\PSoC5/USBUART_episr.c ****         /* Do not toggle ISOC endpoint */
  77:Generated_Source\PSoC5/USBUART_episr.c ****         if((USBUART_EP[USBUART_EP1].attrib & USBUART_EP_TYPE_MASK) !=
  41              		.loc 1 77 0
  42 0008 104B     		ldr	r3, .L3+4
  43 000a 1B7B     		ldrb	r3, [r3, #12]
  44 000c DBB2     		uxtb	r3, r3
  45 000e 03F00303 		and	r3, r3, #3
  46 0012 012B     		cmp	r3, #1
  47 0014 08D0     		beq	.L2
  78:Generated_Source\PSoC5/USBUART_episr.c ****                                                                                     USBUART_EP_TYPE
  79:Generated_Source\PSoC5/USBUART_episr.c ****         {
  80:Generated_Source\PSoC5/USBUART_episr.c ****             USBUART_EP[USBUART_EP1].epToggle ^= USBUART_EPX_CNT_DATA_TOGGLE;
  48              		.loc 1 80 0
  49 0016 0D4B     		ldr	r3, .L3+4
  50 0018 DB7B     		ldrb	r3, [r3, #15]
  51 001a DBB2     		uxtb	r3, r3
  52 001c 83F07F03 		eor	r3, r3, #127
  53 0020 DB43     		mvns	r3, r3
  54 0022 DAB2     		uxtb	r2, r3
  55 0024 094B     		ldr	r3, .L3+4
  56 0026 DA73     		strb	r2, [r3, #15]
  57              	.L2:
  81:Generated_Source\PSoC5/USBUART_episr.c ****         }
  82:Generated_Source\PSoC5/USBUART_episr.c ****         USBUART_EP[USBUART_EP1].apiEpState = USBUART_EVENT_PENDING;
  58              		.loc 1 82 0
  59 0028 084B     		ldr	r3, .L3+4
  60 002a 0122     		movs	r2, #1
  61 002c 5A73     		strb	r2, [r3, #13]
  83:Generated_Source\PSoC5/USBUART_episr.c ****         CY_SET_REG8(USBUART_SIE_EP_INT_SR_PTR, CY_GET_REG8(USBUART_SIE_EP_INT_SR_PTR) &
  62              		.loc 1 83 0
  63 002e 084A     		ldr	r2, .L3+8
  64 0030 074B     		ldr	r3, .L3+8
  65 0032 1B78     		ldrb	r3, [r3]
  66 0034 DBB2     		uxtb	r3, r3
  67 0036 23F00103 		bic	r3, r3, #1
  68 003a DBB2     		uxtb	r3, r3
  69 003c 1370     		strb	r3, [r2]
  84:Generated_Source\PSoC5/USBUART_episr.c ****                                                                     (uint8)~USBUART_SIE_EP_INT_EP1_
  85:Generated_Source\PSoC5/USBUART_episr.c **** 
  86:Generated_Source\PSoC5/USBUART_episr.c ****         #if (defined(USBUART_ENABLE_MIDI_STREAMING) && !defined(USBUART_MAIN_SERVICE_MIDI_OUT) && \
  87:Generated_Source\PSoC5/USBUART_episr.c ****                      USBUART_ISR_SERVICE_MIDI_OUT)
  88:Generated_Source\PSoC5/USBUART_episr.c ****             if(USBUART_midi_out_ep == USBUART_EP1)
  89:Generated_Source\PSoC5/USBUART_episr.c ****             {
  90:Generated_Source\PSoC5/USBUART_episr.c ****                 USBUART_MIDI_OUT_EP_Service();
  91:Generated_Source\PSoC5/USBUART_episr.c ****             }
  92:Generated_Source\PSoC5/USBUART_episr.c ****         #endif /*  USBUART_ISR_SERVICE_MIDI_OUT */
  93:Generated_Source\PSoC5/USBUART_episr.c **** 
  94:Generated_Source\PSoC5/USBUART_episr.c ****         /* `#START EP1_END_USER_CODE` Place your code here */
  95:Generated_Source\PSoC5/USBUART_episr.c **** 
  96:Generated_Source\PSoC5/USBUART_episr.c ****         /* `#END` */
  97:Generated_Source\PSoC5/USBUART_episr.c **** 
  98:Generated_Source\PSoC5/USBUART_episr.c ****         #ifdef USBUART_EP_1_ISR_EXIT_CALLBACK
  99:Generated_Source\PSoC5/USBUART_episr.c ****             USBUART_EP_1_ISR_ExitCallback();
 100:Generated_Source\PSoC5/USBUART_episr.c ****         #endif /* USBUART_EP_1_ISR_EXIT_CALLBACK */
 101:Generated_Source\PSoC5/USBUART_episr.c **** 
 102:Generated_Source\PSoC5/USBUART_episr.c ****         #if (defined(USBUART_ENABLE_MIDI_STREAMING) && !defined(USBUART_MAIN_SERVICE_MIDI_OUT) && \
ARM GAS  C:\Users\MARTHN~1\AppData\Local\Temp\ccEtjiw9.s 			page 4


 103:Generated_Source\PSoC5/USBUART_episr.c ****                      USBUART_ISR_SERVICE_MIDI_OUT && CY_PSOC3)
 104:Generated_Source\PSoC5/USBUART_episr.c ****             EA = int_en;
 105:Generated_Source\PSoC5/USBUART_episr.c ****         #endif /* USBUART_ISR_SERVICE_MIDI_OUT && CY_PSOC3 */
 106:Generated_Source\PSoC5/USBUART_episr.c ****     }
  70              		.loc 1 106 0
  71 003e 00BF     		nop
  72 0040 BD46     		mov	sp, r7
  73              		.cfi_def_cfa_register 13
  74              		@ sp needed
  75 0042 80BC     		pop	{r7}
  76              		.cfi_restore 7
  77              		.cfi_def_cfa_offset 0
  78 0044 7047     		bx	lr
  79              	.L4:
  80 0046 00BF     		.align	2
  81              	.L3:
  82 0048 0E600040 		.word	1073766414
  83 004c 00000000 		.word	USBUART_EP
  84 0050 0B600040 		.word	1073766411
  85              		.cfi_endproc
  86              	.LFE0:
  87              		.size	USBUART_EP_1_ISR, .-USBUART_EP_1_ISR
  88              		.section	.text.USBUART_EP_2_ISR,"ax",%progbits
  89              		.align	2
  90              		.global	USBUART_EP_2_ISR
  91              		.thumb
  92              		.thumb_func
  93              		.type	USBUART_EP_2_ISR, %function
  94              	USBUART_EP_2_ISR:
  95              	.LFB1:
 107:Generated_Source\PSoC5/USBUART_episr.c **** 
 108:Generated_Source\PSoC5/USBUART_episr.c **** #endif   /*  USBUART_EP1_ISR_REMOVE */
 109:Generated_Source\PSoC5/USBUART_episr.c **** 
 110:Generated_Source\PSoC5/USBUART_episr.c **** 
 111:Generated_Source\PSoC5/USBUART_episr.c **** #if(USBUART_EP2_ISR_REMOVE == 0u)
 112:Generated_Source\PSoC5/USBUART_episr.c **** 
 113:Generated_Source\PSoC5/USBUART_episr.c ****     /*******************************************************************************
 114:Generated_Source\PSoC5/USBUART_episr.c ****     * Function Name: USBUART_EP_2_ISR
 115:Generated_Source\PSoC5/USBUART_episr.c ****     ********************************************************************************
 116:Generated_Source\PSoC5/USBUART_episr.c ****     *
 117:Generated_Source\PSoC5/USBUART_episr.c ****     * Summary:
 118:Generated_Source\PSoC5/USBUART_episr.c ****     *  Endpoint 2 Interrupt Service Routine
 119:Generated_Source\PSoC5/USBUART_episr.c ****     *
 120:Generated_Source\PSoC5/USBUART_episr.c ****     * Parameters:
 121:Generated_Source\PSoC5/USBUART_episr.c ****     *  None.
 122:Generated_Source\PSoC5/USBUART_episr.c ****     *
 123:Generated_Source\PSoC5/USBUART_episr.c ****     * Return:
 124:Generated_Source\PSoC5/USBUART_episr.c ****     *  None.
 125:Generated_Source\PSoC5/USBUART_episr.c ****     *
 126:Generated_Source\PSoC5/USBUART_episr.c ****     *******************************************************************************/
 127:Generated_Source\PSoC5/USBUART_episr.c ****     CY_ISR(USBUART_EP_2_ISR)
 128:Generated_Source\PSoC5/USBUART_episr.c ****     {
  96              		.loc 1 128 0
  97              		.cfi_startproc
  98              		@ args = 0, pretend = 0, frame = 0
  99              		@ frame_needed = 1, uses_anonymous_args = 0
 100              		@ link register save eliminated.
ARM GAS  C:\Users\MARTHN~1\AppData\Local\Temp\ccEtjiw9.s 			page 5


 101 0000 80B4     		push	{r7}
 102              		.cfi_def_cfa_offset 4
 103              		.cfi_offset 7, -4
 104 0002 00AF     		add	r7, sp, #0
 105              		.cfi_def_cfa_register 7
 129:Generated_Source\PSoC5/USBUART_episr.c ****         #if (defined(USBUART_ENABLE_MIDI_STREAMING) && !defined(USBUART_MAIN_SERVICE_MIDI_OUT) && \
 130:Generated_Source\PSoC5/USBUART_episr.c ****                      USBUART_ISR_SERVICE_MIDI_OUT && CY_PSOC3)
 131:Generated_Source\PSoC5/USBUART_episr.c ****             uint8 int_en;
 132:Generated_Source\PSoC5/USBUART_episr.c ****         #endif /* USBUART_ISR_SERVICE_MIDI_OUT && CY_PSOC3 */
 133:Generated_Source\PSoC5/USBUART_episr.c **** 
 134:Generated_Source\PSoC5/USBUART_episr.c ****         #ifdef USBUART_EP_2_ISR_ENTRY_CALLBACK
 135:Generated_Source\PSoC5/USBUART_episr.c ****             USBUART_EP_2_ISR_EntryCallback();
 136:Generated_Source\PSoC5/USBUART_episr.c ****         #endif /* USBUART_EP_2_ISR_ENTRY_CALLBACK */
 137:Generated_Source\PSoC5/USBUART_episr.c **** 
 138:Generated_Source\PSoC5/USBUART_episr.c ****         /* `#START EP2_USER_CODE` Place your code here */
 139:Generated_Source\PSoC5/USBUART_episr.c **** 
 140:Generated_Source\PSoC5/USBUART_episr.c ****         /* `#END` */
 141:Generated_Source\PSoC5/USBUART_episr.c **** 
 142:Generated_Source\PSoC5/USBUART_episr.c ****         #if (defined(USBUART_ENABLE_MIDI_STREAMING) && !defined(USBUART_MAIN_SERVICE_MIDI_OUT) && \
 143:Generated_Source\PSoC5/USBUART_episr.c ****                      USBUART_ISR_SERVICE_MIDI_OUT && CY_PSOC3)
 144:Generated_Source\PSoC5/USBUART_episr.c ****             int_en = EA;
 145:Generated_Source\PSoC5/USBUART_episr.c ****             CyGlobalIntEnable;  /* Make sure nested interrupt is enabled */
 146:Generated_Source\PSoC5/USBUART_episr.c ****         #endif /* USBUART_ISR_SERVICE_MIDI_OUT && CY_PSOC3 */
 147:Generated_Source\PSoC5/USBUART_episr.c **** 
 148:Generated_Source\PSoC5/USBUART_episr.c ****         CY_GET_REG8(USBUART_SIE_EP2_CR0_PTR); /* Must read the mode reg */
 106              		.loc 1 148 0
 107 0004 104B     		ldr	r3, .L7
 108 0006 1B78     		ldrb	r3, [r3]
 149:Generated_Source\PSoC5/USBUART_episr.c ****         /* Do not toggle ISOC endpoint */
 150:Generated_Source\PSoC5/USBUART_episr.c ****         if((USBUART_EP[USBUART_EP2].attrib & USBUART_EP_TYPE_MASK) !=
 109              		.loc 1 150 0
 110 0008 104B     		ldr	r3, .L7+4
 111 000a 1B7E     		ldrb	r3, [r3, #24]
 112 000c DBB2     		uxtb	r3, r3
 113 000e 03F00303 		and	r3, r3, #3
 114 0012 012B     		cmp	r3, #1
 115 0014 08D0     		beq	.L6
 151:Generated_Source\PSoC5/USBUART_episr.c ****                                                                                     USBUART_EP_TYPE
 152:Generated_Source\PSoC5/USBUART_episr.c ****         {
 153:Generated_Source\PSoC5/USBUART_episr.c ****             USBUART_EP[USBUART_EP2].epToggle ^= USBUART_EPX_CNT_DATA_TOGGLE;
 116              		.loc 1 153 0
 117 0016 0D4B     		ldr	r3, .L7+4
 118 0018 DB7E     		ldrb	r3, [r3, #27]
 119 001a DBB2     		uxtb	r3, r3
 120 001c 83F07F03 		eor	r3, r3, #127
 121 0020 DB43     		mvns	r3, r3
 122 0022 DAB2     		uxtb	r2, r3
 123 0024 094B     		ldr	r3, .L7+4
 124 0026 DA76     		strb	r2, [r3, #27]
 125              	.L6:
 154:Generated_Source\PSoC5/USBUART_episr.c ****         }
 155:Generated_Source\PSoC5/USBUART_episr.c ****         USBUART_EP[USBUART_EP2].apiEpState = USBUART_EVENT_PENDING;
 126              		.loc 1 155 0
 127 0028 084B     		ldr	r3, .L7+4
 128 002a 0122     		movs	r2, #1
 129 002c 5A76     		strb	r2, [r3, #25]
 156:Generated_Source\PSoC5/USBUART_episr.c ****         CY_SET_REG8(USBUART_SIE_EP_INT_SR_PTR, CY_GET_REG8(USBUART_SIE_EP_INT_SR_PTR)
ARM GAS  C:\Users\MARTHN~1\AppData\Local\Temp\ccEtjiw9.s 			page 6


 130              		.loc 1 156 0
 131 002e 084A     		ldr	r2, .L7+8
 132 0030 074B     		ldr	r3, .L7+8
 133 0032 1B78     		ldrb	r3, [r3]
 134 0034 DBB2     		uxtb	r3, r3
 135 0036 23F00203 		bic	r3, r3, #2
 136 003a DBB2     		uxtb	r3, r3
 137 003c 1370     		strb	r3, [r2]
 157:Generated_Source\PSoC5/USBUART_episr.c ****                                                                         & (uint8)~USBUART_SIE_EP_IN
 158:Generated_Source\PSoC5/USBUART_episr.c **** 
 159:Generated_Source\PSoC5/USBUART_episr.c ****         #if (defined(USBUART_ENABLE_MIDI_STREAMING) && !defined(USBUART_MAIN_SERVICE_MIDI_OUT) && \
 160:Generated_Source\PSoC5/USBUART_episr.c ****                      USBUART_ISR_SERVICE_MIDI_OUT)
 161:Generated_Source\PSoC5/USBUART_episr.c ****             if(USBUART_midi_out_ep == USBUART_EP2)
 162:Generated_Source\PSoC5/USBUART_episr.c ****             {
 163:Generated_Source\PSoC5/USBUART_episr.c ****                 USBUART_MIDI_OUT_EP_Service();
 164:Generated_Source\PSoC5/USBUART_episr.c ****             }
 165:Generated_Source\PSoC5/USBUART_episr.c ****         #endif /*  USBUART_ISR_SERVICE_MIDI_OUT */
 166:Generated_Source\PSoC5/USBUART_episr.c **** 
 167:Generated_Source\PSoC5/USBUART_episr.c ****         /* `#START EP2_END_USER_CODE` Place your code here */
 168:Generated_Source\PSoC5/USBUART_episr.c **** 
 169:Generated_Source\PSoC5/USBUART_episr.c ****         /* `#END` */
 170:Generated_Source\PSoC5/USBUART_episr.c **** 
 171:Generated_Source\PSoC5/USBUART_episr.c ****         #ifdef USBUART_EP_2_ISR_EXIT_CALLBACK
 172:Generated_Source\PSoC5/USBUART_episr.c ****             USBUART_EP_2_ISR_ExitCallback();
 173:Generated_Source\PSoC5/USBUART_episr.c ****         #endif /* USBUART_EP_2_ISR_EXIT_CALLBACK */
 174:Generated_Source\PSoC5/USBUART_episr.c ****         
 175:Generated_Source\PSoC5/USBUART_episr.c ****         #if (defined(USBUART_ENABLE_MIDI_STREAMING) && !defined(USBUART_MAIN_SERVICE_MIDI_OUT) && \
 176:Generated_Source\PSoC5/USBUART_episr.c ****                      USBUART_ISR_SERVICE_MIDI_OUT && CY_PSOC3)
 177:Generated_Source\PSoC5/USBUART_episr.c ****             EA = int_en;
 178:Generated_Source\PSoC5/USBUART_episr.c ****         #endif /* USBUART_ISR_SERVICE_MIDI_OUT && CY_PSOC3 */
 179:Generated_Source\PSoC5/USBUART_episr.c ****     }
 138              		.loc 1 179 0
 139 003e 00BF     		nop
 140 0040 BD46     		mov	sp, r7
 141              		.cfi_def_cfa_register 13
 142              		@ sp needed
 143 0042 80BC     		pop	{r7}
 144              		.cfi_restore 7
 145              		.cfi_def_cfa_offset 0
 146 0044 7047     		bx	lr
 147              	.L8:
 148 0046 00BF     		.align	2
 149              	.L7:
 150 0048 1E600040 		.word	1073766430
 151 004c 00000000 		.word	USBUART_EP
 152 0050 0B600040 		.word	1073766411
 153              		.cfi_endproc
 154              	.LFE1:
 155              		.size	USBUART_EP_2_ISR, .-USBUART_EP_2_ISR
 156              		.section	.text.USBUART_EP_3_ISR,"ax",%progbits
 157              		.align	2
 158              		.global	USBUART_EP_3_ISR
 159              		.thumb
 160              		.thumb_func
 161              		.type	USBUART_EP_3_ISR, %function
 162              	USBUART_EP_3_ISR:
 163              	.LFB2:
ARM GAS  C:\Users\MARTHN~1\AppData\Local\Temp\ccEtjiw9.s 			page 7


 180:Generated_Source\PSoC5/USBUART_episr.c **** 
 181:Generated_Source\PSoC5/USBUART_episr.c **** #endif   /*  USBUART_EP2_ISR_REMOVE */
 182:Generated_Source\PSoC5/USBUART_episr.c **** 
 183:Generated_Source\PSoC5/USBUART_episr.c **** 
 184:Generated_Source\PSoC5/USBUART_episr.c **** #if(USBUART_EP3_ISR_REMOVE == 0u)
 185:Generated_Source\PSoC5/USBUART_episr.c **** 
 186:Generated_Source\PSoC5/USBUART_episr.c ****     /*******************************************************************************
 187:Generated_Source\PSoC5/USBUART_episr.c ****     * Function Name: USBUART_EP_3_ISR
 188:Generated_Source\PSoC5/USBUART_episr.c ****     ********************************************************************************
 189:Generated_Source\PSoC5/USBUART_episr.c ****     *
 190:Generated_Source\PSoC5/USBUART_episr.c ****     * Summary:
 191:Generated_Source\PSoC5/USBUART_episr.c ****     *  Endpoint 3 Interrupt Service Routine
 192:Generated_Source\PSoC5/USBUART_episr.c ****     *
 193:Generated_Source\PSoC5/USBUART_episr.c ****     * Parameters:
 194:Generated_Source\PSoC5/USBUART_episr.c ****     *  None.
 195:Generated_Source\PSoC5/USBUART_episr.c ****     *
 196:Generated_Source\PSoC5/USBUART_episr.c ****     * Return:
 197:Generated_Source\PSoC5/USBUART_episr.c ****     *  None.
 198:Generated_Source\PSoC5/USBUART_episr.c ****     *
 199:Generated_Source\PSoC5/USBUART_episr.c ****     *******************************************************************************/
 200:Generated_Source\PSoC5/USBUART_episr.c ****     CY_ISR(USBUART_EP_3_ISR)
 201:Generated_Source\PSoC5/USBUART_episr.c ****     {
 164              		.loc 1 201 0
 165              		.cfi_startproc
 166              		@ args = 0, pretend = 0, frame = 0
 167              		@ frame_needed = 1, uses_anonymous_args = 0
 168              		@ link register save eliminated.
 169 0000 80B4     		push	{r7}
 170              		.cfi_def_cfa_offset 4
 171              		.cfi_offset 7, -4
 172 0002 00AF     		add	r7, sp, #0
 173              		.cfi_def_cfa_register 7
 202:Generated_Source\PSoC5/USBUART_episr.c ****         #if (defined(USBUART_ENABLE_MIDI_STREAMING) && !defined(USBUART_MAIN_SERVICE_MIDI_OUT) && \
 203:Generated_Source\PSoC5/USBUART_episr.c ****                      USBUART_ISR_SERVICE_MIDI_OUT && CY_PSOC3)
 204:Generated_Source\PSoC5/USBUART_episr.c ****             uint8 int_en;
 205:Generated_Source\PSoC5/USBUART_episr.c ****         #endif /* USBUART_ISR_SERVICE_MIDI_OUT && CY_PSOC3 */
 206:Generated_Source\PSoC5/USBUART_episr.c **** 
 207:Generated_Source\PSoC5/USBUART_episr.c ****         #ifdef USBUART_EP_3_ISR_ENTRY_CALLBACK
 208:Generated_Source\PSoC5/USBUART_episr.c ****             USBUART_EP_3_ISR_EntryCallback();
 209:Generated_Source\PSoC5/USBUART_episr.c ****         #endif /* USBUART_EP_3_ISR_ENTRY_CALLBACK */
 210:Generated_Source\PSoC5/USBUART_episr.c **** 
 211:Generated_Source\PSoC5/USBUART_episr.c ****         /* `#START EP3_USER_CODE` Place your code here */
 212:Generated_Source\PSoC5/USBUART_episr.c **** 
 213:Generated_Source\PSoC5/USBUART_episr.c ****         /* `#END` */
 214:Generated_Source\PSoC5/USBUART_episr.c **** 
 215:Generated_Source\PSoC5/USBUART_episr.c ****         #if (defined(USBUART_ENABLE_MIDI_STREAMING) && !defined(USBUART_MAIN_SERVICE_MIDI_OUT) && \
 216:Generated_Source\PSoC5/USBUART_episr.c ****                      USBUART_ISR_SERVICE_MIDI_OUT && CY_PSOC3)
 217:Generated_Source\PSoC5/USBUART_episr.c ****             int_en = EA;
 218:Generated_Source\PSoC5/USBUART_episr.c ****             CyGlobalIntEnable;  /* Make sure nested interrupt is enabled */
 219:Generated_Source\PSoC5/USBUART_episr.c ****         #endif /* CY_PSOC3 & USBUART_ISR_SERVICE_MIDI_OUT  */
 220:Generated_Source\PSoC5/USBUART_episr.c **** 
 221:Generated_Source\PSoC5/USBUART_episr.c ****         CY_GET_REG8(USBUART_SIE_EP3_CR0_PTR); /* Must read the mode reg */
 174              		.loc 1 221 0
 175 0004 124B     		ldr	r3, .L11
 176 0006 1B78     		ldrb	r3, [r3]
 222:Generated_Source\PSoC5/USBUART_episr.c ****         /* Do not toggle ISOC endpoint */
 223:Generated_Source\PSoC5/USBUART_episr.c ****         if((USBUART_EP[USBUART_EP3].attrib & USBUART_EP_TYPE_MASK) !=
ARM GAS  C:\Users\MARTHN~1\AppData\Local\Temp\ccEtjiw9.s 			page 8


 177              		.loc 1 223 0
 178 0008 124B     		ldr	r3, .L11+4
 179 000a 93F82430 		ldrb	r3, [r3, #36]
 180 000e DBB2     		uxtb	r3, r3
 181 0010 03F00303 		and	r3, r3, #3
 182 0014 012B     		cmp	r3, #1
 183 0016 0AD0     		beq	.L10
 224:Generated_Source\PSoC5/USBUART_episr.c ****                                                                                     USBUART_EP_TYPE
 225:Generated_Source\PSoC5/USBUART_episr.c ****         {
 226:Generated_Source\PSoC5/USBUART_episr.c ****             USBUART_EP[USBUART_EP3].epToggle ^= USBUART_EPX_CNT_DATA_TOGGLE;
 184              		.loc 1 226 0
 185 0018 0E4B     		ldr	r3, .L11+4
 186 001a 93F82730 		ldrb	r3, [r3, #39]
 187 001e DBB2     		uxtb	r3, r3
 188 0020 83F07F03 		eor	r3, r3, #127
 189 0024 DB43     		mvns	r3, r3
 190 0026 DAB2     		uxtb	r2, r3
 191 0028 0A4B     		ldr	r3, .L11+4
 192 002a 83F82720 		strb	r2, [r3, #39]
 193              	.L10:
 227:Generated_Source\PSoC5/USBUART_episr.c ****         }
 228:Generated_Source\PSoC5/USBUART_episr.c ****         USBUART_EP[USBUART_EP3].apiEpState = USBUART_EVENT_PENDING;
 194              		.loc 1 228 0
 195 002e 094B     		ldr	r3, .L11+4
 196 0030 0122     		movs	r2, #1
 197 0032 83F82520 		strb	r2, [r3, #37]
 229:Generated_Source\PSoC5/USBUART_episr.c ****         CY_SET_REG8(USBUART_SIE_EP_INT_SR_PTR, CY_GET_REG8(USBUART_SIE_EP_INT_SR_PTR)
 198              		.loc 1 229 0
 199 0036 084A     		ldr	r2, .L11+8
 200 0038 074B     		ldr	r3, .L11+8
 201 003a 1B78     		ldrb	r3, [r3]
 202 003c DBB2     		uxtb	r3, r3
 203 003e 23F00403 		bic	r3, r3, #4
 204 0042 DBB2     		uxtb	r3, r3
 205 0044 1370     		strb	r3, [r2]
 230:Generated_Source\PSoC5/USBUART_episr.c ****                                                                         & (uint8)~USBUART_SIE_EP_IN
 231:Generated_Source\PSoC5/USBUART_episr.c **** 
 232:Generated_Source\PSoC5/USBUART_episr.c ****         #if (defined(USBUART_ENABLE_MIDI_STREAMING) && !defined(USBUART_MAIN_SERVICE_MIDI_OUT) && \
 233:Generated_Source\PSoC5/USBUART_episr.c ****                      USBUART_ISR_SERVICE_MIDI_OUT)
 234:Generated_Source\PSoC5/USBUART_episr.c ****             if(USBUART_midi_out_ep == USBUART_EP3)
 235:Generated_Source\PSoC5/USBUART_episr.c ****             {
 236:Generated_Source\PSoC5/USBUART_episr.c ****                 USBUART_MIDI_OUT_EP_Service();
 237:Generated_Source\PSoC5/USBUART_episr.c ****             }
 238:Generated_Source\PSoC5/USBUART_episr.c ****         #endif /*  USBUART_ISR_SERVICE_MIDI_OUT */
 239:Generated_Source\PSoC5/USBUART_episr.c **** 
 240:Generated_Source\PSoC5/USBUART_episr.c ****         /* `#START EP3_END_USER_CODE` Place your code here */
 241:Generated_Source\PSoC5/USBUART_episr.c **** 
 242:Generated_Source\PSoC5/USBUART_episr.c ****         /* `#END` */
 243:Generated_Source\PSoC5/USBUART_episr.c **** 
 244:Generated_Source\PSoC5/USBUART_episr.c ****         #ifdef USBUART_EP_3_ISR_EXIT_CALLBACK
 245:Generated_Source\PSoC5/USBUART_episr.c ****             USBUART_EP_3_ISR_ExitCallback();
 246:Generated_Source\PSoC5/USBUART_episr.c ****         #endif /* USBUART_EP_3_ISR_EXIT_CALLBACK */
 247:Generated_Source\PSoC5/USBUART_episr.c **** 
 248:Generated_Source\PSoC5/USBUART_episr.c ****         #if (defined(USBUART_ENABLE_MIDI_STREAMING) && !defined(USBUART_MAIN_SERVICE_MIDI_OUT) && \
 249:Generated_Source\PSoC5/USBUART_episr.c ****                      USBUART_ISR_SERVICE_MIDI_OUT && CY_PSOC3)
 250:Generated_Source\PSoC5/USBUART_episr.c ****             EA = int_en;
 251:Generated_Source\PSoC5/USBUART_episr.c ****         #endif /* CY_PSOC3 & USBUART_ISR_SERVICE_MIDI_OUT  */
ARM GAS  C:\Users\MARTHN~1\AppData\Local\Temp\ccEtjiw9.s 			page 9


 252:Generated_Source\PSoC5/USBUART_episr.c ****     }
 206              		.loc 1 252 0
 207 0046 00BF     		nop
 208 0048 BD46     		mov	sp, r7
 209              		.cfi_def_cfa_register 13
 210              		@ sp needed
 211 004a 80BC     		pop	{r7}
 212              		.cfi_restore 7
 213              		.cfi_def_cfa_offset 0
 214 004c 7047     		bx	lr
 215              	.L12:
 216 004e 00BF     		.align	2
 217              	.L11:
 218 0050 2E600040 		.word	1073766446
 219 0054 00000000 		.word	USBUART_EP
 220 0058 0B600040 		.word	1073766411
 221              		.cfi_endproc
 222              	.LFE2:
 223              		.size	USBUART_EP_3_ISR, .-USBUART_EP_3_ISR
 224              		.section	.text.USBUART_SOF_ISR,"ax",%progbits
 225              		.align	2
 226              		.global	USBUART_SOF_ISR
 227              		.thumb
 228              		.thumb_func
 229              		.type	USBUART_SOF_ISR, %function
 230              	USBUART_SOF_ISR:
 231              	.LFB3:
 253:Generated_Source\PSoC5/USBUART_episr.c **** 
 254:Generated_Source\PSoC5/USBUART_episr.c **** #endif   /*  USBUART_EP3_ISR_REMOVE */
 255:Generated_Source\PSoC5/USBUART_episr.c **** 
 256:Generated_Source\PSoC5/USBUART_episr.c **** 
 257:Generated_Source\PSoC5/USBUART_episr.c **** #if(USBUART_EP4_ISR_REMOVE == 0u)
 258:Generated_Source\PSoC5/USBUART_episr.c **** 
 259:Generated_Source\PSoC5/USBUART_episr.c ****     /*******************************************************************************
 260:Generated_Source\PSoC5/USBUART_episr.c ****     * Function Name: USBUART_EP_4_ISR
 261:Generated_Source\PSoC5/USBUART_episr.c ****     ********************************************************************************
 262:Generated_Source\PSoC5/USBUART_episr.c ****     *
 263:Generated_Source\PSoC5/USBUART_episr.c ****     * Summary:
 264:Generated_Source\PSoC5/USBUART_episr.c ****     *  Endpoint 4 Interrupt Service Routine
 265:Generated_Source\PSoC5/USBUART_episr.c ****     *
 266:Generated_Source\PSoC5/USBUART_episr.c ****     * Parameters:
 267:Generated_Source\PSoC5/USBUART_episr.c ****     *  None.
 268:Generated_Source\PSoC5/USBUART_episr.c ****     *
 269:Generated_Source\PSoC5/USBUART_episr.c ****     * Return:
 270:Generated_Source\PSoC5/USBUART_episr.c ****     *  None.
 271:Generated_Source\PSoC5/USBUART_episr.c ****     *
 272:Generated_Source\PSoC5/USBUART_episr.c ****     *******************************************************************************/
 273:Generated_Source\PSoC5/USBUART_episr.c ****     CY_ISR(USBUART_EP_4_ISR)
 274:Generated_Source\PSoC5/USBUART_episr.c ****     {
 275:Generated_Source\PSoC5/USBUART_episr.c ****         #if (defined(USBUART_ENABLE_MIDI_STREAMING) && !defined(USBUART_MAIN_SERVICE_MIDI_OUT) && \
 276:Generated_Source\PSoC5/USBUART_episr.c ****                      USBUART_ISR_SERVICE_MIDI_OUT && CY_PSOC3)
 277:Generated_Source\PSoC5/USBUART_episr.c ****             uint8 int_en;
 278:Generated_Source\PSoC5/USBUART_episr.c ****         #endif /* CY_PSOC3 & USBUART_ISR_SERVICE_MIDI_OUT  */
 279:Generated_Source\PSoC5/USBUART_episr.c **** 
 280:Generated_Source\PSoC5/USBUART_episr.c ****         #ifdef USBUART_EP_4_ISR_ENTRY_CALLBACK
 281:Generated_Source\PSoC5/USBUART_episr.c ****             USBUART_EP_4_ISR_EntryCallback();
 282:Generated_Source\PSoC5/USBUART_episr.c ****         #endif /* USBUART_EP_4_ISR_ENTRY_CALLBACK */
ARM GAS  C:\Users\MARTHN~1\AppData\Local\Temp\ccEtjiw9.s 			page 10


 283:Generated_Source\PSoC5/USBUART_episr.c **** 
 284:Generated_Source\PSoC5/USBUART_episr.c ****         /* `#START EP4_USER_CODE` Place your code here */
 285:Generated_Source\PSoC5/USBUART_episr.c **** 
 286:Generated_Source\PSoC5/USBUART_episr.c ****         /* `#END` */
 287:Generated_Source\PSoC5/USBUART_episr.c **** 
 288:Generated_Source\PSoC5/USBUART_episr.c ****         #if (defined(USBUART_ENABLE_MIDI_STREAMING) && !defined(USBUART_MAIN_SERVICE_MIDI_OUT) && \
 289:Generated_Source\PSoC5/USBUART_episr.c ****                      USBUART_ISR_SERVICE_MIDI_OUT && CY_PSOC3)
 290:Generated_Source\PSoC5/USBUART_episr.c ****             int_en = EA;
 291:Generated_Source\PSoC5/USBUART_episr.c ****             CyGlobalIntEnable;  /* Make sure nested interrupt is enabled */
 292:Generated_Source\PSoC5/USBUART_episr.c ****         #endif /* CY_PSOC3 & USBUART_ISR_SERVICE_MIDI_OUT  */
 293:Generated_Source\PSoC5/USBUART_episr.c **** 
 294:Generated_Source\PSoC5/USBUART_episr.c ****         CY_GET_REG8(USBUART_SIE_EP4_CR0_PTR); /* Must read the mode reg */
 295:Generated_Source\PSoC5/USBUART_episr.c ****         /* Do not toggle ISOC endpoint */
 296:Generated_Source\PSoC5/USBUART_episr.c ****         if((USBUART_EP[USBUART_EP4].attrib & USBUART_EP_TYPE_MASK) !=
 297:Generated_Source\PSoC5/USBUART_episr.c ****                                                                                     USBUART_EP_TYPE
 298:Generated_Source\PSoC5/USBUART_episr.c ****         {
 299:Generated_Source\PSoC5/USBUART_episr.c ****             USBUART_EP[USBUART_EP4].epToggle ^= USBUART_EPX_CNT_DATA_TOGGLE;
 300:Generated_Source\PSoC5/USBUART_episr.c ****         }
 301:Generated_Source\PSoC5/USBUART_episr.c ****         USBUART_EP[USBUART_EP4].apiEpState = USBUART_EVENT_PENDING;
 302:Generated_Source\PSoC5/USBUART_episr.c ****         CY_SET_REG8(USBUART_SIE_EP_INT_SR_PTR, CY_GET_REG8(USBUART_SIE_EP_INT_SR_PTR)
 303:Generated_Source\PSoC5/USBUART_episr.c ****                                                                         & (uint8)~USBUART_SIE_EP_IN
 304:Generated_Source\PSoC5/USBUART_episr.c **** 
 305:Generated_Source\PSoC5/USBUART_episr.c ****         #if (defined(USBUART_ENABLE_MIDI_STREAMING) && !defined(USBUART_MAIN_SERVICE_MIDI_OUT) && \
 306:Generated_Source\PSoC5/USBUART_episr.c ****                      USBUART_ISR_SERVICE_MIDI_OUT)
 307:Generated_Source\PSoC5/USBUART_episr.c ****             if(USBUART_midi_out_ep == USBUART_EP4)
 308:Generated_Source\PSoC5/USBUART_episr.c ****             {
 309:Generated_Source\PSoC5/USBUART_episr.c ****                 USBUART_MIDI_OUT_EP_Service();
 310:Generated_Source\PSoC5/USBUART_episr.c ****             }
 311:Generated_Source\PSoC5/USBUART_episr.c ****         #endif /*  USBUART_ISR_SERVICE_MIDI_OUT */
 312:Generated_Source\PSoC5/USBUART_episr.c **** 
 313:Generated_Source\PSoC5/USBUART_episr.c ****         /* `#START EP4_END_USER_CODE` Place your code here */
 314:Generated_Source\PSoC5/USBUART_episr.c **** 
 315:Generated_Source\PSoC5/USBUART_episr.c ****         /* `#END` */
 316:Generated_Source\PSoC5/USBUART_episr.c **** 
 317:Generated_Source\PSoC5/USBUART_episr.c ****         #ifdef USBUART_EP_4_ISR_EXIT_CALLBACK
 318:Generated_Source\PSoC5/USBUART_episr.c ****             USBUART_EP_4_ISR_ExitCallback();
 319:Generated_Source\PSoC5/USBUART_episr.c ****         #endif /* USBUART_EP_4_ISR_EXIT_CALLBACK */
 320:Generated_Source\PSoC5/USBUART_episr.c **** 
 321:Generated_Source\PSoC5/USBUART_episr.c ****         #if (defined(USBUART_ENABLE_MIDI_STREAMING) && !defined(USBUART_MAIN_SERVICE_MIDI_OUT) && \
 322:Generated_Source\PSoC5/USBUART_episr.c ****                      USBUART_ISR_SERVICE_MIDI_OUT && CY_PSOC3)
 323:Generated_Source\PSoC5/USBUART_episr.c ****             EA = int_en;
 324:Generated_Source\PSoC5/USBUART_episr.c ****         #endif /* CY_PSOC3 & USBUART_ISR_SERVICE_MIDI_OUT  */
 325:Generated_Source\PSoC5/USBUART_episr.c ****     }
 326:Generated_Source\PSoC5/USBUART_episr.c **** 
 327:Generated_Source\PSoC5/USBUART_episr.c **** #endif   /*  USBUART_EP4_ISR_REMOVE */
 328:Generated_Source\PSoC5/USBUART_episr.c **** 
 329:Generated_Source\PSoC5/USBUART_episr.c **** 
 330:Generated_Source\PSoC5/USBUART_episr.c **** #if(USBUART_EP5_ISR_REMOVE == 0u)
 331:Generated_Source\PSoC5/USBUART_episr.c **** 
 332:Generated_Source\PSoC5/USBUART_episr.c ****     /*******************************************************************************
 333:Generated_Source\PSoC5/USBUART_episr.c ****     * Function Name: USBUART_EP_5_ISR
 334:Generated_Source\PSoC5/USBUART_episr.c ****     ********************************************************************************
 335:Generated_Source\PSoC5/USBUART_episr.c ****     *
 336:Generated_Source\PSoC5/USBUART_episr.c ****     * Summary:
 337:Generated_Source\PSoC5/USBUART_episr.c ****     *  Endpoint 5 Interrupt Service Routine
 338:Generated_Source\PSoC5/USBUART_episr.c ****     *
 339:Generated_Source\PSoC5/USBUART_episr.c ****     * Parameters:
ARM GAS  C:\Users\MARTHN~1\AppData\Local\Temp\ccEtjiw9.s 			page 11


 340:Generated_Source\PSoC5/USBUART_episr.c ****     *  None.
 341:Generated_Source\PSoC5/USBUART_episr.c ****     *
 342:Generated_Source\PSoC5/USBUART_episr.c ****     * Return:
 343:Generated_Source\PSoC5/USBUART_episr.c ****     *  None.
 344:Generated_Source\PSoC5/USBUART_episr.c ****     *
 345:Generated_Source\PSoC5/USBUART_episr.c ****     *******************************************************************************/
 346:Generated_Source\PSoC5/USBUART_episr.c ****     CY_ISR(USBUART_EP_5_ISR)
 347:Generated_Source\PSoC5/USBUART_episr.c ****     {
 348:Generated_Source\PSoC5/USBUART_episr.c ****         #if (defined(USBUART_ENABLE_MIDI_STREAMING) && !defined(USBUART_MAIN_SERVICE_MIDI_OUT) && \
 349:Generated_Source\PSoC5/USBUART_episr.c ****                      USBUART_ISR_SERVICE_MIDI_OUT && CY_PSOC3)
 350:Generated_Source\PSoC5/USBUART_episr.c ****             uint8 int_en;
 351:Generated_Source\PSoC5/USBUART_episr.c ****         #endif /* CY_PSOC3 & USBUART_ISR_SERVICE_MIDI_OUT  */
 352:Generated_Source\PSoC5/USBUART_episr.c **** 
 353:Generated_Source\PSoC5/USBUART_episr.c ****         #ifdef USBUART_EP_5_ISR_ENTRY_CALLBACK
 354:Generated_Source\PSoC5/USBUART_episr.c ****             USBUART_EP_5_ISR_EntryCallback();
 355:Generated_Source\PSoC5/USBUART_episr.c ****         #endif /* USBUART_EP_5_ISR_ENTRY_CALLBACK */
 356:Generated_Source\PSoC5/USBUART_episr.c **** 
 357:Generated_Source\PSoC5/USBUART_episr.c ****         /* `#START EP5_USER_CODE` Place your code here */
 358:Generated_Source\PSoC5/USBUART_episr.c **** 
 359:Generated_Source\PSoC5/USBUART_episr.c ****         /* `#END` */
 360:Generated_Source\PSoC5/USBUART_episr.c **** 
 361:Generated_Source\PSoC5/USBUART_episr.c ****         #if (defined(USBUART_ENABLE_MIDI_STREAMING) && !defined(USBUART_MAIN_SERVICE_MIDI_OUT) && \
 362:Generated_Source\PSoC5/USBUART_episr.c ****                      USBUART_ISR_SERVICE_MIDI_OUT && CY_PSOC3)
 363:Generated_Source\PSoC5/USBUART_episr.c ****             int_en = EA;
 364:Generated_Source\PSoC5/USBUART_episr.c ****             CyGlobalIntEnable;  /* Make sure nested interrupt is enabled */
 365:Generated_Source\PSoC5/USBUART_episr.c ****         #endif /* CY_PSOC3 & USBUART_ISR_SERVICE_MIDI_OUT  */
 366:Generated_Source\PSoC5/USBUART_episr.c **** 
 367:Generated_Source\PSoC5/USBUART_episr.c ****         CY_GET_REG8(USBUART_SIE_EP5_CR0_PTR); /* Must read the mode reg */
 368:Generated_Source\PSoC5/USBUART_episr.c ****         /* Do not toggle ISOC endpoint */
 369:Generated_Source\PSoC5/USBUART_episr.c ****         if((USBUART_EP[USBUART_EP5].attrib & USBUART_EP_TYPE_MASK) !=
 370:Generated_Source\PSoC5/USBUART_episr.c ****                                                                                     USBUART_EP_TYPE
 371:Generated_Source\PSoC5/USBUART_episr.c ****         {
 372:Generated_Source\PSoC5/USBUART_episr.c ****             USBUART_EP[USBUART_EP5].epToggle ^= USBUART_EPX_CNT_DATA_TOGGLE;
 373:Generated_Source\PSoC5/USBUART_episr.c ****         }
 374:Generated_Source\PSoC5/USBUART_episr.c ****         USBUART_EP[USBUART_EP5].apiEpState = USBUART_EVENT_PENDING;
 375:Generated_Source\PSoC5/USBUART_episr.c ****         CY_SET_REG8(USBUART_SIE_EP_INT_SR_PTR, CY_GET_REG8(USBUART_SIE_EP_INT_SR_PTR)
 376:Generated_Source\PSoC5/USBUART_episr.c ****                                                                         & (uint8)~USBUART_SIE_EP_IN
 377:Generated_Source\PSoC5/USBUART_episr.c **** 
 378:Generated_Source\PSoC5/USBUART_episr.c ****         #if (defined(USBUART_ENABLE_MIDI_STREAMING) && !defined(USBUART_MAIN_SERVICE_MIDI_OUT) && \
 379:Generated_Source\PSoC5/USBUART_episr.c ****                      USBUART_ISR_SERVICE_MIDI_OUT)
 380:Generated_Source\PSoC5/USBUART_episr.c ****             if(USBUART_midi_out_ep == USBUART_EP5)
 381:Generated_Source\PSoC5/USBUART_episr.c ****             {
 382:Generated_Source\PSoC5/USBUART_episr.c ****                 USBUART_MIDI_OUT_EP_Service();
 383:Generated_Source\PSoC5/USBUART_episr.c ****             }
 384:Generated_Source\PSoC5/USBUART_episr.c ****         #endif /*  USBUART_ISR_SERVICE_MIDI_OUT */
 385:Generated_Source\PSoC5/USBUART_episr.c **** 
 386:Generated_Source\PSoC5/USBUART_episr.c ****         /* `#START EP5_END_USER_CODE` Place your code here */
 387:Generated_Source\PSoC5/USBUART_episr.c **** 
 388:Generated_Source\PSoC5/USBUART_episr.c ****         /* `#END` */
 389:Generated_Source\PSoC5/USBUART_episr.c **** 
 390:Generated_Source\PSoC5/USBUART_episr.c ****         #ifdef USBUART_EP_5_ISR_EXIT_CALLBACK
 391:Generated_Source\PSoC5/USBUART_episr.c ****             USBUART_EP_5_ISR_ExitCallback();
 392:Generated_Source\PSoC5/USBUART_episr.c ****         #endif /* USBUART_EP_5_ISR_EXIT_CALLBACK */
 393:Generated_Source\PSoC5/USBUART_episr.c **** 
 394:Generated_Source\PSoC5/USBUART_episr.c ****         #if (defined(USBUART_ENABLE_MIDI_STREAMING) && !defined(USBUART_MAIN_SERVICE_MIDI_OUT) && \
 395:Generated_Source\PSoC5/USBUART_episr.c ****                      USBUART_ISR_SERVICE_MIDI_OUT && CY_PSOC3)
 396:Generated_Source\PSoC5/USBUART_episr.c ****             EA = int_en;
ARM GAS  C:\Users\MARTHN~1\AppData\Local\Temp\ccEtjiw9.s 			page 12


 397:Generated_Source\PSoC5/USBUART_episr.c ****         #endif /* CY_PSOC3 & USBUART_ISR_SERVICE_MIDI_OUT  */
 398:Generated_Source\PSoC5/USBUART_episr.c ****     }
 399:Generated_Source\PSoC5/USBUART_episr.c **** #endif   /*  USBUART_EP5_ISR_REMOVE */
 400:Generated_Source\PSoC5/USBUART_episr.c **** 
 401:Generated_Source\PSoC5/USBUART_episr.c **** 
 402:Generated_Source\PSoC5/USBUART_episr.c **** #if(USBUART_EP6_ISR_REMOVE == 0u)
 403:Generated_Source\PSoC5/USBUART_episr.c **** 
 404:Generated_Source\PSoC5/USBUART_episr.c ****     /*******************************************************************************
 405:Generated_Source\PSoC5/USBUART_episr.c ****     * Function Name: USBUART_EP_6_ISR
 406:Generated_Source\PSoC5/USBUART_episr.c ****     ********************************************************************************
 407:Generated_Source\PSoC5/USBUART_episr.c ****     *
 408:Generated_Source\PSoC5/USBUART_episr.c ****     * Summary:
 409:Generated_Source\PSoC5/USBUART_episr.c ****     *  Endpoint 6 Interrupt Service Routine
 410:Generated_Source\PSoC5/USBUART_episr.c ****     *
 411:Generated_Source\PSoC5/USBUART_episr.c ****     * Parameters:
 412:Generated_Source\PSoC5/USBUART_episr.c ****     *  None.
 413:Generated_Source\PSoC5/USBUART_episr.c ****     *
 414:Generated_Source\PSoC5/USBUART_episr.c ****     * Return:
 415:Generated_Source\PSoC5/USBUART_episr.c ****     *  None.
 416:Generated_Source\PSoC5/USBUART_episr.c ****     *
 417:Generated_Source\PSoC5/USBUART_episr.c ****     *******************************************************************************/
 418:Generated_Source\PSoC5/USBUART_episr.c ****     CY_ISR(USBUART_EP_6_ISR)
 419:Generated_Source\PSoC5/USBUART_episr.c ****     {
 420:Generated_Source\PSoC5/USBUART_episr.c ****         #if (defined(USBUART_ENABLE_MIDI_STREAMING) && !defined(USBUART_MAIN_SERVICE_MIDI_OUT) && \
 421:Generated_Source\PSoC5/USBUART_episr.c ****                      USBUART_ISR_SERVICE_MIDI_OUT && CY_PSOC3)
 422:Generated_Source\PSoC5/USBUART_episr.c ****             uint8 int_en;
 423:Generated_Source\PSoC5/USBUART_episr.c ****         #endif /* CY_PSOC3 & USBUART_ISR_SERVICE_MIDI_OUT  */
 424:Generated_Source\PSoC5/USBUART_episr.c **** 
 425:Generated_Source\PSoC5/USBUART_episr.c ****         #ifdef USBUART_EP_6_ISR_ENTRY_CALLBACK
 426:Generated_Source\PSoC5/USBUART_episr.c ****             USBUART_EP_6_ISR_EntryCallback();
 427:Generated_Source\PSoC5/USBUART_episr.c ****         #endif /* USBUART_EP_6_ISR_ENTRY_CALLBACK */
 428:Generated_Source\PSoC5/USBUART_episr.c **** 
 429:Generated_Source\PSoC5/USBUART_episr.c ****         /* `#START EP6_USER_CODE` Place your code here */
 430:Generated_Source\PSoC5/USBUART_episr.c **** 
 431:Generated_Source\PSoC5/USBUART_episr.c ****         /* `#END` */
 432:Generated_Source\PSoC5/USBUART_episr.c **** 
 433:Generated_Source\PSoC5/USBUART_episr.c ****         #if (defined(USBUART_ENABLE_MIDI_STREAMING) && !defined(USBUART_MAIN_SERVICE_MIDI_OUT) && \
 434:Generated_Source\PSoC5/USBUART_episr.c ****                      USBUART_ISR_SERVICE_MIDI_OUT && CY_PSOC3)
 435:Generated_Source\PSoC5/USBUART_episr.c ****             int_en = EA;
 436:Generated_Source\PSoC5/USBUART_episr.c ****             CyGlobalIntEnable;  /* Make sure nested interrupt is enabled */
 437:Generated_Source\PSoC5/USBUART_episr.c ****         #endif /* CY_PSOC3 & USBUART_ISR_SERVICE_MIDI_OUT  */
 438:Generated_Source\PSoC5/USBUART_episr.c **** 
 439:Generated_Source\PSoC5/USBUART_episr.c ****         CY_GET_REG8(USBUART_SIE_EP6_CR0_PTR); /* Must read the mode reg */
 440:Generated_Source\PSoC5/USBUART_episr.c ****         /* Do not toggle ISOC endpoint */
 441:Generated_Source\PSoC5/USBUART_episr.c ****         if((USBUART_EP[USBUART_EP6].attrib & USBUART_EP_TYPE_MASK) !=
 442:Generated_Source\PSoC5/USBUART_episr.c ****                                                                                     USBUART_EP_TYPE
 443:Generated_Source\PSoC5/USBUART_episr.c ****         {
 444:Generated_Source\PSoC5/USBUART_episr.c ****             USBUART_EP[USBUART_EP6].epToggle ^= USBUART_EPX_CNT_DATA_TOGGLE;
 445:Generated_Source\PSoC5/USBUART_episr.c ****         }
 446:Generated_Source\PSoC5/USBUART_episr.c ****         USBUART_EP[USBUART_EP6].apiEpState = USBUART_EVENT_PENDING;
 447:Generated_Source\PSoC5/USBUART_episr.c ****         CY_SET_REG8(USBUART_SIE_EP_INT_SR_PTR, CY_GET_REG8(USBUART_SIE_EP_INT_SR_PTR)
 448:Generated_Source\PSoC5/USBUART_episr.c ****                                                                         & (uint8)~USBUART_SIE_EP_IN
 449:Generated_Source\PSoC5/USBUART_episr.c **** 
 450:Generated_Source\PSoC5/USBUART_episr.c ****         #if (defined(USBUART_ENABLE_MIDI_STREAMING) && !defined(USBUART_MAIN_SERVICE_MIDI_OUT) && \
 451:Generated_Source\PSoC5/USBUART_episr.c ****                      USBUART_ISR_SERVICE_MIDI_OUT)
 452:Generated_Source\PSoC5/USBUART_episr.c ****             if(USBUART_midi_out_ep == USBUART_EP6)
 453:Generated_Source\PSoC5/USBUART_episr.c ****             {
ARM GAS  C:\Users\MARTHN~1\AppData\Local\Temp\ccEtjiw9.s 			page 13


 454:Generated_Source\PSoC5/USBUART_episr.c ****                 USBUART_MIDI_OUT_EP_Service();
 455:Generated_Source\PSoC5/USBUART_episr.c ****             }
 456:Generated_Source\PSoC5/USBUART_episr.c ****         #endif /*  USBUART_ISR_SERVICE_MIDI_OUT  */
 457:Generated_Source\PSoC5/USBUART_episr.c **** 
 458:Generated_Source\PSoC5/USBUART_episr.c ****         /* `#START EP6_END_USER_CODE` Place your code here */
 459:Generated_Source\PSoC5/USBUART_episr.c **** 
 460:Generated_Source\PSoC5/USBUART_episr.c ****         /* `#END` */
 461:Generated_Source\PSoC5/USBUART_episr.c **** 
 462:Generated_Source\PSoC5/USBUART_episr.c ****         #ifdef USBUART_EP_6_ISR_EXIT_CALLBACK
 463:Generated_Source\PSoC5/USBUART_episr.c ****             USBUART_EP_6_ISR_ExitCallback();
 464:Generated_Source\PSoC5/USBUART_episr.c ****         #endif /* USBUART_EP_6_ISR_EXIT_CALLBACK */
 465:Generated_Source\PSoC5/USBUART_episr.c **** 
 466:Generated_Source\PSoC5/USBUART_episr.c ****         #if (defined(USBUART_ENABLE_MIDI_STREAMING) && !defined(USBUART_MAIN_SERVICE_MIDI_OUT) && \
 467:Generated_Source\PSoC5/USBUART_episr.c ****                      USBUART_ISR_SERVICE_MIDI_OUT && CY_PSOC3)
 468:Generated_Source\PSoC5/USBUART_episr.c ****             EA = int_en;
 469:Generated_Source\PSoC5/USBUART_episr.c ****         #endif /* CY_PSOC3 & USBUART_ISR_SERVICE_MIDI_OUT  */
 470:Generated_Source\PSoC5/USBUART_episr.c ****     }
 471:Generated_Source\PSoC5/USBUART_episr.c **** 
 472:Generated_Source\PSoC5/USBUART_episr.c **** #endif   /*  USBUART_EP6_ISR_REMOVE */
 473:Generated_Source\PSoC5/USBUART_episr.c **** 
 474:Generated_Source\PSoC5/USBUART_episr.c **** 
 475:Generated_Source\PSoC5/USBUART_episr.c **** #if(USBUART_EP7_ISR_REMOVE == 0u)
 476:Generated_Source\PSoC5/USBUART_episr.c **** 
 477:Generated_Source\PSoC5/USBUART_episr.c ****     /*******************************************************************************
 478:Generated_Source\PSoC5/USBUART_episr.c ****     * Function Name: USBUART_EP_7_ISR
 479:Generated_Source\PSoC5/USBUART_episr.c ****     ********************************************************************************
 480:Generated_Source\PSoC5/USBUART_episr.c ****     *
 481:Generated_Source\PSoC5/USBUART_episr.c ****     * Summary:
 482:Generated_Source\PSoC5/USBUART_episr.c ****     *  Endpoint 7 Interrupt Service Routine
 483:Generated_Source\PSoC5/USBUART_episr.c ****     *
 484:Generated_Source\PSoC5/USBUART_episr.c ****     * Parameters:
 485:Generated_Source\PSoC5/USBUART_episr.c ****     *  None.
 486:Generated_Source\PSoC5/USBUART_episr.c ****     *
 487:Generated_Source\PSoC5/USBUART_episr.c ****     * Return:
 488:Generated_Source\PSoC5/USBUART_episr.c ****     *  None.
 489:Generated_Source\PSoC5/USBUART_episr.c ****     *
 490:Generated_Source\PSoC5/USBUART_episr.c ****     *******************************************************************************/
 491:Generated_Source\PSoC5/USBUART_episr.c ****     CY_ISR(USBUART_EP_7_ISR)
 492:Generated_Source\PSoC5/USBUART_episr.c ****     {
 493:Generated_Source\PSoC5/USBUART_episr.c ****         #if (defined(USBUART_ENABLE_MIDI_STREAMING) && !defined(USBUART_MAIN_SERVICE_MIDI_OUT) && \
 494:Generated_Source\PSoC5/USBUART_episr.c ****                      USBUART_ISR_SERVICE_MIDI_OUT && CY_PSOC3)
 495:Generated_Source\PSoC5/USBUART_episr.c ****             uint8 int_en;
 496:Generated_Source\PSoC5/USBUART_episr.c ****         #endif /* CY_PSOC3 & USBUART_ISR_SERVICE_MIDI_OUT  */
 497:Generated_Source\PSoC5/USBUART_episr.c **** 
 498:Generated_Source\PSoC5/USBUART_episr.c ****         #ifdef USBUART_EP_7_ISR_ENTRY_CALLBACK
 499:Generated_Source\PSoC5/USBUART_episr.c ****             USBUART_EP_7_ISR_EntryCallback();
 500:Generated_Source\PSoC5/USBUART_episr.c ****         #endif /* USBUART_EP_7_ISR_ENTRY_CALLBACK */
 501:Generated_Source\PSoC5/USBUART_episr.c **** 
 502:Generated_Source\PSoC5/USBUART_episr.c ****         /* `#START EP7_USER_CODE` Place your code here */
 503:Generated_Source\PSoC5/USBUART_episr.c **** 
 504:Generated_Source\PSoC5/USBUART_episr.c ****         /* `#END` */
 505:Generated_Source\PSoC5/USBUART_episr.c **** 
 506:Generated_Source\PSoC5/USBUART_episr.c ****         #if (defined(USBUART_ENABLE_MIDI_STREAMING) && !defined(USBUART_MAIN_SERVICE_MIDI_OUT) && \
 507:Generated_Source\PSoC5/USBUART_episr.c ****                      USBUART_ISR_SERVICE_MIDI_OUT && CY_PSOC3)
 508:Generated_Source\PSoC5/USBUART_episr.c ****             int_en = EA;
 509:Generated_Source\PSoC5/USBUART_episr.c ****             CyGlobalIntEnable;  /* Make sure nested interrupt is enabled */
 510:Generated_Source\PSoC5/USBUART_episr.c ****         #endif /* CY_PSOC3 & USBUART_ISR_SERVICE_MIDI_OUT  */
ARM GAS  C:\Users\MARTHN~1\AppData\Local\Temp\ccEtjiw9.s 			page 14


 511:Generated_Source\PSoC5/USBUART_episr.c **** 
 512:Generated_Source\PSoC5/USBUART_episr.c ****         CY_GET_REG8(USBUART_SIE_EP7_CR0_PTR); /* Must read the mode reg */
 513:Generated_Source\PSoC5/USBUART_episr.c ****         /* Do not toggle ISOC endpoint */
 514:Generated_Source\PSoC5/USBUART_episr.c ****         if((USBUART_EP[USBUART_EP7].attrib & USBUART_EP_TYPE_MASK) !=
 515:Generated_Source\PSoC5/USBUART_episr.c ****                                                                                     USBUART_EP_TYPE
 516:Generated_Source\PSoC5/USBUART_episr.c ****         {
 517:Generated_Source\PSoC5/USBUART_episr.c ****             USBUART_EP[USBUART_EP7].epToggle ^= USBUART_EPX_CNT_DATA_TOGGLE;
 518:Generated_Source\PSoC5/USBUART_episr.c ****         }
 519:Generated_Source\PSoC5/USBUART_episr.c ****         USBUART_EP[USBUART_EP7].apiEpState = USBUART_EVENT_PENDING;
 520:Generated_Source\PSoC5/USBUART_episr.c ****         CY_SET_REG8(USBUART_SIE_EP_INT_SR_PTR, CY_GET_REG8(USBUART_SIE_EP_INT_SR_PTR)
 521:Generated_Source\PSoC5/USBUART_episr.c ****                                                                         & (uint8)~USBUART_SIE_EP_IN
 522:Generated_Source\PSoC5/USBUART_episr.c **** 
 523:Generated_Source\PSoC5/USBUART_episr.c ****         #if (defined(USBUART_ENABLE_MIDI_STREAMING) && !defined(USBUART_MAIN_SERVICE_MIDI_OUT) && \
 524:Generated_Source\PSoC5/USBUART_episr.c ****                      USBUART_ISR_SERVICE_MIDI_OUT)
 525:Generated_Source\PSoC5/USBUART_episr.c ****             if(USBUART_midi_out_ep == USBUART_EP7)
 526:Generated_Source\PSoC5/USBUART_episr.c ****             {
 527:Generated_Source\PSoC5/USBUART_episr.c ****                 USBUART_MIDI_OUT_EP_Service();
 528:Generated_Source\PSoC5/USBUART_episr.c ****             }
 529:Generated_Source\PSoC5/USBUART_episr.c ****         #endif /*  USBUART_ISR_SERVICE_MIDI_OUT  */
 530:Generated_Source\PSoC5/USBUART_episr.c **** 
 531:Generated_Source\PSoC5/USBUART_episr.c ****         /* `#START EP7_END_USER_CODE` Place your code here */
 532:Generated_Source\PSoC5/USBUART_episr.c **** 
 533:Generated_Source\PSoC5/USBUART_episr.c ****         /* `#END` */
 534:Generated_Source\PSoC5/USBUART_episr.c **** 
 535:Generated_Source\PSoC5/USBUART_episr.c ****         #ifdef USBUART_EP_7_ISR_EXIT_CALLBACK
 536:Generated_Source\PSoC5/USBUART_episr.c ****             USBUART_EP_7_ISR_ExitCallback();
 537:Generated_Source\PSoC5/USBUART_episr.c ****         #endif /* USBUART_EP_7_ISR_EXIT_CALLBACK */
 538:Generated_Source\PSoC5/USBUART_episr.c **** 
 539:Generated_Source\PSoC5/USBUART_episr.c ****         #if (defined(USBUART_ENABLE_MIDI_STREAMING) && !defined(USBUART_MAIN_SERVICE_MIDI_OUT) && \
 540:Generated_Source\PSoC5/USBUART_episr.c ****                      USBUART_ISR_SERVICE_MIDI_OUT && CY_PSOC3)
 541:Generated_Source\PSoC5/USBUART_episr.c ****             EA = int_en;
 542:Generated_Source\PSoC5/USBUART_episr.c ****         #endif /* CY_PSOC3 & USBUART_ISR_SERVICE_MIDI_OUT  */
 543:Generated_Source\PSoC5/USBUART_episr.c ****     }
 544:Generated_Source\PSoC5/USBUART_episr.c **** 
 545:Generated_Source\PSoC5/USBUART_episr.c **** #endif   /*  USBUART_EP7_ISR_REMOVE */
 546:Generated_Source\PSoC5/USBUART_episr.c **** 
 547:Generated_Source\PSoC5/USBUART_episr.c **** 
 548:Generated_Source\PSoC5/USBUART_episr.c **** #if(USBUART_EP8_ISR_REMOVE == 0u)
 549:Generated_Source\PSoC5/USBUART_episr.c **** 
 550:Generated_Source\PSoC5/USBUART_episr.c ****     /*******************************************************************************
 551:Generated_Source\PSoC5/USBUART_episr.c ****     * Function Name: USBUART_EP_8_ISR
 552:Generated_Source\PSoC5/USBUART_episr.c ****     ********************************************************************************
 553:Generated_Source\PSoC5/USBUART_episr.c ****     *
 554:Generated_Source\PSoC5/USBUART_episr.c ****     * Summary:
 555:Generated_Source\PSoC5/USBUART_episr.c ****     *  Endpoint 8 Interrupt Service Routine
 556:Generated_Source\PSoC5/USBUART_episr.c ****     *
 557:Generated_Source\PSoC5/USBUART_episr.c ****     * Parameters:
 558:Generated_Source\PSoC5/USBUART_episr.c ****     *  None.
 559:Generated_Source\PSoC5/USBUART_episr.c ****     *
 560:Generated_Source\PSoC5/USBUART_episr.c ****     * Return:
 561:Generated_Source\PSoC5/USBUART_episr.c ****     *  None.
 562:Generated_Source\PSoC5/USBUART_episr.c ****     *
 563:Generated_Source\PSoC5/USBUART_episr.c ****     *******************************************************************************/
 564:Generated_Source\PSoC5/USBUART_episr.c ****     CY_ISR(USBUART_EP_8_ISR)
 565:Generated_Source\PSoC5/USBUART_episr.c ****     {
 566:Generated_Source\PSoC5/USBUART_episr.c ****         #if (defined(USBUART_ENABLE_MIDI_STREAMING) && !defined(USBUART_MAIN_SERVICE_MIDI_OUT) && \
 567:Generated_Source\PSoC5/USBUART_episr.c ****                      USBUART_ISR_SERVICE_MIDI_OUT && CY_PSOC3)
ARM GAS  C:\Users\MARTHN~1\AppData\Local\Temp\ccEtjiw9.s 			page 15


 568:Generated_Source\PSoC5/USBUART_episr.c ****             uint8 int_en;
 569:Generated_Source\PSoC5/USBUART_episr.c ****         #endif /* CY_PSOC3 & USBUART_ISR_SERVICE_MIDI_OUT  */
 570:Generated_Source\PSoC5/USBUART_episr.c **** 
 571:Generated_Source\PSoC5/USBUART_episr.c ****         #ifdef USBUART_EP_8_ISR_ENTRY_CALLBACK
 572:Generated_Source\PSoC5/USBUART_episr.c ****             USBUART_EP_8_ISR_EntryCallback();
 573:Generated_Source\PSoC5/USBUART_episr.c ****         #endif /* USBUART_EP_8_ISR_ENTRY_CALLBACK */
 574:Generated_Source\PSoC5/USBUART_episr.c **** 
 575:Generated_Source\PSoC5/USBUART_episr.c ****         /* `#START EP8_USER_CODE` Place your code here */
 576:Generated_Source\PSoC5/USBUART_episr.c **** 
 577:Generated_Source\PSoC5/USBUART_episr.c ****         /* `#END` */
 578:Generated_Source\PSoC5/USBUART_episr.c **** 
 579:Generated_Source\PSoC5/USBUART_episr.c ****         #if (defined(USBUART_ENABLE_MIDI_STREAMING) && !defined(USBUART_MAIN_SERVICE_MIDI_OUT) && \
 580:Generated_Source\PSoC5/USBUART_episr.c ****                      USBUART_ISR_SERVICE_MIDI_OUT && CY_PSOC3)
 581:Generated_Source\PSoC5/USBUART_episr.c ****             int_en = EA;
 582:Generated_Source\PSoC5/USBUART_episr.c ****             CyGlobalIntEnable;  /* Make sure nested interrupt is enabled */
 583:Generated_Source\PSoC5/USBUART_episr.c ****         #endif /* CY_PSOC3 & USBUART_ISR_SERVICE_MIDI_OUT  */
 584:Generated_Source\PSoC5/USBUART_episr.c **** 
 585:Generated_Source\PSoC5/USBUART_episr.c ****         CY_GET_REG8(USBUART_SIE_EP8_CR0_PTR); /* Must read the mode reg */
 586:Generated_Source\PSoC5/USBUART_episr.c ****         /* Do not toggle ISOC endpoint */
 587:Generated_Source\PSoC5/USBUART_episr.c ****         if((USBUART_EP[USBUART_EP8].attrib & USBUART_EP_TYPE_MASK) !=
 588:Generated_Source\PSoC5/USBUART_episr.c ****                                                                                     USBUART_EP_TYPE
 589:Generated_Source\PSoC5/USBUART_episr.c ****         {
 590:Generated_Source\PSoC5/USBUART_episr.c ****             USBUART_EP[USBUART_EP8].epToggle ^= USBUART_EPX_CNT_DATA_TOGGLE;
 591:Generated_Source\PSoC5/USBUART_episr.c ****         }
 592:Generated_Source\PSoC5/USBUART_episr.c ****         USBUART_EP[USBUART_EP8].apiEpState = USBUART_EVENT_PENDING;
 593:Generated_Source\PSoC5/USBUART_episr.c ****         CY_SET_REG8(USBUART_SIE_EP_INT_SR_PTR, CY_GET_REG8(USBUART_SIE_EP_INT_SR_PTR)
 594:Generated_Source\PSoC5/USBUART_episr.c ****                                                                         & (uint8)~USBUART_SIE_EP_IN
 595:Generated_Source\PSoC5/USBUART_episr.c **** 
 596:Generated_Source\PSoC5/USBUART_episr.c ****         #if (defined(USBUART_ENABLE_MIDI_STREAMING) && !defined(USBUART_MAIN_SERVICE_MIDI_OUT) && \
 597:Generated_Source\PSoC5/USBUART_episr.c ****                      USBUART_ISR_SERVICE_MIDI_OUT)
 598:Generated_Source\PSoC5/USBUART_episr.c ****             if(USBUART_midi_out_ep == USBUART_EP8)
 599:Generated_Source\PSoC5/USBUART_episr.c ****             {
 600:Generated_Source\PSoC5/USBUART_episr.c ****                 USBUART_MIDI_OUT_EP_Service();
 601:Generated_Source\PSoC5/USBUART_episr.c ****             }
 602:Generated_Source\PSoC5/USBUART_episr.c ****         #endif /*  USBUART_ISR_SERVICE_MIDI_OUT */
 603:Generated_Source\PSoC5/USBUART_episr.c **** 
 604:Generated_Source\PSoC5/USBUART_episr.c ****         /* `#START EP8_END_USER_CODE` Place your code here */
 605:Generated_Source\PSoC5/USBUART_episr.c **** 
 606:Generated_Source\PSoC5/USBUART_episr.c ****         /* `#END` */
 607:Generated_Source\PSoC5/USBUART_episr.c **** 
 608:Generated_Source\PSoC5/USBUART_episr.c ****         #ifdef USBUART_EP_8_ISR_EXIT_CALLBACK
 609:Generated_Source\PSoC5/USBUART_episr.c ****             USBUART_EP_8_ISR_ExitCallback();
 610:Generated_Source\PSoC5/USBUART_episr.c ****         #endif /* USBUART_EP_8_ISR_EXIT_CALLBACK */
 611:Generated_Source\PSoC5/USBUART_episr.c **** 
 612:Generated_Source\PSoC5/USBUART_episr.c ****         #if (defined(USBUART_ENABLE_MIDI_STREAMING) && !defined(USBUART_MAIN_SERVICE_MIDI_OUT) && \
 613:Generated_Source\PSoC5/USBUART_episr.c ****                      USBUART_ISR_SERVICE_MIDI_OUT && CY_PSOC3)
 614:Generated_Source\PSoC5/USBUART_episr.c ****             EA = int_en;
 615:Generated_Source\PSoC5/USBUART_episr.c ****         #endif /* CY_PSOC3 & USBUART_ISR_SERVICE_MIDI_OUT  */
 616:Generated_Source\PSoC5/USBUART_episr.c ****     }
 617:Generated_Source\PSoC5/USBUART_episr.c **** 
 618:Generated_Source\PSoC5/USBUART_episr.c **** #endif   /*  USBUART_EP8_ISR_REMOVE */
 619:Generated_Source\PSoC5/USBUART_episr.c **** 
 620:Generated_Source\PSoC5/USBUART_episr.c **** 
 621:Generated_Source\PSoC5/USBUART_episr.c **** /*******************************************************************************
 622:Generated_Source\PSoC5/USBUART_episr.c **** * Function Name: USBUART_SOF_ISR
 623:Generated_Source\PSoC5/USBUART_episr.c **** ********************************************************************************
 624:Generated_Source\PSoC5/USBUART_episr.c **** *
ARM GAS  C:\Users\MARTHN~1\AppData\Local\Temp\ccEtjiw9.s 			page 16


 625:Generated_Source\PSoC5/USBUART_episr.c **** * Summary:
 626:Generated_Source\PSoC5/USBUART_episr.c **** *  Start of Frame Interrupt Service Routine
 627:Generated_Source\PSoC5/USBUART_episr.c **** *
 628:Generated_Source\PSoC5/USBUART_episr.c **** * Parameters:
 629:Generated_Source\PSoC5/USBUART_episr.c **** *  None.
 630:Generated_Source\PSoC5/USBUART_episr.c **** *
 631:Generated_Source\PSoC5/USBUART_episr.c **** * Return:
 632:Generated_Source\PSoC5/USBUART_episr.c **** *  None.
 633:Generated_Source\PSoC5/USBUART_episr.c **** *
 634:Generated_Source\PSoC5/USBUART_episr.c **** *******************************************************************************/
 635:Generated_Source\PSoC5/USBUART_episr.c **** CY_ISR(USBUART_SOF_ISR)
 636:Generated_Source\PSoC5/USBUART_episr.c **** {
 232              		.loc 1 636 0
 233              		.cfi_startproc
 234              		@ args = 0, pretend = 0, frame = 0
 235              		@ frame_needed = 1, uses_anonymous_args = 0
 236              		@ link register save eliminated.
 237 0000 80B4     		push	{r7}
 238              		.cfi_def_cfa_offset 4
 239              		.cfi_offset 7, -4
 240 0002 00AF     		add	r7, sp, #0
 241              		.cfi_def_cfa_register 7
 637:Generated_Source\PSoC5/USBUART_episr.c ****     #ifdef USBUART_SOF_ISR_INTERRUPT_CALLBACK
 638:Generated_Source\PSoC5/USBUART_episr.c ****         USBUART_SOF_ISR_InterruptCallback();
 639:Generated_Source\PSoC5/USBUART_episr.c ****     #endif /* USBUART_SOF_ISR_INTERRUPT_CALLBACK */
 640:Generated_Source\PSoC5/USBUART_episr.c **** 
 641:Generated_Source\PSoC5/USBUART_episr.c ****     /* `#START SOF_USER_CODE` Place your code here */
 642:Generated_Source\PSoC5/USBUART_episr.c **** 
 643:Generated_Source\PSoC5/USBUART_episr.c ****     /* `#END` */
 644:Generated_Source\PSoC5/USBUART_episr.c **** }
 242              		.loc 1 644 0
 243 0004 00BF     		nop
 244 0006 BD46     		mov	sp, r7
 245              		.cfi_def_cfa_register 13
 246              		@ sp needed
 247 0008 80BC     		pop	{r7}
 248              		.cfi_restore 7
 249              		.cfi_def_cfa_offset 0
 250 000a 7047     		bx	lr
 251              		.cfi_endproc
 252              	.LFE3:
 253              		.size	USBUART_SOF_ISR, .-USBUART_SOF_ISR
 254              		.section	.text.USBUART_BUS_RESET_ISR,"ax",%progbits
 255              		.align	2
 256              		.global	USBUART_BUS_RESET_ISR
 257              		.thumb
 258              		.thumb_func
 259              		.type	USBUART_BUS_RESET_ISR, %function
 260              	USBUART_BUS_RESET_ISR:
 261              	.LFB4:
 645:Generated_Source\PSoC5/USBUART_episr.c **** 
 646:Generated_Source\PSoC5/USBUART_episr.c **** 
 647:Generated_Source\PSoC5/USBUART_episr.c **** /*******************************************************************************
 648:Generated_Source\PSoC5/USBUART_episr.c **** * Function Name: USBUART_BUS_RESET_ISR
 649:Generated_Source\PSoC5/USBUART_episr.c **** ********************************************************************************
 650:Generated_Source\PSoC5/USBUART_episr.c **** *
 651:Generated_Source\PSoC5/USBUART_episr.c **** * Summary:
ARM GAS  C:\Users\MARTHN~1\AppData\Local\Temp\ccEtjiw9.s 			page 17


 652:Generated_Source\PSoC5/USBUART_episr.c **** *  USB Bus Reset Interrupt Service Routine.  Calls _Start with the same
 653:Generated_Source\PSoC5/USBUART_episr.c **** *  parameters as the last USER call to _Start
 654:Generated_Source\PSoC5/USBUART_episr.c **** *
 655:Generated_Source\PSoC5/USBUART_episr.c **** * Parameters:
 656:Generated_Source\PSoC5/USBUART_episr.c **** *  None.
 657:Generated_Source\PSoC5/USBUART_episr.c **** *
 658:Generated_Source\PSoC5/USBUART_episr.c **** * Return:
 659:Generated_Source\PSoC5/USBUART_episr.c **** *  None.
 660:Generated_Source\PSoC5/USBUART_episr.c **** *
 661:Generated_Source\PSoC5/USBUART_episr.c **** *******************************************************************************/
 662:Generated_Source\PSoC5/USBUART_episr.c **** CY_ISR(USBUART_BUS_RESET_ISR)
 663:Generated_Source\PSoC5/USBUART_episr.c **** {
 262              		.loc 1 663 0
 263              		.cfi_startproc
 264              		@ args = 0, pretend = 0, frame = 0
 265              		@ frame_needed = 1, uses_anonymous_args = 0
 266 0000 80B5     		push	{r7, lr}
 267              		.cfi_def_cfa_offset 8
 268              		.cfi_offset 7, -8
 269              		.cfi_offset 14, -4
 270 0002 00AF     		add	r7, sp, #0
 271              		.cfi_def_cfa_register 7
 664:Generated_Source\PSoC5/USBUART_episr.c ****     #ifdef USBUART_BUS_RESET_ISR_ENTRY_CALLBACK
 665:Generated_Source\PSoC5/USBUART_episr.c ****         USBUART_BUS_RESET_ISR_EntryCallback();
 666:Generated_Source\PSoC5/USBUART_episr.c ****     #endif /* USBUART_BUS_RESET_ISR_ENTRY_CALLBACK */
 667:Generated_Source\PSoC5/USBUART_episr.c **** 
 668:Generated_Source\PSoC5/USBUART_episr.c ****     /* `#START BUS_RESET_USER_CODE` Place your code here */
 669:Generated_Source\PSoC5/USBUART_episr.c **** 
 670:Generated_Source\PSoC5/USBUART_episr.c ****     /* `#END` */
 671:Generated_Source\PSoC5/USBUART_episr.c **** 
 672:Generated_Source\PSoC5/USBUART_episr.c ****     USBUART_ReInitComponent();
 272              		.loc 1 672 0
 273 0004 FFF7FEFF 		bl	USBUART_ReInitComponent
 673:Generated_Source\PSoC5/USBUART_episr.c **** 
 674:Generated_Source\PSoC5/USBUART_episr.c ****     #ifdef USBUART_BUS_RESET_ISR_EXIT_CALLBACK
 675:Generated_Source\PSoC5/USBUART_episr.c ****         USBUART_BUS_RESET_ISR_ExitCallback();
 676:Generated_Source\PSoC5/USBUART_episr.c ****     #endif /* USBUART_BUS_RESET_ISR_EXIT_CALLBACK */    
 677:Generated_Source\PSoC5/USBUART_episr.c **** }
 274              		.loc 1 677 0
 275 0008 00BF     		nop
 276 000a 80BD     		pop	{r7, pc}
 277              		.cfi_endproc
 278              	.LFE4:
 279              		.size	USBUART_BUS_RESET_ISR, .-USBUART_BUS_RESET_ISR
 280              		.text
 281              	.Letext0:
 282              		.file 2 "Generated_Source\\PSoC5\\cytypes.h"
 283              		.file 3 "Generated_Source\\PSoC5\\USBUART.h"
 284              		.file 4 "Generated_Source\\PSoC5\\USBUART_pvt.h"