ARM GAS  C:\Users\MARTHN~1\AppData\Local\Temp\cc8Ep4W1.s 			page 1


   1              		.syntax unified
   2              		.cpu cortex-m3
   3              		.fpu softvfp
   4              		.eabi_attribute 20, 1
   5              		.eabi_attribute 21, 1
   6              		.eabi_attribute 23, 3
   7              		.eabi_attribute 24, 1
   8              		.eabi_attribute 25, 1
   9              		.eabi_attribute 26, 1
  10              		.eabi_attribute 30, 6
  11              		.eabi_attribute 34, 1
  12              		.eabi_attribute 18, 4
  13              		.thumb
  14              		.syntax unified
  15              		.file	"WaveDAC.c"
  16              		.text
  17              	.Ltext0:
  18              		.cfi_sections	.debug_frame
  19              		.global	WaveDAC_initVar
  20              		.bss
  21              		.type	WaveDAC_initVar, %object
  22              		.size	WaveDAC_initVar, 1
  23              	WaveDAC_initVar:
  24 0000 00       		.space	1
  25              		.global	WaveDAC_wave1
  26              		.section	.rodata
  27              		.align	2
  28              		.type	WaveDAC_wave1, %object
  29              		.size	WaveDAC_wave1, 100
  30              	WaveDAC_wave1:
  31 0000 BE       		.byte	-66
  32 0001 BE       		.byte	-66
  33 0002 BE       		.byte	-66
  34 0003 BE       		.byte	-66
  35 0004 BE       		.byte	-66
  36 0005 BE       		.byte	-66
  37 0006 BE       		.byte	-66
  38 0007 BE       		.byte	-66
  39 0008 BE       		.byte	-66
  40 0009 BE       		.byte	-66
  41 000a BE       		.byte	-66
  42 000b BE       		.byte	-66
  43 000c BE       		.byte	-66
  44 000d BE       		.byte	-66
  45 000e BE       		.byte	-66
  46 000f BE       		.byte	-66
  47 0010 BE       		.byte	-66
  48 0011 BE       		.byte	-66
  49 0012 BE       		.byte	-66
  50 0013 BE       		.byte	-66
  51 0014 BE       		.byte	-66
  52 0015 BE       		.byte	-66
  53 0016 BE       		.byte	-66
  54 0017 BE       		.byte	-66
  55 0018 BE       		.byte	-66
  56 0019 BE       		.byte	-66
  57 001a BE       		.byte	-66
ARM GAS  C:\Users\MARTHN~1\AppData\Local\Temp\cc8Ep4W1.s 			page 2


  58 001b BE       		.byte	-66
  59 001c BE       		.byte	-66
  60 001d BE       		.byte	-66
  61 001e BE       		.byte	-66
  62 001f BE       		.byte	-66
  63 0020 BE       		.byte	-66
  64 0021 BE       		.byte	-66
  65 0022 BE       		.byte	-66
  66 0023 BE       		.byte	-66
  67 0024 BE       		.byte	-66
  68 0025 BE       		.byte	-66
  69 0026 BE       		.byte	-66
  70 0027 BE       		.byte	-66
  71 0028 BE       		.byte	-66
  72 0029 BE       		.byte	-66
  73 002a BE       		.byte	-66
  74 002b BE       		.byte	-66
  75 002c BE       		.byte	-66
  76 002d BE       		.byte	-66
  77 002e BE       		.byte	-66
  78 002f BE       		.byte	-66
  79 0030 BE       		.byte	-66
  80 0031 BE       		.byte	-66
  81 0032 41       		.byte	65
  82 0033 41       		.byte	65
  83 0034 41       		.byte	65
  84 0035 41       		.byte	65
  85 0036 41       		.byte	65
  86 0037 41       		.byte	65
  87 0038 41       		.byte	65
  88 0039 41       		.byte	65
  89 003a 41       		.byte	65
  90 003b 41       		.byte	65
  91 003c 41       		.byte	65
  92 003d 41       		.byte	65
  93 003e 41       		.byte	65
  94 003f 41       		.byte	65
  95 0040 41       		.byte	65
  96 0041 41       		.byte	65
  97 0042 41       		.byte	65
  98 0043 41       		.byte	65
  99 0044 41       		.byte	65
 100 0045 41       		.byte	65
 101 0046 41       		.byte	65
 102 0047 41       		.byte	65
 103 0048 41       		.byte	65
 104 0049 41       		.byte	65
 105 004a 41       		.byte	65
 106 004b 41       		.byte	65
 107 004c 41       		.byte	65
 108 004d 41       		.byte	65
 109 004e 41       		.byte	65
 110 004f 41       		.byte	65
 111 0050 41       		.byte	65
 112 0051 41       		.byte	65
 113 0052 41       		.byte	65
 114 0053 41       		.byte	65
ARM GAS  C:\Users\MARTHN~1\AppData\Local\Temp\cc8Ep4W1.s 			page 3


 115 0054 41       		.byte	65
 116 0055 41       		.byte	65
 117 0056 41       		.byte	65
 118 0057 41       		.byte	65
 119 0058 41       		.byte	65
 120 0059 41       		.byte	65
 121 005a 41       		.byte	65
 122 005b 41       		.byte	65
 123 005c 41       		.byte	65
 124 005d 41       		.byte	65
 125 005e 41       		.byte	65
 126 005f 41       		.byte	65
 127 0060 41       		.byte	65
 128 0061 41       		.byte	65
 129 0062 41       		.byte	65
 130 0063 41       		.byte	65
 131              		.global	WaveDAC_wave2
 132              		.align	2
 133              		.type	WaveDAC_wave2, %object
 134              		.size	WaveDAC_wave2, 100
 135              	WaveDAC_wave2:
 136 0064 80       		.byte	-128
 137 0065 84       		.byte	-124
 138 0066 8A       		.byte	-118
 139 0067 8F       		.byte	-113
 140 0068 94       		.byte	-108
 141 0069 98       		.byte	-104
 142 006a 9E       		.byte	-98
 143 006b A2       		.byte	-94
 144 006c A8       		.byte	-88
 145 006d AC       		.byte	-84
 146 006e B2       		.byte	-78
 147 006f B6       		.byte	-74
 148 0070 BC       		.byte	-68
 149 0071 C0       		.byte	-64
 150 0072 C6       		.byte	-58
 151 0073 CA       		.byte	-54
 152 0074 D0       		.byte	-48
 153 0075 D5       		.byte	-43
 154 0076 DA       		.byte	-38
 155 0077 DE       		.byte	-34
 156 0078 E4       		.byte	-28
 157 0079 E8       		.byte	-24
 158 007a EE       		.byte	-18
 159 007b F2       		.byte	-14
 160 007c F8       		.byte	-8
 161 007d FC       		.byte	-4
 162 007e F8       		.byte	-8
 163 007f F2       		.byte	-14
 164 0080 EE       		.byte	-18
 165 0081 E8       		.byte	-24
 166 0082 E4       		.byte	-28
 167 0083 DE       		.byte	-34
 168 0084 DA       		.byte	-38
 169 0085 D4       		.byte	-44
 170 0086 D0       		.byte	-48
 171 0087 CA       		.byte	-54
ARM GAS  C:\Users\MARTHN~1\AppData\Local\Temp\cc8Ep4W1.s 			page 4


 172 0088 C6       		.byte	-58
 173 0089 C0       		.byte	-64
 174 008a BC       		.byte	-68
 175 008b B6       		.byte	-74
 176 008c B2       		.byte	-78
 177 008d AD       		.byte	-83
 178 008e A8       		.byte	-88
 179 008f A2       		.byte	-94
 180 0090 9E       		.byte	-98
 181 0091 98       		.byte	-104
 182 0092 94       		.byte	-108
 183 0093 8F       		.byte	-113
 184 0094 8A       		.byte	-118
 185 0095 84       		.byte	-124
 186 0096 80       		.byte	-128
 187 0097 7A       		.byte	122
 188 0098 76       		.byte	118
 189 0099 70       		.byte	112
 190 009a 6B       		.byte	107
 191 009b 66       		.byte	102
 192 009c 61       		.byte	97
 193 009d 5D       		.byte	93
 194 009e 58       		.byte	88
 195 009f 53       		.byte	83
 196 00a0 4E       		.byte	78
 197 00a1 49       		.byte	73
 198 00a2 44       		.byte	68
 199 00a3 3E       		.byte	62
 200 00a4 39       		.byte	57
 201 00a5 34       		.byte	52
 202 00a6 2F       		.byte	47
 203 00a7 2A       		.byte	42
 204 00a8 25       		.byte	37
 205 00a9 21       		.byte	33
 206 00aa 1C       		.byte	28
 207 00ab 17       		.byte	23
 208 00ac 12       		.byte	18
 209 00ad 0D       		.byte	13
 210 00ae 08       		.byte	8
 211 00af 03       		.byte	3
 212 00b0 08       		.byte	8
 213 00b1 0D       		.byte	13
 214 00b2 12       		.byte	18
 215 00b3 17       		.byte	23
 216 00b4 1C       		.byte	28
 217 00b5 21       		.byte	33
 218 00b6 25       		.byte	37
 219 00b7 2A       		.byte	42
 220 00b8 2F       		.byte	47
 221 00b9 34       		.byte	52
 222 00ba 39       		.byte	57
 223 00bb 3E       		.byte	62
 224 00bc 44       		.byte	68
 225 00bd 49       		.byte	73
 226 00be 4E       		.byte	78
 227 00bf 53       		.byte	83
 228 00c0 58       		.byte	88
ARM GAS  C:\Users\MARTHN~1\AppData\Local\Temp\cc8Ep4W1.s 			page 5


 229 00c1 5D       		.byte	93
 230 00c2 61       		.byte	97
 231 00c3 66       		.byte	102
 232 00c4 6B       		.byte	107
 233 00c5 70       		.byte	112
 234 00c6 76       		.byte	118
 235 00c7 7A       		.byte	122
 236              		.bss
 237              	WaveDAC_Wave1Chan:
 238 0001 00       		.space	1
 239              	WaveDAC_Wave2Chan:
 240 0002 00       		.space	1
 241              	WaveDAC_Wave1TD:
 242 0003 00       		.space	1
 243              	WaveDAC_Wave2TD:
 244 0004 00       		.space	1
 245              		.section	.text.WaveDAC_Init,"ax",%progbits
 246              		.align	2
 247              		.global	WaveDAC_Init
 248              		.thumb
 249              		.thumb_func
 250              		.type	WaveDAC_Init, %function
 251              	WaveDAC_Init:
 252              	.LFB0:
 253              		.file 1 "Generated_Source\\PSoC5\\WaveDAC.c"
   1:Generated_Source\PSoC5/WaveDAC.c **** /*******************************************************************************
   2:Generated_Source\PSoC5/WaveDAC.c **** * File Name: WaveDAC.c
   3:Generated_Source\PSoC5/WaveDAC.c **** * Version 2.10
   4:Generated_Source\PSoC5/WaveDAC.c **** *
   5:Generated_Source\PSoC5/WaveDAC.c **** * Description:
   6:Generated_Source\PSoC5/WaveDAC.c **** *  This file provides the source code for the 8-bit Waveform DAC 
   7:Generated_Source\PSoC5/WaveDAC.c **** *  (WaveDAC8) Component.
   8:Generated_Source\PSoC5/WaveDAC.c **** *
   9:Generated_Source\PSoC5/WaveDAC.c **** ********************************************************************************
  10:Generated_Source\PSoC5/WaveDAC.c **** * Copyright 2013, Cypress Semiconductor Corporation.  All rights reserved.
  11:Generated_Source\PSoC5/WaveDAC.c **** * You may use this file only in accordance with the license, terms, conditions,
  12:Generated_Source\PSoC5/WaveDAC.c **** * disclaimers, and limitations in the end user license agreement accompanying
  13:Generated_Source\PSoC5/WaveDAC.c **** * the software package with which this file was provided.
  14:Generated_Source\PSoC5/WaveDAC.c **** *******************************************************************************/
  15:Generated_Source\PSoC5/WaveDAC.c **** 
  16:Generated_Source\PSoC5/WaveDAC.c **** #include "WaveDAC.h"
  17:Generated_Source\PSoC5/WaveDAC.c **** 
  18:Generated_Source\PSoC5/WaveDAC.c **** uint8  WaveDAC_initVar = 0u;
  19:Generated_Source\PSoC5/WaveDAC.c **** 
  20:Generated_Source\PSoC5/WaveDAC.c **** const uint8 CYCODE WaveDAC_wave1[WaveDAC_WAVE1_LENGTH] = { 190u,190u,190u,190u,190u,190u,190u,190u,
  21:Generated_Source\PSoC5/WaveDAC.c **** const uint8 CYCODE WaveDAC_wave2[WaveDAC_WAVE2_LENGTH] = { 128u,132u,138u,143u,148u,152u,158u,162u,
  22:Generated_Source\PSoC5/WaveDAC.c **** 
  23:Generated_Source\PSoC5/WaveDAC.c **** static uint8  WaveDAC_Wave1Chan;
  24:Generated_Source\PSoC5/WaveDAC.c **** static uint8  WaveDAC_Wave2Chan;
  25:Generated_Source\PSoC5/WaveDAC.c **** static uint8  WaveDAC_Wave1TD;
  26:Generated_Source\PSoC5/WaveDAC.c **** static uint8  WaveDAC_Wave2TD;
  27:Generated_Source\PSoC5/WaveDAC.c **** 
  28:Generated_Source\PSoC5/WaveDAC.c **** 
  29:Generated_Source\PSoC5/WaveDAC.c **** /*******************************************************************************
  30:Generated_Source\PSoC5/WaveDAC.c **** * Function Name: WaveDAC_Init
  31:Generated_Source\PSoC5/WaveDAC.c **** ********************************************************************************
  32:Generated_Source\PSoC5/WaveDAC.c **** *
ARM GAS  C:\Users\MARTHN~1\AppData\Local\Temp\cc8Ep4W1.s 			page 6


  33:Generated_Source\PSoC5/WaveDAC.c **** * Summary:
  34:Generated_Source\PSoC5/WaveDAC.c **** *  Initializes component with parameters set in the customizer.
  35:Generated_Source\PSoC5/WaveDAC.c **** *
  36:Generated_Source\PSoC5/WaveDAC.c **** * Parameters:  
  37:Generated_Source\PSoC5/WaveDAC.c **** *  None
  38:Generated_Source\PSoC5/WaveDAC.c **** *
  39:Generated_Source\PSoC5/WaveDAC.c **** * Return: 
  40:Generated_Source\PSoC5/WaveDAC.c **** *  None
  41:Generated_Source\PSoC5/WaveDAC.c **** *
  42:Generated_Source\PSoC5/WaveDAC.c **** *******************************************************************************/
  43:Generated_Source\PSoC5/WaveDAC.c **** void WaveDAC_Init(void) 
  44:Generated_Source\PSoC5/WaveDAC.c **** {
 254              		.loc 1 44 0
 255              		.cfi_startproc
 256              		@ args = 0, pretend = 0, frame = 0
 257              		@ frame_needed = 1, uses_anonymous_args = 0
 258 0000 80B5     		push	{r7, lr}
 259              		.cfi_def_cfa_offset 8
 260              		.cfi_offset 7, -8
 261              		.cfi_offset 14, -4
 262 0002 00AF     		add	r7, sp, #0
 263              		.cfi_def_cfa_register 7
  45:Generated_Source\PSoC5/WaveDAC.c **** 	WaveDAC_VDAC8_Init();
 264              		.loc 1 45 0
 265 0004 FFF7FEFF 		bl	WaveDAC_VDAC8_Init
  46:Generated_Source\PSoC5/WaveDAC.c **** 	WaveDAC_VDAC8_SetSpeed(WaveDAC_HIGHSPEED);
 266              		.loc 1 46 0
 267 0008 0220     		movs	r0, #2
 268 000a FFF7FEFF 		bl	WaveDAC_VDAC8_SetSpeed
  47:Generated_Source\PSoC5/WaveDAC.c **** 	WaveDAC_VDAC8_SetRange(WaveDAC_DAC_RANGE);
 269              		.loc 1 47 0
 270 000e 0420     		movs	r0, #4
 271 0010 FFF7FEFF 		bl	WaveDAC_VDAC8_SetRange
  48:Generated_Source\PSoC5/WaveDAC.c **** 
  49:Generated_Source\PSoC5/WaveDAC.c **** 	#if(WaveDAC_DAC_MODE == WaveDAC_CURRENT_MODE)
  50:Generated_Source\PSoC5/WaveDAC.c **** 		WaveDAC_IDAC8_SetPolarity(WaveDAC_DAC_POL);
  51:Generated_Source\PSoC5/WaveDAC.c **** 	#endif /* WaveDAC_DAC_MODE == WaveDAC_CURRENT_MODE */
  52:Generated_Source\PSoC5/WaveDAC.c **** 
  53:Generated_Source\PSoC5/WaveDAC.c **** 	#if(WaveDAC_OUT_MODE == WaveDAC_BUFFER_MODE)
  54:Generated_Source\PSoC5/WaveDAC.c **** 	   WaveDAC_BuffAmp_Init();
  55:Generated_Source\PSoC5/WaveDAC.c **** 	#endif /* WaveDAC_OUT_MODE == WaveDAC_BUFFER_MODE */
  56:Generated_Source\PSoC5/WaveDAC.c **** 
  57:Generated_Source\PSoC5/WaveDAC.c **** 	/* Get the TD Number for the DMA channel 1 and 2   */
  58:Generated_Source\PSoC5/WaveDAC.c **** 	WaveDAC_Wave1TD = CyDmaTdAllocate();
 272              		.loc 1 58 0
 273 0014 FFF7FEFF 		bl	CyDmaTdAllocate
 274 0018 0346     		mov	r3, r0
 275 001a 1A46     		mov	r2, r3
 276 001c 084B     		ldr	r3, .L2
 277 001e 1A70     		strb	r2, [r3]
  59:Generated_Source\PSoC5/WaveDAC.c **** 	WaveDAC_Wave2TD = CyDmaTdAllocate();
 278              		.loc 1 59 0
 279 0020 FFF7FEFF 		bl	CyDmaTdAllocate
 280 0024 0346     		mov	r3, r0
 281 0026 1A46     		mov	r2, r3
 282 0028 064B     		ldr	r3, .L2+4
 283 002a 1A70     		strb	r2, [r3]
ARM GAS  C:\Users\MARTHN~1\AppData\Local\Temp\cc8Ep4W1.s 			page 7


  60:Generated_Source\PSoC5/WaveDAC.c **** 	
  61:Generated_Source\PSoC5/WaveDAC.c **** 	/* Initialize waveform pointers  */
  62:Generated_Source\PSoC5/WaveDAC.c **** 	WaveDAC_Wave1Setup(WaveDAC_wave1, WaveDAC_WAVE1_LENGTH) ;
 284              		.loc 1 62 0
 285 002c 6421     		movs	r1, #100
 286 002e 0648     		ldr	r0, .L2+8
 287 0030 FFF7FEFF 		bl	WaveDAC_Wave1Setup
  63:Generated_Source\PSoC5/WaveDAC.c **** 	WaveDAC_Wave2Setup(WaveDAC_wave2, WaveDAC_WAVE2_LENGTH) ;
 288              		.loc 1 63 0
 289 0034 6421     		movs	r1, #100
 290 0036 0548     		ldr	r0, .L2+12
 291 0038 FFF7FEFF 		bl	WaveDAC_Wave2Setup
  64:Generated_Source\PSoC5/WaveDAC.c **** 	
  65:Generated_Source\PSoC5/WaveDAC.c **** 	/* Initialize the internal clock if one present  */
  66:Generated_Source\PSoC5/WaveDAC.c **** 	#if defined(WaveDAC_DacClk_PHASE)
  67:Generated_Source\PSoC5/WaveDAC.c **** 	   WaveDAC_DacClk_SetPhase(WaveDAC_CLK_PHASE_0nS);
  68:Generated_Source\PSoC5/WaveDAC.c **** 	#endif /* defined(WaveDAC_DacClk_PHASE) */
  69:Generated_Source\PSoC5/WaveDAC.c **** }
 292              		.loc 1 69 0
 293 003c 00BF     		nop
 294 003e 80BD     		pop	{r7, pc}
 295              	.L3:
 296              		.align	2
 297              	.L2:
 298 0040 03000000 		.word	WaveDAC_Wave1TD
 299 0044 04000000 		.word	WaveDAC_Wave2TD
 300 0048 00000000 		.word	WaveDAC_wave1
 301 004c 00000000 		.word	WaveDAC_wave2
 302              		.cfi_endproc
 303              	.LFE0:
 304              		.size	WaveDAC_Init, .-WaveDAC_Init
 305              		.section	.text.WaveDAC_Enable,"ax",%progbits
 306              		.align	2
 307              		.global	WaveDAC_Enable
 308              		.thumb
 309              		.thumb_func
 310              		.type	WaveDAC_Enable, %function
 311              	WaveDAC_Enable:
 312              	.LFB1:
  70:Generated_Source\PSoC5/WaveDAC.c **** 
  71:Generated_Source\PSoC5/WaveDAC.c **** 
  72:Generated_Source\PSoC5/WaveDAC.c **** /*******************************************************************************
  73:Generated_Source\PSoC5/WaveDAC.c **** * Function Name: WaveDAC_Enable
  74:Generated_Source\PSoC5/WaveDAC.c **** ********************************************************************************
  75:Generated_Source\PSoC5/WaveDAC.c **** *  
  76:Generated_Source\PSoC5/WaveDAC.c **** * Summary: 
  77:Generated_Source\PSoC5/WaveDAC.c **** *  Enables the DAC block and DMA operation.
  78:Generated_Source\PSoC5/WaveDAC.c **** *
  79:Generated_Source\PSoC5/WaveDAC.c **** * Parameters:  
  80:Generated_Source\PSoC5/WaveDAC.c **** *  None
  81:Generated_Source\PSoC5/WaveDAC.c **** *
  82:Generated_Source\PSoC5/WaveDAC.c **** * Return: 
  83:Generated_Source\PSoC5/WaveDAC.c **** *  None
  84:Generated_Source\PSoC5/WaveDAC.c **** *
  85:Generated_Source\PSoC5/WaveDAC.c **** *******************************************************************************/
  86:Generated_Source\PSoC5/WaveDAC.c **** void WaveDAC_Enable(void) 
  87:Generated_Source\PSoC5/WaveDAC.c **** {
ARM GAS  C:\Users\MARTHN~1\AppData\Local\Temp\cc8Ep4W1.s 			page 8


 313              		.loc 1 87 0
 314              		.cfi_startproc
 315              		@ args = 0, pretend = 0, frame = 0
 316              		@ frame_needed = 1, uses_anonymous_args = 0
 317 0000 80B5     		push	{r7, lr}
 318              		.cfi_def_cfa_offset 8
 319              		.cfi_offset 7, -8
 320              		.cfi_offset 14, -4
 321 0002 00AF     		add	r7, sp, #0
 322              		.cfi_def_cfa_register 7
  88:Generated_Source\PSoC5/WaveDAC.c **** 	WaveDAC_VDAC8_Enable();
 323              		.loc 1 88 0
 324 0004 FFF7FEFF 		bl	WaveDAC_VDAC8_Enable
  89:Generated_Source\PSoC5/WaveDAC.c **** 
  90:Generated_Source\PSoC5/WaveDAC.c **** 	#if(WaveDAC_OUT_MODE == WaveDAC_BUFFER_MODE)
  91:Generated_Source\PSoC5/WaveDAC.c **** 	   WaveDAC_BuffAmp_Enable();
  92:Generated_Source\PSoC5/WaveDAC.c **** 	#endif /* WaveDAC_OUT_MODE == WaveDAC_BUFFER_MODE */
  93:Generated_Source\PSoC5/WaveDAC.c **** 
  94:Generated_Source\PSoC5/WaveDAC.c **** 	/* 
  95:Generated_Source\PSoC5/WaveDAC.c **** 	* Enable the channel. It is configured to remember the TD value so that
  96:Generated_Source\PSoC5/WaveDAC.c **** 	* it can be restored from the place where it has been stopped.
  97:Generated_Source\PSoC5/WaveDAC.c **** 	*/
  98:Generated_Source\PSoC5/WaveDAC.c **** 	(void)CyDmaChEnable(WaveDAC_Wave1Chan, 1u);
 325              		.loc 1 98 0
 326 0008 084B     		ldr	r3, .L5
 327 000a 1B78     		ldrb	r3, [r3]	@ zero_extendqisi2
 328 000c 0121     		movs	r1, #1
 329 000e 1846     		mov	r0, r3
 330 0010 FFF7FEFF 		bl	CyDmaChEnable
  99:Generated_Source\PSoC5/WaveDAC.c **** 	(void)CyDmaChEnable(WaveDAC_Wave2Chan, 1u);
 331              		.loc 1 99 0
 332 0014 064B     		ldr	r3, .L5+4
 333 0016 1B78     		ldrb	r3, [r3]	@ zero_extendqisi2
 334 0018 0121     		movs	r1, #1
 335 001a 1846     		mov	r0, r3
 336 001c FFF7FEFF 		bl	CyDmaChEnable
 100:Generated_Source\PSoC5/WaveDAC.c **** 	
 101:Generated_Source\PSoC5/WaveDAC.c **** 	/* set the initial value */
 102:Generated_Source\PSoC5/WaveDAC.c **** 	WaveDAC_SetValue(0u);
 337              		.loc 1 102 0
 338 0020 0020     		movs	r0, #0
 339 0022 FFF7FEFF 		bl	WaveDAC_VDAC8_SetValue
 103:Generated_Source\PSoC5/WaveDAC.c **** 	
 104:Generated_Source\PSoC5/WaveDAC.c **** 	#if(WaveDAC_CLOCK_SRC == WaveDAC_CLOCK_INT)  	
 105:Generated_Source\PSoC5/WaveDAC.c **** 	   WaveDAC_DacClk_Start();
 106:Generated_Source\PSoC5/WaveDAC.c **** 	#endif /* WaveDAC_CLOCK_SRC == WaveDAC_CLOCK_INT */
 107:Generated_Source\PSoC5/WaveDAC.c **** }
 340              		.loc 1 107 0
 341 0026 00BF     		nop
 342 0028 80BD     		pop	{r7, pc}
 343              	.L6:
 344 002a 00BF     		.align	2
 345              	.L5:
 346 002c 01000000 		.word	WaveDAC_Wave1Chan
 347 0030 02000000 		.word	WaveDAC_Wave2Chan
 348              		.cfi_endproc
 349              	.LFE1:
ARM GAS  C:\Users\MARTHN~1\AppData\Local\Temp\cc8Ep4W1.s 			page 9


 350              		.size	WaveDAC_Enable, .-WaveDAC_Enable
 351              		.section	.text.WaveDAC_Start,"ax",%progbits
 352              		.align	2
 353              		.global	WaveDAC_Start
 354              		.thumb
 355              		.thumb_func
 356              		.type	WaveDAC_Start, %function
 357              	WaveDAC_Start:
 358              	.LFB2:
 108:Generated_Source\PSoC5/WaveDAC.c **** 
 109:Generated_Source\PSoC5/WaveDAC.c **** 
 110:Generated_Source\PSoC5/WaveDAC.c **** /*******************************************************************************
 111:Generated_Source\PSoC5/WaveDAC.c **** * Function Name: WaveDAC_Start
 112:Generated_Source\PSoC5/WaveDAC.c **** ********************************************************************************
 113:Generated_Source\PSoC5/WaveDAC.c **** *
 114:Generated_Source\PSoC5/WaveDAC.c **** * Summary:
 115:Generated_Source\PSoC5/WaveDAC.c **** *  The start function initializes the voltage DAC with the default values, 
 116:Generated_Source\PSoC5/WaveDAC.c **** *  and sets the power to the given level.  A power level of 0, is the same as 
 117:Generated_Source\PSoC5/WaveDAC.c **** *  executing the stop function.
 118:Generated_Source\PSoC5/WaveDAC.c **** *
 119:Generated_Source\PSoC5/WaveDAC.c **** * Parameters:  
 120:Generated_Source\PSoC5/WaveDAC.c **** *  None
 121:Generated_Source\PSoC5/WaveDAC.c **** *
 122:Generated_Source\PSoC5/WaveDAC.c **** * Return: 
 123:Generated_Source\PSoC5/WaveDAC.c **** *  None
 124:Generated_Source\PSoC5/WaveDAC.c **** *
 125:Generated_Source\PSoC5/WaveDAC.c **** * Reentrant:
 126:Generated_Source\PSoC5/WaveDAC.c **** *  No
 127:Generated_Source\PSoC5/WaveDAC.c **** *
 128:Generated_Source\PSoC5/WaveDAC.c **** *******************************************************************************/
 129:Generated_Source\PSoC5/WaveDAC.c **** void WaveDAC_Start(void) 
 130:Generated_Source\PSoC5/WaveDAC.c **** {
 359              		.loc 1 130 0
 360              		.cfi_startproc
 361              		@ args = 0, pretend = 0, frame = 0
 362              		@ frame_needed = 1, uses_anonymous_args = 0
 363 0000 80B5     		push	{r7, lr}
 364              		.cfi_def_cfa_offset 8
 365              		.cfi_offset 7, -8
 366              		.cfi_offset 14, -4
 367 0002 00AF     		add	r7, sp, #0
 368              		.cfi_def_cfa_register 7
 131:Generated_Source\PSoC5/WaveDAC.c **** 	/* If not Initialized then initialize all required hardware and software */
 132:Generated_Source\PSoC5/WaveDAC.c **** 	if(WaveDAC_initVar == 0u)
 369              		.loc 1 132 0
 370 0004 064B     		ldr	r3, .L9
 371 0006 1B78     		ldrb	r3, [r3]	@ zero_extendqisi2
 372 0008 002B     		cmp	r3, #0
 373 000a 04D1     		bne	.L8
 133:Generated_Source\PSoC5/WaveDAC.c **** 	{
 134:Generated_Source\PSoC5/WaveDAC.c **** 		WaveDAC_Init();
 374              		.loc 1 134 0
 375 000c FFF7FEFF 		bl	WaveDAC_Init
 135:Generated_Source\PSoC5/WaveDAC.c **** 		WaveDAC_initVar = 1u;
 376              		.loc 1 135 0
 377 0010 034B     		ldr	r3, .L9
 378 0012 0122     		movs	r2, #1
ARM GAS  C:\Users\MARTHN~1\AppData\Local\Temp\cc8Ep4W1.s 			page 10


 379 0014 1A70     		strb	r2, [r3]
 380              	.L8:
 136:Generated_Source\PSoC5/WaveDAC.c **** 	}
 137:Generated_Source\PSoC5/WaveDAC.c **** 	
 138:Generated_Source\PSoC5/WaveDAC.c **** 	WaveDAC_Enable();
 381              		.loc 1 138 0
 382 0016 FFF7FEFF 		bl	WaveDAC_Enable
 139:Generated_Source\PSoC5/WaveDAC.c **** }
 383              		.loc 1 139 0
 384 001a 00BF     		nop
 385 001c 80BD     		pop	{r7, pc}
 386              	.L10:
 387 001e 00BF     		.align	2
 388              	.L9:
 389 0020 00000000 		.word	WaveDAC_initVar
 390              		.cfi_endproc
 391              	.LFE2:
 392              		.size	WaveDAC_Start, .-WaveDAC_Start
 393              		.section	.text.WaveDAC_StartEx,"ax",%progbits
 394              		.align	2
 395              		.global	WaveDAC_StartEx
 396              		.thumb
 397              		.thumb_func
 398              		.type	WaveDAC_StartEx, %function
 399              	WaveDAC_StartEx:
 400              	.LFB3:
 140:Generated_Source\PSoC5/WaveDAC.c **** 
 141:Generated_Source\PSoC5/WaveDAC.c **** 
 142:Generated_Source\PSoC5/WaveDAC.c **** /*******************************************************************************
 143:Generated_Source\PSoC5/WaveDAC.c **** * Function Name: WaveDAC_StartEx
 144:Generated_Source\PSoC5/WaveDAC.c **** ********************************************************************************
 145:Generated_Source\PSoC5/WaveDAC.c **** *
 146:Generated_Source\PSoC5/WaveDAC.c **** * Summary:
 147:Generated_Source\PSoC5/WaveDAC.c **** *  The StartEx function sets pointers and sizes for both waveforms
 148:Generated_Source\PSoC5/WaveDAC.c **** *  and then starts the component.
 149:Generated_Source\PSoC5/WaveDAC.c **** *
 150:Generated_Source\PSoC5/WaveDAC.c **** * Parameters:  
 151:Generated_Source\PSoC5/WaveDAC.c **** *   uint8 * wavePtr1:     Pointer to the waveform 1 array.
 152:Generated_Source\PSoC5/WaveDAC.c **** *   uint16  sampleSize1:  The amount of samples in the waveform 1.
 153:Generated_Source\PSoC5/WaveDAC.c **** *   uint8 * wavePtr2:     Pointer to the waveform 2 array.
 154:Generated_Source\PSoC5/WaveDAC.c **** *   uint16  sampleSize2:  The amount of samples in the waveform 2.
 155:Generated_Source\PSoC5/WaveDAC.c **** *
 156:Generated_Source\PSoC5/WaveDAC.c **** * Return: 
 157:Generated_Source\PSoC5/WaveDAC.c **** *  None
 158:Generated_Source\PSoC5/WaveDAC.c **** *
 159:Generated_Source\PSoC5/WaveDAC.c **** * Reentrant:
 160:Generated_Source\PSoC5/WaveDAC.c **** *  No
 161:Generated_Source\PSoC5/WaveDAC.c **** *
 162:Generated_Source\PSoC5/WaveDAC.c **** *******************************************************************************/
 163:Generated_Source\PSoC5/WaveDAC.c **** void WaveDAC_StartEx(const uint8 * wavePtr1, uint16 sampleSize1, const uint8 * wavePtr2, uint16 sam
 164:Generated_Source\PSoC5/WaveDAC.c **** 
 165:Generated_Source\PSoC5/WaveDAC.c **** {
 401              		.loc 1 165 0
 402              		.cfi_startproc
 403              		@ args = 0, pretend = 0, frame = 16
 404              		@ frame_needed = 1, uses_anonymous_args = 0
 405 0000 80B5     		push	{r7, lr}
ARM GAS  C:\Users\MARTHN~1\AppData\Local\Temp\cc8Ep4W1.s 			page 11


 406              		.cfi_def_cfa_offset 8
 407              		.cfi_offset 7, -8
 408              		.cfi_offset 14, -4
 409 0002 84B0     		sub	sp, sp, #16
 410              		.cfi_def_cfa_offset 24
 411 0004 00AF     		add	r7, sp, #0
 412              		.cfi_def_cfa_register 7
 413 0006 F860     		str	r0, [r7, #12]
 414 0008 7A60     		str	r2, [r7, #4]
 415 000a 1A46     		mov	r2, r3
 416 000c 0B46     		mov	r3, r1	@ movhi
 417 000e 7B81     		strh	r3, [r7, #10]	@ movhi
 418 0010 1346     		mov	r3, r2	@ movhi
 419 0012 3B81     		strh	r3, [r7, #8]	@ movhi
 166:Generated_Source\PSoC5/WaveDAC.c **** 	WaveDAC_Wave1Setup(wavePtr1, sampleSize1);
 420              		.loc 1 166 0
 421 0014 7B89     		ldrh	r3, [r7, #10]
 422 0016 1946     		mov	r1, r3
 423 0018 F868     		ldr	r0, [r7, #12]
 424 001a FFF7FEFF 		bl	WaveDAC_Wave1Setup
 167:Generated_Source\PSoC5/WaveDAC.c **** 	WaveDAC_Wave2Setup(wavePtr2, sampleSize2);
 425              		.loc 1 167 0
 426 001e 3B89     		ldrh	r3, [r7, #8]
 427 0020 1946     		mov	r1, r3
 428 0022 7868     		ldr	r0, [r7, #4]
 429 0024 FFF7FEFF 		bl	WaveDAC_Wave2Setup
 168:Generated_Source\PSoC5/WaveDAC.c **** 	WaveDAC_Start();
 430              		.loc 1 168 0
 431 0028 FFF7FEFF 		bl	WaveDAC_Start
 169:Generated_Source\PSoC5/WaveDAC.c **** }
 432              		.loc 1 169 0
 433 002c 00BF     		nop
 434 002e 1037     		adds	r7, r7, #16
 435              		.cfi_def_cfa_offset 8
 436 0030 BD46     		mov	sp, r7
 437              		.cfi_def_cfa_register 13
 438              		@ sp needed
 439 0032 80BD     		pop	{r7, pc}
 440              		.cfi_endproc
 441              	.LFE3:
 442              		.size	WaveDAC_StartEx, .-WaveDAC_StartEx
 443              		.section	.text.WaveDAC_Stop,"ax",%progbits
 444              		.align	2
 445              		.global	WaveDAC_Stop
 446              		.thumb
 447              		.thumb_func
 448              		.type	WaveDAC_Stop, %function
 449              	WaveDAC_Stop:
 450              	.LFB4:
 170:Generated_Source\PSoC5/WaveDAC.c **** 
 171:Generated_Source\PSoC5/WaveDAC.c **** 
 172:Generated_Source\PSoC5/WaveDAC.c **** /*******************************************************************************
 173:Generated_Source\PSoC5/WaveDAC.c **** * Function Name: WaveDAC_Stop
 174:Generated_Source\PSoC5/WaveDAC.c **** ********************************************************************************
 175:Generated_Source\PSoC5/WaveDAC.c **** *
 176:Generated_Source\PSoC5/WaveDAC.c **** * Summary:
 177:Generated_Source\PSoC5/WaveDAC.c **** *  Stops the clock (if internal), disables the DMA channels
ARM GAS  C:\Users\MARTHN~1\AppData\Local\Temp\cc8Ep4W1.s 			page 12


 178:Generated_Source\PSoC5/WaveDAC.c **** *  and powers down the DAC.
 179:Generated_Source\PSoC5/WaveDAC.c **** *
 180:Generated_Source\PSoC5/WaveDAC.c **** * Parameters:  
 181:Generated_Source\PSoC5/WaveDAC.c **** *  None  
 182:Generated_Source\PSoC5/WaveDAC.c **** *
 183:Generated_Source\PSoC5/WaveDAC.c **** * Return: 
 184:Generated_Source\PSoC5/WaveDAC.c **** *  None
 185:Generated_Source\PSoC5/WaveDAC.c **** *
 186:Generated_Source\PSoC5/WaveDAC.c **** *******************************************************************************/
 187:Generated_Source\PSoC5/WaveDAC.c **** void WaveDAC_Stop(void) 
 188:Generated_Source\PSoC5/WaveDAC.c **** {
 451              		.loc 1 188 0
 452              		.cfi_startproc
 453              		@ args = 0, pretend = 0, frame = 0
 454              		@ frame_needed = 1, uses_anonymous_args = 0
 455 0000 80B5     		push	{r7, lr}
 456              		.cfi_def_cfa_offset 8
 457              		.cfi_offset 7, -8
 458              		.cfi_offset 14, -4
 459 0002 00AF     		add	r7, sp, #0
 460              		.cfi_def_cfa_register 7
 189:Generated_Source\PSoC5/WaveDAC.c **** 	/* Turn off internal clock, if one present */
 190:Generated_Source\PSoC5/WaveDAC.c **** 	#if(WaveDAC_CLOCK_SRC == WaveDAC_CLOCK_INT)  	
 191:Generated_Source\PSoC5/WaveDAC.c **** 	   WaveDAC_DacClk_Stop();
 192:Generated_Source\PSoC5/WaveDAC.c **** 	#endif /* WaveDAC_CLOCK_SRC == WaveDAC_CLOCK_INT */
 193:Generated_Source\PSoC5/WaveDAC.c **** 	
 194:Generated_Source\PSoC5/WaveDAC.c **** 	/* Disble DMA channels */
 195:Generated_Source\PSoC5/WaveDAC.c **** 	(void)CyDmaChDisable(WaveDAC_Wave1Chan);
 461              		.loc 1 195 0
 462 0004 064B     		ldr	r3, .L13
 463 0006 1B78     		ldrb	r3, [r3]	@ zero_extendqisi2
 464 0008 1846     		mov	r0, r3
 465 000a FFF7FEFF 		bl	CyDmaChDisable
 196:Generated_Source\PSoC5/WaveDAC.c **** 	(void)CyDmaChDisable(WaveDAC_Wave2Chan);
 466              		.loc 1 196 0
 467 000e 054B     		ldr	r3, .L13+4
 468 0010 1B78     		ldrb	r3, [r3]	@ zero_extendqisi2
 469 0012 1846     		mov	r0, r3
 470 0014 FFF7FEFF 		bl	CyDmaChDisable
 197:Generated_Source\PSoC5/WaveDAC.c **** 
 198:Generated_Source\PSoC5/WaveDAC.c **** 	/* Disable power to DAC */
 199:Generated_Source\PSoC5/WaveDAC.c **** 	WaveDAC_VDAC8_Stop();
 471              		.loc 1 199 0
 472 0018 FFF7FEFF 		bl	WaveDAC_VDAC8_Stop
 200:Generated_Source\PSoC5/WaveDAC.c **** }
 473              		.loc 1 200 0
 474 001c 00BF     		nop
 475 001e 80BD     		pop	{r7, pc}
 476              	.L14:
 477              		.align	2
 478              	.L13:
 479 0020 01000000 		.word	WaveDAC_Wave1Chan
 480 0024 02000000 		.word	WaveDAC_Wave2Chan
 481              		.cfi_endproc
 482              	.LFE4:
 483              		.size	WaveDAC_Stop, .-WaveDAC_Stop
 484              		.section	.text.WaveDAC_Wave1Setup,"ax",%progbits
ARM GAS  C:\Users\MARTHN~1\AppData\Local\Temp\cc8Ep4W1.s 			page 13


 485              		.align	2
 486              		.global	WaveDAC_Wave1Setup
 487              		.thumb
 488              		.thumb_func
 489              		.type	WaveDAC_Wave1Setup, %function
 490              	WaveDAC_Wave1Setup:
 491              	.LFB5:
 201:Generated_Source\PSoC5/WaveDAC.c **** 
 202:Generated_Source\PSoC5/WaveDAC.c **** 
 203:Generated_Source\PSoC5/WaveDAC.c **** /*******************************************************************************
 204:Generated_Source\PSoC5/WaveDAC.c **** * Function Name: WaveDAC_Wave1Setup
 205:Generated_Source\PSoC5/WaveDAC.c **** ********************************************************************************
 206:Generated_Source\PSoC5/WaveDAC.c **** *
 207:Generated_Source\PSoC5/WaveDAC.c **** * Summary:
 208:Generated_Source\PSoC5/WaveDAC.c **** *  Sets pointer and size for waveform 1.                                    
 209:Generated_Source\PSoC5/WaveDAC.c **** *
 210:Generated_Source\PSoC5/WaveDAC.c **** * Parameters:  
 211:Generated_Source\PSoC5/WaveDAC.c **** *  uint8 * WavePtr:     Pointer to the waveform array.
 212:Generated_Source\PSoC5/WaveDAC.c **** *  uint16  SampleSize:  The amount of samples in the waveform.
 213:Generated_Source\PSoC5/WaveDAC.c **** *
 214:Generated_Source\PSoC5/WaveDAC.c **** * Return: 
 215:Generated_Source\PSoC5/WaveDAC.c **** *  None 
 216:Generated_Source\PSoC5/WaveDAC.c **** *
 217:Generated_Source\PSoC5/WaveDAC.c **** *******************************************************************************/
 218:Generated_Source\PSoC5/WaveDAC.c **** void WaveDAC_Wave1Setup(const uint8 * wavePtr, uint16 sampleSize)
 219:Generated_Source\PSoC5/WaveDAC.c **** 
 220:Generated_Source\PSoC5/WaveDAC.c **** {
 492              		.loc 1 220 0
 493              		.cfi_startproc
 494              		@ args = 0, pretend = 0, frame = 8
 495              		@ frame_needed = 1, uses_anonymous_args = 0
 496 0000 80B5     		push	{r7, lr}
 497              		.cfi_def_cfa_offset 8
 498              		.cfi_offset 7, -8
 499              		.cfi_offset 14, -4
 500 0002 82B0     		sub	sp, sp, #8
 501              		.cfi_def_cfa_offset 16
 502 0004 00AF     		add	r7, sp, #0
 503              		.cfi_def_cfa_register 7
 504 0006 7860     		str	r0, [r7, #4]
 505 0008 0B46     		mov	r3, r1
 506 000a 7B80     		strh	r3, [r7, #2]	@ movhi
 221:Generated_Source\PSoC5/WaveDAC.c **** 	#if (CY_PSOC3)
 222:Generated_Source\PSoC5/WaveDAC.c **** 		uint16 memoryType; /* determining the source memory type */
 223:Generated_Source\PSoC5/WaveDAC.c **** 		memoryType = (WaveDAC_HI16FLASHPTR == HI16(wavePtr)) ? HI16(CYDEV_FLS_BASE) : HI16(CYDEV_SRAM_BAS
 224:Generated_Source\PSoC5/WaveDAC.c **** 		
 225:Generated_Source\PSoC5/WaveDAC.c **** 		WaveDAC_Wave1Chan = WaveDAC_Wave1_DMA_DmaInitialize(
 226:Generated_Source\PSoC5/WaveDAC.c **** 		WaveDAC_Wave1_DMA_BYTES_PER_BURST, WaveDAC_Wave1_DMA_REQUEST_PER_BURST,
 227:Generated_Source\PSoC5/WaveDAC.c **** 		memoryType, HI16(CYDEV_PERIPH_BASE));
 228:Generated_Source\PSoC5/WaveDAC.c **** 	#else /* PSoC 5 */
 229:Generated_Source\PSoC5/WaveDAC.c **** 		WaveDAC_Wave1Chan = WaveDAC_Wave1_DMA_DmaInitialize(
 230:Generated_Source\PSoC5/WaveDAC.c **** 		WaveDAC_Wave1_DMA_BYTES_PER_BURST, WaveDAC_Wave1_DMA_REQUEST_PER_BURST,
 231:Generated_Source\PSoC5/WaveDAC.c **** 		HI16(wavePtr), HI16(WaveDAC_DAC8__D));
 507              		.loc 1 231 0
 508 000c 7B68     		ldr	r3, [r7, #4]
 509 000e 1B0C     		lsrs	r3, r3, #16
 229:Generated_Source\PSoC5/WaveDAC.c **** 		WaveDAC_Wave1_DMA_BYTES_PER_BURST, WaveDAC_Wave1_DMA_REQUEST_PER_BURST,
ARM GAS  C:\Users\MARTHN~1\AppData\Local\Temp\cc8Ep4W1.s 			page 14


 510              		.loc 1 229 0
 511 0010 9AB2     		uxth	r2, r3
 512 0012 4FF48043 		mov	r3, #16384
 513 0016 0121     		movs	r1, #1
 514 0018 0120     		movs	r0, #1
 515 001a FFF7FEFF 		bl	WaveDAC_Wave1_DMA_DmaInitialize
 516 001e 0346     		mov	r3, r0
 517 0020 1A46     		mov	r2, r3
 518 0022 0F4B     		ldr	r3, .L16
 519 0024 1A70     		strb	r2, [r3]
 232:Generated_Source\PSoC5/WaveDAC.c **** 	#endif /* CY_PSOC3 */
 233:Generated_Source\PSoC5/WaveDAC.c **** 	
 234:Generated_Source\PSoC5/WaveDAC.c **** 	/*
 235:Generated_Source\PSoC5/WaveDAC.c **** 	* TD is looping on itself. 
 236:Generated_Source\PSoC5/WaveDAC.c ****     * Increment the source address, but not the destination address. 
 237:Generated_Source\PSoC5/WaveDAC.c **** 	*/
 238:Generated_Source\PSoC5/WaveDAC.c **** 	(void)CyDmaTdSetConfiguration(WaveDAC_Wave1TD, sampleSize, WaveDAC_Wave1TD, 
 520              		.loc 1 238 0
 521 0026 0F4B     		ldr	r3, .L16+4
 522 0028 1878     		ldrb	r0, [r3]	@ zero_extendqisi2
 523 002a 0E4B     		ldr	r3, .L16+4
 524 002c 1A78     		ldrb	r2, [r3]	@ zero_extendqisi2
 525 002e 7988     		ldrh	r1, [r7, #2]
 526 0030 0123     		movs	r3, #1
 527 0032 FFF7FEFF 		bl	CyDmaTdSetConfiguration
 239:Generated_Source\PSoC5/WaveDAC.c ****                                     (uint8)CY_DMA_TD_INC_SRC_ADR | (uint8)WaveDAC_Wave1_DMA__TD_TER
 240:Generated_Source\PSoC5/WaveDAC.c **** 	
 241:Generated_Source\PSoC5/WaveDAC.c **** 	/* Set the TD source and destination address */
 242:Generated_Source\PSoC5/WaveDAC.c **** 	(void)CyDmaTdSetAddress(WaveDAC_Wave1TD, LO16((uint32)wavePtr), LO16(WaveDAC_DAC8__D));
 528              		.loc 1 242 0
 529 0036 0B4B     		ldr	r3, .L16+4
 530 0038 1B78     		ldrb	r3, [r3]	@ zero_extendqisi2
 531 003a 7A68     		ldr	r2, [r7, #4]
 532 003c 91B2     		uxth	r1, r2
 533 003e 45F68232 		movw	r2, #23426
 534 0042 1846     		mov	r0, r3
 535 0044 FFF7FEFF 		bl	CyDmaTdSetAddress
 243:Generated_Source\PSoC5/WaveDAC.c **** 	
 244:Generated_Source\PSoC5/WaveDAC.c **** 	/* Associate the TD with the channel */
 245:Generated_Source\PSoC5/WaveDAC.c **** 	(void)CyDmaChSetInitialTd(WaveDAC_Wave1Chan, WaveDAC_Wave1TD);
 536              		.loc 1 245 0
 537 0048 054B     		ldr	r3, .L16
 538 004a 1A78     		ldrb	r2, [r3]	@ zero_extendqisi2
 539 004c 054B     		ldr	r3, .L16+4
 540 004e 1B78     		ldrb	r3, [r3]	@ zero_extendqisi2
 541 0050 1946     		mov	r1, r3
 542 0052 1046     		mov	r0, r2
 543 0054 FFF7FEFF 		bl	CyDmaChSetInitialTd
 246:Generated_Source\PSoC5/WaveDAC.c **** }
 544              		.loc 1 246 0
 545 0058 00BF     		nop
 546 005a 0837     		adds	r7, r7, #8
 547              		.cfi_def_cfa_offset 8
 548 005c BD46     		mov	sp, r7
 549              		.cfi_def_cfa_register 13
 550              		@ sp needed
 551 005e 80BD     		pop	{r7, pc}
ARM GAS  C:\Users\MARTHN~1\AppData\Local\Temp\cc8Ep4W1.s 			page 15


 552              	.L17:
 553              		.align	2
 554              	.L16:
 555 0060 01000000 		.word	WaveDAC_Wave1Chan
 556 0064 03000000 		.word	WaveDAC_Wave1TD
 557              		.cfi_endproc
 558              	.LFE5:
 559              		.size	WaveDAC_Wave1Setup, .-WaveDAC_Wave1Setup
 560              		.section	.text.WaveDAC_Wave2Setup,"ax",%progbits
 561              		.align	2
 562              		.global	WaveDAC_Wave2Setup
 563              		.thumb
 564              		.thumb_func
 565              		.type	WaveDAC_Wave2Setup, %function
 566              	WaveDAC_Wave2Setup:
 567              	.LFB6:
 247:Generated_Source\PSoC5/WaveDAC.c **** 
 248:Generated_Source\PSoC5/WaveDAC.c **** 
 249:Generated_Source\PSoC5/WaveDAC.c **** /*******************************************************************************
 250:Generated_Source\PSoC5/WaveDAC.c **** * Function Name: WaveDAC_Wave2Setup
 251:Generated_Source\PSoC5/WaveDAC.c **** ********************************************************************************
 252:Generated_Source\PSoC5/WaveDAC.c **** *
 253:Generated_Source\PSoC5/WaveDAC.c **** * Summary:
 254:Generated_Source\PSoC5/WaveDAC.c **** *  Sets pointer and size for waveform 2.                                    
 255:Generated_Source\PSoC5/WaveDAC.c **** *
 256:Generated_Source\PSoC5/WaveDAC.c **** * Parameters:  
 257:Generated_Source\PSoC5/WaveDAC.c **** *  uint8 * WavePtr:     Pointer to the waveform array.
 258:Generated_Source\PSoC5/WaveDAC.c **** *  uint16  SampleSize:  The amount of samples in the waveform.
 259:Generated_Source\PSoC5/WaveDAC.c **** *
 260:Generated_Source\PSoC5/WaveDAC.c **** * Return: 
 261:Generated_Source\PSoC5/WaveDAC.c **** *  None
 262:Generated_Source\PSoC5/WaveDAC.c **** *
 263:Generated_Source\PSoC5/WaveDAC.c **** *******************************************************************************/
 264:Generated_Source\PSoC5/WaveDAC.c **** void WaveDAC_Wave2Setup(const uint8 * wavePtr, uint16 sampleSize)
 265:Generated_Source\PSoC5/WaveDAC.c ****  
 266:Generated_Source\PSoC5/WaveDAC.c **** {
 568              		.loc 1 266 0
 569              		.cfi_startproc
 570              		@ args = 0, pretend = 0, frame = 8
 571              		@ frame_needed = 1, uses_anonymous_args = 0
 572 0000 80B5     		push	{r7, lr}
 573              		.cfi_def_cfa_offset 8
 574              		.cfi_offset 7, -8
 575              		.cfi_offset 14, -4
 576 0002 82B0     		sub	sp, sp, #8
 577              		.cfi_def_cfa_offset 16
 578 0004 00AF     		add	r7, sp, #0
 579              		.cfi_def_cfa_register 7
 580 0006 7860     		str	r0, [r7, #4]
 581 0008 0B46     		mov	r3, r1
 582 000a 7B80     		strh	r3, [r7, #2]	@ movhi
 267:Generated_Source\PSoC5/WaveDAC.c **** 	#if (CY_PSOC3)
 268:Generated_Source\PSoC5/WaveDAC.c **** 		uint16 memoryType; /* determining the source memory type */
 269:Generated_Source\PSoC5/WaveDAC.c **** 		memoryType = (WaveDAC_HI16FLASHPTR == HI16(wavePtr)) ? HI16(CYDEV_FLS_BASE) : HI16(CYDEV_SRAM_BAS
 270:Generated_Source\PSoC5/WaveDAC.c **** 			
 271:Generated_Source\PSoC5/WaveDAC.c **** 		WaveDAC_Wave2Chan = WaveDAC_Wave2_DMA_DmaInitialize(
 272:Generated_Source\PSoC5/WaveDAC.c **** 		WaveDAC_Wave2_DMA_BYTES_PER_BURST, WaveDAC_Wave2_DMA_REQUEST_PER_BURST,
ARM GAS  C:\Users\MARTHN~1\AppData\Local\Temp\cc8Ep4W1.s 			page 16


 273:Generated_Source\PSoC5/WaveDAC.c **** 		memoryType, HI16(CYDEV_PERIPH_BASE));
 274:Generated_Source\PSoC5/WaveDAC.c **** 	#else /* PSoC 5 */
 275:Generated_Source\PSoC5/WaveDAC.c **** 		WaveDAC_Wave2Chan = WaveDAC_Wave2_DMA_DmaInitialize(
 276:Generated_Source\PSoC5/WaveDAC.c **** 		WaveDAC_Wave2_DMA_BYTES_PER_BURST, WaveDAC_Wave2_DMA_REQUEST_PER_BURST,
 277:Generated_Source\PSoC5/WaveDAC.c **** 		HI16(wavePtr), HI16(WaveDAC_DAC8__D));
 583              		.loc 1 277 0
 584 000c 7B68     		ldr	r3, [r7, #4]
 585 000e 1B0C     		lsrs	r3, r3, #16
 275:Generated_Source\PSoC5/WaveDAC.c **** 		WaveDAC_Wave2_DMA_BYTES_PER_BURST, WaveDAC_Wave2_DMA_REQUEST_PER_BURST,
 586              		.loc 1 275 0
 587 0010 9AB2     		uxth	r2, r3
 588 0012 4FF48043 		mov	r3, #16384
 589 0016 0121     		movs	r1, #1
 590 0018 0120     		movs	r0, #1
 591 001a FFF7FEFF 		bl	WaveDAC_Wave2_DMA_DmaInitialize
 592 001e 0346     		mov	r3, r0
 593 0020 1A46     		mov	r2, r3
 594 0022 0F4B     		ldr	r3, .L19
 595 0024 1A70     		strb	r2, [r3]
 278:Generated_Source\PSoC5/WaveDAC.c **** 	#endif /* CY_PSOC3 */
 279:Generated_Source\PSoC5/WaveDAC.c **** 	
 280:Generated_Source\PSoC5/WaveDAC.c **** 	/*
 281:Generated_Source\PSoC5/WaveDAC.c **** 	* TD is looping on itself. 
 282:Generated_Source\PSoC5/WaveDAC.c **** 	* Increment the source address, but not the destination address. 
 283:Generated_Source\PSoC5/WaveDAC.c **** 	*/
 284:Generated_Source\PSoC5/WaveDAC.c **** 	(void)CyDmaTdSetConfiguration(WaveDAC_Wave2TD, sampleSize, WaveDAC_Wave2TD, 
 596              		.loc 1 284 0
 597 0026 0F4B     		ldr	r3, .L19+4
 598 0028 1878     		ldrb	r0, [r3]	@ zero_extendqisi2
 599 002a 0E4B     		ldr	r3, .L19+4
 600 002c 1A78     		ldrb	r2, [r3]	@ zero_extendqisi2
 601 002e 7988     		ldrh	r1, [r7, #2]
 602 0030 0123     		movs	r3, #1
 603 0032 FFF7FEFF 		bl	CyDmaTdSetConfiguration
 285:Generated_Source\PSoC5/WaveDAC.c ****                                     (uint8)CY_DMA_TD_INC_SRC_ADR | (uint8)WaveDAC_Wave2_DMA__TD_TER
 286:Generated_Source\PSoC5/WaveDAC.c **** 	
 287:Generated_Source\PSoC5/WaveDAC.c **** 	/* Set the TD source and destination address */
 288:Generated_Source\PSoC5/WaveDAC.c **** 	(void)CyDmaTdSetAddress(WaveDAC_Wave2TD, LO16((uint32)wavePtr), LO16(WaveDAC_DAC8__D));
 604              		.loc 1 288 0
 605 0036 0B4B     		ldr	r3, .L19+4
 606 0038 1B78     		ldrb	r3, [r3]	@ zero_extendqisi2
 607 003a 7A68     		ldr	r2, [r7, #4]
 608 003c 91B2     		uxth	r1, r2
 609 003e 45F68232 		movw	r2, #23426
 610 0042 1846     		mov	r0, r3
 611 0044 FFF7FEFF 		bl	CyDmaTdSetAddress
 289:Generated_Source\PSoC5/WaveDAC.c **** 	
 290:Generated_Source\PSoC5/WaveDAC.c **** 	/* Associate the TD with the channel */
 291:Generated_Source\PSoC5/WaveDAC.c **** 	(void)CyDmaChSetInitialTd(WaveDAC_Wave2Chan, WaveDAC_Wave2TD);
 612              		.loc 1 291 0
 613 0048 054B     		ldr	r3, .L19
 614 004a 1A78     		ldrb	r2, [r3]	@ zero_extendqisi2
 615 004c 054B     		ldr	r3, .L19+4
 616 004e 1B78     		ldrb	r3, [r3]	@ zero_extendqisi2
 617 0050 1946     		mov	r1, r3
 618 0052 1046     		mov	r0, r2
 619 0054 FFF7FEFF 		bl	CyDmaChSetInitialTd
ARM GAS  C:\Users\MARTHN~1\AppData\Local\Temp\cc8Ep4W1.s 			page 17


 292:Generated_Source\PSoC5/WaveDAC.c **** }
 620              		.loc 1 292 0
 621 0058 00BF     		nop
 622 005a 0837     		adds	r7, r7, #8
 623              		.cfi_def_cfa_offset 8
 624 005c BD46     		mov	sp, r7
 625              		.cfi_def_cfa_register 13
 626              		@ sp needed
 627 005e 80BD     		pop	{r7, pc}
 628              	.L20:
 629              		.align	2
 630              	.L19:
 631 0060 02000000 		.word	WaveDAC_Wave2Chan
 632 0064 04000000 		.word	WaveDAC_Wave2TD
 633              		.cfi_endproc
 634              	.LFE6:
 635              		.size	WaveDAC_Wave2Setup, .-WaveDAC_Wave2Setup
 636              		.text
 637              	.Letext0:
 638              		.file 2 "Generated_Source\\PSoC5\\cytypes.h"