ARM GAS  C:\Users\faithc\AppData\Local\Temp\ccdaxH06.s 			page 1


   1              		.syntax unified
   2              		.cpu cortex-m3
   3              		.fpu softvfp
   4              		.eabi_attribute 20, 1
   5              		.eabi_attribute 21, 1
   6              		.eabi_attribute 23, 3
   7              		.eabi_attribute 24, 1
   8              		.eabi_attribute 25, 1
   9              		.eabi_attribute 26, 1
  10              		.eabi_attribute 30, 6
  11              		.eabi_attribute 34, 1
  12              		.eabi_attribute 18, 4
  13              		.thumb
  14              		.file	"AMux1.c"
  15              		.text
  16              	.Ltext0:
  17              		.cfi_sections	.debug_frame
  18              		.data
  19              		.type	AMux1_lastChannel, %object
  20              		.size	AMux1_lastChannel, 1
  21              	AMux1_lastChannel:
  22 0000 FF       		.byte	-1
  23              		.section	.text.AMux1_Start,"ax",%progbits
  24              		.align	2
  25              		.global	AMux1_Start
  26              		.thumb
  27              		.thumb_func
  28              		.type	AMux1_Start, %function
  29              	AMux1_Start:
  30              	.LFB0:
  31              		.file 1 ".\\Generated_Source\\PSoC5\\AMux1.c"
   1:.\Generated_Source\PSoC5/AMux1.c **** /*******************************************************************************
   2:.\Generated_Source\PSoC5/AMux1.c **** * File Name: AMux1.c
   3:.\Generated_Source\PSoC5/AMux1.c **** * Version 1.80
   4:.\Generated_Source\PSoC5/AMux1.c **** *
   5:.\Generated_Source\PSoC5/AMux1.c **** *  Description:
   6:.\Generated_Source\PSoC5/AMux1.c **** *    This file contains all functions required for the analog multiplexer
   7:.\Generated_Source\PSoC5/AMux1.c **** *    AMux User Module.
   8:.\Generated_Source\PSoC5/AMux1.c **** *
   9:.\Generated_Source\PSoC5/AMux1.c **** *   Note:
  10:.\Generated_Source\PSoC5/AMux1.c **** *
  11:.\Generated_Source\PSoC5/AMux1.c **** *******************************************************************************
  12:.\Generated_Source\PSoC5/AMux1.c **** * Copyright 2008-2010, Cypress Semiconductor Corporation.  All rights reserved.
  13:.\Generated_Source\PSoC5/AMux1.c **** * You may use this file only in accordance with the license, terms, conditions, 
  14:.\Generated_Source\PSoC5/AMux1.c **** * disclaimers, and limitations in the end user license agreement accompanying 
  15:.\Generated_Source\PSoC5/AMux1.c **** * the software package with which this file was provided.
  16:.\Generated_Source\PSoC5/AMux1.c **** ********************************************************************************/
  17:.\Generated_Source\PSoC5/AMux1.c **** 
  18:.\Generated_Source\PSoC5/AMux1.c **** #include "AMux1.h"
  19:.\Generated_Source\PSoC5/AMux1.c **** 
  20:.\Generated_Source\PSoC5/AMux1.c **** static uint8 AMux1_lastChannel = AMux1_NULL_CHANNEL;
  21:.\Generated_Source\PSoC5/AMux1.c **** 
  22:.\Generated_Source\PSoC5/AMux1.c **** 
  23:.\Generated_Source\PSoC5/AMux1.c **** /*******************************************************************************
  24:.\Generated_Source\PSoC5/AMux1.c **** * Function Name: AMux1_Start
  25:.\Generated_Source\PSoC5/AMux1.c **** ********************************************************************************
  26:.\Generated_Source\PSoC5/AMux1.c **** * Summary:
ARM GAS  C:\Users\faithc\AppData\Local\Temp\ccdaxH06.s 			page 2


  27:.\Generated_Source\PSoC5/AMux1.c **** *  Disconnect all channels.
  28:.\Generated_Source\PSoC5/AMux1.c **** *
  29:.\Generated_Source\PSoC5/AMux1.c **** * Parameters:
  30:.\Generated_Source\PSoC5/AMux1.c **** *  void
  31:.\Generated_Source\PSoC5/AMux1.c **** *
  32:.\Generated_Source\PSoC5/AMux1.c **** * Return:
  33:.\Generated_Source\PSoC5/AMux1.c **** *  void
  34:.\Generated_Source\PSoC5/AMux1.c **** *
  35:.\Generated_Source\PSoC5/AMux1.c **** *******************************************************************************/
  36:.\Generated_Source\PSoC5/AMux1.c **** void AMux1_Start(void) 
  37:.\Generated_Source\PSoC5/AMux1.c **** {
  32              		.loc 1 37 0
  33              		.cfi_startproc
  34              		@ args = 0, pretend = 0, frame = 8
  35              		@ frame_needed = 1, uses_anonymous_args = 0
  36 0000 80B5     		push	{r7, lr}
  37              		.cfi_def_cfa_offset 8
  38              		.cfi_offset 7, -8
  39              		.cfi_offset 14, -4
  40 0002 82B0     		sub	sp, sp, #8
  41              		.cfi_def_cfa_offset 16
  42 0004 00AF     		add	r7, sp, #0
  43              		.cfi_def_cfa_register 7
  38:.\Generated_Source\PSoC5/AMux1.c ****     uint8 chan;
  39:.\Generated_Source\PSoC5/AMux1.c **** 
  40:.\Generated_Source\PSoC5/AMux1.c ****     for(chan = 0u; chan < AMux1_CHANNELS ; chan++)
  44              		.loc 1 40 0
  45 0006 0023     		movs	r3, #0
  46 0008 FB71     		strb	r3, [r7, #7]
  47 000a 06E0     		b	.L2
  48              	.L3:
  41:.\Generated_Source\PSoC5/AMux1.c ****     {
  42:.\Generated_Source\PSoC5/AMux1.c **** #if (AMux1_MUXTYPE == AMux1_MUX_SINGLE)
  43:.\Generated_Source\PSoC5/AMux1.c ****         AMux1_Unset(chan);
  49              		.loc 1 43 0 discriminator 3
  50 000c FB79     		ldrb	r3, [r7, #7]	@ zero_extendqisi2
  51 000e 1846     		mov	r0, r3
  52 0010 FFF7FEFF 		bl	AMux1_Unset
  40:.\Generated_Source\PSoC5/AMux1.c ****     {
  53              		.loc 1 40 0 discriminator 3
  54 0014 FB79     		ldrb	r3, [r7, #7]	@ zero_extendqisi2
  55 0016 0133     		adds	r3, r3, #1
  56 0018 FB71     		strb	r3, [r7, #7]
  57              	.L2:
  40:.\Generated_Source\PSoC5/AMux1.c ****     {
  58              		.loc 1 40 0 is_stmt 0 discriminator 1
  59 001a FB79     		ldrb	r3, [r7, #7]	@ zero_extendqisi2
  60 001c 012B     		cmp	r3, #1
  61 001e F5D9     		bls	.L3
  44:.\Generated_Source\PSoC5/AMux1.c **** #else
  45:.\Generated_Source\PSoC5/AMux1.c ****         AMux1_CYAMUXSIDE_A_Unset(chan);
  46:.\Generated_Source\PSoC5/AMux1.c ****         AMux1_CYAMUXSIDE_B_Unset(chan);
  47:.\Generated_Source\PSoC5/AMux1.c **** #endif
  48:.\Generated_Source\PSoC5/AMux1.c ****     }
  49:.\Generated_Source\PSoC5/AMux1.c **** 
  50:.\Generated_Source\PSoC5/AMux1.c ****     AMux1_lastChannel = AMux1_NULL_CHANNEL;
  62              		.loc 1 50 0 is_stmt 1
ARM GAS  C:\Users\faithc\AppData\Local\Temp\ccdaxH06.s 			page 3


  63 0020 024B     		ldr	r3, .L4
  64 0022 FF22     		movs	r2, #255
  65 0024 1A70     		strb	r2, [r3]
  51:.\Generated_Source\PSoC5/AMux1.c **** }
  66              		.loc 1 51 0
  67 0026 0837     		adds	r7, r7, #8
  68              		.cfi_def_cfa_offset 8
  69 0028 BD46     		mov	sp, r7
  70              		.cfi_def_cfa_register 13
  71              		@ sp needed
  72 002a 80BD     		pop	{r7, pc}
  73              	.L5:
  74              		.align	2
  75              	.L4:
  76 002c 00000000 		.word	AMux1_lastChannel
  77              		.cfi_endproc
  78              	.LFE0:
  79              		.size	AMux1_Start, .-AMux1_Start
  80              		.section	.text.AMux1_FastSelect,"ax",%progbits
  81              		.align	2
  82              		.global	AMux1_FastSelect
  83              		.thumb
  84              		.thumb_func
  85              		.type	AMux1_FastSelect, %function
  86              	AMux1_FastSelect:
  87              	.LFB1:
  52:.\Generated_Source\PSoC5/AMux1.c **** 
  53:.\Generated_Source\PSoC5/AMux1.c **** 
  54:.\Generated_Source\PSoC5/AMux1.c **** #if (!AMux1_ATMOSTONE)
  55:.\Generated_Source\PSoC5/AMux1.c **** /*******************************************************************************
  56:.\Generated_Source\PSoC5/AMux1.c **** * Function Name: AMux1_Select
  57:.\Generated_Source\PSoC5/AMux1.c **** ********************************************************************************
  58:.\Generated_Source\PSoC5/AMux1.c **** * Summary:
  59:.\Generated_Source\PSoC5/AMux1.c **** *  This functions first disconnects all channels then connects the given
  60:.\Generated_Source\PSoC5/AMux1.c **** *  channel.
  61:.\Generated_Source\PSoC5/AMux1.c **** *
  62:.\Generated_Source\PSoC5/AMux1.c **** * Parameters:
  63:.\Generated_Source\PSoC5/AMux1.c **** *  channel:  The channel to connect to the common terminal.
  64:.\Generated_Source\PSoC5/AMux1.c **** *
  65:.\Generated_Source\PSoC5/AMux1.c **** * Return:
  66:.\Generated_Source\PSoC5/AMux1.c **** *  void
  67:.\Generated_Source\PSoC5/AMux1.c **** *
  68:.\Generated_Source\PSoC5/AMux1.c **** *******************************************************************************/
  69:.\Generated_Source\PSoC5/AMux1.c **** void AMux1_Select(uint8 channel) 
  70:.\Generated_Source\PSoC5/AMux1.c **** {
  71:.\Generated_Source\PSoC5/AMux1.c ****     AMux1_DisconnectAll();        /* Disconnect all previous connections */
  72:.\Generated_Source\PSoC5/AMux1.c ****     AMux1_Connect(channel);       /* Make the given selection */
  73:.\Generated_Source\PSoC5/AMux1.c ****     AMux1_lastChannel = channel;  /* Update last channel */
  74:.\Generated_Source\PSoC5/AMux1.c **** }
  75:.\Generated_Source\PSoC5/AMux1.c **** #endif
  76:.\Generated_Source\PSoC5/AMux1.c **** 
  77:.\Generated_Source\PSoC5/AMux1.c **** 
  78:.\Generated_Source\PSoC5/AMux1.c **** /*******************************************************************************
  79:.\Generated_Source\PSoC5/AMux1.c **** * Function Name: AMux1_FastSelect
  80:.\Generated_Source\PSoC5/AMux1.c **** ********************************************************************************
  81:.\Generated_Source\PSoC5/AMux1.c **** * Summary:
  82:.\Generated_Source\PSoC5/AMux1.c **** *  This function first disconnects the last connection made with FastSelect or
ARM GAS  C:\Users\faithc\AppData\Local\Temp\ccdaxH06.s 			page 4


  83:.\Generated_Source\PSoC5/AMux1.c **** *  Select, then connects the given channel. The FastSelect function is similar
  84:.\Generated_Source\PSoC5/AMux1.c **** *  to the Select function, except it is faster since it only disconnects the
  85:.\Generated_Source\PSoC5/AMux1.c **** *  last channel selected rather than all channels.
  86:.\Generated_Source\PSoC5/AMux1.c **** *
  87:.\Generated_Source\PSoC5/AMux1.c **** * Parameters:
  88:.\Generated_Source\PSoC5/AMux1.c **** *  channel:  The channel to connect to the common terminal.
  89:.\Generated_Source\PSoC5/AMux1.c **** *
  90:.\Generated_Source\PSoC5/AMux1.c **** * Return:
  91:.\Generated_Source\PSoC5/AMux1.c **** *  void
  92:.\Generated_Source\PSoC5/AMux1.c **** *
  93:.\Generated_Source\PSoC5/AMux1.c **** *******************************************************************************/
  94:.\Generated_Source\PSoC5/AMux1.c **** void AMux1_FastSelect(uint8 channel) 
  95:.\Generated_Source\PSoC5/AMux1.c **** {
  88              		.loc 1 95 0
  89              		.cfi_startproc
  90              		@ args = 0, pretend = 0, frame = 8
  91              		@ frame_needed = 1, uses_anonymous_args = 0
  92 0000 80B5     		push	{r7, lr}
  93              		.cfi_def_cfa_offset 8
  94              		.cfi_offset 7, -8
  95              		.cfi_offset 14, -4
  96 0002 82B0     		sub	sp, sp, #8
  97              		.cfi_def_cfa_offset 16
  98 0004 00AF     		add	r7, sp, #0
  99              		.cfi_def_cfa_register 7
 100 0006 0346     		mov	r3, r0
 101 0008 FB71     		strb	r3, [r7, #7]
  96:.\Generated_Source\PSoC5/AMux1.c ****     /* Disconnect the last valid channel */
  97:.\Generated_Source\PSoC5/AMux1.c ****     if( AMux1_lastChannel != AMux1_NULL_CHANNEL)
 102              		.loc 1 97 0
 103 000a 094B     		ldr	r3, .L8
 104 000c 1B78     		ldrb	r3, [r3]	@ zero_extendqisi2
 105 000e FF2B     		cmp	r3, #255
 106 0010 04D0     		beq	.L7
  98:.\Generated_Source\PSoC5/AMux1.c ****     {
  99:.\Generated_Source\PSoC5/AMux1.c ****         AMux1_Disconnect(AMux1_lastChannel);
 107              		.loc 1 99 0
 108 0012 074B     		ldr	r3, .L8
 109 0014 1B78     		ldrb	r3, [r3]	@ zero_extendqisi2
 110 0016 1846     		mov	r0, r3
 111 0018 FFF7FEFF 		bl	AMux1_Unset
 112              	.L7:
 100:.\Generated_Source\PSoC5/AMux1.c ****     }
 101:.\Generated_Source\PSoC5/AMux1.c **** 
 102:.\Generated_Source\PSoC5/AMux1.c ****     /* Make the new channel connection */
 103:.\Generated_Source\PSoC5/AMux1.c **** #if (AMux1_MUXTYPE == AMux1_MUX_SINGLE)
 104:.\Generated_Source\PSoC5/AMux1.c ****     AMux1_Set(channel);
 113              		.loc 1 104 0
 114 001c FB79     		ldrb	r3, [r7, #7]	@ zero_extendqisi2
 115 001e 1846     		mov	r0, r3
 116 0020 FFF7FEFF 		bl	AMux1_Set
 105:.\Generated_Source\PSoC5/AMux1.c **** #else
 106:.\Generated_Source\PSoC5/AMux1.c ****     AMux1_CYAMUXSIDE_A_Set(channel);
 107:.\Generated_Source\PSoC5/AMux1.c ****     AMux1_CYAMUXSIDE_B_Set(channel);
 108:.\Generated_Source\PSoC5/AMux1.c **** #endif
 109:.\Generated_Source\PSoC5/AMux1.c **** 
 110:.\Generated_Source\PSoC5/AMux1.c **** 
ARM GAS  C:\Users\faithc\AppData\Local\Temp\ccdaxH06.s 			page 5


 111:.\Generated_Source\PSoC5/AMux1.c ****     AMux1_lastChannel = channel;   /* Update last channel */
 117              		.loc 1 111 0
 118 0024 024A     		ldr	r2, .L8
 119 0026 FB79     		ldrb	r3, [r7, #7]
 120 0028 1370     		strb	r3, [r2]
 112:.\Generated_Source\PSoC5/AMux1.c **** }
 121              		.loc 1 112 0
 122 002a 0837     		adds	r7, r7, #8
 123              		.cfi_def_cfa_offset 8
 124 002c BD46     		mov	sp, r7
 125              		.cfi_def_cfa_register 13
 126              		@ sp needed
 127 002e 80BD     		pop	{r7, pc}
 128              	.L9:
 129              		.align	2
 130              	.L8:
 131 0030 00000000 		.word	AMux1_lastChannel
 132              		.cfi_endproc
 133              	.LFE1:
 134              		.size	AMux1_FastSelect, .-AMux1_FastSelect
 135              		.section	.text.AMux1_DisconnectAll,"ax",%progbits
 136              		.align	2
 137              		.global	AMux1_DisconnectAll
 138              		.thumb
 139              		.thumb_func
 140              		.type	AMux1_DisconnectAll, %function
 141              	AMux1_DisconnectAll:
 142              	.LFB2:
 113:.\Generated_Source\PSoC5/AMux1.c **** 
 114:.\Generated_Source\PSoC5/AMux1.c **** 
 115:.\Generated_Source\PSoC5/AMux1.c **** #if (AMux1_MUXTYPE == AMux1_MUX_DIFF)
 116:.\Generated_Source\PSoC5/AMux1.c **** #if (!AMux1_ATMOSTONE)
 117:.\Generated_Source\PSoC5/AMux1.c **** /*******************************************************************************
 118:.\Generated_Source\PSoC5/AMux1.c **** * Function Name: AMux1_Connect
 119:.\Generated_Source\PSoC5/AMux1.c **** ********************************************************************************
 120:.\Generated_Source\PSoC5/AMux1.c **** * Summary:
 121:.\Generated_Source\PSoC5/AMux1.c **** *  This function connects the given channel without affecting other connections.
 122:.\Generated_Source\PSoC5/AMux1.c **** *
 123:.\Generated_Source\PSoC5/AMux1.c **** * Parameters:
 124:.\Generated_Source\PSoC5/AMux1.c **** *  channel:  The channel to connect to the common terminal.
 125:.\Generated_Source\PSoC5/AMux1.c **** *
 126:.\Generated_Source\PSoC5/AMux1.c **** * Return:
 127:.\Generated_Source\PSoC5/AMux1.c **** *  void
 128:.\Generated_Source\PSoC5/AMux1.c **** *
 129:.\Generated_Source\PSoC5/AMux1.c **** *******************************************************************************/
 130:.\Generated_Source\PSoC5/AMux1.c **** void AMux1_Connect(uint8 channel) 
 131:.\Generated_Source\PSoC5/AMux1.c **** {
 132:.\Generated_Source\PSoC5/AMux1.c ****     AMux1_CYAMUXSIDE_A_Set(channel);
 133:.\Generated_Source\PSoC5/AMux1.c ****     AMux1_CYAMUXSIDE_B_Set(channel);
 134:.\Generated_Source\PSoC5/AMux1.c **** }
 135:.\Generated_Source\PSoC5/AMux1.c **** #endif
 136:.\Generated_Source\PSoC5/AMux1.c **** 
 137:.\Generated_Source\PSoC5/AMux1.c **** /*******************************************************************************
 138:.\Generated_Source\PSoC5/AMux1.c **** * Function Name: AMux1_Disconnect
 139:.\Generated_Source\PSoC5/AMux1.c **** ********************************************************************************
 140:.\Generated_Source\PSoC5/AMux1.c **** * Summary:
 141:.\Generated_Source\PSoC5/AMux1.c **** *  This function disconnects the given channel from the common or output
ARM GAS  C:\Users\faithc\AppData\Local\Temp\ccdaxH06.s 			page 6


 142:.\Generated_Source\PSoC5/AMux1.c **** *  terminal without affecting other connections.
 143:.\Generated_Source\PSoC5/AMux1.c **** *
 144:.\Generated_Source\PSoC5/AMux1.c **** * Parameters:
 145:.\Generated_Source\PSoC5/AMux1.c **** *  channel:  The channel to disconnect from the common terminal.
 146:.\Generated_Source\PSoC5/AMux1.c **** *
 147:.\Generated_Source\PSoC5/AMux1.c **** * Return:
 148:.\Generated_Source\PSoC5/AMux1.c **** *  void
 149:.\Generated_Source\PSoC5/AMux1.c **** *
 150:.\Generated_Source\PSoC5/AMux1.c **** *******************************************************************************/
 151:.\Generated_Source\PSoC5/AMux1.c **** void AMux1_Disconnect(uint8 channel) 
 152:.\Generated_Source\PSoC5/AMux1.c **** {
 153:.\Generated_Source\PSoC5/AMux1.c ****     AMux1_CYAMUXSIDE_A_Unset(channel);
 154:.\Generated_Source\PSoC5/AMux1.c ****     AMux1_CYAMUXSIDE_B_Unset(channel);
 155:.\Generated_Source\PSoC5/AMux1.c **** }
 156:.\Generated_Source\PSoC5/AMux1.c **** #endif
 157:.\Generated_Source\PSoC5/AMux1.c **** 
 158:.\Generated_Source\PSoC5/AMux1.c **** #if (AMux1_ATMOSTONE)
 159:.\Generated_Source\PSoC5/AMux1.c **** /*******************************************************************************
 160:.\Generated_Source\PSoC5/AMux1.c **** * Function Name: AMux1_DisconnectAll
 161:.\Generated_Source\PSoC5/AMux1.c **** ********************************************************************************
 162:.\Generated_Source\PSoC5/AMux1.c **** * Summary:
 163:.\Generated_Source\PSoC5/AMux1.c **** *  This function disconnects all channels.
 164:.\Generated_Source\PSoC5/AMux1.c **** *
 165:.\Generated_Source\PSoC5/AMux1.c **** * Parameters:
 166:.\Generated_Source\PSoC5/AMux1.c **** *  void
 167:.\Generated_Source\PSoC5/AMux1.c **** *
 168:.\Generated_Source\PSoC5/AMux1.c **** * Return:
 169:.\Generated_Source\PSoC5/AMux1.c **** *  void
 170:.\Generated_Source\PSoC5/AMux1.c **** *
 171:.\Generated_Source\PSoC5/AMux1.c **** *******************************************************************************/
 172:.\Generated_Source\PSoC5/AMux1.c **** void AMux1_DisconnectAll(void) 
 173:.\Generated_Source\PSoC5/AMux1.c **** {
 143              		.loc 1 173 0
 144              		.cfi_startproc
 145              		@ args = 0, pretend = 0, frame = 0
 146              		@ frame_needed = 1, uses_anonymous_args = 0
 147 0000 80B5     		push	{r7, lr}
 148              		.cfi_def_cfa_offset 8
 149              		.cfi_offset 7, -8
 150              		.cfi_offset 14, -4
 151 0002 00AF     		add	r7, sp, #0
 152              		.cfi_def_cfa_register 7
 174:.\Generated_Source\PSoC5/AMux1.c ****     if(AMux1_lastChannel != AMux1_NULL_CHANNEL) 
 153              		.loc 1 174 0
 154 0004 064B     		ldr	r3, .L12
 155 0006 1B78     		ldrb	r3, [r3]	@ zero_extendqisi2
 156 0008 FF2B     		cmp	r3, #255
 157 000a 07D0     		beq	.L10
 175:.\Generated_Source\PSoC5/AMux1.c ****     {
 176:.\Generated_Source\PSoC5/AMux1.c ****         AMux1_Disconnect(AMux1_lastChannel);
 158              		.loc 1 176 0
 159 000c 044B     		ldr	r3, .L12
 160 000e 1B78     		ldrb	r3, [r3]	@ zero_extendqisi2
 161 0010 1846     		mov	r0, r3
 162 0012 FFF7FEFF 		bl	AMux1_Unset
 177:.\Generated_Source\PSoC5/AMux1.c ****         AMux1_lastChannel = AMux1_NULL_CHANNEL;
 163              		.loc 1 177 0
ARM GAS  C:\Users\faithc\AppData\Local\Temp\ccdaxH06.s 			page 7


 164 0016 024B     		ldr	r3, .L12
 165 0018 FF22     		movs	r2, #255
 166 001a 1A70     		strb	r2, [r3]
 167              	.L10:
 178:.\Generated_Source\PSoC5/AMux1.c ****     }
 179:.\Generated_Source\PSoC5/AMux1.c **** }
 168              		.loc 1 179 0
 169 001c 80BD     		pop	{r7, pc}
 170              	.L13:
 171 001e 00BF     		.align	2
 172              	.L12:
 173 0020 00000000 		.word	AMux1_lastChannel
 174              		.cfi_endproc
 175              	.LFE2:
 176              		.size	AMux1_DisconnectAll, .-AMux1_DisconnectAll
 177              		.text
 178              	.Letext0:
 179              		.file 2 ".\\Generated_Source\\PSoC5\\cytypes.h"