ARM GAS  C:\Users\faithc\AppData\Local\Temp\ccNb4MBo.s 			page 1


   1              		.syntax unified
   2              		.cpu cortex-m3
   3              		.fpu softvfp
   4              		.eabi_attribute 20, 1
   5              		.eabi_attribute 21, 1
   6              		.eabi_attribute 23, 3
   7              		.eabi_attribute 24, 1
   8              		.eabi_attribute 25, 1
   9              		.eabi_attribute 26, 1
  10              		.eabi_attribute 30, 6
  11              		.eabi_attribute 34, 1
  12              		.eabi_attribute 18, 4
  13              		.thumb
  14              		.file	"CommManager.c"
  15              		.text
  16              	.Ltext0:
  17              		.cfi_sections	.debug_frame
  18              		.section	.rodata
  19              		.type	START_BYTE, %object
  20              		.size	START_BYTE, 1
  21              	START_BYTE:
  22 0000 AA       		.byte	-86
  23              		.type	STOP_BYTE, %object
  24              		.size	STOP_BYTE, 1
  25              	STOP_BYTE:
  26 0001 55       		.byte	85
  27              		.type	INITIAL_DAC_VALUE, %object
  28              		.size	INITIAL_DAC_VALUE, 1
  29              	INITIAL_DAC_VALUE:
  30 0002 80       		.byte	-128
  31              		.type	TIMER_LIMIT_IN_TEN_MILLISECONDS, %object
  32              		.size	TIMER_LIMIT_IN_TEN_MILLISECONDS, 1
  33              	TIMER_LIMIT_IN_TEN_MILLISECONDS:
  34 0003 32       		.byte	50
  35              		.data
  36              		.align	2
  37              		.type	PacketList, %object
  38              		.size	PacketList, 10
  39              	PacketList:
  40 0000 7E       		.byte	126
  41 0001 56       		.byte	86
  42 0002 01       		.byte	1
  43 0003 0D       		.byte	13
  44 0004 0A       		.byte	10
  45 0005 7E       		.byte	126
  46 0006 53       		.byte	83
  47 0007 03       		.byte	3
  48 0008 0D       		.byte	13
  49 0009 0A       		.byte	10
  50              		.bss
  51              	bVoiceStreamEnabled:
  52 0000 00       		.space	1
  53              	tenMilliSecondsCount:
  54 0001 00       		.space	1
  55              		.section	.text.processByteReceivedHandler,"ax",%progbits
  56              		.align	2
  57              		.global	processByteReceivedHandler
ARM GAS  C:\Users\faithc\AppData\Local\Temp\ccNb4MBo.s 			page 2


  58              		.thumb
  59              		.thumb_func
  60              		.type	processByteReceivedHandler, %function
  61              	processByteReceivedHandler:
  62              	.LFB63:
  63              		.file 1 ".\\CommManager.c"
   1:.\CommManager.c **** /* ========================================
   2:.\CommManager.c ****  *
   3:.\CommManager.c ****  * Copyright FENIEX INDUSTRIES, 2016
   4:.\CommManager.c ****  * 200W SIREN
   5:.\CommManager.c ****  *
   6:.\CommManager.c ****  * All Rights Reserved
   7:.\CommManager.c ****  * UNPUBLISHED, LICENSED SOFTWARE.
   8:.\CommManager.c ****  *
   9:.\CommManager.c ****  * CONFIDENTIAL AND PROPRIETARY INFORMATION
  10:.\CommManager.c ****  * WHICH IS THE PROPERTY OF your company.
  11:.\CommManager.c ****  *
  12:.\CommManager.c ****  * ========================================
  13:.\CommManager.c **** */
  14:.\CommManager.c **** 
  15:.\CommManager.c **** /**********CHANGE LOG**********/
  16:.\CommManager.c **** 
  17:.\CommManager.c **** 
  18:.\CommManager.c **** /**********PREPROCESSOR DIRECTIVES**********/
  19:.\CommManager.c **** #include "CommonVariables.h"
  20:.\CommManager.c **** #include "SirenState.h"
  21:.\CommManager.c **** #include "CommManager.h"
  22:.\CommManager.c **** 
  23:.\CommManager.c **** #define HEADER_BYTE_COUNT       2
  24:.\CommManager.c **** #define EOP_BYTE_COUNT          2
  25:.\CommManager.c **** 
  26:.\CommManager.c **** #define HEADER_START_INDEX      0
  27:.\CommManager.c **** #define PAYLOAD_START_INDEX     HEADER_BYTE_COUNT
  28:.\CommManager.c **** 
  29:.\CommManager.c **** #define MAX_PAYLOAD_BYTE_COUNT  7
  30:.\CommManager.c **** #define PACKET_TYPE_COUNT       2
  31:.\CommManager.c **** 
  32:.\CommManager.c **** /**********DEFINED CONSTANTS**********/
  33:.\CommManager.c **** enum DataType
  34:.\CommManager.c **** {
  35:.\CommManager.c ****     VOICE_DATA,
  36:.\CommManager.c ****     SIREN_INPUTS,
  37:.\CommManager.c **** };
  38:.\CommManager.c **** 
  39:.\CommManager.c **** enum PacketState
  40:.\CommManager.c **** {
  41:.\CommManager.c ****     HEADER_STATE,
  42:.\CommManager.c ****     PAYLOAD_STATE,
  43:.\CommManager.c ****     EOP_STATE
  44:.\CommManager.c **** };
  45:.\CommManager.c **** 
  46:.\CommManager.c **** static const uint8 START_BYTE = 0xAA;
  47:.\CommManager.c **** static const uint8 STOP_BYTE = 0x55;
  48:.\CommManager.c **** static const uint8 INITIAL_DAC_VALUE = 128;
  49:.\CommManager.c **** static const uint8 TIMER_LIMIT_IN_TEN_MILLISECONDS = 50;
  50:.\CommManager.c **** 
  51:.\CommManager.c **** /**********DATA STRUCTURES**********/
ARM GAS  C:\Users\faithc\AppData\Local\Temp\ccNb4MBo.s 			page 3


  52:.\CommManager.c **** typedef struct
  53:.\CommManager.c **** {
  54:.\CommManager.c ****     const uint8 HEADER_BYTE;
  55:.\CommManager.c ****     const uint8 PACKET_TYPE;
  56:.\CommManager.c ****     const uint8 PAYLOAD_SIZE;
  57:.\CommManager.c ****     const uint8 EOP_CARRIAGE_RETURN;
  58:.\CommManager.c ****     const uint8 EOP_LINE_FEED;
  59:.\CommManager.c **** }Packet;
  60:.\CommManager.c **** 
  61:.\CommManager.c **** static Packet PacketList[PACKET_TYPE_COUNT] = 
  62:.\CommManager.c **** {
  63:.\CommManager.c ****     {'~', 'V', 1, '\r', '\n'},
  64:.\CommManager.c ****     {'~', 'S', 3, '\r', '\n'},
  65:.\CommManager.c **** };
  66:.\CommManager.c **** 
  67:.\CommManager.c **** /**********GLOBAL VARIABLES**********/
  68:.\CommManager.c **** static uint8 bVoiceStreamEnabled = false;
  69:.\CommManager.c **** static uint8 tenMilliSecondsCount = 0;
  70:.\CommManager.c **** 
  71:.\CommManager.c **** /**********LOCAL FUNCTION PROTOTYPES**********/
  72:.\CommManager.c **** static void detectPacket(uint8 dataByte);
  73:.\CommManager.c **** static void startVoiceStreamMode(void);
  74:.\CommManager.c **** static void stopVoiceStreamMode(void);
  75:.\CommManager.c **** 
  76:.\CommManager.c **** /**********DEFINED GLOBAL FUNCTIONS**********/
  77:.\CommManager.c **** /*******************************************************************************
  78:.\CommManager.c **** * Function Name: processByteReceivedHandler
  79:.\CommManager.c **** ********************************************************************************
  80:.\CommManager.c **** *
  81:.\CommManager.c **** * Summary:
  82:.\CommManager.c **** *  Triggers when a byte is received in UART, called in UART_ISR(). If in voice
  83:.\CommManager.c **** *  stream mode, the byte is sent directly to the DAC.
  84:.\CommManager.c **** *
  85:.\CommManager.c **** * Parameters:
  86:.\CommManager.c **** *  None.
  87:.\CommManager.c **** *
  88:.\CommManager.c **** * Return:
  89:.\CommManager.c **** *  None.
  90:.\CommManager.c **** *
  91:.\CommManager.c **** *******************************************************************************/
  92:.\CommManager.c **** void processByteReceivedHandler(void)
  93:.\CommManager.c **** {
  64              		.loc 1 93 0
  65              		.cfi_startproc
  66              		@ args = 0, pretend = 0, frame = 8
  67              		@ frame_needed = 1, uses_anonymous_args = 0
  68 0000 80B5     		push	{r7, lr}
  69              		.cfi_def_cfa_offset 8
  70              		.cfi_offset 7, -8
  71              		.cfi_offset 14, -4
  72 0002 82B0     		sub	sp, sp, #8
  73              		.cfi_def_cfa_offset 16
  74 0004 00AF     		add	r7, sp, #0
  75              		.cfi_def_cfa_register 7
  94:.\CommManager.c ****     uint8 dataByte = 0;
  76              		.loc 1 94 0
  77 0006 0023     		movs	r3, #0
ARM GAS  C:\Users\faithc\AppData\Local\Temp\ccNb4MBo.s 			page 4


  78 0008 FB71     		strb	r3, [r7, #7]
  95:.\CommManager.c ****     
  96:.\CommManager.c ****     UART_Timer_Stop();
  79              		.loc 1 96 0
  80 000a FFF7FEFF 		bl	UART_Timer_Stop
  97:.\CommManager.c ****     disableToneInputInterrupts();
  81              		.loc 1 97 0
  82 000e FFF7FEFF 		bl	disableToneInputInterrupts
  98:.\CommManager.c ****     tenMilliSecondsCount = 0;
  83              		.loc 1 98 0
  84 0012 114B     		ldr	r3, .L4
  85 0014 0022     		movs	r2, #0
  86 0016 1A70     		strb	r2, [r3]
  87              	.L3:
  99:.\CommManager.c ****     
 100:.\CommManager.c ****     do
 101:.\CommManager.c ****     {
 102:.\CommManager.c ****         dataByte = UART_GetChar();
  88              		.loc 1 102 0
  89 0018 FFF7FEFF 		bl	UART_GetChar
  90 001c 0346     		mov	r3, r0
  91 001e FB71     		strb	r3, [r7, #7]
 103:.\CommManager.c ****         
 104:.\CommManager.c ****         if(bVoiceStreamEnabled)
  92              		.loc 1 104 0
  93 0020 0E4B     		ldr	r3, .L4+4
  94 0022 1B78     		ldrb	r3, [r3]	@ zero_extendqisi2
  95 0024 002B     		cmp	r3, #0
  96 0026 07D0     		beq	.L2
 105:.\CommManager.c ****         {   
 106:.\CommManager.c ****             VDAC8_1_SetValue(dataByte);
  97              		.loc 1 106 0
  98 0028 FB79     		ldrb	r3, [r7, #7]	@ zero_extendqisi2
  99 002a 1846     		mov	r0, r3
 100 002c FFF7FEFF 		bl	VDAC8_1_SetValue
 107:.\CommManager.c ****             VDAC8_2_SetValue(dataByte);
 101              		.loc 1 107 0
 102 0030 FB79     		ldrb	r3, [r7, #7]	@ zero_extendqisi2
 103 0032 1846     		mov	r0, r3
 104 0034 FFF7FEFF 		bl	VDAC8_2_SetValue
 105              	.L2:
 108:.\CommManager.c ****         }
 109:.\CommManager.c ****         
 110:.\CommManager.c ****         detectPacket(dataByte);
 106              		.loc 1 110 0
 107 0038 FB79     		ldrb	r3, [r7, #7]	@ zero_extendqisi2
 108 003a 1846     		mov	r0, r3
 109 003c FFF7FEFF 		bl	detectPacket
 111:.\CommManager.c ****         
 112:.\CommManager.c ****     }while(UART_ReadRxStatus() & UART_RX_STS_FIFO_NOTEMPTY);
 110              		.loc 1 112 0
 111 0040 FFF7FEFF 		bl	UART_ReadRxStatus
 112 0044 0346     		mov	r3, r0
 113 0046 03F02003 		and	r3, r3, #32
 114 004a 002B     		cmp	r3, #0
 115 004c E4D1     		bne	.L3
 113:.\CommManager.c ****     
ARM GAS  C:\Users\faithc\AppData\Local\Temp\ccNb4MBo.s 			page 5


 114:.\CommManager.c ****     UART_Timer_Start();
 116              		.loc 1 114 0
 117 004e FFF7FEFF 		bl	UART_Timer_Start
 115:.\CommManager.c **** }
 118              		.loc 1 115 0
 119 0052 0837     		adds	r7, r7, #8
 120              		.cfi_def_cfa_offset 8
 121 0054 BD46     		mov	sp, r7
 122              		.cfi_def_cfa_register 13
 123              		@ sp needed
 124 0056 80BD     		pop	{r7, pc}
 125              	.L5:
 126              		.align	2
 127              	.L4:
 128 0058 01000000 		.word	tenMilliSecondsCount
 129 005c 00000000 		.word	bVoiceStreamEnabled
 130              		.cfi_endproc
 131              	.LFE63:
 132              		.size	processByteReceivedHandler, .-processByteReceivedHandler
 133              		.section	.text.processLED_TimerRoutine,"ax",%progbits
 134              		.align	2
 135              		.global	processLED_TimerRoutine
 136              		.thumb
 137              		.thumb_func
 138              		.type	processLED_TimerRoutine, %function
 139              	processLED_TimerRoutine:
 140              	.LFB64:
 116:.\CommManager.c **** 
 117:.\CommManager.c **** /*******************************************************************************
 118:.\CommManager.c **** * Function Name: processLED_TimerRoutine
 119:.\CommManager.c **** ********************************************************************************
 120:.\CommManager.c **** *
 121:.\CommManager.c **** * Summary:
 122:.\CommManager.c **** *  Toggles the LED every second, called in LED_ISR().
 123:.\CommManager.c **** *
 124:.\CommManager.c **** * Parameters:
 125:.\CommManager.c **** *  None.
 126:.\CommManager.c **** *
 127:.\CommManager.c **** * Return:
 128:.\CommManager.c **** *  None.
 129:.\CommManager.c **** *
 130:.\CommManager.c **** *******************************************************************************/
 131:.\CommManager.c **** void processLED_TimerRoutine(void)
 132:.\CommManager.c **** {
 141              		.loc 1 132 0
 142              		.cfi_startproc
 143              		@ args = 0, pretend = 0, frame = 0
 144              		@ frame_needed = 1, uses_anonymous_args = 0
 145 0000 80B5     		push	{r7, lr}
 146              		.cfi_def_cfa_offset 8
 147              		.cfi_offset 7, -8
 148              		.cfi_offset 14, -4
 149 0002 00AF     		add	r7, sp, #0
 150              		.cfi_def_cfa_register 7
 133:.\CommManager.c ****     static uint8 bSwitch = false;
 134:.\CommManager.c ****     
 135:.\CommManager.c ****     LED_Timer_ReadStatusRegister();
ARM GAS  C:\Users\faithc\AppData\Local\Temp\ccNb4MBo.s 			page 6


 151              		.loc 1 135 0
 152 0004 FFF7FEFF 		bl	LED_Timer_ReadStatusRegister
 136:.\CommManager.c ****     
 137:.\CommManager.c ****     bSwitch = !bSwitch;
 153              		.loc 1 137 0
 154 0008 074B     		ldr	r3, .L7
 155 000a 1B78     		ldrb	r3, [r3]	@ zero_extendqisi2
 156 000c 002B     		cmp	r3, #0
 157 000e 0CBF     		ite	eq
 158 0010 0123     		moveq	r3, #1
 159 0012 0023     		movne	r3, #0
 160 0014 DBB2     		uxtb	r3, r3
 161 0016 1A46     		mov	r2, r3
 162 0018 034B     		ldr	r3, .L7
 163 001a 1A70     		strb	r2, [r3]
 138:.\CommManager.c ****     LEDoutput_Write(bSwitch);
 164              		.loc 1 138 0
 165 001c 024B     		ldr	r3, .L7
 166 001e 1B78     		ldrb	r3, [r3]	@ zero_extendqisi2
 167 0020 1846     		mov	r0, r3
 168 0022 FFF7FEFF 		bl	LEDoutput_Write
 139:.\CommManager.c **** }
 169              		.loc 1 139 0
 170 0026 80BD     		pop	{r7, pc}
 171              	.L8:
 172              		.align	2
 173              	.L7:
 174 0028 02000000 		.word	bSwitch.7238
 175              		.cfi_endproc
 176              	.LFE64:
 177              		.size	processLED_TimerRoutine, .-processLED_TimerRoutine
 178              		.section	.text.processCommTimeoutRoutine,"ax",%progbits
 179              		.align	2
 180              		.global	processCommTimeoutRoutine
 181              		.thumb
 182              		.thumb_func
 183              		.type	processCommTimeoutRoutine, %function
 184              	processCommTimeoutRoutine:
 185              	.LFB65:
 140:.\CommManager.c **** 
 141:.\CommManager.c **** /*******************************************************************************
 142:.\CommManager.c **** * Function Name: processCommTimeoutRoutine
 143:.\CommManager.c **** ********************************************************************************
 144:.\CommManager.c **** *
 145:.\CommManager.c **** * Summary:
 146:.\CommManager.c **** *  Starts to count when UART has not received data for more than a second. After
 147:.\CommManager.c **** *   reaching the timer limit, the routine reenables the siren inputs and stops
 148:.\CommManager.c **** *   the timer. Called in UART_TimerISR().
 149:.\CommManager.c **** *
 150:.\CommManager.c **** * Parameters:
 151:.\CommManager.c **** *  None.
 152:.\CommManager.c **** *
 153:.\CommManager.c **** * Return:
 154:.\CommManager.c **** *  None.
 155:.\CommManager.c **** *
 156:.\CommManager.c **** *******************************************************************************/
 157:.\CommManager.c **** void processCommTimeoutRoutine(void)
ARM GAS  C:\Users\faithc\AppData\Local\Temp\ccNb4MBo.s 			page 7


 158:.\CommManager.c **** {
 186              		.loc 1 158 0
 187              		.cfi_startproc
 188              		@ args = 0, pretend = 0, frame = 0
 189              		@ frame_needed = 1, uses_anonymous_args = 0
 190 0000 80B5     		push	{r7, lr}
 191              		.cfi_def_cfa_offset 8
 192              		.cfi_offset 7, -8
 193              		.cfi_offset 14, -4
 194 0002 00AF     		add	r7, sp, #0
 195              		.cfi_def_cfa_register 7
 159:.\CommManager.c ****     UART_Timer_ReadStatusRegister();
 196              		.loc 1 159 0
 197 0004 FFF7FEFF 		bl	UART_Timer_ReadStatusRegister
 160:.\CommManager.c ****     
 161:.\CommManager.c ****     if(tenMilliSecondsCount < TIMER_LIMIT_IN_TEN_MILLISECONDS)
 198              		.loc 1 161 0
 199 0008 0B4B     		ldr	r3, .L12
 200 000a 1B78     		ldrb	r3, [r3]	@ zero_extendqisi2
 201 000c 3222     		movs	r2, #50
 202 000e 9342     		cmp	r3, r2
 203 0010 06D2     		bcs	.L10
 162:.\CommManager.c ****         tenMilliSecondsCount++;
 204              		.loc 1 162 0
 205 0012 094B     		ldr	r3, .L12
 206 0014 1B78     		ldrb	r3, [r3]	@ zero_extendqisi2
 207 0016 0133     		adds	r3, r3, #1
 208 0018 DAB2     		uxtb	r2, r3
 209 001a 074B     		ldr	r3, .L12
 210 001c 1A70     		strb	r2, [r3]
 211 001e 0AE0     		b	.L9
 212              	.L10:
 163:.\CommManager.c ****     else
 164:.\CommManager.c ****     {
 165:.\CommManager.c ****         tenMilliSecondsCount = 0;
 213              		.loc 1 165 0
 214 0020 054B     		ldr	r3, .L12
 215 0022 0022     		movs	r2, #0
 216 0024 1A70     		strb	r2, [r3]
 166:.\CommManager.c ****         disableAudioAndPWM();
 217              		.loc 1 166 0
 218 0026 FFF7FEFF 		bl	disableAudioAndPWM
 167:.\CommManager.c ****         disableBothSpeakers();
 219              		.loc 1 167 0
 220 002a FFF7FEFF 		bl	disableBothSpeakers
 168:.\CommManager.c ****         enableToneInputInterrupts();
 221              		.loc 1 168 0
 222 002e FFF7FEFF 		bl	enableToneInputInterrupts
 169:.\CommManager.c ****         UART_Timer_Stop();
 223              		.loc 1 169 0
 224 0032 FFF7FEFF 		bl	UART_Timer_Stop
 225              	.L9:
 170:.\CommManager.c ****     }
 171:.\CommManager.c **** }
 226              		.loc 1 171 0
 227 0036 80BD     		pop	{r7, pc}
 228              	.L13:
ARM GAS  C:\Users\faithc\AppData\Local\Temp\ccNb4MBo.s 			page 8


 229              		.align	2
 230              	.L12:
 231 0038 01000000 		.word	tenMilliSecondsCount
 232              		.cfi_endproc
 233              	.LFE65:
 234              		.size	processCommTimeoutRoutine, .-processCommTimeoutRoutine
 235              		.section	.text.detectPacket,"ax",%progbits
 236              		.align	2
 237              		.thumb
 238              		.thumb_func
 239              		.type	detectPacket, %function
 240              	detectPacket:
 241              	.LFB66:
 172:.\CommManager.c **** 
 173:.\CommManager.c **** /**********DEFINED LOCAL FUNCTIONS**********/
 174:.\CommManager.c **** /*******************************************************************************
 175:.\CommManager.c **** * Function Name: detectPacket
 176:.\CommManager.c **** ********************************************************************************
 177:.\CommManager.c **** *
 178:.\CommManager.c **** * Summary:
 179:.\CommManager.c **** *  Determines if the incoming byte belongs to a valid packet. If the packet is for
 180:.\CommManager.c **** *  for starting voice stream, voice stream mode will be activated.
 181:.\CommManager.c **** *
 182:.\CommManager.c **** * Parameters:
 183:.\CommManager.c **** *  dataByte: The byte to check
 184:.\CommManager.c **** *
 185:.\CommManager.c **** * Return:
 186:.\CommManager.c **** *  None.
 187:.\CommManager.c **** *
 188:.\CommManager.c **** *******************************************************************************/
 189:.\CommManager.c **** static void detectPacket(uint8 dataByte)
 190:.\CommManager.c **** {
 242              		.loc 1 190 0
 243              		.cfi_startproc
 244              		@ args = 0, pretend = 0, frame = 8
 245              		@ frame_needed = 1, uses_anonymous_args = 0
 246 0000 80B5     		push	{r7, lr}
 247              		.cfi_def_cfa_offset 8
 248              		.cfi_offset 7, -8
 249              		.cfi_offset 14, -4
 250 0002 82B0     		sub	sp, sp, #8
 251              		.cfi_def_cfa_offset 16
 252 0004 00AF     		add	r7, sp, #0
 253              		.cfi_def_cfa_register 7
 254 0006 0346     		mov	r3, r0
 255 0008 FB71     		strb	r3, [r7, #7]
 191:.\CommManager.c ****     static uint8 packet[MAX_PAYLOAD_BYTE_COUNT+HEADER_BYTE_COUNT+EOP_BYTE_COUNT];   
 192:.\CommManager.c ****     static enum PacketState currentState = HEADER_STATE;
 193:.\CommManager.c ****     static enum DataType currentType = SIREN_INPUTS;
 194:.\CommManager.c ****     static uint8 currentPacketIndex = HEADER_START_INDEX;
 195:.\CommManager.c ****     
 196:.\CommManager.c ****     switch(currentState)
 256              		.loc 1 196 0
 257 000a 7D4B     		ldr	r3, .L34
 258 000c 1B78     		ldrb	r3, [r3]	@ zero_extendqisi2
 259 000e 012B     		cmp	r3, #1
 260 0010 51D0     		beq	.L16
ARM GAS  C:\Users\faithc\AppData\Local\Temp\ccNb4MBo.s 			page 9


 261 0012 022B     		cmp	r3, #2
 262 0014 6FD0     		beq	.L17
 263 0016 002B     		cmp	r3, #0
 264 0018 40F0EE80 		bne	.L14
 197:.\CommManager.c ****     {
 198:.\CommManager.c ****         case HEADER_STATE:
 199:.\CommManager.c ****             if((currentPacketIndex == HEADER_START_INDEX) && ((dataByte == PacketList[VOICE_DATA].H
 265              		.loc 1 199 0
 266 001c 794B     		ldr	r3, .L34+4
 267 001e 1B78     		ldrb	r3, [r3]	@ zero_extendqisi2
 268 0020 002B     		cmp	r3, #0
 269 0022 16D1     		bne	.L19
 270              		.loc 1 199 0 is_stmt 0 discriminator 1
 271 0024 784B     		ldr	r3, .L34+8
 272 0026 1B78     		ldrb	r3, [r3]	@ zero_extendqisi2
 273 0028 FA79     		ldrb	r2, [r7, #7]	@ zero_extendqisi2
 274 002a 9A42     		cmp	r2, r3
 275 002c 04D0     		beq	.L20
 200:.\CommManager.c ****                 (dataByte == PacketList[SIREN_INPUTS].HEADER_BYTE)))
 276              		.loc 1 200 0 is_stmt 1 discriminator 2
 277 002e 764B     		ldr	r3, .L34+8
 278 0030 5B79     		ldrb	r3, [r3, #5]	@ zero_extendqisi2
 199:.\CommManager.c ****                 (dataByte == PacketList[SIREN_INPUTS].HEADER_BYTE)))
 279              		.loc 1 199 0 discriminator 2
 280 0032 FA79     		ldrb	r2, [r7, #7]	@ zero_extendqisi2
 281 0034 9A42     		cmp	r2, r3
 282 0036 0CD1     		bne	.L19
 283              	.L20:
 201:.\CommManager.c ****             {
 202:.\CommManager.c ****                 packet[currentPacketIndex] = dataByte;
 284              		.loc 1 202 0
 285 0038 724B     		ldr	r3, .L34+4
 286 003a 1B78     		ldrb	r3, [r3]	@ zero_extendqisi2
 287 003c 1946     		mov	r1, r3
 288 003e 734A     		ldr	r2, .L34+12
 289 0040 FB79     		ldrb	r3, [r7, #7]
 290 0042 5354     		strb	r3, [r2, r1]
 203:.\CommManager.c ****                 currentPacketIndex++;
 291              		.loc 1 203 0
 292 0044 6F4B     		ldr	r3, .L34+4
 293 0046 1B78     		ldrb	r3, [r3]	@ zero_extendqisi2
 294 0048 0133     		adds	r3, r3, #1
 295 004a DAB2     		uxtb	r2, r3
 296 004c 6D4B     		ldr	r3, .L34+4
 297 004e 1A70     		strb	r2, [r3]
 298 0050 30E0     		b	.L21
 299              	.L19:
 204:.\CommManager.c ****             }
 205:.\CommManager.c ****             else if((currentPacketIndex == (HEADER_START_INDEX+1)) && ((dataByte == PacketList[VOIC
 300              		.loc 1 205 0
 301 0052 6C4B     		ldr	r3, .L34+4
 302 0054 1B78     		ldrb	r3, [r3]	@ zero_extendqisi2
 303 0056 012B     		cmp	r3, #1
 304 0058 25D1     		bne	.L22
 305              		.loc 1 205 0 is_stmt 0 discriminator 1
 306 005a 6B4B     		ldr	r3, .L34+8
 307 005c 5B78     		ldrb	r3, [r3, #1]	@ zero_extendqisi2
ARM GAS  C:\Users\faithc\AppData\Local\Temp\ccNb4MBo.s 			page 10


 308 005e FA79     		ldrb	r2, [r7, #7]	@ zero_extendqisi2
 309 0060 9A42     		cmp	r2, r3
 310 0062 04D0     		beq	.L23
 206:.\CommManager.c ****                 (dataByte == PacketList[SIREN_INPUTS].PACKET_TYPE)))
 311              		.loc 1 206 0 is_stmt 1 discriminator 2
 312 0064 684B     		ldr	r3, .L34+8
 313 0066 9B79     		ldrb	r3, [r3, #6]	@ zero_extendqisi2
 205:.\CommManager.c ****                 (dataByte == PacketList[SIREN_INPUTS].PACKET_TYPE)))
 314              		.loc 1 205 0 discriminator 2
 315 0068 FA79     		ldrb	r2, [r7, #7]	@ zero_extendqisi2
 316 006a 9A42     		cmp	r2, r3
 317 006c 1BD1     		bne	.L22
 318              	.L23:
 207:.\CommManager.c ****             {
 208:.\CommManager.c ****                 packet[currentPacketIndex] = dataByte;
 319              		.loc 1 208 0
 320 006e 654B     		ldr	r3, .L34+4
 321 0070 1B78     		ldrb	r3, [r3]	@ zero_extendqisi2
 322 0072 1946     		mov	r1, r3
 323 0074 654A     		ldr	r2, .L34+12
 324 0076 FB79     		ldrb	r3, [r7, #7]
 325 0078 5354     		strb	r3, [r2, r1]
 209:.\CommManager.c ****                 currentPacketIndex++;
 326              		.loc 1 209 0
 327 007a 624B     		ldr	r3, .L34+4
 328 007c 1B78     		ldrb	r3, [r3]	@ zero_extendqisi2
 329 007e 0133     		adds	r3, r3, #1
 330 0080 DAB2     		uxtb	r2, r3
 331 0082 604B     		ldr	r3, .L34+4
 332 0084 1A70     		strb	r2, [r3]
 210:.\CommManager.c ****                 currentState = PAYLOAD_STATE;
 333              		.loc 1 210 0
 334 0086 5E4B     		ldr	r3, .L34
 335 0088 0122     		movs	r2, #1
 336 008a 1A70     		strb	r2, [r3]
 211:.\CommManager.c ****                 
 212:.\CommManager.c ****                 if(dataByte == PacketList[VOICE_DATA].PACKET_TYPE)
 337              		.loc 1 212 0
 338 008c 5E4B     		ldr	r3, .L34+8
 339 008e 5B78     		ldrb	r3, [r3, #1]	@ zero_extendqisi2
 340 0090 FA79     		ldrb	r2, [r7, #7]	@ zero_extendqisi2
 341 0092 9A42     		cmp	r2, r3
 342 0094 03D1     		bne	.L24
 213:.\CommManager.c ****                     currentType = VOICE_DATA;
 343              		.loc 1 213 0
 344 0096 5E4B     		ldr	r3, .L34+16
 345 0098 0022     		movs	r2, #0
 346 009a 1A70     		strb	r2, [r3]
 212:.\CommManager.c ****                     currentType = VOICE_DATA;
 347              		.loc 1 212 0
 348 009c 0AE0     		b	.L21
 349              	.L24:
 214:.\CommManager.c ****                 else
 215:.\CommManager.c ****                     currentType = SIREN_INPUTS;
 350              		.loc 1 215 0
 351 009e 5C4B     		ldr	r3, .L34+16
 352 00a0 0122     		movs	r2, #1
ARM GAS  C:\Users\faithc\AppData\Local\Temp\ccNb4MBo.s 			page 11


 353 00a2 1A70     		strb	r2, [r3]
 212:.\CommManager.c ****                     currentType = VOICE_DATA;
 354              		.loc 1 212 0
 355 00a4 06E0     		b	.L21
 356              	.L22:
 216:.\CommManager.c ****             }
 217:.\CommManager.c ****             else
 218:.\CommManager.c ****             {
 219:.\CommManager.c ****                 currentPacketIndex = HEADER_START_INDEX;
 357              		.loc 1 219 0
 358 00a6 574B     		ldr	r3, .L34+4
 359 00a8 0022     		movs	r2, #0
 360 00aa 1A70     		strb	r2, [r3]
 220:.\CommManager.c ****                 currentType = SIREN_INPUTS;
 361              		.loc 1 220 0
 362 00ac 584B     		ldr	r3, .L34+16
 363 00ae 0122     		movs	r2, #1
 364 00b0 1A70     		strb	r2, [r3]
 221:.\CommManager.c ****             }
 222:.\CommManager.c ****             break;
 365              		.loc 1 222 0
 366 00b2 A1E0     		b	.L14
 367              	.L21:
 368              		.loc 1 222 0 is_stmt 0 discriminator 1
 369 00b4 A0E0     		b	.L14
 370              	.L16:
 223:.\CommManager.c ****             
 224:.\CommManager.c ****         case PAYLOAD_STATE:
 225:.\CommManager.c ****             packet[currentPacketIndex] = dataByte;
 371              		.loc 1 225 0 is_stmt 1
 372 00b6 534B     		ldr	r3, .L34+4
 373 00b8 1B78     		ldrb	r3, [r3]	@ zero_extendqisi2
 374 00ba 1946     		mov	r1, r3
 375 00bc 534A     		ldr	r2, .L34+12
 376 00be FB79     		ldrb	r3, [r7, #7]
 377 00c0 5354     		strb	r3, [r2, r1]
 226:.\CommManager.c ****             currentPacketIndex++;
 378              		.loc 1 226 0
 379 00c2 504B     		ldr	r3, .L34+4
 380 00c4 1B78     		ldrb	r3, [r3]	@ zero_extendqisi2
 381 00c6 0133     		adds	r3, r3, #1
 382 00c8 DAB2     		uxtb	r2, r3
 383 00ca 4E4B     		ldr	r3, .L34+4
 384 00cc 1A70     		strb	r2, [r3]
 227:.\CommManager.c ****             
 228:.\CommManager.c ****             if(currentPacketIndex >= (PAYLOAD_START_INDEX + PacketList[currentType].PAYLOAD_SIZE))
 385              		.loc 1 228 0
 386 00ce 4D4B     		ldr	r3, .L34+4
 387 00d0 1B78     		ldrb	r3, [r3]	@ zero_extendqisi2
 388 00d2 1846     		mov	r0, r3
 389 00d4 4E4B     		ldr	r3, .L34+16
 390 00d6 1B78     		ldrb	r3, [r3]	@ zero_extendqisi2
 391 00d8 1946     		mov	r1, r3
 392 00da 4B4A     		ldr	r2, .L34+8
 393 00dc 0B46     		mov	r3, r1
 394 00de 9B00     		lsls	r3, r3, #2
 395 00e0 0B44     		add	r3, r3, r1
ARM GAS  C:\Users\faithc\AppData\Local\Temp\ccNb4MBo.s 			page 12


 396 00e2 1344     		add	r3, r3, r2
 397 00e4 9B78     		ldrb	r3, [r3, #2]	@ zero_extendqisi2
 398 00e6 0233     		adds	r3, r3, #2
 399 00e8 9842     		cmp	r0, r3
 400 00ea 03DB     		blt	.L26
 229:.\CommManager.c ****                 currentState = EOP_STATE;
 401              		.loc 1 229 0
 402 00ec 444B     		ldr	r3, .L34
 403 00ee 0222     		movs	r2, #2
 404 00f0 1A70     		strb	r2, [r3]
 230:.\CommManager.c ****             break;   
 405              		.loc 1 230 0
 406 00f2 81E0     		b	.L14
 407              	.L26:
 408 00f4 80E0     		b	.L14
 409              	.L17:
 231:.\CommManager.c ****             
 232:.\CommManager.c ****         case EOP_STATE:
 233:.\CommManager.c ****             if((currentPacketIndex == (PAYLOAD_START_INDEX + PacketList[currentType].PAYLOAD_SIZE))
 410              		.loc 1 233 0
 411 00f6 434B     		ldr	r3, .L34+4
 412 00f8 1B78     		ldrb	r3, [r3]	@ zero_extendqisi2
 413 00fa 1846     		mov	r0, r3
 414 00fc 444B     		ldr	r3, .L34+16
 415 00fe 1B78     		ldrb	r3, [r3]	@ zero_extendqisi2
 416 0100 1946     		mov	r1, r3
 417 0102 414A     		ldr	r2, .L34+8
 418 0104 0B46     		mov	r3, r1
 419 0106 9B00     		lsls	r3, r3, #2
 420 0108 0B44     		add	r3, r3, r1
 421 010a 1344     		add	r3, r3, r2
 422 010c 9B78     		ldrb	r3, [r3, #2]	@ zero_extendqisi2
 423 010e 0233     		adds	r3, r3, #2
 424 0110 9842     		cmp	r0, r3
 425 0112 18D1     		bne	.L27
 234:.\CommManager.c ****                 (dataByte == PacketList[currentType].EOP_CARRIAGE_RETURN))
 426              		.loc 1 234 0 discriminator 1
 427 0114 3E4B     		ldr	r3, .L34+16
 428 0116 1B78     		ldrb	r3, [r3]	@ zero_extendqisi2
 429 0118 1946     		mov	r1, r3
 430 011a 3B4A     		ldr	r2, .L34+8
 431 011c 0B46     		mov	r3, r1
 432 011e 9B00     		lsls	r3, r3, #2
 433 0120 0B44     		add	r3, r3, r1
 434 0122 1344     		add	r3, r3, r2
 435 0124 DB78     		ldrb	r3, [r3, #3]	@ zero_extendqisi2
 233:.\CommManager.c ****                 (dataByte == PacketList[currentType].EOP_CARRIAGE_RETURN))
 436              		.loc 1 233 0 discriminator 1
 437 0126 FA79     		ldrb	r2, [r7, #7]	@ zero_extendqisi2
 438 0128 9A42     		cmp	r2, r3
 439 012a 0CD1     		bne	.L27
 235:.\CommManager.c ****             {
 236:.\CommManager.c ****                 packet[currentPacketIndex] = dataByte;
 440              		.loc 1 236 0
 441 012c 354B     		ldr	r3, .L34+4
 442 012e 1B78     		ldrb	r3, [r3]	@ zero_extendqisi2
 443 0130 1946     		mov	r1, r3
ARM GAS  C:\Users\faithc\AppData\Local\Temp\ccNb4MBo.s 			page 13


 444 0132 364A     		ldr	r2, .L34+12
 445 0134 FB79     		ldrb	r3, [r7, #7]
 446 0136 5354     		strb	r3, [r2, r1]
 237:.\CommManager.c ****                 currentPacketIndex++;
 447              		.loc 1 237 0
 448 0138 324B     		ldr	r3, .L34+4
 449 013a 1B78     		ldrb	r3, [r3]	@ zero_extendqisi2
 450 013c 0133     		adds	r3, r3, #1
 451 013e DAB2     		uxtb	r2, r3
 452 0140 304B     		ldr	r3, .L34+4
 453 0142 1A70     		strb	r2, [r3]
 454 0144 57E0     		b	.L28
 455              	.L27:
 238:.\CommManager.c ****             }
 239:.\CommManager.c ****             else if((currentPacketIndex == (PAYLOAD_START_INDEX + PacketList[currentType].PAYLOAD_S
 456              		.loc 1 239 0
 457 0146 2F4B     		ldr	r3, .L34+4
 458 0148 1B78     		ldrb	r3, [r3]	@ zero_extendqisi2
 459 014a 1846     		mov	r0, r3
 460 014c 304B     		ldr	r3, .L34+16
 461 014e 1B78     		ldrb	r3, [r3]	@ zero_extendqisi2
 462 0150 1946     		mov	r1, r3
 463 0152 2D4A     		ldr	r2, .L34+8
 464 0154 0B46     		mov	r3, r1
 465 0156 9B00     		lsls	r3, r3, #2
 466 0158 0B44     		add	r3, r3, r1
 467 015a 1344     		add	r3, r3, r2
 468 015c 9B78     		ldrb	r3, [r3, #2]	@ zero_extendqisi2
 469 015e 0333     		adds	r3, r3, #3
 470 0160 9842     		cmp	r0, r3
 471 0162 3FD1     		bne	.L29
 240:.\CommManager.c ****                 (dataByte == PacketList[currentType].EOP_LINE_FEED))
 472              		.loc 1 240 0 discriminator 1
 473 0164 2A4B     		ldr	r3, .L34+16
 474 0166 1B78     		ldrb	r3, [r3]	@ zero_extendqisi2
 475 0168 1946     		mov	r1, r3
 476 016a 274A     		ldr	r2, .L34+8
 477 016c 0B46     		mov	r3, r1
 478 016e 9B00     		lsls	r3, r3, #2
 479 0170 0B44     		add	r3, r3, r1
 480 0172 1344     		add	r3, r3, r2
 481 0174 1B79     		ldrb	r3, [r3, #4]	@ zero_extendqisi2
 239:.\CommManager.c ****                 (dataByte == PacketList[currentType].EOP_LINE_FEED))
 482              		.loc 1 239 0 discriminator 1
 483 0176 FA79     		ldrb	r2, [r7, #7]	@ zero_extendqisi2
 484 0178 9A42     		cmp	r2, r3
 485 017a 33D1     		bne	.L29
 241:.\CommManager.c ****             {
 242:.\CommManager.c ****                 packet[currentPacketIndex] = dataByte;
 486              		.loc 1 242 0
 487 017c 214B     		ldr	r3, .L34+4
 488 017e 1B78     		ldrb	r3, [r3]	@ zero_extendqisi2
 489 0180 1946     		mov	r1, r3
 490 0182 224A     		ldr	r2, .L34+12
 491 0184 FB79     		ldrb	r3, [r7, #7]
 492 0186 5354     		strb	r3, [r2, r1]
 243:.\CommManager.c ****                 
ARM GAS  C:\Users\faithc\AppData\Local\Temp\ccNb4MBo.s 			page 14


 244:.\CommManager.c ****                 if(currentType == VOICE_DATA)
 493              		.loc 1 244 0
 494 0188 214B     		ldr	r3, .L34+16
 495 018a 1B78     		ldrb	r3, [r3]	@ zero_extendqisi2
 496 018c 002B     		cmp	r3, #0
 497 018e 10D1     		bne	.L30
 245:.\CommManager.c ****                 { 
 246:.\CommManager.c ****                     if(packet[PAYLOAD_START_INDEX] == START_BYTE)
 498              		.loc 1 246 0
 499 0190 1E4B     		ldr	r3, .L34+12
 500 0192 9B78     		ldrb	r3, [r3, #2]	@ zero_extendqisi2
 501 0194 AA22     		movs	r2, #170
 502 0196 9342     		cmp	r3, r2
 503 0198 05D1     		bne	.L31
 247:.\CommManager.c ****                     {
 248:.\CommManager.c ****                         bVoiceStreamEnabled = true;
 504              		.loc 1 248 0
 505 019a 1E4B     		ldr	r3, .L34+20
 506 019c 0122     		movs	r2, #1
 507 019e 1A70     		strb	r2, [r3]
 249:.\CommManager.c ****                         startVoiceStreamMode();
 508              		.loc 1 249 0
 509 01a0 FFF7FEFF 		bl	startVoiceStreamMode
 510 01a4 14E0     		b	.L33
 511              	.L31:
 250:.\CommManager.c ****                     }
 251:.\CommManager.c ****                     else
 252:.\CommManager.c ****                     {
 253:.\CommManager.c ****                         bVoiceStreamEnabled = false;
 512              		.loc 1 253 0
 513 01a6 1B4B     		ldr	r3, .L34+20
 514 01a8 0022     		movs	r2, #0
 515 01aa 1A70     		strb	r2, [r3]
 254:.\CommManager.c ****                         stopVoiceStreamMode();
 516              		.loc 1 254 0
 517 01ac FFF7FEFF 		bl	stopVoiceStreamMode
 518 01b0 0EE0     		b	.L33
 519              	.L30:
 255:.\CommManager.c ****                     }
 256:.\CommManager.c ****                 }
 257:.\CommManager.c ****                 else if(currentType == SIREN_INPUTS)
 520              		.loc 1 257 0
 521 01b2 174B     		ldr	r3, .L34+16
 522 01b4 1B78     		ldrb	r3, [r3]	@ zero_extendqisi2
 523 01b6 012B     		cmp	r3, #1
 524 01b8 0AD1     		bne	.L33
 258:.\CommManager.c ****                     setTonesWithCommunication(packet[PAYLOAD_START_INDEX], 
 525              		.loc 1 258 0
 526 01ba 144B     		ldr	r3, .L34+12
 527 01bc 9978     		ldrb	r1, [r3, #2]	@ zero_extendqisi2
 259:.\CommManager.c ****                         packet[PAYLOAD_START_INDEX + 1], packet[PAYLOAD_START_INDEX + 2]);
 528              		.loc 1 259 0
 529 01be 134B     		ldr	r3, .L34+12
 530 01c0 DA78     		ldrb	r2, [r3, #3]	@ zero_extendqisi2
 258:.\CommManager.c ****                     setTonesWithCommunication(packet[PAYLOAD_START_INDEX], 
 531              		.loc 1 258 0
 532 01c2 124B     		ldr	r3, .L34+12
ARM GAS  C:\Users\faithc\AppData\Local\Temp\ccNb4MBo.s 			page 15


 533 01c4 1B79     		ldrb	r3, [r3, #4]	@ zero_extendqisi2
 534 01c6 0846     		mov	r0, r1
 535 01c8 1146     		mov	r1, r2
 536 01ca 1A46     		mov	r2, r3
 537 01cc FFF7FEFF 		bl	setTonesWithCommunication
 538              	.L33:
 260:.\CommManager.c ****                 
 261:.\CommManager.c ****                 currentPacketIndex = HEADER_START_INDEX;
 539              		.loc 1 261 0
 540 01d0 0C4B     		ldr	r3, .L34+4
 541 01d2 0022     		movs	r2, #0
 542 01d4 1A70     		strb	r2, [r3]
 262:.\CommManager.c ****                 currentState = HEADER_STATE;
 543              		.loc 1 262 0
 544 01d6 0A4B     		ldr	r3, .L34
 545 01d8 0022     		movs	r2, #0
 546 01da 1A70     		strb	r2, [r3]
 263:.\CommManager.c ****                 currentType = SIREN_INPUTS;
 547              		.loc 1 263 0
 548 01dc 0C4B     		ldr	r3, .L34+16
 549 01de 0122     		movs	r2, #1
 550 01e0 1A70     		strb	r2, [r3]
 551 01e2 08E0     		b	.L28
 552              	.L29:
 264:.\CommManager.c ****             }
 265:.\CommManager.c ****             else
 266:.\CommManager.c ****             {
 267:.\CommManager.c ****                 currentPacketIndex = HEADER_START_INDEX;
 553              		.loc 1 267 0
 554 01e4 074B     		ldr	r3, .L34+4
 555 01e6 0022     		movs	r2, #0
 556 01e8 1A70     		strb	r2, [r3]
 268:.\CommManager.c ****                 currentState = HEADER_STATE;
 557              		.loc 1 268 0
 558 01ea 054B     		ldr	r3, .L34
 559 01ec 0022     		movs	r2, #0
 560 01ee 1A70     		strb	r2, [r3]
 269:.\CommManager.c ****                 currentType = SIREN_INPUTS;
 561              		.loc 1 269 0
 562 01f0 074B     		ldr	r3, .L34+16
 563 01f2 0122     		movs	r2, #1
 564 01f4 1A70     		strb	r2, [r3]
 565              	.L28:
 270:.\CommManager.c ****             }
 271:.\CommManager.c ****             break;
 566              		.loc 1 271 0
 567 01f6 00BF     		nop
 568              	.L14:
 272:.\CommManager.c ****     }
 273:.\CommManager.c **** }
 569              		.loc 1 273 0
 570 01f8 0837     		adds	r7, r7, #8
 571              		.cfi_def_cfa_offset 8
 572 01fa BD46     		mov	sp, r7
 573              		.cfi_def_cfa_register 13
 574              		@ sp needed
 575 01fc 80BD     		pop	{r7, pc}
ARM GAS  C:\Users\faithc\AppData\Local\Temp\ccNb4MBo.s 			page 16


 576              	.L35:
 577 01fe 00BF     		.align	2
 578              	.L34:
 579 0200 03000000 		.word	currentState.7246
 580 0204 04000000 		.word	currentPacketIndex.7248
 581 0208 00000000 		.word	PacketList
 582 020c 08000000 		.word	packet.7245
 583 0210 0A000000 		.word	currentType.7247
 584 0214 00000000 		.word	bVoiceStreamEnabled
 585              		.cfi_endproc
 586              	.LFE66:
 587              		.size	detectPacket, .-detectPacket
 588              		.section	.text.startVoiceStreamMode,"ax",%progbits
 589              		.align	2
 590              		.thumb
 591              		.thumb_func
 592              		.type	startVoiceStreamMode, %function
 593              	startVoiceStreamMode:
 594              	.LFB67:
 274:.\CommManager.c **** 
 275:.\CommManager.c **** /*******************************************************************************
 276:.\CommManager.c **** * Function Name: startVoiceStreamMode
 277:.\CommManager.c **** ********************************************************************************
 278:.\CommManager.c **** *
 279:.\CommManager.c **** * Summary:
 280:.\CommManager.c **** *  Enables DACs and Power Amps for voice stream.
 281:.\CommManager.c **** *
 282:.\CommManager.c **** * Parameters:
 283:.\CommManager.c **** *  None.
 284:.\CommManager.c **** *
 285:.\CommManager.c **** * Return:
 286:.\CommManager.c **** *  None.
 287:.\CommManager.c **** *
 288:.\CommManager.c **** *******************************************************************************/
 289:.\CommManager.c **** static void startVoiceStreamMode(void)
 290:.\CommManager.c **** {
 595              		.loc 1 290 0
 596              		.cfi_startproc
 597              		@ args = 0, pretend = 0, frame = 0
 598              		@ frame_needed = 1, uses_anonymous_args = 0
 599 0000 80B5     		push	{r7, lr}
 600              		.cfi_def_cfa_offset 8
 601              		.cfi_offset 7, -8
 602              		.cfi_offset 14, -4
 603 0002 00AF     		add	r7, sp, #0
 604              		.cfi_def_cfa_register 7
 291:.\CommManager.c ****     DACtimer1_Stop();
 605              		.loc 1 291 0
 606 0004 FFF7FEFF 		bl	DACtimer1_Stop
 292:.\CommManager.c ****     DACtimer2_Stop();
 607              		.loc 1 292 0
 608 0008 FFF7FEFF 		bl	DACtimer2_Stop
 293:.\CommManager.c ****     
 294:.\CommManager.c ****     AMux1_FastSelect(DAC_MODE);
 609              		.loc 1 294 0
 610 000c 0120     		movs	r0, #1
 611 000e FFF7FEFF 		bl	AMux1_FastSelect
ARM GAS  C:\Users\faithc\AppData\Local\Temp\ccNb4MBo.s 			page 17


 295:.\CommManager.c ****     AMux2_FastSelect(DAC_MODE);
 612              		.loc 1 295 0
 613 0012 0120     		movs	r0, #1
 614 0014 FFF7FEFF 		bl	AMux2_FastSelect
 296:.\CommManager.c ****     
 297:.\CommManager.c ****     PGA_1_Start();   
 615              		.loc 1 297 0
 616 0018 FFF7FEFF 		bl	PGA_1_Start
 298:.\CommManager.c ****     VDAC8_1_Start();
 617              		.loc 1 298 0
 618 001c FFF7FEFF 		bl	VDAC8_1_Start
 299:.\CommManager.c ****     VDAC8_1_SetValue(INITIAL_DAC_VALUE);
 619              		.loc 1 299 0
 620 0020 8023     		movs	r3, #128
 621 0022 1846     		mov	r0, r3
 622 0024 FFF7FEFF 		bl	VDAC8_1_SetValue
 300:.\CommManager.c ****     
 301:.\CommManager.c ****     PGA_2_Start();   
 623              		.loc 1 301 0
 624 0028 FFF7FEFF 		bl	PGA_2_Start
 302:.\CommManager.c ****     VDAC8_2_Start();
 625              		.loc 1 302 0
 626 002c FFF7FEFF 		bl	VDAC8_2_Start
 303:.\CommManager.c ****     VDAC8_2_SetValue(INITIAL_DAC_VALUE);
 627              		.loc 1 303 0
 628 0030 8023     		movs	r3, #128
 629 0032 1846     		mov	r0, r3
 630 0034 FFF7FEFF 		bl	VDAC8_2_SetValue
 304:.\CommManager.c ****     
 305:.\CommManager.c ****     PowerAmpOutput1_Write(true);
 631              		.loc 1 305 0
 632 0038 0120     		movs	r0, #1
 633 003a FFF7FEFF 		bl	PowerAmpOutput1_Write
 306:.\CommManager.c ****     PowerAmpOutput2_Write(true);
 634              		.loc 1 306 0
 635 003e 0120     		movs	r0, #1
 636 0040 FFF7FEFF 		bl	PowerAmpOutput2_Write
 307:.\CommManager.c **** }
 637              		.loc 1 307 0
 638 0044 80BD     		pop	{r7, pc}
 639              		.cfi_endproc
 640              	.LFE67:
 641              		.size	startVoiceStreamMode, .-startVoiceStreamMode
 642 0046 00BF     		.section	.text.stopVoiceStreamMode,"ax",%progbits
 643              		.align	2
 644              		.thumb
 645              		.thumb_func
 646              		.type	stopVoiceStreamMode, %function
 647              	stopVoiceStreamMode:
 648              	.LFB68:
 308:.\CommManager.c **** 
 309:.\CommManager.c **** /*******************************************************************************
 310:.\CommManager.c **** * Function Name: stopVoiceStreamMode
 311:.\CommManager.c **** ********************************************************************************
 312:.\CommManager.c **** *
 313:.\CommManager.c **** * Summary:
 314:.\CommManager.c **** *  Disables DACs and Power Amps for voice stream.
ARM GAS  C:\Users\faithc\AppData\Local\Temp\ccNb4MBo.s 			page 18


 315:.\CommManager.c **** *
 316:.\CommManager.c **** * Parameters:
 317:.\CommManager.c **** *  None.
 318:.\CommManager.c **** *
 319:.\CommManager.c **** * Return:
 320:.\CommManager.c **** *  None.
 321:.\CommManager.c **** *
 322:.\CommManager.c **** *******************************************************************************/
 323:.\CommManager.c **** static void stopVoiceStreamMode(void)
 324:.\CommManager.c **** {
 649              		.loc 1 324 0
 650              		.cfi_startproc
 651              		@ args = 0, pretend = 0, frame = 0
 652              		@ frame_needed = 1, uses_anonymous_args = 0
 653 0000 80B5     		push	{r7, lr}
 654              		.cfi_def_cfa_offset 8
 655              		.cfi_offset 7, -8
 656              		.cfi_offset 14, -4
 657 0002 00AF     		add	r7, sp, #0
 658              		.cfi_def_cfa_register 7
 325:.\CommManager.c ****     PowerAmpOutput1_Write(false);
 659              		.loc 1 325 0
 660 0004 0020     		movs	r0, #0
 661 0006 FFF7FEFF 		bl	PowerAmpOutput1_Write
 326:.\CommManager.c ****     PowerAmpOutput2_Write(false);
 662              		.loc 1 326 0
 663 000a 0020     		movs	r0, #0
 664 000c FFF7FEFF 		bl	PowerAmpOutput2_Write
 327:.\CommManager.c ****     
 328:.\CommManager.c ****     VDAC8_1_SetValue(INITIAL_DAC_VALUE);
 665              		.loc 1 328 0
 666 0010 8023     		movs	r3, #128
 667 0012 1846     		mov	r0, r3
 668 0014 FFF7FEFF 		bl	VDAC8_1_SetValue
 329:.\CommManager.c ****     VDAC8_1_Stop();
 669              		.loc 1 329 0
 670 0018 FFF7FEFF 		bl	VDAC8_1_Stop
 330:.\CommManager.c ****     PGA_1_Stop();
 671              		.loc 1 330 0
 672 001c FFF7FEFF 		bl	PGA_1_Stop
 331:.\CommManager.c ****     
 332:.\CommManager.c ****     VDAC8_2_SetValue(INITIAL_DAC_VALUE);
 673              		.loc 1 332 0
 674 0020 8023     		movs	r3, #128
 675 0022 1846     		mov	r0, r3
 676 0024 FFF7FEFF 		bl	VDAC8_2_SetValue
 333:.\CommManager.c ****     VDAC8_2_Stop();
 677              		.loc 1 333 0
 678 0028 FFF7FEFF 		bl	VDAC8_2_Stop
 334:.\CommManager.c ****     PGA_2_Stop();
 679              		.loc 1 334 0
 680 002c FFF7FEFF 		bl	PGA_2_Stop
 335:.\CommManager.c **** }
 681              		.loc 1 335 0
 682 0030 80BD     		pop	{r7, pc}
 683              		.cfi_endproc
 684              	.LFE68:
ARM GAS  C:\Users\faithc\AppData\Local\Temp\ccNb4MBo.s 			page 19


 685              		.size	stopVoiceStreamMode, .-stopVoiceStreamMode
 686 0032 00BF     		.bss
 687              	bSwitch.7238:
 688 0002 00       		.space	1
 689              	currentState.7246:
 690 0003 00       		.space	1
 691              	currentPacketIndex.7248:
 692 0004 00       		.space	1
 693 0005 000000   		.align	2
 694              	packet.7245:
 695 0008 00000000 		.space	11
 695      00000000 
 695      000000
 696 0013 00       		.data
 697              		.type	currentType.7247, %object
 698              		.size	currentType.7247, 1
 699              	currentType.7247:
 700 000a 01       		.byte	1
 701 000b 00       		.text
 702              	.Letext0:
 703              		.file 2 "c:\\program files (x86)\\cypress\\psoc creator\\3.3\\psoc creator\\import\\gnu\\arm\\4.9.
 704              		.file 3 "c:\\program files (x86)\\cypress\\psoc creator\\3.3\\psoc creator\\import\\gnu\\arm\\4.9.
 705              		.file 4 "Generated_Source\\PSoC5/cytypes.h"
 706              		.file 5 "Generated_Source\\PSoC5/core_cm3.h"