ARM GAS  C:\Users\faithc\AppData\Local\Temp\ccpkbr6m.s 			page 1


   1              		.syntax unified
   2              		.cpu cortex-m3
   3              		.fpu softvfp
   4              		.eabi_attribute 20, 1
   5              		.eabi_attribute 21, 1
   6              		.eabi_attribute 23, 3
   7              		.eabi_attribute 24, 1
   8              		.eabi_attribute 25, 1
   9              		.eabi_attribute 26, 1
  10              		.eabi_attribute 30, 6
  11              		.eabi_attribute 34, 1
  12              		.eabi_attribute 18, 4
  13              		.thumb
  14              		.file	"CyLib.c"
  15              		.text
  16              	.Ltext0:
  17              		.cfi_sections	.debug_frame
  18              		.global	CyResetStatus
  19              		.section	.noinit,"aw",%progbits
  20              		.type	CyResetStatus, %object
  21              		.size	CyResetStatus, 1
  22              	CyResetStatus:
  23 0000 00       		.space	1
  24              		.global	cydelay_freq_hz
  25              		.data
  26              		.align	2
  27              		.type	cydelay_freq_hz, %object
  28              		.size	cydelay_freq_hz, 4
  29              	cydelay_freq_hz:
  30 0000 006CDC02 		.word	48000000
  31              		.global	cydelay_freq_khz
  32              		.align	2
  33              		.type	cydelay_freq_khz, %object
  34              		.size	cydelay_freq_khz, 4
  35              	cydelay_freq_khz:
  36 0004 80BB0000 		.word	48000
  37              		.global	cydelay_freq_mhz
  38              		.type	cydelay_freq_mhz, %object
  39              		.size	cydelay_freq_mhz, 1
  40              	cydelay_freq_mhz:
  41 0008 30       		.byte	48
  42              		.global	cydelay_32k_ms
  43 0009 000000   		.align	2
  44              		.type	cydelay_32k_ms, %object
  45              		.size	cydelay_32k_ms, 4
  46              	cydelay_32k_ms:
  47 000c 0000C05D 		.word	1572864000
  48              		.bss
  49              		.align	2
  50              	CySysTickCallbacks:
  51 0000 00000000 		.space	20
  51      00000000 
  51      00000000 
  51      00000000 
  51      00000000 
  52              		.global	CySysTickInitVar
  53              		.align	2
ARM GAS  C:\Users\faithc\AppData\Local\Temp\ccpkbr6m.s 			page 2


  54              		.type	CySysTickInitVar, %object
  55              		.size	CySysTickInitVar, 4
  56              	CySysTickInitVar:
  57 0014 00000000 		.space	4
  58              		.section	.text.CyPLL_OUT_Start,"ax",%progbits
  59              		.align	2
  60              		.global	CyPLL_OUT_Start
  61              		.thumb
  62              		.thumb_func
  63              		.type	CyPLL_OUT_Start, %function
  64              	CyPLL_OUT_Start:
  65              	.LFB0:
  66              		.file 1 ".\\Generated_Source\\PSoC5\\CyLib.c"
   1:.\Generated_Source\PSoC5/CyLib.c **** /*******************************************************************************
   2:.\Generated_Source\PSoC5/CyLib.c **** * File Name: CyLib.c
   3:.\Generated_Source\PSoC5/CyLib.c **** * Version 5.20
   4:.\Generated_Source\PSoC5/CyLib.c **** *
   5:.\Generated_Source\PSoC5/CyLib.c **** *  Description:
   6:.\Generated_Source\PSoC5/CyLib.c **** *   Provides a system API for the clocking, interrupts and watchdog timer.
   7:.\Generated_Source\PSoC5/CyLib.c **** *
   8:.\Generated_Source\PSoC5/CyLib.c **** *  Note:
   9:.\Generated_Source\PSoC5/CyLib.c **** *   Documentation of the API's in this file is located in the
  10:.\Generated_Source\PSoC5/CyLib.c **** *   System Reference Guide provided with PSoC Creator.
  11:.\Generated_Source\PSoC5/CyLib.c **** *
  12:.\Generated_Source\PSoC5/CyLib.c **** ********************************************************************************
  13:.\Generated_Source\PSoC5/CyLib.c **** * Copyright 2008-2015, Cypress Semiconductor Corporation.  All rights reserved.
  14:.\Generated_Source\PSoC5/CyLib.c **** * You may use this file only in accordance with the license, terms, conditions,
  15:.\Generated_Source\PSoC5/CyLib.c **** * disclaimers, and limitations in the end user license agreement accompanying
  16:.\Generated_Source\PSoC5/CyLib.c **** * the software package with which this file was provided.
  17:.\Generated_Source\PSoC5/CyLib.c **** *******************************************************************************/
  18:.\Generated_Source\PSoC5/CyLib.c **** 
  19:.\Generated_Source\PSoC5/CyLib.c **** #include "CyLib.h"
  20:.\Generated_Source\PSoC5/CyLib.c **** 
  21:.\Generated_Source\PSoC5/CyLib.c **** 
  22:.\Generated_Source\PSoC5/CyLib.c **** /*******************************************************************************
  23:.\Generated_Source\PSoC5/CyLib.c **** * The CyResetStatus variable is used to obtain value of RESET_SR0 register after
  24:.\Generated_Source\PSoC5/CyLib.c **** * a device reset. It is set from initialize_psoc() at the early initialization
  25:.\Generated_Source\PSoC5/CyLib.c **** * stage. In case of IAR EW IDE, initialize_psoc() is executed before the data
  26:.\Generated_Source\PSoC5/CyLib.c **** * sections are initialized. To avoid zeroing, CyResetStatus should be placed
  27:.\Generated_Source\PSoC5/CyLib.c **** * to the .noinit section.
  28:.\Generated_Source\PSoC5/CyLib.c **** *******************************************************************************/
  29:.\Generated_Source\PSoC5/CyLib.c **** CY_NOINIT uint8 CYXDATA CyResetStatus;
  30:.\Generated_Source\PSoC5/CyLib.c **** 
  31:.\Generated_Source\PSoC5/CyLib.c **** 
  32:.\Generated_Source\PSoC5/CyLib.c **** /* Variable Vdda */
  33:.\Generated_Source\PSoC5/CyLib.c **** #if(CYDEV_VARIABLE_VDDA == 1)
  34:.\Generated_Source\PSoC5/CyLib.c **** 
  35:.\Generated_Source\PSoC5/CyLib.c ****     uint8 CyScPumpEnabled = (uint8)(CYDEV_VDDA_MV < 2700);
  36:.\Generated_Source\PSoC5/CyLib.c **** 
  37:.\Generated_Source\PSoC5/CyLib.c **** #endif  /* (CYDEV_VARIABLE_VDDA == 1) */
  38:.\Generated_Source\PSoC5/CyLib.c **** 
  39:.\Generated_Source\PSoC5/CyLib.c **** 
  40:.\Generated_Source\PSoC5/CyLib.c **** /* Do not use these definitions directly in your application */
  41:.\Generated_Source\PSoC5/CyLib.c **** uint32 cydelay_freq_hz  = BCLK__BUS_CLK__HZ;
  42:.\Generated_Source\PSoC5/CyLib.c **** uint32 cydelay_freq_khz = (BCLK__BUS_CLK__HZ + 999u) / 1000u;
  43:.\Generated_Source\PSoC5/CyLib.c **** uint8  cydelay_freq_mhz = (uint8)((BCLK__BUS_CLK__HZ + 999999u) / 1000000u);
  44:.\Generated_Source\PSoC5/CyLib.c **** uint32 cydelay_32k_ms   = 32768u * ((BCLK__BUS_CLK__HZ + 999u) / 1000u);
ARM GAS  C:\Users\faithc\AppData\Local\Temp\ccpkbr6m.s 			page 3


  45:.\Generated_Source\PSoC5/CyLib.c **** 
  46:.\Generated_Source\PSoC5/CyLib.c **** 
  47:.\Generated_Source\PSoC5/CyLib.c **** /* Function Prototypes */
  48:.\Generated_Source\PSoC5/CyLib.c **** static uint8 CyUSB_PowerOnCheck(void)  ;
  49:.\Generated_Source\PSoC5/CyLib.c **** static void CyIMO_SetTrimValue(uint8 freq) ;
  50:.\Generated_Source\PSoC5/CyLib.c **** static void CyBusClk_Internal_SetDivider(uint16 divider);
  51:.\Generated_Source\PSoC5/CyLib.c **** 
  52:.\Generated_Source\PSoC5/CyLib.c **** #if(CY_PSOC5)
  53:.\Generated_Source\PSoC5/CyLib.c ****     static cySysTickCallback CySysTickCallbacks[CY_SYS_SYST_NUM_OF_CALLBACKS];
  54:.\Generated_Source\PSoC5/CyLib.c ****     static void CySysTickServiceCallbacks(void);
  55:.\Generated_Source\PSoC5/CyLib.c ****     uint32 CySysTickInitVar = 0u;
  56:.\Generated_Source\PSoC5/CyLib.c **** #endif  /* (CY_PSOC5) */
  57:.\Generated_Source\PSoC5/CyLib.c **** 
  58:.\Generated_Source\PSoC5/CyLib.c **** 
  59:.\Generated_Source\PSoC5/CyLib.c **** /*******************************************************************************
  60:.\Generated_Source\PSoC5/CyLib.c **** * Function Name: CyPLL_OUT_Start
  61:.\Generated_Source\PSoC5/CyLib.c **** ********************************************************************************
  62:.\Generated_Source\PSoC5/CyLib.c **** *
  63:.\Generated_Source\PSoC5/CyLib.c **** * Summary:
  64:.\Generated_Source\PSoC5/CyLib.c **** *   Enables the PLL.  Optionally waits for it to become stable.
  65:.\Generated_Source\PSoC5/CyLib.c **** *   Waits at least 250 us or until it is detected that the PLL is stable.
  66:.\Generated_Source\PSoC5/CyLib.c **** *
  67:.\Generated_Source\PSoC5/CyLib.c **** * Parameters:
  68:.\Generated_Source\PSoC5/CyLib.c **** *   wait:
  69:.\Generated_Source\PSoC5/CyLib.c **** *    0: Return immediately after configuration
  70:.\Generated_Source\PSoC5/CyLib.c **** *    1: Wait for PLL lock or timeout.
  71:.\Generated_Source\PSoC5/CyLib.c **** *
  72:.\Generated_Source\PSoC5/CyLib.c **** * Return:
  73:.\Generated_Source\PSoC5/CyLib.c **** *   Status
  74:.\Generated_Source\PSoC5/CyLib.c **** *    CYRET_SUCCESS - Completed successfully
  75:.\Generated_Source\PSoC5/CyLib.c **** *    CYRET_TIMEOUT - Timeout occurred without detecting a stable clock.
  76:.\Generated_Source\PSoC5/CyLib.c **** *     If the input source of the clock is jittery, then the lock indication
  77:.\Generated_Source\PSoC5/CyLib.c **** *     may not occur.  However, after the timeout has expired the generated PLL
  78:.\Generated_Source\PSoC5/CyLib.c **** *     clock can still be used.
  79:.\Generated_Source\PSoC5/CyLib.c **** *
  80:.\Generated_Source\PSoC5/CyLib.c **** * Side Effects:
  81:.\Generated_Source\PSoC5/CyLib.c **** *  If wait is enabled: This function uses the Fast Time Wheel to time the wait.
  82:.\Generated_Source\PSoC5/CyLib.c **** *  Any other use of the Fast Time Wheel will be stopped during the period of
  83:.\Generated_Source\PSoC5/CyLib.c **** *  this function and then restored. This function also uses the 100 KHz ILO.
  84:.\Generated_Source\PSoC5/CyLib.c **** *  If not enabled, this function will enable the 100 KHz ILO for the period of
  85:.\Generated_Source\PSoC5/CyLib.c **** *  this function.
  86:.\Generated_Source\PSoC5/CyLib.c **** *
  87:.\Generated_Source\PSoC5/CyLib.c **** *  No changes to the setup of the ILO, Fast Time Wheel, Central Time Wheel or
  88:.\Generated_Source\PSoC5/CyLib.c **** *  Once Per Second interrupt may be made by interrupt routines during the period
  89:.\Generated_Source\PSoC5/CyLib.c **** *  of this function execution. The current operation of the ILO, Central Time
  90:.\Generated_Source\PSoC5/CyLib.c **** *  Wheel and Once Per Second interrupt are maintained during the operation of
  91:.\Generated_Source\PSoC5/CyLib.c **** *  this function provided the reading of the Power Manager Interrupt Status
  92:.\Generated_Source\PSoC5/CyLib.c **** *  Register is only done using the CyPmReadStatus() function.
  93:.\Generated_Source\PSoC5/CyLib.c **** *
  94:.\Generated_Source\PSoC5/CyLib.c **** *******************************************************************************/
  95:.\Generated_Source\PSoC5/CyLib.c **** cystatus CyPLL_OUT_Start(uint8 wait) 
  96:.\Generated_Source\PSoC5/CyLib.c **** {
  67              		.loc 1 96 0
  68              		.cfi_startproc
  69              		@ args = 0, pretend = 0, frame = 16
  70              		@ frame_needed = 1, uses_anonymous_args = 0
  71 0000 80B5     		push	{r7, lr}
ARM GAS  C:\Users\faithc\AppData\Local\Temp\ccpkbr6m.s 			page 4


  72              		.cfi_def_cfa_offset 8
  73              		.cfi_offset 7, -8
  74              		.cfi_offset 14, -4
  75 0002 84B0     		sub	sp, sp, #16
  76              		.cfi_def_cfa_offset 24
  77 0004 00AF     		add	r7, sp, #0
  78              		.cfi_def_cfa_register 7
  79 0006 0346     		mov	r3, r0
  80 0008 FB71     		strb	r3, [r7, #7]
  97:.\Generated_Source\PSoC5/CyLib.c ****     cystatus status = CYRET_SUCCESS;
  81              		.loc 1 97 0
  82 000a 0023     		movs	r3, #0
  83 000c FB60     		str	r3, [r7, #12]
  98:.\Generated_Source\PSoC5/CyLib.c **** 
  99:.\Generated_Source\PSoC5/CyLib.c ****     uint8 iloEnableState;
 100:.\Generated_Source\PSoC5/CyLib.c ****     uint8 pmTwCfg0State;
 101:.\Generated_Source\PSoC5/CyLib.c ****     uint8 pmTwCfg2State;
 102:.\Generated_Source\PSoC5/CyLib.c **** 
 103:.\Generated_Source\PSoC5/CyLib.c **** 
 104:.\Generated_Source\PSoC5/CyLib.c ****     /* Enables PLL circuit  */
 105:.\Generated_Source\PSoC5/CyLib.c ****     CY_CLK_PLL_CFG0_REG |= CY_CLK_PLL_ENABLE;
  84              		.loc 1 105 0
  85 000e 234A     		ldr	r2, .L8
  86 0010 224B     		ldr	r3, .L8
  87 0012 1B78     		ldrb	r3, [r3]
  88 0014 DBB2     		uxtb	r3, r3
  89 0016 43F00103 		orr	r3, r3, #1
  90 001a DBB2     		uxtb	r3, r3
  91 001c 1370     		strb	r3, [r2]
 106:.\Generated_Source\PSoC5/CyLib.c **** 
 107:.\Generated_Source\PSoC5/CyLib.c ****     if(wait != 0u)
  92              		.loc 1 107 0
  93 001e FB79     		ldrb	r3, [r7, #7]	@ zero_extendqisi2
  94 0020 002B     		cmp	r3, #0
  95 0022 36D0     		beq	.L2
 108:.\Generated_Source\PSoC5/CyLib.c ****     {
 109:.\Generated_Source\PSoC5/CyLib.c ****         /* Save 100 KHz ILO, FTW interval, enable and interrupt enable */
 110:.\Generated_Source\PSoC5/CyLib.c ****         iloEnableState = CY_LIB_SLOWCLK_ILO_CR0_REG & CY_LIB_SLOWCLK_ILO_CR0_EN_100KHZ;
  96              		.loc 1 110 0
  97 0024 1E4B     		ldr	r3, .L8+4
  98 0026 1B78     		ldrb	r3, [r3]
  99 0028 DBB2     		uxtb	r3, r3
 100 002a 03F00403 		and	r3, r3, #4
 101 002e FB72     		strb	r3, [r7, #11]
 111:.\Generated_Source\PSoC5/CyLib.c ****         pmTwCfg0State = CY_LIB_PM_TW_CFG0_REG;
 102              		.loc 1 111 0
 103 0030 1C4B     		ldr	r3, .L8+8
 104 0032 1B78     		ldrb	r3, [r3]
 105 0034 BB72     		strb	r3, [r7, #10]
 112:.\Generated_Source\PSoC5/CyLib.c ****         pmTwCfg2State = CY_LIB_PM_TW_CFG2_REG;
 106              		.loc 1 112 0
 107 0036 1C4B     		ldr	r3, .L8+12
 108 0038 1B78     		ldrb	r3, [r3]
 109 003a 7B72     		strb	r3, [r7, #9]
 113:.\Generated_Source\PSoC5/CyLib.c **** 
 114:.\Generated_Source\PSoC5/CyLib.c ****         CyPmFtwSetInterval(CY_CLK_PLL_FTW_INTERVAL);
 110              		.loc 1 114 0
ARM GAS  C:\Users\faithc\AppData\Local\Temp\ccpkbr6m.s 			page 5


 111 003c 1820     		movs	r0, #24
 112 003e FFF7FEFF 		bl	CyPmFtwSetInterval
 115:.\Generated_Source\PSoC5/CyLib.c **** 
 116:.\Generated_Source\PSoC5/CyLib.c ****         status = CYRET_TIMEOUT;
 113              		.loc 1 116 0
 114 0042 1023     		movs	r3, #16
 115 0044 FB60     		str	r3, [r7, #12]
 117:.\Generated_Source\PSoC5/CyLib.c **** 
 118:.\Generated_Source\PSoC5/CyLib.c ****         while(0u == (CY_PM_FTW_INT & CyPmReadStatus(CY_PM_FTW_INT)))
 116              		.loc 1 118 0
 117 0046 10E0     		b	.L3
 118              	.L5:
 119:.\Generated_Source\PSoC5/CyLib.c ****         {
 120:.\Generated_Source\PSoC5/CyLib.c ****             /* Wait for interrupt status */
 121:.\Generated_Source\PSoC5/CyLib.c ****             if(0u != (CY_CLK_PLL_SR_REG & CY_CLK_PLL_LOCK_STATUS))
 119              		.loc 1 121 0
 120 0048 184B     		ldr	r3, .L8+16
 121 004a 1B78     		ldrb	r3, [r3]
 122 004c DBB2     		uxtb	r3, r3
 123 004e 03F00103 		and	r3, r3, #1
 124 0052 002B     		cmp	r3, #0
 125 0054 09D0     		beq	.L3
 122:.\Generated_Source\PSoC5/CyLib.c ****             {
 123:.\Generated_Source\PSoC5/CyLib.c ****                 if(0u != (CY_CLK_PLL_SR_REG & CY_CLK_PLL_LOCK_STATUS))
 126              		.loc 1 123 0
 127 0056 154B     		ldr	r3, .L8+16
 128 0058 1B78     		ldrb	r3, [r3]
 129 005a DBB2     		uxtb	r3, r3
 130 005c 03F00103 		and	r3, r3, #1
 131 0060 002B     		cmp	r3, #0
 132 0062 02D0     		beq	.L3
 124:.\Generated_Source\PSoC5/CyLib.c ****                 {
 125:.\Generated_Source\PSoC5/CyLib.c ****                     status = CYRET_SUCCESS;
 133              		.loc 1 125 0
 134 0064 0023     		movs	r3, #0
 135 0066 FB60     		str	r3, [r7, #12]
 126:.\Generated_Source\PSoC5/CyLib.c ****                     break;
 136              		.loc 1 126 0
 137 0068 08E0     		b	.L4
 138              	.L3:
 118:.\Generated_Source\PSoC5/CyLib.c ****         {
 139              		.loc 1 118 0
 140 006a 0120     		movs	r0, #1
 141 006c FFF7FEFF 		bl	CyPmReadStatus
 142 0070 0346     		mov	r3, r0
 143 0072 03F00103 		and	r3, r3, #1
 144 0076 DBB2     		uxtb	r3, r3
 145 0078 002B     		cmp	r3, #0
 146 007a E5D0     		beq	.L5
 147              	.L4:
 127:.\Generated_Source\PSoC5/CyLib.c ****                 }
 128:.\Generated_Source\PSoC5/CyLib.c ****             }
 129:.\Generated_Source\PSoC5/CyLib.c ****         }
 130:.\Generated_Source\PSoC5/CyLib.c **** 
 131:.\Generated_Source\PSoC5/CyLib.c ****         /* Restore 100 KHz ILO, FTW interval, enable and interrupt enable */
 132:.\Generated_Source\PSoC5/CyLib.c ****         if(0u == iloEnableState)
 148              		.loc 1 132 0
ARM GAS  C:\Users\faithc\AppData\Local\Temp\ccpkbr6m.s 			page 6


 149 007c FB7A     		ldrb	r3, [r7, #11]	@ zero_extendqisi2
 150 007e 002B     		cmp	r3, #0
 151 0080 01D1     		bne	.L6
 133:.\Generated_Source\PSoC5/CyLib.c ****         {
 134:.\Generated_Source\PSoC5/CyLib.c ****             CyILO_Stop100K();
 152              		.loc 1 134 0
 153 0082 FFF7FEFF 		bl	CyILO_Stop100K
 154              	.L6:
 135:.\Generated_Source\PSoC5/CyLib.c ****         }
 136:.\Generated_Source\PSoC5/CyLib.c **** 
 137:.\Generated_Source\PSoC5/CyLib.c ****         CY_LIB_PM_TW_CFG0_REG = pmTwCfg0State;
 155              		.loc 1 137 0
 156 0086 074A     		ldr	r2, .L8+8
 157 0088 BB7A     		ldrb	r3, [r7, #10]
 158 008a 1370     		strb	r3, [r2]
 138:.\Generated_Source\PSoC5/CyLib.c ****         CY_LIB_PM_TW_CFG2_REG = pmTwCfg2State;
 159              		.loc 1 138 0
 160 008c 064A     		ldr	r2, .L8+12
 161 008e 7B7A     		ldrb	r3, [r7, #9]
 162 0090 1370     		strb	r3, [r2]
 163              	.L2:
 139:.\Generated_Source\PSoC5/CyLib.c ****     }
 140:.\Generated_Source\PSoC5/CyLib.c **** 
 141:.\Generated_Source\PSoC5/CyLib.c ****     return(status);
 164              		.loc 1 141 0
 165 0092 FB68     		ldr	r3, [r7, #12]
 142:.\Generated_Source\PSoC5/CyLib.c **** }
 166              		.loc 1 142 0
 167 0094 1846     		mov	r0, r3
 168 0096 1037     		adds	r7, r7, #16
 169              		.cfi_def_cfa_offset 8
 170 0098 BD46     		mov	sp, r7
 171              		.cfi_def_cfa_register 13
 172              		@ sp needed
 173 009a 80BD     		pop	{r7, pc}
 174              	.L9:
 175              		.align	2
 176              	.L8:
 177 009c 20420040 		.word	1073758752
 178 00a0 00430040 		.word	1073758976
 179 00a4 80430040 		.word	1073759104
 180 00a8 82430040 		.word	1073759106
 181 00ac 25420040 		.word	1073758757
 182              		.cfi_endproc
 183              	.LFE0:
 184              		.size	CyPLL_OUT_Start, .-CyPLL_OUT_Start
 185              		.section	.text.CyPLL_OUT_Stop,"ax",%progbits
 186              		.align	2
 187              		.global	CyPLL_OUT_Stop
 188              		.thumb
 189              		.thumb_func
 190              		.type	CyPLL_OUT_Stop, %function
 191              	CyPLL_OUT_Stop:
 192              	.LFB1:
 143:.\Generated_Source\PSoC5/CyLib.c **** 
 144:.\Generated_Source\PSoC5/CyLib.c **** 
 145:.\Generated_Source\PSoC5/CyLib.c **** /*******************************************************************************
ARM GAS  C:\Users\faithc\AppData\Local\Temp\ccpkbr6m.s 			page 7


 146:.\Generated_Source\PSoC5/CyLib.c **** * Function Name: CyPLL_OUT_Stop
 147:.\Generated_Source\PSoC5/CyLib.c **** ********************************************************************************
 148:.\Generated_Source\PSoC5/CyLib.c **** *
 149:.\Generated_Source\PSoC5/CyLib.c **** * Summary:
 150:.\Generated_Source\PSoC5/CyLib.c **** *  Disables the PLL.
 151:.\Generated_Source\PSoC5/CyLib.c **** *
 152:.\Generated_Source\PSoC5/CyLib.c **** * Parameters:
 153:.\Generated_Source\PSoC5/CyLib.c **** *  None
 154:.\Generated_Source\PSoC5/CyLib.c **** *
 155:.\Generated_Source\PSoC5/CyLib.c **** * Return:
 156:.\Generated_Source\PSoC5/CyLib.c **** *  None
 157:.\Generated_Source\PSoC5/CyLib.c **** *
 158:.\Generated_Source\PSoC5/CyLib.c **** *******************************************************************************/
 159:.\Generated_Source\PSoC5/CyLib.c **** void CyPLL_OUT_Stop(void) 
 160:.\Generated_Source\PSoC5/CyLib.c **** {
 193              		.loc 1 160 0
 194              		.cfi_startproc
 195              		@ args = 0, pretend = 0, frame = 0
 196              		@ frame_needed = 1, uses_anonymous_args = 0
 197              		@ link register save eliminated.
 198 0000 80B4     		push	{r7}
 199              		.cfi_def_cfa_offset 4
 200              		.cfi_offset 7, -4
 201 0002 00AF     		add	r7, sp, #0
 202              		.cfi_def_cfa_register 7
 161:.\Generated_Source\PSoC5/CyLib.c ****     CY_CLK_PLL_CFG0_REG &= ((uint8)(~CY_CLK_PLL_ENABLE));
 203              		.loc 1 161 0
 204 0004 054A     		ldr	r2, .L11
 205 0006 054B     		ldr	r3, .L11
 206 0008 1B78     		ldrb	r3, [r3]
 207 000a DBB2     		uxtb	r3, r3
 208 000c 23F00103 		bic	r3, r3, #1
 209 0010 DBB2     		uxtb	r3, r3
 210 0012 1370     		strb	r3, [r2]
 162:.\Generated_Source\PSoC5/CyLib.c **** }
 211              		.loc 1 162 0
 212 0014 BD46     		mov	sp, r7
 213              		.cfi_def_cfa_register 13
 214              		@ sp needed
 215 0016 5DF8047B 		ldr	r7, [sp], #4
 216              		.cfi_restore 7
 217              		.cfi_def_cfa_offset 0
 218 001a 7047     		bx	lr
 219              	.L12:
 220              		.align	2
 221              	.L11:
 222 001c 20420040 		.word	1073758752
 223              		.cfi_endproc
 224              	.LFE1:
 225              		.size	CyPLL_OUT_Stop, .-CyPLL_OUT_Stop
 226              		.section	.text.CyPLL_OUT_SetPQ,"ax",%progbits
 227              		.align	2
 228              		.global	CyPLL_OUT_SetPQ
 229              		.thumb
 230              		.thumb_func
 231              		.type	CyPLL_OUT_SetPQ, %function
 232              	CyPLL_OUT_SetPQ:
ARM GAS  C:\Users\faithc\AppData\Local\Temp\ccpkbr6m.s 			page 8


 233              	.LFB2:
 163:.\Generated_Source\PSoC5/CyLib.c **** 
 164:.\Generated_Source\PSoC5/CyLib.c **** 
 165:.\Generated_Source\PSoC5/CyLib.c **** /*******************************************************************************
 166:.\Generated_Source\PSoC5/CyLib.c **** * Function Name: CyPLL_OUT_SetPQ
 167:.\Generated_Source\PSoC5/CyLib.c **** ********************************************************************************
 168:.\Generated_Source\PSoC5/CyLib.c **** *
 169:.\Generated_Source\PSoC5/CyLib.c **** * Summary:
 170:.\Generated_Source\PSoC5/CyLib.c **** *  Sets the P and Q dividers and the charge pump current.
 171:.\Generated_Source\PSoC5/CyLib.c **** *  The Frequency Out will be P/Q * Frequency In.
 172:.\Generated_Source\PSoC5/CyLib.c **** *  The PLL must be disabled before calling this function.
 173:.\Generated_Source\PSoC5/CyLib.c **** *
 174:.\Generated_Source\PSoC5/CyLib.c **** * Parameters:
 175:.\Generated_Source\PSoC5/CyLib.c **** *  uint8 pDiv:
 176:.\Generated_Source\PSoC5/CyLib.c **** *   Valid range [8 - 255].
 177:.\Generated_Source\PSoC5/CyLib.c **** *
 178:.\Generated_Source\PSoC5/CyLib.c **** *  uint8 qDiv:
 179:.\Generated_Source\PSoC5/CyLib.c **** *   Valid range [1 - 16]. Input Frequency / Q must be in range of 1 to 3 MHz.
 180:.\Generated_Source\PSoC5/CyLib.c **** 
 181:.\Generated_Source\PSoC5/CyLib.c **** *  uint8 current:
 182:.\Generated_Source\PSoC5/CyLib.c **** *   Valid range [1 - 7]. Charge pump current in uA. Refer to the device TRM and
 183:.\Generated_Source\PSoC5/CyLib.c **** *   datasheet for more information.
 184:.\Generated_Source\PSoC5/CyLib.c **** *
 185:.\Generated_Source\PSoC5/CyLib.c **** * Return:
 186:.\Generated_Source\PSoC5/CyLib.c **** *  None
 187:.\Generated_Source\PSoC5/CyLib.c **** *
 188:.\Generated_Source\PSoC5/CyLib.c **** * Side Effects:
 189:.\Generated_Source\PSoC5/CyLib.c **** *  If this function execution results in the CPU clock frequency increasing,
 190:.\Generated_Source\PSoC5/CyLib.c **** *  then the number of clock cycles the cache will wait before it samples data
 191:.\Generated_Source\PSoC5/CyLib.c **** *  coming back from the Flash must be adjusted by calling
 192:.\Generated_Source\PSoC5/CyLib.c **** *  CyFlash_SetWaitCycles() with an appropriate parameter. It can be optionally
 193:.\Generated_Source\PSoC5/CyLib.c **** *  called if the CPU clock frequency is lowered in order to improve the CPU
 194:.\Generated_Source\PSoC5/CyLib.c **** *  performance. See CyFlash_SetWaitCycles() description for more information.
 195:.\Generated_Source\PSoC5/CyLib.c **** *
 196:.\Generated_Source\PSoC5/CyLib.c **** *******************************************************************************/
 197:.\Generated_Source\PSoC5/CyLib.c **** void CyPLL_OUT_SetPQ(uint8 pDiv, uint8 qDiv, uint8 current) 
 198:.\Generated_Source\PSoC5/CyLib.c **** {
 234              		.loc 1 198 0
 235              		.cfi_startproc
 236              		@ args = 0, pretend = 0, frame = 8
 237              		@ frame_needed = 1, uses_anonymous_args = 0
 238              		@ link register save eliminated.
 239 0000 80B4     		push	{r7}
 240              		.cfi_def_cfa_offset 4
 241              		.cfi_offset 7, -4
 242 0002 83B0     		sub	sp, sp, #12
 243              		.cfi_def_cfa_offset 16
 244 0004 00AF     		add	r7, sp, #0
 245              		.cfi_def_cfa_register 7
 246 0006 0346     		mov	r3, r0
 247 0008 FB71     		strb	r3, [r7, #7]
 248 000a 0B46     		mov	r3, r1
 249 000c BB71     		strb	r3, [r7, #6]
 250 000e 1346     		mov	r3, r2
 251 0010 7B71     		strb	r3, [r7, #5]
 199:.\Generated_Source\PSoC5/CyLib.c ****     /* Halt CPU in debug mode if PLL is enabled */
 200:.\Generated_Source\PSoC5/CyLib.c ****     CYASSERT(0u == (CY_CLK_PLL_CFG0_REG & CY_CLK_PLL_ENABLE));
ARM GAS  C:\Users\faithc\AppData\Local\Temp\ccpkbr6m.s 			page 9


 201:.\Generated_Source\PSoC5/CyLib.c **** 
 202:.\Generated_Source\PSoC5/CyLib.c ****     if((pDiv    >= CY_CLK_PLL_MIN_P_VALUE  ) &&
 252              		.loc 1 202 0
 253 0012 FB79     		ldrb	r3, [r7, #7]	@ zero_extendqisi2
 254 0014 072B     		cmp	r3, #7
 255 0016 22D9     		bls	.L13
 256              		.loc 1 202 0 is_stmt 0 discriminator 1
 257 0018 BB79     		ldrb	r3, [r7, #6]	@ zero_extendqisi2
 258 001a 102B     		cmp	r3, #16
 259 001c 1FD8     		bhi	.L13
 203:.\Generated_Source\PSoC5/CyLib.c ****        (qDiv    <= CY_CLK_PLL_MAX_Q_VALUE  ) && (qDiv    >= CY_CLK_PLL_MIN_Q_VALUE  ) &&
 260              		.loc 1 203 0 is_stmt 1
 261 001e BB79     		ldrb	r3, [r7, #6]	@ zero_extendqisi2
 262 0020 002B     		cmp	r3, #0
 263 0022 1CD0     		beq	.L13
 264              		.loc 1 203 0 is_stmt 0 discriminator 1
 265 0024 7B79     		ldrb	r3, [r7, #5]	@ zero_extendqisi2
 266 0026 002B     		cmp	r3, #0
 267 0028 19D0     		beq	.L13
 204:.\Generated_Source\PSoC5/CyLib.c ****        (current >= CY_CLK_PLL_MIN_CUR_VALUE) && (current <= CY_CLK_PLL_MAX_CUR_VALUE))
 268              		.loc 1 204 0 is_stmt 1
 269 002a 7B79     		ldrb	r3, [r7, #5]	@ zero_extendqisi2
 270 002c 072B     		cmp	r3, #7
 271 002e 16D8     		bhi	.L13
 205:.\Generated_Source\PSoC5/CyLib.c ****     {
 206:.\Generated_Source\PSoC5/CyLib.c ****         /* Set new values */
 207:.\Generated_Source\PSoC5/CyLib.c ****         CY_CLK_PLL_P_REG = pDiv;
 272              		.loc 1 207 0
 273 0030 0D4A     		ldr	r2, .L15
 274 0032 FB79     		ldrb	r3, [r7, #7]
 275 0034 1370     		strb	r3, [r2]
 208:.\Generated_Source\PSoC5/CyLib.c ****         CY_CLK_PLL_Q_REG = ((uint8)(qDiv - 1u));
 276              		.loc 1 208 0
 277 0036 0D4A     		ldr	r2, .L15+4
 278 0038 BB79     		ldrb	r3, [r7, #6]
 279 003a 013B     		subs	r3, r3, #1
 280 003c DBB2     		uxtb	r3, r3
 281 003e 1370     		strb	r3, [r2]
 209:.\Generated_Source\PSoC5/CyLib.c ****         CY_CLK_PLL_CFG1_REG = (CY_CLK_PLL_CFG1_REG & CY_CLK_PLL_CURRENT_MASK) |
 282              		.loc 1 209 0
 283 0040 0B49     		ldr	r1, .L15+8
 284 0042 0B4B     		ldr	r3, .L15+8
 285 0044 1B78     		ldrb	r3, [r3]
 286 0046 DBB2     		uxtb	r3, r3
 287 0048 23F07003 		bic	r3, r3, #112
 288 004c DAB2     		uxtb	r2, r3
 210:.\Generated_Source\PSoC5/CyLib.c ****                                 ((uint8)(((uint8)(current - 1u)) << CY_CLK_PLL_CURRENT_POSITION));
 289              		.loc 1 210 0
 290 004e 7B79     		ldrb	r3, [r7, #5]
 291 0050 013B     		subs	r3, r3, #1
 292 0052 DBB2     		uxtb	r3, r3
 293 0054 1B01     		lsls	r3, r3, #4
 294 0056 DBB2     		uxtb	r3, r3
 209:.\Generated_Source\PSoC5/CyLib.c ****         CY_CLK_PLL_CFG1_REG = (CY_CLK_PLL_CFG1_REG & CY_CLK_PLL_CURRENT_MASK) |
 295              		.loc 1 209 0
 296 0058 1343     		orrs	r3, r3, r2
 297 005a DBB2     		uxtb	r3, r3
ARM GAS  C:\Users\faithc\AppData\Local\Temp\ccpkbr6m.s 			page 10


 298 005c 0B70     		strb	r3, [r1]
 299              	.L13:
 211:.\Generated_Source\PSoC5/CyLib.c ****     }
 212:.\Generated_Source\PSoC5/CyLib.c ****     else
 213:.\Generated_Source\PSoC5/CyLib.c ****     {
 214:.\Generated_Source\PSoC5/CyLib.c ****         /***********************************************************************
 215:.\Generated_Source\PSoC5/CyLib.c ****         * Halt CPU in debug mode if:
 216:.\Generated_Source\PSoC5/CyLib.c ****         * - P divider is less than required
 217:.\Generated_Source\PSoC5/CyLib.c ****         * - Q divider is out of range
 218:.\Generated_Source\PSoC5/CyLib.c ****         * - pump current is out of range
 219:.\Generated_Source\PSoC5/CyLib.c ****         ***********************************************************************/
 220:.\Generated_Source\PSoC5/CyLib.c ****         CYASSERT(0u != 0u);
 221:.\Generated_Source\PSoC5/CyLib.c ****     }
 222:.\Generated_Source\PSoC5/CyLib.c **** 
 223:.\Generated_Source\PSoC5/CyLib.c **** }
 300              		.loc 1 223 0
 301 005e 0C37     		adds	r7, r7, #12
 302              		.cfi_def_cfa_offset 4
 303 0060 BD46     		mov	sp, r7
 304              		.cfi_def_cfa_register 13
 305              		@ sp needed
 306 0062 5DF8047B 		ldr	r7, [sp], #4
 307              		.cfi_restore 7
 308              		.cfi_def_cfa_offset 0
 309 0066 7047     		bx	lr
 310              	.L16:
 311              		.align	2
 312              	.L15:
 313 0068 22420040 		.word	1073758754
 314 006c 23420040 		.word	1073758755
 315 0070 21420040 		.word	1073758753
 316              		.cfi_endproc
 317              	.LFE2:
 318              		.size	CyPLL_OUT_SetPQ, .-CyPLL_OUT_SetPQ
 319              		.section	.text.CyPLL_OUT_SetSource,"ax",%progbits
 320              		.align	2
 321              		.global	CyPLL_OUT_SetSource
 322              		.thumb
 323              		.thumb_func
 324              		.type	CyPLL_OUT_SetSource, %function
 325              	CyPLL_OUT_SetSource:
 326              	.LFB3:
 224:.\Generated_Source\PSoC5/CyLib.c **** 
 225:.\Generated_Source\PSoC5/CyLib.c **** 
 226:.\Generated_Source\PSoC5/CyLib.c **** /*******************************************************************************
 227:.\Generated_Source\PSoC5/CyLib.c **** * Function Name: CyPLL_OUT_SetSource
 228:.\Generated_Source\PSoC5/CyLib.c **** ********************************************************************************
 229:.\Generated_Source\PSoC5/CyLib.c **** *
 230:.\Generated_Source\PSoC5/CyLib.c **** * Summary:
 231:.\Generated_Source\PSoC5/CyLib.c **** *  Sets the input clock source to the PLL. The PLL must be disabled before
 232:.\Generated_Source\PSoC5/CyLib.c **** *  calling this function.
 233:.\Generated_Source\PSoC5/CyLib.c **** *
 234:.\Generated_Source\PSoC5/CyLib.c **** * Parameters:
 235:.\Generated_Source\PSoC5/CyLib.c **** *   source: One of the three available PLL clock sources
 236:.\Generated_Source\PSoC5/CyLib.c **** *    CY_PLL_SOURCE_IMO  :   IMO
 237:.\Generated_Source\PSoC5/CyLib.c **** *    CY_PLL_SOURCE_XTAL :   MHz Crystal
 238:.\Generated_Source\PSoC5/CyLib.c **** *    CY_PLL_SOURCE_DSI  :   DSI
ARM GAS  C:\Users\faithc\AppData\Local\Temp\ccpkbr6m.s 			page 11


 239:.\Generated_Source\PSoC5/CyLib.c **** *
 240:.\Generated_Source\PSoC5/CyLib.c **** * Return:
 241:.\Generated_Source\PSoC5/CyLib.c **** *  None
 242:.\Generated_Source\PSoC5/CyLib.c **** *
 243:.\Generated_Source\PSoC5/CyLib.c **** * Side Effects:
 244:.\Generated_Source\PSoC5/CyLib.c **** *  If this function execution results in the CPU clock frequency increasing,
 245:.\Generated_Source\PSoC5/CyLib.c **** *  then the number of clock cycles the cache will wait before it samples data
 246:.\Generated_Source\PSoC5/CyLib.c **** *  coming back from the3 Flash must be adjusted by calling
 247:.\Generated_Source\PSoC5/CyLib.c **** *  CyFlash_SetWaitCycles() with an appropriate parameter. It can be optionally
 248:.\Generated_Source\PSoC5/CyLib.c **** *  called if the CPU clock frequency is lowered in order to improve the CPU
 249:.\Generated_Source\PSoC5/CyLib.c **** *  performance. See CyFlash_SetWaitCycles() description for more information.
 250:.\Generated_Source\PSoC5/CyLib.c **** *
 251:.\Generated_Source\PSoC5/CyLib.c **** *******************************************************************************/
 252:.\Generated_Source\PSoC5/CyLib.c **** void CyPLL_OUT_SetSource(uint8 source) 
 253:.\Generated_Source\PSoC5/CyLib.c **** {
 327              		.loc 1 253 0
 328              		.cfi_startproc
 329              		@ args = 0, pretend = 0, frame = 8
 330              		@ frame_needed = 1, uses_anonymous_args = 0
 331              		@ link register save eliminated.
 332 0000 80B4     		push	{r7}
 333              		.cfi_def_cfa_offset 4
 334              		.cfi_offset 7, -4
 335 0002 83B0     		sub	sp, sp, #12
 336              		.cfi_def_cfa_offset 16
 337 0004 00AF     		add	r7, sp, #0
 338              		.cfi_def_cfa_register 7
 339 0006 0346     		mov	r3, r0
 340 0008 FB71     		strb	r3, [r7, #7]
 254:.\Generated_Source\PSoC5/CyLib.c ****     /* Halt CPU in debug mode if PLL is enabled */
 255:.\Generated_Source\PSoC5/CyLib.c ****     CYASSERT(0u == (CY_CLK_PLL_CFG0_REG & CY_CLK_PLL_ENABLE));
 256:.\Generated_Source\PSoC5/CyLib.c **** 
 257:.\Generated_Source\PSoC5/CyLib.c ****     switch(source)
 341              		.loc 1 257 0
 342 000a FB79     		ldrb	r3, [r7, #7]	@ zero_extendqisi2
 343 000c 0033     		adds	r3, r3, #0
 344 000e 022B     		cmp	r3, #2
 345 0010 0DD8     		bhi	.L21
 258:.\Generated_Source\PSoC5/CyLib.c ****     {
 259:.\Generated_Source\PSoC5/CyLib.c ****         case CY_PLL_SOURCE_IMO:
 260:.\Generated_Source\PSoC5/CyLib.c ****         case CY_PLL_SOURCE_XTAL:
 261:.\Generated_Source\PSoC5/CyLib.c ****         case CY_PLL_SOURCE_DSI:
 262:.\Generated_Source\PSoC5/CyLib.c ****             CY_LIB_CLKDIST_CR_REG = ((CY_LIB_CLKDIST_CR_REG & CY_LIB_CLKDIST_CR_PLL_SCR_MASK) | sou
 346              		.loc 1 262 0
 347 0012 4FF04021 		mov	r1, #1073758208
 348 0016 4FF04023 		mov	r3, #1073758208
 349 001a 1B78     		ldrb	r3, [r3]
 350 001c DBB2     		uxtb	r3, r3
 351 001e 23F00303 		bic	r3, r3, #3
 352 0022 DAB2     		uxtb	r2, r3
 353 0024 FB79     		ldrb	r3, [r7, #7]
 354 0026 1343     		orrs	r3, r3, r2
 355 0028 DBB2     		uxtb	r3, r3
 356 002a 0B70     		strb	r3, [r1]
 263:.\Generated_Source\PSoC5/CyLib.c ****         break;
 357              		.loc 1 263 0
 358 002c 00E0     		b	.L17
ARM GAS  C:\Users\faithc\AppData\Local\Temp\ccpkbr6m.s 			page 12


 359              	.L21:
 264:.\Generated_Source\PSoC5/CyLib.c **** 
 265:.\Generated_Source\PSoC5/CyLib.c ****         default:
 266:.\Generated_Source\PSoC5/CyLib.c ****             CYASSERT(0u != 0u);
 267:.\Generated_Source\PSoC5/CyLib.c ****         break;
 360              		.loc 1 267 0
 361 002e 00BF     		nop
 362              	.L17:
 268:.\Generated_Source\PSoC5/CyLib.c ****     }
 269:.\Generated_Source\PSoC5/CyLib.c **** }
 363              		.loc 1 269 0
 364 0030 0C37     		adds	r7, r7, #12
 365              		.cfi_def_cfa_offset 4
 366 0032 BD46     		mov	sp, r7
 367              		.cfi_def_cfa_register 13
 368              		@ sp needed
 369 0034 5DF8047B 		ldr	r7, [sp], #4
 370              		.cfi_restore 7
 371              		.cfi_def_cfa_offset 0
 372 0038 7047     		bx	lr
 373              		.cfi_endproc
 374              	.LFE3:
 375              		.size	CyPLL_OUT_SetSource, .-CyPLL_OUT_SetSource
 376 003a 00BF     		.section	.text.CyIMO_Start,"ax",%progbits
 377              		.align	2
 378              		.global	CyIMO_Start
 379              		.thumb
 380              		.thumb_func
 381              		.type	CyIMO_Start, %function
 382              	CyIMO_Start:
 383              	.LFB4:
 270:.\Generated_Source\PSoC5/CyLib.c **** 
 271:.\Generated_Source\PSoC5/CyLib.c **** 
 272:.\Generated_Source\PSoC5/CyLib.c **** /*******************************************************************************
 273:.\Generated_Source\PSoC5/CyLib.c **** * Function Name: CyIMO_Start
 274:.\Generated_Source\PSoC5/CyLib.c **** ********************************************************************************
 275:.\Generated_Source\PSoC5/CyLib.c **** *
 276:.\Generated_Source\PSoC5/CyLib.c **** * Summary:
 277:.\Generated_Source\PSoC5/CyLib.c **** *  Enables the IMO. Optionally waits at least 6 us for it to settle.
 278:.\Generated_Source\PSoC5/CyLib.c **** *
 279:.\Generated_Source\PSoC5/CyLib.c **** * Parameters:
 280:.\Generated_Source\PSoC5/CyLib.c **** *  uint8 wait:
 281:.\Generated_Source\PSoC5/CyLib.c **** *   0: Return immediately after configuration
 282:.\Generated_Source\PSoC5/CyLib.c **** *   1: Wait for at least 6 us for the IMO to settle.
 283:.\Generated_Source\PSoC5/CyLib.c **** *
 284:.\Generated_Source\PSoC5/CyLib.c **** * Return:
 285:.\Generated_Source\PSoC5/CyLib.c **** *  None
 286:.\Generated_Source\PSoC5/CyLib.c **** *
 287:.\Generated_Source\PSoC5/CyLib.c **** * Side Effects:
 288:.\Generated_Source\PSoC5/CyLib.c **** *  If wait is enabled: This function uses the Fast Time Wheel to time the wait.
 289:.\Generated_Source\PSoC5/CyLib.c **** *  Any other use of the Fast Time Wheel will be stopped during the period of
 290:.\Generated_Source\PSoC5/CyLib.c **** *  this function and then restored. This function also uses the 100 KHz ILO.
 291:.\Generated_Source\PSoC5/CyLib.c **** *  If not enabled, this function will enable the 100 KHz ILO for the period of
 292:.\Generated_Source\PSoC5/CyLib.c **** *  this function.
 293:.\Generated_Source\PSoC5/CyLib.c **** *
 294:.\Generated_Source\PSoC5/CyLib.c **** *  No changes to the setup of the ILO, Fast Time Wheel, Central Time Wheel or
 295:.\Generated_Source\PSoC5/CyLib.c **** *  Once Per Second interrupt may be made by interrupt routines during the period
ARM GAS  C:\Users\faithc\AppData\Local\Temp\ccpkbr6m.s 			page 13


 296:.\Generated_Source\PSoC5/CyLib.c **** *  of this function execution. The current operation of the ILO, Central Time
 297:.\Generated_Source\PSoC5/CyLib.c **** *  Wheel and Once Per Second interrupt are maintained during the operation of
 298:.\Generated_Source\PSoC5/CyLib.c **** *  this function provided the reading of the Power Manager Interrupt Status
 299:.\Generated_Source\PSoC5/CyLib.c **** *  Register is only done using the CyPmReadStatus() function.
 300:.\Generated_Source\PSoC5/CyLib.c **** *
 301:.\Generated_Source\PSoC5/CyLib.c **** *******************************************************************************/
 302:.\Generated_Source\PSoC5/CyLib.c **** void CyIMO_Start(uint8 wait) 
 303:.\Generated_Source\PSoC5/CyLib.c **** {
 384              		.loc 1 303 0
 385              		.cfi_startproc
 386              		@ args = 0, pretend = 0, frame = 16
 387              		@ frame_needed = 1, uses_anonymous_args = 0
 388 0000 80B5     		push	{r7, lr}
 389              		.cfi_def_cfa_offset 8
 390              		.cfi_offset 7, -8
 391              		.cfi_offset 14, -4
 392 0002 84B0     		sub	sp, sp, #16
 393              		.cfi_def_cfa_offset 24
 394 0004 00AF     		add	r7, sp, #0
 395              		.cfi_def_cfa_register 7
 396 0006 0346     		mov	r3, r0
 397 0008 FB71     		strb	r3, [r7, #7]
 304:.\Generated_Source\PSoC5/CyLib.c ****     uint8 pmFtwCfg2Reg;
 305:.\Generated_Source\PSoC5/CyLib.c ****     uint8 pmFtwCfg0Reg;
 306:.\Generated_Source\PSoC5/CyLib.c ****     uint8 ilo100KhzEnable;
 307:.\Generated_Source\PSoC5/CyLib.c **** 
 308:.\Generated_Source\PSoC5/CyLib.c **** 
 309:.\Generated_Source\PSoC5/CyLib.c ****     CY_LIB_PM_ACT_CFG0_REG  |= CY_LIB_PM_ACT_CFG0_IMO_EN;
 398              		.loc 1 309 0
 399 000a 1D4A     		ldr	r2, .L26
 400 000c 1C4B     		ldr	r3, .L26
 401 000e 1B78     		ldrb	r3, [r3]
 402 0010 DBB2     		uxtb	r3, r3
 403 0012 43F01003 		orr	r3, r3, #16
 404 0016 DBB2     		uxtb	r3, r3
 405 0018 1370     		strb	r3, [r2]
 310:.\Generated_Source\PSoC5/CyLib.c ****     CY_LIB_PM_STBY_CFG0_REG |= CY_LIB_PM_STBY_CFG0_IMO_EN;
 406              		.loc 1 310 0
 407 001a 1A4A     		ldr	r2, .L26+4
 408 001c 194B     		ldr	r3, .L26+4
 409 001e 1B78     		ldrb	r3, [r3]
 410 0020 DBB2     		uxtb	r3, r3
 411 0022 43F01003 		orr	r3, r3, #16
 412 0026 DBB2     		uxtb	r3, r3
 413 0028 1370     		strb	r3, [r2]
 311:.\Generated_Source\PSoC5/CyLib.c **** 
 312:.\Generated_Source\PSoC5/CyLib.c ****     if(0u != wait)
 414              		.loc 1 312 0
 415 002a FB79     		ldrb	r3, [r7, #7]	@ zero_extendqisi2
 416 002c 002B     		cmp	r3, #0
 417 002e 23D0     		beq	.L22
 313:.\Generated_Source\PSoC5/CyLib.c ****     {
 314:.\Generated_Source\PSoC5/CyLib.c ****         /* Need to turn on 100KHz ILO if it happens to not already be running.*/
 315:.\Generated_Source\PSoC5/CyLib.c ****         ilo100KhzEnable = CY_LIB_SLOWCLK_ILO_CR0_REG & CY_LIB_SLOWCLK_ILO_CR0_EN_100KHZ;
 418              		.loc 1 315 0
 419 0030 154B     		ldr	r3, .L26+8
 420 0032 1B78     		ldrb	r3, [r3]
ARM GAS  C:\Users\faithc\AppData\Local\Temp\ccpkbr6m.s 			page 14


 421 0034 DBB2     		uxtb	r3, r3
 422 0036 03F00403 		and	r3, r3, #4
 423 003a FB73     		strb	r3, [r7, #15]
 316:.\Generated_Source\PSoC5/CyLib.c ****         pmFtwCfg0Reg = CY_LIB_PM_TW_CFG0_REG;
 424              		.loc 1 316 0
 425 003c 134B     		ldr	r3, .L26+12
 426 003e 1B78     		ldrb	r3, [r3]
 427 0040 BB73     		strb	r3, [r7, #14]
 317:.\Generated_Source\PSoC5/CyLib.c ****         pmFtwCfg2Reg = CY_LIB_PM_TW_CFG2_REG;
 428              		.loc 1 317 0
 429 0042 134B     		ldr	r3, .L26+16
 430 0044 1B78     		ldrb	r3, [r3]
 431 0046 7B73     		strb	r3, [r7, #13]
 318:.\Generated_Source\PSoC5/CyLib.c **** 
 319:.\Generated_Source\PSoC5/CyLib.c ****         CyPmFtwSetInterval(CY_LIB_CLK_IMO_FTW_TIMEOUT);
 432              		.loc 1 319 0
 433 0048 0020     		movs	r0, #0
 434 004a FFF7FEFF 		bl	CyPmFtwSetInterval
 320:.\Generated_Source\PSoC5/CyLib.c **** 
 321:.\Generated_Source\PSoC5/CyLib.c ****         while (0u == (CY_PM_FTW_INT & CyPmReadStatus(CY_PM_FTW_INT)))
 435              		.loc 1 321 0
 436 004e 00BF     		nop
 437              	.L24:
 438              		.loc 1 321 0 is_stmt 0 discriminator 1
 439 0050 0120     		movs	r0, #1
 440 0052 FFF7FEFF 		bl	CyPmReadStatus
 441 0056 0346     		mov	r3, r0
 442 0058 03F00103 		and	r3, r3, #1
 443 005c DBB2     		uxtb	r3, r3
 444 005e 002B     		cmp	r3, #0
 445 0060 F6D0     		beq	.L24
 322:.\Generated_Source\PSoC5/CyLib.c ****         {
 323:.\Generated_Source\PSoC5/CyLib.c ****             /* Wait for interrupt status */
 324:.\Generated_Source\PSoC5/CyLib.c ****         }
 325:.\Generated_Source\PSoC5/CyLib.c **** 
 326:.\Generated_Source\PSoC5/CyLib.c ****         if(0u == ilo100KhzEnable)
 446              		.loc 1 326 0 is_stmt 1
 447 0062 FB7B     		ldrb	r3, [r7, #15]	@ zero_extendqisi2
 448 0064 002B     		cmp	r3, #0
 449 0066 01D1     		bne	.L25
 327:.\Generated_Source\PSoC5/CyLib.c ****         {
 328:.\Generated_Source\PSoC5/CyLib.c ****             CyILO_Stop100K();
 450              		.loc 1 328 0
 451 0068 FFF7FEFF 		bl	CyILO_Stop100K
 452              	.L25:
 329:.\Generated_Source\PSoC5/CyLib.c ****         }
 330:.\Generated_Source\PSoC5/CyLib.c **** 
 331:.\Generated_Source\PSoC5/CyLib.c ****         CY_LIB_PM_TW_CFG0_REG = pmFtwCfg0Reg;
 453              		.loc 1 331 0
 454 006c 074A     		ldr	r2, .L26+12
 455 006e BB7B     		ldrb	r3, [r7, #14]
 456 0070 1370     		strb	r3, [r2]
 332:.\Generated_Source\PSoC5/CyLib.c ****         CY_LIB_PM_TW_CFG2_REG = pmFtwCfg2Reg;
 457              		.loc 1 332 0
 458 0072 074A     		ldr	r2, .L26+16
 459 0074 7B7B     		ldrb	r3, [r7, #13]
 460 0076 1370     		strb	r3, [r2]
ARM GAS  C:\Users\faithc\AppData\Local\Temp\ccpkbr6m.s 			page 15


 461              	.L22:
 333:.\Generated_Source\PSoC5/CyLib.c ****     }
 334:.\Generated_Source\PSoC5/CyLib.c **** }
 462              		.loc 1 334 0
 463 0078 1037     		adds	r7, r7, #16
 464              		.cfi_def_cfa_offset 8
 465 007a BD46     		mov	sp, r7
 466              		.cfi_def_cfa_register 13
 467              		@ sp needed
 468 007c 80BD     		pop	{r7, pc}
 469              	.L27:
 470 007e 00BF     		.align	2
 471              	.L26:
 472 0080 A0430040 		.word	1073759136
 473 0084 B0430040 		.word	1073759152
 474 0088 00430040 		.word	1073758976
 475 008c 80430040 		.word	1073759104
 476 0090 82430040 		.word	1073759106
 477              		.cfi_endproc
 478              	.LFE4:
 479              		.size	CyIMO_Start, .-CyIMO_Start
 480              		.section	.text.CyIMO_Stop,"ax",%progbits
 481              		.align	2
 482              		.global	CyIMO_Stop
 483              		.thumb
 484              		.thumb_func
 485              		.type	CyIMO_Stop, %function
 486              	CyIMO_Stop:
 487              	.LFB5:
 335:.\Generated_Source\PSoC5/CyLib.c **** 
 336:.\Generated_Source\PSoC5/CyLib.c **** 
 337:.\Generated_Source\PSoC5/CyLib.c **** /*******************************************************************************
 338:.\Generated_Source\PSoC5/CyLib.c **** * Function Name: CyIMO_Stop
 339:.\Generated_Source\PSoC5/CyLib.c **** ********************************************************************************
 340:.\Generated_Source\PSoC5/CyLib.c **** *
 341:.\Generated_Source\PSoC5/CyLib.c **** * Summary:
 342:.\Generated_Source\PSoC5/CyLib.c **** *   Disables the IMO.
 343:.\Generated_Source\PSoC5/CyLib.c **** *
 344:.\Generated_Source\PSoC5/CyLib.c **** * Parameters:
 345:.\Generated_Source\PSoC5/CyLib.c **** *  None
 346:.\Generated_Source\PSoC5/CyLib.c **** *
 347:.\Generated_Source\PSoC5/CyLib.c **** * Return:
 348:.\Generated_Source\PSoC5/CyLib.c **** *  None
 349:.\Generated_Source\PSoC5/CyLib.c **** *
 350:.\Generated_Source\PSoC5/CyLib.c **** *******************************************************************************/
 351:.\Generated_Source\PSoC5/CyLib.c **** void CyIMO_Stop(void) 
 352:.\Generated_Source\PSoC5/CyLib.c **** {
 488              		.loc 1 352 0
 489              		.cfi_startproc
 490              		@ args = 0, pretend = 0, frame = 0
 491              		@ frame_needed = 1, uses_anonymous_args = 0
 492              		@ link register save eliminated.
 493 0000 80B4     		push	{r7}
 494              		.cfi_def_cfa_offset 4
 495              		.cfi_offset 7, -4
 496 0002 00AF     		add	r7, sp, #0
 497              		.cfi_def_cfa_register 7
ARM GAS  C:\Users\faithc\AppData\Local\Temp\ccpkbr6m.s 			page 16


 353:.\Generated_Source\PSoC5/CyLib.c ****     CY_LIB_PM_ACT_CFG0_REG  &= ((uint8) (~CY_LIB_PM_ACT_CFG0_IMO_EN));
 498              		.loc 1 353 0
 499 0004 094A     		ldr	r2, .L29
 500 0006 094B     		ldr	r3, .L29
 501 0008 1B78     		ldrb	r3, [r3]
 502 000a DBB2     		uxtb	r3, r3
 503 000c 23F01003 		bic	r3, r3, #16
 504 0010 DBB2     		uxtb	r3, r3
 505 0012 1370     		strb	r3, [r2]
 354:.\Generated_Source\PSoC5/CyLib.c ****     CY_LIB_PM_STBY_CFG0_REG &= ((uint8) (~CY_LIB_PM_STBY_CFG0_IMO_EN));
 506              		.loc 1 354 0
 507 0014 064A     		ldr	r2, .L29+4
 508 0016 064B     		ldr	r3, .L29+4
 509 0018 1B78     		ldrb	r3, [r3]
 510 001a DBB2     		uxtb	r3, r3
 511 001c 23F01003 		bic	r3, r3, #16
 512 0020 DBB2     		uxtb	r3, r3
 513 0022 1370     		strb	r3, [r2]
 355:.\Generated_Source\PSoC5/CyLib.c **** }
 514              		.loc 1 355 0
 515 0024 BD46     		mov	sp, r7
 516              		.cfi_def_cfa_register 13
 517              		@ sp needed
 518 0026 5DF8047B 		ldr	r7, [sp], #4
 519              		.cfi_restore 7
 520              		.cfi_def_cfa_offset 0
 521 002a 7047     		bx	lr
 522              	.L30:
 523              		.align	2
 524              	.L29:
 525 002c A0430040 		.word	1073759136
 526 0030 B0430040 		.word	1073759152
 527              		.cfi_endproc
 528              	.LFE5:
 529              		.size	CyIMO_Stop, .-CyIMO_Stop
 530              		.section	.text.CyUSB_PowerOnCheck,"ax",%progbits
 531              		.align	2
 532              		.thumb
 533              		.thumb_func
 534              		.type	CyUSB_PowerOnCheck, %function
 535              	CyUSB_PowerOnCheck:
 536              	.LFB6:
 356:.\Generated_Source\PSoC5/CyLib.c **** 
 357:.\Generated_Source\PSoC5/CyLib.c **** 
 358:.\Generated_Source\PSoC5/CyLib.c **** /*******************************************************************************
 359:.\Generated_Source\PSoC5/CyLib.c **** * Function Name: CyUSB_PowerOnCheck
 360:.\Generated_Source\PSoC5/CyLib.c **** ********************************************************************************
 361:.\Generated_Source\PSoC5/CyLib.c **** *
 362:.\Generated_Source\PSoC5/CyLib.c **** * Summary:
 363:.\Generated_Source\PSoC5/CyLib.c **** *  Returns the USB power status value. A private function to cy_boot.
 364:.\Generated_Source\PSoC5/CyLib.c **** *
 365:.\Generated_Source\PSoC5/CyLib.c **** * Parameters:
 366:.\Generated_Source\PSoC5/CyLib.c **** *   None
 367:.\Generated_Source\PSoC5/CyLib.c **** *
 368:.\Generated_Source\PSoC5/CyLib.c **** * Return:
 369:.\Generated_Source\PSoC5/CyLib.c **** *   uint8: one if the USB is enabled, 0 if not enabled.
 370:.\Generated_Source\PSoC5/CyLib.c **** *
ARM GAS  C:\Users\faithc\AppData\Local\Temp\ccpkbr6m.s 			page 17


 371:.\Generated_Source\PSoC5/CyLib.c **** *******************************************************************************/
 372:.\Generated_Source\PSoC5/CyLib.c **** static uint8 CyUSB_PowerOnCheck(void)  
 373:.\Generated_Source\PSoC5/CyLib.c **** {
 537              		.loc 1 373 0
 538              		.cfi_startproc
 539              		@ args = 0, pretend = 0, frame = 8
 540              		@ frame_needed = 1, uses_anonymous_args = 0
 541              		@ link register save eliminated.
 542 0000 80B4     		push	{r7}
 543              		.cfi_def_cfa_offset 4
 544              		.cfi_offset 7, -4
 545 0002 83B0     		sub	sp, sp, #12
 546              		.cfi_def_cfa_offset 16
 547 0004 00AF     		add	r7, sp, #0
 548              		.cfi_def_cfa_register 7
 374:.\Generated_Source\PSoC5/CyLib.c ****     uint8 poweredOn = 0u;
 549              		.loc 1 374 0
 550 0006 0023     		movs	r3, #0
 551 0008 FB71     		strb	r3, [r7, #7]
 375:.\Generated_Source\PSoC5/CyLib.c **** 
 376:.\Generated_Source\PSoC5/CyLib.c ****     /* Check whether device is in Active or AltActive and if USB is powered on */
 377:.\Generated_Source\PSoC5/CyLib.c ****     if((((CY_PM_MODE_CSR_REG & CY_PM_MODE_CSR_MASK) == CY_PM_MODE_CSR_ACTIVE ) &&
 552              		.loc 1 377 0
 553 000a 124B     		ldr	r3, .L36
 554 000c 1B78     		ldrb	r3, [r3]
 555 000e DBB2     		uxtb	r3, r3
 556 0010 03F00703 		and	r3, r3, #7
 557 0014 002B     		cmp	r3, #0
 558 0016 06D1     		bne	.L32
 378:.\Generated_Source\PSoC5/CyLib.c ****        (0u != (CY_LIB_PM_ACT_CFG5_REG & CY_ACT_USB_ENABLED     )))  ||
 559              		.loc 1 378 0 discriminator 1
 560 0018 0F4B     		ldr	r3, .L36+4
 561 001a 1B78     		ldrb	r3, [r3]
 562 001c DBB2     		uxtb	r3, r3
 563 001e 03F00103 		and	r3, r3, #1
 377:.\Generated_Source\PSoC5/CyLib.c ****        (0u != (CY_LIB_PM_ACT_CFG5_REG & CY_ACT_USB_ENABLED     )))  ||
 564              		.loc 1 377 0 discriminator 1
 565 0022 002B     		cmp	r3, #0
 566 0024 0DD1     		bne	.L33
 567              	.L32:
 379:.\Generated_Source\PSoC5/CyLib.c ****        (((CY_PM_MODE_CSR_REG & CY_PM_MODE_CSR_MASK) == CY_PM_MODE_CSR_ALT_ACT) &&
 568              		.loc 1 379 0
 569 0026 0B4B     		ldr	r3, .L36
 570 0028 1B78     		ldrb	r3, [r3]
 571 002a DBB2     		uxtb	r3, r3
 572 002c 03F00703 		and	r3, r3, #7
 378:.\Generated_Source\PSoC5/CyLib.c ****        (0u != (CY_LIB_PM_ACT_CFG5_REG & CY_ACT_USB_ENABLED     )))  ||
 573              		.loc 1 378 0
 574 0030 012B     		cmp	r3, #1
 575 0032 08D1     		bne	.L34
 380:.\Generated_Source\PSoC5/CyLib.c ****        (0u != (CY_LIB_PM_STBY_CFG5_REG & CY_ALT_ACT_USB_ENABLED))))
 576              		.loc 1 380 0
 577 0034 094B     		ldr	r3, .L36+8
 578 0036 1B78     		ldrb	r3, [r3]
 579 0038 DBB2     		uxtb	r3, r3
 580 003a 03F00103 		and	r3, r3, #1
 379:.\Generated_Source\PSoC5/CyLib.c ****        (((CY_PM_MODE_CSR_REG & CY_PM_MODE_CSR_MASK) == CY_PM_MODE_CSR_ALT_ACT) &&
ARM GAS  C:\Users\faithc\AppData\Local\Temp\ccpkbr6m.s 			page 18


 581              		.loc 1 379 0
 582 003e 002B     		cmp	r3, #0
 583 0040 01D0     		beq	.L34
 584              	.L33:
 381:.\Generated_Source\PSoC5/CyLib.c ****     {
 382:.\Generated_Source\PSoC5/CyLib.c ****         poweredOn = 1u;
 585              		.loc 1 382 0
 586 0042 0123     		movs	r3, #1
 587 0044 FB71     		strb	r3, [r7, #7]
 588              	.L34:
 383:.\Generated_Source\PSoC5/CyLib.c ****     }
 384:.\Generated_Source\PSoC5/CyLib.c **** 
 385:.\Generated_Source\PSoC5/CyLib.c ****     return (poweredOn);
 589              		.loc 1 385 0
 590 0046 FB79     		ldrb	r3, [r7, #7]	@ zero_extendqisi2
 386:.\Generated_Source\PSoC5/CyLib.c **** }
 591              		.loc 1 386 0
 592 0048 1846     		mov	r0, r3
 593 004a 0C37     		adds	r7, r7, #12
 594              		.cfi_def_cfa_offset 4
 595 004c BD46     		mov	sp, r7
 596              		.cfi_def_cfa_register 13
 597              		@ sp needed
 598 004e 5DF8047B 		ldr	r7, [sp], #4
 599              		.cfi_restore 7
 600              		.cfi_def_cfa_offset 0
 601 0052 7047     		bx	lr
 602              	.L37:
 603              		.align	2
 604              	.L36:
 605 0054 93430040 		.word	1073759123
 606 0058 A5430040 		.word	1073759141
 607 005c B5430040 		.word	1073759157
 608              		.cfi_endproc
 609              	.LFE6:
 610              		.size	CyUSB_PowerOnCheck, .-CyUSB_PowerOnCheck
 611              		.section	.text.CyIMO_SetTrimValue,"ax",%progbits
 612              		.align	2
 613              		.thumb
 614              		.thumb_func
 615              		.type	CyIMO_SetTrimValue, %function
 616              	CyIMO_SetTrimValue:
 617              	.LFB7:
 387:.\Generated_Source\PSoC5/CyLib.c **** 
 388:.\Generated_Source\PSoC5/CyLib.c **** 
 389:.\Generated_Source\PSoC5/CyLib.c **** /*******************************************************************************
 390:.\Generated_Source\PSoC5/CyLib.c **** * Function Name: CyIMO_SetTrimValue
 391:.\Generated_Source\PSoC5/CyLib.c **** ********************************************************************************
 392:.\Generated_Source\PSoC5/CyLib.c **** *
 393:.\Generated_Source\PSoC5/CyLib.c **** * Summary:
 394:.\Generated_Source\PSoC5/CyLib.c **** *  Sets the IMO factory trim values.
 395:.\Generated_Source\PSoC5/CyLib.c **** *
 396:.\Generated_Source\PSoC5/CyLib.c **** * Parameters:
 397:.\Generated_Source\PSoC5/CyLib.c **** *  uint8 freq - frequency for which trims must be set
 398:.\Generated_Source\PSoC5/CyLib.c **** *
 399:.\Generated_Source\PSoC5/CyLib.c **** * Return:
 400:.\Generated_Source\PSoC5/CyLib.c **** *  None
ARM GAS  C:\Users\faithc\AppData\Local\Temp\ccpkbr6m.s 			page 19


 401:.\Generated_Source\PSoC5/CyLib.c **** *
 402:.\Generated_Source\PSoC5/CyLib.c **** *******************************************************************************/
 403:.\Generated_Source\PSoC5/CyLib.c **** static void CyIMO_SetTrimValue(uint8 freq) 
 404:.\Generated_Source\PSoC5/CyLib.c **** {
 618              		.loc 1 404 0
 619              		.cfi_startproc
 620              		@ args = 0, pretend = 0, frame = 16
 621              		@ frame_needed = 1, uses_anonymous_args = 0
 622 0000 80B5     		push	{r7, lr}
 623              		.cfi_def_cfa_offset 8
 624              		.cfi_offset 7, -8
 625              		.cfi_offset 14, -4
 626 0002 84B0     		sub	sp, sp, #16
 627              		.cfi_def_cfa_offset 24
 628 0004 00AF     		add	r7, sp, #0
 629              		.cfi_def_cfa_register 7
 630 0006 0346     		mov	r3, r0
 631 0008 FB71     		strb	r3, [r7, #7]
 405:.\Generated_Source\PSoC5/CyLib.c ****     uint8 usbPowerOn = CyUSB_PowerOnCheck();
 632              		.loc 1 405 0
 633 000a FFF7FEFF 		bl	CyUSB_PowerOnCheck
 634 000e 0346     		mov	r3, r0
 635 0010 FB73     		strb	r3, [r7, #15]
 406:.\Generated_Source\PSoC5/CyLib.c **** 
 407:.\Generated_Source\PSoC5/CyLib.c ****     /* If USB is powered */
 408:.\Generated_Source\PSoC5/CyLib.c ****     if(usbPowerOn == 1u)
 636              		.loc 1 408 0
 637 0012 FB7B     		ldrb	r3, [r7, #15]	@ zero_extendqisi2
 638 0014 012B     		cmp	r3, #1
 639 0016 07D1     		bne	.L39
 409:.\Generated_Source\PSoC5/CyLib.c ****     {
 410:.\Generated_Source\PSoC5/CyLib.c ****         /* Unlock USB write */
 411:.\Generated_Source\PSoC5/CyLib.c ****         CY_LIB_USB_CR1_REG &= ((uint8)(~CY_LIB_USB_CLK_EN));
 640              		.loc 1 411 0
 641 0018 2F4A     		ldr	r2, .L53
 642 001a 2F4B     		ldr	r3, .L53
 643 001c 1B78     		ldrb	r3, [r3]
 644 001e DBB2     		uxtb	r3, r3
 645 0020 23F00203 		bic	r3, r3, #2
 646 0024 DBB2     		uxtb	r3, r3
 647 0026 1370     		strb	r3, [r2]
 648              	.L39:
 412:.\Generated_Source\PSoC5/CyLib.c ****     }
 413:.\Generated_Source\PSoC5/CyLib.c ****     switch(freq)
 649              		.loc 1 413 0
 650 0028 FB79     		ldrb	r3, [r7, #7]	@ zero_extendqisi2
 651 002a 082B     		cmp	r3, #8
 652 002c 50D8     		bhi	.L52
 653 002e 01A2     		adr	r2, .L42
 654 0030 52F823F0 		ldr	pc, [r2, r3, lsl #2]
 655              		.p2align 2
 656              	.L42:
 657 0034 59000000 		.word	.L41+1
 658 0038 65000000 		.word	.L43+1
 659 003c 71000000 		.word	.L44+1
 660 0040 7D000000 		.word	.L45+1
 661 0044 89000000 		.word	.L46+1
ARM GAS  C:\Users\faithc\AppData\Local\Temp\ccpkbr6m.s 			page 20


 662 0048 95000000 		.word	.L47+1
 663 004c A1000000 		.word	.L48+1
 664 0050 D1000000 		.word	.L52+1
 665 0054 AD000000 		.word	.L49+1
 666              		.p2align 1
 667              	.L41:
 414:.\Generated_Source\PSoC5/CyLib.c ****     {
 415:.\Generated_Source\PSoC5/CyLib.c ****     case CY_IMO_FREQ_3MHZ:
 416:.\Generated_Source\PSoC5/CyLib.c ****         CY_LIB_IMO_TR1_REG = CY_GET_XTND_REG8(CY_LIB_TRIM_IMO_3MHZ_PTR);
 668              		.loc 1 416 0
 669 0058 204B     		ldr	r3, .L53+4
 670 005a 214A     		ldr	r2, .L53+8
 671 005c 1278     		ldrb	r2, [r2]
 672 005e D2B2     		uxtb	r2, r2
 673 0060 1A70     		strb	r2, [r3]
 417:.\Generated_Source\PSoC5/CyLib.c ****         break;
 674              		.loc 1 417 0
 675 0062 36E0     		b	.L38
 676              	.L43:
 418:.\Generated_Source\PSoC5/CyLib.c **** 
 419:.\Generated_Source\PSoC5/CyLib.c ****     case CY_IMO_FREQ_6MHZ:
 420:.\Generated_Source\PSoC5/CyLib.c ****         CY_LIB_IMO_TR1_REG = CY_GET_XTND_REG8(CY_LIB_TRIM_IMO_6MHZ_PTR);
 677              		.loc 1 420 0
 678 0064 1D4B     		ldr	r3, .L53+4
 679 0066 1F4A     		ldr	r2, .L53+12
 680 0068 1278     		ldrb	r2, [r2]
 681 006a D2B2     		uxtb	r2, r2
 682 006c 1A70     		strb	r2, [r3]
 421:.\Generated_Source\PSoC5/CyLib.c ****         break;
 683              		.loc 1 421 0
 684 006e 30E0     		b	.L38
 685              	.L44:
 422:.\Generated_Source\PSoC5/CyLib.c **** 
 423:.\Generated_Source\PSoC5/CyLib.c ****     case CY_IMO_FREQ_12MHZ:
 424:.\Generated_Source\PSoC5/CyLib.c ****         CY_LIB_IMO_TR1_REG = CY_GET_XTND_REG8(CY_LIB_TRIM_IMO_12MHZ_PTR);
 686              		.loc 1 424 0
 687 0070 1A4B     		ldr	r3, .L53+4
 688 0072 1D4A     		ldr	r2, .L53+16
 689 0074 1278     		ldrb	r2, [r2]
 690 0076 D2B2     		uxtb	r2, r2
 691 0078 1A70     		strb	r2, [r3]
 425:.\Generated_Source\PSoC5/CyLib.c ****         break;
 692              		.loc 1 425 0
 693 007a 2AE0     		b	.L38
 694              	.L45:
 426:.\Generated_Source\PSoC5/CyLib.c **** 
 427:.\Generated_Source\PSoC5/CyLib.c ****     case CY_IMO_FREQ_24MHZ:
 428:.\Generated_Source\PSoC5/CyLib.c ****         CY_LIB_IMO_TR1_REG = CY_GET_XTND_REG8(CY_LIB_TRIM_IMO_24MHZ_PTR);
 695              		.loc 1 428 0
 696 007c 174B     		ldr	r3, .L53+4
 697 007e 1B4A     		ldr	r2, .L53+20
 698 0080 1278     		ldrb	r2, [r2]
 699 0082 D2B2     		uxtb	r2, r2
 700 0084 1A70     		strb	r2, [r3]
 429:.\Generated_Source\PSoC5/CyLib.c ****         break;
 701              		.loc 1 429 0
 702 0086 24E0     		b	.L38
ARM GAS  C:\Users\faithc\AppData\Local\Temp\ccpkbr6m.s 			page 21


 703              	.L46:
 430:.\Generated_Source\PSoC5/CyLib.c **** 
 431:.\Generated_Source\PSoC5/CyLib.c ****     case CY_IMO_FREQ_48MHZ:
 432:.\Generated_Source\PSoC5/CyLib.c ****         CY_LIB_IMO_TR1_REG = CY_GET_XTND_REG8(CY_LIB_TRIM_IMO_TR1_PTR);
 704              		.loc 1 432 0
 705 0088 144B     		ldr	r3, .L53+4
 706 008a 194A     		ldr	r2, .L53+24
 707 008c 1278     		ldrb	r2, [r2]
 708 008e D2B2     		uxtb	r2, r2
 709 0090 1A70     		strb	r2, [r3]
 433:.\Generated_Source\PSoC5/CyLib.c ****         break;
 710              		.loc 1 433 0
 711 0092 1EE0     		b	.L38
 712              	.L47:
 434:.\Generated_Source\PSoC5/CyLib.c **** 
 435:.\Generated_Source\PSoC5/CyLib.c ****     case CY_IMO_FREQ_62MHZ:
 436:.\Generated_Source\PSoC5/CyLib.c ****         CY_LIB_IMO_TR1_REG = CY_GET_XTND_REG8(CY_LIB_TRIM_IMO_67MHZ_PTR);
 713              		.loc 1 436 0
 714 0094 114B     		ldr	r3, .L53+4
 715 0096 174A     		ldr	r2, .L53+28
 716 0098 1278     		ldrb	r2, [r2]
 717 009a D2B2     		uxtb	r2, r2
 718 009c 1A70     		strb	r2, [r3]
 437:.\Generated_Source\PSoC5/CyLib.c ****         break;
 719              		.loc 1 437 0
 720 009e 18E0     		b	.L38
 721              	.L48:
 438:.\Generated_Source\PSoC5/CyLib.c **** 
 439:.\Generated_Source\PSoC5/CyLib.c **** #if(CY_PSOC5)
 440:.\Generated_Source\PSoC5/CyLib.c ****     case CY_IMO_FREQ_74MHZ:
 441:.\Generated_Source\PSoC5/CyLib.c ****         CY_LIB_IMO_TR1_REG = CY_GET_XTND_REG8(CY_LIB_TRIM_IMO_80MHZ_PTR);
 722              		.loc 1 441 0
 723 00a0 0E4B     		ldr	r3, .L53+4
 724 00a2 154A     		ldr	r2, .L53+32
 725 00a4 1278     		ldrb	r2, [r2]
 726 00a6 D2B2     		uxtb	r2, r2
 727 00a8 1A70     		strb	r2, [r3]
 442:.\Generated_Source\PSoC5/CyLib.c ****         break;
 728              		.loc 1 442 0
 729 00aa 12E0     		b	.L38
 730              	.L49:
 443:.\Generated_Source\PSoC5/CyLib.c **** #endif  /* (CY_PSOC5) */
 444:.\Generated_Source\PSoC5/CyLib.c **** 
 445:.\Generated_Source\PSoC5/CyLib.c ****     case CY_IMO_FREQ_USB:
 446:.\Generated_Source\PSoC5/CyLib.c ****         CY_LIB_IMO_TR1_REG = CY_GET_XTND_REG8(CY_LIB_TRIM_IMO_USB_PTR);
 731              		.loc 1 446 0
 732 00ac 0B4B     		ldr	r3, .L53+4
 733 00ae 134A     		ldr	r2, .L53+36
 734 00b0 1278     		ldrb	r2, [r2]
 735 00b2 D2B2     		uxtb	r2, r2
 736 00b4 1A70     		strb	r2, [r3]
 447:.\Generated_Source\PSoC5/CyLib.c **** 
 448:.\Generated_Source\PSoC5/CyLib.c ****         /* If USB is powered */
 449:.\Generated_Source\PSoC5/CyLib.c ****         if(usbPowerOn == 1u)
 737              		.loc 1 449 0
 738 00b6 FB7B     		ldrb	r3, [r7, #15]	@ zero_extendqisi2
 739 00b8 012B     		cmp	r3, #1
ARM GAS  C:\Users\faithc\AppData\Local\Temp\ccpkbr6m.s 			page 22


 740 00ba 08D1     		bne	.L51
 450:.\Generated_Source\PSoC5/CyLib.c ****         {
 451:.\Generated_Source\PSoC5/CyLib.c ****             /* Lock USB Oscillator */
 452:.\Generated_Source\PSoC5/CyLib.c ****             CY_LIB_USB_CR1_REG |= CY_LIB_USB_CLK_EN;
 741              		.loc 1 452 0
 742 00bc 064A     		ldr	r2, .L53
 743 00be 064B     		ldr	r3, .L53
 744 00c0 1B78     		ldrb	r3, [r3]
 745 00c2 DBB2     		uxtb	r3, r3
 746 00c4 43F00203 		orr	r3, r3, #2
 747 00c8 DBB2     		uxtb	r3, r3
 748 00ca 1370     		strb	r3, [r2]
 453:.\Generated_Source\PSoC5/CyLib.c ****         }
 454:.\Generated_Source\PSoC5/CyLib.c ****         break;
 749              		.loc 1 454 0
 750 00cc 01E0     		b	.L38
 751              	.L51:
 752 00ce 00E0     		b	.L38
 753              	.L52:
 455:.\Generated_Source\PSoC5/CyLib.c **** 
 456:.\Generated_Source\PSoC5/CyLib.c ****     default:
 457:.\Generated_Source\PSoC5/CyLib.c ****             CYASSERT(0u != 0u);
 458:.\Generated_Source\PSoC5/CyLib.c ****         break;
 754              		.loc 1 458 0
 755 00d0 00BF     		nop
 756              	.L38:
 459:.\Generated_Source\PSoC5/CyLib.c ****     }
 460:.\Generated_Source\PSoC5/CyLib.c **** 
 461:.\Generated_Source\PSoC5/CyLib.c **** }
 757              		.loc 1 461 0
 758 00d2 1037     		adds	r7, r7, #16
 759              		.cfi_def_cfa_offset 8
 760 00d4 BD46     		mov	sp, r7
 761              		.cfi_def_cfa_register 13
 762              		@ sp needed
 763 00d6 80BD     		pop	{r7, pc}
 764              	.L54:
 765              		.align	2
 766              	.L53:
 767 00d8 09600040 		.word	1073766409
 768 00dc A1460040 		.word	1073759905
 769 00e0 08010049 		.word	1224737032
 770 00e4 09010049 		.word	1224737033
 771 00e8 0A010049 		.word	1224737034
 772 00ec 0B010049 		.word	1224737035
 773 00f0 89010049 		.word	1224737161
 774 00f4 0C010049 		.word	1224737036
 775 00f8 0D010049 		.word	1224737037
 776 00fc 0F010049 		.word	1224737039
 777              		.cfi_endproc
 778              	.LFE7:
 779              		.size	CyIMO_SetTrimValue, .-CyIMO_SetTrimValue
 780              		.section	.text.CyIMO_SetFreq,"ax",%progbits
 781              		.align	2
 782              		.global	CyIMO_SetFreq
 783              		.thumb
 784              		.thumb_func
ARM GAS  C:\Users\faithc\AppData\Local\Temp\ccpkbr6m.s 			page 23


 785              		.type	CyIMO_SetFreq, %function
 786              	CyIMO_SetFreq:
 787              	.LFB8:
 462:.\Generated_Source\PSoC5/CyLib.c **** 
 463:.\Generated_Source\PSoC5/CyLib.c **** 
 464:.\Generated_Source\PSoC5/CyLib.c **** /*******************************************************************************
 465:.\Generated_Source\PSoC5/CyLib.c **** * Function Name: CyIMO_SetFreq
 466:.\Generated_Source\PSoC5/CyLib.c **** ********************************************************************************
 467:.\Generated_Source\PSoC5/CyLib.c **** *
 468:.\Generated_Source\PSoC5/CyLib.c **** * Summary:
 469:.\Generated_Source\PSoC5/CyLib.c **** *  Sets the frequency of the IMO. Changes may be made while the IMO is running.
 470:.\Generated_Source\PSoC5/CyLib.c **** *
 471:.\Generated_Source\PSoC5/CyLib.c **** * Parameters:
 472:.\Generated_Source\PSoC5/CyLib.c **** *  freq: Frequency of IMO operation
 473:.\Generated_Source\PSoC5/CyLib.c **** *       CY_IMO_FREQ_3MHZ  to set  3   MHz
 474:.\Generated_Source\PSoC5/CyLib.c **** *       CY_IMO_FREQ_6MHZ  to set  6   MHz
 475:.\Generated_Source\PSoC5/CyLib.c **** *       CY_IMO_FREQ_12MHZ to set 12   MHz
 476:.\Generated_Source\PSoC5/CyLib.c **** *       CY_IMO_FREQ_24MHZ to set 24   MHz
 477:.\Generated_Source\PSoC5/CyLib.c **** *       CY_IMO_FREQ_48MHZ to set 48   MHz
 478:.\Generated_Source\PSoC5/CyLib.c **** *       CY_IMO_FREQ_62MHZ to set 62.6 MHz
 479:.\Generated_Source\PSoC5/CyLib.c **** *       CY_IMO_FREQ_74MHZ to set 74.7 MHz (not applicable for PSoC 3)
 480:.\Generated_Source\PSoC5/CyLib.c **** *       CY_IMO_FREQ_USB   to set 24   MHz (Trimmed for USB operation)
 481:.\Generated_Source\PSoC5/CyLib.c **** *
 482:.\Generated_Source\PSoC5/CyLib.c **** * Return:
 483:.\Generated_Source\PSoC5/CyLib.c **** *  None
 484:.\Generated_Source\PSoC5/CyLib.c **** *
 485:.\Generated_Source\PSoC5/CyLib.c **** * Side Effects:
 486:.\Generated_Source\PSoC5/CyLib.c **** *  If this function execution results in the CPU clock frequency increasing,
 487:.\Generated_Source\PSoC5/CyLib.c **** *  then the number of clock cycles the cache will wait before it samples data
 488:.\Generated_Source\PSoC5/CyLib.c **** *  coming back from the Flash must be adjusted by calling
 489:.\Generated_Source\PSoC5/CyLib.c **** *  CyFlash_SetWaitCycles() with an appropriate parameter. It can be optionally
 490:.\Generated_Source\PSoC5/CyLib.c **** *  called if the CPU clock frequency is lowered in order to improve the CPU
 491:.\Generated_Source\PSoC5/CyLib.c **** *  performance. See CyFlash_SetWaitCycles() description for more information.
 492:.\Generated_Source\PSoC5/CyLib.c **** *
 493:.\Generated_Source\PSoC5/CyLib.c **** *  When the USB setting is chosen, the USB clock locking circuit is enabled.
 494:.\Generated_Source\PSoC5/CyLib.c **** *  Otherwise this circuit is disabled. The USB block must be powered before
 495:.\Generated_Source\PSoC5/CyLib.c **** *  selecting the USB setting.
 496:.\Generated_Source\PSoC5/CyLib.c **** *
 497:.\Generated_Source\PSoC5/CyLib.c **** *******************************************************************************/
 498:.\Generated_Source\PSoC5/CyLib.c **** void CyIMO_SetFreq(uint8 freq) 
 499:.\Generated_Source\PSoC5/CyLib.c **** {
 788              		.loc 1 499 0
 789              		.cfi_startproc
 790              		@ args = 0, pretend = 0, frame = 16
 791              		@ frame_needed = 1, uses_anonymous_args = 0
 792 0000 80B5     		push	{r7, lr}
 793              		.cfi_def_cfa_offset 8
 794              		.cfi_offset 7, -8
 795              		.cfi_offset 14, -4
 796 0002 84B0     		sub	sp, sp, #16
 797              		.cfi_def_cfa_offset 24
 798 0004 00AF     		add	r7, sp, #0
 799              		.cfi_def_cfa_register 7
 800 0006 0346     		mov	r3, r0
 801 0008 FB71     		strb	r3, [r7, #7]
 500:.\Generated_Source\PSoC5/CyLib.c ****     uint8 currentFreq;
 501:.\Generated_Source\PSoC5/CyLib.c ****     uint8 nextFreq;
ARM GAS  C:\Users\faithc\AppData\Local\Temp\ccpkbr6m.s 			page 24


 502:.\Generated_Source\PSoC5/CyLib.c **** 
 503:.\Generated_Source\PSoC5/CyLib.c ****     /***************************************************************************
 504:.\Generated_Source\PSoC5/CyLib.c ****     * If the IMO frequency is changed,the Trim values must also be set
 505:.\Generated_Source\PSoC5/CyLib.c ****     * accordingly.This requires reading the current frequency. If the new
 506:.\Generated_Source\PSoC5/CyLib.c ****     * frequency is faster, then set a new trim and then change the frequency,
 507:.\Generated_Source\PSoC5/CyLib.c ****     * otherwise change the frequency and then set new trim values.
 508:.\Generated_Source\PSoC5/CyLib.c ****     ***************************************************************************/
 509:.\Generated_Source\PSoC5/CyLib.c **** 
 510:.\Generated_Source\PSoC5/CyLib.c ****     currentFreq = CY_LIB_FASTCLK_IMO_CR_REG & ((uint8)(~CY_LIB_FASTCLK_IMO_CR_RANGE_MASK));
 802              		.loc 1 510 0
 803 000a 644B     		ldr	r3, .L85
 804 000c 1B78     		ldrb	r3, [r3]
 805 000e DBB2     		uxtb	r3, r3
 806 0010 03F00703 		and	r3, r3, #7
 807 0014 FB73     		strb	r3, [r7, #15]
 511:.\Generated_Source\PSoC5/CyLib.c **** 
 512:.\Generated_Source\PSoC5/CyLib.c ****     /* Check if requested frequency is USB. */
 513:.\Generated_Source\PSoC5/CyLib.c ****     nextFreq = (freq == CY_IMO_FREQ_USB) ? CY_IMO_FREQ_24MHZ : freq;
 808              		.loc 1 513 0
 809 0016 FB79     		ldrb	r3, [r7, #7]	@ zero_extendqisi2
 810 0018 082B     		cmp	r3, #8
 811 001a 01D0     		beq	.L56
 812              		.loc 1 513 0 is_stmt 0 discriminator 1
 813 001c FB79     		ldrb	r3, [r7, #7]	@ zero_extendqisi2
 814 001e 00E0     		b	.L57
 815              	.L56:
 816              		.loc 1 513 0 discriminator 2
 817 0020 0323     		movs	r3, #3
 818              	.L57:
 819              		.loc 1 513 0 discriminator 4
 820 0022 BB73     		strb	r3, [r7, #14]
 514:.\Generated_Source\PSoC5/CyLib.c **** 
 515:.\Generated_Source\PSoC5/CyLib.c ****     switch (currentFreq)
 821              		.loc 1 515 0 is_stmt 1 discriminator 4
 822 0024 FB7B     		ldrb	r3, [r7, #15]	@ zero_extendqisi2
 823 0026 062B     		cmp	r3, #6
 824 0028 25D8     		bhi	.L83
 825 002a 01A2     		adr	r2, .L60
 826 002c 52F823F0 		ldr	pc, [r2, r3, lsl #2]
 827              		.p2align 2
 828              	.L60:
 829 0030 4D000000 		.word	.L59+1
 830 0034 53000000 		.word	.L61+1
 831 0038 59000000 		.word	.L62+1
 832 003c 5F000000 		.word	.L63+1
 833 0040 65000000 		.word	.L64+1
 834 0044 6B000000 		.word	.L65+1
 835 0048 71000000 		.word	.L66+1
 836              		.p2align 1
 837              	.L59:
 516:.\Generated_Source\PSoC5/CyLib.c ****     {
 517:.\Generated_Source\PSoC5/CyLib.c ****     case 0u:
 518:.\Generated_Source\PSoC5/CyLib.c ****         currentFreq = CY_IMO_FREQ_12MHZ;
 838              		.loc 1 518 0
 839 004c 0223     		movs	r3, #2
 840 004e FB73     		strb	r3, [r7, #15]
 519:.\Generated_Source\PSoC5/CyLib.c ****         break;
ARM GAS  C:\Users\faithc\AppData\Local\Temp\ccpkbr6m.s 			page 25


 841              		.loc 1 519 0
 842 0050 12E0     		b	.L67
 843              	.L61:
 520:.\Generated_Source\PSoC5/CyLib.c **** 
 521:.\Generated_Source\PSoC5/CyLib.c ****     case 1u:
 522:.\Generated_Source\PSoC5/CyLib.c ****         currentFreq = CY_IMO_FREQ_6MHZ;
 844              		.loc 1 522 0
 845 0052 0123     		movs	r3, #1
 846 0054 FB73     		strb	r3, [r7, #15]
 523:.\Generated_Source\PSoC5/CyLib.c ****         break;
 847              		.loc 1 523 0
 848 0056 0FE0     		b	.L67
 849              	.L62:
 524:.\Generated_Source\PSoC5/CyLib.c **** 
 525:.\Generated_Source\PSoC5/CyLib.c ****     case 2u:
 526:.\Generated_Source\PSoC5/CyLib.c ****         currentFreq = CY_IMO_FREQ_24MHZ;
 850              		.loc 1 526 0
 851 0058 0323     		movs	r3, #3
 852 005a FB73     		strb	r3, [r7, #15]
 527:.\Generated_Source\PSoC5/CyLib.c ****         break;
 853              		.loc 1 527 0
 854 005c 0CE0     		b	.L67
 855              	.L63:
 528:.\Generated_Source\PSoC5/CyLib.c **** 
 529:.\Generated_Source\PSoC5/CyLib.c ****     case 3u:
 530:.\Generated_Source\PSoC5/CyLib.c ****         currentFreq = CY_IMO_FREQ_3MHZ;
 856              		.loc 1 530 0
 857 005e 0023     		movs	r3, #0
 858 0060 FB73     		strb	r3, [r7, #15]
 531:.\Generated_Source\PSoC5/CyLib.c ****         break;
 859              		.loc 1 531 0
 860 0062 09E0     		b	.L67
 861              	.L64:
 532:.\Generated_Source\PSoC5/CyLib.c **** 
 533:.\Generated_Source\PSoC5/CyLib.c ****     case 4u:
 534:.\Generated_Source\PSoC5/CyLib.c ****         currentFreq = CY_IMO_FREQ_48MHZ;
 862              		.loc 1 534 0
 863 0064 0423     		movs	r3, #4
 864 0066 FB73     		strb	r3, [r7, #15]
 535:.\Generated_Source\PSoC5/CyLib.c ****         break;
 865              		.loc 1 535 0
 866 0068 06E0     		b	.L67
 867              	.L65:
 536:.\Generated_Source\PSoC5/CyLib.c **** 
 537:.\Generated_Source\PSoC5/CyLib.c ****     case 5u:
 538:.\Generated_Source\PSoC5/CyLib.c ****         currentFreq = CY_IMO_FREQ_62MHZ;
 868              		.loc 1 538 0
 869 006a 0523     		movs	r3, #5
 870 006c FB73     		strb	r3, [r7, #15]
 539:.\Generated_Source\PSoC5/CyLib.c ****         break;
 871              		.loc 1 539 0
 872 006e 03E0     		b	.L67
 873              	.L66:
 540:.\Generated_Source\PSoC5/CyLib.c **** 
 541:.\Generated_Source\PSoC5/CyLib.c **** #if(CY_PSOC5)
 542:.\Generated_Source\PSoC5/CyLib.c ****     case 6u:
 543:.\Generated_Source\PSoC5/CyLib.c ****         currentFreq = CY_IMO_FREQ_74MHZ;
ARM GAS  C:\Users\faithc\AppData\Local\Temp\ccpkbr6m.s 			page 26


 874              		.loc 1 543 0
 875 0070 0623     		movs	r3, #6
 876 0072 FB73     		strb	r3, [r7, #15]
 544:.\Generated_Source\PSoC5/CyLib.c ****         break;
 877              		.loc 1 544 0
 878 0074 00E0     		b	.L67
 879              	.L83:
 545:.\Generated_Source\PSoC5/CyLib.c **** #endif  /* (CY_PSOC5) */
 546:.\Generated_Source\PSoC5/CyLib.c **** 
 547:.\Generated_Source\PSoC5/CyLib.c ****     default:
 548:.\Generated_Source\PSoC5/CyLib.c ****         CYASSERT(0u != 0u);
 549:.\Generated_Source\PSoC5/CyLib.c ****         break;
 880              		.loc 1 549 0
 881 0076 00BF     		nop
 882              	.L67:
 550:.\Generated_Source\PSoC5/CyLib.c ****     }
 551:.\Generated_Source\PSoC5/CyLib.c **** 
 552:.\Generated_Source\PSoC5/CyLib.c ****     if (nextFreq >= currentFreq)
 883              		.loc 1 552 0
 884 0078 BA7B     		ldrb	r2, [r7, #14]	@ zero_extendqisi2
 885 007a FB7B     		ldrb	r3, [r7, #15]	@ zero_extendqisi2
 886 007c 9A42     		cmp	r2, r3
 887 007e 03D3     		bcc	.L68
 553:.\Generated_Source\PSoC5/CyLib.c ****     {
 554:.\Generated_Source\PSoC5/CyLib.c ****         /* Set new trim first */
 555:.\Generated_Source\PSoC5/CyLib.c ****         CyIMO_SetTrimValue(freq);
 888              		.loc 1 555 0
 889 0080 FB79     		ldrb	r3, [r7, #7]	@ zero_extendqisi2
 890 0082 1846     		mov	r0, r3
 891 0084 FFF7FEFF 		bl	CyIMO_SetTrimValue
 892              	.L68:
 556:.\Generated_Source\PSoC5/CyLib.c ****     }
 557:.\Generated_Source\PSoC5/CyLib.c **** 
 558:.\Generated_Source\PSoC5/CyLib.c ****     /* Set usbclk_on bit when using CY_IMO_FREQ_USB, if not clear it */
 559:.\Generated_Source\PSoC5/CyLib.c ****     switch(freq)
 893              		.loc 1 559 0
 894 0088 FB79     		ldrb	r3, [r7, #7]	@ zero_extendqisi2
 895 008a 082B     		cmp	r3, #8
 896 008c 71D8     		bhi	.L84
 897 008e 01A2     		adr	r2, .L71
 898 0090 52F823F0 		ldr	pc, [r2, r3, lsl #2]
 899              		.p2align 2
 900              	.L71:
 901 0094 B9000000 		.word	.L70+1
 902 0098 D1000000 		.word	.L72+1
 903 009c E9000000 		.word	.L73+1
 904 00a0 FB000000 		.word	.L74+1
 905 00a4 13010000 		.word	.L75+1
 906 00a8 2B010000 		.word	.L76+1
 907 00ac 43010000 		.word	.L77+1
 908 00b0 73010000 		.word	.L84+1
 909 00b4 5B010000 		.word	.L78+1
 910              		.p2align 1
 911              	.L70:
 560:.\Generated_Source\PSoC5/CyLib.c ****     {
 561:.\Generated_Source\PSoC5/CyLib.c ****     case CY_IMO_FREQ_3MHZ:
 562:.\Generated_Source\PSoC5/CyLib.c ****         CY_LIB_FASTCLK_IMO_CR_REG = ((CY_LIB_FASTCLK_IMO_CR_REG & CY_LIB_FASTCLK_IMO_CR_RANGE_MASK)
ARM GAS  C:\Users\faithc\AppData\Local\Temp\ccpkbr6m.s 			page 27


 912              		.loc 1 562 0
 913 00b8 384A     		ldr	r2, .L85
 914 00ba 384B     		ldr	r3, .L85
 915 00bc 1B78     		ldrb	r3, [r3]
 916 00be DBB2     		uxtb	r3, r3
 917 00c0 23F04703 		bic	r3, r3, #71
 918 00c4 DBB2     		uxtb	r3, r3
 919 00c6 43F00303 		orr	r3, r3, #3
 920 00ca DBB2     		uxtb	r3, r3
 921 00cc 1370     		strb	r3, [r2]
 563:.\Generated_Source\PSoC5/CyLib.c ****             CY_LIB_IMO_3MHZ_VALUE) & ((uint8)(~CY_LIB_IMO_USBCLK_ON_SET));
 564:.\Generated_Source\PSoC5/CyLib.c ****         break;
 922              		.loc 1 564 0
 923 00ce 51E0     		b	.L79
 924              	.L72:
 565:.\Generated_Source\PSoC5/CyLib.c **** 
 566:.\Generated_Source\PSoC5/CyLib.c ****     case CY_IMO_FREQ_6MHZ:
 567:.\Generated_Source\PSoC5/CyLib.c ****         CY_LIB_FASTCLK_IMO_CR_REG = ((CY_LIB_FASTCLK_IMO_CR_REG & CY_LIB_FASTCLK_IMO_CR_RANGE_MASK)
 925              		.loc 1 567 0
 926 00d0 324A     		ldr	r2, .L85
 927 00d2 324B     		ldr	r3, .L85
 928 00d4 1B78     		ldrb	r3, [r3]
 929 00d6 DBB2     		uxtb	r3, r3
 930 00d8 23F04703 		bic	r3, r3, #71
 931 00dc DBB2     		uxtb	r3, r3
 932 00de 43F00103 		orr	r3, r3, #1
 933 00e2 DBB2     		uxtb	r3, r3
 934 00e4 1370     		strb	r3, [r2]
 568:.\Generated_Source\PSoC5/CyLib.c ****             CY_LIB_IMO_6MHZ_VALUE) & ((uint8)(~CY_LIB_IMO_USBCLK_ON_SET));
 569:.\Generated_Source\PSoC5/CyLib.c ****         break;
 935              		.loc 1 569 0
 936 00e6 45E0     		b	.L79
 937              	.L73:
 570:.\Generated_Source\PSoC5/CyLib.c **** 
 571:.\Generated_Source\PSoC5/CyLib.c ****     case CY_IMO_FREQ_12MHZ:
 572:.\Generated_Source\PSoC5/CyLib.c ****         CY_LIB_FASTCLK_IMO_CR_REG = ((CY_LIB_FASTCLK_IMO_CR_REG & CY_LIB_FASTCLK_IMO_CR_RANGE_MASK)
 938              		.loc 1 572 0
 939 00e8 2C4A     		ldr	r2, .L85
 940 00ea 2C4B     		ldr	r3, .L85
 941 00ec 1B78     		ldrb	r3, [r3]
 942 00ee DBB2     		uxtb	r3, r3
 943 00f0 23F04703 		bic	r3, r3, #71
 944 00f4 DBB2     		uxtb	r3, r3
 945 00f6 1370     		strb	r3, [r2]
 573:.\Generated_Source\PSoC5/CyLib.c ****             CY_LIB_IMO_12MHZ_VALUE) & ((uint8)(~CY_LIB_IMO_USBCLK_ON_SET));
 574:.\Generated_Source\PSoC5/CyLib.c ****         break;
 946              		.loc 1 574 0
 947 00f8 3CE0     		b	.L79
 948              	.L74:
 575:.\Generated_Source\PSoC5/CyLib.c **** 
 576:.\Generated_Source\PSoC5/CyLib.c ****     case CY_IMO_FREQ_24MHZ:
 577:.\Generated_Source\PSoC5/CyLib.c ****         CY_LIB_FASTCLK_IMO_CR_REG = ((CY_LIB_FASTCLK_IMO_CR_REG & CY_LIB_FASTCLK_IMO_CR_RANGE_MASK)
 949              		.loc 1 577 0
 950 00fa 284A     		ldr	r2, .L85
 951 00fc 274B     		ldr	r3, .L85
 952 00fe 1B78     		ldrb	r3, [r3]
 953 0100 DBB2     		uxtb	r3, r3
ARM GAS  C:\Users\faithc\AppData\Local\Temp\ccpkbr6m.s 			page 28


 954 0102 23F04703 		bic	r3, r3, #71
 955 0106 DBB2     		uxtb	r3, r3
 956 0108 43F00203 		orr	r3, r3, #2
 957 010c DBB2     		uxtb	r3, r3
 958 010e 1370     		strb	r3, [r2]
 578:.\Generated_Source\PSoC5/CyLib.c ****             CY_LIB_IMO_24MHZ_VALUE) & ((uint8)(~CY_LIB_IMO_USBCLK_ON_SET));
 579:.\Generated_Source\PSoC5/CyLib.c ****         break;
 959              		.loc 1 579 0
 960 0110 30E0     		b	.L79
 961              	.L75:
 580:.\Generated_Source\PSoC5/CyLib.c **** 
 581:.\Generated_Source\PSoC5/CyLib.c ****     case CY_IMO_FREQ_48MHZ:
 582:.\Generated_Source\PSoC5/CyLib.c ****         CY_LIB_FASTCLK_IMO_CR_REG = ((CY_LIB_FASTCLK_IMO_CR_REG & CY_LIB_FASTCLK_IMO_CR_RANGE_MASK)
 962              		.loc 1 582 0
 963 0112 224A     		ldr	r2, .L85
 964 0114 214B     		ldr	r3, .L85
 965 0116 1B78     		ldrb	r3, [r3]
 966 0118 DBB2     		uxtb	r3, r3
 967 011a 23F04703 		bic	r3, r3, #71
 968 011e DBB2     		uxtb	r3, r3
 969 0120 43F00403 		orr	r3, r3, #4
 970 0124 DBB2     		uxtb	r3, r3
 971 0126 1370     		strb	r3, [r2]
 583:.\Generated_Source\PSoC5/CyLib.c ****             CY_LIB_IMO_48MHZ_VALUE) & ((uint8)(~CY_LIB_IMO_USBCLK_ON_SET));
 584:.\Generated_Source\PSoC5/CyLib.c ****         break;
 972              		.loc 1 584 0
 973 0128 24E0     		b	.L79
 974              	.L76:
 585:.\Generated_Source\PSoC5/CyLib.c **** 
 586:.\Generated_Source\PSoC5/CyLib.c ****     case CY_IMO_FREQ_62MHZ:
 587:.\Generated_Source\PSoC5/CyLib.c ****         CY_LIB_FASTCLK_IMO_CR_REG = ((CY_LIB_FASTCLK_IMO_CR_REG & CY_LIB_FASTCLK_IMO_CR_RANGE_MASK)
 975              		.loc 1 587 0
 976 012a 1C4A     		ldr	r2, .L85
 977 012c 1B4B     		ldr	r3, .L85
 978 012e 1B78     		ldrb	r3, [r3]
 979 0130 DBB2     		uxtb	r3, r3
 980 0132 23F04703 		bic	r3, r3, #71
 981 0136 DBB2     		uxtb	r3, r3
 982 0138 43F00503 		orr	r3, r3, #5
 983 013c DBB2     		uxtb	r3, r3
 984 013e 1370     		strb	r3, [r2]
 588:.\Generated_Source\PSoC5/CyLib.c ****             CY_LIB_IMO_62MHZ_VALUE) & ((uint8)(~CY_LIB_IMO_USBCLK_ON_SET));
 589:.\Generated_Source\PSoC5/CyLib.c ****         break;
 985              		.loc 1 589 0
 986 0140 18E0     		b	.L79
 987              	.L77:
 590:.\Generated_Source\PSoC5/CyLib.c **** 
 591:.\Generated_Source\PSoC5/CyLib.c **** #if(CY_PSOC5)
 592:.\Generated_Source\PSoC5/CyLib.c ****     case CY_IMO_FREQ_74MHZ:
 593:.\Generated_Source\PSoC5/CyLib.c ****         CY_LIB_FASTCLK_IMO_CR_REG = ((CY_LIB_FASTCLK_IMO_CR_REG & CY_LIB_FASTCLK_IMO_CR_RANGE_MASK)
 988              		.loc 1 593 0
 989 0142 164A     		ldr	r2, .L85
 990 0144 154B     		ldr	r3, .L85
 991 0146 1B78     		ldrb	r3, [r3]
 992 0148 DBB2     		uxtb	r3, r3
 993 014a 23F04703 		bic	r3, r3, #71
 994 014e DBB2     		uxtb	r3, r3
ARM GAS  C:\Users\faithc\AppData\Local\Temp\ccpkbr6m.s 			page 29


 995 0150 43F00603 		orr	r3, r3, #6
 996 0154 DBB2     		uxtb	r3, r3
 997 0156 1370     		strb	r3, [r2]
 594:.\Generated_Source\PSoC5/CyLib.c ****             CY_LIB_IMO_74MHZ_VALUE) & ((uint8)(~CY_LIB_IMO_USBCLK_ON_SET));
 595:.\Generated_Source\PSoC5/CyLib.c ****         break;
 998              		.loc 1 595 0
 999 0158 0CE0     		b	.L79
 1000              	.L78:
 596:.\Generated_Source\PSoC5/CyLib.c **** #endif  /* (CY_PSOC5) */
 597:.\Generated_Source\PSoC5/CyLib.c **** 
 598:.\Generated_Source\PSoC5/CyLib.c ****     case CY_IMO_FREQ_USB:
 599:.\Generated_Source\PSoC5/CyLib.c ****         CY_LIB_FASTCLK_IMO_CR_REG = ((CY_LIB_FASTCLK_IMO_CR_REG & CY_LIB_FASTCLK_IMO_CR_RANGE_MASK)
 1001              		.loc 1 599 0
 1002 015a 104A     		ldr	r2, .L85
 1003 015c 0F4B     		ldr	r3, .L85
 1004 015e 1B78     		ldrb	r3, [r3]
 1005 0160 DBB2     		uxtb	r3, r3
 1006 0162 23F04703 		bic	r3, r3, #71
 1007 0166 DBB2     		uxtb	r3, r3
 1008 0168 43F04203 		orr	r3, r3, #66
 1009 016c DBB2     		uxtb	r3, r3
 1010 016e 1370     		strb	r3, [r2]
 600:.\Generated_Source\PSoC5/CyLib.c ****             CY_LIB_IMO_24MHZ_VALUE) | CY_LIB_IMO_USBCLK_ON_SET;
 601:.\Generated_Source\PSoC5/CyLib.c ****         break;
 1011              		.loc 1 601 0
 1012 0170 00E0     		b	.L79
 1013              	.L84:
 602:.\Generated_Source\PSoC5/CyLib.c **** 
 603:.\Generated_Source\PSoC5/CyLib.c ****     default:
 604:.\Generated_Source\PSoC5/CyLib.c ****         CYASSERT(0u != 0u);
 605:.\Generated_Source\PSoC5/CyLib.c ****         break;
 1014              		.loc 1 605 0
 1015 0172 00BF     		nop
 1016              	.L79:
 606:.\Generated_Source\PSoC5/CyLib.c ****     }
 607:.\Generated_Source\PSoC5/CyLib.c **** 
 608:.\Generated_Source\PSoC5/CyLib.c ****     /* Tu rn onIMO Doubler, if switching to CY_IMO_FREQ_USB */
 609:.\Generated_Source\PSoC5/CyLib.c ****     if (freq == CY_IMO_FREQ_USB)
 1017              		.loc 1 609 0
 1018 0174 FB79     		ldrb	r3, [r7, #7]	@ zero_extendqisi2
 1019 0176 082B     		cmp	r3, #8
 1020 0178 02D1     		bne	.L80
 610:.\Generated_Source\PSoC5/CyLib.c ****     {
 611:.\Generated_Source\PSoC5/CyLib.c ****         CyIMO_EnableDoubler();
 1021              		.loc 1 611 0
 1022 017a FFF7FEFF 		bl	CyIMO_EnableDoubler
 1023 017e 01E0     		b	.L81
 1024              	.L80:
 612:.\Generated_Source\PSoC5/CyLib.c ****     }
 613:.\Generated_Source\PSoC5/CyLib.c ****     else
 614:.\Generated_Source\PSoC5/CyLib.c ****     {
 615:.\Generated_Source\PSoC5/CyLib.c ****         CyIMO_DisableDoubler();
 1025              		.loc 1 615 0
 1026 0180 FFF7FEFF 		bl	CyIMO_DisableDoubler
 1027              	.L81:
 616:.\Generated_Source\PSoC5/CyLib.c ****     }
 617:.\Generated_Source\PSoC5/CyLib.c **** 
ARM GAS  C:\Users\faithc\AppData\Local\Temp\ccpkbr6m.s 			page 30


 618:.\Generated_Source\PSoC5/CyLib.c ****     if (nextFreq < currentFreq)
 1028              		.loc 1 618 0
 1029 0184 BA7B     		ldrb	r2, [r7, #14]	@ zero_extendqisi2
 1030 0186 FB7B     		ldrb	r3, [r7, #15]	@ zero_extendqisi2
 1031 0188 9A42     		cmp	r2, r3
 1032 018a 03D2     		bcs	.L55
 619:.\Generated_Source\PSoC5/CyLib.c ****     {
 620:.\Generated_Source\PSoC5/CyLib.c ****         /* Set the trim after setting frequency */
 621:.\Generated_Source\PSoC5/CyLib.c ****         CyIMO_SetTrimValue(freq);
 1033              		.loc 1 621 0
 1034 018c FB79     		ldrb	r3, [r7, #7]	@ zero_extendqisi2
 1035 018e 1846     		mov	r0, r3
 1036 0190 FFF7FEFF 		bl	CyIMO_SetTrimValue
 1037              	.L55:
 622:.\Generated_Source\PSoC5/CyLib.c ****     }
 623:.\Generated_Source\PSoC5/CyLib.c **** }
 1038              		.loc 1 623 0
 1039 0194 1037     		adds	r7, r7, #16
 1040              		.cfi_def_cfa_offset 8
 1041 0196 BD46     		mov	sp, r7
 1042              		.cfi_def_cfa_register 13
 1043              		@ sp needed
 1044 0198 80BD     		pop	{r7, pc}
 1045              	.L86:
 1046 019a 00BF     		.align	2
 1047              	.L85:
 1048 019c 00420040 		.word	1073758720
 1049              		.cfi_endproc
 1050              	.LFE8:
 1051              		.size	CyIMO_SetFreq, .-CyIMO_SetFreq
 1052              		.section	.text.CyIMO_SetSource,"ax",%progbits
 1053              		.align	2
 1054              		.global	CyIMO_SetSource
 1055              		.thumb
 1056              		.thumb_func
 1057              		.type	CyIMO_SetSource, %function
 1058              	CyIMO_SetSource:
 1059              	.LFB9:
 624:.\Generated_Source\PSoC5/CyLib.c **** 
 625:.\Generated_Source\PSoC5/CyLib.c **** 
 626:.\Generated_Source\PSoC5/CyLib.c **** /*******************************************************************************
 627:.\Generated_Source\PSoC5/CyLib.c **** * Function Name: CyIMO_SetSource
 628:.\Generated_Source\PSoC5/CyLib.c **** ********************************************************************************
 629:.\Generated_Source\PSoC5/CyLib.c **** *
 630:.\Generated_Source\PSoC5/CyLib.c **** * Summary:
 631:.\Generated_Source\PSoC5/CyLib.c **** *  Sets the source of the clock output from the IMO block.
 632:.\Generated_Source\PSoC5/CyLib.c **** *
 633:.\Generated_Source\PSoC5/CyLib.c **** *  The output from the IMO is by default the IMO itself. Optionally the MHz
 634:.\Generated_Source\PSoC5/CyLib.c **** *  Crystal or DSI input can be the source of the IMO output instead.
 635:.\Generated_Source\PSoC5/CyLib.c **** *
 636:.\Generated_Source\PSoC5/CyLib.c **** * Parameters:
 637:.\Generated_Source\PSoC5/CyLib.c **** *   source: CY_IMO_SOURCE_DSI to set the DSI as source.
 638:.\Generated_Source\PSoC5/CyLib.c **** *           CY_IMO_SOURCE_XTAL to set the MHz as source.
 639:.\Generated_Source\PSoC5/CyLib.c **** *           CY_IMO_SOURCE_IMO to set the IMO itself.
 640:.\Generated_Source\PSoC5/CyLib.c **** *
 641:.\Generated_Source\PSoC5/CyLib.c **** * Return:
 642:.\Generated_Source\PSoC5/CyLib.c **** *  None
ARM GAS  C:\Users\faithc\AppData\Local\Temp\ccpkbr6m.s 			page 31


 643:.\Generated_Source\PSoC5/CyLib.c **** *
 644:.\Generated_Source\PSoC5/CyLib.c **** * Side Effects:
 645:.\Generated_Source\PSoC5/CyLib.c **** *  If this function execution resulted in the CPU clock frequency increasing,
 646:.\Generated_Source\PSoC5/CyLib.c **** *  then the number of clock cycles the cache will wait before it samples data
 647:.\Generated_Source\PSoC5/CyLib.c **** *  coming back from the Flash must be adjusted by calling
 648:.\Generated_Source\PSoC5/CyLib.c **** *  CyFlash_SetWaitCycles() with an appropriate parameter. It can be optionally
 649:.\Generated_Source\PSoC5/CyLib.c **** *  called if the CPU clock frequency is lowered in order to improve the CPU
 650:.\Generated_Source\PSoC5/CyLib.c **** *  performance. See CyFlash_SetWaitCycles() description for more information.
 651:.\Generated_Source\PSoC5/CyLib.c **** *
 652:.\Generated_Source\PSoC5/CyLib.c **** *******************************************************************************/
 653:.\Generated_Source\PSoC5/CyLib.c **** void CyIMO_SetSource(uint8 source) 
 654:.\Generated_Source\PSoC5/CyLib.c **** {
 1060              		.loc 1 654 0
 1061              		.cfi_startproc
 1062              		@ args = 0, pretend = 0, frame = 8
 1063              		@ frame_needed = 1, uses_anonymous_args = 0
 1064              		@ link register save eliminated.
 1065 0000 80B4     		push	{r7}
 1066              		.cfi_def_cfa_offset 4
 1067              		.cfi_offset 7, -4
 1068 0002 83B0     		sub	sp, sp, #12
 1069              		.cfi_def_cfa_offset 16
 1070 0004 00AF     		add	r7, sp, #0
 1071              		.cfi_def_cfa_register 7
 1072 0006 0346     		mov	r3, r0
 1073 0008 FB71     		strb	r3, [r7, #7]
 655:.\Generated_Source\PSoC5/CyLib.c ****     switch(source)
 1074              		.loc 1 655 0
 1075 000a FB79     		ldrb	r3, [r7, #7]	@ zero_extendqisi2
 1076 000c 012B     		cmp	r3, #1
 1077 000e 17D0     		beq	.L89
 1078 0010 022B     		cmp	r3, #2
 1079 0012 02D0     		beq	.L90
 1080 0014 002B     		cmp	r3, #0
 1081 0016 26D0     		beq	.L91
 656:.\Generated_Source\PSoC5/CyLib.c ****     {
 657:.\Generated_Source\PSoC5/CyLib.c ****     case CY_IMO_SOURCE_DSI:
 658:.\Generated_Source\PSoC5/CyLib.c ****         CY_LIB_CLKDIST_CR_REG     &= ((uint8)(~CY_LIB_CLKDIST_CR_IMO2X));
 659:.\Generated_Source\PSoC5/CyLib.c ****         CY_LIB_FASTCLK_IMO_CR_REG |= CY_LIB_FASTCLK_IMO_IMO;
 660:.\Generated_Source\PSoC5/CyLib.c ****         break;
 661:.\Generated_Source\PSoC5/CyLib.c **** 
 662:.\Generated_Source\PSoC5/CyLib.c ****     case CY_IMO_SOURCE_XTAL:
 663:.\Generated_Source\PSoC5/CyLib.c ****         CY_LIB_CLKDIST_CR_REG     |= CY_LIB_CLKDIST_CR_IMO2X;
 664:.\Generated_Source\PSoC5/CyLib.c ****         CY_LIB_FASTCLK_IMO_CR_REG |= CY_LIB_FASTCLK_IMO_IMO;
 665:.\Generated_Source\PSoC5/CyLib.c ****         break;
 666:.\Generated_Source\PSoC5/CyLib.c **** 
 667:.\Generated_Source\PSoC5/CyLib.c ****     case CY_IMO_SOURCE_IMO:
 668:.\Generated_Source\PSoC5/CyLib.c ****         CY_LIB_FASTCLK_IMO_CR_REG &= ((uint8)(~CY_LIB_FASTCLK_IMO_IMO));
 669:.\Generated_Source\PSoC5/CyLib.c ****         break;
 670:.\Generated_Source\PSoC5/CyLib.c **** 
 671:.\Generated_Source\PSoC5/CyLib.c ****     default:
 672:.\Generated_Source\PSoC5/CyLib.c ****         /* Incorrect source value */
 673:.\Generated_Source\PSoC5/CyLib.c ****         CYASSERT(0u != 0u);
 674:.\Generated_Source\PSoC5/CyLib.c ****         break;
 1082              		.loc 1 674 0
 1083 0018 2EE0     		b	.L87
 1084              	.L90:
ARM GAS  C:\Users\faithc\AppData\Local\Temp\ccpkbr6m.s 			page 32


 658:.\Generated_Source\PSoC5/CyLib.c ****         CY_LIB_FASTCLK_IMO_CR_REG |= CY_LIB_FASTCLK_IMO_IMO;
 1085              		.loc 1 658 0
 1086 001a 4FF04022 		mov	r2, #1073758208
 1087 001e 4FF04023 		mov	r3, #1073758208
 1088 0022 1B78     		ldrb	r3, [r3]
 1089 0024 DBB2     		uxtb	r3, r3
 1090 0026 23F04003 		bic	r3, r3, #64
 1091 002a DBB2     		uxtb	r3, r3
 1092 002c 1370     		strb	r3, [r2]
 659:.\Generated_Source\PSoC5/CyLib.c ****         break;
 1093              		.loc 1 659 0
 1094 002e 154A     		ldr	r2, .L93
 1095 0030 144B     		ldr	r3, .L93
 1096 0032 1B78     		ldrb	r3, [r3]
 1097 0034 DBB2     		uxtb	r3, r3
 1098 0036 43F02003 		orr	r3, r3, #32
 1099 003a DBB2     		uxtb	r3, r3
 1100 003c 1370     		strb	r3, [r2]
 660:.\Generated_Source\PSoC5/CyLib.c **** 
 1101              		.loc 1 660 0
 1102 003e 1BE0     		b	.L87
 1103              	.L89:
 663:.\Generated_Source\PSoC5/CyLib.c ****         CY_LIB_FASTCLK_IMO_CR_REG |= CY_LIB_FASTCLK_IMO_IMO;
 1104              		.loc 1 663 0
 1105 0040 4FF04022 		mov	r2, #1073758208
 1106 0044 4FF04023 		mov	r3, #1073758208
 1107 0048 1B78     		ldrb	r3, [r3]
 1108 004a DBB2     		uxtb	r3, r3
 1109 004c 43F04003 		orr	r3, r3, #64
 1110 0050 DBB2     		uxtb	r3, r3
 1111 0052 1370     		strb	r3, [r2]
 664:.\Generated_Source\PSoC5/CyLib.c ****         break;
 1112              		.loc 1 664 0
 1113 0054 0B4A     		ldr	r2, .L93
 1114 0056 0B4B     		ldr	r3, .L93
 1115 0058 1B78     		ldrb	r3, [r3]
 1116 005a DBB2     		uxtb	r3, r3
 1117 005c 43F02003 		orr	r3, r3, #32
 1118 0060 DBB2     		uxtb	r3, r3
 1119 0062 1370     		strb	r3, [r2]
 665:.\Generated_Source\PSoC5/CyLib.c **** 
 1120              		.loc 1 665 0
 1121 0064 08E0     		b	.L87
 1122              	.L91:
 668:.\Generated_Source\PSoC5/CyLib.c ****         break;
 1123              		.loc 1 668 0
 1124 0066 074A     		ldr	r2, .L93
 1125 0068 064B     		ldr	r3, .L93
 1126 006a 1B78     		ldrb	r3, [r3]
 1127 006c DBB2     		uxtb	r3, r3
 1128 006e 23F02003 		bic	r3, r3, #32
 1129 0072 DBB2     		uxtb	r3, r3
 1130 0074 1370     		strb	r3, [r2]
 669:.\Generated_Source\PSoC5/CyLib.c **** 
 1131              		.loc 1 669 0
 1132 0076 00BF     		nop
 1133              	.L87:
ARM GAS  C:\Users\faithc\AppData\Local\Temp\ccpkbr6m.s 			page 33


 675:.\Generated_Source\PSoC5/CyLib.c ****     }
 676:.\Generated_Source\PSoC5/CyLib.c **** }
 1134              		.loc 1 676 0
 1135 0078 0C37     		adds	r7, r7, #12
 1136              		.cfi_def_cfa_offset 4
 1137 007a BD46     		mov	sp, r7
 1138              		.cfi_def_cfa_register 13
 1139              		@ sp needed
 1140 007c 5DF8047B 		ldr	r7, [sp], #4
 1141              		.cfi_restore 7
 1142              		.cfi_def_cfa_offset 0
 1143 0080 7047     		bx	lr
 1144              	.L94:
 1145 0082 00BF     		.align	2
 1146              	.L93:
 1147 0084 00420040 		.word	1073758720
 1148              		.cfi_endproc
 1149              	.LFE9:
 1150              		.size	CyIMO_SetSource, .-CyIMO_SetSource
 1151              		.section	.text.CyIMO_EnableDoubler,"ax",%progbits
 1152              		.align	2
 1153              		.global	CyIMO_EnableDoubler
 1154              		.thumb
 1155              		.thumb_func
 1156              		.type	CyIMO_EnableDoubler, %function
 1157              	CyIMO_EnableDoubler:
 1158              	.LFB10:
 677:.\Generated_Source\PSoC5/CyLib.c **** 
 678:.\Generated_Source\PSoC5/CyLib.c **** 
 679:.\Generated_Source\PSoC5/CyLib.c **** /*******************************************************************************
 680:.\Generated_Source\PSoC5/CyLib.c **** * Function Name: CyIMO_EnableDoubler
 681:.\Generated_Source\PSoC5/CyLib.c **** ********************************************************************************
 682:.\Generated_Source\PSoC5/CyLib.c **** *
 683:.\Generated_Source\PSoC5/CyLib.c **** * Summary:
 684:.\Generated_Source\PSoC5/CyLib.c **** *  Enables the IMO doubler.  The 2x frequency clock is used to convert a 24 MHz
 685:.\Generated_Source\PSoC5/CyLib.c **** *  input to a 48 MHz output for use by the USB block.
 686:.\Generated_Source\PSoC5/CyLib.c **** *
 687:.\Generated_Source\PSoC5/CyLib.c **** * Parameters:
 688:.\Generated_Source\PSoC5/CyLib.c **** *  None
 689:.\Generated_Source\PSoC5/CyLib.c **** *
 690:.\Generated_Source\PSoC5/CyLib.c **** * Return:
 691:.\Generated_Source\PSoC5/CyLib.c **** *  None
 692:.\Generated_Source\PSoC5/CyLib.c **** *
 693:.\Generated_Source\PSoC5/CyLib.c **** *******************************************************************************/
 694:.\Generated_Source\PSoC5/CyLib.c **** void CyIMO_EnableDoubler(void) 
 695:.\Generated_Source\PSoC5/CyLib.c **** {
 1159              		.loc 1 695 0
 1160              		.cfi_startproc
 1161              		@ args = 0, pretend = 0, frame = 0
 1162              		@ frame_needed = 1, uses_anonymous_args = 0
 1163              		@ link register save eliminated.
 1164 0000 80B4     		push	{r7}
 1165              		.cfi_def_cfa_offset 4
 1166              		.cfi_offset 7, -4
 1167 0002 00AF     		add	r7, sp, #0
 1168              		.cfi_def_cfa_register 7
 696:.\Generated_Source\PSoC5/CyLib.c ****     /* Set FASTCLK_IMO_CR_PTR regigster's 4th bit */
ARM GAS  C:\Users\faithc\AppData\Local\Temp\ccpkbr6m.s 			page 34


 697:.\Generated_Source\PSoC5/CyLib.c ****     CY_LIB_FASTCLK_IMO_CR_REG |= CY_LIB_FASTCLK_IMO_DOUBLER;
 1169              		.loc 1 697 0
 1170 0004 054A     		ldr	r2, .L96
 1171 0006 054B     		ldr	r3, .L96
 1172 0008 1B78     		ldrb	r3, [r3]
 1173 000a DBB2     		uxtb	r3, r3
 1174 000c 43F01003 		orr	r3, r3, #16
 1175 0010 DBB2     		uxtb	r3, r3
 1176 0012 1370     		strb	r3, [r2]
 698:.\Generated_Source\PSoC5/CyLib.c **** }
 1177              		.loc 1 698 0
 1178 0014 BD46     		mov	sp, r7
 1179              		.cfi_def_cfa_register 13
 1180              		@ sp needed
 1181 0016 5DF8047B 		ldr	r7, [sp], #4
 1182              		.cfi_restore 7
 1183              		.cfi_def_cfa_offset 0
 1184 001a 7047     		bx	lr
 1185              	.L97:
 1186              		.align	2
 1187              	.L96:
 1188 001c 00420040 		.word	1073758720
 1189              		.cfi_endproc
 1190              	.LFE10:
 1191              		.size	CyIMO_EnableDoubler, .-CyIMO_EnableDoubler
 1192              		.section	.text.CyIMO_DisableDoubler,"ax",%progbits
 1193              		.align	2
 1194              		.global	CyIMO_DisableDoubler
 1195              		.thumb
 1196              		.thumb_func
 1197              		.type	CyIMO_DisableDoubler, %function
 1198              	CyIMO_DisableDoubler:
 1199              	.LFB11:
 699:.\Generated_Source\PSoC5/CyLib.c **** 
 700:.\Generated_Source\PSoC5/CyLib.c **** 
 701:.\Generated_Source\PSoC5/CyLib.c **** /*******************************************************************************
 702:.\Generated_Source\PSoC5/CyLib.c **** * Function Name: CyIMO_DisableDoubler
 703:.\Generated_Source\PSoC5/CyLib.c **** ********************************************************************************
 704:.\Generated_Source\PSoC5/CyLib.c **** *
 705:.\Generated_Source\PSoC5/CyLib.c **** * Summary:
 706:.\Generated_Source\PSoC5/CyLib.c **** *   Disables the IMO doubler.
 707:.\Generated_Source\PSoC5/CyLib.c **** *
 708:.\Generated_Source\PSoC5/CyLib.c **** * Parameters:
 709:.\Generated_Source\PSoC5/CyLib.c **** *  None
 710:.\Generated_Source\PSoC5/CyLib.c **** *
 711:.\Generated_Source\PSoC5/CyLib.c **** * Return:
 712:.\Generated_Source\PSoC5/CyLib.c **** *  None
 713:.\Generated_Source\PSoC5/CyLib.c **** *
 714:.\Generated_Source\PSoC5/CyLib.c **** *******************************************************************************/
 715:.\Generated_Source\PSoC5/CyLib.c **** void CyIMO_DisableDoubler(void) 
 716:.\Generated_Source\PSoC5/CyLib.c **** {
 1200              		.loc 1 716 0
 1201              		.cfi_startproc
 1202              		@ args = 0, pretend = 0, frame = 0
 1203              		@ frame_needed = 1, uses_anonymous_args = 0
 1204              		@ link register save eliminated.
 1205 0000 80B4     		push	{r7}
ARM GAS  C:\Users\faithc\AppData\Local\Temp\ccpkbr6m.s 			page 35


 1206              		.cfi_def_cfa_offset 4
 1207              		.cfi_offset 7, -4
 1208 0002 00AF     		add	r7, sp, #0
 1209              		.cfi_def_cfa_register 7
 717:.\Generated_Source\PSoC5/CyLib.c ****     CY_LIB_FASTCLK_IMO_CR_REG &= ((uint8)(~CY_LIB_FASTCLK_IMO_DOUBLER));
 1210              		.loc 1 717 0
 1211 0004 054A     		ldr	r2, .L99
 1212 0006 054B     		ldr	r3, .L99
 1213 0008 1B78     		ldrb	r3, [r3]
 1214 000a DBB2     		uxtb	r3, r3
 1215 000c 23F01003 		bic	r3, r3, #16
 1216 0010 DBB2     		uxtb	r3, r3
 1217 0012 1370     		strb	r3, [r2]
 718:.\Generated_Source\PSoC5/CyLib.c **** }
 1218              		.loc 1 718 0
 1219 0014 BD46     		mov	sp, r7
 1220              		.cfi_def_cfa_register 13
 1221              		@ sp needed
 1222 0016 5DF8047B 		ldr	r7, [sp], #4
 1223              		.cfi_restore 7
 1224              		.cfi_def_cfa_offset 0
 1225 001a 7047     		bx	lr
 1226              	.L100:
 1227              		.align	2
 1228              	.L99:
 1229 001c 00420040 		.word	1073758720
 1230              		.cfi_endproc
 1231              	.LFE11:
 1232              		.size	CyIMO_DisableDoubler, .-CyIMO_DisableDoubler
 1233              		.section	.text.CyMasterClk_SetSource,"ax",%progbits
 1234              		.align	2
 1235              		.global	CyMasterClk_SetSource
 1236              		.thumb
 1237              		.thumb_func
 1238              		.type	CyMasterClk_SetSource, %function
 1239              	CyMasterClk_SetSource:
 1240              	.LFB12:
 719:.\Generated_Source\PSoC5/CyLib.c **** 
 720:.\Generated_Source\PSoC5/CyLib.c **** 
 721:.\Generated_Source\PSoC5/CyLib.c **** /*******************************************************************************
 722:.\Generated_Source\PSoC5/CyLib.c **** * Function Name: CyMasterClk_SetSource
 723:.\Generated_Source\PSoC5/CyLib.c **** ********************************************************************************
 724:.\Generated_Source\PSoC5/CyLib.c **** *
 725:.\Generated_Source\PSoC5/CyLib.c **** * Summary:
 726:.\Generated_Source\PSoC5/CyLib.c **** *  Sets the source of the master clock.
 727:.\Generated_Source\PSoC5/CyLib.c **** *
 728:.\Generated_Source\PSoC5/CyLib.c **** * Parameters:
 729:.\Generated_Source\PSoC5/CyLib.c **** *   source: One of the four available Master clock sources.
 730:.\Generated_Source\PSoC5/CyLib.c **** *     CY_MASTER_SOURCE_IMO
 731:.\Generated_Source\PSoC5/CyLib.c **** *     CY_MASTER_SOURCE_PLL
 732:.\Generated_Source\PSoC5/CyLib.c **** *     CY_MASTER_SOURCE_XTAL
 733:.\Generated_Source\PSoC5/CyLib.c **** *     CY_MASTER_SOURCE_DSI
 734:.\Generated_Source\PSoC5/CyLib.c **** *
 735:.\Generated_Source\PSoC5/CyLib.c **** * Return:
 736:.\Generated_Source\PSoC5/CyLib.c **** *  None
 737:.\Generated_Source\PSoC5/CyLib.c **** *
 738:.\Generated_Source\PSoC5/CyLib.c **** * Side Effects:
ARM GAS  C:\Users\faithc\AppData\Local\Temp\ccpkbr6m.s 			page 36


 739:.\Generated_Source\PSoC5/CyLib.c **** *  The current source and the new source must both be running and stable before
 740:.\Generated_Source\PSoC5/CyLib.c **** *  calling this function.
 741:.\Generated_Source\PSoC5/CyLib.c **** *
 742:.\Generated_Source\PSoC5/CyLib.c **** *  If this function execution resulted in the CPU clock frequency increasing,
 743:.\Generated_Source\PSoC5/CyLib.c **** *  then the number of clock cycles the cache will wait before it samples data
 744:.\Generated_Source\PSoC5/CyLib.c **** *  coming back from the Flash must be adjusted by calling
 745:.\Generated_Source\PSoC5/CyLib.c **** *  CyFlash_SetWaitCycles() with an appropriate parameter. It can be optionally
 746:.\Generated_Source\PSoC5/CyLib.c **** *  called if the CPU clock frequency is lowered in order to improve the CPU
 747:.\Generated_Source\PSoC5/CyLib.c **** *  performance. See CyFlash_SetWaitCycles() description for more information.
 748:.\Generated_Source\PSoC5/CyLib.c **** *
 749:.\Generated_Source\PSoC5/CyLib.c **** *******************************************************************************/
 750:.\Generated_Source\PSoC5/CyLib.c **** void CyMasterClk_SetSource(uint8 source) 
 751:.\Generated_Source\PSoC5/CyLib.c **** {
 1241              		.loc 1 751 0
 1242              		.cfi_startproc
 1243              		@ args = 0, pretend = 0, frame = 8
 1244              		@ frame_needed = 1, uses_anonymous_args = 0
 1245              		@ link register save eliminated.
 1246 0000 80B4     		push	{r7}
 1247              		.cfi_def_cfa_offset 4
 1248              		.cfi_offset 7, -4
 1249 0002 83B0     		sub	sp, sp, #12
 1250              		.cfi_def_cfa_offset 16
 1251 0004 00AF     		add	r7, sp, #0
 1252              		.cfi_def_cfa_register 7
 1253 0006 0346     		mov	r3, r0
 1254 0008 FB71     		strb	r3, [r7, #7]
 752:.\Generated_Source\PSoC5/CyLib.c ****     CY_LIB_CLKDIST_MSTR1_REG = (CY_LIB_CLKDIST_MSTR1_REG & MASTER_CLK_SRC_CLEAR) |
 1255              		.loc 1 752 0
 1256 000a 0949     		ldr	r1, .L102
 1257 000c 084B     		ldr	r3, .L102
 1258 000e 1B78     		ldrb	r3, [r3]
 1259 0010 DBB2     		uxtb	r3, r3
 1260 0012 23F00303 		bic	r3, r3, #3
 1261 0016 DAB2     		uxtb	r2, r3
 1262 0018 FB79     		ldrb	r3, [r7, #7]
 1263 001a 03F00303 		and	r3, r3, #3
 1264 001e DBB2     		uxtb	r3, r3
 1265 0020 1343     		orrs	r3, r3, r2
 1266 0022 DBB2     		uxtb	r3, r3
 1267 0024 0B70     		strb	r3, [r1]
 753:.\Generated_Source\PSoC5/CyLib.c ****                                 (source & ((uint8)(~MASTER_CLK_SRC_CLEAR)));
 754:.\Generated_Source\PSoC5/CyLib.c **** }
 1268              		.loc 1 754 0
 1269 0026 0C37     		adds	r7, r7, #12
 1270              		.cfi_def_cfa_offset 4
 1271 0028 BD46     		mov	sp, r7
 1272              		.cfi_def_cfa_register 13
 1273              		@ sp needed
 1274 002a 5DF8047B 		ldr	r7, [sp], #4
 1275              		.cfi_restore 7
 1276              		.cfi_def_cfa_offset 0
 1277 002e 7047     		bx	lr
 1278              	.L103:
 1279              		.align	2
 1280              	.L102:
 1281 0030 05400040 		.word	1073758213
ARM GAS  C:\Users\faithc\AppData\Local\Temp\ccpkbr6m.s 			page 37


 1282              		.cfi_endproc
 1283              	.LFE12:
 1284              		.size	CyMasterClk_SetSource, .-CyMasterClk_SetSource
 1285              		.section	.text.CyMasterClk_SetDivider,"ax",%progbits
 1286              		.align	2
 1287              		.global	CyMasterClk_SetDivider
 1288              		.thumb
 1289              		.thumb_func
 1290              		.type	CyMasterClk_SetDivider, %function
 1291              	CyMasterClk_SetDivider:
 1292              	.LFB13:
 755:.\Generated_Source\PSoC5/CyLib.c **** 
 756:.\Generated_Source\PSoC5/CyLib.c **** 
 757:.\Generated_Source\PSoC5/CyLib.c **** /*******************************************************************************
 758:.\Generated_Source\PSoC5/CyLib.c **** * Function Name: CyMasterClk_SetDivider
 759:.\Generated_Source\PSoC5/CyLib.c **** ********************************************************************************
 760:.\Generated_Source\PSoC5/CyLib.c **** *
 761:.\Generated_Source\PSoC5/CyLib.c **** * Summary:
 762:.\Generated_Source\PSoC5/CyLib.c **** *  Sets the divider value used to generate Master Clock.
 763:.\Generated_Source\PSoC5/CyLib.c **** *
 764:.\Generated_Source\PSoC5/CyLib.c **** * Parameters:
 765:.\Generated_Source\PSoC5/CyLib.c **** *  uint8 divider:
 766:.\Generated_Source\PSoC5/CyLib.c **** *   The valid range is [0-255]. The clock will be divided by this value + 1.
 767:.\Generated_Source\PSoC5/CyLib.c **** *   For example to divide this parameter by two should be set to 1.
 768:.\Generated_Source\PSoC5/CyLib.c **** *
 769:.\Generated_Source\PSoC5/CyLib.c **** * Return:
 770:.\Generated_Source\PSoC5/CyLib.c **** *  None
 771:.\Generated_Source\PSoC5/CyLib.c **** *
 772:.\Generated_Source\PSoC5/CyLib.c **** * Side Effects:
 773:.\Generated_Source\PSoC5/CyLib.c **** *  If this function execution resulted in the CPU clock frequency increasing,
 774:.\Generated_Source\PSoC5/CyLib.c **** *  then the number of clock cycles the cache will wait before it samples data
 775:.\Generated_Source\PSoC5/CyLib.c **** *  coming back from the Flash must be adjusted by calling
 776:.\Generated_Source\PSoC5/CyLib.c **** *  CyFlash_SetWaitCycles() with an appropriate parameter. It can be optionally
 777:.\Generated_Source\PSoC5/CyLib.c **** *  called if the CPU clock frequency is lowered in order to improve the CPU
 778:.\Generated_Source\PSoC5/CyLib.c **** *  performance. See CyFlash_SetWaitCycles() description for more information.
 779:.\Generated_Source\PSoC5/CyLib.c **** *
 780:.\Generated_Source\PSoC5/CyLib.c **** *  When changing the Master or Bus clock divider value from div-by-n to div-by-1
 781:.\Generated_Source\PSoC5/CyLib.c **** *  the first clock cycle output after the div-by-1 can be up to 4 ns shorter
 782:.\Generated_Source\PSoC5/CyLib.c **** *  than the final/expected div-by-1 period.
 783:.\Generated_Source\PSoC5/CyLib.c **** *
 784:.\Generated_Source\PSoC5/CyLib.c **** *******************************************************************************/
 785:.\Generated_Source\PSoC5/CyLib.c **** void CyMasterClk_SetDivider(uint8 divider) 
 786:.\Generated_Source\PSoC5/CyLib.c **** {
 1293              		.loc 1 786 0
 1294              		.cfi_startproc
 1295              		@ args = 0, pretend = 0, frame = 8
 1296              		@ frame_needed = 1, uses_anonymous_args = 0
 1297              		@ link register save eliminated.
 1298 0000 80B4     		push	{r7}
 1299              		.cfi_def_cfa_offset 4
 1300              		.cfi_offset 7, -4
 1301 0002 83B0     		sub	sp, sp, #12
 1302              		.cfi_def_cfa_offset 16
 1303 0004 00AF     		add	r7, sp, #0
 1304              		.cfi_def_cfa_register 7
 1305 0006 0346     		mov	r3, r0
 1306 0008 FB71     		strb	r3, [r7, #7]
ARM GAS  C:\Users\faithc\AppData\Local\Temp\ccpkbr6m.s 			page 38


 787:.\Generated_Source\PSoC5/CyLib.c ****     CY_LIB_CLKDIST_MSTR0_REG = divider;
 1307              		.loc 1 787 0
 1308 000a 044A     		ldr	r2, .L105
 1309 000c FB79     		ldrb	r3, [r7, #7]
 1310 000e 1370     		strb	r3, [r2]
 788:.\Generated_Source\PSoC5/CyLib.c **** }
 1311              		.loc 1 788 0
 1312 0010 0C37     		adds	r7, r7, #12
 1313              		.cfi_def_cfa_offset 4
 1314 0012 BD46     		mov	sp, r7
 1315              		.cfi_def_cfa_register 13
 1316              		@ sp needed
 1317 0014 5DF8047B 		ldr	r7, [sp], #4
 1318              		.cfi_restore 7
 1319              		.cfi_def_cfa_offset 0
 1320 0018 7047     		bx	lr
 1321              	.L106:
 1322 001a 00BF     		.align	2
 1323              	.L105:
 1324 001c 04400040 		.word	1073758212
 1325              		.cfi_endproc
 1326              	.LFE13:
 1327              		.size	CyMasterClk_SetDivider, .-CyMasterClk_SetDivider
 1328              		.section	.text.CyBusClk_Internal_SetDivider,"ax",%progbits
 1329              		.align	2
 1330              		.thumb
 1331              		.thumb_func
 1332              		.type	CyBusClk_Internal_SetDivider, %function
 1333              	CyBusClk_Internal_SetDivider:
 1334              	.LFB14:
 789:.\Generated_Source\PSoC5/CyLib.c **** 
 790:.\Generated_Source\PSoC5/CyLib.c **** 
 791:.\Generated_Source\PSoC5/CyLib.c **** /*******************************************************************************
 792:.\Generated_Source\PSoC5/CyLib.c **** * Function Name: CyBusClk_Internal_SetDivider
 793:.\Generated_Source\PSoC5/CyLib.c **** ********************************************************************************
 794:.\Generated_Source\PSoC5/CyLib.c **** *
 795:.\Generated_Source\PSoC5/CyLib.c **** * Summary:
 796:.\Generated_Source\PSoC5/CyLib.c **** *  The function used by CyBusClk_SetDivider(). For internal use only.
 797:.\Generated_Source\PSoC5/CyLib.c **** *
 798:.\Generated_Source\PSoC5/CyLib.c **** * Parameters:
 799:.\Generated_Source\PSoC5/CyLib.c **** *   divider: Valid range [0-65535].
 800:.\Generated_Source\PSoC5/CyLib.c **** *   The clock will be divided by this value + 1.
 801:.\Generated_Source\PSoC5/CyLib.c **** *   For example, to divide this parameter by two should be set to 1.
 802:.\Generated_Source\PSoC5/CyLib.c **** *
 803:.\Generated_Source\PSoC5/CyLib.c **** * Return:
 804:.\Generated_Source\PSoC5/CyLib.c **** *  None
 805:.\Generated_Source\PSoC5/CyLib.c **** *
 806:.\Generated_Source\PSoC5/CyLib.c **** *******************************************************************************/
 807:.\Generated_Source\PSoC5/CyLib.c **** static void CyBusClk_Internal_SetDivider(uint16 divider)
 808:.\Generated_Source\PSoC5/CyLib.c **** {
 1335              		.loc 1 808 0
 1336              		.cfi_startproc
 1337              		@ args = 0, pretend = 0, frame = 8
 1338              		@ frame_needed = 1, uses_anonymous_args = 0
 1339              		@ link register save eliminated.
 1340 0000 80B4     		push	{r7}
 1341              		.cfi_def_cfa_offset 4
ARM GAS  C:\Users\faithc\AppData\Local\Temp\ccpkbr6m.s 			page 39


 1342              		.cfi_offset 7, -4
 1343 0002 83B0     		sub	sp, sp, #12
 1344              		.cfi_def_cfa_offset 16
 1345 0004 00AF     		add	r7, sp, #0
 1346              		.cfi_def_cfa_register 7
 1347 0006 0346     		mov	r3, r0
 1348 0008 FB80     		strh	r3, [r7, #6]	@ movhi
 809:.\Generated_Source\PSoC5/CyLib.c ****     /* Mask bits to enable shadow loads  */
 810:.\Generated_Source\PSoC5/CyLib.c ****     CY_LIB_CLKDIST_AMASK_REG &= CY_LIB_CLKDIST_AMASK_MASK;
 1349              		.loc 1 810 0
 1350 000a 154A     		ldr	r2, .L108
 1351 000c 144B     		ldr	r3, .L108
 1352 000e 1B78     		ldrb	r3, [r3]
 1353 0010 DBB2     		uxtb	r3, r3
 1354 0012 23F00F03 		bic	r3, r3, #15
 1355 0016 DBB2     		uxtb	r3, r3
 1356 0018 1370     		strb	r3, [r2]
 811:.\Generated_Source\PSoC5/CyLib.c ****     CY_LIB_CLKDIST_DMASK_REG  = CY_LIB_CLKDIST_DMASK_MASK;
 1357              		.loc 1 811 0
 1358 001a 124B     		ldr	r3, .L108+4
 1359 001c 0022     		movs	r2, #0
 1360 001e 1A70     		strb	r2, [r3]
 812:.\Generated_Source\PSoC5/CyLib.c **** 
 813:.\Generated_Source\PSoC5/CyLib.c ****     /* Enable mask bits to enable shadow loads */
 814:.\Generated_Source\PSoC5/CyLib.c ****     CY_LIB_CLKDIST_BCFG2_REG |= CY_LIB_CLKDIST_BCFG2_MASK;
 1361              		.loc 1 814 0
 1362 0020 114A     		ldr	r2, .L108+8
 1363 0022 114B     		ldr	r3, .L108+8
 1364 0024 1B78     		ldrb	r3, [r3]
 1365 0026 DBB2     		uxtb	r3, r3
 1366 0028 63F07F03 		orn	r3, r3, #127
 1367 002c DBB2     		uxtb	r3, r3
 1368 002e 1370     		strb	r3, [r2]
 815:.\Generated_Source\PSoC5/CyLib.c **** 
 816:.\Generated_Source\PSoC5/CyLib.c ****     /* Update Shadow Divider Value Register with new divider */
 817:.\Generated_Source\PSoC5/CyLib.c ****     CY_LIB_CLKDIST_WRK_LSB_REG = LO8(divider);
 1369              		.loc 1 817 0
 1370 0030 0E4B     		ldr	r3, .L108+12
 1371 0032 FA88     		ldrh	r2, [r7, #6]	@ movhi
 1372 0034 D2B2     		uxtb	r2, r2
 1373 0036 1A70     		strb	r2, [r3]
 818:.\Generated_Source\PSoC5/CyLib.c ****     CY_LIB_CLKDIST_WRK_MSB_REG = HI8(divider);
 1374              		.loc 1 818 0
 1375 0038 0D4A     		ldr	r2, .L108+16
 1376 003a FB88     		ldrh	r3, [r7, #6]
 1377 003c 1B0A     		lsrs	r3, r3, #8
 1378 003e 9BB2     		uxth	r3, r3
 1379 0040 DBB2     		uxtb	r3, r3
 1380 0042 1370     		strb	r3, [r2]
 819:.\Generated_Source\PSoC5/CyLib.c **** 
 820:.\Generated_Source\PSoC5/CyLib.c **** 
 821:.\Generated_Source\PSoC5/CyLib.c ****     /***************************************************************************
 822:.\Generated_Source\PSoC5/CyLib.c ****     * Copy shadow value defined in Shadow Divider Value Register
 823:.\Generated_Source\PSoC5/CyLib.c ****     * (CY_LIB_CLKDIST_WRK_LSB_REG and CY_LIB_CLKDIST_WRK_MSB_REG) to all
 824:.\Generated_Source\PSoC5/CyLib.c ****     * dividers selected in Analog and Digital Clock Mask Registers
 825:.\Generated_Source\PSoC5/CyLib.c ****     * (CY_LIB_CLKDIST_AMASK_REG and CY_LIB_CLKDIST_DMASK_REG).
 826:.\Generated_Source\PSoC5/CyLib.c ****     ***************************************************************************/
ARM GAS  C:\Users\faithc\AppData\Local\Temp\ccpkbr6m.s 			page 40


 827:.\Generated_Source\PSoC5/CyLib.c ****     CY_LIB_CLKDIST_LD_REG |= CY_LIB_CLKDIST_LD_LOAD;
 1381              		.loc 1 827 0
 1382 0044 0B4A     		ldr	r2, .L108+20
 1383 0046 0B4B     		ldr	r3, .L108+20
 1384 0048 1B78     		ldrb	r3, [r3]
 1385 004a DBB2     		uxtb	r3, r3
 1386 004c 43F00103 		orr	r3, r3, #1
 1387 0050 DBB2     		uxtb	r3, r3
 1388 0052 1370     		strb	r3, [r2]
 828:.\Generated_Source\PSoC5/CyLib.c **** }
 1389              		.loc 1 828 0
 1390 0054 0C37     		adds	r7, r7, #12
 1391              		.cfi_def_cfa_offset 4
 1392 0056 BD46     		mov	sp, r7
 1393              		.cfi_def_cfa_register 13
 1394              		@ sp needed
 1395 0058 5DF8047B 		ldr	r7, [sp], #4
 1396              		.cfi_restore 7
 1397              		.cfi_def_cfa_offset 0
 1398 005c 7047     		bx	lr
 1399              	.L109:
 1400 005e 00BF     		.align	2
 1401              	.L108:
 1402 0060 14400040 		.word	1073758228
 1403 0064 10400040 		.word	1073758224
 1404 0068 08400040 		.word	1073758216
 1405 006c 02400040 		.word	1073758210
 1406 0070 03400040 		.word	1073758211
 1407 0074 01400040 		.word	1073758209
 1408              		.cfi_endproc
 1409              	.LFE14:
 1410              		.size	CyBusClk_Internal_SetDivider, .-CyBusClk_Internal_SetDivider
 1411              		.section	.text.CyBusClk_SetDivider,"ax",%progbits
 1412              		.align	2
 1413              		.global	CyBusClk_SetDivider
 1414              		.thumb
 1415              		.thumb_func
 1416              		.type	CyBusClk_SetDivider, %function
 1417              	CyBusClk_SetDivider:
 1418              	.LFB15:
 829:.\Generated_Source\PSoC5/CyLib.c **** 
 830:.\Generated_Source\PSoC5/CyLib.c **** 
 831:.\Generated_Source\PSoC5/CyLib.c **** /*******************************************************************************
 832:.\Generated_Source\PSoC5/CyLib.c **** * Function Name: CyBusClk_SetDivider
 833:.\Generated_Source\PSoC5/CyLib.c **** ********************************************************************************
 834:.\Generated_Source\PSoC5/CyLib.c **** *
 835:.\Generated_Source\PSoC5/CyLib.c **** * Summary:
 836:.\Generated_Source\PSoC5/CyLib.c **** *  Sets the divider value used to generate the Bus Clock.
 837:.\Generated_Source\PSoC5/CyLib.c **** *
 838:.\Generated_Source\PSoC5/CyLib.c **** * Parameters:
 839:.\Generated_Source\PSoC5/CyLib.c **** *  divider: Valid range [0-65535]. The clock will be divided by this value + 1.
 840:.\Generated_Source\PSoC5/CyLib.c **** *  For example, to divide this parameter by two should be set to 1.
 841:.\Generated_Source\PSoC5/CyLib.c **** *
 842:.\Generated_Source\PSoC5/CyLib.c **** * Return:
 843:.\Generated_Source\PSoC5/CyLib.c **** *  None
 844:.\Generated_Source\PSoC5/CyLib.c **** *
 845:.\Generated_Source\PSoC5/CyLib.c **** * Side Effects:
ARM GAS  C:\Users\faithc\AppData\Local\Temp\ccpkbr6m.s 			page 41


 846:.\Generated_Source\PSoC5/CyLib.c **** *  If this function execution resulted in the CPU clock frequency increasing,
 847:.\Generated_Source\PSoC5/CyLib.c **** *  then the number of clock cycles the cache will wait before it samples data
 848:.\Generated_Source\PSoC5/CyLib.c **** *  coming back from the Flash must be adjusted by calling
 849:.\Generated_Source\PSoC5/CyLib.c **** *  CyFlash_SetWaitCycles() with an appropriate parameter. It can be optionally
 850:.\Generated_Source\PSoC5/CyLib.c **** *  called if the CPU clock frequency is lowered in order to improve the CPU
 851:.\Generated_Source\PSoC5/CyLib.c **** *  performance. See CyFlash_SetWaitCycles() description for more information.
 852:.\Generated_Source\PSoC5/CyLib.c **** *
 853:.\Generated_Source\PSoC5/CyLib.c **** *******************************************************************************/
 854:.\Generated_Source\PSoC5/CyLib.c **** void CyBusClk_SetDivider(uint16 divider) 
 855:.\Generated_Source\PSoC5/CyLib.c **** {
 1419              		.loc 1 855 0
 1420              		.cfi_startproc
 1421              		@ args = 0, pretend = 0, frame = 16
 1422              		@ frame_needed = 1, uses_anonymous_args = 0
 1423 0000 80B5     		push	{r7, lr}
 1424              		.cfi_def_cfa_offset 8
 1425              		.cfi_offset 7, -8
 1426              		.cfi_offset 14, -4
 1427 0002 84B0     		sub	sp, sp, #16
 1428              		.cfi_def_cfa_offset 24
 1429 0004 00AF     		add	r7, sp, #0
 1430              		.cfi_def_cfa_register 7
 1431 0006 0346     		mov	r3, r0
 1432 0008 FB80     		strh	r3, [r7, #6]	@ movhi
 856:.\Generated_Source\PSoC5/CyLib.c ****     uint8  masterClkDiv;
 857:.\Generated_Source\PSoC5/CyLib.c ****     uint16 busClkDiv;
 858:.\Generated_Source\PSoC5/CyLib.c ****     uint8 interruptState;
 859:.\Generated_Source\PSoC5/CyLib.c **** 
 860:.\Generated_Source\PSoC5/CyLib.c ****     interruptState = CyEnterCriticalSection();
 1433              		.loc 1 860 0
 1434 000a FFF7FEFF 		bl	CyEnterCriticalSection
 1435 000e 0346     		mov	r3, r0
 1436 0010 FB73     		strb	r3, [r7, #15]
 861:.\Generated_Source\PSoC5/CyLib.c **** 
 862:.\Generated_Source\PSoC5/CyLib.c ****     /* Work around to set bus clock divider value */
 863:.\Generated_Source\PSoC5/CyLib.c ****     busClkDiv = (uint16)((uint16)CY_LIB_CLKDIST_BCFG_MSB_REG << 8u);
 1437              		.loc 1 863 0
 1438 0012 244B     		ldr	r3, .L117
 1439 0014 1B78     		ldrb	r3, [r3]
 1440 0016 DBB2     		uxtb	r3, r3
 1441 0018 9BB2     		uxth	r3, r3
 1442 001a 1B02     		lsls	r3, r3, #8
 1443 001c BB81     		strh	r3, [r7, #12]	@ movhi
 864:.\Generated_Source\PSoC5/CyLib.c ****     busClkDiv |= CY_LIB_CLKDIST_BCFG_LSB_REG;
 1444              		.loc 1 864 0
 1445 001e 224B     		ldr	r3, .L117+4
 1446 0020 1B78     		ldrb	r3, [r3]
 1447 0022 DBB2     		uxtb	r3, r3
 1448 0024 9AB2     		uxth	r2, r3
 1449 0026 BB89     		ldrh	r3, [r7, #12]	@ movhi
 1450 0028 1343     		orrs	r3, r3, r2
 1451 002a BB81     		strh	r3, [r7, #12]	@ movhi
 865:.\Generated_Source\PSoC5/CyLib.c **** 
 866:.\Generated_Source\PSoC5/CyLib.c ****     if ((divider == 0u) || (busClkDiv == 0u))
 1452              		.loc 1 866 0
 1453 002c FB88     		ldrh	r3, [r7, #6]
 1454 002e 002B     		cmp	r3, #0
ARM GAS  C:\Users\faithc\AppData\Local\Temp\ccpkbr6m.s 			page 42


 1455 0030 02D0     		beq	.L111
 1456              		.loc 1 866 0 is_stmt 0 discriminator 1
 1457 0032 BB89     		ldrh	r3, [r7, #12]
 1458 0034 002B     		cmp	r3, #0
 1459 0036 29D1     		bne	.L112
 1460              	.L111:
 867:.\Generated_Source\PSoC5/CyLib.c ****     {
 868:.\Generated_Source\PSoC5/CyLib.c ****         /* Save away master clock divider value */
 869:.\Generated_Source\PSoC5/CyLib.c ****         masterClkDiv = CY_LIB_CLKDIST_MSTR0_REG;
 1461              		.loc 1 869 0 is_stmt 1
 1462 0038 1C4B     		ldr	r3, .L117+8
 1463 003a 1B78     		ldrb	r3, [r3]
 1464 003c FB72     		strb	r3, [r7, #11]
 870:.\Generated_Source\PSoC5/CyLib.c **** 
 871:.\Generated_Source\PSoC5/CyLib.c ****         if (masterClkDiv < CY_LIB_CLKDIST_MASTERCLK_DIV)
 1465              		.loc 1 871 0
 1466 003e FB7A     		ldrb	r3, [r7, #11]	@ zero_extendqisi2
 1467 0040 062B     		cmp	r3, #6
 1468 0042 02D8     		bhi	.L113
 872:.\Generated_Source\PSoC5/CyLib.c ****         {
 873:.\Generated_Source\PSoC5/CyLib.c ****             /* Set master clock divider to 7 */
 874:.\Generated_Source\PSoC5/CyLib.c ****             CyMasterClk_SetDivider(CY_LIB_CLKDIST_MASTERCLK_DIV);
 1469              		.loc 1 874 0
 1470 0044 0720     		movs	r0, #7
 1471 0046 FFF7FEFF 		bl	CyMasterClk_SetDivider
 1472              	.L113:
 875:.\Generated_Source\PSoC5/CyLib.c ****         }
 876:.\Generated_Source\PSoC5/CyLib.c **** 
 877:.\Generated_Source\PSoC5/CyLib.c ****         if (divider == 0u)
 1473              		.loc 1 877 0
 1474 004a FB88     		ldrh	r3, [r7, #6]
 1475 004c 002B     		cmp	r3, #0
 1476 004e 0CD1     		bne	.L114
 878:.\Generated_Source\PSoC5/CyLib.c ****         {
 879:.\Generated_Source\PSoC5/CyLib.c ****             /* Set SSS bit and divider register desired value */
 880:.\Generated_Source\PSoC5/CyLib.c ****             CY_LIB_CLKDIST_BCFG2_REG |= CY_LIB_CLKDIST_BCFG2_SSS;
 1477              		.loc 1 880 0
 1478 0050 174A     		ldr	r2, .L117+12
 1479 0052 174B     		ldr	r3, .L117+12
 1480 0054 1B78     		ldrb	r3, [r3]
 1481 0056 DBB2     		uxtb	r3, r3
 1482 0058 43F04003 		orr	r3, r3, #64
 1483 005c DBB2     		uxtb	r3, r3
 1484 005e 1370     		strb	r3, [r2]
 881:.\Generated_Source\PSoC5/CyLib.c ****             CyBusClk_Internal_SetDivider(divider);
 1485              		.loc 1 881 0
 1486 0060 FB88     		ldrh	r3, [r7, #6]
 1487 0062 1846     		mov	r0, r3
 1488 0064 FFF7FEFF 		bl	CyBusClk_Internal_SetDivider
 1489 0068 0BE0     		b	.L115
 1490              	.L114:
 882:.\Generated_Source\PSoC5/CyLib.c ****         }
 883:.\Generated_Source\PSoC5/CyLib.c ****         else
 884:.\Generated_Source\PSoC5/CyLib.c ****         {
 885:.\Generated_Source\PSoC5/CyLib.c ****             CyBusClk_Internal_SetDivider(divider);
 1491              		.loc 1 885 0
 1492 006a FB88     		ldrh	r3, [r7, #6]
ARM GAS  C:\Users\faithc\AppData\Local\Temp\ccpkbr6m.s 			page 43


 1493 006c 1846     		mov	r0, r3
 1494 006e FFF7FEFF 		bl	CyBusClk_Internal_SetDivider
 886:.\Generated_Source\PSoC5/CyLib.c ****             CY_LIB_CLKDIST_BCFG2_REG &= ((uint8)(~CY_LIB_CLKDIST_BCFG2_SSS));
 1495              		.loc 1 886 0
 1496 0072 0F4A     		ldr	r2, .L117+12
 1497 0074 0E4B     		ldr	r3, .L117+12
 1498 0076 1B78     		ldrb	r3, [r3]
 1499 0078 DBB2     		uxtb	r3, r3
 1500 007a 23F04003 		bic	r3, r3, #64
 1501 007e DBB2     		uxtb	r3, r3
 1502 0080 1370     		strb	r3, [r2]
 1503              	.L115:
 887:.\Generated_Source\PSoC5/CyLib.c ****         }
 888:.\Generated_Source\PSoC5/CyLib.c **** 
 889:.\Generated_Source\PSoC5/CyLib.c ****         /* Restore master clock */
 890:.\Generated_Source\PSoC5/CyLib.c ****         CyMasterClk_SetDivider(masterClkDiv);
 1504              		.loc 1 890 0
 1505 0082 FB7A     		ldrb	r3, [r7, #11]	@ zero_extendqisi2
 1506 0084 1846     		mov	r0, r3
 1507 0086 FFF7FEFF 		bl	CyMasterClk_SetDivider
 1508 008a 03E0     		b	.L116
 1509              	.L112:
 891:.\Generated_Source\PSoC5/CyLib.c ****     }
 892:.\Generated_Source\PSoC5/CyLib.c ****     else
 893:.\Generated_Source\PSoC5/CyLib.c ****     {
 894:.\Generated_Source\PSoC5/CyLib.c ****         CyBusClk_Internal_SetDivider(divider);
 1510              		.loc 1 894 0
 1511 008c FB88     		ldrh	r3, [r7, #6]
 1512 008e 1846     		mov	r0, r3
 1513 0090 FFF7FEFF 		bl	CyBusClk_Internal_SetDivider
 1514              	.L116:
 895:.\Generated_Source\PSoC5/CyLib.c ****     }
 896:.\Generated_Source\PSoC5/CyLib.c **** 
 897:.\Generated_Source\PSoC5/CyLib.c ****     CyExitCriticalSection(interruptState);
 1515              		.loc 1 897 0
 1516 0094 FB7B     		ldrb	r3, [r7, #15]	@ zero_extendqisi2
 1517 0096 1846     		mov	r0, r3
 1518 0098 FFF7FEFF 		bl	CyExitCriticalSection
 898:.\Generated_Source\PSoC5/CyLib.c **** }
 1519              		.loc 1 898 0
 1520 009c 1037     		adds	r7, r7, #16
 1521              		.cfi_def_cfa_offset 8
 1522 009e BD46     		mov	sp, r7
 1523              		.cfi_def_cfa_register 13
 1524              		@ sp needed
 1525 00a0 80BD     		pop	{r7, pc}
 1526              	.L118:
 1527 00a2 00BF     		.align	2
 1528              	.L117:
 1529 00a4 07400040 		.word	1073758215
 1530 00a8 06400040 		.word	1073758214
 1531 00ac 04400040 		.word	1073758212
 1532 00b0 08400040 		.word	1073758216
 1533              		.cfi_endproc
 1534              	.LFE15:
 1535              		.size	CyBusClk_SetDivider, .-CyBusClk_SetDivider
 1536              		.section	.text.CyUsbClk_SetSource,"ax",%progbits
ARM GAS  C:\Users\faithc\AppData\Local\Temp\ccpkbr6m.s 			page 44


 1537              		.align	2
 1538              		.global	CyUsbClk_SetSource
 1539              		.thumb
 1540              		.thumb_func
 1541              		.type	CyUsbClk_SetSource, %function
 1542              	CyUsbClk_SetSource:
 1543              	.LFB16:
 899:.\Generated_Source\PSoC5/CyLib.c **** 
 900:.\Generated_Source\PSoC5/CyLib.c **** 
 901:.\Generated_Source\PSoC5/CyLib.c **** #if(CY_PSOC3)
 902:.\Generated_Source\PSoC5/CyLib.c **** 
 903:.\Generated_Source\PSoC5/CyLib.c ****     /*******************************************************************************
 904:.\Generated_Source\PSoC5/CyLib.c ****     * Function Name: CyCpuClk_SetDivider
 905:.\Generated_Source\PSoC5/CyLib.c ****     ********************************************************************************
 906:.\Generated_Source\PSoC5/CyLib.c ****     *
 907:.\Generated_Source\PSoC5/CyLib.c ****     * Summary:
 908:.\Generated_Source\PSoC5/CyLib.c ****     *  Sets the divider value used to generate the CPU Clock. Only applicable for
 909:.\Generated_Source\PSoC5/CyLib.c ****     *  PSoC 3 parts.
 910:.\Generated_Source\PSoC5/CyLib.c ****     *
 911:.\Generated_Source\PSoC5/CyLib.c ****     * Parameters:
 912:.\Generated_Source\PSoC5/CyLib.c ****     *  divider: Valid range [0-15]. The clock will be divided by this value + 1.
 913:.\Generated_Source\PSoC5/CyLib.c ****     *  For example, to divide this parameter by two should be set to 1.
 914:.\Generated_Source\PSoC5/CyLib.c ****     *
 915:.\Generated_Source\PSoC5/CyLib.c ****     * Return:
 916:.\Generated_Source\PSoC5/CyLib.c ****     *  None
 917:.\Generated_Source\PSoC5/CyLib.c ****     *
 918:.\Generated_Source\PSoC5/CyLib.c ****     * Side Effects:
 919:.\Generated_Source\PSoC5/CyLib.c ****     *  If this function execution resulted in the CPU clock frequency increasing,
 920:.\Generated_Source\PSoC5/CyLib.c ****     *  then the number of clock cycles the cache will wait before it samples data
 921:.\Generated_Source\PSoC5/CyLib.c ****     *  coming back from the Flash must be adjusted by calling
 922:.\Generated_Source\PSoC5/CyLib.c ****     *  CyFlash_SetWaitCycles() with an appropriate parameter. It can be optionally
 923:.\Generated_Source\PSoC5/CyLib.c ****     *  called if the CPU clock frequency is lowered in order to improve the CPU
 924:.\Generated_Source\PSoC5/CyLib.c ****     *  performance. See CyFlash_SetWaitCycles() description for more information.
 925:.\Generated_Source\PSoC5/CyLib.c ****     *
 926:.\Generated_Source\PSoC5/CyLib.c ****     *******************************************************************************/
 927:.\Generated_Source\PSoC5/CyLib.c ****     void CyCpuClk_SetDivider(uint8 divider) 
 928:.\Generated_Source\PSoC5/CyLib.c ****     {
 929:.\Generated_Source\PSoC5/CyLib.c ****             CY_LIB_CLKDIST_MSTR1_REG = (CY_LIB_CLKDIST_MSTR1_REG & CY_LIB_CLKDIST_MSTR1_DIV_MASK) |
 930:.\Generated_Source\PSoC5/CyLib.c ****                                 ((uint8)(divider << CY_LIB_CLKDIST_DIV_POSITION));
 931:.\Generated_Source\PSoC5/CyLib.c ****     }
 932:.\Generated_Source\PSoC5/CyLib.c **** 
 933:.\Generated_Source\PSoC5/CyLib.c **** #endif /* (CY_PSOC3) */
 934:.\Generated_Source\PSoC5/CyLib.c **** 
 935:.\Generated_Source\PSoC5/CyLib.c **** 
 936:.\Generated_Source\PSoC5/CyLib.c **** /*******************************************************************************
 937:.\Generated_Source\PSoC5/CyLib.c **** * Function Name: CyUsbClk_SetSource
 938:.\Generated_Source\PSoC5/CyLib.c **** ********************************************************************************
 939:.\Generated_Source\PSoC5/CyLib.c **** *
 940:.\Generated_Source\PSoC5/CyLib.c **** * Summary:
 941:.\Generated_Source\PSoC5/CyLib.c **** *  Sets the source of the USB clock.
 942:.\Generated_Source\PSoC5/CyLib.c **** *
 943:.\Generated_Source\PSoC5/CyLib.c **** * Parameters:
 944:.\Generated_Source\PSoC5/CyLib.c **** *  source: One of the four available USB clock sources
 945:.\Generated_Source\PSoC5/CyLib.c **** *    CY_LIB_USB_CLK_IMO2X     - IMO 2x
 946:.\Generated_Source\PSoC5/CyLib.c **** *    CY_LIB_USB_CLK_IMO       - IMO
 947:.\Generated_Source\PSoC5/CyLib.c **** *    CY_LIB_USB_CLK_PLL       - PLL
 948:.\Generated_Source\PSoC5/CyLib.c **** *    CY_LIB_USB_CLK_DSI       - DSI
ARM GAS  C:\Users\faithc\AppData\Local\Temp\ccpkbr6m.s 			page 45


 949:.\Generated_Source\PSoC5/CyLib.c **** *
 950:.\Generated_Source\PSoC5/CyLib.c **** * Return:
 951:.\Generated_Source\PSoC5/CyLib.c **** *  None
 952:.\Generated_Source\PSoC5/CyLib.c **** *
 953:.\Generated_Source\PSoC5/CyLib.c **** *******************************************************************************/
 954:.\Generated_Source\PSoC5/CyLib.c **** void CyUsbClk_SetSource(uint8 source) 
 955:.\Generated_Source\PSoC5/CyLib.c **** {
 1544              		.loc 1 955 0
 1545              		.cfi_startproc
 1546              		@ args = 0, pretend = 0, frame = 8
 1547              		@ frame_needed = 1, uses_anonymous_args = 0
 1548              		@ link register save eliminated.
 1549 0000 80B4     		push	{r7}
 1550              		.cfi_def_cfa_offset 4
 1551              		.cfi_offset 7, -4
 1552 0002 83B0     		sub	sp, sp, #12
 1553              		.cfi_def_cfa_offset 16
 1554 0004 00AF     		add	r7, sp, #0
 1555              		.cfi_def_cfa_register 7
 1556 0006 0346     		mov	r3, r0
 1557 0008 FB71     		strb	r3, [r7, #7]
 956:.\Generated_Source\PSoC5/CyLib.c ****     CY_LIB_CLKDIST_UCFG_REG = (CY_LIB_CLKDIST_UCFG_REG & ((uint8)(~CY_LIB_CLKDIST_UCFG_SRC_SEL_MASK
 1558              		.loc 1 956 0
 1559 000a 0949     		ldr	r1, .L120
 1560 000c 084B     		ldr	r3, .L120
 1561 000e 1B78     		ldrb	r3, [r3]
 1562 0010 DBB2     		uxtb	r3, r3
 1563 0012 23F00303 		bic	r3, r3, #3
 1564 0016 DAB2     		uxtb	r2, r3
 1565 0018 FB79     		ldrb	r3, [r7, #7]
 1566 001a 03F00303 		and	r3, r3, #3
 1567 001e DBB2     		uxtb	r3, r3
 1568 0020 1343     		orrs	r3, r3, r2
 1569 0022 DBB2     		uxtb	r3, r3
 1570 0024 0B70     		strb	r3, [r1]
 957:.\Generated_Source\PSoC5/CyLib.c ****                         (CY_LIB_CLKDIST_UCFG_SRC_SEL_MASK & source);
 958:.\Generated_Source\PSoC5/CyLib.c **** }
 1571              		.loc 1 958 0
 1572 0026 0C37     		adds	r7, r7, #12
 1573              		.cfi_def_cfa_offset 4
 1574 0028 BD46     		mov	sp, r7
 1575              		.cfi_def_cfa_register 13
 1576              		@ sp needed
 1577 002a 5DF8047B 		ldr	r7, [sp], #4
 1578              		.cfi_restore 7
 1579              		.cfi_def_cfa_offset 0
 1580 002e 7047     		bx	lr
 1581              	.L121:
 1582              		.align	2
 1583              	.L120:
 1584 0030 09400040 		.word	1073758217
 1585              		.cfi_endproc
 1586              	.LFE16:
 1587              		.size	CyUsbClk_SetSource, .-CyUsbClk_SetSource
 1588              		.section	.text.CyILO_Start1K,"ax",%progbits
 1589              		.align	2
 1590              		.global	CyILO_Start1K
ARM GAS  C:\Users\faithc\AppData\Local\Temp\ccpkbr6m.s 			page 46


 1591              		.thumb
 1592              		.thumb_func
 1593              		.type	CyILO_Start1K, %function
 1594              	CyILO_Start1K:
 1595              	.LFB17:
 959:.\Generated_Source\PSoC5/CyLib.c **** 
 960:.\Generated_Source\PSoC5/CyLib.c **** 
 961:.\Generated_Source\PSoC5/CyLib.c **** /*******************************************************************************
 962:.\Generated_Source\PSoC5/CyLib.c **** * Function Name: CyILO_Start1K
 963:.\Generated_Source\PSoC5/CyLib.c **** ********************************************************************************
 964:.\Generated_Source\PSoC5/CyLib.c **** *
 965:.\Generated_Source\PSoC5/CyLib.c **** * Summary:
 966:.\Generated_Source\PSoC5/CyLib.c **** *  Enables the ILO 1 KHz oscillator.
 967:.\Generated_Source\PSoC5/CyLib.c **** *
 968:.\Generated_Source\PSoC5/CyLib.c **** *  Note The ILO 1 KHz oscillator is always enabled by default, regardless of the
 969:.\Generated_Source\PSoC5/CyLib.c **** *  selection in the Clock Editor. Therefore, this API is only needed if the
 970:.\Generated_Source\PSoC5/CyLib.c **** *  oscillator was turned off manually.
 971:.\Generated_Source\PSoC5/CyLib.c **** *
 972:.\Generated_Source\PSoC5/CyLib.c **** * Parameters:
 973:.\Generated_Source\PSoC5/CyLib.c **** *  None
 974:.\Generated_Source\PSoC5/CyLib.c **** *
 975:.\Generated_Source\PSoC5/CyLib.c **** * Return:
 976:.\Generated_Source\PSoC5/CyLib.c **** *  None
 977:.\Generated_Source\PSoC5/CyLib.c **** *
 978:.\Generated_Source\PSoC5/CyLib.c **** *******************************************************************************/
 979:.\Generated_Source\PSoC5/CyLib.c **** void CyILO_Start1K(void) 
 980:.\Generated_Source\PSoC5/CyLib.c **** {
 1596              		.loc 1 980 0
 1597              		.cfi_startproc
 1598              		@ args = 0, pretend = 0, frame = 0
 1599              		@ frame_needed = 1, uses_anonymous_args = 0
 1600              		@ link register save eliminated.
 1601 0000 80B4     		push	{r7}
 1602              		.cfi_def_cfa_offset 4
 1603              		.cfi_offset 7, -4
 1604 0002 00AF     		add	r7, sp, #0
 1605              		.cfi_def_cfa_register 7
 981:.\Generated_Source\PSoC5/CyLib.c ****     /* Set bit 1 of ILO RS */
 982:.\Generated_Source\PSoC5/CyLib.c ****     CY_LIB_SLOWCLK_ILO_CR0_REG |= CY_LIB_SLOWCLK_ILO_CR0_EN_1KHZ;
 1606              		.loc 1 982 0
 1607 0004 054A     		ldr	r2, .L123
 1608 0006 054B     		ldr	r3, .L123
 1609 0008 1B78     		ldrb	r3, [r3]
 1610 000a DBB2     		uxtb	r3, r3
 1611 000c 43F00203 		orr	r3, r3, #2
 1612 0010 DBB2     		uxtb	r3, r3
 1613 0012 1370     		strb	r3, [r2]
 983:.\Generated_Source\PSoC5/CyLib.c **** }
 1614              		.loc 1 983 0
 1615 0014 BD46     		mov	sp, r7
 1616              		.cfi_def_cfa_register 13
 1617              		@ sp needed
 1618 0016 5DF8047B 		ldr	r7, [sp], #4
 1619              		.cfi_restore 7
 1620              		.cfi_def_cfa_offset 0
 1621 001a 7047     		bx	lr
 1622              	.L124:
ARM GAS  C:\Users\faithc\AppData\Local\Temp\ccpkbr6m.s 			page 47


 1623              		.align	2
 1624              	.L123:
 1625 001c 00430040 		.word	1073758976
 1626              		.cfi_endproc
 1627              	.LFE17:
 1628              		.size	CyILO_Start1K, .-CyILO_Start1K
 1629              		.section	.text.CyILO_Stop1K,"ax",%progbits
 1630              		.align	2
 1631              		.global	CyILO_Stop1K
 1632              		.thumb
 1633              		.thumb_func
 1634              		.type	CyILO_Stop1K, %function
 1635              	CyILO_Stop1K:
 1636              	.LFB18:
 984:.\Generated_Source\PSoC5/CyLib.c **** 
 985:.\Generated_Source\PSoC5/CyLib.c **** 
 986:.\Generated_Source\PSoC5/CyLib.c **** /*******************************************************************************
 987:.\Generated_Source\PSoC5/CyLib.c **** * Function Name: CyILO_Stop1K
 988:.\Generated_Source\PSoC5/CyLib.c **** ********************************************************************************
 989:.\Generated_Source\PSoC5/CyLib.c **** *
 990:.\Generated_Source\PSoC5/CyLib.c **** * Summary:
 991:.\Generated_Source\PSoC5/CyLib.c **** *  Disables the ILO 1 KHz oscillator.
 992:.\Generated_Source\PSoC5/CyLib.c **** *
 993:.\Generated_Source\PSoC5/CyLib.c **** *  Note The ILO 1 KHz oscillator must be enabled if the Sleep or Hibernate low
 994:.\Generated_Source\PSoC5/CyLib.c **** *  power mode APIs are expected to be used. For more information, refer to the
 995:.\Generated_Source\PSoC5/CyLib.c **** *  Power Management section of this document.
 996:.\Generated_Source\PSoC5/CyLib.c **** *
 997:.\Generated_Source\PSoC5/CyLib.c **** * Parameters:
 998:.\Generated_Source\PSoC5/CyLib.c **** *  None
 999:.\Generated_Source\PSoC5/CyLib.c **** *
1000:.\Generated_Source\PSoC5/CyLib.c **** * Return:
1001:.\Generated_Source\PSoC5/CyLib.c **** *  None
1002:.\Generated_Source\PSoC5/CyLib.c **** *
1003:.\Generated_Source\PSoC5/CyLib.c **** * Side Effects:
1004:.\Generated_Source\PSoC5/CyLib.c **** *  PSoC5: Stopping the ILO 1 kHz could break the active WDT functionality.
1005:.\Generated_Source\PSoC5/CyLib.c **** *
1006:.\Generated_Source\PSoC5/CyLib.c **** *******************************************************************************/
1007:.\Generated_Source\PSoC5/CyLib.c **** void CyILO_Stop1K(void) 
1008:.\Generated_Source\PSoC5/CyLib.c **** {
 1637              		.loc 1 1008 0
 1638              		.cfi_startproc
 1639              		@ args = 0, pretend = 0, frame = 0
 1640              		@ frame_needed = 1, uses_anonymous_args = 0
 1641              		@ link register save eliminated.
 1642 0000 80B4     		push	{r7}
 1643              		.cfi_def_cfa_offset 4
 1644              		.cfi_offset 7, -4
 1645 0002 00AF     		add	r7, sp, #0
 1646              		.cfi_def_cfa_register 7
1009:.\Generated_Source\PSoC5/CyLib.c ****     /* Clear bit 1 of ILO RS */
1010:.\Generated_Source\PSoC5/CyLib.c ****     CY_LIB_SLOWCLK_ILO_CR0_REG &= ((uint8)(~CY_LIB_SLOWCLK_ILO_CR0_EN_1KHZ));
 1647              		.loc 1 1010 0
 1648 0004 054A     		ldr	r2, .L126
 1649 0006 054B     		ldr	r3, .L126
 1650 0008 1B78     		ldrb	r3, [r3]
 1651 000a DBB2     		uxtb	r3, r3
 1652 000c 23F00203 		bic	r3, r3, #2
ARM GAS  C:\Users\faithc\AppData\Local\Temp\ccpkbr6m.s 			page 48


 1653 0010 DBB2     		uxtb	r3, r3
 1654 0012 1370     		strb	r3, [r2]
1011:.\Generated_Source\PSoC5/CyLib.c **** }
 1655              		.loc 1 1011 0
 1656 0014 BD46     		mov	sp, r7
 1657              		.cfi_def_cfa_register 13
 1658              		@ sp needed
 1659 0016 5DF8047B 		ldr	r7, [sp], #4
 1660              		.cfi_restore 7
 1661              		.cfi_def_cfa_offset 0
 1662 001a 7047     		bx	lr
 1663              	.L127:
 1664              		.align	2
 1665              	.L126:
 1666 001c 00430040 		.word	1073758976
 1667              		.cfi_endproc
 1668              	.LFE18:
 1669              		.size	CyILO_Stop1K, .-CyILO_Stop1K
 1670              		.section	.text.CyILO_Start100K,"ax",%progbits
 1671              		.align	2
 1672              		.global	CyILO_Start100K
 1673              		.thumb
 1674              		.thumb_func
 1675              		.type	CyILO_Start100K, %function
 1676              	CyILO_Start100K:
 1677              	.LFB19:
1012:.\Generated_Source\PSoC5/CyLib.c **** 
1013:.\Generated_Source\PSoC5/CyLib.c **** 
1014:.\Generated_Source\PSoC5/CyLib.c **** /*******************************************************************************
1015:.\Generated_Source\PSoC5/CyLib.c **** * Function Name: CyILO_Start100K
1016:.\Generated_Source\PSoC5/CyLib.c **** ********************************************************************************
1017:.\Generated_Source\PSoC5/CyLib.c **** *
1018:.\Generated_Source\PSoC5/CyLib.c **** * Summary:
1019:.\Generated_Source\PSoC5/CyLib.c **** *  Enables the ILO 100 KHz oscillator.
1020:.\Generated_Source\PSoC5/CyLib.c **** *
1021:.\Generated_Source\PSoC5/CyLib.c **** * Parameters:
1022:.\Generated_Source\PSoC5/CyLib.c **** *  None
1023:.\Generated_Source\PSoC5/CyLib.c **** *
1024:.\Generated_Source\PSoC5/CyLib.c **** * Return:
1025:.\Generated_Source\PSoC5/CyLib.c **** *  None
1026:.\Generated_Source\PSoC5/CyLib.c **** *
1027:.\Generated_Source\PSoC5/CyLib.c **** *******************************************************************************/
1028:.\Generated_Source\PSoC5/CyLib.c **** void CyILO_Start100K(void) 
1029:.\Generated_Source\PSoC5/CyLib.c **** {
 1678              		.loc 1 1029 0
 1679              		.cfi_startproc
 1680              		@ args = 0, pretend = 0, frame = 0
 1681              		@ frame_needed = 1, uses_anonymous_args = 0
 1682              		@ link register save eliminated.
 1683 0000 80B4     		push	{r7}
 1684              		.cfi_def_cfa_offset 4
 1685              		.cfi_offset 7, -4
 1686 0002 00AF     		add	r7, sp, #0
 1687              		.cfi_def_cfa_register 7
1030:.\Generated_Source\PSoC5/CyLib.c ****     CY_LIB_SLOWCLK_ILO_CR0_REG |= CY_LIB_SLOWCLK_ILO_CR0_EN_100KHZ;
 1688              		.loc 1 1030 0
 1689 0004 054A     		ldr	r2, .L129
ARM GAS  C:\Users\faithc\AppData\Local\Temp\ccpkbr6m.s 			page 49


 1690 0006 054B     		ldr	r3, .L129
 1691 0008 1B78     		ldrb	r3, [r3]
 1692 000a DBB2     		uxtb	r3, r3
 1693 000c 43F00403 		orr	r3, r3, #4
 1694 0010 DBB2     		uxtb	r3, r3
 1695 0012 1370     		strb	r3, [r2]
1031:.\Generated_Source\PSoC5/CyLib.c **** }
 1696              		.loc 1 1031 0
 1697 0014 BD46     		mov	sp, r7
 1698              		.cfi_def_cfa_register 13
 1699              		@ sp needed
 1700 0016 5DF8047B 		ldr	r7, [sp], #4
 1701              		.cfi_restore 7
 1702              		.cfi_def_cfa_offset 0
 1703 001a 7047     		bx	lr
 1704              	.L130:
 1705              		.align	2
 1706              	.L129:
 1707 001c 00430040 		.word	1073758976
 1708              		.cfi_endproc
 1709              	.LFE19:
 1710              		.size	CyILO_Start100K, .-CyILO_Start100K
 1711              		.section	.text.CyILO_Stop100K,"ax",%progbits
 1712              		.align	2
 1713              		.global	CyILO_Stop100K
 1714              		.thumb
 1715              		.thumb_func
 1716              		.type	CyILO_Stop100K, %function
 1717              	CyILO_Stop100K:
 1718              	.LFB20:
1032:.\Generated_Source\PSoC5/CyLib.c **** 
1033:.\Generated_Source\PSoC5/CyLib.c **** 
1034:.\Generated_Source\PSoC5/CyLib.c **** /*******************************************************************************
1035:.\Generated_Source\PSoC5/CyLib.c **** * Function Name: CyILO_Stop100K
1036:.\Generated_Source\PSoC5/CyLib.c **** ********************************************************************************
1037:.\Generated_Source\PSoC5/CyLib.c **** *
1038:.\Generated_Source\PSoC5/CyLib.c **** * Summary:
1039:.\Generated_Source\PSoC5/CyLib.c **** *  Disables the ILO 100 KHz oscillator.
1040:.\Generated_Source\PSoC5/CyLib.c **** *
1041:.\Generated_Source\PSoC5/CyLib.c **** * Parameters:
1042:.\Generated_Source\PSoC5/CyLib.c **** *  None
1043:.\Generated_Source\PSoC5/CyLib.c **** *
1044:.\Generated_Source\PSoC5/CyLib.c **** * Return:
1045:.\Generated_Source\PSoC5/CyLib.c **** *  None
1046:.\Generated_Source\PSoC5/CyLib.c **** *
1047:.\Generated_Source\PSoC5/CyLib.c **** *******************************************************************************/
1048:.\Generated_Source\PSoC5/CyLib.c **** void CyILO_Stop100K(void) 
1049:.\Generated_Source\PSoC5/CyLib.c **** {
 1719              		.loc 1 1049 0
 1720              		.cfi_startproc
 1721              		@ args = 0, pretend = 0, frame = 0
 1722              		@ frame_needed = 1, uses_anonymous_args = 0
 1723              		@ link register save eliminated.
 1724 0000 80B4     		push	{r7}
 1725              		.cfi_def_cfa_offset 4
 1726              		.cfi_offset 7, -4
 1727 0002 00AF     		add	r7, sp, #0
ARM GAS  C:\Users\faithc\AppData\Local\Temp\ccpkbr6m.s 			page 50


 1728              		.cfi_def_cfa_register 7
1050:.\Generated_Source\PSoC5/CyLib.c ****     CY_LIB_SLOWCLK_ILO_CR0_REG &= ((uint8)(~CY_LIB_SLOWCLK_ILO_CR0_EN_100KHZ));
 1729              		.loc 1 1050 0
 1730 0004 054A     		ldr	r2, .L132
 1731 0006 054B     		ldr	r3, .L132
 1732 0008 1B78     		ldrb	r3, [r3]
 1733 000a DBB2     		uxtb	r3, r3
 1734 000c 23F00403 		bic	r3, r3, #4
 1735 0010 DBB2     		uxtb	r3, r3
 1736 0012 1370     		strb	r3, [r2]
1051:.\Generated_Source\PSoC5/CyLib.c **** }
 1737              		.loc 1 1051 0
 1738 0014 BD46     		mov	sp, r7
 1739              		.cfi_def_cfa_register 13
 1740              		@ sp needed
 1741 0016 5DF8047B 		ldr	r7, [sp], #4
 1742              		.cfi_restore 7
 1743              		.cfi_def_cfa_offset 0
 1744 001a 7047     		bx	lr
 1745              	.L133:
 1746              		.align	2
 1747              	.L132:
 1748 001c 00430040 		.word	1073758976
 1749              		.cfi_endproc
 1750              	.LFE20:
 1751              		.size	CyILO_Stop100K, .-CyILO_Stop100K
 1752              		.section	.text.CyILO_Enable33K,"ax",%progbits
 1753              		.align	2
 1754              		.global	CyILO_Enable33K
 1755              		.thumb
 1756              		.thumb_func
 1757              		.type	CyILO_Enable33K, %function
 1758              	CyILO_Enable33K:
 1759              	.LFB21:
1052:.\Generated_Source\PSoC5/CyLib.c **** 
1053:.\Generated_Source\PSoC5/CyLib.c **** 
1054:.\Generated_Source\PSoC5/CyLib.c **** /*******************************************************************************
1055:.\Generated_Source\PSoC5/CyLib.c **** * Function Name: CyILO_Enable33K
1056:.\Generated_Source\PSoC5/CyLib.c **** ********************************************************************************
1057:.\Generated_Source\PSoC5/CyLib.c **** *
1058:.\Generated_Source\PSoC5/CyLib.c **** * Summary:
1059:.\Generated_Source\PSoC5/CyLib.c **** *  Enables the ILO 33 KHz divider.
1060:.\Generated_Source\PSoC5/CyLib.c **** *
1061:.\Generated_Source\PSoC5/CyLib.c **** *  Note that the 33 KHz clock is generated from the 100 KHz oscillator,
1062:.\Generated_Source\PSoC5/CyLib.c **** *  so it must also be running in order to generate the 33 KHz output.
1063:.\Generated_Source\PSoC5/CyLib.c **** *
1064:.\Generated_Source\PSoC5/CyLib.c **** * Parameters:
1065:.\Generated_Source\PSoC5/CyLib.c **** *  None
1066:.\Generated_Source\PSoC5/CyLib.c **** *
1067:.\Generated_Source\PSoC5/CyLib.c **** * Return:
1068:.\Generated_Source\PSoC5/CyLib.c **** *  None
1069:.\Generated_Source\PSoC5/CyLib.c **** *
1070:.\Generated_Source\PSoC5/CyLib.c **** *******************************************************************************/
1071:.\Generated_Source\PSoC5/CyLib.c **** void CyILO_Enable33K(void) 
1072:.\Generated_Source\PSoC5/CyLib.c **** {
 1760              		.loc 1 1072 0
 1761              		.cfi_startproc
ARM GAS  C:\Users\faithc\AppData\Local\Temp\ccpkbr6m.s 			page 51


 1762              		@ args = 0, pretend = 0, frame = 0
 1763              		@ frame_needed = 1, uses_anonymous_args = 0
 1764              		@ link register save eliminated.
 1765 0000 80B4     		push	{r7}
 1766              		.cfi_def_cfa_offset 4
 1767              		.cfi_offset 7, -4
 1768 0002 00AF     		add	r7, sp, #0
 1769              		.cfi_def_cfa_register 7
1073:.\Generated_Source\PSoC5/CyLib.c ****     /* Set bit 5 of ILO RS */
1074:.\Generated_Source\PSoC5/CyLib.c ****     CY_LIB_SLOWCLK_ILO_CR0_REG |= CY_LIB_SLOWCLK_ILO_CR0_EN_33KHZ;
 1770              		.loc 1 1074 0
 1771 0004 054A     		ldr	r2, .L135
 1772 0006 054B     		ldr	r3, .L135
 1773 0008 1B78     		ldrb	r3, [r3]
 1774 000a DBB2     		uxtb	r3, r3
 1775 000c 43F02003 		orr	r3, r3, #32
 1776 0010 DBB2     		uxtb	r3, r3
 1777 0012 1370     		strb	r3, [r2]
1075:.\Generated_Source\PSoC5/CyLib.c **** }
 1778              		.loc 1 1075 0
 1779 0014 BD46     		mov	sp, r7
 1780              		.cfi_def_cfa_register 13
 1781              		@ sp needed
 1782 0016 5DF8047B 		ldr	r7, [sp], #4
 1783              		.cfi_restore 7
 1784              		.cfi_def_cfa_offset 0
 1785 001a 7047     		bx	lr
 1786              	.L136:
 1787              		.align	2
 1788              	.L135:
 1789 001c 00430040 		.word	1073758976
 1790              		.cfi_endproc
 1791              	.LFE21:
 1792              		.size	CyILO_Enable33K, .-CyILO_Enable33K
 1793              		.section	.text.CyILO_Disable33K,"ax",%progbits
 1794              		.align	2
 1795              		.global	CyILO_Disable33K
 1796              		.thumb
 1797              		.thumb_func
 1798              		.type	CyILO_Disable33K, %function
 1799              	CyILO_Disable33K:
 1800              	.LFB22:
1076:.\Generated_Source\PSoC5/CyLib.c **** 
1077:.\Generated_Source\PSoC5/CyLib.c **** 
1078:.\Generated_Source\PSoC5/CyLib.c **** /*******************************************************************************
1079:.\Generated_Source\PSoC5/CyLib.c **** * Function Name: CyILO_Disable33K
1080:.\Generated_Source\PSoC5/CyLib.c **** ********************************************************************************
1081:.\Generated_Source\PSoC5/CyLib.c **** *
1082:.\Generated_Source\PSoC5/CyLib.c **** * Summary:
1083:.\Generated_Source\PSoC5/CyLib.c **** *  Disables the ILO 33 KHz divider.
1084:.\Generated_Source\PSoC5/CyLib.c **** *
1085:.\Generated_Source\PSoC5/CyLib.c **** *  Note that the 33 KHz clock is generated from the 100 KHz oscillator, but this
1086:.\Generated_Source\PSoC5/CyLib.c **** *  API does not disable the 100 KHz clock.
1087:.\Generated_Source\PSoC5/CyLib.c **** *
1088:.\Generated_Source\PSoC5/CyLib.c **** * Parameters:
1089:.\Generated_Source\PSoC5/CyLib.c **** *  None
1090:.\Generated_Source\PSoC5/CyLib.c **** *
ARM GAS  C:\Users\faithc\AppData\Local\Temp\ccpkbr6m.s 			page 52


1091:.\Generated_Source\PSoC5/CyLib.c **** * Return:
1092:.\Generated_Source\PSoC5/CyLib.c **** *  None
1093:.\Generated_Source\PSoC5/CyLib.c **** *
1094:.\Generated_Source\PSoC5/CyLib.c **** *******************************************************************************/
1095:.\Generated_Source\PSoC5/CyLib.c **** void CyILO_Disable33K(void) 
1096:.\Generated_Source\PSoC5/CyLib.c **** {
 1801              		.loc 1 1096 0
 1802              		.cfi_startproc
 1803              		@ args = 0, pretend = 0, frame = 0
 1804              		@ frame_needed = 1, uses_anonymous_args = 0
 1805              		@ link register save eliminated.
 1806 0000 80B4     		push	{r7}
 1807              		.cfi_def_cfa_offset 4
 1808              		.cfi_offset 7, -4
 1809 0002 00AF     		add	r7, sp, #0
 1810              		.cfi_def_cfa_register 7
1097:.\Generated_Source\PSoC5/CyLib.c ****     CY_LIB_SLOWCLK_ILO_CR0_REG &= ((uint8)(~CY_LIB_SLOWCLK_ILO_CR0_EN_33KHZ));
 1811              		.loc 1 1097 0
 1812 0004 054A     		ldr	r2, .L138
 1813 0006 054B     		ldr	r3, .L138
 1814 0008 1B78     		ldrb	r3, [r3]
 1815 000a DBB2     		uxtb	r3, r3
 1816 000c 23F02003 		bic	r3, r3, #32
 1817 0010 DBB2     		uxtb	r3, r3
 1818 0012 1370     		strb	r3, [r2]
1098:.\Generated_Source\PSoC5/CyLib.c **** }
 1819              		.loc 1 1098 0
 1820 0014 BD46     		mov	sp, r7
 1821              		.cfi_def_cfa_register 13
 1822              		@ sp needed
 1823 0016 5DF8047B 		ldr	r7, [sp], #4
 1824              		.cfi_restore 7
 1825              		.cfi_def_cfa_offset 0
 1826 001a 7047     		bx	lr
 1827              	.L139:
 1828              		.align	2
 1829              	.L138:
 1830 001c 00430040 		.word	1073758976
 1831              		.cfi_endproc
 1832              	.LFE22:
 1833              		.size	CyILO_Disable33K, .-CyILO_Disable33K
 1834              		.section	.text.CyILO_SetSource,"ax",%progbits
 1835              		.align	2
 1836              		.global	CyILO_SetSource
 1837              		.thumb
 1838              		.thumb_func
 1839              		.type	CyILO_SetSource, %function
 1840              	CyILO_SetSource:
 1841              	.LFB23:
1099:.\Generated_Source\PSoC5/CyLib.c **** 
1100:.\Generated_Source\PSoC5/CyLib.c **** 
1101:.\Generated_Source\PSoC5/CyLib.c **** /*******************************************************************************
1102:.\Generated_Source\PSoC5/CyLib.c **** * Function Name: CyILO_SetSource
1103:.\Generated_Source\PSoC5/CyLib.c **** ********************************************************************************
1104:.\Generated_Source\PSoC5/CyLib.c **** *
1105:.\Generated_Source\PSoC5/CyLib.c **** * Summary:
1106:.\Generated_Source\PSoC5/CyLib.c **** *  Sets the source of the clock output from the ILO block.
ARM GAS  C:\Users\faithc\AppData\Local\Temp\ccpkbr6m.s 			page 53


1107:.\Generated_Source\PSoC5/CyLib.c **** *
1108:.\Generated_Source\PSoC5/CyLib.c **** * Parameters:
1109:.\Generated_Source\PSoC5/CyLib.c **** *  source: One of the three available ILO output sources
1110:.\Generated_Source\PSoC5/CyLib.c **** *       Value        Define                Source
1111:.\Generated_Source\PSoC5/CyLib.c **** *       0            CY_ILO_SOURCE_100K    ILO 100 KHz
1112:.\Generated_Source\PSoC5/CyLib.c **** *       1            CY_ILO_SOURCE_33K     ILO 33 KHz
1113:.\Generated_Source\PSoC5/CyLib.c **** *       2            CY_ILO_SOURCE_1K      ILO 1 KHz
1114:.\Generated_Source\PSoC5/CyLib.c **** *
1115:.\Generated_Source\PSoC5/CyLib.c **** * Return:
1116:.\Generated_Source\PSoC5/CyLib.c **** *  None
1117:.\Generated_Source\PSoC5/CyLib.c **** *
1118:.\Generated_Source\PSoC5/CyLib.c **** *******************************************************************************/
1119:.\Generated_Source\PSoC5/CyLib.c **** void CyILO_SetSource(uint8 source) 
1120:.\Generated_Source\PSoC5/CyLib.c **** {
 1842              		.loc 1 1120 0
 1843              		.cfi_startproc
 1844              		@ args = 0, pretend = 0, frame = 8
 1845              		@ frame_needed = 1, uses_anonymous_args = 0
 1846              		@ link register save eliminated.
 1847 0000 80B4     		push	{r7}
 1848              		.cfi_def_cfa_offset 4
 1849              		.cfi_offset 7, -4
 1850 0002 83B0     		sub	sp, sp, #12
 1851              		.cfi_def_cfa_offset 16
 1852 0004 00AF     		add	r7, sp, #0
 1853              		.cfi_def_cfa_register 7
 1854 0006 0346     		mov	r3, r0
 1855 0008 FB71     		strb	r3, [r7, #7]
1121:.\Generated_Source\PSoC5/CyLib.c ****     CY_LIB_CLKDIST_CR_REG = (CY_LIB_CLKDIST_CR_REG & CY_ILO_SOURCE_BITS_CLEAR) |
 1856              		.loc 1 1121 0
 1857 000a 4FF04021 		mov	r1, #1073758208
 1858 000e 4FF04023 		mov	r3, #1073758208
 1859 0012 1B78     		ldrb	r3, [r3]
 1860 0014 DBB2     		uxtb	r3, r3
 1861 0016 23F00C03 		bic	r3, r3, #12
 1862 001a DAB2     		uxtb	r2, r3
1122:.\Generated_Source\PSoC5/CyLib.c ****                     (((uint8) (source << 2u)) & ((uint8)(~CY_ILO_SOURCE_BITS_CLEAR)));
 1863              		.loc 1 1122 0
 1864 001c FB79     		ldrb	r3, [r7, #7]
 1865 001e 9B00     		lsls	r3, r3, #2
 1866 0020 DBB2     		uxtb	r3, r3
1121:.\Generated_Source\PSoC5/CyLib.c ****     CY_LIB_CLKDIST_CR_REG = (CY_LIB_CLKDIST_CR_REG & CY_ILO_SOURCE_BITS_CLEAR) |
 1867              		.loc 1 1121 0
 1868 0022 03F00C03 		and	r3, r3, #12
 1869 0026 DBB2     		uxtb	r3, r3
 1870 0028 1343     		orrs	r3, r3, r2
 1871 002a DBB2     		uxtb	r3, r3
 1872 002c 0B70     		strb	r3, [r1]
1123:.\Generated_Source\PSoC5/CyLib.c **** }
 1873              		.loc 1 1123 0
 1874 002e 0C37     		adds	r7, r7, #12
 1875              		.cfi_def_cfa_offset 4
 1876 0030 BD46     		mov	sp, r7
 1877              		.cfi_def_cfa_register 13
 1878              		@ sp needed
 1879 0032 5DF8047B 		ldr	r7, [sp], #4
 1880              		.cfi_restore 7
ARM GAS  C:\Users\faithc\AppData\Local\Temp\ccpkbr6m.s 			page 54


 1881              		.cfi_def_cfa_offset 0
 1882 0036 7047     		bx	lr
 1883              		.cfi_endproc
 1884              	.LFE23:
 1885              		.size	CyILO_SetSource, .-CyILO_SetSource
 1886              		.section	.text.CyILO_SetPowerMode,"ax",%progbits
 1887              		.align	2
 1888              		.global	CyILO_SetPowerMode
 1889              		.thumb
 1890              		.thumb_func
 1891              		.type	CyILO_SetPowerMode, %function
 1892              	CyILO_SetPowerMode:
 1893              	.LFB24:
1124:.\Generated_Source\PSoC5/CyLib.c **** 
1125:.\Generated_Source\PSoC5/CyLib.c **** 
1126:.\Generated_Source\PSoC5/CyLib.c **** /*******************************************************************************
1127:.\Generated_Source\PSoC5/CyLib.c **** * Function Name: CyILO_SetPowerMode
1128:.\Generated_Source\PSoC5/CyLib.c **** ********************************************************************************
1129:.\Generated_Source\PSoC5/CyLib.c **** *
1130:.\Generated_Source\PSoC5/CyLib.c **** * Summary:
1131:.\Generated_Source\PSoC5/CyLib.c **** *  Sets the power mode used by the ILO during power down. Allows for lower power
1132:.\Generated_Source\PSoC5/CyLib.c **** *  down power usage resulting in a slower startup time.
1133:.\Generated_Source\PSoC5/CyLib.c **** *
1134:.\Generated_Source\PSoC5/CyLib.c **** * Parameters:
1135:.\Generated_Source\PSoC5/CyLib.c **** *  uint8 mode
1136:.\Generated_Source\PSoC5/CyLib.c **** *   CY_ILO_FAST_START - Faster start-up, internal bias left on when powered down
1137:.\Generated_Source\PSoC5/CyLib.c **** *   CY_ILO_SLOW_START - Slower start-up, internal bias off when powered down
1138:.\Generated_Source\PSoC5/CyLib.c **** *
1139:.\Generated_Source\PSoC5/CyLib.c **** * Return:
1140:.\Generated_Source\PSoC5/CyLib.c **** *   Prevous power mode state.
1141:.\Generated_Source\PSoC5/CyLib.c **** *
1142:.\Generated_Source\PSoC5/CyLib.c **** *******************************************************************************/
1143:.\Generated_Source\PSoC5/CyLib.c **** uint8 CyILO_SetPowerMode(uint8 mode) 
1144:.\Generated_Source\PSoC5/CyLib.c **** {
 1894              		.loc 1 1144 0
 1895              		.cfi_startproc
 1896              		@ args = 0, pretend = 0, frame = 16
 1897              		@ frame_needed = 1, uses_anonymous_args = 0
 1898              		@ link register save eliminated.
 1899 0000 80B4     		push	{r7}
 1900              		.cfi_def_cfa_offset 4
 1901              		.cfi_offset 7, -4
 1902 0002 85B0     		sub	sp, sp, #20
 1903              		.cfi_def_cfa_offset 24
 1904 0004 00AF     		add	r7, sp, #0
 1905              		.cfi_def_cfa_register 7
 1906 0006 0346     		mov	r3, r0
 1907 0008 FB71     		strb	r3, [r7, #7]
1145:.\Generated_Source\PSoC5/CyLib.c ****     uint8 state;
1146:.\Generated_Source\PSoC5/CyLib.c **** 
1147:.\Generated_Source\PSoC5/CyLib.c ****     /* Get current state. */
1148:.\Generated_Source\PSoC5/CyLib.c ****     state = CY_LIB_SLOWCLK_ILO_CR0_REG;
 1908              		.loc 1 1148 0
 1909 000a 0F4B     		ldr	r3, .L145
 1910 000c 1B78     		ldrb	r3, [r3]
 1911 000e FB73     		strb	r3, [r7, #15]
1149:.\Generated_Source\PSoC5/CyLib.c **** 
ARM GAS  C:\Users\faithc\AppData\Local\Temp\ccpkbr6m.s 			page 55


1150:.\Generated_Source\PSoC5/CyLib.c ****     /* Set the oscillator power mode. */
1151:.\Generated_Source\PSoC5/CyLib.c ****     if(mode != CY_ILO_FAST_START)
 1912              		.loc 1 1151 0
 1913 0010 FB79     		ldrb	r3, [r7, #7]	@ zero_extendqisi2
 1914 0012 002B     		cmp	r3, #0
 1915 0014 06D0     		beq	.L142
1152:.\Generated_Source\PSoC5/CyLib.c ****     {
1153:.\Generated_Source\PSoC5/CyLib.c ****         CY_LIB_SLOWCLK_ILO_CR0_REG = (state | CY_ILO_CONTROL_PD_MODE);
 1916              		.loc 1 1153 0
 1917 0016 0C4A     		ldr	r2, .L145
 1918 0018 FB7B     		ldrb	r3, [r7, #15]
 1919 001a 43F01003 		orr	r3, r3, #16
 1920 001e DBB2     		uxtb	r3, r3
 1921 0020 1370     		strb	r3, [r2]
 1922 0022 05E0     		b	.L143
 1923              	.L142:
1154:.\Generated_Source\PSoC5/CyLib.c ****     }
1155:.\Generated_Source\PSoC5/CyLib.c ****     else
1156:.\Generated_Source\PSoC5/CyLib.c ****     {
1157:.\Generated_Source\PSoC5/CyLib.c ****         CY_LIB_SLOWCLK_ILO_CR0_REG = (state & ((uint8)(~CY_ILO_CONTROL_PD_MODE)));
 1924              		.loc 1 1157 0
 1925 0024 084A     		ldr	r2, .L145
 1926 0026 FB7B     		ldrb	r3, [r7, #15]
 1927 0028 23F01003 		bic	r3, r3, #16
 1928 002c DBB2     		uxtb	r3, r3
 1929 002e 1370     		strb	r3, [r2]
 1930              	.L143:
1158:.\Generated_Source\PSoC5/CyLib.c ****     }
1159:.\Generated_Source\PSoC5/CyLib.c **** 
1160:.\Generated_Source\PSoC5/CyLib.c ****     /* Return old mode. */
1161:.\Generated_Source\PSoC5/CyLib.c ****     return ((state & CY_ILO_CONTROL_PD_MODE) >> CY_ILO_CONTROL_PD_POSITION);
 1931              		.loc 1 1161 0
 1932 0030 FB7B     		ldrb	r3, [r7, #15]	@ zero_extendqisi2
 1933 0032 03F01003 		and	r3, r3, #16
 1934 0036 1B09     		lsrs	r3, r3, #4
 1935 0038 DBB2     		uxtb	r3, r3
1162:.\Generated_Source\PSoC5/CyLib.c **** }
 1936              		.loc 1 1162 0
 1937 003a 1846     		mov	r0, r3
 1938 003c 1437     		adds	r7, r7, #20
 1939              		.cfi_def_cfa_offset 4
 1940 003e BD46     		mov	sp, r7
 1941              		.cfi_def_cfa_register 13
 1942              		@ sp needed
 1943 0040 5DF8047B 		ldr	r7, [sp], #4
 1944              		.cfi_restore 7
 1945              		.cfi_def_cfa_offset 0
 1946 0044 7047     		bx	lr
 1947              	.L146:
 1948 0046 00BF     		.align	2
 1949              	.L145:
 1950 0048 00430040 		.word	1073758976
 1951              		.cfi_endproc
 1952              	.LFE24:
 1953              		.size	CyILO_SetPowerMode, .-CyILO_SetPowerMode
 1954              		.section	.text.CyXTAL_32KHZ_Start,"ax",%progbits
 1955              		.align	2
ARM GAS  C:\Users\faithc\AppData\Local\Temp\ccpkbr6m.s 			page 56


 1956              		.global	CyXTAL_32KHZ_Start
 1957              		.thumb
 1958              		.thumb_func
 1959              		.type	CyXTAL_32KHZ_Start, %function
 1960              	CyXTAL_32KHZ_Start:
 1961              	.LFB25:
1163:.\Generated_Source\PSoC5/CyLib.c **** 
1164:.\Generated_Source\PSoC5/CyLib.c **** 
1165:.\Generated_Source\PSoC5/CyLib.c **** /*******************************************************************************
1166:.\Generated_Source\PSoC5/CyLib.c **** * Function Name: CyXTAL_32KHZ_Start
1167:.\Generated_Source\PSoC5/CyLib.c **** ********************************************************************************
1168:.\Generated_Source\PSoC5/CyLib.c **** *
1169:.\Generated_Source\PSoC5/CyLib.c **** * Summary:
1170:.\Generated_Source\PSoC5/CyLib.c **** *  Enables the 32 KHz Crystal Oscillator.
1171:.\Generated_Source\PSoC5/CyLib.c **** *
1172:.\Generated_Source\PSoC5/CyLib.c **** * Parameters:
1173:.\Generated_Source\PSoC5/CyLib.c **** *  None
1174:.\Generated_Source\PSoC5/CyLib.c **** *
1175:.\Generated_Source\PSoC5/CyLib.c **** * Return:
1176:.\Generated_Source\PSoC5/CyLib.c **** *  None
1177:.\Generated_Source\PSoC5/CyLib.c **** *
1178:.\Generated_Source\PSoC5/CyLib.c **** *******************************************************************************/
1179:.\Generated_Source\PSoC5/CyLib.c **** void CyXTAL_32KHZ_Start(void) 
1180:.\Generated_Source\PSoC5/CyLib.c **** {
 1962              		.loc 1 1180 0
 1963              		.cfi_startproc
 1964              		@ args = 0, pretend = 0, frame = 8
 1965              		@ frame_needed = 1, uses_anonymous_args = 0
 1966 0000 80B5     		push	{r7, lr}
 1967              		.cfi_def_cfa_offset 8
 1968              		.cfi_offset 7, -8
 1969              		.cfi_offset 14, -4
 1970 0002 82B0     		sub	sp, sp, #8
 1971              		.cfi_def_cfa_offset 16
 1972 0004 00AF     		add	r7, sp, #0
 1973              		.cfi_def_cfa_register 7
1181:.\Generated_Source\PSoC5/CyLib.c ****     volatile uint16 i;
1182:.\Generated_Source\PSoC5/CyLib.c **** 
1183:.\Generated_Source\PSoC5/CyLib.c ****     CY_CLK_XTAL32_TST_REG = CY_CLK_XTAL32_TST_DEFAULT;
 1974              		.loc 1 1183 0
 1975 0006 1B4B     		ldr	r3, .L152
 1976 0008 F322     		movs	r2, #243
 1977 000a 1A70     		strb	r2, [r3]
1184:.\Generated_Source\PSoC5/CyLib.c ****     CY_CLK_XTAL32_TR_REG  = CY_CLK_XTAL32_TR_STARTUP;
 1978              		.loc 1 1184 0
 1979 000c 1A4B     		ldr	r3, .L152+4
 1980 000e 0322     		movs	r2, #3
 1981 0010 1A70     		strb	r2, [r3]
1185:.\Generated_Source\PSoC5/CyLib.c ****     CY_CLK_XTAL32_CFG_REG = (CY_CLK_XTAL32_CFG_REG & ((uint8)(~CY_CLK_XTAL32_CFG_LP_MASK))) |
 1982              		.loc 1 1185 0
 1983 0012 1A4A     		ldr	r2, .L152+8
 1984 0014 194B     		ldr	r3, .L152+8
 1985 0016 1B78     		ldrb	r3, [r3]
 1986 0018 DBB2     		uxtb	r3, r3
 1987 001a 23F00C03 		bic	r3, r3, #12
 1988 001e DBB2     		uxtb	r3, r3
 1989 0020 43F00403 		orr	r3, r3, #4
ARM GAS  C:\Users\faithc\AppData\Local\Temp\ccpkbr6m.s 			page 57


 1990 0024 DBB2     		uxtb	r3, r3
 1991 0026 1370     		strb	r3, [r2]
1186:.\Generated_Source\PSoC5/CyLib.c ****                                 CY_CLK_XTAL32_CFG_LP_DEFAULT;
1187:.\Generated_Source\PSoC5/CyLib.c **** 
1188:.\Generated_Source\PSoC5/CyLib.c ****     #if(CY_PSOC3)
1189:.\Generated_Source\PSoC5/CyLib.c ****         CY_CLK_XTAL32_CR_REG |= CY_CLK_XTAL32_CR_PDBEN;
1190:.\Generated_Source\PSoC5/CyLib.c ****     #endif  /* (CY_PSOC3) */
1191:.\Generated_Source\PSoC5/CyLib.c **** 
1192:.\Generated_Source\PSoC5/CyLib.c ****     /* Enable operation of 32K Crystal Oscillator */
1193:.\Generated_Source\PSoC5/CyLib.c ****     CY_CLK_XTAL32_CR_REG |= CY_CLK_XTAL32_CR_EN;
 1992              		.loc 1 1193 0
 1993 0028 154A     		ldr	r2, .L152+12
 1994 002a 154B     		ldr	r3, .L152+12
 1995 002c 1B78     		ldrb	r3, [r3]
 1996 002e DBB2     		uxtb	r3, r3
 1997 0030 43F00103 		orr	r3, r3, #1
 1998 0034 DBB2     		uxtb	r3, r3
 1999 0036 1370     		strb	r3, [r2]
1194:.\Generated_Source\PSoC5/CyLib.c **** 
1195:.\Generated_Source\PSoC5/CyLib.c ****     for (i = 1000u; i > 0u; i--)
 2000              		.loc 1 1195 0
 2001 0038 4FF47A73 		mov	r3, #1000
 2002 003c FB80     		strh	r3, [r7, #6]	@ movhi
 2003 003e 12E0     		b	.L148
 2004              	.L151:
1196:.\Generated_Source\PSoC5/CyLib.c ****     {
1197:.\Generated_Source\PSoC5/CyLib.c ****         if(0u != (CyXTAL_32KHZ_ReadStatus() & CY_XTAL32K_ANA_STAT))
 2005              		.loc 1 1197 0
 2006 0040 FFF7FEFF 		bl	CyXTAL_32KHZ_ReadStatus
 2007 0044 0346     		mov	r3, r0
 2008 0046 03F02003 		and	r3, r3, #32
 2009 004a 002B     		cmp	r3, #0
 2010 004c 03D0     		beq	.L149
1198:.\Generated_Source\PSoC5/CyLib.c ****         {
1199:.\Generated_Source\PSoC5/CyLib.c ****             /* Ready - switch to high power mode */
1200:.\Generated_Source\PSoC5/CyLib.c ****             (void) CyXTAL_32KHZ_SetPowerMode(0u);
 2011              		.loc 1 1200 0
 2012 004e 0020     		movs	r0, #0
 2013 0050 FFF7FEFF 		bl	CyXTAL_32KHZ_SetPowerMode
1201:.\Generated_Source\PSoC5/CyLib.c **** 
1202:.\Generated_Source\PSoC5/CyLib.c ****             break;
 2014              		.loc 1 1202 0
 2015 0054 0BE0     		b	.L147
 2016              	.L149:
1203:.\Generated_Source\PSoC5/CyLib.c ****         }
1204:.\Generated_Source\PSoC5/CyLib.c ****         CyDelayUs(1u);
 2017              		.loc 1 1204 0 discriminator 2
 2018 0056 0120     		movs	r0, #1
 2019 0058 FFF7FEFF 		bl	CyDelayUs
1195:.\Generated_Source\PSoC5/CyLib.c ****     {
 2020              		.loc 1 1195 0 discriminator 2
 2021 005c FB88     		ldrh	r3, [r7, #6]	@ movhi
 2022 005e 9BB2     		uxth	r3, r3
 2023 0060 013B     		subs	r3, r3, #1
 2024 0062 9BB2     		uxth	r3, r3
 2025 0064 FB80     		strh	r3, [r7, #6]	@ movhi
 2026              	.L148:
ARM GAS  C:\Users\faithc\AppData\Local\Temp\ccpkbr6m.s 			page 58


1195:.\Generated_Source\PSoC5/CyLib.c ****     {
 2027              		.loc 1 1195 0 is_stmt 0 discriminator 1
 2028 0066 FB88     		ldrh	r3, [r7, #6]	@ movhi
 2029 0068 9BB2     		uxth	r3, r3
 2030 006a 002B     		cmp	r3, #0
 2031 006c E8D1     		bne	.L151
 2032              	.L147:
1205:.\Generated_Source\PSoC5/CyLib.c ****     }
1206:.\Generated_Source\PSoC5/CyLib.c **** }
 2033              		.loc 1 1206 0 is_stmt 1
 2034 006e 0837     		adds	r7, r7, #8
 2035              		.cfi_def_cfa_offset 8
 2036 0070 BD46     		mov	sp, r7
 2037              		.cfi_def_cfa_register 13
 2038              		@ sp needed
 2039 0072 80BD     		pop	{r7, pc}
 2040              	.L153:
 2041              		.align	2
 2042              	.L152:
 2043 0074 0A430040 		.word	1073758986
 2044 0078 98460040 		.word	1073759896
 2045 007c 09430040 		.word	1073758985
 2046 0080 08430040 		.word	1073758984
 2047              		.cfi_endproc
 2048              	.LFE25:
 2049              		.size	CyXTAL_32KHZ_Start, .-CyXTAL_32KHZ_Start
 2050              		.section	.text.CyXTAL_32KHZ_Stop,"ax",%progbits
 2051              		.align	2
 2052              		.global	CyXTAL_32KHZ_Stop
 2053              		.thumb
 2054              		.thumb_func
 2055              		.type	CyXTAL_32KHZ_Stop, %function
 2056              	CyXTAL_32KHZ_Stop:
 2057              	.LFB26:
1207:.\Generated_Source\PSoC5/CyLib.c **** 
1208:.\Generated_Source\PSoC5/CyLib.c **** 
1209:.\Generated_Source\PSoC5/CyLib.c **** /*******************************************************************************
1210:.\Generated_Source\PSoC5/CyLib.c **** * Function Name: CyXTAL_32KHZ_Stop
1211:.\Generated_Source\PSoC5/CyLib.c **** ********************************************************************************
1212:.\Generated_Source\PSoC5/CyLib.c **** *
1213:.\Generated_Source\PSoC5/CyLib.c **** * Summary:
1214:.\Generated_Source\PSoC5/CyLib.c **** *  Disables the 32KHz Crystal Oscillator.
1215:.\Generated_Source\PSoC5/CyLib.c **** *
1216:.\Generated_Source\PSoC5/CyLib.c **** * Parameters:
1217:.\Generated_Source\PSoC5/CyLib.c **** *  None
1218:.\Generated_Source\PSoC5/CyLib.c **** *
1219:.\Generated_Source\PSoC5/CyLib.c **** * Return:
1220:.\Generated_Source\PSoC5/CyLib.c **** *  None
1221:.\Generated_Source\PSoC5/CyLib.c **** *
1222:.\Generated_Source\PSoC5/CyLib.c **** *******************************************************************************/
1223:.\Generated_Source\PSoC5/CyLib.c **** void CyXTAL_32KHZ_Stop(void) 
1224:.\Generated_Source\PSoC5/CyLib.c **** {
 2058              		.loc 1 1224 0
 2059              		.cfi_startproc
 2060              		@ args = 0, pretend = 0, frame = 0
 2061              		@ frame_needed = 1, uses_anonymous_args = 0
 2062              		@ link register save eliminated.
ARM GAS  C:\Users\faithc\AppData\Local\Temp\ccpkbr6m.s 			page 59


 2063 0000 80B4     		push	{r7}
 2064              		.cfi_def_cfa_offset 4
 2065              		.cfi_offset 7, -4
 2066 0002 00AF     		add	r7, sp, #0
 2067              		.cfi_def_cfa_register 7
1225:.\Generated_Source\PSoC5/CyLib.c ****     CY_CLK_XTAL32_TST_REG  = CY_CLK_XTAL32_TST_DEFAULT;
 2068              		.loc 1 1225 0
 2069 0004 0E4B     		ldr	r3, .L155
 2070 0006 F322     		movs	r2, #243
 2071 0008 1A70     		strb	r2, [r3]
1226:.\Generated_Source\PSoC5/CyLib.c ****     CY_CLK_XTAL32_TR_REG   = CY_CLK_XTAL32_TR_POWERDOWN;
 2072              		.loc 1 1226 0
 2073 000a 0E4B     		ldr	r3, .L155+4
 2074 000c 0022     		movs	r2, #0
 2075 000e 1A70     		strb	r2, [r3]
1227:.\Generated_Source\PSoC5/CyLib.c ****     CY_CLK_XTAL32_CFG_REG = (CY_CLK_XTAL32_CFG_REG & ((uint8)(~CY_CLK_XTAL32_CFG_LP_MASK))) |
 2076              		.loc 1 1227 0
 2077 0010 0D4A     		ldr	r2, .L155+8
 2078 0012 0D4B     		ldr	r3, .L155+8
 2079 0014 1B78     		ldrb	r3, [r3]
 2080 0016 DBB2     		uxtb	r3, r3
 2081 0018 23F00C03 		bic	r3, r3, #12
 2082 001c DBB2     		uxtb	r3, r3
 2083 001e 43F00403 		orr	r3, r3, #4
 2084 0022 DBB2     		uxtb	r3, r3
 2085 0024 1370     		strb	r3, [r2]
1228:.\Generated_Source\PSoC5/CyLib.c ****                              CY_CLK_XTAL32_CFG_LP_DEFAULT;
1229:.\Generated_Source\PSoC5/CyLib.c ****     CY_CLK_XTAL32_CR_REG &= ((uint8)(~(CY_CLK_XTAL32_CR_EN | CY_CLK_XTAL32_CR_LPM)));
 2086              		.loc 1 1229 0
 2087 0026 094A     		ldr	r2, .L155+12
 2088 0028 084B     		ldr	r3, .L155+12
 2089 002a 1B78     		ldrb	r3, [r3]
 2090 002c DBB2     		uxtb	r3, r3
 2091 002e 23F00303 		bic	r3, r3, #3
 2092 0032 DBB2     		uxtb	r3, r3
 2093 0034 1370     		strb	r3, [r2]
1230:.\Generated_Source\PSoC5/CyLib.c **** 
1231:.\Generated_Source\PSoC5/CyLib.c ****     #if(CY_PSOC3)
1232:.\Generated_Source\PSoC5/CyLib.c ****         CY_CLK_XTAL32_CR_REG &= ((uint8)(~CY_CLK_XTAL32_CR_PDBEN));
1233:.\Generated_Source\PSoC5/CyLib.c ****     #endif  /* (CY_PSOC3) */
1234:.\Generated_Source\PSoC5/CyLib.c **** }
 2094              		.loc 1 1234 0
 2095 0036 BD46     		mov	sp, r7
 2096              		.cfi_def_cfa_register 13
 2097              		@ sp needed
 2098 0038 5DF8047B 		ldr	r7, [sp], #4
 2099              		.cfi_restore 7
 2100              		.cfi_def_cfa_offset 0
 2101 003c 7047     		bx	lr
 2102              	.L156:
 2103 003e 00BF     		.align	2
 2104              	.L155:
 2105 0040 0A430040 		.word	1073758986
 2106 0044 98460040 		.word	1073759896
 2107 0048 09430040 		.word	1073758985
 2108 004c 08430040 		.word	1073758984
 2109              		.cfi_endproc
ARM GAS  C:\Users\faithc\AppData\Local\Temp\ccpkbr6m.s 			page 60


 2110              	.LFE26:
 2111              		.size	CyXTAL_32KHZ_Stop, .-CyXTAL_32KHZ_Stop
 2112              		.section	.text.CyXTAL_32KHZ_ReadStatus,"ax",%progbits
 2113              		.align	2
 2114              		.global	CyXTAL_32KHZ_ReadStatus
 2115              		.thumb
 2116              		.thumb_func
 2117              		.type	CyXTAL_32KHZ_ReadStatus, %function
 2118              	CyXTAL_32KHZ_ReadStatus:
 2119              	.LFB27:
1235:.\Generated_Source\PSoC5/CyLib.c **** 
1236:.\Generated_Source\PSoC5/CyLib.c **** 
1237:.\Generated_Source\PSoC5/CyLib.c **** /*******************************************************************************
1238:.\Generated_Source\PSoC5/CyLib.c **** * Function Name: CyXTAL_32KHZ_ReadStatus
1239:.\Generated_Source\PSoC5/CyLib.c **** ********************************************************************************
1240:.\Generated_Source\PSoC5/CyLib.c **** *
1241:.\Generated_Source\PSoC5/CyLib.c **** * Summary:
1242:.\Generated_Source\PSoC5/CyLib.c **** *  Returns status of the 32 KHz oscillator.
1243:.\Generated_Source\PSoC5/CyLib.c **** *
1244:.\Generated_Source\PSoC5/CyLib.c **** * Parameters:
1245:.\Generated_Source\PSoC5/CyLib.c **** *  None
1246:.\Generated_Source\PSoC5/CyLib.c **** *
1247:.\Generated_Source\PSoC5/CyLib.c **** * Return:
1248:.\Generated_Source\PSoC5/CyLib.c **** *  Value     Define                    Source
1249:.\Generated_Source\PSoC5/CyLib.c **** *  20        CY_XTAL32K_ANA_STAT       Analog measurement
1250:.\Generated_Source\PSoC5/CyLib.c **** *                                       1: Stable
1251:.\Generated_Source\PSoC5/CyLib.c **** *                                       0: Not stable
1252:.\Generated_Source\PSoC5/CyLib.c **** *
1253:.\Generated_Source\PSoC5/CyLib.c **** *******************************************************************************/
1254:.\Generated_Source\PSoC5/CyLib.c **** uint8 CyXTAL_32KHZ_ReadStatus(void) 
1255:.\Generated_Source\PSoC5/CyLib.c **** {
 2120              		.loc 1 1255 0
 2121              		.cfi_startproc
 2122              		@ args = 0, pretend = 0, frame = 0
 2123              		@ frame_needed = 1, uses_anonymous_args = 0
 2124              		@ link register save eliminated.
 2125 0000 80B4     		push	{r7}
 2126              		.cfi_def_cfa_offset 4
 2127              		.cfi_offset 7, -4
 2128 0002 00AF     		add	r7, sp, #0
 2129              		.cfi_def_cfa_register 7
1256:.\Generated_Source\PSoC5/CyLib.c ****     return(CY_CLK_XTAL32_CR_REG & CY_XTAL32K_ANA_STAT);
 2130              		.loc 1 1256 0
 2131 0004 054B     		ldr	r3, .L159
 2132 0006 1B78     		ldrb	r3, [r3]
 2133 0008 DBB2     		uxtb	r3, r3
 2134 000a 03F02003 		and	r3, r3, #32
 2135 000e DBB2     		uxtb	r3, r3
1257:.\Generated_Source\PSoC5/CyLib.c **** }
 2136              		.loc 1 1257 0
 2137 0010 1846     		mov	r0, r3
 2138 0012 BD46     		mov	sp, r7
 2139              		.cfi_def_cfa_register 13
 2140              		@ sp needed
 2141 0014 5DF8047B 		ldr	r7, [sp], #4
 2142              		.cfi_restore 7
 2143              		.cfi_def_cfa_offset 0
ARM GAS  C:\Users\faithc\AppData\Local\Temp\ccpkbr6m.s 			page 61


 2144 0018 7047     		bx	lr
 2145              	.L160:
 2146 001a 00BF     		.align	2
 2147              	.L159:
 2148 001c 08430040 		.word	1073758984
 2149              		.cfi_endproc
 2150              	.LFE27:
 2151              		.size	CyXTAL_32KHZ_ReadStatus, .-CyXTAL_32KHZ_ReadStatus
 2152              		.section	.text.CyXTAL_32KHZ_SetPowerMode,"ax",%progbits
 2153              		.align	2
 2154              		.global	CyXTAL_32KHZ_SetPowerMode
 2155              		.thumb
 2156              		.thumb_func
 2157              		.type	CyXTAL_32KHZ_SetPowerMode, %function
 2158              	CyXTAL_32KHZ_SetPowerMode:
 2159              	.LFB28:
1258:.\Generated_Source\PSoC5/CyLib.c **** 
1259:.\Generated_Source\PSoC5/CyLib.c **** 
1260:.\Generated_Source\PSoC5/CyLib.c **** /*******************************************************************************
1261:.\Generated_Source\PSoC5/CyLib.c **** * Function Name: CyXTAL_32KHZ_SetPowerMode
1262:.\Generated_Source\PSoC5/CyLib.c **** ********************************************************************************
1263:.\Generated_Source\PSoC5/CyLib.c **** *
1264:.\Generated_Source\PSoC5/CyLib.c **** * Summary:
1265:.\Generated_Source\PSoC5/CyLib.c **** *  Sets the power mode for the 32 KHz oscillator used during the sleep mode.
1266:.\Generated_Source\PSoC5/CyLib.c **** *  Allows for lower power during sleep when there are fewer sources of noise.
1267:.\Generated_Source\PSoC5/CyLib.c **** *  During the active mode the oscillator is always run in the high power mode.
1268:.\Generated_Source\PSoC5/CyLib.c **** *
1269:.\Generated_Source\PSoC5/CyLib.c **** * Parameters:
1270:.\Generated_Source\PSoC5/CyLib.c **** *  uint8 mode
1271:.\Generated_Source\PSoC5/CyLib.c **** *       0: High power mode
1272:.\Generated_Source\PSoC5/CyLib.c **** *       1: Low power mode during sleep
1273:.\Generated_Source\PSoC5/CyLib.c **** *
1274:.\Generated_Source\PSoC5/CyLib.c **** * Return:
1275:.\Generated_Source\PSoC5/CyLib.c **** *  Previous power mode.
1276:.\Generated_Source\PSoC5/CyLib.c **** *
1277:.\Generated_Source\PSoC5/CyLib.c **** *******************************************************************************/
1278:.\Generated_Source\PSoC5/CyLib.c **** uint8 CyXTAL_32KHZ_SetPowerMode(uint8 mode) 
1279:.\Generated_Source\PSoC5/CyLib.c **** {
 2160              		.loc 1 1279 0
 2161              		.cfi_startproc
 2162              		@ args = 0, pretend = 0, frame = 16
 2163              		@ frame_needed = 1, uses_anonymous_args = 0
 2164 0000 80B5     		push	{r7, lr}
 2165              		.cfi_def_cfa_offset 8
 2166              		.cfi_offset 7, -8
 2167              		.cfi_offset 14, -4
 2168 0002 84B0     		sub	sp, sp, #16
 2169              		.cfi_def_cfa_offset 24
 2170 0004 00AF     		add	r7, sp, #0
 2171              		.cfi_def_cfa_register 7
 2172 0006 0346     		mov	r3, r0
 2173 0008 FB71     		strb	r3, [r7, #7]
1280:.\Generated_Source\PSoC5/CyLib.c ****     uint8 state = (0u != (CY_CLK_XTAL32_CR_REG & CY_CLK_XTAL32_CR_LPM)) ? 1u : 0u;
 2174              		.loc 1 1280 0
 2175 000a 264B     		ldr	r3, .L167
 2176 000c 1B78     		ldrb	r3, [r3]
 2177 000e DBB2     		uxtb	r3, r3
ARM GAS  C:\Users\faithc\AppData\Local\Temp\ccpkbr6m.s 			page 62


 2178 0010 03F00203 		and	r3, r3, #2
 2179 0014 002B     		cmp	r3, #0
 2180 0016 01D0     		beq	.L162
 2181              		.loc 1 1280 0 is_stmt 0 discriminator 1
 2182 0018 0123     		movs	r3, #1
 2183 001a 00E0     		b	.L163
 2184              	.L162:
 2185              		.loc 1 1280 0 discriminator 2
 2186 001c 0023     		movs	r3, #0
 2187              	.L163:
 2188              		.loc 1 1280 0 discriminator 4
 2189 001e FB73     		strb	r3, [r7, #15]
1281:.\Generated_Source\PSoC5/CyLib.c **** 
1282:.\Generated_Source\PSoC5/CyLib.c ****     CY_CLK_XTAL32_TST_REG = CY_CLK_XTAL32_TST_DEFAULT;
 2190              		.loc 1 1282 0 is_stmt 1 discriminator 4
 2191 0020 214B     		ldr	r3, .L167+4
 2192 0022 F322     		movs	r2, #243
 2193 0024 1A70     		strb	r2, [r3]
1283:.\Generated_Source\PSoC5/CyLib.c **** 
1284:.\Generated_Source\PSoC5/CyLib.c ****     if(1u == mode)
 2194              		.loc 1 1284 0 discriminator 4
 2195 0026 FB79     		ldrb	r3, [r7, #7]	@ zero_extendqisi2
 2196 0028 012B     		cmp	r3, #1
 2197 002a 1CD1     		bne	.L164
1285:.\Generated_Source\PSoC5/CyLib.c ****     {
1286:.\Generated_Source\PSoC5/CyLib.c ****         /* Low power mode during Sleep */
1287:.\Generated_Source\PSoC5/CyLib.c ****         CY_CLK_XTAL32_TR_REG  = CY_CLK_XTAL32_TR_LOW_POWER;
 2198              		.loc 1 1287 0
 2199 002c 1F4B     		ldr	r3, .L167+8
 2200 002e 0122     		movs	r2, #1
 2201 0030 1A70     		strb	r2, [r3]
1288:.\Generated_Source\PSoC5/CyLib.c ****         CyDelayUs(10u);
 2202              		.loc 1 1288 0
 2203 0032 0A20     		movs	r0, #10
 2204 0034 FFF7FEFF 		bl	CyDelayUs
1289:.\Generated_Source\PSoC5/CyLib.c ****         CY_CLK_XTAL32_CFG_REG = (CY_CLK_XTAL32_CFG_REG & ((uint8)(~CY_CLK_XTAL32_CFG_LP_MASK))) |
 2205              		.loc 1 1289 0
 2206 0038 1D4A     		ldr	r2, .L167+12
 2207 003a 1D4B     		ldr	r3, .L167+12
 2208 003c 1B78     		ldrb	r3, [r3]
 2209 003e DBB2     		uxtb	r3, r3
 2210 0040 23F00C03 		bic	r3, r3, #12
 2211 0044 DBB2     		uxtb	r3, r3
 2212 0046 43F00803 		orr	r3, r3, #8
 2213 004a DBB2     		uxtb	r3, r3
 2214 004c 1370     		strb	r3, [r2]
1290:.\Generated_Source\PSoC5/CyLib.c ****                                 CY_CLK_XTAL32_CFG_LP_LOWPOWER;
1291:.\Generated_Source\PSoC5/CyLib.c ****         CyDelayUs(20u);
 2215              		.loc 1 1291 0
 2216 004e 1420     		movs	r0, #20
 2217 0050 FFF7FEFF 		bl	CyDelayUs
1292:.\Generated_Source\PSoC5/CyLib.c ****         CY_CLK_XTAL32_CR_REG |= CY_CLK_XTAL32_CR_LPM;
 2218              		.loc 1 1292 0
 2219 0054 134A     		ldr	r2, .L167
 2220 0056 134B     		ldr	r3, .L167
 2221 0058 1B78     		ldrb	r3, [r3]
 2222 005a DBB2     		uxtb	r3, r3
ARM GAS  C:\Users\faithc\AppData\Local\Temp\ccpkbr6m.s 			page 63


 2223 005c 43F00203 		orr	r3, r3, #2
 2224 0060 DBB2     		uxtb	r3, r3
 2225 0062 1370     		strb	r3, [r2]
 2226 0064 18E0     		b	.L165
 2227              	.L164:
1293:.\Generated_Source\PSoC5/CyLib.c ****     }
1294:.\Generated_Source\PSoC5/CyLib.c ****     else
1295:.\Generated_Source\PSoC5/CyLib.c ****     {
1296:.\Generated_Source\PSoC5/CyLib.c ****         /* High power mode */
1297:.\Generated_Source\PSoC5/CyLib.c ****         CY_CLK_XTAL32_TR_REG  = CY_CLK_XTAL32_TR_HIGH_POWER;
 2228              		.loc 1 1297 0
 2229 0066 114B     		ldr	r3, .L167+8
 2230 0068 0622     		movs	r2, #6
 2231 006a 1A70     		strb	r2, [r3]
1298:.\Generated_Source\PSoC5/CyLib.c ****         CyDelayUs(10u);
 2232              		.loc 1 1298 0
 2233 006c 0A20     		movs	r0, #10
 2234 006e FFF7FEFF 		bl	CyDelayUs
1299:.\Generated_Source\PSoC5/CyLib.c ****         CY_CLK_XTAL32_CFG_REG = (CY_CLK_XTAL32_CFG_REG & ((uint8)(~CY_CLK_XTAL32_CFG_LP_MASK))) |
 2235              		.loc 1 1299 0
 2236 0072 0F4A     		ldr	r2, .L167+12
 2237 0074 0E4B     		ldr	r3, .L167+12
 2238 0076 1B78     		ldrb	r3, [r3]
 2239 0078 DBB2     		uxtb	r3, r3
 2240 007a 23F00C03 		bic	r3, r3, #12
 2241 007e DBB2     		uxtb	r3, r3
 2242 0080 43F00403 		orr	r3, r3, #4
 2243 0084 DBB2     		uxtb	r3, r3
 2244 0086 1370     		strb	r3, [r2]
1300:.\Generated_Source\PSoC5/CyLib.c ****                                 CY_CLK_XTAL32_CFG_LP_DEFAULT;
1301:.\Generated_Source\PSoC5/CyLib.c ****         CY_CLK_XTAL32_CR_REG &= ((uint8)(~CY_CLK_XTAL32_CR_LPM));
 2245              		.loc 1 1301 0
 2246 0088 064A     		ldr	r2, .L167
 2247 008a 064B     		ldr	r3, .L167
 2248 008c 1B78     		ldrb	r3, [r3]
 2249 008e DBB2     		uxtb	r3, r3
 2250 0090 23F00203 		bic	r3, r3, #2
 2251 0094 DBB2     		uxtb	r3, r3
 2252 0096 1370     		strb	r3, [r2]
 2253              	.L165:
1302:.\Generated_Source\PSoC5/CyLib.c ****     }
1303:.\Generated_Source\PSoC5/CyLib.c **** 
1304:.\Generated_Source\PSoC5/CyLib.c ****     return(state);
 2254              		.loc 1 1304 0
 2255 0098 FB7B     		ldrb	r3, [r7, #15]	@ zero_extendqisi2
1305:.\Generated_Source\PSoC5/CyLib.c **** }
 2256              		.loc 1 1305 0
 2257 009a 1846     		mov	r0, r3
 2258 009c 1037     		adds	r7, r7, #16
 2259              		.cfi_def_cfa_offset 8
 2260 009e BD46     		mov	sp, r7
 2261              		.cfi_def_cfa_register 13
 2262              		@ sp needed
 2263 00a0 80BD     		pop	{r7, pc}
 2264              	.L168:
 2265 00a2 00BF     		.align	2
 2266              	.L167:
ARM GAS  C:\Users\faithc\AppData\Local\Temp\ccpkbr6m.s 			page 64


 2267 00a4 08430040 		.word	1073758984
 2268 00a8 0A430040 		.word	1073758986
 2269 00ac 98460040 		.word	1073759896
 2270 00b0 09430040 		.word	1073758985
 2271              		.cfi_endproc
 2272              	.LFE28:
 2273              		.size	CyXTAL_32KHZ_SetPowerMode, .-CyXTAL_32KHZ_SetPowerMode
 2274              		.section	.text.CyXTAL_Start,"ax",%progbits
 2275              		.align	2
 2276              		.global	CyXTAL_Start
 2277              		.thumb
 2278              		.thumb_func
 2279              		.type	CyXTAL_Start, %function
 2280              	CyXTAL_Start:
 2281              	.LFB29:
1306:.\Generated_Source\PSoC5/CyLib.c **** 
1307:.\Generated_Source\PSoC5/CyLib.c **** 
1308:.\Generated_Source\PSoC5/CyLib.c **** /*******************************************************************************
1309:.\Generated_Source\PSoC5/CyLib.c **** * Function Name: CyXTAL_Start
1310:.\Generated_Source\PSoC5/CyLib.c **** ********************************************************************************
1311:.\Generated_Source\PSoC5/CyLib.c **** *
1312:.\Generated_Source\PSoC5/CyLib.c **** * Summary:
1313:.\Generated_Source\PSoC5/CyLib.c **** *  Enables the megahertz crystal.
1314:.\Generated_Source\PSoC5/CyLib.c **** *
1315:.\Generated_Source\PSoC5/CyLib.c **** *  PSoC 3:
1316:.\Generated_Source\PSoC5/CyLib.c **** *  Waits until the XERR bit is low (no error) for a millisecond or until the
1317:.\Generated_Source\PSoC5/CyLib.c **** *  number of milliseconds specified by the wait parameter has expired.
1318:.\Generated_Source\PSoC5/CyLib.c **** *
1319:.\Generated_Source\PSoC5/CyLib.c **** * Parameters:
1320:.\Generated_Source\PSoC5/CyLib.c **** *   wait: Valid range [0-255].
1321:.\Generated_Source\PSoC5/CyLib.c **** *   This is the timeout value in milliseconds.
1322:.\Generated_Source\PSoC5/CyLib.c **** *   The appropriate value is crystal specific.
1323:.\Generated_Source\PSoC5/CyLib.c **** *
1324:.\Generated_Source\PSoC5/CyLib.c **** * Return:
1325:.\Generated_Source\PSoC5/CyLib.c **** *   CYRET_SUCCESS - Completed successfully
1326:.\Generated_Source\PSoC5/CyLib.c **** *   CYRET_TIMEOUT - Timeout occurred without detecting a low value on XERR.
1327:.\Generated_Source\PSoC5/CyLib.c **** *
1328:.\Generated_Source\PSoC5/CyLib.c **** * Side Effects and Restrictions:
1329:.\Generated_Source\PSoC5/CyLib.c **** *  If wait is enabled (non-zero wait). Uses the Fast Timewheel to time the wait.
1330:.\Generated_Source\PSoC5/CyLib.c **** *  Any other use of the Fast Timewheel (FTW) will be stopped during the period
1331:.\Generated_Source\PSoC5/CyLib.c **** *  of this function and then restored.
1332:.\Generated_Source\PSoC5/CyLib.c **** *
1333:.\Generated_Source\PSoC5/CyLib.c **** *  Uses the 100KHz ILO.  If not enabled, this function will enable the 100KHz
1334:.\Generated_Source\PSoC5/CyLib.c **** *  ILO for the period of this function. No changes to the setup of the ILO,
1335:.\Generated_Source\PSoC5/CyLib.c **** *  Fast Timewheel, Central Timewheel or Once Per Second interrupt may be made
1336:.\Generated_Source\PSoC5/CyLib.c **** *  by interrupt routines during the period of this function.
1337:.\Generated_Source\PSoC5/CyLib.c **** *
1338:.\Generated_Source\PSoC5/CyLib.c **** *  The current operation of the ILO, Central Timewheel and Once Per Second
1339:.\Generated_Source\PSoC5/CyLib.c **** *  interrupt are maintained during the operation of this function provided the
1340:.\Generated_Source\PSoC5/CyLib.c **** *  reading of the Power Manager Interrupt Status Register is only done using the
1341:.\Generated_Source\PSoC5/CyLib.c **** *  CyPmReadStatus() function.
1342:.\Generated_Source\PSoC5/CyLib.c **** *
1343:.\Generated_Source\PSoC5/CyLib.c **** *******************************************************************************/
1344:.\Generated_Source\PSoC5/CyLib.c **** cystatus CyXTAL_Start(uint8 wait) 
1345:.\Generated_Source\PSoC5/CyLib.c **** {
 2282              		.loc 1 1345 0
 2283              		.cfi_startproc
ARM GAS  C:\Users\faithc\AppData\Local\Temp\ccpkbr6m.s 			page 65


 2284              		@ args = 0, pretend = 0, frame = 24
 2285              		@ frame_needed = 1, uses_anonymous_args = 0
 2286 0000 80B5     		push	{r7, lr}
 2287              		.cfi_def_cfa_offset 8
 2288              		.cfi_offset 7, -8
 2289              		.cfi_offset 14, -4
 2290 0002 86B0     		sub	sp, sp, #24
 2291              		.cfi_def_cfa_offset 32
 2292 0004 00AF     		add	r7, sp, #0
 2293              		.cfi_def_cfa_register 7
 2294 0006 0346     		mov	r3, r0
 2295 0008 FB71     		strb	r3, [r7, #7]
1346:.\Generated_Source\PSoC5/CyLib.c ****     cystatus status = CYRET_SUCCESS;
 2296              		.loc 1 1346 0
 2297 000a 0023     		movs	r3, #0
 2298 000c 7B61     		str	r3, [r7, #20]
1347:.\Generated_Source\PSoC5/CyLib.c ****     volatile uint8  timeout = wait;
 2299              		.loc 1 1347 0
 2300 000e FB79     		ldrb	r3, [r7, #7]
 2301 0010 3B74     		strb	r3, [r7, #16]
1348:.\Generated_Source\PSoC5/CyLib.c ****     volatile uint8 count;
1349:.\Generated_Source\PSoC5/CyLib.c ****     uint8 iloEnableState;
1350:.\Generated_Source\PSoC5/CyLib.c ****     uint8 pmTwCfg0Tmp;
1351:.\Generated_Source\PSoC5/CyLib.c ****     uint8 pmTwCfg2Tmp;
1352:.\Generated_Source\PSoC5/CyLib.c **** 
1353:.\Generated_Source\PSoC5/CyLib.c **** 
1354:.\Generated_Source\PSoC5/CyLib.c ****     /* Enables MHz crystal oscillator circuit  */
1355:.\Generated_Source\PSoC5/CyLib.c ****     CY_CLK_XMHZ_CSR_REG |= CY_CLK_XMHZ_CSR_ENABLE;
 2302              		.loc 1 1355 0
 2303 0012 2B4A     		ldr	r2, .L180
 2304 0014 2A4B     		ldr	r3, .L180
 2305 0016 1B78     		ldrb	r3, [r3]
 2306 0018 DBB2     		uxtb	r3, r3
 2307 001a 43F00103 		orr	r3, r3, #1
 2308 001e DBB2     		uxtb	r3, r3
 2309 0020 1370     		strb	r3, [r2]
1356:.\Generated_Source\PSoC5/CyLib.c **** 
1357:.\Generated_Source\PSoC5/CyLib.c **** 
1358:.\Generated_Source\PSoC5/CyLib.c ****     if(wait > 0u)
 2310              		.loc 1 1358 0
 2311 0022 FB79     		ldrb	r3, [r7, #7]	@ zero_extendqisi2
 2312 0024 002B     		cmp	r3, #0
 2313 0026 46D0     		beq	.L170
1359:.\Generated_Source\PSoC5/CyLib.c ****     {
1360:.\Generated_Source\PSoC5/CyLib.c ****         /* Save 100 KHz ILO, FTW interval, enable and interrupt enable */
1361:.\Generated_Source\PSoC5/CyLib.c ****         iloEnableState = CY_LIB_SLOWCLK_ILO_CR0_REG;
 2314              		.loc 1 1361 0
 2315 0028 264B     		ldr	r3, .L180+4
 2316 002a 1B78     		ldrb	r3, [r3]
 2317 002c FB74     		strb	r3, [r7, #19]
1362:.\Generated_Source\PSoC5/CyLib.c ****         pmTwCfg0Tmp = CY_LIB_PM_TW_CFG0_REG;
 2318              		.loc 1 1362 0
 2319 002e 264B     		ldr	r3, .L180+8
 2320 0030 1B78     		ldrb	r3, [r3]
 2321 0032 BB74     		strb	r3, [r7, #18]
1363:.\Generated_Source\PSoC5/CyLib.c ****         pmTwCfg2Tmp = CY_LIB_PM_TW_CFG2_REG;
 2322              		.loc 1 1363 0
ARM GAS  C:\Users\faithc\AppData\Local\Temp\ccpkbr6m.s 			page 66


 2323 0034 254B     		ldr	r3, .L180+12
 2324 0036 1B78     		ldrb	r3, [r3]
 2325 0038 7B74     		strb	r3, [r7, #17]
1364:.\Generated_Source\PSoC5/CyLib.c **** 
1365:.\Generated_Source\PSoC5/CyLib.c ****         /* Set 250 us interval */
1366:.\Generated_Source\PSoC5/CyLib.c ****         CyPmFtwSetInterval(CY_CLK_XMHZ_FTW_INTERVAL);
 2326              		.loc 1 1366 0
 2327 003a 1820     		movs	r0, #24
 2328 003c FFF7FEFF 		bl	CyPmFtwSetInterval
1367:.\Generated_Source\PSoC5/CyLib.c ****         status = CYRET_TIMEOUT;
 2329              		.loc 1 1367 0
 2330 0040 1023     		movs	r3, #16
 2331 0042 7B61     		str	r3, [r7, #20]
1368:.\Generated_Source\PSoC5/CyLib.c **** 
1369:.\Generated_Source\PSoC5/CyLib.c **** 
1370:.\Generated_Source\PSoC5/CyLib.c ****         for( ; timeout > 0u; timeout--)
 2332              		.loc 1 1370 0
 2333 0044 26E0     		b	.L171
 2334              	.L177:
1371:.\Generated_Source\PSoC5/CyLib.c ****         {
1372:.\Generated_Source\PSoC5/CyLib.c ****             /* Read XERR bit to clear it */
1373:.\Generated_Source\PSoC5/CyLib.c ****             (void) CY_CLK_XMHZ_CSR_REG;
 2335              		.loc 1 1373 0
 2336 0046 1E4B     		ldr	r3, .L180
 2337 0048 1B78     		ldrb	r3, [r3]
1374:.\Generated_Source\PSoC5/CyLib.c **** 
1375:.\Generated_Source\PSoC5/CyLib.c ****             /* Wait for 1 millisecond - 4 x 250 us */
1376:.\Generated_Source\PSoC5/CyLib.c ****             for(count = 4u; count > 0u; count--)
 2338              		.loc 1 1376 0
 2339 004a 0423     		movs	r3, #4
 2340 004c FB73     		strb	r3, [r7, #15]
 2341 004e 0EE0     		b	.L172
 2342              	.L174:
1377:.\Generated_Source\PSoC5/CyLib.c ****             {
1378:.\Generated_Source\PSoC5/CyLib.c ****                 while(0u == (CY_PM_FTW_INT & CyPmReadStatus(CY_PM_FTW_INT)))
 2343              		.loc 1 1378 0
 2344 0050 00BF     		nop
 2345              	.L173:
 2346              		.loc 1 1378 0 is_stmt 0 discriminator 1
 2347 0052 0120     		movs	r0, #1
 2348 0054 FFF7FEFF 		bl	CyPmReadStatus
 2349 0058 0346     		mov	r3, r0
 2350 005a 03F00103 		and	r3, r3, #1
 2351 005e DBB2     		uxtb	r3, r3
 2352 0060 002B     		cmp	r3, #0
 2353 0062 F6D0     		beq	.L173
1376:.\Generated_Source\PSoC5/CyLib.c ****             {
 2354              		.loc 1 1376 0 is_stmt 1 discriminator 2
 2355 0064 FB7B     		ldrb	r3, [r7, #15]
 2356 0066 DBB2     		uxtb	r3, r3
 2357 0068 013B     		subs	r3, r3, #1
 2358 006a DBB2     		uxtb	r3, r3
 2359 006c FB73     		strb	r3, [r7, #15]
 2360              	.L172:
1376:.\Generated_Source\PSoC5/CyLib.c ****             {
 2361              		.loc 1 1376 0 is_stmt 0 discriminator 1
 2362 006e FB7B     		ldrb	r3, [r7, #15]
ARM GAS  C:\Users\faithc\AppData\Local\Temp\ccpkbr6m.s 			page 67


 2363 0070 DBB2     		uxtb	r3, r3
 2364 0072 002B     		cmp	r3, #0
 2365 0074 ECD1     		bne	.L174
1379:.\Generated_Source\PSoC5/CyLib.c ****                 {
1380:.\Generated_Source\PSoC5/CyLib.c ****                     /* Wait for FTW interrupt event */
1381:.\Generated_Source\PSoC5/CyLib.c ****                 }
1382:.\Generated_Source\PSoC5/CyLib.c ****             }
1383:.\Generated_Source\PSoC5/CyLib.c **** 
1384:.\Generated_Source\PSoC5/CyLib.c **** 
1385:.\Generated_Source\PSoC5/CyLib.c ****             /*******************************************************************
1386:.\Generated_Source\PSoC5/CyLib.c ****             * High output indicates an oscillator failure.
1387:.\Generated_Source\PSoC5/CyLib.c ****             * Only can be used after a start-up interval (1 ms) is completed.
1388:.\Generated_Source\PSoC5/CyLib.c ****             *******************************************************************/
1389:.\Generated_Source\PSoC5/CyLib.c ****             if(0u == (CY_CLK_XMHZ_CSR_REG & CY_CLK_XMHZ_CSR_XERR))
 2366              		.loc 1 1389 0 is_stmt 1
 2367 0076 124B     		ldr	r3, .L180
 2368 0078 1B78     		ldrb	r3, [r3]
 2369 007a DBB2     		uxtb	r3, r3
 2370 007c DBB2     		uxtb	r3, r3
 2371 007e 5BB2     		sxtb	r3, r3
 2372 0080 002B     		cmp	r3, #0
 2373 0082 02DB     		blt	.L175
1390:.\Generated_Source\PSoC5/CyLib.c ****             {
1391:.\Generated_Source\PSoC5/CyLib.c ****                 status = CYRET_SUCCESS;
 2374              		.loc 1 1391 0
 2375 0084 0023     		movs	r3, #0
 2376 0086 7B61     		str	r3, [r7, #20]
1392:.\Generated_Source\PSoC5/CyLib.c ****                 break;
 2377              		.loc 1 1392 0
 2378 0088 08E0     		b	.L176
 2379              	.L175:
1370:.\Generated_Source\PSoC5/CyLib.c ****         {
 2380              		.loc 1 1370 0
 2381 008a 3B7C     		ldrb	r3, [r7, #16]
 2382 008c DBB2     		uxtb	r3, r3
 2383 008e 013B     		subs	r3, r3, #1
 2384 0090 DBB2     		uxtb	r3, r3
 2385 0092 3B74     		strb	r3, [r7, #16]
 2386              	.L171:
1370:.\Generated_Source\PSoC5/CyLib.c ****         {
 2387              		.loc 1 1370 0 is_stmt 0 discriminator 1
 2388 0094 3B7C     		ldrb	r3, [r7, #16]
 2389 0096 DBB2     		uxtb	r3, r3
 2390 0098 002B     		cmp	r3, #0
 2391 009a D4D1     		bne	.L177
 2392              	.L176:
1393:.\Generated_Source\PSoC5/CyLib.c ****             }
1394:.\Generated_Source\PSoC5/CyLib.c ****         }
1395:.\Generated_Source\PSoC5/CyLib.c **** 
1396:.\Generated_Source\PSoC5/CyLib.c **** 
1397:.\Generated_Source\PSoC5/CyLib.c ****         /* Restore 100 KHz ILO, FTW interval, enable and interrupt enable */
1398:.\Generated_Source\PSoC5/CyLib.c ****         if(0u == (iloEnableState & CY_LIB_SLOWCLK_ILO_CR0_EN_100KHZ))
 2393              		.loc 1 1398 0 is_stmt 1
 2394 009c FB7C     		ldrb	r3, [r7, #19]	@ zero_extendqisi2
 2395 009e 03F00403 		and	r3, r3, #4
 2396 00a2 002B     		cmp	r3, #0
 2397 00a4 01D1     		bne	.L178
ARM GAS  C:\Users\faithc\AppData\Local\Temp\ccpkbr6m.s 			page 68


1399:.\Generated_Source\PSoC5/CyLib.c ****         {
1400:.\Generated_Source\PSoC5/CyLib.c ****             CyILO_Stop100K();
 2398              		.loc 1 1400 0
 2399 00a6 FFF7FEFF 		bl	CyILO_Stop100K
 2400              	.L178:
1401:.\Generated_Source\PSoC5/CyLib.c ****         }
1402:.\Generated_Source\PSoC5/CyLib.c ****         CY_LIB_PM_TW_CFG0_REG = pmTwCfg0Tmp;
 2401              		.loc 1 1402 0
 2402 00aa 074A     		ldr	r2, .L180+8
 2403 00ac BB7C     		ldrb	r3, [r7, #18]
 2404 00ae 1370     		strb	r3, [r2]
1403:.\Generated_Source\PSoC5/CyLib.c ****         CY_LIB_PM_TW_CFG2_REG = pmTwCfg2Tmp;
 2405              		.loc 1 1403 0
 2406 00b0 064A     		ldr	r2, .L180+12
 2407 00b2 7B7C     		ldrb	r3, [r7, #17]
 2408 00b4 1370     		strb	r3, [r2]
 2409              	.L170:
1404:.\Generated_Source\PSoC5/CyLib.c ****     }
1405:.\Generated_Source\PSoC5/CyLib.c **** 
1406:.\Generated_Source\PSoC5/CyLib.c ****     return(status);
 2410              		.loc 1 1406 0
 2411 00b6 7B69     		ldr	r3, [r7, #20]
1407:.\Generated_Source\PSoC5/CyLib.c **** }
 2412              		.loc 1 1407 0
 2413 00b8 1846     		mov	r0, r3
 2414 00ba 1837     		adds	r7, r7, #24
 2415              		.cfi_def_cfa_offset 8
 2416 00bc BD46     		mov	sp, r7
 2417              		.cfi_def_cfa_register 13
 2418              		@ sp needed
 2419 00be 80BD     		pop	{r7, pc}
 2420              	.L181:
 2421              		.align	2
 2422              	.L180:
 2423 00c0 10420040 		.word	1073758736
 2424 00c4 00430040 		.word	1073758976
 2425 00c8 80430040 		.word	1073759104
 2426 00cc 82430040 		.word	1073759106
 2427              		.cfi_endproc
 2428              	.LFE29:
 2429              		.size	CyXTAL_Start, .-CyXTAL_Start
 2430              		.section	.text.CyXTAL_Stop,"ax",%progbits
 2431              		.align	2
 2432              		.global	CyXTAL_Stop
 2433              		.thumb
 2434              		.thumb_func
 2435              		.type	CyXTAL_Stop, %function
 2436              	CyXTAL_Stop:
 2437              	.LFB30:
1408:.\Generated_Source\PSoC5/CyLib.c **** 
1409:.\Generated_Source\PSoC5/CyLib.c **** 
1410:.\Generated_Source\PSoC5/CyLib.c **** /*******************************************************************************
1411:.\Generated_Source\PSoC5/CyLib.c **** * Function Name: CyXTAL_Stop
1412:.\Generated_Source\PSoC5/CyLib.c **** ********************************************************************************
1413:.\Generated_Source\PSoC5/CyLib.c **** *
1414:.\Generated_Source\PSoC5/CyLib.c **** * Summary:
1415:.\Generated_Source\PSoC5/CyLib.c **** *  Disables the megahertz crystal oscillator.
ARM GAS  C:\Users\faithc\AppData\Local\Temp\ccpkbr6m.s 			page 69


1416:.\Generated_Source\PSoC5/CyLib.c **** *
1417:.\Generated_Source\PSoC5/CyLib.c **** * Parameters:
1418:.\Generated_Source\PSoC5/CyLib.c **** *  None
1419:.\Generated_Source\PSoC5/CyLib.c **** *
1420:.\Generated_Source\PSoC5/CyLib.c **** * Return:
1421:.\Generated_Source\PSoC5/CyLib.c **** *  None
1422:.\Generated_Source\PSoC5/CyLib.c **** *
1423:.\Generated_Source\PSoC5/CyLib.c **** *******************************************************************************/
1424:.\Generated_Source\PSoC5/CyLib.c **** void CyXTAL_Stop(void) 
1425:.\Generated_Source\PSoC5/CyLib.c **** {
 2438              		.loc 1 1425 0
 2439              		.cfi_startproc
 2440              		@ args = 0, pretend = 0, frame = 0
 2441              		@ frame_needed = 1, uses_anonymous_args = 0
 2442              		@ link register save eliminated.
 2443 0000 80B4     		push	{r7}
 2444              		.cfi_def_cfa_offset 4
 2445              		.cfi_offset 7, -4
 2446 0002 00AF     		add	r7, sp, #0
 2447              		.cfi_def_cfa_register 7
1426:.\Generated_Source\PSoC5/CyLib.c ****     /* Disable oscillator. */
1427:.\Generated_Source\PSoC5/CyLib.c ****     FASTCLK_XMHZ_CSR &= ((uint8)(~XMHZ_CONTROL_ENABLE));
 2448              		.loc 1 1427 0
 2449 0004 054A     		ldr	r2, .L183
 2450 0006 054B     		ldr	r3, .L183
 2451 0008 1B78     		ldrb	r3, [r3]
 2452 000a DBB2     		uxtb	r3, r3
 2453 000c 23F00103 		bic	r3, r3, #1
 2454 0010 DBB2     		uxtb	r3, r3
 2455 0012 1370     		strb	r3, [r2]
1428:.\Generated_Source\PSoC5/CyLib.c **** }
 2456              		.loc 1 1428 0
 2457 0014 BD46     		mov	sp, r7
 2458              		.cfi_def_cfa_register 13
 2459              		@ sp needed
 2460 0016 5DF8047B 		ldr	r7, [sp], #4
 2461              		.cfi_restore 7
 2462              		.cfi_def_cfa_offset 0
 2463 001a 7047     		bx	lr
 2464              	.L184:
 2465              		.align	2
 2466              	.L183:
 2467 001c 10420040 		.word	1073758736
 2468              		.cfi_endproc
 2469              	.LFE30:
 2470              		.size	CyXTAL_Stop, .-CyXTAL_Stop
 2471              		.section	.text.CyXTAL_EnableErrStatus,"ax",%progbits
 2472              		.align	2
 2473              		.global	CyXTAL_EnableErrStatus
 2474              		.thumb
 2475              		.thumb_func
 2476              		.type	CyXTAL_EnableErrStatus, %function
 2477              	CyXTAL_EnableErrStatus:
 2478              	.LFB31:
1429:.\Generated_Source\PSoC5/CyLib.c **** 
1430:.\Generated_Source\PSoC5/CyLib.c **** 
1431:.\Generated_Source\PSoC5/CyLib.c **** /*******************************************************************************
ARM GAS  C:\Users\faithc\AppData\Local\Temp\ccpkbr6m.s 			page 70


1432:.\Generated_Source\PSoC5/CyLib.c **** * Function Name: CyXTAL_EnableErrStatus
1433:.\Generated_Source\PSoC5/CyLib.c **** ********************************************************************************
1434:.\Generated_Source\PSoC5/CyLib.c **** *
1435:.\Generated_Source\PSoC5/CyLib.c **** * Summary:
1436:.\Generated_Source\PSoC5/CyLib.c **** *  Enables the generation of the XERR status bit for the megahertz crystal.
1437:.\Generated_Source\PSoC5/CyLib.c **** *  This function is not available for PSoC5.
1438:.\Generated_Source\PSoC5/CyLib.c **** *
1439:.\Generated_Source\PSoC5/CyLib.c **** * Parameters:
1440:.\Generated_Source\PSoC5/CyLib.c **** *  None
1441:.\Generated_Source\PSoC5/CyLib.c **** *
1442:.\Generated_Source\PSoC5/CyLib.c **** * Return:
1443:.\Generated_Source\PSoC5/CyLib.c **** *  None
1444:.\Generated_Source\PSoC5/CyLib.c **** *
1445:.\Generated_Source\PSoC5/CyLib.c **** *******************************************************************************/
1446:.\Generated_Source\PSoC5/CyLib.c **** void CyXTAL_EnableErrStatus(void) 
1447:.\Generated_Source\PSoC5/CyLib.c **** {
 2479              		.loc 1 1447 0
 2480              		.cfi_startproc
 2481              		@ args = 0, pretend = 0, frame = 0
 2482              		@ frame_needed = 1, uses_anonymous_args = 0
 2483              		@ link register save eliminated.
 2484 0000 80B4     		push	{r7}
 2485              		.cfi_def_cfa_offset 4
 2486              		.cfi_offset 7, -4
 2487 0002 00AF     		add	r7, sp, #0
 2488              		.cfi_def_cfa_register 7
1448:.\Generated_Source\PSoC5/CyLib.c ****     /* If oscillator has insufficient amplitude, XERR bit will be high. */
1449:.\Generated_Source\PSoC5/CyLib.c ****     CY_CLK_XMHZ_CSR_REG &= ((uint8)(~CY_CLK_XMHZ_CSR_XFB));
 2489              		.loc 1 1449 0
 2490 0004 054A     		ldr	r2, .L186
 2491 0006 054B     		ldr	r3, .L186
 2492 0008 1B78     		ldrb	r3, [r3]
 2493 000a DBB2     		uxtb	r3, r3
 2494 000c 23F00403 		bic	r3, r3, #4
 2495 0010 DBB2     		uxtb	r3, r3
 2496 0012 1370     		strb	r3, [r2]
1450:.\Generated_Source\PSoC5/CyLib.c **** }
 2497              		.loc 1 1450 0
 2498 0014 BD46     		mov	sp, r7
 2499              		.cfi_def_cfa_register 13
 2500              		@ sp needed
 2501 0016 5DF8047B 		ldr	r7, [sp], #4
 2502              		.cfi_restore 7
 2503              		.cfi_def_cfa_offset 0
 2504 001a 7047     		bx	lr
 2505              	.L187:
 2506              		.align	2
 2507              	.L186:
 2508 001c 10420040 		.word	1073758736
 2509              		.cfi_endproc
 2510              	.LFE31:
 2511              		.size	CyXTAL_EnableErrStatus, .-CyXTAL_EnableErrStatus
 2512              		.section	.text.CyXTAL_DisableErrStatus,"ax",%progbits
 2513              		.align	2
 2514              		.global	CyXTAL_DisableErrStatus
 2515              		.thumb
 2516              		.thumb_func
ARM GAS  C:\Users\faithc\AppData\Local\Temp\ccpkbr6m.s 			page 71


 2517              		.type	CyXTAL_DisableErrStatus, %function
 2518              	CyXTAL_DisableErrStatus:
 2519              	.LFB32:
1451:.\Generated_Source\PSoC5/CyLib.c **** 
1452:.\Generated_Source\PSoC5/CyLib.c **** 
1453:.\Generated_Source\PSoC5/CyLib.c **** /*******************************************************************************
1454:.\Generated_Source\PSoC5/CyLib.c **** * Function Name: CyXTAL_DisableErrStatus
1455:.\Generated_Source\PSoC5/CyLib.c **** ********************************************************************************
1456:.\Generated_Source\PSoC5/CyLib.c **** *
1457:.\Generated_Source\PSoC5/CyLib.c **** * Summary:
1458:.\Generated_Source\PSoC5/CyLib.c **** *  Disables the generation of the XERR status bit for the megahertz crystal.
1459:.\Generated_Source\PSoC5/CyLib.c **** *  This function is not available for PSoC5.
1460:.\Generated_Source\PSoC5/CyLib.c **** *
1461:.\Generated_Source\PSoC5/CyLib.c **** * Parameters:
1462:.\Generated_Source\PSoC5/CyLib.c **** *  None
1463:.\Generated_Source\PSoC5/CyLib.c **** *
1464:.\Generated_Source\PSoC5/CyLib.c **** * Return:
1465:.\Generated_Source\PSoC5/CyLib.c **** *  None
1466:.\Generated_Source\PSoC5/CyLib.c **** *
1467:.\Generated_Source\PSoC5/CyLib.c **** *******************************************************************************/
1468:.\Generated_Source\PSoC5/CyLib.c **** void CyXTAL_DisableErrStatus(void) 
1469:.\Generated_Source\PSoC5/CyLib.c **** {
 2520              		.loc 1 1469 0
 2521              		.cfi_startproc
 2522              		@ args = 0, pretend = 0, frame = 0
 2523              		@ frame_needed = 1, uses_anonymous_args = 0
 2524              		@ link register save eliminated.
 2525 0000 80B4     		push	{r7}
 2526              		.cfi_def_cfa_offset 4
 2527              		.cfi_offset 7, -4
 2528 0002 00AF     		add	r7, sp, #0
 2529              		.cfi_def_cfa_register 7
1470:.\Generated_Source\PSoC5/CyLib.c ****     /* If oscillator has insufficient amplitude, XERR bit will be high. */
1471:.\Generated_Source\PSoC5/CyLib.c ****     CY_CLK_XMHZ_CSR_REG |= CY_CLK_XMHZ_CSR_XFB;
 2530              		.loc 1 1471 0
 2531 0004 054A     		ldr	r2, .L189
 2532 0006 054B     		ldr	r3, .L189
 2533 0008 1B78     		ldrb	r3, [r3]
 2534 000a DBB2     		uxtb	r3, r3
 2535 000c 43F00403 		orr	r3, r3, #4
 2536 0010 DBB2     		uxtb	r3, r3
 2537 0012 1370     		strb	r3, [r2]
1472:.\Generated_Source\PSoC5/CyLib.c **** }
 2538              		.loc 1 1472 0
 2539 0014 BD46     		mov	sp, r7
 2540              		.cfi_def_cfa_register 13
 2541              		@ sp needed
 2542 0016 5DF8047B 		ldr	r7, [sp], #4
 2543              		.cfi_restore 7
 2544              		.cfi_def_cfa_offset 0
 2545 001a 7047     		bx	lr
 2546              	.L190:
 2547              		.align	2
 2548              	.L189:
 2549 001c 10420040 		.word	1073758736
 2550              		.cfi_endproc
 2551              	.LFE32:
ARM GAS  C:\Users\faithc\AppData\Local\Temp\ccpkbr6m.s 			page 72


 2552              		.size	CyXTAL_DisableErrStatus, .-CyXTAL_DisableErrStatus
 2553              		.section	.text.CyXTAL_ReadStatus,"ax",%progbits
 2554              		.align	2
 2555              		.global	CyXTAL_ReadStatus
 2556              		.thumb
 2557              		.thumb_func
 2558              		.type	CyXTAL_ReadStatus, %function
 2559              	CyXTAL_ReadStatus:
 2560              	.LFB33:
1473:.\Generated_Source\PSoC5/CyLib.c **** 
1474:.\Generated_Source\PSoC5/CyLib.c **** 
1475:.\Generated_Source\PSoC5/CyLib.c **** /*******************************************************************************
1476:.\Generated_Source\PSoC5/CyLib.c **** * Function Name: CyXTAL_ReadStatus
1477:.\Generated_Source\PSoC5/CyLib.c **** ********************************************************************************
1478:.\Generated_Source\PSoC5/CyLib.c **** *
1479:.\Generated_Source\PSoC5/CyLib.c **** * Summary:
1480:.\Generated_Source\PSoC5/CyLib.c **** *  Reads the XERR status bit for the megahertz crystal. This status bit is a
1481:.\Generated_Source\PSoC5/CyLib.c **** *  sticky, clear on read. This function is not available for PSoC5.
1482:.\Generated_Source\PSoC5/CyLib.c **** *
1483:.\Generated_Source\PSoC5/CyLib.c **** * Parameters:
1484:.\Generated_Source\PSoC5/CyLib.c **** *  None
1485:.\Generated_Source\PSoC5/CyLib.c **** *
1486:.\Generated_Source\PSoC5/CyLib.c **** * Return:
1487:.\Generated_Source\PSoC5/CyLib.c **** *   Status
1488:.\Generated_Source\PSoC5/CyLib.c **** *    0: No error
1489:.\Generated_Source\PSoC5/CyLib.c **** *    1: Error
1490:.\Generated_Source\PSoC5/CyLib.c **** *
1491:.\Generated_Source\PSoC5/CyLib.c **** *******************************************************************************/
1492:.\Generated_Source\PSoC5/CyLib.c **** uint8 CyXTAL_ReadStatus(void) 
1493:.\Generated_Source\PSoC5/CyLib.c **** {
 2561              		.loc 1 1493 0
 2562              		.cfi_startproc
 2563              		@ args = 0, pretend = 0, frame = 0
 2564              		@ frame_needed = 1, uses_anonymous_args = 0
 2565              		@ link register save eliminated.
 2566 0000 80B4     		push	{r7}
 2567              		.cfi_def_cfa_offset 4
 2568              		.cfi_offset 7, -4
 2569 0002 00AF     		add	r7, sp, #0
 2570              		.cfi_def_cfa_register 7
1494:.\Generated_Source\PSoC5/CyLib.c ****     /***************************************************************************
1495:.\Generated_Source\PSoC5/CyLib.c ****     * High output indicates an oscillator failure. Only use this after a start-up
1496:.\Generated_Source\PSoC5/CyLib.c ****     * interval is completed. This can be used for the status and failure recovery.
1497:.\Generated_Source\PSoC5/CyLib.c ****     ***************************************************************************/
1498:.\Generated_Source\PSoC5/CyLib.c ****     return((0u != (CY_CLK_XMHZ_CSR_REG & CY_CLK_XMHZ_CSR_XERR)) ? 1u : 0u);
 2571              		.loc 1 1498 0
 2572 0004 074B     		ldr	r3, .L195
 2573 0006 1B78     		ldrb	r3, [r3]
 2574 0008 DBB2     		uxtb	r3, r3
 2575 000a DBB2     		uxtb	r3, r3
 2576 000c 5BB2     		sxtb	r3, r3
 2577 000e 002B     		cmp	r3, #0
 2578 0010 01DA     		bge	.L192
 2579              		.loc 1 1498 0 is_stmt 0 discriminator 1
 2580 0012 0123     		movs	r3, #1
 2581 0014 00E0     		b	.L193
 2582              	.L192:
ARM GAS  C:\Users\faithc\AppData\Local\Temp\ccpkbr6m.s 			page 73


 2583              		.loc 1 1498 0 discriminator 2
 2584 0016 0023     		movs	r3, #0
 2585              	.L193:
1499:.\Generated_Source\PSoC5/CyLib.c **** }
 2586              		.loc 1 1499 0 is_stmt 1 discriminator 4
 2587 0018 1846     		mov	r0, r3
 2588 001a BD46     		mov	sp, r7
 2589              		.cfi_def_cfa_register 13
 2590              		@ sp needed
 2591 001c 5DF8047B 		ldr	r7, [sp], #4
 2592              		.cfi_restore 7
 2593              		.cfi_def_cfa_offset 0
 2594 0020 7047     		bx	lr
 2595              	.L196:
 2596 0022 00BF     		.align	2
 2597              	.L195:
 2598 0024 10420040 		.word	1073758736
 2599              		.cfi_endproc
 2600              	.LFE33:
 2601              		.size	CyXTAL_ReadStatus, .-CyXTAL_ReadStatus
 2602              		.section	.text.CyXTAL_EnableFaultRecovery,"ax",%progbits
 2603              		.align	2
 2604              		.global	CyXTAL_EnableFaultRecovery
 2605              		.thumb
 2606              		.thumb_func
 2607              		.type	CyXTAL_EnableFaultRecovery, %function
 2608              	CyXTAL_EnableFaultRecovery:
 2609              	.LFB34:
1500:.\Generated_Source\PSoC5/CyLib.c **** 
1501:.\Generated_Source\PSoC5/CyLib.c **** 
1502:.\Generated_Source\PSoC5/CyLib.c **** /*******************************************************************************
1503:.\Generated_Source\PSoC5/CyLib.c **** * Function Name: CyXTAL_EnableFaultRecovery
1504:.\Generated_Source\PSoC5/CyLib.c **** ********************************************************************************
1505:.\Generated_Source\PSoC5/CyLib.c **** *
1506:.\Generated_Source\PSoC5/CyLib.c **** * Summary:
1507:.\Generated_Source\PSoC5/CyLib.c **** *  Enables the fault recovery circuit which will switch to the IMO in the case
1508:.\Generated_Source\PSoC5/CyLib.c **** *  of a fault in the megahertz crystal circuit. The crystal must be up and
1509:.\Generated_Source\PSoC5/CyLib.c **** *  running with the XERR bit at 0, before calling this function to prevent
1510:.\Generated_Source\PSoC5/CyLib.c **** *  an immediate fault switchover. This function is not available for PSoC5.
1511:.\Generated_Source\PSoC5/CyLib.c **** *
1512:.\Generated_Source\PSoC5/CyLib.c **** * Parameters:
1513:.\Generated_Source\PSoC5/CyLib.c **** *  None
1514:.\Generated_Source\PSoC5/CyLib.c **** *
1515:.\Generated_Source\PSoC5/CyLib.c **** * Return:
1516:.\Generated_Source\PSoC5/CyLib.c **** *  None
1517:.\Generated_Source\PSoC5/CyLib.c **** *
1518:.\Generated_Source\PSoC5/CyLib.c **** *******************************************************************************/
1519:.\Generated_Source\PSoC5/CyLib.c **** void CyXTAL_EnableFaultRecovery(void) 
1520:.\Generated_Source\PSoC5/CyLib.c **** {
 2610              		.loc 1 1520 0
 2611              		.cfi_startproc
 2612              		@ args = 0, pretend = 0, frame = 0
 2613              		@ frame_needed = 1, uses_anonymous_args = 0
 2614              		@ link register save eliminated.
 2615 0000 80B4     		push	{r7}
 2616              		.cfi_def_cfa_offset 4
 2617              		.cfi_offset 7, -4
ARM GAS  C:\Users\faithc\AppData\Local\Temp\ccpkbr6m.s 			page 74


 2618 0002 00AF     		add	r7, sp, #0
 2619              		.cfi_def_cfa_register 7
1521:.\Generated_Source\PSoC5/CyLib.c ****     CY_CLK_XMHZ_CSR_REG |= CY_CLK_XMHZ_CSR_XPROT;
 2620              		.loc 1 1521 0
 2621 0004 054A     		ldr	r2, .L198
 2622 0006 054B     		ldr	r3, .L198
 2623 0008 1B78     		ldrb	r3, [r3]
 2624 000a DBB2     		uxtb	r3, r3
 2625 000c 43F04003 		orr	r3, r3, #64
 2626 0010 DBB2     		uxtb	r3, r3
 2627 0012 1370     		strb	r3, [r2]
1522:.\Generated_Source\PSoC5/CyLib.c **** }
 2628              		.loc 1 1522 0
 2629 0014 BD46     		mov	sp, r7
 2630              		.cfi_def_cfa_register 13
 2631              		@ sp needed
 2632 0016 5DF8047B 		ldr	r7, [sp], #4
 2633              		.cfi_restore 7
 2634              		.cfi_def_cfa_offset 0
 2635 001a 7047     		bx	lr
 2636              	.L199:
 2637              		.align	2
 2638              	.L198:
 2639 001c 10420040 		.word	1073758736
 2640              		.cfi_endproc
 2641              	.LFE34:
 2642              		.size	CyXTAL_EnableFaultRecovery, .-CyXTAL_EnableFaultRecovery
 2643              		.section	.text.CyXTAL_DisableFaultRecovery,"ax",%progbits
 2644              		.align	2
 2645              		.global	CyXTAL_DisableFaultRecovery
 2646              		.thumb
 2647              		.thumb_func
 2648              		.type	CyXTAL_DisableFaultRecovery, %function
 2649              	CyXTAL_DisableFaultRecovery:
 2650              	.LFB35:
1523:.\Generated_Source\PSoC5/CyLib.c **** 
1524:.\Generated_Source\PSoC5/CyLib.c **** 
1525:.\Generated_Source\PSoC5/CyLib.c **** /*******************************************************************************
1526:.\Generated_Source\PSoC5/CyLib.c **** * Function Name: CyXTAL_DisableFaultRecovery
1527:.\Generated_Source\PSoC5/CyLib.c **** ********************************************************************************
1528:.\Generated_Source\PSoC5/CyLib.c **** *
1529:.\Generated_Source\PSoC5/CyLib.c **** * Summary:
1530:.\Generated_Source\PSoC5/CyLib.c **** *  Disables the fault recovery circuit which will switch to the IMO in the case
1531:.\Generated_Source\PSoC5/CyLib.c **** *  of a fault in the megahertz crystal circuit. This function is not available
1532:.\Generated_Source\PSoC5/CyLib.c **** *  for PSoC5.
1533:.\Generated_Source\PSoC5/CyLib.c **** *
1534:.\Generated_Source\PSoC5/CyLib.c **** * Parameters:
1535:.\Generated_Source\PSoC5/CyLib.c **** *  None
1536:.\Generated_Source\PSoC5/CyLib.c **** *
1537:.\Generated_Source\PSoC5/CyLib.c **** * Return:
1538:.\Generated_Source\PSoC5/CyLib.c **** *  None
1539:.\Generated_Source\PSoC5/CyLib.c **** *
1540:.\Generated_Source\PSoC5/CyLib.c **** *******************************************************************************/
1541:.\Generated_Source\PSoC5/CyLib.c **** void CyXTAL_DisableFaultRecovery(void) 
1542:.\Generated_Source\PSoC5/CyLib.c **** {
 2651              		.loc 1 1542 0
 2652              		.cfi_startproc
ARM GAS  C:\Users\faithc\AppData\Local\Temp\ccpkbr6m.s 			page 75


 2653              		@ args = 0, pretend = 0, frame = 0
 2654              		@ frame_needed = 1, uses_anonymous_args = 0
 2655              		@ link register save eliminated.
 2656 0000 80B4     		push	{r7}
 2657              		.cfi_def_cfa_offset 4
 2658              		.cfi_offset 7, -4
 2659 0002 00AF     		add	r7, sp, #0
 2660              		.cfi_def_cfa_register 7
1543:.\Generated_Source\PSoC5/CyLib.c ****     CY_CLK_XMHZ_CSR_REG &= ((uint8)(~CY_CLK_XMHZ_CSR_XPROT));
 2661              		.loc 1 1543 0
 2662 0004 054A     		ldr	r2, .L201
 2663 0006 054B     		ldr	r3, .L201
 2664 0008 1B78     		ldrb	r3, [r3]
 2665 000a DBB2     		uxtb	r3, r3
 2666 000c 23F04003 		bic	r3, r3, #64
 2667 0010 DBB2     		uxtb	r3, r3
 2668 0012 1370     		strb	r3, [r2]
1544:.\Generated_Source\PSoC5/CyLib.c **** }
 2669              		.loc 1 1544 0
 2670 0014 BD46     		mov	sp, r7
 2671              		.cfi_def_cfa_register 13
 2672              		@ sp needed
 2673 0016 5DF8047B 		ldr	r7, [sp], #4
 2674              		.cfi_restore 7
 2675              		.cfi_def_cfa_offset 0
 2676 001a 7047     		bx	lr
 2677              	.L202:
 2678              		.align	2
 2679              	.L201:
 2680 001c 10420040 		.word	1073758736
 2681              		.cfi_endproc
 2682              	.LFE35:
 2683              		.size	CyXTAL_DisableFaultRecovery, .-CyXTAL_DisableFaultRecovery
 2684              		.section	.text.CyXTAL_SetStartup,"ax",%progbits
 2685              		.align	2
 2686              		.global	CyXTAL_SetStartup
 2687              		.thumb
 2688              		.thumb_func
 2689              		.type	CyXTAL_SetStartup, %function
 2690              	CyXTAL_SetStartup:
 2691              	.LFB36:
1545:.\Generated_Source\PSoC5/CyLib.c **** 
1546:.\Generated_Source\PSoC5/CyLib.c **** 
1547:.\Generated_Source\PSoC5/CyLib.c **** /*******************************************************************************
1548:.\Generated_Source\PSoC5/CyLib.c **** * Function Name: CyXTAL_SetStartup
1549:.\Generated_Source\PSoC5/CyLib.c **** ********************************************************************************
1550:.\Generated_Source\PSoC5/CyLib.c **** *
1551:.\Generated_Source\PSoC5/CyLib.c **** * Summary:
1552:.\Generated_Source\PSoC5/CyLib.c **** *  Sets the startup settings for the crystal. The logic model outputs a
1553:.\Generated_Source\PSoC5/CyLib.c **** *  frequency (setting + 4) MHz when enabled.
1554:.\Generated_Source\PSoC5/CyLib.c **** *
1555:.\Generated_Source\PSoC5/CyLib.c **** *  This is artificial as the actual frequency is determined by an attached
1556:.\Generated_Source\PSoC5/CyLib.c **** *  external crystal.
1557:.\Generated_Source\PSoC5/CyLib.c **** *
1558:.\Generated_Source\PSoC5/CyLib.c **** * Parameters:
1559:.\Generated_Source\PSoC5/CyLib.c **** *  setting: Valid range [0-31].
1560:.\Generated_Source\PSoC5/CyLib.c **** *   The value is dependent on the frequency and quality of the crystal being
ARM GAS  C:\Users\faithc\AppData\Local\Temp\ccpkbr6m.s 			page 76


1561:.\Generated_Source\PSoC5/CyLib.c **** *   used. Refer to the device TRM and datasheet for more information.
1562:.\Generated_Source\PSoC5/CyLib.c **** *
1563:.\Generated_Source\PSoC5/CyLib.c **** * Return:
1564:.\Generated_Source\PSoC5/CyLib.c **** *  None
1565:.\Generated_Source\PSoC5/CyLib.c **** *
1566:.\Generated_Source\PSoC5/CyLib.c **** *******************************************************************************/
1567:.\Generated_Source\PSoC5/CyLib.c **** void CyXTAL_SetStartup(uint8 setting) 
1568:.\Generated_Source\PSoC5/CyLib.c **** {
 2692              		.loc 1 1568 0
 2693              		.cfi_startproc
 2694              		@ args = 0, pretend = 0, frame = 8
 2695              		@ frame_needed = 1, uses_anonymous_args = 0
 2696              		@ link register save eliminated.
 2697 0000 80B4     		push	{r7}
 2698              		.cfi_def_cfa_offset 4
 2699              		.cfi_offset 7, -4
 2700 0002 83B0     		sub	sp, sp, #12
 2701              		.cfi_def_cfa_offset 16
 2702 0004 00AF     		add	r7, sp, #0
 2703              		.cfi_def_cfa_register 7
 2704 0006 0346     		mov	r3, r0
 2705 0008 FB71     		strb	r3, [r7, #7]
1569:.\Generated_Source\PSoC5/CyLib.c ****     CY_CLK_XMHZ_CFG0_REG = (CY_CLK_XMHZ_CFG0_REG & ((uint8)(~CY_CLK_XMHZ_CFG0_XCFG_MASK))) |
 2706              		.loc 1 1569 0
 2707 000a 0949     		ldr	r1, .L204
 2708 000c 084B     		ldr	r3, .L204
 2709 000e 1B78     		ldrb	r3, [r3]
 2710 0010 DBB2     		uxtb	r3, r3
 2711 0012 23F01F03 		bic	r3, r3, #31
 2712 0016 DAB2     		uxtb	r2, r3
 2713 0018 FB79     		ldrb	r3, [r7, #7]
 2714 001a 03F01F03 		and	r3, r3, #31
 2715 001e DBB2     		uxtb	r3, r3
 2716 0020 1343     		orrs	r3, r3, r2
 2717 0022 DBB2     		uxtb	r3, r3
 2718 0024 0B70     		strb	r3, [r1]
1570:.\Generated_Source\PSoC5/CyLib.c ****                            (setting & CY_CLK_XMHZ_CFG0_XCFG_MASK);
1571:.\Generated_Source\PSoC5/CyLib.c **** }
 2719              		.loc 1 1571 0
 2720 0026 0C37     		adds	r7, r7, #12
 2721              		.cfi_def_cfa_offset 4
 2722 0028 BD46     		mov	sp, r7
 2723              		.cfi_def_cfa_register 13
 2724              		@ sp needed
 2725 002a 5DF8047B 		ldr	r7, [sp], #4
 2726              		.cfi_restore 7
 2727              		.cfi_def_cfa_offset 0
 2728 002e 7047     		bx	lr
 2729              	.L205:
 2730              		.align	2
 2731              	.L204:
 2732 0030 12420040 		.word	1073758738
 2733              		.cfi_endproc
 2734              	.LFE36:
 2735              		.size	CyXTAL_SetStartup, .-CyXTAL_SetStartup
 2736              		.section	.text.CyXTAL_SetFbVoltage,"ax",%progbits
 2737              		.align	2
ARM GAS  C:\Users\faithc\AppData\Local\Temp\ccpkbr6m.s 			page 77


 2738              		.global	CyXTAL_SetFbVoltage
 2739              		.thumb
 2740              		.thumb_func
 2741              		.type	CyXTAL_SetFbVoltage, %function
 2742              	CyXTAL_SetFbVoltage:
 2743              	.LFB37:
1572:.\Generated_Source\PSoC5/CyLib.c **** 
1573:.\Generated_Source\PSoC5/CyLib.c **** 
1574:.\Generated_Source\PSoC5/CyLib.c **** 
1575:.\Generated_Source\PSoC5/CyLib.c **** /*******************************************************************************
1576:.\Generated_Source\PSoC5/CyLib.c **** * Function Name: CyXTAL_SetFbVoltage
1577:.\Generated_Source\PSoC5/CyLib.c **** ********************************************************************************
1578:.\Generated_Source\PSoC5/CyLib.c **** *
1579:.\Generated_Source\PSoC5/CyLib.c **** * Summary:
1580:.\Generated_Source\PSoC5/CyLib.c **** *  Sets the feedback reference voltage to use for the crystal circuit.
1581:.\Generated_Source\PSoC5/CyLib.c **** *  This function is only available for PSoC3 and PSoC 5LP.
1582:.\Generated_Source\PSoC5/CyLib.c **** *
1583:.\Generated_Source\PSoC5/CyLib.c **** * Parameters:
1584:.\Generated_Source\PSoC5/CyLib.c **** *  setting: Valid range [0-15].
1585:.\Generated_Source\PSoC5/CyLib.c **** *  Refer to the device TRM and datasheet for more information.
1586:.\Generated_Source\PSoC5/CyLib.c **** *
1587:.\Generated_Source\PSoC5/CyLib.c **** * Return:
1588:.\Generated_Source\PSoC5/CyLib.c **** *  None
1589:.\Generated_Source\PSoC5/CyLib.c **** *
1590:.\Generated_Source\PSoC5/CyLib.c **** *******************************************************************************/
1591:.\Generated_Source\PSoC5/CyLib.c **** void CyXTAL_SetFbVoltage(uint8 setting) 
1592:.\Generated_Source\PSoC5/CyLib.c **** {
 2744              		.loc 1 1592 0
 2745              		.cfi_startproc
 2746              		@ args = 0, pretend = 0, frame = 8
 2747              		@ frame_needed = 1, uses_anonymous_args = 0
 2748              		@ link register save eliminated.
 2749 0000 80B4     		push	{r7}
 2750              		.cfi_def_cfa_offset 4
 2751              		.cfi_offset 7, -4
 2752 0002 83B0     		sub	sp, sp, #12
 2753              		.cfi_def_cfa_offset 16
 2754 0004 00AF     		add	r7, sp, #0
 2755              		.cfi_def_cfa_register 7
 2756 0006 0346     		mov	r3, r0
 2757 0008 FB71     		strb	r3, [r7, #7]
1593:.\Generated_Source\PSoC5/CyLib.c ****     CY_CLK_XMHZ_CFG1_REG = ((CY_CLK_XMHZ_CFG1_REG & ((uint8)(~CY_CLK_XMHZ_CFG1_VREF_FB_MASK))) |
 2758              		.loc 1 1593 0
 2759 000a 0949     		ldr	r1, .L207
 2760 000c 084B     		ldr	r3, .L207
 2761 000e 1B78     		ldrb	r3, [r3]
 2762 0010 DBB2     		uxtb	r3, r3
 2763 0012 23F00F03 		bic	r3, r3, #15
 2764 0016 DAB2     		uxtb	r2, r3
 2765 0018 FB79     		ldrb	r3, [r7, #7]
 2766 001a 03F00F03 		and	r3, r3, #15
 2767 001e DBB2     		uxtb	r3, r3
 2768 0020 1343     		orrs	r3, r3, r2
 2769 0022 DBB2     		uxtb	r3, r3
 2770 0024 0B70     		strb	r3, [r1]
1594:.\Generated_Source\PSoC5/CyLib.c ****                             (setting & CY_CLK_XMHZ_CFG1_VREF_FB_MASK));
1595:.\Generated_Source\PSoC5/CyLib.c **** }
ARM GAS  C:\Users\faithc\AppData\Local\Temp\ccpkbr6m.s 			page 78


 2771              		.loc 1 1595 0
 2772 0026 0C37     		adds	r7, r7, #12
 2773              		.cfi_def_cfa_offset 4
 2774 0028 BD46     		mov	sp, r7
 2775              		.cfi_def_cfa_register 13
 2776              		@ sp needed
 2777 002a 5DF8047B 		ldr	r7, [sp], #4
 2778              		.cfi_restore 7
 2779              		.cfi_def_cfa_offset 0
 2780 002e 7047     		bx	lr
 2781              	.L208:
 2782              		.align	2
 2783              	.L207:
 2784 0030 13420040 		.word	1073758739
 2785              		.cfi_endproc
 2786              	.LFE37:
 2787              		.size	CyXTAL_SetFbVoltage, .-CyXTAL_SetFbVoltage
 2788              		.section	.text.CyXTAL_SetWdVoltage,"ax",%progbits
 2789              		.align	2
 2790              		.global	CyXTAL_SetWdVoltage
 2791              		.thumb
 2792              		.thumb_func
 2793              		.type	CyXTAL_SetWdVoltage, %function
 2794              	CyXTAL_SetWdVoltage:
 2795              	.LFB38:
1596:.\Generated_Source\PSoC5/CyLib.c **** 
1597:.\Generated_Source\PSoC5/CyLib.c **** 
1598:.\Generated_Source\PSoC5/CyLib.c **** /*******************************************************************************
1599:.\Generated_Source\PSoC5/CyLib.c **** * Function Name: CyXTAL_SetWdVoltage
1600:.\Generated_Source\PSoC5/CyLib.c **** ********************************************************************************
1601:.\Generated_Source\PSoC5/CyLib.c **** *
1602:.\Generated_Source\PSoC5/CyLib.c **** * Summary:
1603:.\Generated_Source\PSoC5/CyLib.c **** *  Sets the reference voltage used by the watchdog to detect a failure in the
1604:.\Generated_Source\PSoC5/CyLib.c **** *  crystal circuit. This function is only available for PSoC3 and PSoC 5LP.
1605:.\Generated_Source\PSoC5/CyLib.c **** *
1606:.\Generated_Source\PSoC5/CyLib.c **** * Parameters:
1607:.\Generated_Source\PSoC5/CyLib.c **** *  setting: Valid range [0-7].
1608:.\Generated_Source\PSoC5/CyLib.c **** *  Refer to the device TRM and datasheet for more information.
1609:.\Generated_Source\PSoC5/CyLib.c **** *
1610:.\Generated_Source\PSoC5/CyLib.c **** * Return:
1611:.\Generated_Source\PSoC5/CyLib.c **** *  None
1612:.\Generated_Source\PSoC5/CyLib.c **** *
1613:.\Generated_Source\PSoC5/CyLib.c **** *******************************************************************************/
1614:.\Generated_Source\PSoC5/CyLib.c **** void CyXTAL_SetWdVoltage(uint8 setting) 
1615:.\Generated_Source\PSoC5/CyLib.c **** {
 2796              		.loc 1 1615 0
 2797              		.cfi_startproc
 2798              		@ args = 0, pretend = 0, frame = 8
 2799              		@ frame_needed = 1, uses_anonymous_args = 0
 2800              		@ link register save eliminated.
 2801 0000 80B4     		push	{r7}
 2802              		.cfi_def_cfa_offset 4
 2803              		.cfi_offset 7, -4
 2804 0002 83B0     		sub	sp, sp, #12
 2805              		.cfi_def_cfa_offset 16
 2806 0004 00AF     		add	r7, sp, #0
 2807              		.cfi_def_cfa_register 7
ARM GAS  C:\Users\faithc\AppData\Local\Temp\ccpkbr6m.s 			page 79


 2808 0006 0346     		mov	r3, r0
 2809 0008 FB71     		strb	r3, [r7, #7]
1616:.\Generated_Source\PSoC5/CyLib.c ****     CY_CLK_XMHZ_CFG1_REG = ((CY_CLK_XMHZ_CFG1_REG & ((uint8)(~CY_CLK_XMHZ_CFG1_VREF_WD_MASK))) |
 2810              		.loc 1 1616 0
 2811 000a 0A49     		ldr	r1, .L210
 2812 000c 094B     		ldr	r3, .L210
 2813 000e 1B78     		ldrb	r3, [r3]
 2814 0010 DBB2     		uxtb	r3, r3
 2815 0012 23F07003 		bic	r3, r3, #112
 2816 0016 DAB2     		uxtb	r2, r3
1617:.\Generated_Source\PSoC5/CyLib.c ****                             (((uint8)(setting << 4u)) & CY_CLK_XMHZ_CFG1_VREF_WD_MASK));
 2817              		.loc 1 1617 0
 2818 0018 FB79     		ldrb	r3, [r7, #7]
 2819 001a 1B01     		lsls	r3, r3, #4
 2820 001c DBB2     		uxtb	r3, r3
1616:.\Generated_Source\PSoC5/CyLib.c ****     CY_CLK_XMHZ_CFG1_REG = ((CY_CLK_XMHZ_CFG1_REG & ((uint8)(~CY_CLK_XMHZ_CFG1_VREF_WD_MASK))) |
 2821              		.loc 1 1616 0
 2822 001e 03F07003 		and	r3, r3, #112
 2823 0022 DBB2     		uxtb	r3, r3
 2824 0024 1343     		orrs	r3, r3, r2
 2825 0026 DBB2     		uxtb	r3, r3
 2826 0028 0B70     		strb	r3, [r1]
1618:.\Generated_Source\PSoC5/CyLib.c **** }
 2827              		.loc 1 1618 0
 2828 002a 0C37     		adds	r7, r7, #12
 2829              		.cfi_def_cfa_offset 4
 2830 002c BD46     		mov	sp, r7
 2831              		.cfi_def_cfa_register 13
 2832              		@ sp needed
 2833 002e 5DF8047B 		ldr	r7, [sp], #4
 2834              		.cfi_restore 7
 2835              		.cfi_def_cfa_offset 0
 2836 0032 7047     		bx	lr
 2837              	.L211:
 2838              		.align	2
 2839              	.L210:
 2840 0034 13420040 		.word	1073758739
 2841              		.cfi_endproc
 2842              	.LFE38:
 2843              		.size	CyXTAL_SetWdVoltage, .-CyXTAL_SetWdVoltage
 2844              		.section	.text.CyHalt,"ax",%progbits
 2845              		.align	2
 2846              		.global	CyHalt
 2847              		.thumb
 2848              		.thumb_func
 2849              		.type	CyHalt, %function
 2850              	CyHalt:
 2851              	.LFB39:
1619:.\Generated_Source\PSoC5/CyLib.c **** 
1620:.\Generated_Source\PSoC5/CyLib.c **** 
1621:.\Generated_Source\PSoC5/CyLib.c **** /*******************************************************************************
1622:.\Generated_Source\PSoC5/CyLib.c **** * Function Name: CyHalt
1623:.\Generated_Source\PSoC5/CyLib.c **** ********************************************************************************
1624:.\Generated_Source\PSoC5/CyLib.c **** *
1625:.\Generated_Source\PSoC5/CyLib.c **** * Summary:
1626:.\Generated_Source\PSoC5/CyLib.c **** *  Halts the CPU.
1627:.\Generated_Source\PSoC5/CyLib.c **** *
ARM GAS  C:\Users\faithc\AppData\Local\Temp\ccpkbr6m.s 			page 80


1628:.\Generated_Source\PSoC5/CyLib.c **** * Parameters:
1629:.\Generated_Source\PSoC5/CyLib.c **** *  uint8 reason: Value to be used during debugging.
1630:.\Generated_Source\PSoC5/CyLib.c **** *
1631:.\Generated_Source\PSoC5/CyLib.c **** * Return:
1632:.\Generated_Source\PSoC5/CyLib.c **** *  None
1633:.\Generated_Source\PSoC5/CyLib.c **** *
1634:.\Generated_Source\PSoC5/CyLib.c **** *******************************************************************************/
1635:.\Generated_Source\PSoC5/CyLib.c **** void CyHalt(uint8 reason) CYREENTRANT
1636:.\Generated_Source\PSoC5/CyLib.c **** {
 2852              		.loc 1 1636 0
 2853              		.cfi_startproc
 2854              		@ args = 0, pretend = 0, frame = 8
 2855              		@ frame_needed = 1, uses_anonymous_args = 0
 2856              		@ link register save eliminated.
 2857 0000 80B4     		push	{r7}
 2858              		.cfi_def_cfa_offset 4
 2859              		.cfi_offset 7, -4
 2860 0002 83B0     		sub	sp, sp, #12
 2861              		.cfi_def_cfa_offset 16
 2862 0004 00AF     		add	r7, sp, #0
 2863              		.cfi_def_cfa_register 7
 2864 0006 0346     		mov	r3, r0
 2865 0008 FB71     		strb	r3, [r7, #7]
1637:.\Generated_Source\PSoC5/CyLib.c ****     if(0u != reason)
1638:.\Generated_Source\PSoC5/CyLib.c ****     {
1639:.\Generated_Source\PSoC5/CyLib.c ****         /* To remove unreferenced local variable warning */
1640:.\Generated_Source\PSoC5/CyLib.c ****     }
1641:.\Generated_Source\PSoC5/CyLib.c **** 
1642:.\Generated_Source\PSoC5/CyLib.c ****     #if defined (__ARMCC_VERSION)
1643:.\Generated_Source\PSoC5/CyLib.c ****         __breakpoint(0x0);
1644:.\Generated_Source\PSoC5/CyLib.c ****     #elif defined(__GNUC__) || defined (__ICCARM__)
1645:.\Generated_Source\PSoC5/CyLib.c ****         __asm("    bkpt    1");
 2866              		.loc 1 1645 0
 2867              	@ 1645 ".\Generated_Source\PSoC5\CyLib.c" 1
 2868 000a 01BE     		    bkpt    1
 2869              	@ 0 "" 2
1646:.\Generated_Source\PSoC5/CyLib.c ****     #elif defined(__C51__)
1647:.\Generated_Source\PSoC5/CyLib.c ****         CYDEV_HALT_CPU;
1648:.\Generated_Source\PSoC5/CyLib.c ****     #endif  /* (__ARMCC_VERSION) */
1649:.\Generated_Source\PSoC5/CyLib.c **** }
 2870              		.loc 1 1649 0
 2871              		.thumb
 2872 000c 0C37     		adds	r7, r7, #12
 2873              		.cfi_def_cfa_offset 4
 2874 000e BD46     		mov	sp, r7
 2875              		.cfi_def_cfa_register 13
 2876              		@ sp needed
 2877 0010 5DF8047B 		ldr	r7, [sp], #4
 2878              		.cfi_restore 7
 2879              		.cfi_def_cfa_offset 0
 2880 0014 7047     		bx	lr
 2881              		.cfi_endproc
 2882              	.LFE39:
 2883              		.size	CyHalt, .-CyHalt
 2884 0016 00BF     		.section	.text.CySoftwareReset,"ax",%progbits
 2885              		.align	2
 2886              		.global	CySoftwareReset
ARM GAS  C:\Users\faithc\AppData\Local\Temp\ccpkbr6m.s 			page 81


 2887              		.thumb
 2888              		.thumb_func
 2889              		.type	CySoftwareReset, %function
 2890              	CySoftwareReset:
 2891              	.LFB40:
1650:.\Generated_Source\PSoC5/CyLib.c **** 
1651:.\Generated_Source\PSoC5/CyLib.c **** 
1652:.\Generated_Source\PSoC5/CyLib.c **** /*******************************************************************************
1653:.\Generated_Source\PSoC5/CyLib.c **** * Function Name: CySoftwareReset
1654:.\Generated_Source\PSoC5/CyLib.c **** ********************************************************************************
1655:.\Generated_Source\PSoC5/CyLib.c **** *
1656:.\Generated_Source\PSoC5/CyLib.c **** * Summary:
1657:.\Generated_Source\PSoC5/CyLib.c **** *  Forces a device software reset.
1658:.\Generated_Source\PSoC5/CyLib.c **** *
1659:.\Generated_Source\PSoC5/CyLib.c **** * Parameters:
1660:.\Generated_Source\PSoC5/CyLib.c **** *  None
1661:.\Generated_Source\PSoC5/CyLib.c **** *
1662:.\Generated_Source\PSoC5/CyLib.c **** * Return:
1663:.\Generated_Source\PSoC5/CyLib.c **** *  None
1664:.\Generated_Source\PSoC5/CyLib.c **** *
1665:.\Generated_Source\PSoC5/CyLib.c **** *******************************************************************************/
1666:.\Generated_Source\PSoC5/CyLib.c **** void CySoftwareReset(void) 
1667:.\Generated_Source\PSoC5/CyLib.c **** {
 2892              		.loc 1 1667 0
 2893              		.cfi_startproc
 2894              		@ args = 0, pretend = 0, frame = 0
 2895              		@ frame_needed = 1, uses_anonymous_args = 0
 2896              		@ link register save eliminated.
 2897 0000 80B4     		push	{r7}
 2898              		.cfi_def_cfa_offset 4
 2899              		.cfi_offset 7, -4
 2900 0002 00AF     		add	r7, sp, #0
 2901              		.cfi_def_cfa_register 7
1668:.\Generated_Source\PSoC5/CyLib.c ****     CY_LIB_RESET_CR2_REG |= CY_LIB_RESET_CR2_RESET;
 2902              		.loc 1 1668 0
 2903 0004 054A     		ldr	r2, .L214
 2904 0006 054B     		ldr	r3, .L214
 2905 0008 1B78     		ldrb	r3, [r3]
 2906 000a DBB2     		uxtb	r3, r3
 2907 000c 43F00103 		orr	r3, r3, #1
 2908 0010 DBB2     		uxtb	r3, r3
 2909 0012 1370     		strb	r3, [r2]
1669:.\Generated_Source\PSoC5/CyLib.c **** }
 2910              		.loc 1 1669 0
 2911 0014 BD46     		mov	sp, r7
 2912              		.cfi_def_cfa_register 13
 2913              		@ sp needed
 2914 0016 5DF8047B 		ldr	r7, [sp], #4
 2915              		.cfi_restore 7
 2916              		.cfi_def_cfa_offset 0
 2917 001a 7047     		bx	lr
 2918              	.L215:
 2919              		.align	2
 2920              	.L214:
 2921 001c F6460040 		.word	1073759990
 2922              		.cfi_endproc
 2923              	.LFE40:
ARM GAS  C:\Users\faithc\AppData\Local\Temp\ccpkbr6m.s 			page 82


 2924              		.size	CySoftwareReset, .-CySoftwareReset
 2925              		.section	.text.CyDelay,"ax",%progbits
 2926              		.align	2
 2927              		.global	CyDelay
 2928              		.thumb
 2929              		.thumb_func
 2930              		.type	CyDelay, %function
 2931              	CyDelay:
 2932              	.LFB41:
1670:.\Generated_Source\PSoC5/CyLib.c **** 
1671:.\Generated_Source\PSoC5/CyLib.c **** 
1672:.\Generated_Source\PSoC5/CyLib.c **** /*******************************************************************************
1673:.\Generated_Source\PSoC5/CyLib.c **** * Function Name: CyDelay
1674:.\Generated_Source\PSoC5/CyLib.c **** ********************************************************************************
1675:.\Generated_Source\PSoC5/CyLib.c **** *
1676:.\Generated_Source\PSoC5/CyLib.c **** * Summary:
1677:.\Generated_Source\PSoC5/CyLib.c **** *  Blocks for milliseconds.
1678:.\Generated_Source\PSoC5/CyLib.c **** *
1679:.\Generated_Source\PSoC5/CyLib.c **** *  Note:
1680:.\Generated_Source\PSoC5/CyLib.c **** *  CyDelay has been implemented with the instruction cache assumed enabled. When
1681:.\Generated_Source\PSoC5/CyLib.c **** *  the instruction cache is disabled on PSoC5, CyDelay will be two times larger.
1682:.\Generated_Source\PSoC5/CyLib.c **** *  For example, with instruction cache disabled CyDelay(100) would result in
1683:.\Generated_Source\PSoC5/CyLib.c **** *  about 200 ms delay instead of 100 ms.
1684:.\Generated_Source\PSoC5/CyLib.c **** *
1685:.\Generated_Source\PSoC5/CyLib.c **** * Parameters:
1686:.\Generated_Source\PSoC5/CyLib.c **** *  milliseconds: number of milliseconds to delay.
1687:.\Generated_Source\PSoC5/CyLib.c **** *
1688:.\Generated_Source\PSoC5/CyLib.c **** * Return:
1689:.\Generated_Source\PSoC5/CyLib.c **** *   None
1690:.\Generated_Source\PSoC5/CyLib.c **** *
1691:.\Generated_Source\PSoC5/CyLib.c **** *******************************************************************************/
1692:.\Generated_Source\PSoC5/CyLib.c **** void CyDelay(uint32 milliseconds) CYREENTRANT
1693:.\Generated_Source\PSoC5/CyLib.c **** {
 2933              		.loc 1 1693 0
 2934              		.cfi_startproc
 2935              		@ args = 0, pretend = 0, frame = 8
 2936              		@ frame_needed = 1, uses_anonymous_args = 0
 2937 0000 80B5     		push	{r7, lr}
 2938              		.cfi_def_cfa_offset 8
 2939              		.cfi_offset 7, -8
 2940              		.cfi_offset 14, -4
 2941 0002 82B0     		sub	sp, sp, #8
 2942              		.cfi_def_cfa_offset 16
 2943 0004 00AF     		add	r7, sp, #0
 2944              		.cfi_def_cfa_register 7
 2945 0006 7860     		str	r0, [r7, #4]
1694:.\Generated_Source\PSoC5/CyLib.c ****     while (milliseconds > 32768u)
 2946              		.loc 1 1694 0
 2947 0008 08E0     		b	.L217
 2948              	.L218:
1695:.\Generated_Source\PSoC5/CyLib.c ****     {
1696:.\Generated_Source\PSoC5/CyLib.c ****         /***********************************************************************
1697:.\Generated_Source\PSoC5/CyLib.c ****         * This loop prevents overflow.At 100MHz, milliseconds * delay_freq_khz
1698:.\Generated_Source\PSoC5/CyLib.c ****         * overflows at about 42 seconds.
1699:.\Generated_Source\PSoC5/CyLib.c ****         ***********************************************************************/
1700:.\Generated_Source\PSoC5/CyLib.c ****         CyDelayCycles(cydelay_32k_ms);
 2949              		.loc 1 1700 0
ARM GAS  C:\Users\faithc\AppData\Local\Temp\ccpkbr6m.s 			page 83


 2950 000a 0C4B     		ldr	r3, .L219
 2951 000c 1B68     		ldr	r3, [r3]
 2952 000e 1846     		mov	r0, r3
 2953 0010 FFF7FEFF 		bl	CyDelayCycles
1701:.\Generated_Source\PSoC5/CyLib.c ****         milliseconds = ((uint32)(milliseconds - 32768u));
 2954              		.loc 1 1701 0
 2955 0014 7B68     		ldr	r3, [r7, #4]
 2956 0016 A3F50043 		sub	r3, r3, #32768
 2957 001a 7B60     		str	r3, [r7, #4]
 2958              	.L217:
1694:.\Generated_Source\PSoC5/CyLib.c ****     while (milliseconds > 32768u)
 2959              		.loc 1 1694 0
 2960 001c 7B68     		ldr	r3, [r7, #4]
 2961 001e B3F5004F 		cmp	r3, #32768
 2962 0022 F2D8     		bhi	.L218
1702:.\Generated_Source\PSoC5/CyLib.c ****     }
1703:.\Generated_Source\PSoC5/CyLib.c **** 
1704:.\Generated_Source\PSoC5/CyLib.c ****     CyDelayCycles(milliseconds * cydelay_freq_khz);
 2963              		.loc 1 1704 0
 2964 0024 064B     		ldr	r3, .L219+4
 2965 0026 1B68     		ldr	r3, [r3]
 2966 0028 7A68     		ldr	r2, [r7, #4]
 2967 002a 02FB03F3 		mul	r3, r2, r3
 2968 002e 1846     		mov	r0, r3
 2969 0030 FFF7FEFF 		bl	CyDelayCycles
1705:.\Generated_Source\PSoC5/CyLib.c **** }
 2970              		.loc 1 1705 0
 2971 0034 0837     		adds	r7, r7, #8
 2972              		.cfi_def_cfa_offset 8
 2973 0036 BD46     		mov	sp, r7
 2974              		.cfi_def_cfa_register 13
 2975              		@ sp needed
 2976 0038 80BD     		pop	{r7, pc}
 2977              	.L220:
 2978 003a 00BF     		.align	2
 2979              	.L219:
 2980 003c 00000000 		.word	cydelay_32k_ms
 2981 0040 00000000 		.word	cydelay_freq_khz
 2982              		.cfi_endproc
 2983              	.LFE41:
 2984              		.size	CyDelay, .-CyDelay
 2985              		.section	.text.CyDelayUs,"ax",%progbits
 2986              		.align	2
 2987              		.global	CyDelayUs
 2988              		.thumb
 2989              		.thumb_func
 2990              		.type	CyDelayUs, %function
 2991              	CyDelayUs:
 2992              	.LFB42:
1706:.\Generated_Source\PSoC5/CyLib.c **** 
1707:.\Generated_Source\PSoC5/CyLib.c **** 
1708:.\Generated_Source\PSoC5/CyLib.c **** #if(!CY_PSOC3)
1709:.\Generated_Source\PSoC5/CyLib.c **** 
1710:.\Generated_Source\PSoC5/CyLib.c ****     /* For PSoC3 devices function is defined in CyBootAsmKeil.a51 file */
1711:.\Generated_Source\PSoC5/CyLib.c **** 
1712:.\Generated_Source\PSoC5/CyLib.c ****     /*******************************************************************************
1713:.\Generated_Source\PSoC5/CyLib.c ****     * Function Name: CyDelayUs
ARM GAS  C:\Users\faithc\AppData\Local\Temp\ccpkbr6m.s 			page 84


1714:.\Generated_Source\PSoC5/CyLib.c ****     ********************************************************************************
1715:.\Generated_Source\PSoC5/CyLib.c ****     *
1716:.\Generated_Source\PSoC5/CyLib.c ****     * Summary:
1717:.\Generated_Source\PSoC5/CyLib.c ****     *  Blocks for microseconds.
1718:.\Generated_Source\PSoC5/CyLib.c ****     *
1719:.\Generated_Source\PSoC5/CyLib.c ****     *  Note:
1720:.\Generated_Source\PSoC5/CyLib.c ****     *   CyDelay has been implemented with the instruction cache assumed enabled.
1721:.\Generated_Source\PSoC5/CyLib.c ****     *   When instruction cache is disabled on PSoC5, CyDelayUs will be two times
1722:.\Generated_Source\PSoC5/CyLib.c ****     *   larger. Ex: With instruction cache disabled CyDelayUs(100) would result
1723:.\Generated_Source\PSoC5/CyLib.c ****     *   in about 200us delay instead of 100us.
1724:.\Generated_Source\PSoC5/CyLib.c ****     *
1725:.\Generated_Source\PSoC5/CyLib.c ****     * Parameters:
1726:.\Generated_Source\PSoC5/CyLib.c ****     *  uint16 microseconds: number of microseconds to delay.
1727:.\Generated_Source\PSoC5/CyLib.c ****     *
1728:.\Generated_Source\PSoC5/CyLib.c ****     * Return:
1729:.\Generated_Source\PSoC5/CyLib.c ****     *  None
1730:.\Generated_Source\PSoC5/CyLib.c ****     *
