ARM GAS  C:\Users\faithc\AppData\Local\Temp\cclMtKLk.s 			page 1


   1              		.syntax unified
   2              		.cpu cortex-m3
   3              		.fpu softvfp
   4              		.eabi_attribute 20, 1
   5              		.eabi_attribute 21, 1
   6              		.eabi_attribute 23, 3
   7              		.eabi_attribute 24, 1
   8              		.eabi_attribute 25, 1
   9              		.eabi_attribute 26, 1
  10              		.eabi_attribute 30, 6
  11              		.eabi_attribute 34, 1
  12              		.eabi_attribute 18, 4
  13              		.thumb
  14              		.file	"DACaudio.c"
  15              		.text
  16              	.Ltext0:
  17              		.cfi_sections	.debug_frame
  18              		.section	.rodata
  19              		.type	INITIAL_DAC_VALUE, %object
  20              		.size	INITIAL_DAC_VALUE, 1
  21              	INITIAL_DAC_VALUE:
  22 0000 80       		.byte	-128
  23              		.type	DEFAULT_CHANNEL_COUNT, %object
  24              		.size	DEFAULT_CHANNEL_COUNT, 1
  25              	DEFAULT_CHANNEL_COUNT:
  26 0001 01       		.byte	1
  27 0002 0000     		.align	2
  28              		.type	DEFAULT_SAMPLING_RATE, %object
  29              		.size	DEFAULT_SAMPLING_RATE, 4
  30              	DEFAULT_SAMPLING_RATE:
  31 0004 401F0000 		.word	8000
  32              		.align	2
  33              		.type	ECTO_CYCLE_START_INDEX, %object
  34              		.size	ECTO_CYCLE_START_INDEX, 4
  35              	ECTO_CYCLE_START_INDEX:
  36 0008 3A2F0000 		.word	12090
  37              		.align	2
  38              		.type	ECTO_CYCLE_END_INDEX, %object
  39              		.size	ECTO_CYCLE_END_INDEX, 4
  40              	ECTO_CYCLE_END_INDEX:
  41 000c 845D0000 		.word	23940
  42              		.align	2
  43              		.type	ECTO_RAMP_DOWN_INDEX, %object
  44              		.size	ECTO_RAMP_DOWN_INDEX, 4
  45              	ECTO_RAMP_DOWN_INDEX:
  46 0010 0A450100 		.word	83210
  47              		.bss
  48              	currentSongNumber:
  49 0000 00       		.space	1
  50 0001 000000   		.align	2
  51              	dataIndex:
  52 0004 00000000 		.space	4
  53              	bCurrentSpeaker:
  54 0008 00       		.space	1
  55              	bAudioInputFlag:
  56 0009 00       		.space	1
  57              	bAudioActive:
ARM GAS  C:\Users\faithc\AppData\Local\Temp\cclMtKLk.s 			page 2


  58 000a 00       		.space	1
  59              	bSongFinishedFlag:
  60 000b 00       		.space	1
  61              		.align	2
  62              	Speaker1:
  63 000c 00000000 		.space	12
  63      00000000 
  63      00000000 
  64              		.align	2
  65              	Speaker2:
  66 0018 00000000 		.space	12
  66      00000000 
  66      00000000 
  67              		.section	.text.isSongFinished,"ax",%progbits
  68              		.align	2
  69              		.global	isSongFinished
  70              		.thumb
  71              		.thumb_func
  72              		.type	isSongFinished, %function
  73              	isSongFinished:
  74              	.LFB63:
  75              		.file 1 ".\\DACaudio.c"
   1:.\DACaudio.c  **** /* ========================================
   2:.\DACaudio.c  ****  *
   3:.\DACaudio.c  ****  * Copyright YOUR COMPANY, THE YEAR
   4:.\DACaudio.c  ****  * All Rights Reserved
   5:.\DACaudio.c  ****  * UNPUBLISHED, LICENSED SOFTWARE.
   6:.\DACaudio.c  ****  *
   7:.\DACaudio.c  ****  * CONFIDENTIAL AND PROPRIETARY INFORMATION
   8:.\DACaudio.c  ****  * WHICH IS THE PROPERTY OF your company.
   9:.\DACaudio.c  ****  *
  10:.\DACaudio.c  ****  * ========================================
  11:.\DACaudio.c  **** */
  12:.\DACaudio.c  **** /**********PREPROCESSOR DIRECTIVES**********/
  13:.\DACaudio.c  **** #include "CommonVariables.h"
  14:.\DACaudio.c  **** #include "SirenState.h"
  15:.\DACaudio.c  **** #include "DACaudio.h"
  16:.\DACaudio.c  **** #include "FileDecode.h"
  17:.\DACaudio.c  ****     
  18:.\DACaudio.c  **** /**********DEFINED CONSTANTS**********/
  19:.\DACaudio.c  **** static const uint8 INITIAL_DAC_VALUE = 128;
  20:.\DACaudio.c  **** 
  21:.\DACaudio.c  **** static const uint8 DEFAULT_CHANNEL_COUNT = 1;
  22:.\DACaudio.c  **** static const uint32 DEFAULT_SAMPLING_RATE = 8000; 
  23:.\DACaudio.c  **** 
  24:.\DACaudio.c  **** static const uint32 ECTO_CYCLE_START_INDEX = 12090;
  25:.\DACaudio.c  **** static const uint32 ECTO_CYCLE_END_INDEX = 23940;
  26:.\DACaudio.c  **** static const uint32 ECTO_RAMP_DOWN_INDEX = 83210;
  27:.\DACaudio.c  **** 
  28:.\DACaudio.c  **** /**********DATA STRUCTURES**********/
  29:.\DACaudio.c  **** typedef struct
  30:.\DACaudio.c  **** {
  31:.\DACaudio.c  ****     uint8 channelCount;
  32:.\DACaudio.c  ****     uint8 bytesPerSample;
  33:.\DACaudio.c  ****     uint32 samplingRate;
  34:.\DACaudio.c  ****     uint32 dataSize;
  35:.\DACaudio.c  **** }DACdata;
ARM GAS  C:\Users\faithc\AppData\Local\Temp\cclMtKLk.s 			page 3


  36:.\DACaudio.c  **** 
  37:.\DACaudio.c  **** /**********GLOBAL VARIABLES**********/
  38:.\DACaudio.c  **** static enum ToneType currentSongNumber = NO_TONE;
  39:.\DACaudio.c  **** static uint32 dataIndex = 0;
  40:.\DACaudio.c  **** 
  41:.\DACaudio.c  **** static uint8 bCurrentSpeaker = SPEAKER_1;
  42:.\DACaudio.c  **** static uint8 bAudioInputFlag = false;
  43:.\DACaudio.c  **** 
  44:.\DACaudio.c  **** static uint8 bAudioActive = false;
  45:.\DACaudio.c  **** static uint8 bSongFinishedFlag = false;
  46:.\DACaudio.c  **** 
  47:.\DACaudio.c  **** static DACdata Speaker1 = {0, 0, 0, 0};
  48:.\DACaudio.c  **** static DACdata Speaker2 = {0, 0, 0, 0};
  49:.\DACaudio.c  **** 
  50:.\DACaudio.c  **** /**********FUNCTION PROTOTYPES**********/
  51:.\DACaudio.c  **** static uint8 isMusicReady(enum ToneType songChoice);
  52:.\DACaudio.c  **** static uint16 getSamplingReloadValue(uint32 frequency);
  53:.\DACaudio.c  **** 
  54:.\DACaudio.c  **** /**********DEFINED FUNCTIONS**********/
  55:.\DACaudio.c  **** /*******************************************************************************
  56:.\DACaudio.c  **** * Function Name: isSongFinished
  57:.\DACaudio.c  **** ********************************************************************************
  58:.\DACaudio.c  **** *
  59:.\DACaudio.c  **** * Summary:
  60:.\DACaudio.c  **** *  Returns the status for song completion.
  61:.\DACaudio.c  **** *
  62:.\DACaudio.c  **** * Parameters: 
  63:.\DACaudio.c  **** *   None
  64:.\DACaudio.c  **** *
  65:.\DACaudio.c  **** * Return:
  66:.\DACaudio.c  **** *   TRUE if the song completed, FALSE if not completed
  67:.\DACaudio.c  **** *
  68:.\DACaudio.c  **** *******************************************************************************/
  69:.\DACaudio.c  **** uint8 isSongFinished(void)
  70:.\DACaudio.c  **** {
  76              		.loc 1 70 0
  77              		.cfi_startproc
  78              		@ args = 0, pretend = 0, frame = 0
  79              		@ frame_needed = 1, uses_anonymous_args = 0
  80              		@ link register save eliminated.
  81 0000 80B4     		push	{r7}
  82              		.cfi_def_cfa_offset 4
  83              		.cfi_offset 7, -4
  84 0002 00AF     		add	r7, sp, #0
  85              		.cfi_def_cfa_register 7
  71:.\DACaudio.c  ****     return bSongFinishedFlag;
  86              		.loc 1 71 0
  87 0004 034B     		ldr	r3, .L3
  88 0006 1B78     		ldrb	r3, [r3]	@ zero_extendqisi2
  72:.\DACaudio.c  **** }
  89              		.loc 1 72 0
  90 0008 1846     		mov	r0, r3
  91 000a BD46     		mov	sp, r7
  92              		.cfi_def_cfa_register 13
  93              		@ sp needed
  94 000c 5DF8047B 		ldr	r7, [sp], #4
  95              		.cfi_restore 7
ARM GAS  C:\Users\faithc\AppData\Local\Temp\cclMtKLk.s 			page 4


  96              		.cfi_def_cfa_offset 0
  97 0010 7047     		bx	lr
  98              	.L4:
  99 0012 00BF     		.align	2
 100              	.L3:
 101 0014 0B000000 		.word	bSongFinishedFlag
 102              		.cfi_endproc
 103              	.LFE63:
 104              		.size	isSongFinished, .-isSongFinished
 105              		.section	.text.playAudioTone,"ax",%progbits
 106              		.align	2
 107              		.global	playAudioTone
 108              		.thumb
 109              		.thumb_func
 110              		.type	playAudioTone, %function
 111              	playAudioTone:
 112              	.LFB64:
  73:.\DACaudio.c  **** 
  74:.\DACaudio.c  **** /*******************************************************************************
  75:.\DACaudio.c  **** * Function Name: playAudioTone
  76:.\DACaudio.c  **** ********************************************************************************
  77:.\DACaudio.c  **** *
  78:.\DACaudio.c  **** * Summary:
  79:.\DACaudio.c  **** *  Starts playing file song by updating the DAC at the sampling rate
  80:.\DACaudio.c  **** *
  81:.\DACaudio.c  **** * Parameters: 
  82:.\DACaudio.c  **** *   bSpeaker: The speaker to update
  83:.\DACaudio.c  **** *   songChoice: The value that represents the song selection
  84:.\DACaudio.c  **** *   bAudioInput: The input status for the song selection
  85:.\DACaudio.c  **** *
  86:.\DACaudio.c  **** * Return:
  87:.\DACaudio.c  **** *   TRUE for valid inputs, FALSE otherwise
  88:.\DACaudio.c  **** *
  89:.\DACaudio.c  **** *******************************************************************************/
  90:.\DACaudio.c  **** uint8 playAudioTone(uint8 bSpeaker, enum ToneType songChoice, uint8 bAudioInput)
  91:.\DACaudio.c  **** {   
 113              		.loc 1 91 0
 114              		.cfi_startproc
 115              		@ args = 0, pretend = 0, frame = 16
 116              		@ frame_needed = 1, uses_anonymous_args = 0
 117 0000 80B5     		push	{r7, lr}
 118              		.cfi_def_cfa_offset 8
 119              		.cfi_offset 7, -8
 120              		.cfi_offset 14, -4
 121 0002 84B0     		sub	sp, sp, #16
 122              		.cfi_def_cfa_offset 24
 123 0004 00AF     		add	r7, sp, #0
 124              		.cfi_def_cfa_register 7
 125 0006 0346     		mov	r3, r0
 126 0008 FB71     		strb	r3, [r7, #7]
 127 000a 0B46     		mov	r3, r1
 128 000c BB71     		strb	r3, [r7, #6]
 129 000e 1346     		mov	r3, r2
 130 0010 7B71     		strb	r3, [r7, #5]
  92:.\DACaudio.c  ****     uint16 DACreloadValue = 0;
 131              		.loc 1 92 0
 132 0012 0023     		movs	r3, #0
ARM GAS  C:\Users\faithc\AppData\Local\Temp\cclMtKLk.s 			page 5


 133 0014 FB81     		strh	r3, [r7, #14]	@ movhi
  93:.\DACaudio.c  ****     
  94:.\DACaudio.c  ****     if((bSpeaker != SPEAKER_1) && (bSpeaker != SPEAKER_2))
 134              		.loc 1 94 0
 135 0016 FB79     		ldrb	r3, [r7, #7]	@ zero_extendqisi2
 136 0018 002B     		cmp	r3, #0
 137 001a 04D0     		beq	.L6
 138              		.loc 1 94 0 is_stmt 0 discriminator 1
 139 001c FB79     		ldrb	r3, [r7, #7]	@ zero_extendqisi2
 140 001e 012B     		cmp	r3, #1
 141 0020 01D0     		beq	.L6
  95:.\DACaudio.c  ****         return false;
 142              		.loc 1 95 0 is_stmt 1
 143 0022 0023     		movs	r3, #0
 144 0024 6AE0     		b	.L7
 145              	.L6:
  96:.\DACaudio.c  ****     
  97:.\DACaudio.c  ****     if((bAudioInput != true) && (bAudioInput != false))
 146              		.loc 1 97 0
 147 0026 7B79     		ldrb	r3, [r7, #5]	@ zero_extendqisi2
 148 0028 012B     		cmp	r3, #1
 149 002a 04D0     		beq	.L8
 150              		.loc 1 97 0 is_stmt 0 discriminator 1
 151 002c 7B79     		ldrb	r3, [r7, #5]	@ zero_extendqisi2
 152 002e 002B     		cmp	r3, #0
 153 0030 01D0     		beq	.L8
  98:.\DACaudio.c  ****         return false;
 154              		.loc 1 98 0 is_stmt 1
 155 0032 0023     		movs	r3, #0
 156 0034 62E0     		b	.L7
 157              	.L8:
  99:.\DACaudio.c  ****     
 100:.\DACaudio.c  ****     if((songChoice < ECTOSIREN) || (songChoice > REMAIN_WINDOW_DOWN))
 158              		.loc 1 100 0
 159 0036 BB79     		ldrb	r3, [r7, #6]	@ zero_extendqisi2
 160 0038 0D2B     		cmp	r3, #13
 161 003a 02D9     		bls	.L9
 162              		.loc 1 100 0 is_stmt 0 discriminator 1
 163 003c BB79     		ldrb	r3, [r7, #6]	@ zero_extendqisi2
 164 003e 152B     		cmp	r3, #21
 165 0040 07D9     		bls	.L10
 166              	.L9:
 101:.\DACaudio.c  ****     {
 102:.\DACaudio.c  ****         if(songChoice == NO_TONE)
 167              		.loc 1 102 0 is_stmt 1
 168 0042 BB79     		ldrb	r3, [r7, #6]	@ zero_extendqisi2
 169 0044 002B     		cmp	r3, #0
 170 0046 02D1     		bne	.L11
 103:.\DACaudio.c  ****             currentSongNumber = songChoice;
 171              		.loc 1 103 0
 172 0048 2E4A     		ldr	r2, .L16
 173 004a BB79     		ldrb	r3, [r7, #6]
 174 004c 1370     		strb	r3, [r2]
 175              	.L11:
 104:.\DACaudio.c  **** 
 105:.\DACaudio.c  ****         return false;
 176              		.loc 1 105 0
ARM GAS  C:\Users\faithc\AppData\Local\Temp\cclMtKLk.s 			page 6


 177 004e 0023     		movs	r3, #0
 178 0050 54E0     		b	.L7
 179              	.L10:
 106:.\DACaudio.c  ****     }
 107:.\DACaudio.c  ****     
 108:.\DACaudio.c  ****     if((currentSongNumber != songChoice) || ((currentSongNumber == songChoice) && (!bAudioActive)))
 180              		.loc 1 108 0
 181 0052 2C4B     		ldr	r3, .L16
 182 0054 1B78     		ldrb	r3, [r3]	@ zero_extendqisi2
 183 0056 BA79     		ldrb	r2, [r7, #6]	@ zero_extendqisi2
 184 0058 9A42     		cmp	r2, r3
 185 005a 08D1     		bne	.L12
 186              		.loc 1 108 0 is_stmt 0 discriminator 1
 187 005c 294B     		ldr	r3, .L16
 188 005e 1B78     		ldrb	r3, [r3]	@ zero_extendqisi2
 189 0060 BA79     		ldrb	r2, [r7, #6]	@ zero_extendqisi2
 190 0062 9A42     		cmp	r2, r3
 191 0064 15D1     		bne	.L13
 192              		.loc 1 108 0 discriminator 2
 193 0066 284B     		ldr	r3, .L16+4
 194 0068 1B78     		ldrb	r3, [r3]	@ zero_extendqisi2
 195 006a 002B     		cmp	r3, #0
 196 006c 11D1     		bne	.L13
 197              	.L12:
 109:.\DACaudio.c  ****     {
 110:.\DACaudio.c  ****         if(!isMusicReady(songChoice))
 198              		.loc 1 110 0 is_stmt 1
 199 006e BB79     		ldrb	r3, [r7, #6]	@ zero_extendqisi2
 200 0070 1846     		mov	r0, r3
 201 0072 FFF7FEFF 		bl	isMusicReady
 202 0076 0346     		mov	r3, r0
 203 0078 002B     		cmp	r3, #0
 204 007a 01D1     		bne	.L14
 111:.\DACaudio.c  ****             return false;
 205              		.loc 1 111 0
 206 007c 0023     		movs	r3, #0
 207 007e 3DE0     		b	.L7
 208              	.L14:
 112:.\DACaudio.c  **** 
 113:.\DACaudio.c  ****         currentSongNumber = songChoice;
 209              		.loc 1 113 0
 210 0080 204A     		ldr	r2, .L16
 211 0082 BB79     		ldrb	r3, [r7, #6]
 212 0084 1370     		strb	r3, [r2]
 114:.\DACaudio.c  ****         dataIndex = 0;
 213              		.loc 1 114 0
 214 0086 214B     		ldr	r3, .L16+8
 215 0088 0022     		movs	r2, #0
 216 008a 1A60     		str	r2, [r3]
 115:.\DACaudio.c  ****         bSongFinishedFlag = false;
 217              		.loc 1 115 0
 218 008c 204B     		ldr	r3, .L16+12
 219 008e 0022     		movs	r2, #0
 220 0090 1A70     		strb	r2, [r3]
 221              	.L13:
 116:.\DACaudio.c  ****     }
 117:.\DACaudio.c  ****     
ARM GAS  C:\Users\faithc\AppData\Local\Temp\cclMtKLk.s 			page 7


 118:.\DACaudio.c  ****     bCurrentSpeaker = bSpeaker;
 222              		.loc 1 118 0
 223 0092 204A     		ldr	r2, .L16+16
 224 0094 FB79     		ldrb	r3, [r7, #7]
 225 0096 1370     		strb	r3, [r2]
 119:.\DACaudio.c  ****     bAudioInputFlag = bAudioInput;
 226              		.loc 1 119 0
 227 0098 1F4A     		ldr	r2, .L16+20
 228 009a 7B79     		ldrb	r3, [r7, #5]
 229 009c 1370     		strb	r3, [r2]
 120:.\DACaudio.c  ****     
 121:.\DACaudio.c  ****     if((Speaker1.channelCount == DEFAULT_CHANNEL_COUNT) && 
 230              		.loc 1 121 0
 231 009e 1F4B     		ldr	r3, .L16+24
 232 00a0 1B78     		ldrb	r3, [r3]	@ zero_extendqisi2
 233 00a2 0122     		movs	r2, #1
 234 00a4 9342     		cmp	r3, r2
 235 00a6 28D1     		bne	.L15
 122:.\DACaudio.c  ****         (Speaker1.samplingRate == DEFAULT_SAMPLING_RATE))
 236              		.loc 1 122 0 discriminator 1
 237 00a8 1C4B     		ldr	r3, .L16+24
 238 00aa 5B68     		ldr	r3, [r3, #4]
 239 00ac 4FF4FA52 		mov	r2, #8000
 121:.\DACaudio.c  ****         (Speaker1.samplingRate == DEFAULT_SAMPLING_RATE))
 240              		.loc 1 121 0 discriminator 1
 241 00b0 9342     		cmp	r3, r2
 242 00b2 22D1     		bne	.L15
 123:.\DACaudio.c  ****     {
 124:.\DACaudio.c  ****         AMux1_FastSelect(DAC_MODE);
 243              		.loc 1 124 0
 244 00b4 0120     		movs	r0, #1
 245 00b6 FFF7FEFF 		bl	AMux1_FastSelect
 125:.\DACaudio.c  ****         AMux2_FastSelect(DAC_MODE);
 246              		.loc 1 125 0
 247 00ba 0120     		movs	r0, #1
 248 00bc FFF7FEFF 		bl	AMux2_FastSelect
 126:.\DACaudio.c  ****         
 127:.\DACaudio.c  ****         DACreloadValue = getSamplingReloadValue(Speaker1.samplingRate);        
 249              		.loc 1 127 0
 250 00c0 164B     		ldr	r3, .L16+24
 251 00c2 5B68     		ldr	r3, [r3, #4]
 252 00c4 1846     		mov	r0, r3
 253 00c6 FFF7FEFF 		bl	getSamplingReloadValue
 254 00ca 0346     		mov	r3, r0
 255 00cc FB81     		strh	r3, [r7, #14]	@ movhi
 128:.\DACaudio.c  ****         DACtimer1_Start();        
 256              		.loc 1 128 0
 257 00ce FFF7FEFF 		bl	DACtimer1_Start
 129:.\DACaudio.c  ****         DACtimer1_WritePeriod(DACreloadValue);
 258              		.loc 1 129 0
 259 00d2 FB89     		ldrh	r3, [r7, #14]
 260 00d4 1846     		mov	r0, r3
 261 00d6 FFF7FEFF 		bl	DACtimer1_WritePeriod
 130:.\DACaudio.c  ****         
 131:.\DACaudio.c  ****         PGA_1_Start();   
 262              		.loc 1 131 0
 263 00da FFF7FEFF 		bl	PGA_1_Start
ARM GAS  C:\Users\faithc\AppData\Local\Temp\cclMtKLk.s 			page 8


 132:.\DACaudio.c  ****         VDAC8_1_Start();
 264              		.loc 1 132 0
 265 00de FFF7FEFF 		bl	VDAC8_1_Start
 133:.\DACaudio.c  ****         VDAC8_1_SetValue(INITIAL_DAC_VALUE);
 266              		.loc 1 133 0
 267 00e2 8023     		movs	r3, #128
 268 00e4 1846     		mov	r0, r3
 269 00e6 FFF7FEFF 		bl	VDAC8_1_SetValue
 134:.\DACaudio.c  ****         
 135:.\DACaudio.c  ****         PGA_2_Start();   
 270              		.loc 1 135 0
 271 00ea FFF7FEFF 		bl	PGA_2_Start
 136:.\DACaudio.c  ****         VDAC8_2_Start();
 272              		.loc 1 136 0
 273 00ee FFF7FEFF 		bl	VDAC8_2_Start
 137:.\DACaudio.c  ****         VDAC8_2_SetValue(INITIAL_DAC_VALUE);
 274              		.loc 1 137 0
 275 00f2 8023     		movs	r3, #128
 276 00f4 1846     		mov	r0, r3
 277 00f6 FFF7FEFF 		bl	VDAC8_2_SetValue
 278              	.L15:
 138:.\DACaudio.c  ****     }
 139:.\DACaudio.c  ****         
 140:.\DACaudio.c  ****     return true;
 279              		.loc 1 140 0
 280 00fa 0123     		movs	r3, #1
 281              	.L7:
 141:.\DACaudio.c  **** }
 282              		.loc 1 141 0
 283 00fc 1846     		mov	r0, r3
 284 00fe 1037     		adds	r7, r7, #16
 285              		.cfi_def_cfa_offset 8
 286 0100 BD46     		mov	sp, r7
 287              		.cfi_def_cfa_register 13
 288              		@ sp needed
 289 0102 80BD     		pop	{r7, pc}
 290              	.L17:
 291              		.align	2
 292              	.L16:
 293 0104 00000000 		.word	currentSongNumber
 294 0108 0A000000 		.word	bAudioActive
 295 010c 04000000 		.word	dataIndex
 296 0110 0B000000 		.word	bSongFinishedFlag
 297 0114 08000000 		.word	bCurrentSpeaker
 298 0118 09000000 		.word	bAudioInputFlag
 299 011c 0C000000 		.word	Speaker1
 300              		.cfi_endproc
 301              	.LFE64:
 302              		.size	playAudioTone, .-playAudioTone
 303              		.section	.text.stopAudioTone,"ax",%progbits
 304              		.align	2
 305              		.global	stopAudioTone
 306              		.thumb
 307              		.thumb_func
 308              		.type	stopAudioTone, %function
 309              	stopAudioTone:
 310              	.LFB65:
ARM GAS  C:\Users\faithc\AppData\Local\Temp\cclMtKLk.s 			page 9


 142:.\DACaudio.c  **** 
 143:.\DACaudio.c  **** /*******************************************************************************
 144:.\DACaudio.c  **** * Function Name: stopAudioTone
 145:.\DACaudio.c  **** ********************************************************************************
 146:.\DACaudio.c  **** *
 147:.\DACaudio.c  **** * Summary:
 148:.\DACaudio.c  **** *  Stops the file song by disabling the DAC timer
 149:.\DACaudio.c  **** *
 150:.\DACaudio.c  **** * Parameters: 
 151:.\DACaudio.c  **** *   bSpeaker: The speaker to update
 152:.\DACaudio.c  **** *
 153:.\DACaudio.c  **** * Return:
 154:.\DACaudio.c  **** *   TRUE for valid inputs, FALSE otherwise
 155:.\DACaudio.c  **** *
 156:.\DACaudio.c  **** *******************************************************************************/
 157:.\DACaudio.c  **** uint8 stopAudioTone(uint8 bSpeaker){
 311              		.loc 1 157 0
 312              		.cfi_startproc
 313              		@ args = 0, pretend = 0, frame = 8
 314              		@ frame_needed = 1, uses_anonymous_args = 0
 315 0000 80B5     		push	{r7, lr}
 316              		.cfi_def_cfa_offset 8
 317              		.cfi_offset 7, -8
 318              		.cfi_offset 14, -4
 319 0002 82B0     		sub	sp, sp, #8
 320              		.cfi_def_cfa_offset 16
 321 0004 00AF     		add	r7, sp, #0
 322              		.cfi_def_cfa_register 7
 323 0006 0346     		mov	r3, r0
 324 0008 FB71     		strb	r3, [r7, #7]
 158:.\DACaudio.c  ****     
 159:.\DACaudio.c  ****     if((bSpeaker != SPEAKER_1) && (bSpeaker != SPEAKER_2))
 325              		.loc 1 159 0
 326 000a FB79     		ldrb	r3, [r7, #7]	@ zero_extendqisi2
 327 000c 002B     		cmp	r3, #0
 328 000e 04D0     		beq	.L19
 329              		.loc 1 159 0 is_stmt 0 discriminator 1
 330 0010 FB79     		ldrb	r3, [r7, #7]	@ zero_extendqisi2
 331 0012 012B     		cmp	r3, #1
 332 0014 01D0     		beq	.L19
 160:.\DACaudio.c  ****         return false;
 333              		.loc 1 160 0 is_stmt 1
 334 0016 0023     		movs	r3, #0
 335 0018 12E0     		b	.L20
 336              	.L19:
 161:.\DACaudio.c  ****     
 162:.\DACaudio.c  ****     DACtimer1_Stop();
 337              		.loc 1 162 0
 338 001a FFF7FEFF 		bl	DACtimer1_Stop
 163:.\DACaudio.c  ****     VDAC8_1_SetValue(INITIAL_DAC_VALUE);
 339              		.loc 1 163 0
 340 001e 8023     		movs	r3, #128
 341 0020 1846     		mov	r0, r3
 342 0022 FFF7FEFF 		bl	VDAC8_1_SetValue
 164:.\DACaudio.c  ****     VDAC8_1_Stop();
 343              		.loc 1 164 0
 344 0026 FFF7FEFF 		bl	VDAC8_1_Stop
ARM GAS  C:\Users\faithc\AppData\Local\Temp\cclMtKLk.s 			page 10


 165:.\DACaudio.c  ****     PGA_1_Stop();
 345              		.loc 1 165 0
 346 002a FFF7FEFF 		bl	PGA_1_Stop
 166:.\DACaudio.c  ****     
 167:.\DACaudio.c  ****     VDAC8_2_SetValue(INITIAL_DAC_VALUE);
 347              		.loc 1 167 0
 348 002e 8023     		movs	r3, #128
 349 0030 1846     		mov	r0, r3
 350 0032 FFF7FEFF 		bl	VDAC8_2_SetValue
 168:.\DACaudio.c  ****     VDAC8_2_Stop();
 351              		.loc 1 168 0
 352 0036 FFF7FEFF 		bl	VDAC8_2_Stop
 169:.\DACaudio.c  ****     PGA_2_Stop(); 
 353              		.loc 1 169 0
 354 003a FFF7FEFF 		bl	PGA_2_Stop
 170:.\DACaudio.c  ****     
 171:.\DACaudio.c  ****     return true;
 355              		.loc 1 171 0
 356 003e 0123     		movs	r3, #1
 357              	.L20:
 172:.\DACaudio.c  **** }
 358              		.loc 1 172 0
 359 0040 1846     		mov	r0, r3
 360 0042 0837     		adds	r7, r7, #8
 361              		.cfi_def_cfa_offset 8
 362 0044 BD46     		mov	sp, r7
 363              		.cfi_def_cfa_register 13
 364              		@ sp needed
 365 0046 80BD     		pop	{r7, pc}
 366              		.cfi_endproc
 367              	.LFE65:
 368              		.size	stopAudioTone, .-stopAudioTone
 369              		.section	.text.updateDAC1,"ax",%progbits
 370              		.align	2
 371              		.global	updateDAC1
 372              		.thumb
 373              		.thumb_func
 374              		.type	updateDAC1, %function
 375              	updateDAC1:
 376              	.LFB66:
 173:.\DACaudio.c  **** 
 174:.\DACaudio.c  **** /*******************************************************************************
 175:.\DACaudio.c  **** * Function Name: updateDAC1
 176:.\DACaudio.c  **** ********************************************************************************
 177:.\DACaudio.c  **** *
 178:.\DACaudio.c  **** * Summary:
 179:.\DACaudio.c  **** *  Updates the value for DAC1 based on the file data
 180:.\DACaudio.c  **** *
 181:.\DACaudio.c  **** * Parameters: 
 182:.\DACaudio.c  **** *   None
 183:.\DACaudio.c  **** *
 184:.\DACaudio.c  **** * Return:
 185:.\DACaudio.c  **** *   None
 186:.\DACaudio.c  **** *
 187:.\DACaudio.c  **** *******************************************************************************/
 188:.\DACaudio.c  **** void updateDAC1(void)
 189:.\DACaudio.c  **** {
ARM GAS  C:\Users\faithc\AppData\Local\Temp\cclMtKLk.s 			page 11


 377              		.loc 1 189 0
 378              		.cfi_startproc
 379              		@ args = 0, pretend = 0, frame = 8
 380              		@ frame_needed = 1, uses_anonymous_args = 0
 381 0000 80B5     		push	{r7, lr}
 382              		.cfi_def_cfa_offset 8
 383              		.cfi_offset 7, -8
 384              		.cfi_offset 14, -4
 385 0002 82B0     		sub	sp, sp, #8
 386              		.cfi_def_cfa_offset 16
 387 0004 00AF     		add	r7, sp, #0
 388              		.cfi_def_cfa_register 7
 190:.\DACaudio.c  ****     uint8 DACvalue = 0;
 389              		.loc 1 190 0
 390 0006 0023     		movs	r3, #0
 391 0008 FB71     		strb	r3, [r7, #7]
 191:.\DACaudio.c  ****     
 192:.\DACaudio.c  ****     DACtimer1_ReadStatusRegister(); 
 392              		.loc 1 192 0
 393 000a FFF7FEFF 		bl	DACtimer1_ReadStatusRegister
 193:.\DACaudio.c  ****     CyWdtClear();
 394              		.loc 1 193 0
 395 000e FFF7FEFF 		bl	CyWdtClear
 194:.\DACaudio.c  ****     
 195:.\DACaudio.c  ****     DACvalue = getNextWaveData(dataIndex); //Obtains next byte to send to DAC
 396              		.loc 1 195 0
 397 0012 4B4B     		ldr	r3, .L37
 398 0014 1B68     		ldr	r3, [r3]
 399 0016 1846     		mov	r0, r3
 400 0018 FFF7FEFF 		bl	getNextWaveData
 401 001c 0346     		mov	r3, r0
 402 001e FB71     		strb	r3, [r7, #7]
 196:.\DACaudio.c  ****     
 197:.\DACaudio.c  ****     VDAC8_1_SetValue(DACvalue); //Update both DACs at the same time for sync
 403              		.loc 1 197 0
 404 0020 FB79     		ldrb	r3, [r7, #7]	@ zero_extendqisi2
 405 0022 1846     		mov	r0, r3
 406 0024 FFF7FEFF 		bl	VDAC8_1_SetValue
 198:.\DACaudio.c  ****     VDAC8_2_SetValue(DACvalue);
 407              		.loc 1 198 0
 408 0028 FB79     		ldrb	r3, [r7, #7]	@ zero_extendqisi2
 409 002a 1846     		mov	r0, r3
 410 002c FFF7FEFF 		bl	VDAC8_2_SetValue
 199:.\DACaudio.c  ****             
 200:.\DACaudio.c  ****     dataIndex = (dataIndex + 1) % Speaker1.dataSize; //Increment index for song data, resets after 
 411              		.loc 1 200 0
 412 0030 434B     		ldr	r3, .L37
 413 0032 1B68     		ldr	r3, [r3]
 414 0034 0133     		adds	r3, r3, #1
 415 0036 434A     		ldr	r2, .L37+4
 416 0038 9268     		ldr	r2, [r2, #8]
 417 003a B3FBF2F1 		udiv	r1, r3, r2
 418 003e 02FB01F2 		mul	r2, r2, r1
 419 0042 9B1A     		subs	r3, r3, r2
 420 0044 3E4A     		ldr	r2, .L37
 421 0046 1360     		str	r3, [r2]
 201:.\DACaudio.c  ****     
ARM GAS  C:\Users\faithc\AppData\Local\Temp\cclMtKLk.s 			page 12


 202:.\DACaudio.c  ****     switch(currentSongNumber)
 422              		.loc 1 202 0
 423 0048 3F4B     		ldr	r3, .L37+8
 424 004a 1B78     		ldrb	r3, [r3]	@ zero_extendqisi2
 425 004c 0E3B     		subs	r3, r3, #14
 426 004e 072B     		cmp	r3, #7
 427 0050 72D8     		bhi	.L36
 428 0052 01A2     		adr	r2, .L24
 429 0054 52F823F0 		ldr	pc, [r2, r3, lsl #2]
 430              		.p2align 2
 431              	.L24:
 432 0058 79000000 		.word	.L23+1
 433 005c D1000000 		.word	.L25+1
 434 0060 09010000 		.word	.L26+1
 435 0064 09010000 		.word	.L26+1
 436 0068 09010000 		.word	.L26+1
 437 006c 09010000 		.word	.L26+1
 438 0070 09010000 		.word	.L26+1
 439 0074 09010000 		.word	.L26+1
 440              		.p2align 1
 441              	.L23:
 203:.\DACaudio.c  ****     {
 204:.\DACaudio.c  ****         case ECTOSIREN:
 205:.\DACaudio.c  ****             if(!bAudioActive)   //Variable stays high until tone is complete
 442              		.loc 1 205 0
 443 0078 344B     		ldr	r3, .L37+12
 444 007a 1B78     		ldrb	r3, [r3]	@ zero_extendqisi2
 445 007c 002B     		cmp	r3, #0
 446 007e 02D1     		bne	.L27
 206:.\DACaudio.c  ****                 bAudioActive = true;
 447              		.loc 1 206 0
 448 0080 324B     		ldr	r3, .L37+12
 449 0082 0122     		movs	r2, #1
 450 0084 1A70     		strb	r2, [r3]
 451              	.L27:
 207:.\DACaudio.c  ****             
 208:.\DACaudio.c  ****             if(dataIndex == 0)
 452              		.loc 1 208 0
 453 0086 2E4B     		ldr	r3, .L37
 454 0088 1B68     		ldr	r3, [r3]
 455 008a 002B     		cmp	r3, #0
 456 008c 07D1     		bne	.L28
 209:.\DACaudio.c  ****             {   //Reached end of ramp down
 210:.\DACaudio.c  ****                 bAudioActive = false;
 457              		.loc 1 210 0
 458 008e 2F4B     		ldr	r3, .L37+12
 459 0090 0022     		movs	r2, #0
 460 0092 1A70     		strb	r2, [r3]
 211:.\DACaudio.c  ****                 //ModeStatusISR_SetPending();
 212:.\DACaudio.c  ****                 disableAudioAndPWM();
 461              		.loc 1 212 0
 462 0094 FFF7FEFF 		bl	disableAudioAndPWM
 213:.\DACaudio.c  ****                 disableBothSpeakers();
 463              		.loc 1 213 0
 464 0098 FFF7FEFF 		bl	disableBothSpeakers
 465 009c 17E0     		b	.L29
 466              	.L28:
ARM GAS  C:\Users\faithc\AppData\Local\Temp\cclMtKLk.s 			page 13


 214:.\DACaudio.c  ****             }
 215:.\DACaudio.c  ****             else if((dataIndex >= ECTO_CYCLE_END_INDEX) && (dataIndex < ECTO_RAMP_DOWN_INDEX))
 467              		.loc 1 215 0
 468 009e 284B     		ldr	r3, .L37
 469 00a0 1B68     		ldr	r3, [r3]
 470 00a2 45F68452 		movw	r2, #23940
 471 00a6 9342     		cmp	r3, r2
 472 00a8 11D3     		bcc	.L29
 473              		.loc 1 215 0 is_stmt 0 discriminator 1
 474 00aa 254B     		ldr	r3, .L37
 475 00ac 1B68     		ldr	r3, [r3]
 476 00ae 284A     		ldr	r2, .L37+16
 477 00b0 9342     		cmp	r3, r2
 478 00b2 0CD2     		bcs	.L29
 216:.\DACaudio.c  ****             {   //Reached end of ecto cycle
 217:.\DACaudio.c  ****                 if(bAudioInputFlag)
 479              		.loc 1 217 0 is_stmt 1
 480 00b4 274B     		ldr	r3, .L37+20
 481 00b6 1B78     		ldrb	r3, [r3]	@ zero_extendqisi2
 482 00b8 002B     		cmp	r3, #0
 483 00ba 04D0     		beq	.L30
 218:.\DACaudio.c  ****                     dataIndex = ECTO_CYCLE_START_INDEX;
 484              		.loc 1 218 0
 485 00bc 42F63A72 		movw	r2, #12090
 486 00c0 1F4B     		ldr	r3, .L37
 487 00c2 1A60     		str	r2, [r3]
 488 00c4 03E0     		b	.L29
 489              	.L30:
 219:.\DACaudio.c  ****                 else
 220:.\DACaudio.c  ****                     dataIndex = ECTO_RAMP_DOWN_INDEX;
 490              		.loc 1 220 0
 491 00c6 224A     		ldr	r2, .L37+16
 492 00c8 1D4B     		ldr	r3, .L37
 493 00ca 1A60     		str	r2, [r3]
 221:.\DACaudio.c  ****             }
 222:.\DACaudio.c  ****             break;
 494              		.loc 1 222 0
 495 00cc 35E0     		b	.L21
 496              	.L29:
 497 00ce 34E0     		b	.L21
 498              	.L25:
 223:.\DACaudio.c  ****         //case GHOSTBUSTERS:
 224:.\DACaudio.c  ****         case COPS_SONG:
 225:.\DACaudio.c  ****             if(!bAudioActive)   //Variable stays high until tone is complete
 499              		.loc 1 225 0
 500 00d0 1E4B     		ldr	r3, .L37+12
 501 00d2 1B78     		ldrb	r3, [r3]	@ zero_extendqisi2
 502 00d4 002B     		cmp	r3, #0
 503 00d6 02D1     		bne	.L32
 226:.\DACaudio.c  ****                 bAudioActive = true;
 504              		.loc 1 226 0
 505 00d8 1C4B     		ldr	r3, .L37+12
 506 00da 0122     		movs	r2, #1
 507 00dc 1A70     		strb	r2, [r3]
 508              	.L32:
 227:.\DACaudio.c  ****             
 228:.\DACaudio.c  ****             if(dataIndex == 0)
ARM GAS  C:\Users\faithc\AppData\Local\Temp\cclMtKLk.s 			page 14


 509              		.loc 1 228 0
 510 00de 184B     		ldr	r3, .L37
 511 00e0 1B68     		ldr	r3, [r3]
 512 00e2 002B     		cmp	r3, #0
 513 00e4 0FD1     		bne	.L33
 229:.\DACaudio.c  ****             {   //Reached end of song
 230:.\DACaudio.c  ****                 bAudioActive = false;
 514              		.loc 1 230 0
 515 00e6 194B     		ldr	r3, .L37+12
 516 00e8 0022     		movs	r2, #0
 517 00ea 1A70     		strb	r2, [r3]
 231:.\DACaudio.c  ****                 bSongFinishedFlag = true;
 518              		.loc 1 231 0
 519 00ec 1A4B     		ldr	r3, .L37+24
 520 00ee 0122     		movs	r2, #1
 521 00f0 1A70     		strb	r2, [r3]
 232:.\DACaudio.c  ****                 PowerAmpOutput1_Write(false);   //Turn off song
 522              		.loc 1 232 0
 523 00f2 0020     		movs	r0, #0
 524 00f4 FFF7FEFF 		bl	PowerAmpOutput1_Write
 233:.\DACaudio.c  ****                 PowerAmpOutput2_Write(false);
 525              		.loc 1 233 0
 526 00f8 0020     		movs	r0, #0
 527 00fa FFF7FEFF 		bl	PowerAmpOutput2_Write
 234:.\DACaudio.c  ****                 stopAudioTone(SPEAKER_1);
 528              		.loc 1 234 0
 529 00fe 0020     		movs	r0, #0
 530 0100 FFF7FEFF 		bl	stopAudioTone
 235:.\DACaudio.c  ****             }
 236:.\DACaudio.c  ****             break;
 531              		.loc 1 236 0
 532 0104 19E0     		b	.L21
 533              	.L33:
 534 0106 18E0     		b	.L21
 535              	.L26:
 237:.\DACaudio.c  ****         case MOVE_OUT:
 238:.\DACaudio.c  ****         case PULL_OVER:
 239:.\DACaudio.c  ****         case STEP_OUT:
 240:.\DACaudio.c  ****         case STEP_OUT_HANDS_UP:
 241:.\DACaudio.c  ****         case REMAIN_IN_VEHICLE:
 242:.\DACaudio.c  ****         case REMAIN_WINDOW_DOWN:
 243:.\DACaudio.c  ****             if(!bAudioActive)
 536              		.loc 1 243 0
 537 0108 104B     		ldr	r3, .L37+12
 538 010a 1B78     		ldrb	r3, [r3]	@ zero_extendqisi2
 539 010c 002B     		cmp	r3, #0
 540 010e 02D1     		bne	.L34
 244:.\DACaudio.c  ****                 bAudioActive = true;
 541              		.loc 1 244 0
 542 0110 0E4B     		ldr	r3, .L37+12
 543 0112 0122     		movs	r2, #1
 544 0114 1A70     		strb	r2, [r3]
 545              	.L34:
 245:.\DACaudio.c  ****             
 246:.\DACaudio.c  ****             if((dataIndex == 0) && (!bAudioInputFlag))
 546              		.loc 1 246 0
 547 0116 0A4B     		ldr	r3, .L37
ARM GAS  C:\Users\faithc\AppData\Local\Temp\cclMtKLk.s 			page 15


 548 0118 1B68     		ldr	r3, [r3]
 549 011a 002B     		cmp	r3, #0
 550 011c 0BD1     		bne	.L35
 551              		.loc 1 246 0 is_stmt 0 discriminator 1
 552 011e 0D4B     		ldr	r3, .L37+20
 553 0120 1B78     		ldrb	r3, [r3]	@ zero_extendqisi2
 554 0122 002B     		cmp	r3, #0
 555 0124 07D1     		bne	.L35
 247:.\DACaudio.c  ****             {   //Reached end of command
 248:.\DACaudio.c  ****                 bAudioActive = false;
 556              		.loc 1 248 0 is_stmt 1
 557 0126 094B     		ldr	r3, .L37+12
 558 0128 0022     		movs	r2, #0
 559 012a 1A70     		strb	r2, [r3]
 249:.\DACaudio.c  ****                 //ModeStatusISR_SetPending();
 250:.\DACaudio.c  ****                 disableAudioAndPWM();
 560              		.loc 1 250 0
 561 012c FFF7FEFF 		bl	disableAudioAndPWM
 251:.\DACaudio.c  ****                 disableBothSpeakers();
 562              		.loc 1 251 0
 563 0130 FFF7FEFF 		bl	disableBothSpeakers
 252:.\DACaudio.c  ****             }
 253:.\DACaudio.c  ****             break;
 564              		.loc 1 253 0
 565 0134 01E0     		b	.L21
 566              	.L35:
 567 0136 00E0     		b	.L21
 568              	.L36:
 254:.\DACaudio.c  ****         default:
 255:.\DACaudio.c  ****             break;
 569              		.loc 1 255 0
 570 0138 00BF     		nop
 571              	.L21:
 256:.\DACaudio.c  ****     }
 257:.\DACaudio.c  **** }
 572              		.loc 1 257 0
 573 013a 0837     		adds	r7, r7, #8
 574              		.cfi_def_cfa_offset 8
 575 013c BD46     		mov	sp, r7
 576              		.cfi_def_cfa_register 13
 577              		@ sp needed
 578 013e 80BD     		pop	{r7, pc}
 579              	.L38:
 580              		.align	2
 581              	.L37:
 582 0140 04000000 		.word	dataIndex
 583 0144 0C000000 		.word	Speaker1
 584 0148 00000000 		.word	currentSongNumber
 585 014c 0A000000 		.word	bAudioActive
 586 0150 0A450100 		.word	83210
 587 0154 09000000 		.word	bAudioInputFlag
 588 0158 0B000000 		.word	bSongFinishedFlag
 589              		.cfi_endproc
 590              	.LFE66:
 591              		.size	updateDAC1, .-updateDAC1
 592              		.section	.text.updateDAC2,"ax",%progbits
 593              		.align	2
ARM GAS  C:\Users\faithc\AppData\Local\Temp\cclMtKLk.s 			page 16


 594              		.global	updateDAC2
 595              		.thumb
 596              		.thumb_func
 597              		.type	updateDAC2, %function
 598              	updateDAC2:
 599              	.LFB67:
 258:.\DACaudio.c  **** 
 259:.\DACaudio.c  **** /*******************************************************************************
 260:.\DACaudio.c  **** * Function Name: updateDAC2
 261:.\DACaudio.c  **** ********************************************************************************
 262:.\DACaudio.c  **** *
 263:.\DACaudio.c  **** * Summary:
 264:.\DACaudio.c  **** *  Updates the value for DAC2 based on the file data
 265:.\DACaudio.c  **** *
 266:.\DACaudio.c  **** * Parameters: 
 267:.\DACaudio.c  **** *   None
 268:.\DACaudio.c  **** *
 269:.\DACaudio.c  **** * Return:
 270:.\DACaudio.c  **** *   None
 271:.\DACaudio.c  **** *
 272:.\DACaudio.c  **** *******************************************************************************/
 273:.\DACaudio.c  **** void updateDAC2(void)
 274:.\DACaudio.c  **** {
 600              		.loc 1 274 0
 601              		.cfi_startproc
 602              		@ args = 0, pretend = 0, frame = 8
 603              		@ frame_needed = 1, uses_anonymous_args = 0
 604 0000 80B5     		push	{r7, lr}
 605              		.cfi_def_cfa_offset 8
 606              		.cfi_offset 7, -8
 607              		.cfi_offset 14, -4
 608 0002 82B0     		sub	sp, sp, #8
 609              		.cfi_def_cfa_offset 16
 610 0004 00AF     		add	r7, sp, #0
 611              		.cfi_def_cfa_register 7
 275:.\DACaudio.c  ****     //static uint32 dataIndex = 0;
 276:.\DACaudio.c  ****     uint8 DACvalue = 0;
 612              		.loc 1 276 0
 613 0006 0023     		movs	r3, #0
 614 0008 FB71     		strb	r3, [r7, #7]
 277:.\DACaudio.c  ****     
 278:.\DACaudio.c  ****     DACtimer2_ReadStatusRegister();   
 615              		.loc 1 278 0
 616 000a FFF7FEFF 		bl	DACtimer2_ReadStatusRegister
 279:.\DACaudio.c  ****     CyWdtClear();
 617              		.loc 1 279 0
 618 000e FFF7FEFF 		bl	CyWdtClear
 280:.\DACaudio.c  ****     
 281:.\DACaudio.c  ****     DACvalue = getNextWaveData(dataIndex); 
 619              		.loc 1 281 0
 620 0012 2B4B     		ldr	r3, .L48
 621 0014 1B68     		ldr	r3, [r3]
 622 0016 1846     		mov	r0, r3
 623 0018 FFF7FEFF 		bl	getNextWaveData
 624 001c 0346     		mov	r3, r0
 625 001e FB71     		strb	r3, [r7, #7]
 282:.\DACaudio.c  ****     
ARM GAS  C:\Users\faithc\AppData\Local\Temp\cclMtKLk.s 			page 17


 283:.\DACaudio.c  ****     if(Speaker2.bytesPerSample == 1)
 626              		.loc 1 283 0
 627 0020 284B     		ldr	r3, .L48+4
 628 0022 5B78     		ldrb	r3, [r3, #1]	@ zero_extendqisi2
 629 0024 012B     		cmp	r3, #1
 630 0026 24D1     		bne	.L40
 284:.\DACaudio.c  ****     {   //8-bit data
 285:.\DACaudio.c  ****         if(Speaker2.channelCount == 1)
 631              		.loc 1 285 0
 632 0028 264B     		ldr	r3, .L48+4
 633 002a 1B78     		ldrb	r3, [r3]	@ zero_extendqisi2
 634 002c 012B     		cmp	r3, #1
 635 002e 04D1     		bne	.L41
 286:.\DACaudio.c  ****             VDAC8_2_SetValue(DACvalue);
 636              		.loc 1 286 0
 637 0030 FB79     		ldrb	r3, [r7, #7]	@ zero_extendqisi2
 638 0032 1846     		mov	r0, r3
 639 0034 FFF7FEFF 		bl	VDAC8_2_SetValue
 640 0038 0EE0     		b	.L42
 641              	.L41:
 287:.\DACaudio.c  ****         else
 288:.\DACaudio.c  ****         {   //2 channels
 289:.\DACaudio.c  ****             if((dataIndex % 2) == 0)
 642              		.loc 1 289 0
 643 003a 214B     		ldr	r3, .L48
 644 003c 1B68     		ldr	r3, [r3]
 645 003e 03F00103 		and	r3, r3, #1
 646 0042 002B     		cmp	r3, #0
 647 0044 04D1     		bne	.L43
 290:.\DACaudio.c  ****                 VDAC8_1_SetValue(DACvalue);
 648              		.loc 1 290 0
 649 0046 FB79     		ldrb	r3, [r7, #7]	@ zero_extendqisi2
 650 0048 1846     		mov	r0, r3
 651 004a FFF7FEFF 		bl	VDAC8_1_SetValue
 652 004e 03E0     		b	.L42
 653              	.L43:
 291:.\DACaudio.c  ****             else
 292:.\DACaudio.c  ****                 VDAC8_2_SetValue(DACvalue);
 654              		.loc 1 292 0
 655 0050 FB79     		ldrb	r3, [r7, #7]	@ zero_extendqisi2
 656 0052 1846     		mov	r0, r3
 657 0054 FFF7FEFF 		bl	VDAC8_2_SetValue
 658              	.L42:
 293:.\DACaudio.c  ****         }
 294:.\DACaudio.c  ****         
 295:.\DACaudio.c  ****         dataIndex = (dataIndex + 1) % Speaker2.dataSize;
 659              		.loc 1 295 0
 660 0058 194B     		ldr	r3, .L48
 661 005a 1B68     		ldr	r3, [r3]
 662 005c 0133     		adds	r3, r3, #1
 663 005e 194A     		ldr	r2, .L48+4
 664 0060 9268     		ldr	r2, [r2, #8]
 665 0062 B3FBF2F1 		udiv	r1, r3, r2
 666 0066 02FB01F2 		mul	r2, r2, r1
 667 006a 9B1A     		subs	r3, r3, r2
 668 006c 144A     		ldr	r2, .L48
 669 006e 1360     		str	r3, [r2]
ARM GAS  C:\Users\faithc\AppData\Local\Temp\cclMtKLk.s 			page 18


 670 0070 23E0     		b	.L39
 671              	.L40:
 296:.\DACaudio.c  ****     }
 297:.\DACaudio.c  ****     else
 298:.\DACaudio.c  ****     {   //16-bit data
 299:.\DACaudio.c  ****         if(Speaker2.channelCount == 1)
 672              		.loc 1 299 0
 673 0072 144B     		ldr	r3, .L48+4
 674 0074 1B78     		ldrb	r3, [r3]	@ zero_extendqisi2
 675 0076 012B     		cmp	r3, #1
 676 0078 04D1     		bne	.L45
 300:.\DACaudio.c  ****             VDAC8_2_SetValue(DACvalue);
 677              		.loc 1 300 0
 678 007a FB79     		ldrb	r3, [r7, #7]	@ zero_extendqisi2
 679 007c 1846     		mov	r0, r3
 680 007e FFF7FEFF 		bl	VDAC8_2_SetValue
 681 0082 0EE0     		b	.L46
 682              	.L45:
 301:.\DACaudio.c  ****         else
 302:.\DACaudio.c  ****         {   //2 channels
 303:.\DACaudio.c  ****             if((dataIndex % 4) == 0)
 683              		.loc 1 303 0
 684 0084 0E4B     		ldr	r3, .L48
 685 0086 1B68     		ldr	r3, [r3]
 686 0088 03F00303 		and	r3, r3, #3
 687 008c 002B     		cmp	r3, #0
 688 008e 04D1     		bne	.L47
 304:.\DACaudio.c  ****                 VDAC8_1_SetValue(DACvalue);
 689              		.loc 1 304 0
 690 0090 FB79     		ldrb	r3, [r7, #7]	@ zero_extendqisi2
 691 0092 1846     		mov	r0, r3
 692 0094 FFF7FEFF 		bl	VDAC8_1_SetValue
 693 0098 03E0     		b	.L46
 694              	.L47:
 305:.\DACaudio.c  ****             else
 306:.\DACaudio.c  ****                 VDAC8_2_SetValue(DACvalue);
 695              		.loc 1 306 0
 696 009a FB79     		ldrb	r3, [r7, #7]	@ zero_extendqisi2
 697 009c 1846     		mov	r0, r3
 698 009e FFF7FEFF 		bl	VDAC8_2_SetValue
 699              	.L46:
 307:.\DACaudio.c  ****         }
 308:.\DACaudio.c  ****         
 309:.\DACaudio.c  ****         dataIndex = (dataIndex + 2) % Speaker2.dataSize;
 700              		.loc 1 309 0
 701 00a2 074B     		ldr	r3, .L48
 702 00a4 1B68     		ldr	r3, [r3]
 703 00a6 0233     		adds	r3, r3, #2
 704 00a8 064A     		ldr	r2, .L48+4
 705 00aa 9268     		ldr	r2, [r2, #8]
 706 00ac B3FBF2F1 		udiv	r1, r3, r2
 707 00b0 02FB01F2 		mul	r2, r2, r1
 708 00b4 9B1A     		subs	r3, r3, r2
 709 00b6 024A     		ldr	r2, .L48
 710 00b8 1360     		str	r3, [r2]
 711              	.L39:
 310:.\DACaudio.c  ****     }
ARM GAS  C:\Users\faithc\AppData\Local\Temp\cclMtKLk.s 			page 19


 311:.\DACaudio.c  **** }
 712              		.loc 1 311 0
 713 00ba 0837     		adds	r7, r7, #8
 714              		.cfi_def_cfa_offset 8
 715 00bc BD46     		mov	sp, r7
 716              		.cfi_def_cfa_register 13
 717              		@ sp needed
 718 00be 80BD     		pop	{r7, pc}
 719              	.L49:
 720              		.align	2
 721              	.L48:
 722 00c0 04000000 		.word	dataIndex
 723 00c4 18000000 		.word	Speaker2
 724              		.cfi_endproc
 725              	.LFE67:
 726              		.size	updateDAC2, .-updateDAC2
 727              		.section	.text.isAudioActive,"ax",%progbits
 728              		.align	2
 729              		.global	isAudioActive
 730              		.thumb
 731              		.thumb_func
 732              		.type	isAudioActive, %function
 733              	isAudioActive:
 734              	.LFB68:
 312:.\DACaudio.c  **** 
 313:.\DACaudio.c  **** /*******************************************************************************
 314:.\DACaudio.c  **** * Function Name: isAudioActive
 315:.\DACaudio.c  **** ********************************************************************************
 316:.\DACaudio.c  **** *
 317:.\DACaudio.c  **** * Summary:
 318:.\DACaudio.c  **** *  Returns the status of an audio tone
 319:.\DACaudio.c  **** *
 320:.\DACaudio.c  **** * Parameters: 
 321:.\DACaudio.c  **** *   None
 322:.\DACaudio.c  **** *
 323:.\DACaudio.c  **** * Return:
 324:.\DACaudio.c  **** *   TRUE if active, FALSE if inactive
 325:.\DACaudio.c  **** *
 326:.\DACaudio.c  **** *******************************************************************************/
 327:.\DACaudio.c  **** uint8 isAudioActive(void)
 328:.\DACaudio.c  **** {
 735              		.loc 1 328 0
 736              		.cfi_startproc
 737              		@ args = 0, pretend = 0, frame = 0
 738              		@ frame_needed = 1, uses_anonymous_args = 0
 739              		@ link register save eliminated.
 740 0000 80B4     		push	{r7}
 741              		.cfi_def_cfa_offset 4
 742              		.cfi_offset 7, -4
 743 0002 00AF     		add	r7, sp, #0
 744              		.cfi_def_cfa_register 7
 329:.\DACaudio.c  ****     return bAudioActive;
 745              		.loc 1 329 0
 746 0004 034B     		ldr	r3, .L52
 747 0006 1B78     		ldrb	r3, [r3]	@ zero_extendqisi2
 330:.\DACaudio.c  **** }
 748              		.loc 1 330 0
ARM GAS  C:\Users\faithc\AppData\Local\Temp\cclMtKLk.s 			page 20


 749 0008 1846     		mov	r0, r3
 750 000a BD46     		mov	sp, r7
 751              		.cfi_def_cfa_register 13
 752              		@ sp needed
 753 000c 5DF8047B 		ldr	r7, [sp], #4
 754              		.cfi_restore 7
 755              		.cfi_def_cfa_offset 0
 756 0010 7047     		bx	lr
 757              	.L53:
 758 0012 00BF     		.align	2
 759              	.L52:
 760 0014 0A000000 		.word	bAudioActive
 761              		.cfi_endproc
 762              	.LFE68:
 763              		.size	isAudioActive, .-isAudioActive
 764              		.section	.text.deactivateAudio,"ax",%progbits
 765              		.align	2
 766              		.global	deactivateAudio
 767              		.thumb
 768              		.thumb_func
 769              		.type	deactivateAudio, %function
 770              	deactivateAudio:
 771              	.LFB69:
 331:.\DACaudio.c  **** 
 332:.\DACaudio.c  **** /*******************************************************************************
 333:.\DACaudio.c  **** * Function Name: deactivateAudio
 334:.\DACaudio.c  **** ********************************************************************************
 335:.\DACaudio.c  **** *
 336:.\DACaudio.c  **** * Summary:
 337:.\DACaudio.c  **** *  Updates the boolean to deactivate an audio tone
 338:.\DACaudio.c  **** *
 339:.\DACaudio.c  **** * Parameters: 
 340:.\DACaudio.c  **** *   None
 341:.\DACaudio.c  **** *
 342:.\DACaudio.c  **** * Return:
 343:.\DACaudio.c  **** *   None
 344:.\DACaudio.c  **** *
 345:.\DACaudio.c  **** *******************************************************************************/
 346:.\DACaudio.c  **** void deactivateAudio(void)
 347:.\DACaudio.c  **** {
 772              		.loc 1 347 0
 773              		.cfi_startproc
 774              		@ args = 0, pretend = 0, frame = 0
 775              		@ frame_needed = 1, uses_anonymous_args = 0
 776              		@ link register save eliminated.
 777 0000 80B4     		push	{r7}
 778              		.cfi_def_cfa_offset 4
 779              		.cfi_offset 7, -4
 780 0002 00AF     		add	r7, sp, #0
 781              		.cfi_def_cfa_register 7
 348:.\DACaudio.c  ****     bAudioActive = false;
 782              		.loc 1 348 0
 783 0004 034B     		ldr	r3, .L55
 784 0006 0022     		movs	r2, #0
 785 0008 1A70     		strb	r2, [r3]
 349:.\DACaudio.c  **** }
 786              		.loc 1 349 0
ARM GAS  C:\Users\faithc\AppData\Local\Temp\cclMtKLk.s 			page 21


 787 000a BD46     		mov	sp, r7
 788              		.cfi_def_cfa_register 13
 789              		@ sp needed
 790 000c 5DF8047B 		ldr	r7, [sp], #4
 791              		.cfi_restore 7
 792              		.cfi_def_cfa_offset 0
 793 0010 7047     		bx	lr
 794              	.L56:
 795 0012 00BF     		.align	2
 796              	.L55:
 797 0014 0A000000 		.word	bAudioActive
 798              		.cfi_endproc
 799              	.LFE69:
 800              		.size	deactivateAudio, .-deactivateAudio
 801              		.section	.text.isMusicReady,"ax",%progbits
 802              		.align	2
 803              		.thumb
 804              		.thumb_func
 805              		.type	isMusicReady, %function
 806              	isMusicReady:
 807              	.LFB70:
 350:.\DACaudio.c  **** 
 351:.\DACaudio.c  **** /*******************************************************************************
 352:.\DACaudio.c  **** * Function Name: isMusicReady
 353:.\DACaudio.c  **** ********************************************************************************
 354:.\DACaudio.c  **** *
 355:.\DACaudio.c  **** * Summary:
 356:.\DACaudio.c  **** *  Verifies that music file is valid and obtains data to process file
 357:.\DACaudio.c  **** *
 358:.\DACaudio.c  **** * Parameters: 
 359:.\DACaudio.c  **** *   None
 360:.\DACaudio.c  **** *
 361:.\DACaudio.c  **** * Return:
 362:.\DACaudio.c  **** *   TRUE for valid inputs, FALSE otherwise
 363:.\DACaudio.c  **** *
 364:.\DACaudio.c  **** *******************************************************************************/
 365:.\DACaudio.c  **** static uint8 isMusicReady(enum ToneType songChoice)
 366:.\DACaudio.c  **** {
 808              		.loc 1 366 0
 809              		.cfi_startproc
 810              		@ args = 0, pretend = 0, frame = 8
 811              		@ frame_needed = 1, uses_anonymous_args = 0
 812 0000 80B5     		push	{r7, lr}
 813              		.cfi_def_cfa_offset 8
 814              		.cfi_offset 7, -8
 815              		.cfi_offset 14, -4
 816 0002 82B0     		sub	sp, sp, #8
 817              		.cfi_def_cfa_offset 16
 818 0004 00AF     		add	r7, sp, #0
 819              		.cfi_def_cfa_register 7
 820 0006 0346     		mov	r3, r0
 821 0008 FB71     		strb	r3, [r7, #7]
 367:.\DACaudio.c  ****     if((songChoice < ECTOSIREN) || (songChoice > REMAIN_WINDOW_DOWN))
 822              		.loc 1 367 0
 823 000a FB79     		ldrb	r3, [r7, #7]	@ zero_extendqisi2
 824 000c 0D2B     		cmp	r3, #13
 825 000e 02D9     		bls	.L58
ARM GAS  C:\Users\faithc\AppData\Local\Temp\cclMtKLk.s 			page 22


 826              		.loc 1 367 0 is_stmt 0 discriminator 1
 827 0010 FB79     		ldrb	r3, [r7, #7]	@ zero_extendqisi2
 828 0012 152B     		cmp	r3, #21
 829 0014 01D9     		bls	.L59
 830              	.L58:
 368:.\DACaudio.c  ****         return false;
 831              		.loc 1 368 0 is_stmt 1
 832 0016 0023     		movs	r3, #0
 833 0018 1FE0     		b	.L60
 834              	.L59:
 369:.\DACaudio.c  ****     
 370:.\DACaudio.c  ****     if(!processHeaderData(songChoice))
 835              		.loc 1 370 0
 836 001a FB79     		ldrb	r3, [r7, #7]	@ zero_extendqisi2
 837 001c 1846     		mov	r0, r3
 838 001e FFF7FEFF 		bl	processHeaderData
 839 0022 0346     		mov	r3, r0
 840 0024 002B     		cmp	r3, #0
 841 0026 01D1     		bne	.L61
 371:.\DACaudio.c  **** 		return false;
 842              		.loc 1 371 0
 843 0028 0023     		movs	r3, #0
 844 002a 16E0     		b	.L60
 845              	.L61:
 372:.\DACaudio.c  **** 	
 373:.\DACaudio.c  **** 	Speaker1.channelCount = getChannelCount();
 846              		.loc 1 373 0
 847 002c FFF7FEFF 		bl	getChannelCount
 848 0030 0346     		mov	r3, r0
 849 0032 1A46     		mov	r2, r3
 850 0034 0B4B     		ldr	r3, .L62
 851 0036 1A70     		strb	r2, [r3]
 374:.\DACaudio.c  **** 	Speaker1.bytesPerSample = getBytesPerSample();
 852              		.loc 1 374 0
 853 0038 FFF7FEFF 		bl	getBytesPerSample
 854 003c 0346     		mov	r3, r0
 855 003e 1A46     		mov	r2, r3
 856 0040 084B     		ldr	r3, .L62
 857 0042 5A70     		strb	r2, [r3, #1]
 375:.\DACaudio.c  **** 	Speaker1.dataSize = getDataSize();
 858              		.loc 1 375 0
 859 0044 FFF7FEFF 		bl	getDataSize
 860 0048 0246     		mov	r2, r0
 861 004a 064B     		ldr	r3, .L62
 862 004c 9A60     		str	r2, [r3, #8]
 376:.\DACaudio.c  **** 	Speaker1.samplingRate = getSamplingRate();
 863              		.loc 1 376 0
 864 004e FFF7FEFF 		bl	getSamplingRate
 865 0052 0246     		mov	r2, r0
 866 0054 034B     		ldr	r3, .L62
 867 0056 5A60     		str	r2, [r3, #4]
 377:.\DACaudio.c  **** 		
 378:.\DACaudio.c  **** 	return true;
 868              		.loc 1 378 0
 869 0058 0123     		movs	r3, #1
 870              	.L60:
 379:.\DACaudio.c  **** }
ARM GAS  C:\Users\faithc\AppData\Local\Temp\cclMtKLk.s 			page 23


 871              		.loc 1 379 0
 872 005a 1846     		mov	r0, r3
 873 005c 0837     		adds	r7, r7, #8
 874              		.cfi_def_cfa_offset 8
 875 005e BD46     		mov	sp, r7
 876              		.cfi_def_cfa_register 13
 877              		@ sp needed
 878 0060 80BD     		pop	{r7, pc}
 879              	.L63:
 880 0062 00BF     		.align	2
 881              	.L62:
 882 0064 0C000000 		.word	Speaker1
 883              		.cfi_endproc
 884              	.LFE70:
 885              		.size	isMusicReady, .-isMusicReady
 886              		.section	.text.getSamplingReloadValue,"ax",%progbits
 887              		.align	2
 888              		.thumb
 889              		.thumb_func
 890              		.type	getSamplingReloadValue, %function
 891              	getSamplingReloadValue:
 892              	.LFB71:
 380:.\DACaudio.c  **** 
 381:.\DACaudio.c  **** /*******************************************************************************
 382:.\DACaudio.c  **** * Function Name: getSamplingReloadValue
 383:.\DACaudio.c  **** ********************************************************************************
 384:.\DACaudio.c  **** *
 385:.\DACaudio.c  **** * Summary:
 386:.\DACaudio.c  **** *  Calculates the corresponding reload value for the sampling rate
 387:.\DACaudio.c  **** *
 388:.\DACaudio.c  **** * Parameters: 
 389:.\DACaudio.c  **** *   samplingRate: The 32-bit sampling rate in Hertz
 390:.\DACaudio.c  **** *
 391:.\DACaudio.c  **** * Return:
 392:.\DACaudio.c  **** *   The corresponding reload value
 393:.\DACaudio.c  **** *
 394:.\DACaudio.c  **** *******************************************************************************/
 395:.\DACaudio.c  **** static uint16 getSamplingReloadValue(uint32 samplingRate)
 396:.\DACaudio.c  **** {
 893              		.loc 1 396 0
 894              		.cfi_startproc
 895              		@ args = 0, pretend = 0, frame = 8
 896              		@ frame_needed = 1, uses_anonymous_args = 0
 897              		@ link register save eliminated.
 898 0000 80B4     		push	{r7}
 899              		.cfi_def_cfa_offset 4
 900              		.cfi_offset 7, -4
 901 0002 83B0     		sub	sp, sp, #12
 902              		.cfi_def_cfa_offset 16
 903 0004 00AF     		add	r7, sp, #0
 904              		.cfi_def_cfa_register 7
 905 0006 7860     		str	r0, [r7, #4]
 397:.\DACaudio.c  ****     static const uint32 TIMER_FREQUENCY = 48000000;
 398:.\DACaudio.c  ****     return (uint16)(TIMER_FREQUENCY / samplingRate);
 906              		.loc 1 398 0
 907 0008 054A     		ldr	r2, .L66
 908 000a 7B68     		ldr	r3, [r7, #4]
ARM GAS  C:\Users\faithc\AppData\Local\Temp\cclMtKLk.s 			page 24


 909 000c B2FBF3F3 		udiv	r3, r2, r3
 910 0010 9BB2     		uxth	r3, r3
 399:.\DACaudio.c  **** }
 911              		.loc 1 399 0
 912 0012 1846     		mov	r0, r3
 913 0014 0C37     		adds	r7, r7, #12
 914              		.cfi_def_cfa_offset 4
 915 0016 BD46     		mov	sp, r7
 916              		.cfi_def_cfa_register 13
 917              		@ sp needed
 918 0018 5DF8047B 		ldr	r7, [sp], #4
 919              		.cfi_restore 7
 920              		.cfi_def_cfa_offset 0
 921 001c 7047     		bx	lr
 922              	.L67:
 923 001e 00BF     		.align	2
 924              	.L66:
 925 0020 006CDC02 		.word	48000000
 926              		.cfi_endproc
 927              	.LFE71:
 928              		.size	getSamplingReloadValue, .-getSamplingReloadValue
 929              		.section	.rodata
 930              		.align	2
 931              		.type	TIMER_FREQUENCY.7290, %object
 932              		.size	TIMER_FREQUENCY.7290, 4
 933              	TIMER_FREQUENCY.7290:
 934 0014 006CDC02 		.word	48000000
 935              		.text
 936              	.Letext0:
 937              		.file 2 "c:\\program files (x86)\\cypress\\psoc creator\\3.3\\psoc creator\\import\\gnu\\arm\\4.9.
 938              		.file 3 "c:\\program files (x86)\\cypress\\psoc creator\\3.3\\psoc creator\\import\\gnu\\arm\\4.9.
 939              		.file 4 "Generated_Source\\PSoC5/cytypes.h"
 940              		.file 5 ".\\CommonVariables.h"
 941              		.file 6 "Generated_Source\\PSoC5/core_cm3.h"