ARM GAS  C:\Users\faithc\AppData\Local\Temp\ccWj2KI0.s 			page 1


   1              		.syntax unified
   2              		.cpu cortex-m3
   3              		.fpu softvfp
   4              		.eabi_attribute 20, 1
   5              		.eabi_attribute 21, 1
   6              		.eabi_attribute 23, 3
   7              		.eabi_attribute 24, 1
   8              		.eabi_attribute 25, 1
   9              		.eabi_attribute 26, 1
  10              		.eabi_attribute 30, 6
  11              		.eabi_attribute 34, 1
  12              		.eabi_attribute 18, 4
  13              		.thumb
  14              		.file	"Fault.c"
  15              		.text
  16              	.Ltext0:
  17              		.cfi_sections	.debug_frame
  18              		.section	.rodata
  19              		.type	WAIT_TIME_IN_HALF_SECONDS, %object
  20              		.size	WAIT_TIME_IN_HALF_SECONDS, 1
  21              	WAIT_TIME_IN_HALF_SECONDS:
  22 0000 0A       		.byte	10
  23              		.bss
  24              	bOverloadFlag:
  25 0000 00       		.space	1
  26              		.section	.text.isThereOverload,"ax",%progbits
  27              		.align	2
  28              		.global	isThereOverload
  29              		.thumb
  30              		.thumb_func
  31              		.type	isThereOverload, %function
  32              	isThereOverload:
  33              	.LFB63:
  34              		.file 1 ".\\Fault.c"
   1:.\Fault.c     **** /* ========================================
   2:.\Fault.c     ****  *
   3:.\Fault.c     ****  * Copyright YOUR COMPANY, THE YEAR
   4:.\Fault.c     ****  * All Rights Reserved
   5:.\Fault.c     ****  * UNPUBLISHED, LICENSED SOFTWARE.
   6:.\Fault.c     ****  *
   7:.\Fault.c     ****  * CONFIDENTIAL AND PROPRIETARY INFORMATION
   8:.\Fault.c     ****  * WHICH IS THE PROPERTY OF your company.
   9:.\Fault.c     ****  *
  10:.\Fault.c     ****  * ========================================
  11:.\Fault.c     **** */
  12:.\Fault.c     **** 
  13:.\Fault.c     **** /**********PREPROCESSOR DIRECTIVES**********/
  14:.\Fault.c     **** #include "CommonVariables.h"
  15:.\Fault.c     **** #include "Fault.h"
  16:.\Fault.c     **** #include "Tones.h"
  17:.\Fault.c     **** #include "DACaudio.h"
  18:.\Fault.c     **** 
  19:.\Fault.c     **** /**********DEFINED CONSTANTS**********/
  20:.\Fault.c     **** static const uint8 WAIT_TIME_IN_HALF_SECONDS = 10;
  21:.\Fault.c     **** 
  22:.\Fault.c     **** /**********DATA STRUCTURES**********/
  23:.\Fault.c     **** 
ARM GAS  C:\Users\faithc\AppData\Local\Temp\ccWj2KI0.s 			page 2


  24:.\Fault.c     **** /**********GLOBAL VARIABLES**********/
  25:.\Fault.c     **** static uint8 bOverloadFlag = false;
  26:.\Fault.c     **** 
  27:.\Fault.c     **** /**********FUNCTION PROTOTYPES**********/
  28:.\Fault.c     **** 
  29:.\Fault.c     **** /**********DEFINED FUNCTIONS**********/
  30:.\Fault.c     **** 
  31:.\Fault.c     **** /*******************************************************************************
  32:.\Fault.c     **** * Function Name: isThereOverload
  33:.\Fault.c     **** ********************************************************************************
  34:.\Fault.c     **** *
  35:.\Fault.c     **** * Summary:
  36:.\Fault.c     **** *  Returns the boolean for overload detection
  37:.\Fault.c     **** *
  38:.\Fault.c     **** * Parameters:  
  39:.\Fault.c     **** *   None
  40:.\Fault.c     **** *
  41:.\Fault.c     **** * Return:
  42:.\Fault.c     **** *   The boolean for overload detection
  43:.\Fault.c     **** *
  44:.\Fault.c     **** *******************************************************************************/
  45:.\Fault.c     **** uint8 isThereOverload(void)
  46:.\Fault.c     **** {   
  35              		.loc 1 46 0
  36              		.cfi_startproc
  37              		@ args = 0, pretend = 0, frame = 0
  38              		@ frame_needed = 1, uses_anonymous_args = 0
  39              		@ link register save eliminated.
  40 0000 80B4     		push	{r7}
  41              		.cfi_def_cfa_offset 4
  42              		.cfi_offset 7, -4
  43 0002 00AF     		add	r7, sp, #0
  44              		.cfi_def_cfa_register 7
  47:.\Fault.c     ****     return bOverloadFlag;
  45              		.loc 1 47 0
  46 0004 034B     		ldr	r3, .L3
  47 0006 1B78     		ldrb	r3, [r3]	@ zero_extendqisi2
  48:.\Fault.c     **** }
  48              		.loc 1 48 0
  49 0008 1846     		mov	r0, r3
  50 000a BD46     		mov	sp, r7
  51              		.cfi_def_cfa_register 13
  52              		@ sp needed
  53 000c 5DF8047B 		ldr	r7, [sp], #4
  54              		.cfi_restore 7
  55              		.cfi_def_cfa_offset 0
  56 0010 7047     		bx	lr
  57              	.L4:
  58 0012 00BF     		.align	2
  59              	.L3:
  60 0014 00000000 		.word	bOverloadFlag
  61              		.cfi_endproc
  62              	.LFE63:
  63              		.size	isThereOverload, .-isThereOverload
  64              		.section	.text.processOverloadRoutine,"ax",%progbits
  65              		.align	2
  66              		.global	processOverloadRoutine
ARM GAS  C:\Users\faithc\AppData\Local\Temp\ccWj2KI0.s 			page 3


  67              		.thumb
  68              		.thumb_func
  69              		.type	processOverloadRoutine, %function
  70              	processOverloadRoutine:
  71              	.LFB64:
  49:.\Fault.c     **** 
  50:.\Fault.c     **** /*******************************************************************************
  51:.\Fault.c     **** * Function Name: processOverloadRoutine
  52:.\Fault.c     **** ********************************************************************************
  53:.\Fault.c     **** *
  54:.\Fault.c     **** * Summary:
  55:.\Fault.c     **** *  Waits for overload signal to clear before restarting the siren system,
  56:.\Fault.c     **** *  called in main
  57:.\Fault.c     **** *
  58:.\Fault.c     **** * Parameters:  
  59:.\Fault.c     **** *   None
  60:.\Fault.c     **** *
  61:.\Fault.c     **** * Return:
  62:.\Fault.c     **** *   None
  63:.\Fault.c     **** *
  64:.\Fault.c     **** *******************************************************************************/
  65:.\Fault.c     **** void processOverloadRoutine(void)
  66:.\Fault.c     **** {
  72              		.loc 1 66 0
  73              		.cfi_startproc
  74              		@ args = 0, pretend = 0, frame = 8
  75              		@ frame_needed = 1, uses_anonymous_args = 0
  76 0000 80B5     		push	{r7, lr}
  77              		.cfi_def_cfa_offset 8
  78              		.cfi_offset 7, -8
  79              		.cfi_offset 14, -4
  80 0002 82B0     		sub	sp, sp, #8
  81              		.cfi_def_cfa_offset 16
  82 0004 00AF     		add	r7, sp, #0
  83              		.cfi_def_cfa_register 7
  67:.\Fault.c     ****     uint8 index = 0;
  84              		.loc 1 67 0
  85 0006 0023     		movs	r3, #0
  86 0008 FB71     		strb	r3, [r7, #7]
  68:.\Fault.c     ****     CyGlobalIntDisable;
  87              		.loc 1 68 0
  88              	@ 68 ".\Fault.c" 1
  89 000a 72B6     		CPSID   i
  90              	@ 0 "" 2
  69:.\Fault.c     ****     
  70:.\Fault.c     ****     while(!OverloadInput1_Read() || !OverloadInput2_Read())
  91              		.loc 1 70 0
  92              		.thumb
  93 000c 1DE0     		b	.L6
  94              	.L9:
  71:.\Fault.c     ****     {   //Cannot use do-while loop to prevent cool-down at startup
  72:.\Fault.c     ****         PowerAmpOutput1_Write(false);
  95              		.loc 1 72 0
  96 000e 0020     		movs	r0, #0
  97 0010 FFF7FEFF 		bl	PowerAmpOutput1_Write
  73:.\Fault.c     ****         PowerAmpOutput2_Write(false);
  98              		.loc 1 73 0
ARM GAS  C:\Users\faithc\AppData\Local\Temp\ccWj2KI0.s 			page 4


  99 0014 0020     		movs	r0, #0
 100 0016 FFF7FEFF 		bl	PowerAmpOutput2_Write
  74:.\Fault.c     ****         for(index = 0; index < WAIT_TIME_IN_HALF_SECONDS; index++)
 101              		.loc 1 74 0
 102 001a 0023     		movs	r3, #0
 103 001c FB71     		strb	r3, [r7, #7]
 104 001e 10E0     		b	.L7
 105              	.L8:
  75:.\Fault.c     ****         {
  76:.\Fault.c     ****             CyWdtClear();
 106              		.loc 1 76 0 discriminator 3
 107 0020 FFF7FEFF 		bl	CyWdtClear
  77:.\Fault.c     ****             LEDoutput_Write(true);
 108              		.loc 1 77 0 discriminator 3
 109 0024 0120     		movs	r0, #1
 110 0026 FFF7FEFF 		bl	LEDoutput_Write
  78:.\Fault.c     ****             CyDelay(250);
 111              		.loc 1 78 0 discriminator 3
 112 002a FA20     		movs	r0, #250
 113 002c FFF7FEFF 		bl	CyDelay
  79:.\Fault.c     ****             LEDoutput_Write(false);
 114              		.loc 1 79 0 discriminator 3
 115 0030 0020     		movs	r0, #0
 116 0032 FFF7FEFF 		bl	LEDoutput_Write
  80:.\Fault.c     ****             CyDelay(250);
 117              		.loc 1 80 0 discriminator 3
 118 0036 FA20     		movs	r0, #250
 119 0038 FFF7FEFF 		bl	CyDelay
  74:.\Fault.c     ****         {
 120              		.loc 1 74 0 discriminator 3
 121 003c FB79     		ldrb	r3, [r7, #7]	@ zero_extendqisi2
 122 003e 0133     		adds	r3, r3, #1
 123 0040 FB71     		strb	r3, [r7, #7]
 124              	.L7:
  74:.\Fault.c     ****         {
 125              		.loc 1 74 0 is_stmt 0 discriminator 1
 126 0042 0A22     		movs	r2, #10
 127 0044 FB79     		ldrb	r3, [r7, #7]	@ zero_extendqisi2
 128 0046 9342     		cmp	r3, r2
 129 0048 EAD3     		bcc	.L8
 130              	.L6:
  70:.\Fault.c     ****     {   //Cannot use do-while loop to prevent cool-down at startup
 131              		.loc 1 70 0 is_stmt 1
 132 004a FFF7FEFF 		bl	OverloadInput1_Read
 133 004e 0346     		mov	r3, r0
 134 0050 002B     		cmp	r3, #0
 135 0052 DCD0     		beq	.L9
  70:.\Fault.c     ****     {   //Cannot use do-while loop to prevent cool-down at startup
 136              		.loc 1 70 0 is_stmt 0 discriminator 1
 137 0054 FFF7FEFF 		bl	OverloadInput2_Read
 138 0058 0346     		mov	r3, r0
 139 005a 002B     		cmp	r3, #0
 140 005c D7D0     		beq	.L9
  81:.\Fault.c     ****         }
  82:.\Fault.c     ****     }
  83:.\Fault.c     ****     
  84:.\Fault.c     ****     bOverloadFlag = false;   
ARM GAS  C:\Users\faithc\AppData\Local\Temp\ccWj2KI0.s 			page 5


 141              		.loc 1 84 0 is_stmt 1
 142 005e 094B     		ldr	r3, .L10
 143 0060 0022     		movs	r2, #0
 144 0062 1A70     		strb	r2, [r3]
  85:.\Fault.c     ****     RadioMicKeyISR_ClearPending();   
 145              		.loc 1 85 0
 146 0064 FFF7FEFF 		bl	RadioMicKeyISR_ClearPending
  86:.\Fault.c     ****     ParkKillISR_ClearPending(); 
 147              		.loc 1 86 0
 148 0068 FFF7FEFF 		bl	ParkKillISR_ClearPending
  87:.\Fault.c     ****     TackSwitchISR_ClearPending();
 149              		.loc 1 87 0
 150 006c FFF7FEFF 		bl	TackSwitchISR_ClearPending
  88:.\Fault.c     ****     DualDelayISR_ClearPending();
 151              		.loc 1 88 0
 152 0070 FFF7FEFF 		bl	DualDelayISR_ClearPending
  89:.\Fault.c     ****     HornRingISR_ClearPending();
 153              		.loc 1 89 0
 154 0074 FFF7FEFF 		bl	HornRingISR_ClearPending
  90:.\Fault.c     ****     ModeStatusISR_ClearPending();
 155              		.loc 1 90 0
 156 0078 FFF7FEFF 		bl	ModeStatusISR_ClearPending
  91:.\Fault.c     ****     CyGlobalIntEnable;
 157              		.loc 1 91 0
 158              	@ 91 ".\Fault.c" 1
 159 007c 62B6     		CPSIE   i
 160              	@ 0 "" 2
  92:.\Fault.c     **** }
 161              		.loc 1 92 0
 162              		.thumb
 163 007e 0837     		adds	r7, r7, #8
 164              		.cfi_def_cfa_offset 8
 165 0080 BD46     		mov	sp, r7
 166              		.cfi_def_cfa_register 13
 167              		@ sp needed
 168 0082 80BD     		pop	{r7, pc}
 169              	.L11:
 170              		.align	2
 171              	.L10:
 172 0084 00000000 		.word	bOverloadFlag
 173              		.cfi_endproc
 174              	.LFE64:
 175              		.size	processOverloadRoutine, .-processOverloadRoutine
 176              		.section	.text.deactivatePoweredFunctions,"ax",%progbits
 177              		.align	2
 178              		.global	deactivatePoweredFunctions
 179              		.thumb
 180              		.thumb_func
 181              		.type	deactivatePoweredFunctions, %function
 182              	deactivatePoweredFunctions:
 183              	.LFB65:
  93:.\Fault.c     **** 
  94:.\Fault.c     **** /*******************************************************************************
  95:.\Fault.c     **** * Function Name: deactivatePoweredFunctions
  96:.\Fault.c     **** ********************************************************************************
  97:.\Fault.c     **** *
  98:.\Fault.c     **** * Summary:
ARM GAS  C:\Users\faithc\AppData\Local\Temp\ccWj2KI0.s 			page 6


  99:.\Fault.c     **** *  Turns off PWM, power amps, and tone due to overload detection, called in
 100:.\Fault.c     **** *  OverloadISR
 101:.\Fault.c     **** *
 102:.\Fault.c     **** * Parameters:  
 103:.\Fault.c     **** *   None
 104:.\Fault.c     **** *
 105:.\Fault.c     **** * Return:
 106:.\Fault.c     **** *   None
 107:.\Fault.c     **** *
 108:.\Fault.c     **** *******************************************************************************/
 109:.\Fault.c     **** void deactivatePoweredFunctions(void)
 110:.\Fault.c     **** {
 184              		.loc 1 110 0
 185              		.cfi_startproc
 186              		@ args = 0, pretend = 0, frame = 0
 187              		@ frame_needed = 1, uses_anonymous_args = 0
 188 0000 80B5     		push	{r7, lr}
 189              		.cfi_def_cfa_offset 8
 190              		.cfi_offset 7, -8
 191              		.cfi_offset 14, -4
 192 0002 00AF     		add	r7, sp, #0
 193              		.cfi_def_cfa_register 7
 111:.\Fault.c     ****     CyGlobalIntDisable;    
 194              		.loc 1 111 0
 195              	@ 111 ".\Fault.c" 1
 196 0004 72B6     		CPSID   i
 197              	@ 0 "" 2
 112:.\Fault.c     ****     PowerAmpOutput1_Write(false);
 198              		.loc 1 112 0
 199              		.thumb
 200 0006 0020     		movs	r0, #0
 201 0008 FFF7FEFF 		bl	PowerAmpOutput1_Write
 113:.\Fault.c     ****     PowerAmpOutput2_Write(false);
 202              		.loc 1 113 0
 203 000c 0020     		movs	r0, #0
 204 000e FFF7FEFF 		bl	PowerAmpOutput2_Write
 114:.\Fault.c     ****     stopPWMTone(SPEAKER_1);
 205              		.loc 1 114 0
 206 0012 0020     		movs	r0, #0
 207 0014 FFF7FEFF 		bl	stopPWMTone
 115:.\Fault.c     ****     stopPWMTone(SPEAKER_2);
 208              		.loc 1 115 0
 209 0018 0120     		movs	r0, #1
 210 001a FFF7FEFF 		bl	stopPWMTone
 116:.\Fault.c     ****     stopAudioTone(SPEAKER_1);
 211              		.loc 1 116 0
 212 001e 0020     		movs	r0, #0
 213 0020 FFF7FEFF 		bl	stopAudioTone
 117:.\Fault.c     ****     stopAudioTone(SPEAKER_2);
 214              		.loc 1 117 0
 215 0024 0120     		movs	r0, #1
 216 0026 FFF7FEFF 		bl	stopAudioTone
 118:.\Fault.c     ****     bOverloadFlag = true;
 217              		.loc 1 118 0
 218 002a 024B     		ldr	r3, .L13
 219 002c 0122     		movs	r2, #1
 220 002e 1A70     		strb	r2, [r3]
ARM GAS  C:\Users\faithc\AppData\Local\Temp\ccWj2KI0.s 			page 7


 119:.\Fault.c     **** }
 221              		.loc 1 119 0
 222 0030 80BD     		pop	{r7, pc}
 223              	.L14:
 224 0032 00BF     		.align	2
 225              	.L13:
 226 0034 00000000 		.word	bOverloadFlag
 227              		.cfi_endproc
 228              	.LFE65:
 229              		.size	deactivatePoweredFunctions, .-deactivatePoweredFunctions
 230              		.text
 231              	.Letext0:
 232              		.file 2 "c:\\program files (x86)\\cypress\\psoc creator\\3.3\\psoc creator\\import\\gnu\\arm\\4.9.
 233              		.file 3 "c:\\program files (x86)\\cypress\\psoc creator\\3.3\\psoc creator\\import\\gnu\\arm\\4.9.
 234              		.file 4 "Generated_Source\\PSoC5/cytypes.h"
 235              		.file 5 "Generated_Source\\PSoC5/core_cm3.h"