ARM GAS  C:\Users\faith\AppData\Local\Temp\ccRciuYl.s 			page 1


   1              		.syntax unified
   2              		.cpu cortex-m3
   3              		.fpu softvfp
   4              		.eabi_attribute 20, 1
   5              		.eabi_attribute 21, 1
   6              		.eabi_attribute 23, 3
   7              		.eabi_attribute 24, 1
   8              		.eabi_attribute 25, 1
   9              		.eabi_attribute 26, 1
  10              		.eabi_attribute 30, 6
  11              		.eabi_attribute 34, 1
  12              		.eabi_attribute 18, 4
  13              		.thumb
  14              		.file	"ModeStatus2ISR.c"
  15              		.text
  16              	.Ltext0:
  17              		.cfi_sections	.debug_frame
  18              		.section	.text.ModeStatus2ISR_Start,"ax",%progbits
  19              		.align	2
  20              		.global	ModeStatus2ISR_Start
  21              		.thumb
  22              		.thumb_func
  23              		.type	ModeStatus2ISR_Start, %function
  24              	ModeStatus2ISR_Start:
  25              	.LFB63:
  26              		.file 1 ".\\Generated_Source\\PSoC5\\ModeStatus2ISR.c"
   1:.\Generated_Source\PSoC5/ModeStatus2ISR.c **** /*******************************************************************************
   2:.\Generated_Source\PSoC5/ModeStatus2ISR.c **** * File Name: ModeStatus2ISR.c  
   3:.\Generated_Source\PSoC5/ModeStatus2ISR.c **** * Version 1.70
   4:.\Generated_Source\PSoC5/ModeStatus2ISR.c **** *
   5:.\Generated_Source\PSoC5/ModeStatus2ISR.c **** *  Description:
   6:.\Generated_Source\PSoC5/ModeStatus2ISR.c **** *   API for controlling the state of an interrupt.
   7:.\Generated_Source\PSoC5/ModeStatus2ISR.c **** *
   8:.\Generated_Source\PSoC5/ModeStatus2ISR.c **** *
   9:.\Generated_Source\PSoC5/ModeStatus2ISR.c **** *  Note:
  10:.\Generated_Source\PSoC5/ModeStatus2ISR.c **** *
  11:.\Generated_Source\PSoC5/ModeStatus2ISR.c **** ********************************************************************************
  12:.\Generated_Source\PSoC5/ModeStatus2ISR.c **** * Copyright 2008-2015, Cypress Semiconductor Corporation.  All rights reserved.
  13:.\Generated_Source\PSoC5/ModeStatus2ISR.c **** * You may use this file only in accordance with the license, terms, conditions, 
  14:.\Generated_Source\PSoC5/ModeStatus2ISR.c **** * disclaimers, and limitations in the end user license agreement accompanying 
  15:.\Generated_Source\PSoC5/ModeStatus2ISR.c **** * the software package with which this file was provided.
  16:.\Generated_Source\PSoC5/ModeStatus2ISR.c **** *******************************************************************************/
  17:.\Generated_Source\PSoC5/ModeStatus2ISR.c **** 
  18:.\Generated_Source\PSoC5/ModeStatus2ISR.c **** 
  19:.\Generated_Source\PSoC5/ModeStatus2ISR.c **** #include <cydevice_trm.h>
  20:.\Generated_Source\PSoC5/ModeStatus2ISR.c **** #include <CyLib.h>
  21:.\Generated_Source\PSoC5/ModeStatus2ISR.c **** #include <ModeStatus2ISR.h>
  22:.\Generated_Source\PSoC5/ModeStatus2ISR.c **** #include "cyapicallbacks.h"
  23:.\Generated_Source\PSoC5/ModeStatus2ISR.c **** 
  24:.\Generated_Source\PSoC5/ModeStatus2ISR.c **** #if !defined(ModeStatus2ISR__REMOVED) /* Check for removal by optimization */
  25:.\Generated_Source\PSoC5/ModeStatus2ISR.c **** 
  26:.\Generated_Source\PSoC5/ModeStatus2ISR.c **** /*******************************************************************************
  27:.\Generated_Source\PSoC5/ModeStatus2ISR.c **** *  Place your includes, defines and code here 
  28:.\Generated_Source\PSoC5/ModeStatus2ISR.c **** ********************************************************************************/
  29:.\Generated_Source\PSoC5/ModeStatus2ISR.c **** /* `#START ModeStatus2ISR_intc` */
  30:.\Generated_Source\PSoC5/ModeStatus2ISR.c **** #include <stdbool.h>
  31:.\Generated_Source\PSoC5/ModeStatus2ISR.c **** #include "SirenState.h"
ARM GAS  C:\Users\faith\AppData\Local\Temp\ccRciuYl.s 			page 2


  32:.\Generated_Source\PSoC5/ModeStatus2ISR.c **** /* `#END` */
  33:.\Generated_Source\PSoC5/ModeStatus2ISR.c **** 
  34:.\Generated_Source\PSoC5/ModeStatus2ISR.c **** #ifndef CYINT_IRQ_BASE
  35:.\Generated_Source\PSoC5/ModeStatus2ISR.c **** #define CYINT_IRQ_BASE      16
  36:.\Generated_Source\PSoC5/ModeStatus2ISR.c **** #endif /* CYINT_IRQ_BASE */
  37:.\Generated_Source\PSoC5/ModeStatus2ISR.c **** #ifndef CYINT_VECT_TABLE
  38:.\Generated_Source\PSoC5/ModeStatus2ISR.c **** #define CYINT_VECT_TABLE    ((cyisraddress **) CYREG_NVIC_VECT_OFFSET)
  39:.\Generated_Source\PSoC5/ModeStatus2ISR.c **** #endif /* CYINT_VECT_TABLE */
  40:.\Generated_Source\PSoC5/ModeStatus2ISR.c **** 
  41:.\Generated_Source\PSoC5/ModeStatus2ISR.c **** /* Declared in startup, used to set unused interrupts to. */
  42:.\Generated_Source\PSoC5/ModeStatus2ISR.c **** CY_ISR_PROTO(IntDefaultHandler);
  43:.\Generated_Source\PSoC5/ModeStatus2ISR.c **** 
  44:.\Generated_Source\PSoC5/ModeStatus2ISR.c **** 
  45:.\Generated_Source\PSoC5/ModeStatus2ISR.c **** /*******************************************************************************
  46:.\Generated_Source\PSoC5/ModeStatus2ISR.c **** * Function Name: ModeStatus2ISR_Start
  47:.\Generated_Source\PSoC5/ModeStatus2ISR.c **** ********************************************************************************
  48:.\Generated_Source\PSoC5/ModeStatus2ISR.c **** *
  49:.\Generated_Source\PSoC5/ModeStatus2ISR.c **** * Summary:
  50:.\Generated_Source\PSoC5/ModeStatus2ISR.c **** *  Set up the interrupt and enable it. This function disables the interrupt, 
  51:.\Generated_Source\PSoC5/ModeStatus2ISR.c **** *  sets the default interrupt vector, sets the priority from the value in the
  52:.\Generated_Source\PSoC5/ModeStatus2ISR.c **** *  Design Wide Resources Interrupt Editor, then enables the interrupt to the 
  53:.\Generated_Source\PSoC5/ModeStatus2ISR.c **** *  interrupt controller.
  54:.\Generated_Source\PSoC5/ModeStatus2ISR.c **** *
  55:.\Generated_Source\PSoC5/ModeStatus2ISR.c **** * Parameters:  
  56:.\Generated_Source\PSoC5/ModeStatus2ISR.c **** *   None
  57:.\Generated_Source\PSoC5/ModeStatus2ISR.c **** *
  58:.\Generated_Source\PSoC5/ModeStatus2ISR.c **** * Return:
  59:.\Generated_Source\PSoC5/ModeStatus2ISR.c **** *   None
  60:.\Generated_Source\PSoC5/ModeStatus2ISR.c **** *
  61:.\Generated_Source\PSoC5/ModeStatus2ISR.c **** *******************************************************************************/
  62:.\Generated_Source\PSoC5/ModeStatus2ISR.c **** void ModeStatus2ISR_Start(void)
  63:.\Generated_Source\PSoC5/ModeStatus2ISR.c **** {
  27              		.loc 1 63 0
  28              		.cfi_startproc
  29              		@ args = 0, pretend = 0, frame = 0
  30              		@ frame_needed = 1, uses_anonymous_args = 0
  31 0000 80B5     		push	{r7, lr}
  32              		.cfi_def_cfa_offset 8
  33              		.cfi_offset 7, -8
  34              		.cfi_offset 14, -4
  35 0002 00AF     		add	r7, sp, #0
  36              		.cfi_def_cfa_register 7
  64:.\Generated_Source\PSoC5/ModeStatus2ISR.c ****     /* For all we know the interrupt is active. */
  65:.\Generated_Source\PSoC5/ModeStatus2ISR.c ****     ModeStatus2ISR_Disable();
  37              		.loc 1 65 0
  38 0004 FFF7FEFF 		bl	ModeStatus2ISR_Disable
  66:.\Generated_Source\PSoC5/ModeStatus2ISR.c **** 
  67:.\Generated_Source\PSoC5/ModeStatus2ISR.c ****     /* Set the ISR to point to the ModeStatus2ISR Interrupt. */
  68:.\Generated_Source\PSoC5/ModeStatus2ISR.c ****     ModeStatus2ISR_SetVector(&ModeStatus2ISR_Interrupt);
  39              		.loc 1 68 0
  40 0008 0448     		ldr	r0, .L2
  41 000a FFF7FEFF 		bl	ModeStatus2ISR_SetVector
  69:.\Generated_Source\PSoC5/ModeStatus2ISR.c **** 
  70:.\Generated_Source\PSoC5/ModeStatus2ISR.c ****     /* Set the priority. */
  71:.\Generated_Source\PSoC5/ModeStatus2ISR.c ****     ModeStatus2ISR_SetPriority((uint8)ModeStatus2ISR_INTC_PRIOR_NUMBER);
  42              		.loc 1 71 0
  43 000e 0720     		movs	r0, #7
ARM GAS  C:\Users\faith\AppData\Local\Temp\ccRciuYl.s 			page 3


  44 0010 FFF7FEFF 		bl	ModeStatus2ISR_SetPriority
  72:.\Generated_Source\PSoC5/ModeStatus2ISR.c **** 
  73:.\Generated_Source\PSoC5/ModeStatus2ISR.c ****     /* Enable it. */
  74:.\Generated_Source\PSoC5/ModeStatus2ISR.c ****     ModeStatus2ISR_Enable();
  45              		.loc 1 74 0
  46 0014 FFF7FEFF 		bl	ModeStatus2ISR_Enable
  75:.\Generated_Source\PSoC5/ModeStatus2ISR.c **** }
  47              		.loc 1 75 0
  48 0018 80BD     		pop	{r7, pc}
  49              	.L3:
  50 001a 00BF     		.align	2
  51              	.L2:
  52 001c 00000000 		.word	ModeStatus2ISR_Interrupt
  53              		.cfi_endproc
  54              	.LFE63:
  55              		.size	ModeStatus2ISR_Start, .-ModeStatus2ISR_Start
  56              		.section	.text.ModeStatus2ISR_StartEx,"ax",%progbits
  57              		.align	2
  58              		.global	ModeStatus2ISR_StartEx
  59              		.thumb
  60              		.thumb_func
  61              		.type	ModeStatus2ISR_StartEx, %function
  62              	ModeStatus2ISR_StartEx:
  63              	.LFB64:
  76:.\Generated_Source\PSoC5/ModeStatus2ISR.c **** 
  77:.\Generated_Source\PSoC5/ModeStatus2ISR.c **** 
  78:.\Generated_Source\PSoC5/ModeStatus2ISR.c **** /*******************************************************************************
  79:.\Generated_Source\PSoC5/ModeStatus2ISR.c **** * Function Name: ModeStatus2ISR_StartEx
  80:.\Generated_Source\PSoC5/ModeStatus2ISR.c **** ********************************************************************************
  81:.\Generated_Source\PSoC5/ModeStatus2ISR.c **** *
  82:.\Generated_Source\PSoC5/ModeStatus2ISR.c **** * Summary:
  83:.\Generated_Source\PSoC5/ModeStatus2ISR.c **** *  Sets up the interrupt and enables it. This function disables the interrupt,
  84:.\Generated_Source\PSoC5/ModeStatus2ISR.c **** *  sets the interrupt vector based on the address passed in, sets the priority 
  85:.\Generated_Source\PSoC5/ModeStatus2ISR.c **** *  from the value in the Design Wide Resources Interrupt Editor, then enables 
  86:.\Generated_Source\PSoC5/ModeStatus2ISR.c **** *  the interrupt to the interrupt controller.
  87:.\Generated_Source\PSoC5/ModeStatus2ISR.c **** *  
  88:.\Generated_Source\PSoC5/ModeStatus2ISR.c **** *  When defining ISR functions, the CY_ISR and CY_ISR_PROTO macros should be 
  89:.\Generated_Source\PSoC5/ModeStatus2ISR.c **** *  used to provide consistent definition across compilers:
  90:.\Generated_Source\PSoC5/ModeStatus2ISR.c **** *  
  91:.\Generated_Source\PSoC5/ModeStatus2ISR.c **** *  Function definition example:
  92:.\Generated_Source\PSoC5/ModeStatus2ISR.c **** *   CY_ISR(MyISR)
  93:.\Generated_Source\PSoC5/ModeStatus2ISR.c **** *   {
  94:.\Generated_Source\PSoC5/ModeStatus2ISR.c **** *   }
  95:.\Generated_Source\PSoC5/ModeStatus2ISR.c **** *   Function prototype example:
  96:.\Generated_Source\PSoC5/ModeStatus2ISR.c **** *   CY_ISR_PROTO(MyISR);
  97:.\Generated_Source\PSoC5/ModeStatus2ISR.c **** *
  98:.\Generated_Source\PSoC5/ModeStatus2ISR.c **** * Parameters:  
  99:.\Generated_Source\PSoC5/ModeStatus2ISR.c **** *   address: Address of the ISR to set in the interrupt vector table.
 100:.\Generated_Source\PSoC5/ModeStatus2ISR.c **** *
 101:.\Generated_Source\PSoC5/ModeStatus2ISR.c **** * Return:
 102:.\Generated_Source\PSoC5/ModeStatus2ISR.c **** *   None
 103:.\Generated_Source\PSoC5/ModeStatus2ISR.c **** *
 104:.\Generated_Source\PSoC5/ModeStatus2ISR.c **** *******************************************************************************/
 105:.\Generated_Source\PSoC5/ModeStatus2ISR.c **** void ModeStatus2ISR_StartEx(cyisraddress address)
 106:.\Generated_Source\PSoC5/ModeStatus2ISR.c **** {
  64              		.loc 1 106 0
  65              		.cfi_startproc
ARM GAS  C:\Users\faith\AppData\Local\Temp\ccRciuYl.s 			page 4


  66              		@ args = 0, pretend = 0, frame = 8
  67              		@ frame_needed = 1, uses_anonymous_args = 0
  68 0000 80B5     		push	{r7, lr}
  69              		.cfi_def_cfa_offset 8
  70              		.cfi_offset 7, -8
  71              		.cfi_offset 14, -4
  72 0002 82B0     		sub	sp, sp, #8
  73              		.cfi_def_cfa_offset 16
  74 0004 00AF     		add	r7, sp, #0
  75              		.cfi_def_cfa_register 7
  76 0006 7860     		str	r0, [r7, #4]
 107:.\Generated_Source\PSoC5/ModeStatus2ISR.c ****     /* For all we know the interrupt is active. */
 108:.\Generated_Source\PSoC5/ModeStatus2ISR.c ****     ModeStatus2ISR_Disable();
  77              		.loc 1 108 0
  78 0008 FFF7FEFF 		bl	ModeStatus2ISR_Disable
 109:.\Generated_Source\PSoC5/ModeStatus2ISR.c **** 
 110:.\Generated_Source\PSoC5/ModeStatus2ISR.c ****     /* Set the ISR to point to the ModeStatus2ISR Interrupt. */
 111:.\Generated_Source\PSoC5/ModeStatus2ISR.c ****     ModeStatus2ISR_SetVector(address);
  79              		.loc 1 111 0
  80 000c 7868     		ldr	r0, [r7, #4]
  81 000e FFF7FEFF 		bl	ModeStatus2ISR_SetVector
 112:.\Generated_Source\PSoC5/ModeStatus2ISR.c **** 
 113:.\Generated_Source\PSoC5/ModeStatus2ISR.c ****     /* Set the priority. */
 114:.\Generated_Source\PSoC5/ModeStatus2ISR.c ****     ModeStatus2ISR_SetPriority((uint8)ModeStatus2ISR_INTC_PRIOR_NUMBER);
  82              		.loc 1 114 0
  83 0012 0720     		movs	r0, #7
  84 0014 FFF7FEFF 		bl	ModeStatus2ISR_SetPriority
 115:.\Generated_Source\PSoC5/ModeStatus2ISR.c **** 
 116:.\Generated_Source\PSoC5/ModeStatus2ISR.c ****     /* Enable it. */
 117:.\Generated_Source\PSoC5/ModeStatus2ISR.c ****     ModeStatus2ISR_Enable();
  85              		.loc 1 117 0
  86 0018 FFF7FEFF 		bl	ModeStatus2ISR_Enable
 118:.\Generated_Source\PSoC5/ModeStatus2ISR.c **** }
  87              		.loc 1 118 0
  88 001c 0837     		adds	r7, r7, #8
  89              		.cfi_def_cfa_offset 8
  90 001e BD46     		mov	sp, r7
  91              		.cfi_def_cfa_register 13
  92              		@ sp needed
  93 0020 80BD     		pop	{r7, pc}
  94              		.cfi_endproc
  95              	.LFE64:
  96              		.size	ModeStatus2ISR_StartEx, .-ModeStatus2ISR_StartEx
  97 0022 00BF     		.section	.text.ModeStatus2ISR_Stop,"ax",%progbits
  98              		.align	2
  99              		.global	ModeStatus2ISR_Stop
 100              		.thumb
 101              		.thumb_func
 102              		.type	ModeStatus2ISR_Stop, %function
 103              	ModeStatus2ISR_Stop:
 104              	.LFB65:
 119:.\Generated_Source\PSoC5/ModeStatus2ISR.c **** 
 120:.\Generated_Source\PSoC5/ModeStatus2ISR.c **** 
 121:.\Generated_Source\PSoC5/ModeStatus2ISR.c **** /*******************************************************************************
 122:.\Generated_Source\PSoC5/ModeStatus2ISR.c **** * Function Name: ModeStatus2ISR_Stop
 123:.\Generated_Source\PSoC5/ModeStatus2ISR.c **** ********************************************************************************
 124:.\Generated_Source\PSoC5/ModeStatus2ISR.c **** *
ARM GAS  C:\Users\faith\AppData\Local\Temp\ccRciuYl.s 			page 5


 125:.\Generated_Source\PSoC5/ModeStatus2ISR.c **** * Summary:
 126:.\Generated_Source\PSoC5/ModeStatus2ISR.c **** *   Disables and removes the interrupt.
 127:.\Generated_Source\PSoC5/ModeStatus2ISR.c **** *
 128:.\Generated_Source\PSoC5/ModeStatus2ISR.c **** * Parameters:  
 129:.\Generated_Source\PSoC5/ModeStatus2ISR.c **** *   None
 130:.\Generated_Source\PSoC5/ModeStatus2ISR.c **** *
 131:.\Generated_Source\PSoC5/ModeStatus2ISR.c **** * Return:
 132:.\Generated_Source\PSoC5/ModeStatus2ISR.c **** *   None
 133:.\Generated_Source\PSoC5/ModeStatus2ISR.c **** *
 134:.\Generated_Source\PSoC5/ModeStatus2ISR.c **** *******************************************************************************/
 135:.\Generated_Source\PSoC5/ModeStatus2ISR.c **** void ModeStatus2ISR_Stop(void)
 136:.\Generated_Source\PSoC5/ModeStatus2ISR.c **** {
 105              		.loc 1 136 0
 106              		.cfi_startproc
 107              		@ args = 0, pretend = 0, frame = 0
 108              		@ frame_needed = 1, uses_anonymous_args = 0
 109 0000 80B5     		push	{r7, lr}
 110              		.cfi_def_cfa_offset 8
 111              		.cfi_offset 7, -8
 112              		.cfi_offset 14, -4
 113 0002 00AF     		add	r7, sp, #0
 114              		.cfi_def_cfa_register 7
 137:.\Generated_Source\PSoC5/ModeStatus2ISR.c ****     /* Disable this interrupt. */
 138:.\Generated_Source\PSoC5/ModeStatus2ISR.c ****     ModeStatus2ISR_Disable();
 115              		.loc 1 138 0
 116 0004 FFF7FEFF 		bl	ModeStatus2ISR_Disable
 139:.\Generated_Source\PSoC5/ModeStatus2ISR.c **** 
 140:.\Generated_Source\PSoC5/ModeStatus2ISR.c ****     /* Set the ISR to point to the passive one. */
 141:.\Generated_Source\PSoC5/ModeStatus2ISR.c ****     ModeStatus2ISR_SetVector(&IntDefaultHandler);
 117              		.loc 1 141 0
 118 0008 0148     		ldr	r0, .L6
 119 000a FFF7FEFF 		bl	ModeStatus2ISR_SetVector
 142:.\Generated_Source\PSoC5/ModeStatus2ISR.c **** }
 120              		.loc 1 142 0
 121 000e 80BD     		pop	{r7, pc}
 122              	.L7:
 123              		.align	2
 124              	.L6:
 125 0010 00000000 		.word	IntDefaultHandler
 126              		.cfi_endproc
 127              	.LFE65:
 128              		.size	ModeStatus2ISR_Stop, .-ModeStatus2ISR_Stop
 129              		.section	.text.ModeStatus2ISR_Interrupt,"ax",%progbits
 130              		.align	2
 131              		.global	ModeStatus2ISR_Interrupt
 132              		.thumb
 133              		.thumb_func
 134              		.type	ModeStatus2ISR_Interrupt, %function
 135              	ModeStatus2ISR_Interrupt:
 136              	.LFB66:
 143:.\Generated_Source\PSoC5/ModeStatus2ISR.c **** 
 144:.\Generated_Source\PSoC5/ModeStatus2ISR.c **** 
 145:.\Generated_Source\PSoC5/ModeStatus2ISR.c **** /*******************************************************************************
 146:.\Generated_Source\PSoC5/ModeStatus2ISR.c **** * Function Name: ModeStatus2ISR_Interrupt
 147:.\Generated_Source\PSoC5/ModeStatus2ISR.c **** ********************************************************************************
 148:.\Generated_Source\PSoC5/ModeStatus2ISR.c **** *
 149:.\Generated_Source\PSoC5/ModeStatus2ISR.c **** * Summary:
ARM GAS  C:\Users\faith\AppData\Local\Temp\ccRciuYl.s 			page 6


 150:.\Generated_Source\PSoC5/ModeStatus2ISR.c **** *   The default Interrupt Service Routine for ModeStatus2ISR.
 151:.\Generated_Source\PSoC5/ModeStatus2ISR.c **** *
 152:.\Generated_Source\PSoC5/ModeStatus2ISR.c **** *   Add custom code between the coments to keep the next version of this file
 153:.\Generated_Source\PSoC5/ModeStatus2ISR.c **** *   from over writting your code.
 154:.\Generated_Source\PSoC5/ModeStatus2ISR.c **** *
 155:.\Generated_Source\PSoC5/ModeStatus2ISR.c **** * Parameters:  
 156:.\Generated_Source\PSoC5/ModeStatus2ISR.c **** *
 157:.\Generated_Source\PSoC5/ModeStatus2ISR.c **** * Return:
 158:.\Generated_Source\PSoC5/ModeStatus2ISR.c **** *   None
 159:.\Generated_Source\PSoC5/ModeStatus2ISR.c **** *
 160:.\Generated_Source\PSoC5/ModeStatus2ISR.c **** *******************************************************************************/
 161:.\Generated_Source\PSoC5/ModeStatus2ISR.c **** CY_ISR(ModeStatus2ISR_Interrupt)
 162:.\Generated_Source\PSoC5/ModeStatus2ISR.c **** {
 137              		.loc 1 162 0
 138              		.cfi_startproc
 139              		@ args = 0, pretend = 0, frame = 0
 140              		@ frame_needed = 1, uses_anonymous_args = 0
 141 0000 80B5     		push	{r7, lr}
 142              		.cfi_def_cfa_offset 8
 143              		.cfi_offset 7, -8
 144              		.cfi_offset 14, -4
 145 0002 00AF     		add	r7, sp, #0
 146              		.cfi_def_cfa_register 7
 163:.\Generated_Source\PSoC5/ModeStatus2ISR.c ****     #ifdef ModeStatus2ISR_INTERRUPT_INTERRUPT_CALLBACK
 164:.\Generated_Source\PSoC5/ModeStatus2ISR.c ****         ModeStatus2ISR_Interrupt_InterruptCallback();
 165:.\Generated_Source\PSoC5/ModeStatus2ISR.c ****     #endif /* ModeStatus2ISR_INTERRUPT_INTERRUPT_CALLBACK */ 
 166:.\Generated_Source\PSoC5/ModeStatus2ISR.c **** 
 167:.\Generated_Source\PSoC5/ModeStatus2ISR.c ****     /*  Place your Interrupt code here. */
 168:.\Generated_Source\PSoC5/ModeStatus2ISR.c ****     /* `#START ModeStatus2ISR_Interrupt` */
 169:.\Generated_Source\PSoC5/ModeStatus2ISR.c ****     processToneChangeRoutine(true);
 147              		.loc 1 169 0
 148 0004 0120     		movs	r0, #1
 149 0006 FFF7FEFF 		bl	processToneChangeRoutine
 170:.\Generated_Source\PSoC5/ModeStatus2ISR.c ****     /* `#END` */
 171:.\Generated_Source\PSoC5/ModeStatus2ISR.c **** }
 150              		.loc 1 171 0
 151 000a 80BD     		pop	{r7, pc}
 152              		.cfi_endproc
 153              	.LFE66:
 154              		.size	ModeStatus2ISR_Interrupt, .-ModeStatus2ISR_Interrupt
 155              		.section	.text.ModeStatus2ISR_SetVector,"ax",%progbits
 156              		.align	2
 157              		.global	ModeStatus2ISR_SetVector
 158              		.thumb
 159              		.thumb_func
 160              		.type	ModeStatus2ISR_SetVector, %function
 161              	ModeStatus2ISR_SetVector:
 162              	.LFB67:
 172:.\Generated_Source\PSoC5/ModeStatus2ISR.c **** 
 173:.\Generated_Source\PSoC5/ModeStatus2ISR.c **** 
 174:.\Generated_Source\PSoC5/ModeStatus2ISR.c **** /*******************************************************************************
 175:.\Generated_Source\PSoC5/ModeStatus2ISR.c **** * Function Name: ModeStatus2ISR_SetVector
 176:.\Generated_Source\PSoC5/ModeStatus2ISR.c **** ********************************************************************************
 177:.\Generated_Source\PSoC5/ModeStatus2ISR.c **** *
 178:.\Generated_Source\PSoC5/ModeStatus2ISR.c **** * Summary:
 179:.\Generated_Source\PSoC5/ModeStatus2ISR.c **** *   Change the ISR vector for the Interrupt. Note calling ModeStatus2ISR_Start
 180:.\Generated_Source\PSoC5/ModeStatus2ISR.c **** *   will override any effect this method would have had. To set the vector 
ARM GAS  C:\Users\faith\AppData\Local\Temp\ccRciuYl.s 			page 7


 181:.\Generated_Source\PSoC5/ModeStatus2ISR.c **** *   before the component has been started use ModeStatus2ISR_StartEx instead.
 182:.\Generated_Source\PSoC5/ModeStatus2ISR.c **** * 
 183:.\Generated_Source\PSoC5/ModeStatus2ISR.c **** *   When defining ISR functions, the CY_ISR and CY_ISR_PROTO macros should be 
 184:.\Generated_Source\PSoC5/ModeStatus2ISR.c **** *   used to provide consistent definition across compilers:
 185:.\Generated_Source\PSoC5/ModeStatus2ISR.c **** *
 186:.\Generated_Source\PSoC5/ModeStatus2ISR.c **** *   Function definition example:
 187:.\Generated_Source\PSoC5/ModeStatus2ISR.c **** *   CY_ISR(MyISR)
 188:.\Generated_Source\PSoC5/ModeStatus2ISR.c **** *   {
 189:.\Generated_Source\PSoC5/ModeStatus2ISR.c **** *   }
 190:.\Generated_Source\PSoC5/ModeStatus2ISR.c **** *
 191:.\Generated_Source\PSoC5/ModeStatus2ISR.c **** *   Function prototype example:
 192:.\Generated_Source\PSoC5/ModeStatus2ISR.c **** *     CY_ISR_PROTO(MyISR);
 193:.\Generated_Source\PSoC5/ModeStatus2ISR.c **** *
 194:.\Generated_Source\PSoC5/ModeStatus2ISR.c **** * Parameters:
 195:.\Generated_Source\PSoC5/ModeStatus2ISR.c **** *   address: Address of the ISR to set in the interrupt vector table.
 196:.\Generated_Source\PSoC5/ModeStatus2ISR.c **** *
 197:.\Generated_Source\PSoC5/ModeStatus2ISR.c **** * Return:
 198:.\Generated_Source\PSoC5/ModeStatus2ISR.c **** *   None
 199:.\Generated_Source\PSoC5/ModeStatus2ISR.c **** *
 200:.\Generated_Source\PSoC5/ModeStatus2ISR.c **** *******************************************************************************/
 201:.\Generated_Source\PSoC5/ModeStatus2ISR.c **** void ModeStatus2ISR_SetVector(cyisraddress address)
 202:.\Generated_Source\PSoC5/ModeStatus2ISR.c **** {
 163              		.loc 1 202 0
 164              		.cfi_startproc
 165              		@ args = 0, pretend = 0, frame = 16
 166              		@ frame_needed = 1, uses_anonymous_args = 0
 167              		@ link register save eliminated.
 168 0000 80B4     		push	{r7}
 169              		.cfi_def_cfa_offset 4
 170              		.cfi_offset 7, -4
 171 0002 85B0     		sub	sp, sp, #20
 172              		.cfi_def_cfa_offset 24
 173 0004 00AF     		add	r7, sp, #0
 174              		.cfi_def_cfa_register 7
 175 0006 7860     		str	r0, [r7, #4]
 203:.\Generated_Source\PSoC5/ModeStatus2ISR.c ****     cyisraddress * ramVectorTable;
 204:.\Generated_Source\PSoC5/ModeStatus2ISR.c **** 
 205:.\Generated_Source\PSoC5/ModeStatus2ISR.c ****     ramVectorTable = (cyisraddress *) *CYINT_VECT_TABLE;
 176              		.loc 1 205 0
 177 0008 054B     		ldr	r3, .L10
 178 000a 1B68     		ldr	r3, [r3]
 179 000c FB60     		str	r3, [r7, #12]
 206:.\Generated_Source\PSoC5/ModeStatus2ISR.c **** 
 207:.\Generated_Source\PSoC5/ModeStatus2ISR.c ****     ramVectorTable[CYINT_IRQ_BASE + (uint32)ModeStatus2ISR__INTC_NUMBER] = address;
 180              		.loc 1 207 0
 181 000e FB68     		ldr	r3, [r7, #12]
 182 0010 5433     		adds	r3, r3, #84
 183 0012 7A68     		ldr	r2, [r7, #4]
 184 0014 1A60     		str	r2, [r3]
 208:.\Generated_Source\PSoC5/ModeStatus2ISR.c **** }
 185              		.loc 1 208 0
 186 0016 1437     		adds	r7, r7, #20
 187              		.cfi_def_cfa_offset 4
 188 0018 BD46     		mov	sp, r7
 189              		.cfi_def_cfa_register 13
 190              		@ sp needed
 191 001a 5DF8047B 		ldr	r7, [sp], #4
ARM GAS  C:\Users\faith\AppData\Local\Temp\ccRciuYl.s 			page 8


 192              		.cfi_restore 7
 193              		.cfi_def_cfa_offset 0
 194 001e 7047     		bx	lr
 195              	.L11:
 196              		.align	2
 197              	.L10:
 198 0020 08ED00E0 		.word	-536810232
 199              		.cfi_endproc
 200              	.LFE67:
 201              		.size	ModeStatus2ISR_SetVector, .-ModeStatus2ISR_SetVector
 202              		.section	.text.ModeStatus2ISR_GetVector,"ax",%progbits
 203              		.align	2
 204              		.global	ModeStatus2ISR_GetVector
 205              		.thumb
 206              		.thumb_func
 207              		.type	ModeStatus2ISR_GetVector, %function
 208              	ModeStatus2ISR_GetVector:
 209              	.LFB68:
 209:.\Generated_Source\PSoC5/ModeStatus2ISR.c **** 
 210:.\Generated_Source\PSoC5/ModeStatus2ISR.c **** 
 211:.\Generated_Source\PSoC5/ModeStatus2ISR.c **** /*******************************************************************************
 212:.\Generated_Source\PSoC5/ModeStatus2ISR.c **** * Function Name: ModeStatus2ISR_GetVector
 213:.\Generated_Source\PSoC5/ModeStatus2ISR.c **** ********************************************************************************
 214:.\Generated_Source\PSoC5/ModeStatus2ISR.c **** *
 215:.\Generated_Source\PSoC5/ModeStatus2ISR.c **** * Summary:
 216:.\Generated_Source\PSoC5/ModeStatus2ISR.c **** *   Gets the "address" of the current ISR vector for the Interrupt.
 217:.\Generated_Source\PSoC5/ModeStatus2ISR.c **** *
 218:.\Generated_Source\PSoC5/ModeStatus2ISR.c **** * Parameters:
 219:.\Generated_Source\PSoC5/ModeStatus2ISR.c **** *   None
 220:.\Generated_Source\PSoC5/ModeStatus2ISR.c **** *
 221:.\Generated_Source\PSoC5/ModeStatus2ISR.c **** * Return:
 222:.\Generated_Source\PSoC5/ModeStatus2ISR.c **** *   Address of the ISR in the interrupt vector table.
 223:.\Generated_Source\PSoC5/ModeStatus2ISR.c **** *
 224:.\Generated_Source\PSoC5/ModeStatus2ISR.c **** *******************************************************************************/
 225:.\Generated_Source\PSoC5/ModeStatus2ISR.c **** cyisraddress ModeStatus2ISR_GetVector(void)
 226:.\Generated_Source\PSoC5/ModeStatus2ISR.c **** {
 210              		.loc 1 226 0
 211              		.cfi_startproc
 212              		@ args = 0, pretend = 0, frame = 8
 213              		@ frame_needed = 1, uses_anonymous_args = 0
 214              		@ link register save eliminated.
 215 0000 80B4     		push	{r7}
 216              		.cfi_def_cfa_offset 4
 217              		.cfi_offset 7, -4
 218 0002 83B0     		sub	sp, sp, #12
 219              		.cfi_def_cfa_offset 16
 220 0004 00AF     		add	r7, sp, #0
 221              		.cfi_def_cfa_register 7
 227:.\Generated_Source\PSoC5/ModeStatus2ISR.c ****     cyisraddress * ramVectorTable;
 228:.\Generated_Source\PSoC5/ModeStatus2ISR.c **** 
 229:.\Generated_Source\PSoC5/ModeStatus2ISR.c ****     ramVectorTable = (cyisraddress *) *CYINT_VECT_TABLE;
 222              		.loc 1 229 0
 223 0006 054B     		ldr	r3, .L14
 224 0008 1B68     		ldr	r3, [r3]
 225 000a 7B60     		str	r3, [r7, #4]
 230:.\Generated_Source\PSoC5/ModeStatus2ISR.c **** 
 231:.\Generated_Source\PSoC5/ModeStatus2ISR.c ****     return ramVectorTable[CYINT_IRQ_BASE + (uint32)ModeStatus2ISR__INTC_NUMBER];
ARM GAS  C:\Users\faith\AppData\Local\Temp\ccRciuYl.s 			page 9


 226              		.loc 1 231 0
 227 000c 7B68     		ldr	r3, [r7, #4]
 228 000e 5B6D     		ldr	r3, [r3, #84]
 232:.\Generated_Source\PSoC5/ModeStatus2ISR.c **** }
 229              		.loc 1 232 0
 230 0010 1846     		mov	r0, r3
 231 0012 0C37     		adds	r7, r7, #12
 232              		.cfi_def_cfa_offset 4
 233 0014 BD46     		mov	sp, r7
 234              		.cfi_def_cfa_register 13
 235              		@ sp needed
 236 0016 5DF8047B 		ldr	r7, [sp], #4
 237              		.cfi_restore 7
 238              		.cfi_def_cfa_offset 0
 239 001a 7047     		bx	lr
 240              	.L15:
 241              		.align	2
 242              	.L14:
 243 001c 08ED00E0 		.word	-536810232
 244              		.cfi_endproc
 245              	.LFE68:
 246              		.size	ModeStatus2ISR_GetVector, .-ModeStatus2ISR_GetVector
 247              		.section	.text.ModeStatus2ISR_SetPriority,"ax",%progbits
 248              		.align	2
 249              		.global	ModeStatus2ISR_SetPriority
 250              		.thumb
 251              		.thumb_func
 252              		.type	ModeStatus2ISR_SetPriority, %function
 253              	ModeStatus2ISR_SetPriority:
 254              	.LFB69:
 233:.\Generated_Source\PSoC5/ModeStatus2ISR.c **** 
 234:.\Generated_Source\PSoC5/ModeStatus2ISR.c **** 
 235:.\Generated_Source\PSoC5/ModeStatus2ISR.c **** /*******************************************************************************
 236:.\Generated_Source\PSoC5/ModeStatus2ISR.c **** * Function Name: ModeStatus2ISR_SetPriority
 237:.\Generated_Source\PSoC5/ModeStatus2ISR.c **** ********************************************************************************
 238:.\Generated_Source\PSoC5/ModeStatus2ISR.c **** *
 239:.\Generated_Source\PSoC5/ModeStatus2ISR.c **** * Summary:
 240:.\Generated_Source\PSoC5/ModeStatus2ISR.c **** *   Sets the Priority of the Interrupt. 
 241:.\Generated_Source\PSoC5/ModeStatus2ISR.c **** *
 242:.\Generated_Source\PSoC5/ModeStatus2ISR.c **** *   Note calling ModeStatus2ISR_Start or ModeStatus2ISR_StartEx will 
 243:.\Generated_Source\PSoC5/ModeStatus2ISR.c **** *   override any effect this API would have had. This API should only be called
 244:.\Generated_Source\PSoC5/ModeStatus2ISR.c **** *   after ModeStatus2ISR_Start or ModeStatus2ISR_StartEx has been called. 
 245:.\Generated_Source\PSoC5/ModeStatus2ISR.c **** *   To set the initial priority for the component, use the Design-Wide Resources
 246:.\Generated_Source\PSoC5/ModeStatus2ISR.c **** *   Interrupt Editor.
 247:.\Generated_Source\PSoC5/ModeStatus2ISR.c **** *
 248:.\Generated_Source\PSoC5/ModeStatus2ISR.c **** *   Note This API has no effect on Non-maskable interrupt NMI).
 249:.\Generated_Source\PSoC5/ModeStatus2ISR.c **** *
 250:.\Generated_Source\PSoC5/ModeStatus2ISR.c **** * Parameters:
 251:.\Generated_Source\PSoC5/ModeStatus2ISR.c **** *   priority: Priority of the interrupt, 0 being the highest priority
 252:.\Generated_Source\PSoC5/ModeStatus2ISR.c **** *             PSoC 3 and PSoC 5LP: Priority is from 0 to 7.
 253:.\Generated_Source\PSoC5/ModeStatus2ISR.c **** *             PSoC 4: Priority is from 0 to 3.
 254:.\Generated_Source\PSoC5/ModeStatus2ISR.c **** *
 255:.\Generated_Source\PSoC5/ModeStatus2ISR.c **** * Return:
 256:.\Generated_Source\PSoC5/ModeStatus2ISR.c **** *   None
 257:.\Generated_Source\PSoC5/ModeStatus2ISR.c **** *
 258:.\Generated_Source\PSoC5/ModeStatus2ISR.c **** *******************************************************************************/
 259:.\Generated_Source\PSoC5/ModeStatus2ISR.c **** void ModeStatus2ISR_SetPriority(uint8 priority)
ARM GAS  C:\Users\faith\AppData\Local\Temp\ccRciuYl.s 			page 10


 260:.\Generated_Source\PSoC5/ModeStatus2ISR.c **** {
 255              		.loc 1 260 0
 256              		.cfi_startproc
 257              		@ args = 0, pretend = 0, frame = 8
 258              		@ frame_needed = 1, uses_anonymous_args = 0
 259              		@ link register save eliminated.
 260 0000 80B4     		push	{r7}
 261              		.cfi_def_cfa_offset 4
 262              		.cfi_offset 7, -4
 263 0002 83B0     		sub	sp, sp, #12
 264              		.cfi_def_cfa_offset 16
 265 0004 00AF     		add	r7, sp, #0
 266              		.cfi_def_cfa_register 7
 267 0006 0346     		mov	r3, r0
 268 0008 FB71     		strb	r3, [r7, #7]
 261:.\Generated_Source\PSoC5/ModeStatus2ISR.c ****     *ModeStatus2ISR_INTC_PRIOR = priority << 5;
 269              		.loc 1 261 0
 270 000a 054A     		ldr	r2, .L17
 271 000c FB79     		ldrb	r3, [r7, #7]
 272 000e 5B01     		lsls	r3, r3, #5
 273 0010 DBB2     		uxtb	r3, r3
 274 0012 1370     		strb	r3, [r2]
 262:.\Generated_Source\PSoC5/ModeStatus2ISR.c **** }
 275              		.loc 1 262 0
 276 0014 0C37     		adds	r7, r7, #12
 277              		.cfi_def_cfa_offset 4
 278 0016 BD46     		mov	sp, r7
 279              		.cfi_def_cfa_register 13
 280              		@ sp needed
 281 0018 5DF8047B 		ldr	r7, [sp], #4
 282              		.cfi_restore 7
 283              		.cfi_def_cfa_offset 0
 284 001c 7047     		bx	lr
 285              	.L18:
 286 001e 00BF     		.align	2
 287              	.L17:
 288 0020 05E400E0 		.word	-536812539
 289              		.cfi_endproc
 290              	.LFE69:
 291              		.size	ModeStatus2ISR_SetPriority, .-ModeStatus2ISR_SetPriority
 292              		.section	.text.ModeStatus2ISR_GetPriority,"ax",%progbits
 293              		.align	2
 294              		.global	ModeStatus2ISR_GetPriority
 295              		.thumb
 296              		.thumb_func
 297              		.type	ModeStatus2ISR_GetPriority, %function
 298              	ModeStatus2ISR_GetPriority:
 299              	.LFB70:
 263:.\Generated_Source\PSoC5/ModeStatus2ISR.c **** 
 264:.\Generated_Source\PSoC5/ModeStatus2ISR.c **** 
 265:.\Generated_Source\PSoC5/ModeStatus2ISR.c **** /*******************************************************************************
 266:.\Generated_Source\PSoC5/ModeStatus2ISR.c **** * Function Name: ModeStatus2ISR_GetPriority
 267:.\Generated_Source\PSoC5/ModeStatus2ISR.c **** ********************************************************************************
 268:.\Generated_Source\PSoC5/ModeStatus2ISR.c **** *
 269:.\Generated_Source\PSoC5/ModeStatus2ISR.c **** * Summary:
 270:.\Generated_Source\PSoC5/ModeStatus2ISR.c **** *   Gets the Priority of the Interrupt.
 271:.\Generated_Source\PSoC5/ModeStatus2ISR.c **** *
ARM GAS  C:\Users\faith\AppData\Local\Temp\ccRciuYl.s 			page 11


 272:.\Generated_Source\PSoC5/ModeStatus2ISR.c **** * Parameters:
 273:.\Generated_Source\PSoC5/ModeStatus2ISR.c **** *   None
 274:.\Generated_Source\PSoC5/ModeStatus2ISR.c **** *
 275:.\Generated_Source\PSoC5/ModeStatus2ISR.c **** * Return:
 276:.\Generated_Source\PSoC5/ModeStatus2ISR.c **** *   Priority of the interrupt, 0 being the highest priority
 277:.\Generated_Source\PSoC5/ModeStatus2ISR.c **** *    PSoC 3 and PSoC 5LP: Priority is from 0 to 7.
 278:.\Generated_Source\PSoC5/ModeStatus2ISR.c **** *    PSoC 4: Priority is from 0 to 3.
 279:.\Generated_Source\PSoC5/ModeStatus2ISR.c **** *
 280:.\Generated_Source\PSoC5/ModeStatus2ISR.c **** *******************************************************************************/
 281:.\Generated_Source\PSoC5/ModeStatus2ISR.c **** uint8 ModeStatus2ISR_GetPriority(void)
 282:.\Generated_Source\PSoC5/ModeStatus2ISR.c **** {
 300              		.loc 1 282 0
 301              		.cfi_startproc
 302              		@ args = 0, pretend = 0, frame = 8
 303              		@ frame_needed = 1, uses_anonymous_args = 0
 304              		@ link register save eliminated.
 305 0000 80B4     		push	{r7}
 306              		.cfi_def_cfa_offset 4
 307              		.cfi_offset 7, -4
 308 0002 83B0     		sub	sp, sp, #12
 309              		.cfi_def_cfa_offset 16
 310 0004 00AF     		add	r7, sp, #0
 311              		.cfi_def_cfa_register 7
 283:.\Generated_Source\PSoC5/ModeStatus2ISR.c ****     uint8 priority;
 284:.\Generated_Source\PSoC5/ModeStatus2ISR.c **** 
 285:.\Generated_Source\PSoC5/ModeStatus2ISR.c **** 
 286:.\Generated_Source\PSoC5/ModeStatus2ISR.c ****     priority = *ModeStatus2ISR_INTC_PRIOR >> 5;
 312              		.loc 1 286 0
 313 0006 064B     		ldr	r3, .L21
 314 0008 1B78     		ldrb	r3, [r3]
 315 000a DBB2     		uxtb	r3, r3
 316 000c 5B09     		lsrs	r3, r3, #5
 317 000e FB71     		strb	r3, [r7, #7]
 287:.\Generated_Source\PSoC5/ModeStatus2ISR.c **** 
 288:.\Generated_Source\PSoC5/ModeStatus2ISR.c ****     return priority;
 318              		.loc 1 288 0
 319 0010 FB79     		ldrb	r3, [r7, #7]	@ zero_extendqisi2
 289:.\Generated_Source\PSoC5/ModeStatus2ISR.c **** }
 320              		.loc 1 289 0
 321 0012 1846     		mov	r0, r3
 322 0014 0C37     		adds	r7, r7, #12
 323              		.cfi_def_cfa_offset 4
 324 0016 BD46     		mov	sp, r7
 325              		.cfi_def_cfa_register 13
 326              		@ sp needed
 327 0018 5DF8047B 		ldr	r7, [sp], #4
 328              		.cfi_restore 7
 329              		.cfi_def_cfa_offset 0
 330 001c 7047     		bx	lr
 331              	.L22:
 332 001e 00BF     		.align	2
 333              	.L21:
 334 0020 05E400E0 		.word	-536812539
 335              		.cfi_endproc
 336              	.LFE70:
 337              		.size	ModeStatus2ISR_GetPriority, .-ModeStatus2ISR_GetPriority
 338              		.section	.text.ModeStatus2ISR_Enable,"ax",%progbits
ARM GAS  C:\Users\faith\AppData\Local\Temp\ccRciuYl.s 			page 12


 339              		.align	2
 340              		.global	ModeStatus2ISR_Enable
 341              		.thumb
 342              		.thumb_func
 343              		.type	ModeStatus2ISR_Enable, %function
 344              	ModeStatus2ISR_Enable:
 345              	.LFB71:
 290:.\Generated_Source\PSoC5/ModeStatus2ISR.c **** 
 291:.\Generated_Source\PSoC5/ModeStatus2ISR.c **** 
 292:.\Generated_Source\PSoC5/ModeStatus2ISR.c **** /*******************************************************************************
 293:.\Generated_Source\PSoC5/ModeStatus2ISR.c **** * Function Name: ModeStatus2ISR_Enable
 294:.\Generated_Source\PSoC5/ModeStatus2ISR.c **** ********************************************************************************
 295:.\Generated_Source\PSoC5/ModeStatus2ISR.c **** *
 296:.\Generated_Source\PSoC5/ModeStatus2ISR.c **** * Summary:
 297:.\Generated_Source\PSoC5/ModeStatus2ISR.c **** *   Enables the interrupt to the interrupt controller. Do not call this function
 298:.\Generated_Source\PSoC5/ModeStatus2ISR.c **** *   unless ISR_Start() has been called or the functionality of the ISR_Start() 
 299:.\Generated_Source\PSoC5/ModeStatus2ISR.c **** *   function, which sets the vector and the priority, has been called.
 300:.\Generated_Source\PSoC5/ModeStatus2ISR.c **** *
 301:.\Generated_Source\PSoC5/ModeStatus2ISR.c **** * Parameters:
 302:.\Generated_Source\PSoC5/ModeStatus2ISR.c **** *   None
 303:.\Generated_Source\PSoC5/ModeStatus2ISR.c **** *
 304:.\Generated_Source\PSoC5/ModeStatus2ISR.c **** * Return:
 305:.\Generated_Source\PSoC5/ModeStatus2ISR.c **** *   None
 306:.\Generated_Source\PSoC5/ModeStatus2ISR.c **** *
 307:.\Generated_Source\PSoC5/ModeStatus2ISR.c **** *******************************************************************************/
 308:.\Generated_Source\PSoC5/ModeStatus2ISR.c **** void ModeStatus2ISR_Enable(void)
 309:.\Generated_Source\PSoC5/ModeStatus2ISR.c **** {
 346              		.loc 1 309 0
 347              		.cfi_startproc
 348              		@ args = 0, pretend = 0, frame = 0
 349              		@ frame_needed = 1, uses_anonymous_args = 0
 350              		@ link register save eliminated.
 351 0000 80B4     		push	{r7}
 352              		.cfi_def_cfa_offset 4
 353              		.cfi_offset 7, -4
 354 0002 00AF     		add	r7, sp, #0
 355              		.cfi_def_cfa_register 7
 310:.\Generated_Source\PSoC5/ModeStatus2ISR.c ****     /* Enable the general interrupt. */
 311:.\Generated_Source\PSoC5/ModeStatus2ISR.c ****     *ModeStatus2ISR_INTC_SET_EN = ModeStatus2ISR__INTC_MASK;
 356              		.loc 1 311 0
 357 0004 034B     		ldr	r3, .L24
 358 0006 2022     		movs	r2, #32
 359 0008 1A60     		str	r2, [r3]
 312:.\Generated_Source\PSoC5/ModeStatus2ISR.c **** }
 360              		.loc 1 312 0
 361 000a BD46     		mov	sp, r7
 362              		.cfi_def_cfa_register 13
 363              		@ sp needed
 364 000c 5DF8047B 		ldr	r7, [sp], #4
 365              		.cfi_restore 7
 366              		.cfi_def_cfa_offset 0
 367 0010 7047     		bx	lr
 368              	.L25:
 369 0012 00BF     		.align	2
 370              	.L24:
 371 0014 00E100E0 		.word	-536813312
 372              		.cfi_endproc
ARM GAS  C:\Users\faith\AppData\Local\Temp\ccRciuYl.s 			page 13


 373              	.LFE71:
 374              		.size	ModeStatus2ISR_Enable, .-ModeStatus2ISR_Enable
 375              		.section	.text.ModeStatus2ISR_GetState,"ax",%progbits
 376              		.align	2
 377              		.global	ModeStatus2ISR_GetState
 378              		.thumb
 379              		.thumb_func
 380              		.type	ModeStatus2ISR_GetState, %function
 381              	ModeStatus2ISR_GetState:
 382              	.LFB72:
 313:.\Generated_Source\PSoC5/ModeStatus2ISR.c **** 
 314:.\Generated_Source\PSoC5/ModeStatus2ISR.c **** 
 315:.\Generated_Source\PSoC5/ModeStatus2ISR.c **** /*******************************************************************************
 316:.\Generated_Source\PSoC5/ModeStatus2ISR.c **** * Function Name: ModeStatus2ISR_GetState
 317:.\Generated_Source\PSoC5/ModeStatus2ISR.c **** ********************************************************************************
 318:.\Generated_Source\PSoC5/ModeStatus2ISR.c **** *
 319:.\Generated_Source\PSoC5/ModeStatus2ISR.c **** * Summary:
 320:.\Generated_Source\PSoC5/ModeStatus2ISR.c **** *   Gets the state (enabled, disabled) of the Interrupt.
 321:.\Generated_Source\PSoC5/ModeStatus2ISR.c **** *
 322:.\Generated_Source\PSoC5/ModeStatus2ISR.c **** * Parameters:
 323:.\Generated_Source\PSoC5/ModeStatus2ISR.c **** *   None
 324:.\Generated_Source\PSoC5/ModeStatus2ISR.c **** *
 325:.\Generated_Source\PSoC5/ModeStatus2ISR.c **** * Return:
 326:.\Generated_Source\PSoC5/ModeStatus2ISR.c **** *   1 if enabled, 0 if disabled.
 327:.\Generated_Source\PSoC5/ModeStatus2ISR.c **** *
 328:.\Generated_Source\PSoC5/ModeStatus2ISR.c **** *******************************************************************************/
 329:.\Generated_Source\PSoC5/ModeStatus2ISR.c **** uint8 ModeStatus2ISR_GetState(void)
 330:.\Generated_Source\PSoC5/ModeStatus2ISR.c **** {
 383              		.loc 1 330 0
 384              		.cfi_startproc
 385              		@ args = 0, pretend = 0, frame = 0
 386              		@ frame_needed = 1, uses_anonymous_args = 0
 387              		@ link register save eliminated.
 388 0000 80B4     		push	{r7}
 389              		.cfi_def_cfa_offset 4
 390              		.cfi_offset 7, -4
 391 0002 00AF     		add	r7, sp, #0
 392              		.cfi_def_cfa_register 7
 331:.\Generated_Source\PSoC5/ModeStatus2ISR.c ****     /* Get the state of the general interrupt. */
 332:.\Generated_Source\PSoC5/ModeStatus2ISR.c ****     return ((*ModeStatus2ISR_INTC_SET_EN & (uint32)ModeStatus2ISR__INTC_MASK) != 0u) ? 1u:0u;
 393              		.loc 1 332 0
 394 0004 064B     		ldr	r3, .L30
 395 0006 1B68     		ldr	r3, [r3]
 396 0008 03F02003 		and	r3, r3, #32
 397 000c 002B     		cmp	r3, #0
 398 000e 01D0     		beq	.L27
 399              		.loc 1 332 0 is_stmt 0 discriminator 1
 400 0010 0123     		movs	r3, #1
 401 0012 00E0     		b	.L28
 402              	.L27:
 403              		.loc 1 332 0 discriminator 2
 404 0014 0023     		movs	r3, #0
 405              	.L28:
 333:.\Generated_Source\PSoC5/ModeStatus2ISR.c **** }
 406              		.loc 1 333 0 is_stmt 1 discriminator 4
 407 0016 1846     		mov	r0, r3
 408 0018 BD46     		mov	sp, r7
ARM GAS  C:\Users\faith\AppData\Local\Temp\ccRciuYl.s 			page 14


 409              		.cfi_def_cfa_register 13
 410              		@ sp needed
 411 001a 5DF8047B 		ldr	r7, [sp], #4
 412              		.cfi_restore 7
 413              		.cfi_def_cfa_offset 0
 414 001e 7047     		bx	lr
 415              	.L31:
 416              		.align	2
 417              	.L30:
 418 0020 00E100E0 		.word	-536813312
 419              		.cfi_endproc
 420              	.LFE72:
 421              		.size	ModeStatus2ISR_GetState, .-ModeStatus2ISR_GetState
 422              		.section	.text.ModeStatus2ISR_Disable,"ax",%progbits
 423              		.align	2
 424              		.global	ModeStatus2ISR_Disable
 425              		.thumb
 426              		.thumb_func
 427              		.type	ModeStatus2ISR_Disable, %function
 428              	ModeStatus2ISR_Disable:
 429              	.LFB73:
 334:.\Generated_Source\PSoC5/ModeStatus2ISR.c **** 
 335:.\Generated_Source\PSoC5/ModeStatus2ISR.c **** 
 336:.\Generated_Source\PSoC5/ModeStatus2ISR.c **** /*******************************************************************************
 337:.\Generated_Source\PSoC5/ModeStatus2ISR.c **** * Function Name: ModeStatus2ISR_Disable
 338:.\Generated_Source\PSoC5/ModeStatus2ISR.c **** ********************************************************************************
 339:.\Generated_Source\PSoC5/ModeStatus2ISR.c **** *
 340:.\Generated_Source\PSoC5/ModeStatus2ISR.c **** * Summary:
 341:.\Generated_Source\PSoC5/ModeStatus2ISR.c **** *   Disables the Interrupt in the interrupt controller.
 342:.\Generated_Source\PSoC5/ModeStatus2ISR.c **** *
 343:.\Generated_Source\PSoC5/ModeStatus2ISR.c **** * Parameters:
 344:.\Generated_Source\PSoC5/ModeStatus2ISR.c **** *   None
 345:.\Generated_Source\PSoC5/ModeStatus2ISR.c **** *
 346:.\Generated_Source\PSoC5/ModeStatus2ISR.c **** * Return:
 347:.\Generated_Source\PSoC5/ModeStatus2ISR.c **** *   None
 348:.\Generated_Source\PSoC5/ModeStatus2ISR.c **** *
 349:.\Generated_Source\PSoC5/ModeStatus2ISR.c **** *******************************************************************************/
 350:.\Generated_Source\PSoC5/ModeStatus2ISR.c **** void ModeStatus2ISR_Disable(void)
 351:.\Generated_Source\PSoC5/ModeStatus2ISR.c **** {
 430              		.loc 1 351 0
 431              		.cfi_startproc
 432              		@ args = 0, pretend = 0, frame = 0
 433              		@ frame_needed = 1, uses_anonymous_args = 0
 434              		@ link register save eliminated.
 435 0000 80B4     		push	{r7}
 436              		.cfi_def_cfa_offset 4
 437              		.cfi_offset 7, -4
 438 0002 00AF     		add	r7, sp, #0
 439              		.cfi_def_cfa_register 7
 352:.\Generated_Source\PSoC5/ModeStatus2ISR.c ****     /* Disable the general interrupt. */
 353:.\Generated_Source\PSoC5/ModeStatus2ISR.c ****     *ModeStatus2ISR_INTC_CLR_EN = ModeStatus2ISR__INTC_MASK;
 440              		.loc 1 353 0
 441 0004 034B     		ldr	r3, .L33
 442 0006 2022     		movs	r2, #32
 443 0008 1A60     		str	r2, [r3]
 354:.\Generated_Source\PSoC5/ModeStatus2ISR.c **** }
 444              		.loc 1 354 0
ARM GAS  C:\Users\faith\AppData\Local\Temp\ccRciuYl.s 			page 15


 445 000a BD46     		mov	sp, r7
 446              		.cfi_def_cfa_register 13
 447              		@ sp needed
 448 000c 5DF8047B 		ldr	r7, [sp], #4
 449              		.cfi_restore 7
 450              		.cfi_def_cfa_offset 0
 451 0010 7047     		bx	lr
 452              	.L34:
 453 0012 00BF     		.align	2
 454              	.L33:
 455 0014 80E100E0 		.word	-536813184
 456              		.cfi_endproc
 457              	.LFE73:
 458              		.size	ModeStatus2ISR_Disable, .-ModeStatus2ISR_Disable
 459              		.section	.text.ModeStatus2ISR_SetPending,"ax",%progbits
 460              		.align	2
 461              		.global	ModeStatus2ISR_SetPending
 462              		.thumb
 463              		.thumb_func
 464              		.type	ModeStatus2ISR_SetPending, %function
 465              	ModeStatus2ISR_SetPending:
 466              	.LFB74:
 355:.\Generated_Source\PSoC5/ModeStatus2ISR.c **** 
 356:.\Generated_Source\PSoC5/ModeStatus2ISR.c **** 
 357:.\Generated_Source\PSoC5/ModeStatus2ISR.c **** /*******************************************************************************
 358:.\Generated_Source\PSoC5/ModeStatus2ISR.c **** * Function Name: ModeStatus2ISR_SetPending
 359:.\Generated_Source\PSoC5/ModeStatus2ISR.c **** ********************************************************************************
 360:.\Generated_Source\PSoC5/ModeStatus2ISR.c **** *
 361:.\Generated_Source\PSoC5/ModeStatus2ISR.c **** * Summary:
 362:.\Generated_Source\PSoC5/ModeStatus2ISR.c **** *   Causes the Interrupt to enter the pending state, a software method of
 363:.\Generated_Source\PSoC5/ModeStatus2ISR.c **** *   generating the interrupt.
 364:.\Generated_Source\PSoC5/ModeStatus2ISR.c **** *
 365:.\Generated_Source\PSoC5/ModeStatus2ISR.c **** * Parameters:
 366:.\Generated_Source\PSoC5/ModeStatus2ISR.c **** *   None
 367:.\Generated_Source\PSoC5/ModeStatus2ISR.c **** *
 368:.\Generated_Source\PSoC5/ModeStatus2ISR.c **** * Return:
 369:.\Generated_Source\PSoC5/ModeStatus2ISR.c **** *   None
 370:.\Generated_Source\PSoC5/ModeStatus2ISR.c **** *
 371:.\Generated_Source\PSoC5/ModeStatus2ISR.c **** * Side Effects:
 372:.\Generated_Source\PSoC5/ModeStatus2ISR.c **** *   If interrupts are enabled and the interrupt is set up properly, the ISR is
 373:.\Generated_Source\PSoC5/ModeStatus2ISR.c **** *   entered (depending on the priority of this interrupt and other pending 
 374:.\Generated_Source\PSoC5/ModeStatus2ISR.c **** *   interrupts).
 375:.\Generated_Source\PSoC5/ModeStatus2ISR.c **** *
 376:.\Generated_Source\PSoC5/ModeStatus2ISR.c **** *******************************************************************************/
 377:.\Generated_Source\PSoC5/ModeStatus2ISR.c **** void ModeStatus2ISR_SetPending(void)
 378:.\Generated_Source\PSoC5/ModeStatus2ISR.c **** {
 467              		.loc 1 378 0
 468              		.cfi_startproc
 469              		@ args = 0, pretend = 0, frame = 0
 470              		@ frame_needed = 1, uses_anonymous_args = 0
 471              		@ link register save eliminated.
 472 0000 80B4     		push	{r7}
 473              		.cfi_def_cfa_offset 4
 474              		.cfi_offset 7, -4
 475 0002 00AF     		add	r7, sp, #0
 476              		.cfi_def_cfa_register 7
 379:.\Generated_Source\PSoC5/ModeStatus2ISR.c ****     *ModeStatus2ISR_INTC_SET_PD = ModeStatus2ISR__INTC_MASK;
ARM GAS  C:\Users\faith\AppData\Local\Temp\ccRciuYl.s 			page 16


 477              		.loc 1 379 0
 478 0004 034B     		ldr	r3, .L36
 479 0006 2022     		movs	r2, #32
 480 0008 1A60     		str	r2, [r3]
 380:.\Generated_Source\PSoC5/ModeStatus2ISR.c **** }
 481              		.loc 1 380 0
 482 000a BD46     		mov	sp, r7
 483              		.cfi_def_cfa_register 13
 484              		@ sp needed
 485 000c 5DF8047B 		ldr	r7, [sp], #4
 486              		.cfi_restore 7
 487              		.cfi_def_cfa_offset 0
 488 0010 7047     		bx	lr
 489              	.L37:
 490 0012 00BF     		.align	2
 491              	.L36:
 492 0014 00E200E0 		.word	-536813056
 493              		.cfi_endproc
 494              	.LFE74:
 495              		.size	ModeStatus2ISR_SetPending, .-ModeStatus2ISR_SetPending
 496              		.section	.text.ModeStatus2ISR_ClearPending,"ax",%progbits
 497              		.align	2
 498              		.global	ModeStatus2ISR_ClearPending
 499              		.thumb
 500              		.thumb_func
 501              		.type	ModeStatus2ISR_ClearPending, %function
 502              	ModeStatus2ISR_ClearPending:
 503              	.LFB75:
 381:.\Generated_Source\PSoC5/ModeStatus2ISR.c **** 
 382:.\Generated_Source\PSoC5/ModeStatus2ISR.c **** 
 383:.\Generated_Source\PSoC5/ModeStatus2ISR.c **** /*******************************************************************************
 384:.\Generated_Source\PSoC5/ModeStatus2ISR.c **** * Function Name: ModeStatus2ISR_ClearPending
 385:.\Generated_Source\PSoC5/ModeStatus2ISR.c **** ********************************************************************************
 386:.\Generated_Source\PSoC5/ModeStatus2ISR.c **** *
 387:.\Generated_Source\PSoC5/ModeStatus2ISR.c **** * Summary:
 388:.\Generated_Source\PSoC5/ModeStatus2ISR.c **** *   Clears a pending interrupt in the interrupt controller.
 389:.\Generated_Source\PSoC5/ModeStatus2ISR.c **** *
 390:.\Generated_Source\PSoC5/ModeStatus2ISR.c **** *   Note Some interrupt sources are clear-on-read and require the block 
 391:.\Generated_Source\PSoC5/ModeStatus2ISR.c **** *   interrupt/status register to be read/cleared with the appropriate block API 
 392:.\Generated_Source\PSoC5/ModeStatus2ISR.c **** *   (GPIO, UART, and so on). Otherwise the ISR will continue to remain in 
 393:.\Generated_Source\PSoC5/ModeStatus2ISR.c **** *   pending state even though the interrupt itself is cleared using this API.
 394:.\Generated_Source\PSoC5/ModeStatus2ISR.c **** *
 395:.\Generated_Source\PSoC5/ModeStatus2ISR.c **** * Parameters:
 396:.\Generated_Source\PSoC5/ModeStatus2ISR.c **** *   None
 397:.\Generated_Source\PSoC5/ModeStatus2ISR.c **** *
 398:.\Generated_Source\PSoC5/ModeStatus2ISR.c **** * Return:
 399:.\Generated_Source\PSoC5/ModeStatus2ISR.c **** *   None
 400:.\Generated_Source\PSoC5/ModeStatus2ISR.c **** *
 401:.\Generated_Source\PSoC5/ModeStatus2ISR.c **** *******************************************************************************/
 402:.\Generated_Source\PSoC5/ModeStatus2ISR.c **** void ModeStatus2ISR_ClearPending(void)
 403:.\Generated_Source\PSoC5/ModeStatus2ISR.c **** {
 504              		.loc 1 403 0
 505              		.cfi_startproc
 506              		@ args = 0, pretend = 0, frame = 0
 507              		@ frame_needed = 1, uses_anonymous_args = 0
 508              		@ link register save eliminated.
 509 0000 80B4     		push	{r7}
ARM GAS  C:\Users\faith\AppData\Local\Temp\ccRciuYl.s 			page 17


 510              		.cfi_def_cfa_offset 4
 511              		.cfi_offset 7, -4
 512 0002 00AF     		add	r7, sp, #0
 513              		.cfi_def_cfa_register 7
 404:.\Generated_Source\PSoC5/ModeStatus2ISR.c ****     *ModeStatus2ISR_INTC_CLR_PD = ModeStatus2ISR__INTC_MASK;
 514              		.loc 1 404 0
 515 0004 034B     		ldr	r3, .L39
 516 0006 2022     		movs	r2, #32
 517 0008 1A60     		str	r2, [r3]
 405:.\Generated_Source\PSoC5/ModeStatus2ISR.c **** }
 518              		.loc 1 405 0
 519 000a BD46     		mov	sp, r7
 520              		.cfi_def_cfa_register 13
 521              		@ sp needed
 522 000c 5DF8047B 		ldr	r7, [sp], #4
 523              		.cfi_restore 7
 524              		.cfi_def_cfa_offset 0
 525 0010 7047     		bx	lr
 526              	.L40:
 527 0012 00BF     		.align	2
 528              	.L39:
 529 0014 80E200E0 		.word	-536812928
 530              		.cfi_endproc
 531              	.LFE75:
 532              		.size	ModeStatus2ISR_ClearPending, .-ModeStatus2ISR_ClearPending
 533              		.text
 534              	.Letext0:
 535              		.file 2 "c:\\program files (x86)\\cypress\\psoc creator\\3.3\\psoc creator\\import\\gnu\\arm\\4.9.
 536              		.file 3 "c:\\program files (x86)\\cypress\\psoc creator\\3.3\\psoc creator\\import\\gnu\\arm\\4.9.
 537              		.file 4 "Generated_Source\\PSoC5/cytypes.h"
 538              		.file 5 "Generated_Source\\PSoC5/core_cm3.h"