ARM GAS  C:\Users\faithc\AppData\Local\Temp\cc1EpcH5.s 			page 1


   1              		.syntax unified
   2              		.cpu cortex-m3
   3              		.fpu softvfp
   4              		.eabi_attribute 20, 1
   5              		.eabi_attribute 21, 1
   6              		.eabi_attribute 23, 3
   7              		.eabi_attribute 24, 1
   8              		.eabi_attribute 25, 1
   9              		.eabi_attribute 26, 1
  10              		.eabi_attribute 30, 6
  11              		.eabi_attribute 34, 1
  12              		.eabi_attribute 18, 4
  13              		.thumb
  14              		.file	"SirenState.c"
  15              		.text
  16              	.Ltext0:
  17              		.cfi_sections	.debug_frame
  18              		.section	.rodata
  19              		.align	2
  20              		.type	DEFAULT_CONFIGURATION_LIST, %object
  21              		.size	DEFAULT_CONFIGURATION_LIST, 12
  22              	DEFAULT_CONFIGURATION_LIST:
  23 0000 0E       		.byte	14
  24 0001 01       		.byte	1
  25 0002 02       		.byte	2
  26 0003 04       		.byte	4
  27 0004 05       		.byte	5
  28 0005 0B       		.byte	11
  29 0006 0F       		.byte	15
  30 0007 01       		.byte	1
  31 0008 02       		.byte	2
  32 0009 04       		.byte	4
  33 000a 05       		.byte	5
  34 000b 0B       		.byte	11
  35              		.align	1
  36              		.type	EEPROM_KEY_INDEX, %object
  37              		.size	EEPROM_KEY_INDEX, 2
  38              	EEPROM_KEY_INDEX:
  39 000c FF00     		.short	255
  40              		.type	EEPROM_KEY_VALUE, %object
  41              		.size	EEPROM_KEY_VALUE, 1
  42              	EEPROM_KEY_VALUE:
  43 000e AA       		.byte	-86
  44 000f 00       		.bss
  45              		.align	2
  46              	toneConfigurationList:
  47 0000 00000000 		.space	12
  47      00000000 
  47      00000000 
  48              		.align	2
  49              	InputRead:
  50 000c 00000000 		.space	7
  50      000000
  51 0013 00       		.align	2
  52              	ToneStatus:
  53 0014 00000000 		.space	7
  53      000000
ARM GAS  C:\Users\faithc\AppData\Local\Temp\cc1EpcH5.s 			page 2


  54              		.section	.text.initializeToneConfigurationList,"ax",%progbits
  55              		.align	2
  56              		.global	initializeToneConfigurationList
  57              		.thumb
  58              		.thumb_func
  59              		.type	initializeToneConfigurationList, %function
  60              	initializeToneConfigurationList:
  61              	.LFB63:
  62              		.file 1 ".\\SirenState.c"
   1:.\SirenState.c **** /* ========================================
   2:.\SirenState.c ****  *
   3:.\SirenState.c ****  * Copyright YOUR COMPANY, THE YEAR
   4:.\SirenState.c ****  * All Rights Reserved
   5:.\SirenState.c ****  * UNPUBLISHED, LICENSED SOFTWARE.
   6:.\SirenState.c ****  *
   7:.\SirenState.c ****  * CONFIDENTIAL AND PROPRIETARY INFORMATION
   8:.\SirenState.c ****  * WHICH IS THE PROPERTY OF your company.
   9:.\SirenState.c ****  *
  10:.\SirenState.c ****  * ========================================
  11:.\SirenState.c **** */
  12:.\SirenState.c **** 
  13:.\SirenState.c **** /**********PREPROCESSOR DIRECTIVES**********/
  14:.\SirenState.c **** #include "CommonVariables.h"
  15:.\SirenState.c **** #include "SirenState.h"
  16:.\SirenState.c **** #include "Tones.h"
  17:.\SirenState.c **** #include "DACaudio.h"
  18:.\SirenState.c **** 
  19:.\SirenState.c **** /**********DEFINED CONSTANTS**********/
  20:.\SirenState.c **** enum ChannelIndex
  21:.\SirenState.c **** {
  22:.\SirenState.c **** 	CHANNEL_1 = 0,
  23:.\SirenState.c **** 	CHANNEL_2 = 1,
  24:.\SirenState.c **** 	CHANNEL_3 = 2,
  25:.\SirenState.c **** 	CHANNEL_4 = 3,
  26:.\SirenState.c **** 	CHANNEL_5 = 4,
  27:.\SirenState.c **** 	CHANNEL_6 = 5,
  28:.\SirenState.c **** 	NO_CHANNEL = 0xFF
  29:.\SirenState.c **** };
  30:.\SirenState.c **** 
  31:.\SirenState.c **** enum BitMask
  32:.\SirenState.c **** {
  33:.\SirenState.c **** 	BIT0 = 0x01,
  34:.\SirenState.c **** 	BIT1 = 0x02,
  35:.\SirenState.c **** 	BIT2 = 0x04,
  36:.\SirenState.c **** 	BIT3 = 0x08,
  37:.\SirenState.c **** 	BIT4 = 0x10,
  38:.\SirenState.c **** 	BIT5 = 0x20,
  39:.\SirenState.c **** 	BIT6 = 0x40,
  40:.\SirenState.c **** 	BIT7 = 0x80
  41:.\SirenState.c **** };
  42:.\SirenState.c **** 
  43:.\SirenState.c **** static const uint8 DEFAULT_CONFIGURATION_LIST[SPEAKER_COUNT * CHANNEL_COUNT_PER_SPEAKER] = 
  44:.\SirenState.c ****     {ECTOSIREN, WAIL, SLOW_YELP, PHASER, HORN, HORN_PHASER,
  45:.\SirenState.c ****     COPS_SONG, WAIL, SLOW_YELP, PHASER, HORN, HORN_PHASER};
  46:.\SirenState.c **** 
  47:.\SirenState.c **** static const uint16 EEPROM_KEY_INDEX = 0xFF;
  48:.\SirenState.c **** static const uint8 EEPROM_KEY_VALUE = 0xAA;
ARM GAS  C:\Users\faithc\AppData\Local\Temp\cc1EpcH5.s 			page 3


  49:.\SirenState.c **** 
  50:.\SirenState.c **** /**********DATA STRUCTURES**********/
  51:.\SirenState.c **** static enum ToneType toneConfigurationList[SPEAKER_COUNT][CHANNEL_COUNT_PER_SPEAKER];
  52:.\SirenState.c ****     
  53:.\SirenState.c **** static struct
  54:.\SirenState.c **** {
  55:.\SirenState.c ****     uint8 bRadioAndMicKey;
  56:.\SirenState.c ****     uint8 bParkKill;
  57:.\SirenState.c ****     uint8 bTackSwitch;
  58:.\SirenState.c ****     uint8 bHornRing;
  59:.\SirenState.c ****     uint8 bDualDelay;
  60:.\SirenState.c ****     enum ChannelIndex highestPriorityChannel[SPEAKER_COUNT];
  61:.\SirenState.c **** }InputRead;
  62:.\SirenState.c **** 
  63:.\SirenState.c **** static struct
  64:.\SirenState.c **** {
  65:.\SirenState.c ****     enum ToneType previousTone[SPEAKER_COUNT];
  66:.\SirenState.c ****     enum ToneType currentTone[SPEAKER_COUNT];
  67:.\SirenState.c ****     uint8 bRisingEdge[SPEAKER_COUNT];
  68:.\SirenState.c ****     uint8 bDualDelayEnable;
  69:.\SirenState.c **** }ToneStatus;
  70:.\SirenState.c **** 
  71:.\SirenState.c **** /**********GLOBAL VARIABLES**********/
  72:.\SirenState.c **** 
  73:.\SirenState.c **** 
  74:.\SirenState.c **** /**********FUNCTION PROTOTYPES**********/
  75:.\SirenState.c **** static void decideTonesToPlay(void);
  76:.\SirenState.c **** static uint8 enableSpeakerForSirenTone(uint8 bSpeaker, enum ToneType toneSelection, uint8 bInputEna
  77:.\SirenState.c **** static uint8 enableSpeakersForAudioTone(uint8 bSpeaker, enum ToneType toneSelection, uint8 bInputEn
  78:.\SirenState.c **** static enum ChannelIndex getHighestPriorityChannel(uint8 bSpeakerNumber);
  79:.\SirenState.c **** static enum ToneType getAlternatingTone(enum ToneType toneSelection);
  80:.\SirenState.c **** static uint8 isTrailingTone(enum ToneType thisTone);
  81:.\SirenState.c **** static uint8 isAudioTone(enum ToneType thisTone);
  82:.\SirenState.c **** static uint8 isCommand(enum ToneType thisTone);
  83:.\SirenState.c **** static uint8 isSong(enum ToneType thisTone);
  84:.\SirenState.c **** static uint8 getBitIndex(enum BitMask maskNumber);
  85:.\SirenState.c **** 
  86:.\SirenState.c **** /**********DEFINED FUNCTIONS**********/
  87:.\SirenState.c **** /*******************************************************************************
  88:.\SirenState.c **** * Function Name: initializeToneConfigurationList
  89:.\SirenState.c **** ********************************************************************************
  90:.\SirenState.c **** *
  91:.\SirenState.c **** * Summary:
  92:.\SirenState.c **** *  Sets the configuration list to the tones saved in EEPROM
  93:.\SirenState.c **** *
  94:.\SirenState.c **** * Parameters:  
  95:.\SirenState.c **** *   None
  96:.\SirenState.c **** *
  97:.\SirenState.c **** * Return:
  98:.\SirenState.c **** *   None
  99:.\SirenState.c **** *
 100:.\SirenState.c **** *******************************************************************************/
 101:.\SirenState.c **** void initializeToneConfigurationList(void)
 102:.\SirenState.c **** {
  63              		.loc 1 102 0
  64              		.cfi_startproc
  65              		@ args = 0, pretend = 0, frame = 8
ARM GAS  C:\Users\faithc\AppData\Local\Temp\cc1EpcH5.s 			page 4


  66              		@ frame_needed = 1, uses_anonymous_args = 0
  67 0000 B0B5     		push	{r4, r5, r7, lr}
  68              		.cfi_def_cfa_offset 16
  69              		.cfi_offset 4, -16
  70              		.cfi_offset 5, -12
  71              		.cfi_offset 7, -8
  72              		.cfi_offset 14, -4
  73 0002 82B0     		sub	sp, sp, #8
  74              		.cfi_def_cfa_offset 24
  75 0004 00AF     		add	r7, sp, #0
  76              		.cfi_def_cfa_register 7
 103:.\SirenState.c ****     uint8 bHasNoTone = false;  
  77              		.loc 1 103 0
  78 0006 0023     		movs	r3, #0
  79 0008 FB71     		strb	r3, [r7, #7]
 104:.\SirenState.c ****     uint8 bSpeakerIndex = SPEAKER_1;
  80              		.loc 1 104 0
  81 000a 0023     		movs	r3, #0
  82 000c BB71     		strb	r3, [r7, #6]
 105:.\SirenState.c ****     uint8 channelIndex = NO_CHANNEL;   
  83              		.loc 1 105 0
  84 000e FF23     		movs	r3, #255
  85 0010 7B71     		strb	r3, [r7, #5]
 106:.\SirenState.c ****     uint16 addressIndex = 0;
  86              		.loc 1 106 0
  87 0012 0023     		movs	r3, #0
  88 0014 7B80     		strh	r3, [r7, #2]	@ movhi
 107:.\SirenState.c ****     
 108:.\SirenState.c ****     EEPROM_Start();   
  89              		.loc 1 108 0
  90 0016 FFF7FEFF 		bl	EEPROM_Start
 109:.\SirenState.c ****     
 110:.\SirenState.c ****     for(bSpeakerIndex = 0; bSpeakerIndex < SPEAKER_COUNT; bSpeakerIndex++)
  91              		.loc 1 110 0
  92 001a 0023     		movs	r3, #0
  93 001c BB71     		strb	r3, [r7, #6]
  94 001e 20E0     		b	.L2
  95              	.L7:
 111:.\SirenState.c ****     {   //Check for indices with no tone written to it
 112:.\SirenState.c ****         for(channelIndex = 0; channelIndex < CHANNEL_COUNT_PER_SPEAKER; channelIndex++)
  96              		.loc 1 112 0
  97 0020 0023     		movs	r3, #0
  98 0022 7B71     		strb	r3, [r7, #5]
  99 0024 17E0     		b	.L3
 100              	.L6:
 113:.\SirenState.c ****         {
 114:.\SirenState.c ****             addressIndex = (uint16)(CHANNEL_COUNT_PER_SPEAKER * bSpeakerIndex + channelIndex);
 101              		.loc 1 114 0
 102 0026 BB79     		ldrb	r3, [r7, #6]	@ zero_extendqisi2
 103 0028 9BB2     		uxth	r3, r3
 104 002a 1A46     		mov	r2, r3	@ movhi
 105 002c 5200     		lsls	r2, r2, #1
 106 002e 1344     		add	r3, r3, r2
 107 0030 5B00     		lsls	r3, r3, #1
 108 0032 9AB2     		uxth	r2, r3
 109 0034 7B79     		ldrb	r3, [r7, #5]	@ zero_extendqisi2
 110 0036 9BB2     		uxth	r3, r3
ARM GAS  C:\Users\faithc\AppData\Local\Temp\cc1EpcH5.s 			page 5


 111 0038 1344     		add	r3, r3, r2
 112 003a 7B80     		strh	r3, [r7, #2]	@ movhi
 115:.\SirenState.c ****             if(EEPROM_ReadByte(addressIndex) >= TONE_TYPE_LIST_SIZE)
 113              		.loc 1 115 0
 114 003c 7B88     		ldrh	r3, [r7, #2]
 115 003e 1846     		mov	r0, r3
 116 0040 FFF7FEFF 		bl	EEPROM_ReadByte
 117 0044 0346     		mov	r3, r0
 118 0046 162B     		cmp	r3, #22
 119 0048 02D9     		bls	.L4
 116:.\SirenState.c ****             {   //Terminate loop after finding first invalid tone
 117:.\SirenState.c ****                 bHasNoTone = true;
 120              		.loc 1 117 0
 121 004a 0123     		movs	r3, #1
 122 004c FB71     		strb	r3, [r7, #7]
 118:.\SirenState.c ****                 break;
 123              		.loc 1 118 0
 124 004e 05E0     		b	.L5
 125              	.L4:
 112:.\SirenState.c ****         {
 126              		.loc 1 112 0 discriminator 2
 127 0050 7B79     		ldrb	r3, [r7, #5]	@ zero_extendqisi2
 128 0052 0133     		adds	r3, r3, #1
 129 0054 7B71     		strb	r3, [r7, #5]
 130              	.L3:
 112:.\SirenState.c ****         {
 131              		.loc 1 112 0 is_stmt 0 discriminator 1
 132 0056 7B79     		ldrb	r3, [r7, #5]	@ zero_extendqisi2
 133 0058 052B     		cmp	r3, #5
 134 005a E4D9     		bls	.L6
 135              	.L5:
 110:.\SirenState.c ****     {   //Check for indices with no tone written to it
 136              		.loc 1 110 0 is_stmt 1 discriminator 2
 137 005c BB79     		ldrb	r3, [r7, #6]	@ zero_extendqisi2
 138 005e 0133     		adds	r3, r3, #1
 139 0060 BB71     		strb	r3, [r7, #6]
 140              	.L2:
 110:.\SirenState.c ****     {   //Check for indices with no tone written to it
 141              		.loc 1 110 0 is_stmt 0 discriminator 1
 142 0062 BB79     		ldrb	r3, [r7, #6]	@ zero_extendqisi2
 143 0064 012B     		cmp	r3, #1
 144 0066 DBD9     		bls	.L7
 119:.\SirenState.c ****             }
 120:.\SirenState.c ****         }
 121:.\SirenState.c ****     }
 122:.\SirenState.c ****     
 123:.\SirenState.c ****     if((bHasNoTone == true) || (EEPROM_ReadByte(EEPROM_KEY_INDEX) != EEPROM_KEY_VALUE))
 145              		.loc 1 123 0 is_stmt 1
 146 0068 FB79     		ldrb	r3, [r7, #7]	@ zero_extendqisi2
 147 006a 012B     		cmp	r3, #1
 148 006c 08D0     		beq	.L8
 149              		.loc 1 123 0 is_stmt 0 discriminator 1
 150 006e FF23     		movs	r3, #255
 151 0070 1846     		mov	r0, r3
 152 0072 FFF7FEFF 		bl	EEPROM_ReadByte
 153 0076 0346     		mov	r3, r0
 154 0078 1A46     		mov	r2, r3
ARM GAS  C:\Users\faithc\AppData\Local\Temp\cc1EpcH5.s 			page 6


 155 007a AA23     		movs	r3, #170
 156 007c 9A42     		cmp	r2, r3
 157 007e 2CD0     		beq	.L9
 158              	.L8:
 124:.\SirenState.c ****     {   //Write to EEPROM 
 125:.\SirenState.c ****         EEPROM_UpdateTemperature(); //Optimizes write timings based on temperature reading 
 159              		.loc 1 125 0 is_stmt 1
 160 0080 FFF7FEFF 		bl	EEPROM_UpdateTemperature
 126:.\SirenState.c ****         
 127:.\SirenState.c ****         for(bSpeakerIndex = 0; bSpeakerIndex < SPEAKER_COUNT; bSpeakerIndex++)
 161              		.loc 1 127 0
 162 0084 0023     		movs	r3, #0
 163 0086 BB71     		strb	r3, [r7, #6]
 164 0088 1EE0     		b	.L10
 165              	.L13:
 128:.\SirenState.c ****         {   //Obtain tones from EEPROM to configure channels
 129:.\SirenState.c ****             for(channelIndex = 0; channelIndex < CHANNEL_COUNT_PER_SPEAKER; channelIndex++)
 166              		.loc 1 129 0
 167 008a 0023     		movs	r3, #0
 168 008c 7B71     		strb	r3, [r7, #5]
 169 008e 15E0     		b	.L11
 170              	.L12:
 130:.\SirenState.c ****             {
 131:.\SirenState.c ****                 addressIndex = (uint16)(CHANNEL_COUNT_PER_SPEAKER * bSpeakerIndex + channelIndex);
 171              		.loc 1 131 0 discriminator 3
 172 0090 BB79     		ldrb	r3, [r7, #6]	@ zero_extendqisi2
 173 0092 9BB2     		uxth	r3, r3
 174 0094 1A46     		mov	r2, r3	@ movhi
 175 0096 5200     		lsls	r2, r2, #1
 176 0098 1344     		add	r3, r3, r2
 177 009a 5B00     		lsls	r3, r3, #1
 178 009c 9AB2     		uxth	r2, r3
 179 009e 7B79     		ldrb	r3, [r7, #5]	@ zero_extendqisi2
 180 00a0 9BB2     		uxth	r3, r3
 181 00a2 1344     		add	r3, r3, r2
 182 00a4 7B80     		strh	r3, [r7, #2]	@ movhi
 132:.\SirenState.c ****                 EEPROM_WriteByte(DEFAULT_CONFIGURATION_LIST[addressIndex], addressIndex);
 183              		.loc 1 132 0 discriminator 3
 184 00a6 7B88     		ldrh	r3, [r7, #2]
 185 00a8 244A     		ldr	r2, .L18
 186 00aa D25C     		ldrb	r2, [r2, r3]	@ zero_extendqisi2
 187 00ac 7B88     		ldrh	r3, [r7, #2]
 188 00ae 1046     		mov	r0, r2
 189 00b0 1946     		mov	r1, r3
 190 00b2 FFF7FEFF 		bl	EEPROM_WriteByte
 129:.\SirenState.c ****             {
 191              		.loc 1 129 0 discriminator 3
 192 00b6 7B79     		ldrb	r3, [r7, #5]	@ zero_extendqisi2
 193 00b8 0133     		adds	r3, r3, #1
 194 00ba 7B71     		strb	r3, [r7, #5]
 195              	.L11:
 129:.\SirenState.c ****             {
 196              		.loc 1 129 0 is_stmt 0 discriminator 1
 197 00bc 7B79     		ldrb	r3, [r7, #5]	@ zero_extendqisi2
 198 00be 052B     		cmp	r3, #5
 199 00c0 E6D9     		bls	.L12
 127:.\SirenState.c ****         {   //Obtain tones from EEPROM to configure channels
ARM GAS  C:\Users\faithc\AppData\Local\Temp\cc1EpcH5.s 			page 7


 200              		.loc 1 127 0 is_stmt 1 discriminator 2
 201 00c2 BB79     		ldrb	r3, [r7, #6]	@ zero_extendqisi2
 202 00c4 0133     		adds	r3, r3, #1
 203 00c6 BB71     		strb	r3, [r7, #6]
 204              	.L10:
 127:.\SirenState.c ****         {   //Obtain tones from EEPROM to configure channels
 205              		.loc 1 127 0 is_stmt 0 discriminator 1
 206 00c8 BB79     		ldrb	r3, [r7, #6]	@ zero_extendqisi2
 207 00ca 012B     		cmp	r3, #1
 208 00cc DDD9     		bls	.L13
 133:.\SirenState.c ****             }
 134:.\SirenState.c ****         }
 135:.\SirenState.c ****         
 136:.\SirenState.c ****         EEPROM_WriteByte(EEPROM_KEY_VALUE, EEPROM_KEY_INDEX);
 209              		.loc 1 136 0 is_stmt 1
 210 00ce AA22     		movs	r2, #170
 211 00d0 FF23     		movs	r3, #255
 212 00d2 1046     		mov	r0, r2
 213 00d4 1946     		mov	r1, r3
 214 00d6 FFF7FEFF 		bl	EEPROM_WriteByte
 215              	.L9:
 137:.\SirenState.c ****     }
 138:.\SirenState.c ****     
 139:.\SirenState.c ****     for(bSpeakerIndex = 0; bSpeakerIndex < SPEAKER_COUNT; bSpeakerIndex++)
 216              		.loc 1 139 0
 217 00da 0023     		movs	r3, #0
 218 00dc BB71     		strb	r3, [r7, #6]
 219 00de 27E0     		b	.L14
 220              	.L17:
 140:.\SirenState.c ****     {   //Obtain tones from EEPROM to configure channels
 141:.\SirenState.c ****         for(channelIndex = 0; channelIndex < CHANNEL_COUNT_PER_SPEAKER; channelIndex++)
 221              		.loc 1 141 0
 222 00e0 0023     		movs	r3, #0
 223 00e2 7B71     		strb	r3, [r7, #5]
 224 00e4 1EE0     		b	.L15
 225              	.L16:
 142:.\SirenState.c ****         {
 143:.\SirenState.c ****             addressIndex = (uint16)(CHANNEL_COUNT_PER_SPEAKER * bSpeakerIndex + channelIndex);
 226              		.loc 1 143 0 discriminator 3
 227 00e6 BB79     		ldrb	r3, [r7, #6]	@ zero_extendqisi2
 228 00e8 9BB2     		uxth	r3, r3
 229 00ea 1A46     		mov	r2, r3	@ movhi
 230 00ec 5200     		lsls	r2, r2, #1
 231 00ee 1344     		add	r3, r3, r2
 232 00f0 5B00     		lsls	r3, r3, #1
 233 00f2 9AB2     		uxth	r2, r3
 234 00f4 7B79     		ldrb	r3, [r7, #5]	@ zero_extendqisi2
 235 00f6 9BB2     		uxth	r3, r3
 236 00f8 1344     		add	r3, r3, r2
 237 00fa 7B80     		strh	r3, [r7, #2]	@ movhi
 144:.\SirenState.c ****             toneConfigurationList[bSpeakerIndex][channelIndex] = EEPROM_ReadByte(addressIndex);
 238              		.loc 1 144 0 discriminator 3
 239 00fc BC79     		ldrb	r4, [r7, #6]	@ zero_extendqisi2
 240 00fe 7D79     		ldrb	r5, [r7, #5]	@ zero_extendqisi2
 241 0100 7B88     		ldrh	r3, [r7, #2]
 242 0102 1846     		mov	r0, r3
 243 0104 FFF7FEFF 		bl	EEPROM_ReadByte
ARM GAS  C:\Users\faithc\AppData\Local\Temp\cc1EpcH5.s 			page 8


 244 0108 0346     		mov	r3, r0
 245 010a 1946     		mov	r1, r3
 246 010c 0C4A     		ldr	r2, .L18+4
 247 010e 2346     		mov	r3, r4
 248 0110 5B00     		lsls	r3, r3, #1
 249 0112 2344     		add	r3, r3, r4
 250 0114 5B00     		lsls	r3, r3, #1
 251 0116 2B44     		add	r3, r3, r5
 252 0118 1344     		add	r3, r3, r2
 253 011a 0A46     		mov	r2, r1
 254 011c 1A70     		strb	r2, [r3]
 141:.\SirenState.c ****         {
 255              		.loc 1 141 0 discriminator 3
 256 011e 7B79     		ldrb	r3, [r7, #5]	@ zero_extendqisi2
 257 0120 0133     		adds	r3, r3, #1
 258 0122 7B71     		strb	r3, [r7, #5]
 259              	.L15:
 141:.\SirenState.c ****         {
 260              		.loc 1 141 0 is_stmt 0 discriminator 1
 261 0124 7B79     		ldrb	r3, [r7, #5]	@ zero_extendqisi2
 262 0126 052B     		cmp	r3, #5
 263 0128 DDD9     		bls	.L16
 139:.\SirenState.c ****     {   //Obtain tones from EEPROM to configure channels
 264              		.loc 1 139 0 is_stmt 1 discriminator 2
 265 012a BB79     		ldrb	r3, [r7, #6]	@ zero_extendqisi2
 266 012c 0133     		adds	r3, r3, #1
 267 012e BB71     		strb	r3, [r7, #6]
 268              	.L14:
 139:.\SirenState.c ****     {   //Obtain tones from EEPROM to configure channels
 269              		.loc 1 139 0 is_stmt 0 discriminator 1
 270 0130 BB79     		ldrb	r3, [r7, #6]	@ zero_extendqisi2
 271 0132 012B     		cmp	r3, #1
 272 0134 D4D9     		bls	.L17
 145:.\SirenState.c ****         }
 146:.\SirenState.c ****     }
 147:.\SirenState.c **** }
 273              		.loc 1 147 0 is_stmt 1
 274 0136 0837     		adds	r7, r7, #8
 275              		.cfi_def_cfa_offset 16
 276 0138 BD46     		mov	sp, r7
 277              		.cfi_def_cfa_register 13
 278              		@ sp needed
 279 013a B0BD     		pop	{r4, r5, r7, pc}
 280              	.L19:
 281              		.align	2
 282              	.L18:
 283 013c 00000000 		.word	DEFAULT_CONFIGURATION_LIST
 284 0140 00000000 		.word	toneConfigurationList
 285              		.cfi_endproc
 286              	.LFE63:
 287              		.size	initializeToneConfigurationList, .-initializeToneConfigurationList
 288              		.section	.text.enableToneInputInterrupts,"ax",%progbits
 289              		.align	2
 290              		.global	enableToneInputInterrupts
 291              		.thumb
 292              		.thumb_func
 293              		.type	enableToneInputInterrupts, %function
ARM GAS  C:\Users\faithc\AppData\Local\Temp\cc1EpcH5.s 			page 9


 294              	enableToneInputInterrupts:
 295              	.LFB64:
 148:.\SirenState.c **** 
 149:.\SirenState.c **** /*******************************************************************************
 150:.\SirenState.c **** * Function Name: enableToneInputInterrupts
 151:.\SirenState.c **** ********************************************************************************
 152:.\SirenState.c **** *
 153:.\SirenState.c **** * Summary:
 154:.\SirenState.c **** *   Enables the input interrupts that cannot be activated during Data Link
 155:.\SirenState.c **** *
 156:.\SirenState.c **** * Parameters:  
 157:.\SirenState.c **** *   None
 158:.\SirenState.c **** *
 159:.\SirenState.c **** * Return:
 160:.\SirenState.c **** *   None
 161:.\SirenState.c **** *
 162:.\SirenState.c **** *******************************************************************************/
 163:.\SirenState.c **** void enableToneInputInterrupts(void)
 164:.\SirenState.c **** {
 296              		.loc 1 164 0
 297              		.cfi_startproc
 298              		@ args = 0, pretend = 0, frame = 0
 299              		@ frame_needed = 1, uses_anonymous_args = 0
 300 0000 80B5     		push	{r7, lr}
 301              		.cfi_def_cfa_offset 8
 302              		.cfi_offset 7, -8
 303              		.cfi_offset 14, -4
 304 0002 00AF     		add	r7, sp, #0
 305              		.cfi_def_cfa_register 7
 165:.\SirenState.c ****     TackSwitchISR_Start();
 306              		.loc 1 165 0
 307 0004 FFF7FEFF 		bl	TackSwitchISR_Start
 166:.\SirenState.c ****     TackSwitchStatus_InterruptEnable();
 308              		.loc 1 166 0
 309 0008 FFF7FEFF 		bl	TackSwitchStatus_InterruptEnable
 167:.\SirenState.c ****     
 168:.\SirenState.c ****     DualDelayISR_Start();
 310              		.loc 1 168 0
 311 000c FFF7FEFF 		bl	DualDelayISR_Start
 169:.\SirenState.c ****     DualDelayStatus_InterruptEnable();
 312              		.loc 1 169 0
 313 0010 FFF7FEFF 		bl	DualDelayStatus_InterruptEnable
 170:.\SirenState.c ****     
 171:.\SirenState.c ****     ModeStatusISR_Start();
 314              		.loc 1 171 0
 315 0014 FFF7FEFF 		bl	ModeStatusISR_Start
 172:.\SirenState.c **** }
 316              		.loc 1 172 0
 317 0018 80BD     		pop	{r7, pc}
 318              		.cfi_endproc
 319              	.LFE64:
 320              		.size	enableToneInputInterrupts, .-enableToneInputInterrupts
 321 001a 00BF     		.section	.text.disableToneInputInterrupts,"ax",%progbits
 322              		.align	2
 323              		.global	disableToneInputInterrupts
 324              		.thumb
 325              		.thumb_func
ARM GAS  C:\Users\faithc\AppData\Local\Temp\cc1EpcH5.s 			page 10


 326              		.type	disableToneInputInterrupts, %function
 327              	disableToneInputInterrupts:
 328              	.LFB65:
 173:.\SirenState.c **** 
 174:.\SirenState.c **** /*******************************************************************************
 175:.\SirenState.c **** * Function Name: disableToneInputInterrupts
 176:.\SirenState.c **** ********************************************************************************
 177:.\SirenState.c **** *
 178:.\SirenState.c **** * Summary:
 179:.\SirenState.c **** *   Disables specific input interrupts that cannot be activated during Data Link
 180:.\SirenState.c **** *
 181:.\SirenState.c **** * Parameters:  
 182:.\SirenState.c **** *   None
 183:.\SirenState.c **** *
 184:.\SirenState.c **** * Return:
 185:.\SirenState.c **** *   None
 186:.\SirenState.c **** *
 187:.\SirenState.c **** *******************************************************************************/
 188:.\SirenState.c **** void disableToneInputInterrupts(void)
 189:.\SirenState.c **** {
 329              		.loc 1 189 0
 330              		.cfi_startproc
 331              		@ args = 0, pretend = 0, frame = 0
 332              		@ frame_needed = 1, uses_anonymous_args = 0
 333 0000 80B5     		push	{r7, lr}
 334              		.cfi_def_cfa_offset 8
 335              		.cfi_offset 7, -8
 336              		.cfi_offset 14, -4
 337 0002 00AF     		add	r7, sp, #0
 338              		.cfi_def_cfa_register 7
 190:.\SirenState.c ****     TackSwitchStatus_InterruptDisable();
 339              		.loc 1 190 0
 340 0004 FFF7FEFF 		bl	TackSwitchStatus_InterruptDisable
 191:.\SirenState.c ****     TackSwitchISR_Stop();
 341              		.loc 1 191 0
 342 0008 FFF7FEFF 		bl	TackSwitchISR_Stop
 192:.\SirenState.c ****     
 193:.\SirenState.c ****     DualDelayStatus_InterruptDisable();
 343              		.loc 1 193 0
 344 000c FFF7FEFF 		bl	DualDelayStatus_InterruptDisable
 194:.\SirenState.c ****     DualDelayISR_Stop();
 345              		.loc 1 194 0
 346 0010 FFF7FEFF 		bl	DualDelayISR_Stop
 195:.\SirenState.c ****     
 196:.\SirenState.c ****     ModeStatusISR_Stop();
 347              		.loc 1 196 0
 348 0014 FFF7FEFF 		bl	ModeStatusISR_Stop
 197:.\SirenState.c **** }
 349              		.loc 1 197 0
 350 0018 80BD     		pop	{r7, pc}
 351              		.cfi_endproc
 352              	.LFE65:
 353              		.size	disableToneInputInterrupts, .-disableToneInputInterrupts
 354 001a 00BF     		.section	.text.initializeInputReadings,"ax",%progbits
 355              		.align	2
 356              		.global	initializeInputReadings
 357              		.thumb
ARM GAS  C:\Users\faithc\AppData\Local\Temp\cc1EpcH5.s 			page 11


 358              		.thumb_func
 359              		.type	initializeInputReadings, %function
 360              	initializeInputReadings:
 361              	.LFB66:
 198:.\SirenState.c **** 
 199:.\SirenState.c **** /*******************************************************************************
 200:.\SirenState.c **** * Function Name: initializeInputReadings
 201:.\SirenState.c **** ********************************************************************************
 202:.\SirenState.c **** *
 203:.\SirenState.c **** * Summary:
 204:.\SirenState.c **** *  Sets InputRead struct to current input readings at the beginning of the program
 205:.\SirenState.c **** *
 206:.\SirenState.c **** * Parameters:  
 207:.\SirenState.c **** *   None
 208:.\SirenState.c **** *
 209:.\SirenState.c **** * Return:
 210:.\SirenState.c **** *   None
 211:.\SirenState.c **** *
 212:.\SirenState.c **** *******************************************************************************/
 213:.\SirenState.c **** void initializeInputReadings(void)
 214:.\SirenState.c **** {
 362              		.loc 1 214 0
 363              		.cfi_startproc
 364              		@ args = 0, pretend = 0, frame = 8
 365              		@ frame_needed = 1, uses_anonymous_args = 0
 366 0000 90B5     		push	{r4, r7, lr}
 367              		.cfi_def_cfa_offset 12
 368              		.cfi_offset 4, -12
 369              		.cfi_offset 7, -8
 370              		.cfi_offset 14, -4
 371 0002 83B0     		sub	sp, sp, #12
 372              		.cfi_def_cfa_offset 24
 373 0004 00AF     		add	r7, sp, #0
 374              		.cfi_def_cfa_register 7
 215:.\SirenState.c **** 	uint8 speakerIndex = 0;
 375              		.loc 1 215 0
 376 0006 0023     		movs	r3, #0
 377 0008 FB71     		strb	r3, [r7, #7]
 216:.\SirenState.c **** 	
 217:.\SirenState.c ****     InputRead.bRadioAndMicKey = RadioRebroadcastInput_Read();
 378              		.loc 1 217 0
 379 000a FFF7FEFF 		bl	RadioRebroadcastInput_Read
 380 000e 0346     		mov	r3, r0
 381 0010 1A46     		mov	r2, r3
 382 0012 1A4B     		ldr	r3, .L25
 383 0014 1A70     		strb	r2, [r3]
 218:.\SirenState.c ****     InputRead.bRadioAndMicKey |= MicKeyInput_Read();
 384              		.loc 1 218 0
 385 0016 FFF7FEFF 		bl	MicKeyInput_Read
 386 001a 0346     		mov	r3, r0
 387 001c 1A46     		mov	r2, r3
 388 001e 174B     		ldr	r3, .L25
 389 0020 1B78     		ldrb	r3, [r3]	@ zero_extendqisi2
 390 0022 1343     		orrs	r3, r3, r2
 391 0024 DAB2     		uxtb	r2, r3
 392 0026 154B     		ldr	r3, .L25
 393 0028 1A70     		strb	r2, [r3]
ARM GAS  C:\Users\faithc\AppData\Local\Temp\cc1EpcH5.s 			page 12


 219:.\SirenState.c ****     InputRead.bParkKill = ParkKillStatus_Read() & 0x01;
 394              		.loc 1 219 0
 395 002a FFF7FEFF 		bl	ParkKillStatus_Read
 396 002e 0346     		mov	r3, r0
 397 0030 03F00103 		and	r3, r3, #1
 398 0034 DAB2     		uxtb	r2, r3
 399 0036 114B     		ldr	r3, .L25
 400 0038 5A70     		strb	r2, [r3, #1]
 220:.\SirenState.c ****     InputRead.bHornRing = HornRingStatus_Read() & 0x01;
 401              		.loc 1 220 0
 402 003a FFF7FEFF 		bl	HornRingStatus_Read
 403 003e 0346     		mov	r3, r0
 404 0040 03F00103 		and	r3, r3, #1
 405 0044 DAB2     		uxtb	r2, r3
 406 0046 0D4B     		ldr	r3, .L25
 407 0048 DA70     		strb	r2, [r3, #3]
 221:.\SirenState.c **** 	
 222:.\SirenState.c **** 	for(speakerIndex = 0; speakerIndex < SPEAKER_COUNT; speakerIndex++)
 408              		.loc 1 222 0
 409 004a 0023     		movs	r3, #0
 410 004c FB71     		strb	r3, [r7, #7]
 411 004e 0CE0     		b	.L23
 412              	.L24:
 223:.\SirenState.c **** 		InputRead.highestPriorityChannel[speakerIndex] = getHighestPriorityChannel(speakerIndex);
 413              		.loc 1 223 0 discriminator 3
 414 0050 FC79     		ldrb	r4, [r7, #7]	@ zero_extendqisi2
 415 0052 FB79     		ldrb	r3, [r7, #7]	@ zero_extendqisi2
 416 0054 1846     		mov	r0, r3
 417 0056 FFF7FEFF 		bl	getHighestPriorityChannel
 418 005a 0346     		mov	r3, r0
 419 005c 1A46     		mov	r2, r3
 420 005e 074B     		ldr	r3, .L25
 421 0060 2344     		add	r3, r3, r4
 422 0062 5A71     		strb	r2, [r3, #5]
 222:.\SirenState.c **** 		InputRead.highestPriorityChannel[speakerIndex] = getHighestPriorityChannel(speakerIndex);
 423              		.loc 1 222 0 discriminator 3
 424 0064 FB79     		ldrb	r3, [r7, #7]	@ zero_extendqisi2
 425 0066 0133     		adds	r3, r3, #1
 426 0068 FB71     		strb	r3, [r7, #7]
 427              	.L23:
 222:.\SirenState.c **** 		InputRead.highestPriorityChannel[speakerIndex] = getHighestPriorityChannel(speakerIndex);
 428              		.loc 1 222 0 is_stmt 0 discriminator 1
 429 006a FB79     		ldrb	r3, [r7, #7]	@ zero_extendqisi2
 430 006c 012B     		cmp	r3, #1
 431 006e EFD9     		bls	.L24
 224:.\SirenState.c ****     
 225:.\SirenState.c ****     decideTonesToPlay();
 432              		.loc 1 225 0 is_stmt 1
 433 0070 FFF7FEFF 		bl	decideTonesToPlay
 226:.\SirenState.c **** }
 434              		.loc 1 226 0
 435 0074 0C37     		adds	r7, r7, #12
 436              		.cfi_def_cfa_offset 12
 437 0076 BD46     		mov	sp, r7
 438              		.cfi_def_cfa_register 13
 439              		@ sp needed
 440 0078 90BD     		pop	{r4, r7, pc}
ARM GAS  C:\Users\faithc\AppData\Local\Temp\cc1EpcH5.s 			page 13


 441              	.L26:
 442 007a 00BF     		.align	2
 443              	.L25:
 444 007c 0C000000 		.word	InputRead
 445              		.cfi_endproc
 446              	.LFE66:
 447              		.size	initializeInputReadings, .-initializeInputReadings
 448              		.section	.text.processTackSwitchRoutine,"ax",%progbits
 449              		.align	2
 450              		.global	processTackSwitchRoutine
 451              		.thumb
 452              		.thumb_func
 453              		.type	processTackSwitchRoutine, %function
 454              	processTackSwitchRoutine:
 455              	.LFB67:
 227:.\SirenState.c **** 
 228:.\SirenState.c **** /*******************************************************************************
 229:.\SirenState.c **** * Function Name: processTackSwitchRoutine
 230:.\SirenState.c **** ********************************************************************************
 231:.\SirenState.c **** *
 232:.\SirenState.c **** * Summary:
 233:.\SirenState.c **** *  Cycles through the tones and configures the tone selection for the specified
 234:.\SirenState.c **** *  input, called in TackSwitchISR
 235:.\SirenState.c **** *
 236:.\SirenState.c **** * Parameters:  
 237:.\SirenState.c **** *   None
 238:.\SirenState.c **** *
 239:.\SirenState.c **** * Return:
 240:.\SirenState.c **** *   None
 241:.\SirenState.c **** *
 242:.\SirenState.c **** *******************************************************************************/
 243:.\SirenState.c **** void processTackSwitchRoutine(void)
 244:.\SirenState.c **** {
 456              		.loc 1 244 0
 457              		.cfi_startproc
 458              		@ args = 0, pretend = 0, frame = 8
 459              		@ frame_needed = 1, uses_anonymous_args = 0
 460 0000 80B5     		push	{r7, lr}
 461              		.cfi_def_cfa_offset 8
 462              		.cfi_offset 7, -8
 463              		.cfi_offset 14, -4
 464 0002 82B0     		sub	sp, sp, #8
 465              		.cfi_def_cfa_offset 16
 466 0004 00AF     		add	r7, sp, #0
 467              		.cfi_def_cfa_register 7
 245:.\SirenState.c ****     enum ToneType toneToPlay = NO_TONE;
 468              		.loc 1 245 0
 469 0006 0023     		movs	r3, #0
 470 0008 FB71     		strb	r3, [r7, #7]
 246:.\SirenState.c ****     uint16 addressIndex = 0;
 471              		.loc 1 246 0
 472 000a 0023     		movs	r3, #0
 473 000c BB80     		strh	r3, [r7, #4]	@ movhi
 247:.\SirenState.c ****     uint8 channelIndex = 0;
 474              		.loc 1 247 0
 475 000e 0023     		movs	r3, #0
 476 0010 FB70     		strb	r3, [r7, #3]
ARM GAS  C:\Users\faithc\AppData\Local\Temp\cc1EpcH5.s 			page 14


 248:.\SirenState.c ****     uint8 bSpeakerIndex = 0;
 477              		.loc 1 248 0
 478 0012 0023     		movs	r3, #0
 479 0014 BB71     		strb	r3, [r7, #6]
 249:.\SirenState.c ****     
 250:.\SirenState.c ****     InputRead.bTackSwitch = TackSwitchStatus_Read() & 0x01;
 480              		.loc 1 250 0
 481 0016 FFF7FEFF 		bl	TackSwitchStatus_Read
 482 001a 0346     		mov	r3, r0
 483 001c 03F00103 		and	r3, r3, #1
 484 0020 DAB2     		uxtb	r2, r3
 485 0022 3D4B     		ldr	r3, .L34
 486 0024 9A70     		strb	r2, [r3, #2]
 251:.\SirenState.c ****     
 252:.\SirenState.c ****     if((!InputRead.bRadioAndMicKey) && (!InputRead.bParkKill))
 487              		.loc 1 252 0
 488 0026 3C4B     		ldr	r3, .L34
 489 0028 1B78     		ldrb	r3, [r3]	@ zero_extendqisi2
 490 002a 002B     		cmp	r3, #0
 491 002c 70D1     		bne	.L27
 492              		.loc 1 252 0 is_stmt 0 discriminator 1
 493 002e 3A4B     		ldr	r3, .L34
 494 0030 5B78     		ldrb	r3, [r3, #1]	@ zero_extendqisi2
 495 0032 002B     		cmp	r3, #0
 496 0034 6CD1     		bne	.L27
 253:.\SirenState.c ****     {
 254:.\SirenState.c ****         if(InputRead.bTackSwitch)
 497              		.loc 1 254 0 is_stmt 1
 498 0036 384B     		ldr	r3, .L34
 499 0038 9B78     		ldrb	r3, [r3, #2]	@ zero_extendqisi2
 500 003a 002B     		cmp	r3, #0
 501 003c 06D0     		beq	.L29
 255:.\SirenState.c ****         {
 256:.\SirenState.c ****             deactivateManualWail();
 502              		.loc 1 256 0
 503 003e FFF7FEFF 		bl	deactivateManualWail
 257:.\SirenState.c **** 	        deactivateAudio();
 504              		.loc 1 257 0
 505 0042 FFF7FEFF 		bl	deactivateAudio
 258:.\SirenState.c **** 			disableAudioAndPWM();
 506              		.loc 1 258 0
 507 0046 FFF7FEFF 		bl	disableAudioAndPWM
 508 004a 61E0     		b	.L27
 509              	.L29:
 259:.\SirenState.c ****         }
 260:.\SirenState.c ****         else
 261:.\SirenState.c ****         {   //Tack switch is disabled
 262:.\SirenState.c ****             EEPROM_UpdateTemperature(); //Optimizes write timings based on temperature reading
 510              		.loc 1 262 0
 511 004c FFF7FEFF 		bl	EEPROM_UpdateTemperature
 263:.\SirenState.c ****             
 264:.\SirenState.c ****             for(bSpeakerIndex = 0; bSpeakerIndex < SPEAKER_COUNT; bSpeakerIndex++)
 512              		.loc 1 264 0
 513 0050 0023     		movs	r3, #0
 514 0052 BB71     		strb	r3, [r7, #6]
 515 0054 57E0     		b	.L30
 516              	.L33:
ARM GAS  C:\Users\faithc\AppData\Local\Temp\cc1EpcH5.s 			page 15


 265:.\SirenState.c ****             {   //Speaker 1 addresses range 0x00 to 0x05, Speaker 2 addresses range 0x06 to 0x0B 
 266:.\SirenState.c ****                 channelIndex = InputRead.highestPriorityChannel[bSpeakerIndex];
 517              		.loc 1 266 0
 518 0056 BB79     		ldrb	r3, [r7, #6]	@ zero_extendqisi2
 519 0058 2F4A     		ldr	r2, .L34
 520 005a 1344     		add	r3, r3, r2
 521 005c 5B79     		ldrb	r3, [r3, #5]
 522 005e FB70     		strb	r3, [r7, #3]
 267:.\SirenState.c ****                 addressIndex = (uint16)(CHANNEL_COUNT_PER_SPEAKER * bSpeakerIndex + channelIndex);
 523              		.loc 1 267 0
 524 0060 BB79     		ldrb	r3, [r7, #6]	@ zero_extendqisi2
 525 0062 9BB2     		uxth	r3, r3
 526 0064 1A46     		mov	r2, r3	@ movhi
 527 0066 5200     		lsls	r2, r2, #1
 528 0068 1344     		add	r3, r3, r2
 529 006a 5B00     		lsls	r3, r3, #1
 530 006c 9AB2     		uxth	r2, r3
 531 006e FB78     		ldrb	r3, [r7, #3]	@ zero_extendqisi2
 532 0070 9BB2     		uxth	r3, r3
 533 0072 1344     		add	r3, r3, r2
 534 0074 BB80     		strh	r3, [r7, #4]	@ movhi
 268:.\SirenState.c ****                 
 269:.\SirenState.c ****                 if(channelIndex != NO_CHANNEL)
 535              		.loc 1 269 0
 536 0076 FB78     		ldrb	r3, [r7, #3]	@ zero_extendqisi2
 537 0078 FF2B     		cmp	r3, #255
 538 007a 41D0     		beq	.L31
 270:.\SirenState.c ****                 {
 271:.\SirenState.c ****                     if(toneToPlay == NO_TONE)
 539              		.loc 1 271 0
 540 007c FB79     		ldrb	r3, [r7, #7]	@ zero_extendqisi2
 541 007e 002B     		cmp	r3, #0
 542 0080 1CD1     		bne	.L32
 272:.\SirenState.c ****                     {   //Gets original tone for that channel as starting tone in the list         
 273:.\SirenState.c ****                         toneToPlay = EEPROM_ReadByte(addressIndex);    
 543              		.loc 1 273 0
 544 0082 BB88     		ldrh	r3, [r7, #4]
 545 0084 1846     		mov	r0, r3
 546 0086 FFF7FEFF 		bl	EEPROM_ReadByte
 547 008a 0346     		mov	r3, r0
 548 008c FB71     		strb	r3, [r7, #7]
 274:.\SirenState.c ****                         toneToPlay = (toneToPlay + 1) % TONE_TYPE_LIST_SIZE;  //Increments to next 
 549              		.loc 1 274 0
 550 008e FB79     		ldrb	r3, [r7, #7]	@ zero_extendqisi2
 551 0090 5A1C     		adds	r2, r3, #1
 552 0092 224B     		ldr	r3, .L34+4
 553 0094 82FB0301 		smull	r0, r1, r2, r3
 554 0098 5318     		adds	r3, r2, r1
 555 009a 1911     		asrs	r1, r3, #4
 556 009c D317     		asrs	r3, r2, #31
 557 009e C91A     		subs	r1, r1, r3
 558 00a0 0B46     		mov	r3, r1
 559 00a2 5B00     		lsls	r3, r3, #1
 560 00a4 0B44     		add	r3, r3, r1
 561 00a6 DB00     		lsls	r3, r3, #3
 562 00a8 5B1A     		subs	r3, r3, r1
 563 00aa D11A     		subs	r1, r2, r3
ARM GAS  C:\Users\faithc\AppData\Local\Temp\cc1EpcH5.s 			page 16


 564 00ac 0B46     		mov	r3, r1
 565 00ae FB71     		strb	r3, [r7, #7]
 275:.\SirenState.c ****                         
 276:.\SirenState.c ****                         if(toneToPlay == NO_TONE)
 566              		.loc 1 276 0
 567 00b0 FB79     		ldrb	r3, [r7, #7]	@ zero_extendqisi2
 568 00b2 002B     		cmp	r3, #0
 569 00b4 02D1     		bne	.L32
 277:.\SirenState.c ****                             toneToPlay++;  //Makes sure a tone is always selected
 570              		.loc 1 277 0
 571 00b6 FB79     		ldrb	r3, [r7, #7]	@ zero_extendqisi2
 572 00b8 0133     		adds	r3, r3, #1
 573 00ba FB71     		strb	r3, [r7, #7]
 574              	.L32:
 278:.\SirenState.c ****                     }
 279:.\SirenState.c ****                     
 280:.\SirenState.c ****                     EEPROM_WriteByte(toneToPlay, addressIndex);
 575              		.loc 1 280 0
 576 00bc FA79     		ldrb	r2, [r7, #7]	@ zero_extendqisi2
 577 00be BB88     		ldrh	r3, [r7, #4]
 578 00c0 1046     		mov	r0, r2
 579 00c2 1946     		mov	r1, r3
 580 00c4 FFF7FEFF 		bl	EEPROM_WriteByte
 281:.\SirenState.c **** 					toneConfigurationList[bSpeakerIndex][channelIndex] = toneToPlay;
 581              		.loc 1 281 0
 582 00c8 BA79     		ldrb	r2, [r7, #6]	@ zero_extendqisi2
 583 00ca F978     		ldrb	r1, [r7, #3]	@ zero_extendqisi2
 584 00cc 1448     		ldr	r0, .L34+8
 585 00ce 1346     		mov	r3, r2
 586 00d0 5B00     		lsls	r3, r3, #1
 587 00d2 1344     		add	r3, r3, r2
 588 00d4 5B00     		lsls	r3, r3, #1
 589 00d6 0B44     		add	r3, r3, r1
 590 00d8 0344     		add	r3, r3, r0
 591 00da FA79     		ldrb	r2, [r7, #7]
 592 00dc 1A70     		strb	r2, [r3]
 282:.\SirenState.c **** 					ToneStatus.previousTone[bSpeakerIndex] = ToneStatus.currentTone[bSpeakerIndex];
 593              		.loc 1 282 0
 594 00de BB79     		ldrb	r3, [r7, #6]	@ zero_extendqisi2
 595 00e0 BA79     		ldrb	r2, [r7, #6]	@ zero_extendqisi2
 596 00e2 1049     		ldr	r1, .L34+12
 597 00e4 0A44     		add	r2, r2, r1
 598 00e6 9178     		ldrb	r1, [r2, #2]	@ zero_extendqisi2
 599 00e8 0E4A     		ldr	r2, .L34+12
 600 00ea D154     		strb	r1, [r2, r3]
 283:.\SirenState.c **** 					ToneStatus.currentTone[bSpeakerIndex] = toneToPlay;
 601              		.loc 1 283 0
 602 00ec BB79     		ldrb	r3, [r7, #6]	@ zero_extendqisi2
 603 00ee 0D4A     		ldr	r2, .L34+12
 604 00f0 1344     		add	r3, r3, r2
 605 00f2 FA79     		ldrb	r2, [r7, #7]
 606 00f4 9A70     		strb	r2, [r3, #2]
 284:.\SirenState.c **** 					ToneStatus.bRisingEdge[bSpeakerIndex] = true;
 607              		.loc 1 284 0
 608 00f6 BB79     		ldrb	r3, [r7, #6]	@ zero_extendqisi2
 609 00f8 0A4A     		ldr	r2, .L34+12
 610 00fa 1344     		add	r3, r3, r2
ARM GAS  C:\Users\faithc\AppData\Local\Temp\cc1EpcH5.s 			page 17


 611 00fc 0122     		movs	r2, #1
 612 00fe 1A71     		strb	r2, [r3, #4]
 613              	.L31:
 264:.\SirenState.c ****             {   //Speaker 1 addresses range 0x00 to 0x05, Speaker 2 addresses range 0x06 to 0x0B 
 614              		.loc 1 264 0 discriminator 2
 615 0100 BB79     		ldrb	r3, [r7, #6]	@ zero_extendqisi2
 616 0102 0133     		adds	r3, r3, #1
 617 0104 BB71     		strb	r3, [r7, #6]
 618              	.L30:
 264:.\SirenState.c ****             {   //Speaker 1 addresses range 0x00 to 0x05, Speaker 2 addresses range 0x06 to 0x0B 
 619              		.loc 1 264 0 is_stmt 0 discriminator 1
 620 0106 BB79     		ldrb	r3, [r7, #6]	@ zero_extendqisi2
 621 0108 012B     		cmp	r3, #1
 622 010a A4D9     		bls	.L33
 285:.\SirenState.c ****                 }
 286:.\SirenState.c ****             }
 287:.\SirenState.c ****             
 288:.\SirenState.c ****             decideTonesToPlay();  
 623              		.loc 1 288 0 is_stmt 1
 624 010c FFF7FEFF 		bl	decideTonesToPlay
 625              	.L27:
 289:.\SirenState.c ****         }
 290:.\SirenState.c ****     }
 291:.\SirenState.c **** }
 626              		.loc 1 291 0
 627 0110 0837     		adds	r7, r7, #8
 628              		.cfi_def_cfa_offset 8
 629 0112 BD46     		mov	sp, r7
 630              		.cfi_def_cfa_register 13
 631              		@ sp needed
 632 0114 80BD     		pop	{r7, pc}
 633              	.L35:
 634 0116 00BF     		.align	2
 635              	.L34:
 636 0118 0C000000 		.word	InputRead
 637 011c C94216B2 		.word	-1307163959
 638 0120 00000000 		.word	toneConfigurationList
 639 0124 14000000 		.word	ToneStatus
 640              		.cfi_endproc
 641              	.LFE67:
 642              		.size	processTackSwitchRoutine, .-processTackSwitchRoutine
 643              		.section	.text.processRadioMicKeyRoutine,"ax",%progbits
 644              		.align	2
 645              		.global	processRadioMicKeyRoutine
 646              		.thumb
 647              		.thumb_func
 648              		.type	processRadioMicKeyRoutine, %function
 649              	processRadioMicKeyRoutine:
 650              	.LFB68:
 292:.\SirenState.c **** 
 293:.\SirenState.c **** /*******************************************************************************
 294:.\SirenState.c **** * Function Name: processRadioMicKeyRoutine
 295:.\SirenState.c **** ********************************************************************************
 296:.\SirenState.c **** *
 297:.\SirenState.c **** * Summary:
 298:.\SirenState.c **** *  Updates the siren system for the radio rebroadcast or mic key input change,
 299:.\SirenState.c **** *  called in RadioMicKeyISR
ARM GAS  C:\Users\faithc\AppData\Local\Temp\cc1EpcH5.s 			page 18


 300:.\SirenState.c **** *
 301:.\SirenState.c **** * Parameters:  
 302:.\SirenState.c **** *   None
 303:.\SirenState.c **** *
 304:.\SirenState.c **** * Return:
 305:.\SirenState.c **** *   None
 306:.\SirenState.c **** *
 307:.\SirenState.c **** *******************************************************************************/
 308:.\SirenState.c **** void processRadioMicKeyRoutine(void)
 309:.\SirenState.c **** {
 651              		.loc 1 309 0
 652              		.cfi_startproc
 653              		@ args = 0, pretend = 0, frame = 8
 654              		@ frame_needed = 1, uses_anonymous_args = 0
 655 0000 80B5     		push	{r7, lr}
 656              		.cfi_def_cfa_offset 8
 657              		.cfi_offset 7, -8
 658              		.cfi_offset 14, -4
 659 0002 82B0     		sub	sp, sp, #8
 660              		.cfi_def_cfa_offset 16
 661 0004 00AF     		add	r7, sp, #0
 662              		.cfi_def_cfa_register 7
 310:.\SirenState.c **** 	uint8 speakerIndex = 0;
 663              		.loc 1 310 0
 664 0006 0023     		movs	r3, #0
 665 0008 FB71     		strb	r3, [r7, #7]
 311:.\SirenState.c **** 	
 312:.\SirenState.c ****     InputRead.bRadioAndMicKey = RadioRebroadcastInput_Read() ||  MicKeyInput_Read();
 666              		.loc 1 312 0
 667 000a FFF7FEFF 		bl	RadioRebroadcastInput_Read
 668 000e 0346     		mov	r3, r0
 669 0010 002B     		cmp	r3, #0
 670 0012 04D1     		bne	.L37
 671              		.loc 1 312 0 is_stmt 0 discriminator 2
 672 0014 FFF7FEFF 		bl	MicKeyInput_Read
 673 0018 0346     		mov	r3, r0
 674 001a 002B     		cmp	r3, #0
 675 001c 01D0     		beq	.L38
 676              	.L37:
 677              		.loc 1 312 0 discriminator 3
 678 001e 0123     		movs	r3, #1
 679 0020 00E0     		b	.L39
 680              	.L38:
 681              		.loc 1 312 0 discriminator 4
 682 0022 0023     		movs	r3, #0
 683              	.L39:
 684              		.loc 1 312 0 discriminator 6
 685 0024 DAB2     		uxtb	r2, r3
 686 0026 164B     		ldr	r3, .L44
 687 0028 1A70     		strb	r2, [r3]
 313:.\SirenState.c ****     
 314:.\SirenState.c ****     if(InputRead.bRadioAndMicKey)
 688              		.loc 1 314 0 is_stmt 1 discriminator 6
 689 002a 154B     		ldr	r3, .L44
 690 002c 1B78     		ldrb	r3, [r3]	@ zero_extendqisi2
 691 002e 002B     		cmp	r3, #0
 692 0030 20D0     		beq	.L40
ARM GAS  C:\Users\faithc\AppData\Local\Temp\cc1EpcH5.s 			page 19


 315:.\SirenState.c ****     {
 316:.\SirenState.c **** 		deactivateManualWail(); //Deactivate tones and leave one power amp on
 693              		.loc 1 316 0
 694 0032 FFF7FEFF 		bl	deactivateManualWail
 317:.\SirenState.c ****         deactivateAudio();
 695              		.loc 1 317 0
 696 0036 FFF7FEFF 		bl	deactivateAudio
 318:.\SirenState.c **** 		PowerAmpOutput1_Write(true);
 697              		.loc 1 318 0
 698 003a 0120     		movs	r0, #1
 699 003c FFF7FEFF 		bl	PowerAmpOutput1_Write
 319:.\SirenState.c ****         PowerAmpOutput2_Write(false);
 700              		.loc 1 319 0
 701 0040 0020     		movs	r0, #0
 702 0042 FFF7FEFF 		bl	PowerAmpOutput2_Write
 320:.\SirenState.c **** 		
 321:.\SirenState.c **** 		for(speakerIndex = 0; speakerIndex < SPEAKER_COUNT; speakerIndex++)
 703              		.loc 1 321 0
 704 0046 0023     		movs	r3, #0
 705 0048 FB71     		strb	r3, [r7, #7]
 706 004a 0FE0     		b	.L41
 707              	.L42:
 322:.\SirenState.c **** 		{
 323:.\SirenState.c **** 			stopPWMTone(speakerIndex);
 708              		.loc 1 323 0 discriminator 3
 709 004c FB79     		ldrb	r3, [r7, #7]	@ zero_extendqisi2
 710 004e 1846     		mov	r0, r3
 711 0050 FFF7FEFF 		bl	stopPWMTone
 324:.\SirenState.c **** 			stopAudioTone(speakerIndex);
 712              		.loc 1 324 0 discriminator 3
 713 0054 FB79     		ldrb	r3, [r7, #7]	@ zero_extendqisi2
 714 0056 1846     		mov	r0, r3
 715 0058 FFF7FEFF 		bl	stopAudioTone
 325:.\SirenState.c ****             ToneStatus.bRisingEdge[speakerIndex] = false;
 716              		.loc 1 325 0 discriminator 3
 717 005c FB79     		ldrb	r3, [r7, #7]	@ zero_extendqisi2
 718 005e 094A     		ldr	r2, .L44+4
 719 0060 1344     		add	r3, r3, r2
 720 0062 0022     		movs	r2, #0
 721 0064 1A71     		strb	r2, [r3, #4]
 321:.\SirenState.c **** 		{
 722              		.loc 1 321 0 discriminator 3
 723 0066 FB79     		ldrb	r3, [r7, #7]	@ zero_extendqisi2
 724 0068 0133     		adds	r3, r3, #1
 725 006a FB71     		strb	r3, [r7, #7]
 726              	.L41:
 321:.\SirenState.c **** 		{
 727              		.loc 1 321 0 is_stmt 0 discriminator 1
 728 006c FB79     		ldrb	r3, [r7, #7]	@ zero_extendqisi2
 729 006e 012B     		cmp	r3, #1
 730 0070 ECD9     		bls	.L42
 731 0072 01E0     		b	.L36
 732              	.L40:
 326:.\SirenState.c **** 		}
 327:.\SirenState.c ****     }
 328:.\SirenState.c **** 	else
 329:.\SirenState.c **** 		decideTonesToPlay();
ARM GAS  C:\Users\faithc\AppData\Local\Temp\cc1EpcH5.s 			page 20


 733              		.loc 1 329 0 is_stmt 1
 734 0074 FFF7FEFF 		bl	decideTonesToPlay
 735              	.L36:
 330:.\SirenState.c **** }
 736              		.loc 1 330 0
 737 0078 0837     		adds	r7, r7, #8
 738              		.cfi_def_cfa_offset 8
 739 007a BD46     		mov	sp, r7
 740              		.cfi_def_cfa_register 13
 741              		@ sp needed
 742 007c 80BD     		pop	{r7, pc}
 743              	.L45:
 744 007e 00BF     		.align	2
 745              	.L44:
 746 0080 0C000000 		.word	InputRead
 747 0084 14000000 		.word	ToneStatus
 748              		.cfi_endproc
 749              	.LFE68:
 750              		.size	processRadioMicKeyRoutine, .-processRadioMicKeyRoutine
 751              		.section	.text.processParkKillRoutine,"ax",%progbits
 752              		.align	2
 753              		.global	processParkKillRoutine
 754              		.thumb
 755              		.thumb_func
 756              		.type	processParkKillRoutine, %function
 757              	processParkKillRoutine:
 758              	.LFB69:
 331:.\SirenState.c **** 
 332:.\SirenState.c **** /*******************************************************************************
 333:.\SirenState.c **** * Function Name: processParkKillRoutine
 334:.\SirenState.c **** ********************************************************************************
 335:.\SirenState.c **** *
 336:.\SirenState.c **** * Summary:
 337:.\SirenState.c **** *  Updates the siren system for the park kill input change, called in ParkKillISR
 338:.\SirenState.c **** *
 339:.\SirenState.c **** * Parameters:  
 340:.\SirenState.c **** *   None
 341:.\SirenState.c **** *
 342:.\SirenState.c **** * Return:
 343:.\SirenState.c **** *   None
 344:.\SirenState.c **** *
 345:.\SirenState.c **** *******************************************************************************/
 346:.\SirenState.c **** void processParkKillRoutine(void)
 347:.\SirenState.c **** {
 759              		.loc 1 347 0
 760              		.cfi_startproc
 761              		@ args = 0, pretend = 0, frame = 0
 762              		@ frame_needed = 1, uses_anonymous_args = 0
 763 0000 80B5     		push	{r7, lr}
 764              		.cfi_def_cfa_offset 8
 765              		.cfi_offset 7, -8
 766              		.cfi_offset 14, -4
 767 0002 00AF     		add	r7, sp, #0
 768              		.cfi_def_cfa_register 7
 348:.\SirenState.c ****     InputRead.bParkKill = ParkKillStatus_Read() & 0x01;    
 769              		.loc 1 348 0
 770 0004 FFF7FEFF 		bl	ParkKillStatus_Read
ARM GAS  C:\Users\faithc\AppData\Local\Temp\cc1EpcH5.s 			page 21


 771 0008 0346     		mov	r3, r0
 772 000a 03F00103 		and	r3, r3, #1
 773 000e DAB2     		uxtb	r2, r3
 774 0010 024B     		ldr	r3, .L47
 775 0012 5A70     		strb	r2, [r3, #1]
 349:.\SirenState.c ****     decideTonesToPlay();
 776              		.loc 1 349 0
 777 0014 FFF7FEFF 		bl	decideTonesToPlay
 350:.\SirenState.c **** }
 778              		.loc 1 350 0
 779 0018 80BD     		pop	{r7, pc}
 780              	.L48:
 781 001a 00BF     		.align	2
 782              	.L47:
 783 001c 0C000000 		.word	InputRead
 784              		.cfi_endproc
 785              	.LFE69:
 786              		.size	processParkKillRoutine, .-processParkKillRoutine
 787              		.section	.text.processHornRingRoutine,"ax",%progbits
 788              		.align	2
 789              		.global	processHornRingRoutine
 790              		.thumb
 791              		.thumb_func
 792              		.type	processHornRingRoutine, %function
 793              	processHornRingRoutine:
 794              	.LFB70:
 351:.\SirenState.c **** 
 352:.\SirenState.c **** /*******************************************************************************
 353:.\SirenState.c **** * Function Name: processHornRingRoutine
 354:.\SirenState.c **** ********************************************************************************
 355:.\SirenState.c **** *
 356:.\SirenState.c **** * Summary:
 357:.\SirenState.c **** *  Updates the siren system for the horn input change, called in HornRingISR
 358:.\SirenState.c **** *
 359:.\SirenState.c **** * Parameters:  
 360:.\SirenState.c **** *   None
 361:.\SirenState.c **** *
 362:.\SirenState.c **** * Return:
 363:.\SirenState.c **** *   None
 364:.\SirenState.c **** *
 365:.\SirenState.c **** *******************************************************************************/
 366:.\SirenState.c **** void processHornRingRoutine(void)
 367:.\SirenState.c **** {
 795              		.loc 1 367 0
 796              		.cfi_startproc
 797              		@ args = 0, pretend = 0, frame = 0
 798              		@ frame_needed = 1, uses_anonymous_args = 0
 799 0000 80B5     		push	{r7, lr}
 800              		.cfi_def_cfa_offset 8
 801              		.cfi_offset 7, -8
 802              		.cfi_offset 14, -4
 803 0002 00AF     		add	r7, sp, #0
 804              		.cfi_def_cfa_register 7
 368:.\SirenState.c ****     InputRead.bHornRing = HornRingStatus_Read() & 0x01;
 805              		.loc 1 368 0
 806 0004 FFF7FEFF 		bl	HornRingStatus_Read
 807 0008 0346     		mov	r3, r0
ARM GAS  C:\Users\faithc\AppData\Local\Temp\cc1EpcH5.s 			page 22


 808 000a 03F00103 		and	r3, r3, #1
 809 000e DAB2     		uxtb	r2, r3
 810 0010 024B     		ldr	r3, .L50
 811 0012 DA70     		strb	r2, [r3, #3]
 369:.\SirenState.c ****     decideTonesToPlay();
 812              		.loc 1 369 0
 813 0014 FFF7FEFF 		bl	decideTonesToPlay
 370:.\SirenState.c **** }
 814              		.loc 1 370 0
 815 0018 80BD     		pop	{r7, pc}
 816              	.L51:
 817 001a 00BF     		.align	2
 818              	.L50:
 819 001c 0C000000 		.word	InputRead
 820              		.cfi_endproc
 821              	.LFE70:
 822              		.size	processHornRingRoutine, .-processHornRingRoutine
 823              		.section	.text.processDualDelayRoutine,"ax",%progbits
 824              		.align	2
 825              		.global	processDualDelayRoutine
 826              		.thumb
 827              		.thumb_func
 828              		.type	processDualDelayRoutine, %function
 829              	processDualDelayRoutine:
 830              	.LFB71:
 371:.\SirenState.c **** 
 372:.\SirenState.c **** /*******************************************************************************
 373:.\SirenState.c **** * Function Name: processDualDelayRoutine
 374:.\SirenState.c **** ********************************************************************************
 375:.\SirenState.c **** *
 376:.\SirenState.c **** * Summary:
 377:.\SirenState.c **** *  Activates delay functionality for the two current tones, called in DualDelayISR
 378:.\SirenState.c **** *
 379:.\SirenState.c **** * Parameters:  
 380:.\SirenState.c **** *   None
 381:.\SirenState.c **** *
 382:.\SirenState.c **** * Return:
 383:.\SirenState.c **** *   None
 384:.\SirenState.c **** *
 385:.\SirenState.c **** *******************************************************************************/
 386:.\SirenState.c **** void processDualDelayRoutine(void)
 387:.\SirenState.c **** {
 831              		.loc 1 387 0
 832              		.cfi_startproc
 833              		@ args = 0, pretend = 0, frame = 0
 834              		@ frame_needed = 1, uses_anonymous_args = 0
 835 0000 80B5     		push	{r7, lr}
 836              		.cfi_def_cfa_offset 8
 837              		.cfi_offset 7, -8
 838              		.cfi_offset 14, -4
 839 0002 00AF     		add	r7, sp, #0
 840              		.cfi_def_cfa_register 7
 388:.\SirenState.c ****     InputRead.bDualDelay = DualDelayStatus_Read() & 0x01;
 841              		.loc 1 388 0
 842 0004 FFF7FEFF 		bl	DualDelayStatus_Read
 843 0008 0346     		mov	r3, r0
 844 000a 03F00103 		and	r3, r3, #1
ARM GAS  C:\Users\faithc\AppData\Local\Temp\cc1EpcH5.s 			page 23


 845 000e DAB2     		uxtb	r2, r3
 846 0010 044B     		ldr	r3, .L53
 847 0012 1A71     		strb	r2, [r3, #4]
 389:.\SirenState.c ****     ToneStatus.bDualDelayEnable = InputRead.bDualDelay;
 848              		.loc 1 389 0
 849 0014 034B     		ldr	r3, .L53
 850 0016 1A79     		ldrb	r2, [r3, #4]	@ zero_extendqisi2
 851 0018 034B     		ldr	r3, .L53+4
 852 001a 9A71     		strb	r2, [r3, #6]
 390:.\SirenState.c ****     decideTonesToPlay();
 853              		.loc 1 390 0
 854 001c FFF7FEFF 		bl	decideTonesToPlay
 391:.\SirenState.c **** }
 855              		.loc 1 391 0
 856 0020 80BD     		pop	{r7, pc}
 857              	.L54:
 858 0022 00BF     		.align	2
 859              	.L53:
 860 0024 0C000000 		.word	InputRead
 861 0028 14000000 		.word	ToneStatus
 862              		.cfi_endproc
 863              	.LFE71:
 864              		.size	processDualDelayRoutine, .-processDualDelayRoutine
 865              		.section	.text.processToneChangeRoutine,"ax",%progbits
 866              		.align	2
 867              		.global	processToneChangeRoutine
 868              		.thumb
 869              		.thumb_func
 870              		.type	processToneChangeRoutine, %function
 871              	processToneChangeRoutine:
 872              	.LFB72:
 392:.\SirenState.c **** 
 393:.\SirenState.c **** /*******************************************************************************
 394:.\SirenState.c **** * Function Name: processToneChangeRoutine
 395:.\SirenState.c **** ********************************************************************************
 396:.\SirenState.c **** *
 397:.\SirenState.c **** * Summary:
 398:.\SirenState.c **** *  Updates the siren system for the tone input change, called in ModeStatusISR
 399:.\SirenState.c **** *
 400:.\SirenState.c **** * Parameters:  
 401:.\SirenState.c **** *   None
 402:.\SirenState.c **** *
 403:.\SirenState.c **** * Return:
 404:.\SirenState.c **** *   None
 405:.\SirenState.c **** *
 406:.\SirenState.c **** *******************************************************************************/
 407:.\SirenState.c **** void processToneChangeRoutine(void)
 408:.\SirenState.c **** {  
 873              		.loc 1 408 0
 874              		.cfi_startproc
 875              		@ args = 0, pretend = 0, frame = 16
 876              		@ frame_needed = 1, uses_anonymous_args = 0
 877 0000 90B5     		push	{r4, r7, lr}
 878              		.cfi_def_cfa_offset 12
 879              		.cfi_offset 4, -12
 880              		.cfi_offset 7, -8
 881              		.cfi_offset 14, -4
ARM GAS  C:\Users\faithc\AppData\Local\Temp\cc1EpcH5.s 			page 24


 882 0002 85B0     		sub	sp, sp, #20
 883              		.cfi_def_cfa_offset 32
 884 0004 00AF     		add	r7, sp, #0
 885              		.cfi_def_cfa_register 7
 409:.\SirenState.c ****     static uint8 previousChannels[SPEAKER_COUNT];
 410:.\SirenState.c ****     uint8 currentChannels[SPEAKER_COUNT];
 411:.\SirenState.c ****     uint8 changeStatus[SPEAKER_COUNT];
 412:.\SirenState.c ****     uint8 changedChannel[SPEAKER_COUNT];
 413:.\SirenState.c ****     uint8 speakerIndex = 0;
 886              		.loc 1 413 0
 887 0006 0023     		movs	r3, #0
 888 0008 FB73     		strb	r3, [r7, #15]
 414:.\SirenState.c **** 	uint8 priorityChannel = 0;
 889              		.loc 1 414 0
 890 000a 0023     		movs	r3, #0
 891 000c BB73     		strb	r3, [r7, #14]
 415:.\SirenState.c ****     
 416:.\SirenState.c ****     currentChannels[SPEAKER_1] = ModeStatus_Read();
 892              		.loc 1 416 0
 893 000e FFF7FEFF 		bl	ModeStatus_Read
 894 0012 0346     		mov	r3, r0
 895 0014 3B73     		strb	r3, [r7, #12]
 417:.\SirenState.c ****     currentChannels[SPEAKER_2] = ModeStatus2_Read();
 896              		.loc 1 417 0
 897 0016 FFF7FEFF 		bl	ModeStatus2_Read
 898 001a 0346     		mov	r3, r0
 899 001c 7B73     		strb	r3, [r7, #13]
 418:.\SirenState.c ****     
 419:.\SirenState.c ****     for(speakerIndex = 0; speakerIndex < SPEAKER_COUNT; speakerIndex++)
 900              		.loc 1 419 0
 901 001e 0023     		movs	r3, #0
 902 0020 FB73     		strb	r3, [r7, #15]
 903 0022 89E0     		b	.L56
 904              	.L62:
 420:.\SirenState.c ****     {
 421:.\SirenState.c ****         changeStatus[speakerIndex] =
 905              		.loc 1 421 0
 906 0024 FB7B     		ldrb	r3, [r7, #15]	@ zero_extendqisi2
 422:.\SirenState.c ****             previousChannels[speakerIndex] ^ currentChannels[speakerIndex];
 907              		.loc 1 422 0
 908 0026 FA7B     		ldrb	r2, [r7, #15]	@ zero_extendqisi2
 909 0028 4849     		ldr	r1, .L63
 910 002a 895C     		ldrb	r1, [r1, r2]	@ zero_extendqisi2
 911 002c FA7B     		ldrb	r2, [r7, #15]	@ zero_extendqisi2
 912 002e 07F11000 		add	r0, r7, #16
 913 0032 0244     		add	r2, r2, r0
 914 0034 12F8042C 		ldrb	r2, [r2, #-4]	@ zero_extendqisi2
 421:.\SirenState.c ****             previousChannels[speakerIndex] ^ currentChannels[speakerIndex];
 915              		.loc 1 421 0
 916 0038 4A40     		eors	r2, r2, r1
 917 003a D2B2     		uxtb	r2, r2
 918 003c 07F11001 		add	r1, r7, #16
 919 0040 0B44     		add	r3, r3, r1
 920 0042 03F8082C 		strb	r2, [r3, #-8]
 423:.\SirenState.c **** 			
 424:.\SirenState.c **** 		changedChannel[speakerIndex] = getBitIndex(changeStatus[speakerIndex]);
 921              		.loc 1 424 0
ARM GAS  C:\Users\faithc\AppData\Local\Temp\cc1EpcH5.s 			page 25


 922 0046 FC7B     		ldrb	r4, [r7, #15]	@ zero_extendqisi2
 923 0048 FB7B     		ldrb	r3, [r7, #15]	@ zero_extendqisi2
 924 004a 07F11002 		add	r2, r7, #16
 925 004e 1344     		add	r3, r3, r2
 926 0050 13F8083C 		ldrb	r3, [r3, #-8]	@ zero_extendqisi2
 927 0054 1846     		mov	r0, r3
 928 0056 FFF7FEFF 		bl	getBitIndex
 929 005a 0346     		mov	r3, r0
 930 005c 1A46     		mov	r2, r3
 931 005e 07F11003 		add	r3, r7, #16
 932 0062 2344     		add	r3, r3, r4
 933 0064 03F80C2C 		strb	r2, [r3, #-12]
 425:.\SirenState.c **** 		InputRead.highestPriorityChannel[speakerIndex] = getHighestPriorityChannel(speakerIndex);
 934              		.loc 1 425 0
 935 0068 FC7B     		ldrb	r4, [r7, #15]	@ zero_extendqisi2
 936 006a FB7B     		ldrb	r3, [r7, #15]	@ zero_extendqisi2
 937 006c 1846     		mov	r0, r3
 938 006e FFF7FEFF 		bl	getHighestPriorityChannel
 939 0072 0346     		mov	r3, r0
 940 0074 1A46     		mov	r2, r3
 941 0076 364B     		ldr	r3, .L63+4
 942 0078 2344     		add	r3, r3, r4
 943 007a 5A71     		strb	r2, [r3, #5]
 426:.\SirenState.c **** 		priorityChannel = InputRead.highestPriorityChannel[speakerIndex];
 944              		.loc 1 426 0
 945 007c FB7B     		ldrb	r3, [r7, #15]	@ zero_extendqisi2
 946 007e 344A     		ldr	r2, .L63+4
 947 0080 1344     		add	r3, r3, r2
 948 0082 5B79     		ldrb	r3, [r3, #5]
 949 0084 BB73     		strb	r3, [r7, #14]
 427:.\SirenState.c **** 			
 428:.\SirenState.c **** 		if(changeStatus[speakerIndex] & currentChannels[speakerIndex])
 950              		.loc 1 428 0
 951 0086 FB7B     		ldrb	r3, [r7, #15]	@ zero_extendqisi2
 952 0088 07F11002 		add	r2, r7, #16
 953 008c 1344     		add	r3, r3, r2
 954 008e 13F8082C 		ldrb	r2, [r3, #-8]	@ zero_extendqisi2
 955 0092 FB7B     		ldrb	r3, [r7, #15]	@ zero_extendqisi2
 956 0094 07F11001 		add	r1, r7, #16
 957 0098 0B44     		add	r3, r3, r1
 958 009a 13F8043C 		ldrb	r3, [r3, #-4]	@ zero_extendqisi2
 959 009e 1340     		ands	r3, r3, r2
 960 00a0 DBB2     		uxtb	r3, r3
 961 00a2 002B     		cmp	r3, #0
 962 00a4 05D0     		beq	.L57
 429:.\SirenState.c **** 			ToneStatus.bRisingEdge[speakerIndex] = true;
 963              		.loc 1 429 0
 964 00a6 FB7B     		ldrb	r3, [r7, #15]	@ zero_extendqisi2
 965 00a8 2A4A     		ldr	r2, .L63+8
 966 00aa 1344     		add	r3, r3, r2
 967 00ac 0122     		movs	r2, #1
 968 00ae 1A71     		strb	r2, [r3, #4]
 969 00b0 18E0     		b	.L58
 970              	.L57:
 430:.\SirenState.c **** 		else
 431:.\SirenState.c ****         {
 432:.\SirenState.c ****             if((priorityChannel == NO_CHANNEL) || ((changedChannel[speakerIndex] != NO_CHANNEL) && 
ARM GAS  C:\Users\faithc\AppData\Local\Temp\cc1EpcH5.s 			page 26


 971              		.loc 1 432 0
 972 00b2 BB7B     		ldrb	r3, [r7, #14]	@ zero_extendqisi2
 973 00b4 FF2B     		cmp	r3, #255
 974 00b6 10D0     		beq	.L59
 975              		.loc 1 432 0 is_stmt 0 discriminator 1
 976 00b8 FB7B     		ldrb	r3, [r7, #15]	@ zero_extendqisi2
 977 00ba 07F11002 		add	r2, r7, #16
 978 00be 1344     		add	r3, r3, r2
 979 00c0 13F80C3C 		ldrb	r3, [r3, #-12]	@ zero_extendqisi2
 980 00c4 FF2B     		cmp	r3, #255
 981 00c6 0DD0     		beq	.L58
 433:.\SirenState.c ****                 (priorityChannel < changedChannel[speakerIndex])))
 982              		.loc 1 433 0 is_stmt 1 discriminator 2
 983 00c8 FB7B     		ldrb	r3, [r7, #15]	@ zero_extendqisi2
 984 00ca 07F11002 		add	r2, r7, #16
 985 00ce 1344     		add	r3, r3, r2
 986 00d0 13F80C3C 		ldrb	r3, [r3, #-12]	@ zero_extendqisi2
 432:.\SirenState.c ****                 (priorityChannel < changedChannel[speakerIndex])))
 987              		.loc 1 432 0 discriminator 2
 988 00d4 BA7B     		ldrb	r2, [r7, #14]	@ zero_extendqisi2
 989 00d6 9A42     		cmp	r2, r3
 990 00d8 04D2     		bcs	.L58
 991              	.L59:
 434:.\SirenState.c **** 			    ToneStatus.bRisingEdge[speakerIndex] = false;
 992              		.loc 1 434 0
 993 00da FB7B     		ldrb	r3, [r7, #15]	@ zero_extendqisi2
 994 00dc 1D4A     		ldr	r2, .L63+8
 995 00de 1344     		add	r3, r3, r2
 996 00e0 0022     		movs	r2, #0
 997 00e2 1A71     		strb	r2, [r3, #4]
 998              	.L58:
 435:.\SirenState.c ****         }
 436:.\SirenState.c **** 		
 437:.\SirenState.c ****         previousChannels[speakerIndex] = currentChannels[speakerIndex];
 999              		.loc 1 437 0
 1000 00e4 FB7B     		ldrb	r3, [r7, #15]	@ zero_extendqisi2
 1001 00e6 FA7B     		ldrb	r2, [r7, #15]	@ zero_extendqisi2
 1002 00e8 07F11001 		add	r1, r7, #16
 1003 00ec 0A44     		add	r2, r2, r1
 1004 00ee 12F8041C 		ldrb	r1, [r2, #-4]	@ zero_extendqisi2
 1005 00f2 164A     		ldr	r2, .L63
 1006 00f4 D154     		strb	r1, [r2, r3]
 438:.\SirenState.c **** 		ToneStatus.previousTone[speakerIndex] = ToneStatus.currentTone[speakerIndex];	
 1007              		.loc 1 438 0
 1008 00f6 FB7B     		ldrb	r3, [r7, #15]	@ zero_extendqisi2
 1009 00f8 FA7B     		ldrb	r2, [r7, #15]	@ zero_extendqisi2
 1010 00fa 1649     		ldr	r1, .L63+8
 1011 00fc 0A44     		add	r2, r2, r1
 1012 00fe 9178     		ldrb	r1, [r2, #2]	@ zero_extendqisi2
 1013 0100 144A     		ldr	r2, .L63+8
 1014 0102 D154     		strb	r1, [r2, r3]
 439:.\SirenState.c **** 		
 440:.\SirenState.c **** 		if(priorityChannel != NO_CHANNEL)
 1015              		.loc 1 440 0
 1016 0104 BB7B     		ldrb	r3, [r7, #14]	@ zero_extendqisi2
 1017 0106 FF2B     		cmp	r3, #255
 1018 0108 0ED0     		beq	.L60
ARM GAS  C:\Users\faithc\AppData\Local\Temp\cc1EpcH5.s 			page 27


 441:.\SirenState.c **** 			ToneStatus.currentTone[speakerIndex] = toneConfigurationList[speakerIndex][priorityChannel];
 1019              		.loc 1 441 0
 1020 010a F97B     		ldrb	r1, [r7, #15]	@ zero_extendqisi2
 1021 010c FA7B     		ldrb	r2, [r7, #15]	@ zero_extendqisi2
 1022 010e B87B     		ldrb	r0, [r7, #14]	@ zero_extendqisi2
 1023 0110 114C     		ldr	r4, .L63+12
 1024 0112 1346     		mov	r3, r2
 1025 0114 5B00     		lsls	r3, r3, #1
 1026 0116 1344     		add	r3, r3, r2
 1027 0118 5B00     		lsls	r3, r3, #1
 1028 011a 0344     		add	r3, r3, r0
 1029 011c 2344     		add	r3, r3, r4
 1030 011e 1A78     		ldrb	r2, [r3]	@ zero_extendqisi2
 1031 0120 0C4B     		ldr	r3, .L63+8
 1032 0122 0B44     		add	r3, r3, r1
 1033 0124 9A70     		strb	r2, [r3, #2]
 1034 0126 04E0     		b	.L61
 1035              	.L60:
 442:.\SirenState.c **** 		else
 443:.\SirenState.c **** 			ToneStatus.currentTone[speakerIndex] = NO_TONE;
 1036              		.loc 1 443 0
 1037 0128 FB7B     		ldrb	r3, [r7, #15]	@ zero_extendqisi2
 1038 012a 0A4A     		ldr	r2, .L63+8
 1039 012c 1344     		add	r3, r3, r2
 1040 012e 0022     		movs	r2, #0
 1041 0130 9A70     		strb	r2, [r3, #2]
 1042              	.L61:
 419:.\SirenState.c ****     {
 1043              		.loc 1 419 0 discriminator 2
 1044 0132 FB7B     		ldrb	r3, [r7, #15]	@ zero_extendqisi2
 1045 0134 0133     		adds	r3, r3, #1
 1046 0136 FB73     		strb	r3, [r7, #15]
 1047              	.L56:
 419:.\SirenState.c ****     {
 1048              		.loc 1 419 0 is_stmt 0 discriminator 1
 1049 0138 FB7B     		ldrb	r3, [r7, #15]	@ zero_extendqisi2
 1050 013a 012B     		cmp	r3, #1
 1051 013c 7FF672AF 		bls	.L62
 444:.\SirenState.c ****     }
 445:.\SirenState.c **** 	
 446:.\SirenState.c **** 	decideTonesToPlay();
 1052              		.loc 1 446 0 is_stmt 1
 1053 0140 FFF7FEFF 		bl	decideTonesToPlay
 447:.\SirenState.c **** }
 1054              		.loc 1 447 0
 1055 0144 1437     		adds	r7, r7, #20
 1056              		.cfi_def_cfa_offset 12
 1057 0146 BD46     		mov	sp, r7
 1058              		.cfi_def_cfa_register 13
 1059              		@ sp needed
 1060 0148 90BD     		pop	{r4, r7, pc}
 1061              	.L64:
 1062 014a 00BF     		.align	2
 1063              	.L63:
 1064 014c 1C000000 		.word	previousChannels.7356
 1065 0150 0C000000 		.word	InputRead
 1066 0154 14000000 		.word	ToneStatus
ARM GAS  C:\Users\faithc\AppData\Local\Temp\cc1EpcH5.s 			page 28


 1067 0158 00000000 		.word	toneConfigurationList
 1068              		.cfi_endproc
 1069              	.LFE72:
 1070              		.size	processToneChangeRoutine, .-processToneChangeRoutine
 1071              		.section	.text.setTonesWithCommunication,"ax",%progbits
 1072              		.align	2
 1073              		.global	setTonesWithCommunication
 1074              		.thumb
 1075              		.thumb_func
 1076              		.type	setTonesWithCommunication, %function
 1077              	setTonesWithCommunication:
 1078              	.LFB73:
 448:.\SirenState.c **** 
 449:.\SirenState.c **** /*******************************************************************************
 450:.\SirenState.c **** * Function Name: setTonesWithCommunication
 451:.\SirenState.c **** ********************************************************************************
 452:.\SirenState.c **** *
 453:.\SirenState.c **** * Summary:
 454:.\SirenState.c **** *   Called during Data Link to update the tone using the data from the Controller
 455:.\SirenState.c **** *
 456:.\SirenState.c **** * Parameters:  
 457:.\SirenState.c **** *   firstTone: The tone selection for Speaker 1
 458:.\SirenState.c **** *   secondTone: The tone selection for Speaker 2
 459:.\SirenState.c **** *   bDualDelay: The Dual Delay status from the Controller
 460:.\SirenState.c **** *
 461:.\SirenState.c **** * Return:
 462:.\SirenState.c **** *   TRUE for valid inputs, FALSE otherwise
 463:.\SirenState.c **** *
 464:.\SirenState.c **** *******************************************************************************/
 465:.\SirenState.c **** uint8 setTonesWithCommunication(enum ToneType firstTone, enum ToneType secondTone,
 466:.\SirenState.c ****                                 uint8 bDualDelay)
 467:.\SirenState.c **** {
 1079              		.loc 1 467 0
 1080              		.cfi_startproc
 1081              		@ args = 0, pretend = 0, frame = 16
 1082              		@ frame_needed = 1, uses_anonymous_args = 0
 1083 0000 80B5     		push	{r7, lr}
 1084              		.cfi_def_cfa_offset 8
 1085              		.cfi_offset 7, -8
 1086              		.cfi_offset 14, -4
 1087 0002 84B0     		sub	sp, sp, #16
 1088              		.cfi_def_cfa_offset 24
 1089 0004 00AF     		add	r7, sp, #0
 1090              		.cfi_def_cfa_register 7
 1091 0006 0346     		mov	r3, r0
 1092 0008 FB71     		strb	r3, [r7, #7]
 1093 000a 0B46     		mov	r3, r1
 1094 000c BB71     		strb	r3, [r7, #6]
 1095 000e 1346     		mov	r3, r2
 1096 0010 7B71     		strb	r3, [r7, #5]
 468:.\SirenState.c ****     uint8 speakerIndex = 0;
 1097              		.loc 1 468 0
 1098 0012 0023     		movs	r3, #0
 1099 0014 FB73     		strb	r3, [r7, #15]
 469:.\SirenState.c ****     uint8 bDualDelayChange = false;
 1100              		.loc 1 469 0
 1101 0016 0023     		movs	r3, #0
ARM GAS  C:\Users\faithc\AppData\Local\Temp\cc1EpcH5.s 			page 29


 1102 0018 BB73     		strb	r3, [r7, #14]
 470:.\SirenState.c ****     
 471:.\SirenState.c ****     if((firstTone < NO_TONE) || (firstTone > TEST_TONE))
 1103              		.loc 1 471 0
 1104 001a FB79     		ldrb	r3, [r7, #7]	@ zero_extendqisi2
 1105 001c 162B     		cmp	r3, #22
 1106 001e 01D9     		bls	.L66
 472:.\SirenState.c ****         return false;
 1107              		.loc 1 472 0
 1108 0020 0023     		movs	r3, #0
 1109 0022 60E0     		b	.L67
 1110              	.L66:
 473:.\SirenState.c ****     
 474:.\SirenState.c ****     if((secondTone < NO_TONE) || (secondTone > TEST_TONE))
 1111              		.loc 1 474 0
 1112 0024 BB79     		ldrb	r3, [r7, #6]	@ zero_extendqisi2
 1113 0026 162B     		cmp	r3, #22
 1114 0028 01D9     		bls	.L68
 475:.\SirenState.c ****         return false;
 1115              		.loc 1 475 0
 1116 002a 0023     		movs	r3, #0
 1117 002c 5BE0     		b	.L67
 1118              	.L68:
 476:.\SirenState.c ****     
 477:.\SirenState.c ****     if((bDualDelay != true) && (bDualDelay != false))
 1119              		.loc 1 477 0
 1120 002e 7B79     		ldrb	r3, [r7, #5]	@ zero_extendqisi2
 1121 0030 012B     		cmp	r3, #1
 1122 0032 04D0     		beq	.L69
 1123              		.loc 1 477 0 is_stmt 0 discriminator 1
 1124 0034 7B79     		ldrb	r3, [r7, #5]	@ zero_extendqisi2
 1125 0036 002B     		cmp	r3, #0
 1126 0038 01D0     		beq	.L69
 478:.\SirenState.c ****         return false;
 1127              		.loc 1 478 0 is_stmt 1
 1128 003a 0023     		movs	r3, #0
 1129 003c 53E0     		b	.L67
 1130              	.L69:
 479:.\SirenState.c ****     
 480:.\SirenState.c ****     ToneStatus.previousTone[SPEAKER_1] = ToneStatus.currentTone[SPEAKER_1];
 1131              		.loc 1 480 0
 1132 003e 2C4B     		ldr	r3, .L77
 1133 0040 9A78     		ldrb	r2, [r3, #2]	@ zero_extendqisi2
 1134 0042 2B4B     		ldr	r3, .L77
 1135 0044 1A70     		strb	r2, [r3]
 481:.\SirenState.c ****     ToneStatus.previousTone[SPEAKER_2] = ToneStatus.currentTone[SPEAKER_2];
 1136              		.loc 1 481 0
 1137 0046 2A4B     		ldr	r3, .L77
 1138 0048 DA78     		ldrb	r2, [r3, #3]	@ zero_extendqisi2
 1139 004a 294B     		ldr	r3, .L77
 1140 004c 5A70     		strb	r2, [r3, #1]
 482:.\SirenState.c ****     ToneStatus.currentTone[SPEAKER_1] = firstTone;
 1141              		.loc 1 482 0
 1142 004e 284A     		ldr	r2, .L77
 1143 0050 FB79     		ldrb	r3, [r7, #7]
 1144 0052 9370     		strb	r3, [r2, #2]
 483:.\SirenState.c ****     ToneStatus.currentTone[SPEAKER_2] = secondTone;
ARM GAS  C:\Users\faithc\AppData\Local\Temp\cc1EpcH5.s 			page 30


 1145              		.loc 1 483 0
 1146 0054 264A     		ldr	r2, .L77
 1147 0056 BB79     		ldrb	r3, [r7, #6]
 1148 0058 D370     		strb	r3, [r2, #3]
 484:.\SirenState.c ****     
 485:.\SirenState.c ****     if(bDualDelay != ToneStatus.bDualDelayEnable)
 1149              		.loc 1 485 0
 1150 005a 254B     		ldr	r3, .L77
 1151 005c 9B79     		ldrb	r3, [r3, #6]	@ zero_extendqisi2
 1152 005e 7A79     		ldrb	r2, [r7, #5]	@ zero_extendqisi2
 1153 0060 9A42     		cmp	r2, r3
 1154 0062 01D0     		beq	.L70
 486:.\SirenState.c ****         bDualDelayChange = true;
 1155              		.loc 1 486 0
 1156 0064 0123     		movs	r3, #1
 1157 0066 BB73     		strb	r3, [r7, #14]
 1158              	.L70:
 487:.\SirenState.c ****     
 488:.\SirenState.c ****     ToneStatus.bDualDelayEnable = bDualDelay;
 1159              		.loc 1 488 0
 1160 0068 214A     		ldr	r2, .L77
 1161 006a 7B79     		ldrb	r3, [r7, #5]
 1162 006c 9371     		strb	r3, [r2, #6]
 489:.\SirenState.c ****     
 490:.\SirenState.c ****     for(speakerIndex = 0; speakerIndex < SPEAKER_COUNT; speakerIndex++)
 1163              		.loc 1 490 0
 1164 006e 0023     		movs	r3, #0
 1165 0070 FB73     		strb	r3, [r7, #15]
 1166 0072 23E0     		b	.L71
 1167              	.L74:
 491:.\SirenState.c ****     {
 492:.\SirenState.c ****         if((ToneStatus.previousTone[speakerIndex] == NO_TONE) &&
 1168              		.loc 1 492 0
 1169 0074 FB7B     		ldrb	r3, [r7, #15]	@ zero_extendqisi2
 1170 0076 1E4A     		ldr	r2, .L77
 1171 0078 D35C     		ldrb	r3, [r2, r3]	@ zero_extendqisi2
 1172 007a 002B     		cmp	r3, #0
 1173 007c 0BD1     		bne	.L72
 493:.\SirenState.c ****             (ToneStatus.currentTone[speakerIndex] != NO_TONE))
 1174              		.loc 1 493 0 discriminator 1
 1175 007e FB7B     		ldrb	r3, [r7, #15]	@ zero_extendqisi2
 1176 0080 1B4A     		ldr	r2, .L77
 1177 0082 1344     		add	r3, r3, r2
 1178 0084 9B78     		ldrb	r3, [r3, #2]	@ zero_extendqisi2
 492:.\SirenState.c ****             (ToneStatus.currentTone[speakerIndex] != NO_TONE))
 1179              		.loc 1 492 0 discriminator 1
 1180 0086 002B     		cmp	r3, #0
 1181 0088 05D0     		beq	.L72
 494:.\SirenState.c ****             ToneStatus.bRisingEdge[speakerIndex] = true;
 1182              		.loc 1 494 0
 1183 008a FB7B     		ldrb	r3, [r7, #15]	@ zero_extendqisi2
 1184 008c 184A     		ldr	r2, .L77
 1185 008e 1344     		add	r3, r3, r2
 1186 0090 0122     		movs	r2, #1
 1187 0092 1A71     		strb	r2, [r3, #4]
 1188 0094 0FE0     		b	.L73
 1189              	.L72:
ARM GAS  C:\Users\faithc\AppData\Local\Temp\cc1EpcH5.s 			page 31


 495:.\SirenState.c ****         else if((ToneStatus.previousTone[speakerIndex] != NO_TONE) &&
 1190              		.loc 1 495 0
 1191 0096 FB7B     		ldrb	r3, [r7, #15]	@ zero_extendqisi2
 1192 0098 154A     		ldr	r2, .L77
 1193 009a D35C     		ldrb	r3, [r2, r3]	@ zero_extendqisi2
 1194 009c 002B     		cmp	r3, #0
 1195 009e 0AD0     		beq	.L73
 496:.\SirenState.c ****             (ToneStatus.currentTone[speakerIndex] == NO_TONE))
 1196              		.loc 1 496 0 discriminator 1
 1197 00a0 FB7B     		ldrb	r3, [r7, #15]	@ zero_extendqisi2
 1198 00a2 134A     		ldr	r2, .L77
 1199 00a4 1344     		add	r3, r3, r2
 1200 00a6 9B78     		ldrb	r3, [r3, #2]	@ zero_extendqisi2
 495:.\SirenState.c ****         else if((ToneStatus.previousTone[speakerIndex] != NO_TONE) &&
 1201              		.loc 1 495 0 discriminator 1
 1202 00a8 002B     		cmp	r3, #0
 1203 00aa 04D1     		bne	.L73
 497:.\SirenState.c ****             ToneStatus.bRisingEdge[speakerIndex] = false;
 1204              		.loc 1 497 0
 1205 00ac FB7B     		ldrb	r3, [r7, #15]	@ zero_extendqisi2
 1206 00ae 104A     		ldr	r2, .L77
 1207 00b0 1344     		add	r3, r3, r2
 1208 00b2 0022     		movs	r2, #0
 1209 00b4 1A71     		strb	r2, [r3, #4]
 1210              	.L73:
 490:.\SirenState.c ****     {
 1211              		.loc 1 490 0 discriminator 2
 1212 00b6 FB7B     		ldrb	r3, [r7, #15]	@ zero_extendqisi2
 1213 00b8 0133     		adds	r3, r3, #1
 1214 00ba FB73     		strb	r3, [r7, #15]
 1215              	.L71:
 490:.\SirenState.c ****     {
 1216              		.loc 1 490 0 is_stmt 0 discriminator 1
 1217 00bc FB7B     		ldrb	r3, [r7, #15]	@ zero_extendqisi2
 1218 00be 012B     		cmp	r3, #1
 1219 00c0 D8D9     		bls	.L74
 498:.\SirenState.c ****     }
 499:.\SirenState.c ****     
 500:.\SirenState.c ****     if((ToneStatus.previousTone[SPEAKER_1] != ToneStatus.currentTone[SPEAKER_1]) ||
 1220              		.loc 1 500 0 is_stmt 1
 1221 00c2 0B4B     		ldr	r3, .L77
 1222 00c4 1A78     		ldrb	r2, [r3]	@ zero_extendqisi2
 1223 00c6 0A4B     		ldr	r3, .L77
 1224 00c8 9B78     		ldrb	r3, [r3, #2]	@ zero_extendqisi2
 1225 00ca 9A42     		cmp	r2, r3
 1226 00cc 08D1     		bne	.L75
 501:.\SirenState.c ****         (ToneStatus.previousTone[SPEAKER_2] != ToneStatus.currentTone[SPEAKER_2]) ||
 1227              		.loc 1 501 0 discriminator 1
 1228 00ce 084B     		ldr	r3, .L77
 1229 00d0 5A78     		ldrb	r2, [r3, #1]	@ zero_extendqisi2
 1230 00d2 074B     		ldr	r3, .L77
 1231 00d4 DB78     		ldrb	r3, [r3, #3]	@ zero_extendqisi2
 500:.\SirenState.c ****         (ToneStatus.previousTone[SPEAKER_2] != ToneStatus.currentTone[SPEAKER_2]) ||
 1232              		.loc 1 500 0 discriminator 1
 1233 00d6 9A42     		cmp	r2, r3
 1234 00d8 02D1     		bne	.L75
 1235              		.loc 1 501 0
ARM GAS  C:\Users\faithc\AppData\Local\Temp\cc1EpcH5.s 			page 32


 1236 00da BB7B     		ldrb	r3, [r7, #14]	@ zero_extendqisi2
 1237 00dc 012B     		cmp	r3, #1
 1238 00de 01D1     		bne	.L76
 1239              	.L75:
 502:.\SirenState.c ****         (bDualDelayChange == true))
 503:.\SirenState.c ****         decideTonesToPlay();
 1240              		.loc 1 503 0
 1241 00e0 FFF7FEFF 		bl	decideTonesToPlay
 1242              	.L76:
 504:.\SirenState.c ****     
 505:.\SirenState.c ****     return true;
 1243              		.loc 1 505 0
 1244 00e4 0123     		movs	r3, #1
 1245              	.L67:
 506:.\SirenState.c **** }
 1246              		.loc 1 506 0
 1247 00e6 1846     		mov	r0, r3
 1248 00e8 1037     		adds	r7, r7, #16
 1249              		.cfi_def_cfa_offset 8
 1250 00ea BD46     		mov	sp, r7
 1251              		.cfi_def_cfa_register 13
 1252              		@ sp needed
 1253 00ec 80BD     		pop	{r7, pc}
 1254              	.L78:
 1255 00ee 00BF     		.align	2
 1256              	.L77:
 1257 00f0 14000000 		.word	ToneStatus
 1258              		.cfi_endproc
 1259              	.LFE73:
 1260              		.size	setTonesWithCommunication, .-setTonesWithCommunication
 1261              		.section	.text.disableAudioAndPWM,"ax",%progbits
 1262              		.align	2
 1263              		.global	disableAudioAndPWM
 1264              		.thumb
 1265              		.thumb_func
 1266              		.type	disableAudioAndPWM, %function
 1267              	disableAudioAndPWM:
 1268              	.LFB74:
 507:.\SirenState.c **** 
 508:.\SirenState.c **** /*******************************************************************************
 509:.\SirenState.c **** * Function Name: disableAudioAndPWM
 510:.\SirenState.c **** ********************************************************************************
 511:.\SirenState.c **** *
 512:.\SirenState.c **** * Summary:
 513:.\SirenState.c **** *   Disables the DAC and PWM for both speakers, typically called before the Power
 514:.\SirenState.c **** *   Amps are disabled for a clear shut down
 515:.\SirenState.c **** *
 516:.\SirenState.c **** * Parameters: 
 517:.\SirenState.c **** *   None
 518:.\SirenState.c **** *
 519:.\SirenState.c **** * Return:
 520:.\SirenState.c **** *   None
 521:.\SirenState.c **** *
 522:.\SirenState.c **** *******************************************************************************/
 523:.\SirenState.c **** void disableAudioAndPWM(void)
 524:.\SirenState.c **** {
 1269              		.loc 1 524 0
ARM GAS  C:\Users\faithc\AppData\Local\Temp\cc1EpcH5.s 			page 33


 1270              		.cfi_startproc
 1271              		@ args = 0, pretend = 0, frame = 0
 1272              		@ frame_needed = 1, uses_anonymous_args = 0
 1273 0000 80B5     		push	{r7, lr}
 1274              		.cfi_def_cfa_offset 8
 1275              		.cfi_offset 7, -8
 1276              		.cfi_offset 14, -4
 1277 0002 00AF     		add	r7, sp, #0
 1278              		.cfi_def_cfa_register 7
 525:.\SirenState.c **** 	stopPWMTone(SPEAKER_1);
 1279              		.loc 1 525 0
 1280 0004 0020     		movs	r0, #0
 1281 0006 FFF7FEFF 		bl	stopPWMTone
 526:.\SirenState.c ****     stopPWMTone(SPEAKER_2);
 1282              		.loc 1 526 0
 1283 000a 0120     		movs	r0, #1
 1284 000c FFF7FEFF 		bl	stopPWMTone
 527:.\SirenState.c ****     stopAudioTone(SPEAKER_1);
 1285              		.loc 1 527 0
 1286 0010 0020     		movs	r0, #0
 1287 0012 FFF7FEFF 		bl	stopAudioTone
 528:.\SirenState.c ****     stopAudioTone(SPEAKER_2);
 1288              		.loc 1 528 0
 1289 0016 0120     		movs	r0, #1
 1290 0018 FFF7FEFF 		bl	stopAudioTone
 529:.\SirenState.c **** }
 1291              		.loc 1 529 0
 1292 001c 80BD     		pop	{r7, pc}
 1293              		.cfi_endproc
 1294              	.LFE74:
 1295              		.size	disableAudioAndPWM, .-disableAudioAndPWM
 1296 001e 00BF     		.section	.text.disableBothSpeakers,"ax",%progbits
 1297              		.align	2
 1298              		.global	disableBothSpeakers
 1299              		.thumb
 1300              		.thumb_func
 1301              		.type	disableBothSpeakers, %function
 1302              	disableBothSpeakers:
 1303              	.LFB75:
 530:.\SirenState.c **** 
 531:.\SirenState.c **** /*******************************************************************************
 532:.\SirenState.c **** * Function Name: disableBothSpeakers
 533:.\SirenState.c **** ********************************************************************************
 534:.\SirenState.c **** *
 535:.\SirenState.c **** * Summary:
 536:.\SirenState.c **** *   Disables the Power Amps and updates the PWM and DAC status to play no tone
 537:.\SirenState.c **** *   for both speakers, typically called after the DAC and PWM are disabled.
 538:.\SirenState.c **** *
 539:.\SirenState.c **** * Parameters: 
 540:.\SirenState.c **** *   None
 541:.\SirenState.c **** *
 542:.\SirenState.c **** * Return:
 543:.\SirenState.c **** *   None
 544:.\SirenState.c **** *
 545:.\SirenState.c **** *******************************************************************************/
 546:.\SirenState.c **** void disableBothSpeakers(void)
 547:.\SirenState.c **** {
ARM GAS  C:\Users\faithc\AppData\Local\Temp\cc1EpcH5.s 			page 34


 1304              		.loc 1 547 0
 1305              		.cfi_startproc
 1306              		@ args = 0, pretend = 0, frame = 0
 1307              		@ frame_needed = 1, uses_anonymous_args = 0
 1308 0000 80B5     		push	{r7, lr}
 1309              		.cfi_def_cfa_offset 8
 1310              		.cfi_offset 7, -8
 1311              		.cfi_offset 14, -4
 1312 0002 00AF     		add	r7, sp, #0
 1313              		.cfi_def_cfa_register 7
 548:.\SirenState.c **** 	deactivateManualWail();
 1314              		.loc 1 548 0
 1315 0004 FFF7FEFF 		bl	deactivateManualWail
 549:.\SirenState.c **** 	deactivateAudio();
 1316              		.loc 1 549 0
 1317 0008 FFF7FEFF 		bl	deactivateAudio
 550:.\SirenState.c **** 	PowerAmpOutput1_Write(false);
 1318              		.loc 1 550 0
 1319 000c 0020     		movs	r0, #0
 1320 000e FFF7FEFF 		bl	PowerAmpOutput1_Write
 551:.\SirenState.c **** 	PowerAmpOutput2_Write(false);
 1321              		.loc 1 551 0
 1322 0012 0020     		movs	r0, #0
 1323 0014 FFF7FEFF 		bl	PowerAmpOutput2_Write
 552:.\SirenState.c ****     playAudioTone(SPEAKER_1, NO_TONE, false);
 1324              		.loc 1 552 0
 1325 0018 0020     		movs	r0, #0
 1326 001a 0021     		movs	r1, #0
 1327 001c 0022     		movs	r2, #0
 1328 001e FFF7FEFF 		bl	playAudioTone
 553:.\SirenState.c ****     playAudioTone(SPEAKER_2, NO_TONE, false);
 1329              		.loc 1 553 0
 1330 0022 0120     		movs	r0, #1
 1331 0024 0021     		movs	r1, #0
 1332 0026 0022     		movs	r2, #0
 1333 0028 FFF7FEFF 		bl	playAudioTone
 554:.\SirenState.c ****     playPWMTone(SPEAKER_1, NO_TONE, false, false);
 1334              		.loc 1 554 0
 1335 002c 0020     		movs	r0, #0
 1336 002e 0021     		movs	r1, #0
 1337 0030 0022     		movs	r2, #0
 1338 0032 0023     		movs	r3, #0
 1339 0034 FFF7FEFF 		bl	playPWMTone
 555:.\SirenState.c ****     playPWMTone(SPEAKER_2, NO_TONE, false, false);
 1340              		.loc 1 555 0
 1341 0038 0120     		movs	r0, #1
 1342 003a 0021     		movs	r1, #0
 1343 003c 0022     		movs	r2, #0
 1344 003e 0023     		movs	r3, #0
 1345 0040 FFF7FEFF 		bl	playPWMTone
 556:.\SirenState.c **** }
 1346              		.loc 1 556 0
 1347 0044 80BD     		pop	{r7, pc}
 1348              		.cfi_endproc
 1349              	.LFE75:
 1350              		.size	disableBothSpeakers, .-disableBothSpeakers
 1351 0046 00BF     		.section	.text.decideTonesToPlay,"ax",%progbits
ARM GAS  C:\Users\faithc\AppData\Local\Temp\cc1EpcH5.s 			page 35


 1352              		.align	2
 1353              		.thumb
 1354              		.thumb_func
 1355              		.type	decideTonesToPlay, %function
 1356              	decideTonesToPlay:
 1357              	.LFB76:
 557:.\SirenState.c **** 
 558:.\SirenState.c **** /*******************************************************************************
 559:.\SirenState.c **** * Function Name: decideTonesToPlay
 560:.\SirenState.c **** ********************************************************************************
 561:.\SirenState.c **** *
 562:.\SirenState.c **** * Summary:
 563:.\SirenState.c **** *  The state machine that determines the tone outcome for each speaker.
 564:.\SirenState.c **** *
 565:.\SirenState.c **** * Parameters:  
 566:.\SirenState.c **** *   None
 567:.\SirenState.c **** *
 568:.\SirenState.c **** * Return:
 569:.\SirenState.c **** *   None
 570:.\SirenState.c **** *
 571:.\SirenState.c **** *******************************************************************************/
 572:.\SirenState.c **** static void decideTonesToPlay(void)
 573:.\SirenState.c **** {
 1358              		.loc 1 573 0
 1359              		.cfi_startproc
 1360              		@ args = 0, pretend = 0, frame = 0
 1361              		@ frame_needed = 1, uses_anonymous_args = 0
 1362 0000 80B5     		push	{r7, lr}
 1363              		.cfi_def_cfa_offset 8
 1364              		.cfi_offset 7, -8
 1365              		.cfi_offset 14, -4
 1366 0002 00AF     		add	r7, sp, #0
 1367              		.cfi_def_cfa_register 7
 574:.\SirenState.c **** 	static uint8 bToneChangeOnHornRing = false;
 575:.\SirenState.c ****     
 576:.\SirenState.c ****     disableAudioAndPWM();
 1368              		.loc 1 576 0
 1369 0004 FFF7FEFF 		bl	disableAudioAndPWM
 577:.\SirenState.c ****     
 578:.\SirenState.c ****     if(InputRead.bRadioAndMicKey)
 1370              		.loc 1 578 0
 1371 0008 A94B     		ldr	r3, .L120
 1372 000a 1B78     		ldrb	r3, [r3]	@ zero_extendqisi2
 1373 000c 002B     		cmp	r3, #0
 1374 000e 00D0     		beq	.L82
 579:.\SirenState.c ****         return;	
 1375              		.loc 1 579 0
 1376 0010 A7E1     		b	.L81
 1377              	.L82:
 580:.\SirenState.c ****     
 581:.\SirenState.c **** 	if(ToneStatus.currentTone[SPEAKER_1] != NO_TONE)
 1378              		.loc 1 581 0
 1379 0012 A84B     		ldr	r3, .L120+4
 1380 0014 9B78     		ldrb	r3, [r3, #2]	@ zero_extendqisi2
 1381 0016 002B     		cmp	r3, #0
 1382 0018 00F0B880 		beq	.L84
 582:.\SirenState.c **** 	{
ARM GAS  C:\Users\faithc\AppData\Local\Temp\cc1EpcH5.s 			page 36


 583:.\SirenState.c **** 		if(isAudioTone(ToneStatus.currentTone[SPEAKER_1]))
 1383              		.loc 1 583 0
 1384 001c A54B     		ldr	r3, .L120+4
 1385 001e 9B78     		ldrb	r3, [r3, #2]	@ zero_extendqisi2
 1386 0020 1846     		mov	r0, r3
 1387 0022 FFF7FEFF 		bl	isAudioTone
 1388 0026 0346     		mov	r3, r0
 1389 0028 002B     		cmp	r3, #0
 1390 002a 1ED0     		beq	.L85
 584:.\SirenState.c **** 		{
 585:.\SirenState.c **** 			if(isSong(ToneStatus.currentTone[SPEAKER_1]))
 1391              		.loc 1 585 0
 1392 002c A14B     		ldr	r3, .L120+4
 1393 002e 9B78     		ldrb	r3, [r3, #2]	@ zero_extendqisi2
 1394 0030 1846     		mov	r0, r3
 1395 0032 FFF7FEFF 		bl	isSong
 1396 0036 0346     		mov	r3, r0
 1397 0038 002B     		cmp	r3, #0
 1398 003a 0ED0     		beq	.L86
 586:.\SirenState.c **** 			{
 587:.\SirenState.c **** 				if(ToneStatus.bRisingEdge[SPEAKER_1])	//Plays BAD BOYS	
 1399              		.loc 1 587 0
 1400 003c 9D4B     		ldr	r3, .L120+4
 1401 003e 1B79     		ldrb	r3, [r3, #4]	@ zero_extendqisi2
 1402 0040 002B     		cmp	r3, #0
 1403 0042 07D0     		beq	.L87
 588:.\SirenState.c **** 					enableSpeakersForAudioTone(SPEAKER_1, ToneStatus.currentTone[SPEAKER_1], true);
 1404              		.loc 1 588 0
 1405 0044 9B4B     		ldr	r3, .L120+4
 1406 0046 9B78     		ldrb	r3, [r3, #2]	@ zero_extendqisi2
 1407 0048 0020     		movs	r0, #0
 1408 004a 1946     		mov	r1, r3
 1409 004c 0122     		movs	r2, #1
 1410 004e FFF7FEFF 		bl	enableSpeakersForAudioTone
 1411 0052 86E1     		b	.L81
 1412              	.L87:
 589:.\SirenState.c **** 				else	//Plays NO TONE
 590:.\SirenState.c **** 					disableBothSpeakers();
 1413              		.loc 1 590 0
 1414 0054 FFF7FEFF 		bl	disableBothSpeakers
 1415 0058 83E1     		b	.L81
 1416              	.L86:
 591:.\SirenState.c **** 				
 592:.\SirenState.c **** 			}
 593:.\SirenState.c **** 			else	//Plays ECTO OR COMMAND 
 594:.\SirenState.c **** 				enableSpeakersForAudioTone(SPEAKER_1, ToneStatus.currentTone[SPEAKER_1], true);
 1417              		.loc 1 594 0
 1418 005a 964B     		ldr	r3, .L120+4
 1419 005c 9B78     		ldrb	r3, [r3, #2]	@ zero_extendqisi2
 1420 005e 0020     		movs	r0, #0
 1421 0060 1946     		mov	r1, r3
 1422 0062 0122     		movs	r2, #1
 1423 0064 FFF7FEFF 		bl	enableSpeakersForAudioTone
 1424 0068 7BE1     		b	.L81
 1425              	.L85:
 595:.\SirenState.c **** 		}
 596:.\SirenState.c **** 		else
ARM GAS  C:\Users\faithc\AppData\Local\Temp\cc1EpcH5.s 			page 37


 597:.\SirenState.c **** 		{	
 598:.\SirenState.c ****             if(isAudioTone(ToneStatus.currentTone[SPEAKER_2]))
 1426              		.loc 1 598 0
 1427 006a 924B     		ldr	r3, .L120+4
 1428 006c DB78     		ldrb	r3, [r3, #3]	@ zero_extendqisi2
 1429 006e 1846     		mov	r0, r3
 1430 0070 FFF7FEFF 		bl	isAudioTone
 1431 0074 0346     		mov	r3, r0
 1432 0076 002B     		cmp	r3, #0
 1433 0078 1ED0     		beq	.L91
 599:.\SirenState.c ****     		{
 600:.\SirenState.c ****     			if(isSong(ToneStatus.currentTone[SPEAKER_2]))
 1434              		.loc 1 600 0
 1435 007a 8E4B     		ldr	r3, .L120+4
 1436 007c DB78     		ldrb	r3, [r3, #3]	@ zero_extendqisi2
 1437 007e 1846     		mov	r0, r3
 1438 0080 FFF7FEFF 		bl	isSong
 1439 0084 0346     		mov	r3, r0
 1440 0086 002B     		cmp	r3, #0
 1441 0088 0ED0     		beq	.L92
 601:.\SirenState.c ****     			{
 602:.\SirenState.c ****     				if(ToneStatus.bRisingEdge[SPEAKER_2])	//Plays BAD BOYS	
 1442              		.loc 1 602 0
 1443 008a 8A4B     		ldr	r3, .L120+4
 1444 008c 5B79     		ldrb	r3, [r3, #5]	@ zero_extendqisi2
 1445 008e 002B     		cmp	r3, #0
 1446 0090 07D0     		beq	.L93
 603:.\SirenState.c ****     					enableSpeakersForAudioTone(SPEAKER_2, ToneStatus.currentTone[SPEAKER_2], true);
 1447              		.loc 1 603 0
 1448 0092 884B     		ldr	r3, .L120+4
 1449 0094 DB78     		ldrb	r3, [r3, #3]	@ zero_extendqisi2
 1450 0096 0120     		movs	r0, #1
 1451 0098 1946     		mov	r1, r3
 1452 009a 0122     		movs	r2, #1
 1453 009c FFF7FEFF 		bl	enableSpeakersForAudioTone
 1454 00a0 5FE1     		b	.L81
 1455              	.L93:
 604:.\SirenState.c ****     				else	//Plays NO TONE
 605:.\SirenState.c ****     					disableBothSpeakers();
 1456              		.loc 1 605 0
 1457 00a2 FFF7FEFF 		bl	disableBothSpeakers
 1458 00a6 5CE1     		b	.L81
 1459              	.L92:
 606:.\SirenState.c ****     				
 607:.\SirenState.c ****     			}
 608:.\SirenState.c ****     			else	//Plays ECTO OR COMMAND 
 609:.\SirenState.c ****     				enableSpeakersForAudioTone(SPEAKER_2, ToneStatus.currentTone[SPEAKER_2], true);
 1460              		.loc 1 609 0
 1461 00a8 824B     		ldr	r3, .L120+4
 1462 00aa DB78     		ldrb	r3, [r3, #3]	@ zero_extendqisi2
 1463 00ac 0120     		movs	r0, #1
 1464 00ae 1946     		mov	r1, r3
 1465 00b0 0122     		movs	r2, #1
 1466 00b2 FFF7FEFF 		bl	enableSpeakersForAudioTone
 1467 00b6 54E1     		b	.L81
 1468              	.L91:
 610:.\SirenState.c ****     		}
ARM GAS  C:\Users\faithc\AppData\Local\Temp\cc1EpcH5.s 			page 38


 611:.\SirenState.c **** 			else if(InputRead.bParkKill)	//Plays NO TONE
 1469              		.loc 1 611 0
 1470 00b8 7D4B     		ldr	r3, .L120
 1471 00ba 5B78     		ldrb	r3, [r3, #1]	@ zero_extendqisi2
 1472 00bc 002B     		cmp	r3, #0
 1473 00be 02D0     		beq	.L96
 612:.\SirenState.c **** 				disableBothSpeakers();
 1474              		.loc 1 612 0
 1475 00c0 FFF7FEFF 		bl	disableBothSpeakers
 1476 00c4 4DE1     		b	.L81
 1477              	.L96:
 613:.\SirenState.c **** 			else if(InputRead.bHornRing)
 1478              		.loc 1 613 0
 1479 00c6 7A4B     		ldr	r3, .L120
 1480 00c8 DB78     		ldrb	r3, [r3, #3]	@ zero_extendqisi2
 1481 00ca 002B     		cmp	r3, #0
 1482 00cc 0CD0     		beq	.L97
 614:.\SirenState.c **** 			{	//Plays NO TONE
 615:.\SirenState.c **** 				bToneChangeOnHornRing = !bToneChangeOnHornRing;
 1483              		.loc 1 615 0
 1484 00ce 7A4B     		ldr	r3, .L120+8
 1485 00d0 1B78     		ldrb	r3, [r3]	@ zero_extendqisi2
 1486 00d2 002B     		cmp	r3, #0
 1487 00d4 0CBF     		ite	eq
 1488 00d6 0123     		moveq	r3, #1
 1489 00d8 0023     		movne	r3, #0
 1490 00da DBB2     		uxtb	r3, r3
 1491 00dc 1A46     		mov	r2, r3
 1492 00de 764B     		ldr	r3, .L120+8
 1493 00e0 1A70     		strb	r2, [r3]
 616:.\SirenState.c **** 				disableBothSpeakers();
 1494              		.loc 1 616 0
 1495 00e2 FFF7FEFF 		bl	disableBothSpeakers
 1496 00e6 3CE1     		b	.L81
 1497              	.L97:
 617:.\SirenState.c **** 			}
 618:.\SirenState.c **** 			else if(bToneChangeOnHornRing)
 1498              		.loc 1 618 0
 1499 00e8 734B     		ldr	r3, .L120+8
 1500 00ea 1B78     		ldrb	r3, [r3]	@ zero_extendqisi2
 1501 00ec 002B     		cmp	r3, #0
 1502 00ee 2BD0     		beq	.L98
 619:.\SirenState.c **** 			{	//Plays SPEAKER 1 SIREN TONE
 620:.\SirenState.c **** 				enableSpeakerForSirenTone(SPEAKER_1, getAlternatingTone(ToneStatus.currentTone[SPEAKER_1]), 
 1503              		.loc 1 620 0
 1504 00f0 704B     		ldr	r3, .L120+4
 1505 00f2 9B78     		ldrb	r3, [r3, #2]	@ zero_extendqisi2
 1506 00f4 1846     		mov	r0, r3
 1507 00f6 FFF7FEFF 		bl	getAlternatingTone
 1508 00fa 0346     		mov	r3, r0
 1509 00fc 1A46     		mov	r2, r3
 1510 00fe 6D4B     		ldr	r3, .L120+4
 1511 0100 9B79     		ldrb	r3, [r3, #6]	@ zero_extendqisi2
 1512 0102 0020     		movs	r0, #0
 1513 0104 1146     		mov	r1, r2
 1514 0106 0122     		movs	r2, #1
 1515 0108 FFF7FEFF 		bl	enableSpeakerForSirenTone
ARM GAS  C:\Users\faithc\AppData\Local\Temp\cc1EpcH5.s 			page 39


 621:.\SirenState.c ****                     true, ToneStatus.bDualDelayEnable);
 622:.\SirenState.c **** 				
 623:.\SirenState.c **** 				if(ToneStatus.currentTone[SPEAKER_2] != NO_TONE)
 1516              		.loc 1 623 0
 1517 010c 694B     		ldr	r3, .L120+4
 1518 010e DB78     		ldrb	r3, [r3, #3]	@ zero_extendqisi2
 1519 0110 002B     		cmp	r3, #0
 1520 0112 0ED0     		beq	.L99
 624:.\SirenState.c **** 					enableSpeakerForSirenTone(SPEAKER_2, getAlternatingTone(ToneStatus.currentTone[SPEAKER_2]), 
 1521              		.loc 1 624 0
 1522 0114 674B     		ldr	r3, .L120+4
 1523 0116 DB78     		ldrb	r3, [r3, #3]	@ zero_extendqisi2
 1524 0118 1846     		mov	r0, r3
 1525 011a FFF7FEFF 		bl	getAlternatingTone
 1526 011e 0346     		mov	r3, r0
 1527 0120 1A46     		mov	r2, r3
 1528 0122 644B     		ldr	r3, .L120+4
 1529 0124 9B79     		ldrb	r3, [r3, #6]	@ zero_extendqisi2
 1530 0126 0120     		movs	r0, #1
 1531 0128 1146     		mov	r1, r2
 1532 012a 0122     		movs	r2, #1
 1533 012c FFF7FEFF 		bl	enableSpeakerForSirenTone
 1534 0130 17E1     		b	.L81
 1535              	.L99:
 625:.\SirenState.c ****                         true, ToneStatus.bDualDelayEnable);
 626:.\SirenState.c **** 				else
 627:.\SirenState.c ****                 {
 628:.\SirenState.c ****                     PowerAmpOutput2_Write(false);
 1536              		.loc 1 628 0
 1537 0132 0020     		movs	r0, #0
 1538 0134 FFF7FEFF 		bl	PowerAmpOutput2_Write
 629:.\SirenState.c ****                     enableSpeakerForSirenTone(SPEAKER_2, NO_TONE, false, ToneStatus.bDualDelayEnabl
 1539              		.loc 1 629 0
 1540 0138 5E4B     		ldr	r3, .L120+4
 1541 013a 9B79     		ldrb	r3, [r3, #6]	@ zero_extendqisi2
 1542 013c 0120     		movs	r0, #1
 1543 013e 0021     		movs	r1, #0
 1544 0140 0022     		movs	r2, #0
 1545 0142 FFF7FEFF 		bl	enableSpeakerForSirenTone
 1546 0146 0CE1     		b	.L81
 1547              	.L98:
 630:.\SirenState.c ****                 }
 631:.\SirenState.c **** 			}
 632:.\SirenState.c **** 			else
 633:.\SirenState.c **** 			{	//Plays SPEAKER 1 SIREN TONE
 634:.\SirenState.c **** 				enableSpeakerForSirenTone(SPEAKER_1, ToneStatus.currentTone[SPEAKER_1],
 1548              		.loc 1 634 0
 1549 0148 5A4B     		ldr	r3, .L120+4
 1550 014a 9A78     		ldrb	r2, [r3, #2]	@ zero_extendqisi2
 1551 014c 594B     		ldr	r3, .L120+4
 1552 014e 9B79     		ldrb	r3, [r3, #6]	@ zero_extendqisi2
 1553 0150 0020     		movs	r0, #0
 1554 0152 1146     		mov	r1, r2
 1555 0154 0122     		movs	r2, #1
 1556 0156 FFF7FEFF 		bl	enableSpeakerForSirenTone
 635:.\SirenState.c ****                     true, ToneStatus.bDualDelayEnable);
 636:.\SirenState.c **** 				
ARM GAS  C:\Users\faithc\AppData\Local\Temp\cc1EpcH5.s 			page 40


 637:.\SirenState.c **** 				if(ToneStatus.currentTone[SPEAKER_2] != NO_TONE)
 1557              		.loc 1 637 0
 1558 015a 564B     		ldr	r3, .L120+4
 1559 015c DB78     		ldrb	r3, [r3, #3]	@ zero_extendqisi2
 1560 015e 002B     		cmp	r3, #0
 1561 0160 09D0     		beq	.L101
 638:.\SirenState.c **** 					enableSpeakerForSirenTone(SPEAKER_2, ToneStatus.currentTone[SPEAKER_2],
 1562              		.loc 1 638 0
 1563 0162 544B     		ldr	r3, .L120+4
 1564 0164 DA78     		ldrb	r2, [r3, #3]	@ zero_extendqisi2
 1565 0166 534B     		ldr	r3, .L120+4
 1566 0168 9B79     		ldrb	r3, [r3, #6]	@ zero_extendqisi2
 1567 016a 0120     		movs	r0, #1
 1568 016c 1146     		mov	r1, r2
 1569 016e 0122     		movs	r2, #1
 1570 0170 FFF7FEFF 		bl	enableSpeakerForSirenTone
 1571 0174 F5E0     		b	.L81
 1572              	.L101:
 639:.\SirenState.c ****                         true, ToneStatus.bDualDelayEnable);
 640:.\SirenState.c **** 				else
 641:.\SirenState.c ****                 {
 642:.\SirenState.c **** 				    PowerAmpOutput2_Write(false);
 1573              		.loc 1 642 0
 1574 0176 0020     		movs	r0, #0
 1575 0178 FFF7FEFF 		bl	PowerAmpOutput2_Write
 643:.\SirenState.c ****                     enableSpeakerForSirenTone(SPEAKER_2, NO_TONE, false, ToneStatus.bDualDelayEnabl
 1576              		.loc 1 643 0
 1577 017c 4D4B     		ldr	r3, .L120+4
 1578 017e 9B79     		ldrb	r3, [r3, #6]	@ zero_extendqisi2
 1579 0180 0120     		movs	r0, #1
 1580 0182 0021     		movs	r1, #0
 1581 0184 0022     		movs	r2, #0
 1582 0186 FFF7FEFF 		bl	enableSpeakerForSirenTone
 1583 018a EAE0     		b	.L81
 1584              	.L84:
 644:.\SirenState.c ****                 }
 645:.\SirenState.c **** 			}
 646:.\SirenState.c **** 		}
 647:.\SirenState.c **** 	}
 648:.\SirenState.c **** 	else if(ToneStatus.currentTone[SPEAKER_2] != NO_TONE)
 1585              		.loc 1 648 0
 1586 018c 494B     		ldr	r3, .L120+4
 1587 018e DB78     		ldrb	r3, [r3, #3]	@ zero_extendqisi2
 1588 0190 002B     		cmp	r3, #0
 1589 0192 6FD0     		beq	.L102
 649:.\SirenState.c **** 	{
 650:.\SirenState.c **** 		if(isAudioTone(ToneStatus.currentTone[SPEAKER_2]))
 1590              		.loc 1 650 0
 1591 0194 474B     		ldr	r3, .L120+4
 1592 0196 DB78     		ldrb	r3, [r3, #3]	@ zero_extendqisi2
 1593 0198 1846     		mov	r0, r3
 1594 019a FFF7FEFF 		bl	isAudioTone
 1595 019e 0346     		mov	r3, r0
 1596 01a0 002B     		cmp	r3, #0
 1597 01a2 1ED0     		beq	.L103
 651:.\SirenState.c **** 		{
 652:.\SirenState.c **** 			if(isSong(ToneStatus.currentTone[SPEAKER_2]))
ARM GAS  C:\Users\faithc\AppData\Local\Temp\cc1EpcH5.s 			page 41


 1598              		.loc 1 652 0
 1599 01a4 434B     		ldr	r3, .L120+4
 1600 01a6 DB78     		ldrb	r3, [r3, #3]	@ zero_extendqisi2
 1601 01a8 1846     		mov	r0, r3
 1602 01aa FFF7FEFF 		bl	isSong
 1603 01ae 0346     		mov	r3, r0
 1604 01b0 002B     		cmp	r3, #0
 1605 01b2 0ED0     		beq	.L104
 653:.\SirenState.c **** 			{
 654:.\SirenState.c **** 				if(ToneStatus.bRisingEdge[SPEAKER_2])	//Plays BAD BOYS	
 1606              		.loc 1 654 0
 1607 01b4 3F4B     		ldr	r3, .L120+4
 1608 01b6 5B79     		ldrb	r3, [r3, #5]	@ zero_extendqisi2
 1609 01b8 002B     		cmp	r3, #0
 1610 01ba 07D0     		beq	.L105
 655:.\SirenState.c **** 					enableSpeakersForAudioTone(SPEAKER_2, ToneStatus.currentTone[SPEAKER_2], true);
 1611              		.loc 1 655 0
 1612 01bc 3D4B     		ldr	r3, .L120+4
 1613 01be DB78     		ldrb	r3, [r3, #3]	@ zero_extendqisi2
 1614 01c0 0120     		movs	r0, #1
 1615 01c2 1946     		mov	r1, r3
 1616 01c4 0122     		movs	r2, #1
 1617 01c6 FFF7FEFF 		bl	enableSpeakersForAudioTone
 1618 01ca CAE0     		b	.L81
 1619              	.L105:
 656:.\SirenState.c **** 				else	//Plays NO TONE
 657:.\SirenState.c **** 					disableBothSpeakers();
 1620              		.loc 1 657 0
 1621 01cc FFF7FEFF 		bl	disableBothSpeakers
 1622 01d0 C7E0     		b	.L81
 1623              	.L104:
 658:.\SirenState.c **** 				
 659:.\SirenState.c **** 			}
 660:.\SirenState.c **** 			else	//Plays ECTO OR COMMAND 
 661:.\SirenState.c **** 				enableSpeakersForAudioTone(SPEAKER_2, ToneStatus.currentTone[SPEAKER_2], true);
 1624              		.loc 1 661 0
 1625 01d2 384B     		ldr	r3, .L120+4
 1626 01d4 DB78     		ldrb	r3, [r3, #3]	@ zero_extendqisi2
 1627 01d6 0120     		movs	r0, #1
 1628 01d8 1946     		mov	r1, r3
 1629 01da 0122     		movs	r2, #1
 1630 01dc FFF7FEFF 		bl	enableSpeakersForAudioTone
 1631 01e0 BFE0     		b	.L81
 1632              	.L103:
 662:.\SirenState.c **** 		}
 663:.\SirenState.c **** 		else
 664:.\SirenState.c **** 		{	
 665:.\SirenState.c **** 			if(InputRead.bParkKill)	//Plays NO TONE
 1633              		.loc 1 665 0
 1634 01e2 334B     		ldr	r3, .L120
 1635 01e4 5B78     		ldrb	r3, [r3, #1]	@ zero_extendqisi2
 1636 01e6 002B     		cmp	r3, #0
 1637 01e8 02D0     		beq	.L109
 666:.\SirenState.c **** 				disableBothSpeakers();
 1638              		.loc 1 666 0
 1639 01ea FFF7FEFF 		bl	disableBothSpeakers
 1640 01ee B8E0     		b	.L81
ARM GAS  C:\Users\faithc\AppData\Local\Temp\cc1EpcH5.s 			page 42


 1641              	.L109:
 667:.\SirenState.c **** 			else if(InputRead.bHornRing)
 1642              		.loc 1 667 0
 1643 01f0 2F4B     		ldr	r3, .L120
 1644 01f2 DB78     		ldrb	r3, [r3, #3]	@ zero_extendqisi2
 1645 01f4 002B     		cmp	r3, #0
 1646 01f6 0CD0     		beq	.L110
 668:.\SirenState.c **** 			{	//Plays NO TONE
 669:.\SirenState.c **** 				bToneChangeOnHornRing = !bToneChangeOnHornRing;
 1647              		.loc 1 669 0
 1648 01f8 2F4B     		ldr	r3, .L120+8
 1649 01fa 1B78     		ldrb	r3, [r3]	@ zero_extendqisi2
 1650 01fc 002B     		cmp	r3, #0
 1651 01fe 0CBF     		ite	eq
 1652 0200 0123     		moveq	r3, #1
 1653 0202 0023     		movne	r3, #0
 1654 0204 DBB2     		uxtb	r3, r3
 1655 0206 1A46     		mov	r2, r3
 1656 0208 2B4B     		ldr	r3, .L120+8
 1657 020a 1A70     		strb	r2, [r3]
 670:.\SirenState.c **** 				disableBothSpeakers();
 1658              		.loc 1 670 0
 1659 020c FFF7FEFF 		bl	disableBothSpeakers
 1660 0210 A7E0     		b	.L81
 1661              	.L110:
 671:.\SirenState.c **** 			}
 672:.\SirenState.c **** 			else if(bToneChangeOnHornRing)
 1662              		.loc 1 672 0
 1663 0212 294B     		ldr	r3, .L120+8
 1664 0214 1B78     		ldrb	r3, [r3]	@ zero_extendqisi2
 1665 0216 002B     		cmp	r3, #0
 1666 0218 18D0     		beq	.L111
 673:.\SirenState.c **** 			{	//Plays SPEAKER 2 SIREN TONE
 674:.\SirenState.c **** 				PowerAmpOutput1_Write(false);
 1667              		.loc 1 674 0
 1668 021a 0020     		movs	r0, #0
 1669 021c FFF7FEFF 		bl	PowerAmpOutput1_Write
 675:.\SirenState.c ****                 enableSpeakerForSirenTone(SPEAKER_1, NO_TONE, false, ToneStatus.bDualDelayEnable);
 1670              		.loc 1 675 0
 1671 0220 244B     		ldr	r3, .L120+4
 1672 0222 9B79     		ldrb	r3, [r3, #6]	@ zero_extendqisi2
 1673 0224 0020     		movs	r0, #0
 1674 0226 0021     		movs	r1, #0
 1675 0228 0022     		movs	r2, #0
 1676 022a FFF7FEFF 		bl	enableSpeakerForSirenTone
 676:.\SirenState.c **** 				enableSpeakerForSirenTone(SPEAKER_2, getAlternatingTone(ToneStatus.currentTone[SPEAKER_2]),
 1677              		.loc 1 676 0
 1678 022e 214B     		ldr	r3, .L120+4
 1679 0230 DB78     		ldrb	r3, [r3, #3]	@ zero_extendqisi2
 1680 0232 1846     		mov	r0, r3
 1681 0234 FFF7FEFF 		bl	getAlternatingTone
 1682 0238 0346     		mov	r3, r0
 1683 023a 1A46     		mov	r2, r3
 1684 023c 1C4B     		ldr	r3, .L120
 1685 023e 1B79     		ldrb	r3, [r3, #4]	@ zero_extendqisi2
 1686 0240 0120     		movs	r0, #1
 1687 0242 1146     		mov	r1, r2
ARM GAS  C:\Users\faithc\AppData\Local\Temp\cc1EpcH5.s 			page 43


 1688 0244 0122     		movs	r2, #1
 1689 0246 FFF7FEFF 		bl	enableSpeakerForSirenTone
 1690 024a 8AE0     		b	.L81
 1691              	.L111:
 677:.\SirenState.c ****                     true, InputRead.bDualDelay);
 678:.\SirenState.c **** 			}
 679:.\SirenState.c **** 			else
 680:.\SirenState.c **** 			{	//Plays SPEAKER 2 SIREN TONE
 681:.\SirenState.c **** 				PowerAmpOutput1_Write(false);
 1692              		.loc 1 681 0
 1693 024c 0020     		movs	r0, #0
 1694 024e FFF7FEFF 		bl	PowerAmpOutput1_Write
 682:.\SirenState.c ****                 enableSpeakerForSirenTone(SPEAKER_1, NO_TONE, false, ToneStatus.bDualDelayEnable);
 1695              		.loc 1 682 0
 1696 0252 184B     		ldr	r3, .L120+4
 1697 0254 9B79     		ldrb	r3, [r3, #6]	@ zero_extendqisi2
 1698 0256 0020     		movs	r0, #0
 1699 0258 0021     		movs	r1, #0
 1700 025a 0022     		movs	r2, #0
 1701 025c FFF7FEFF 		bl	enableSpeakerForSirenTone
 683:.\SirenState.c **** 				enableSpeakerForSirenTone(SPEAKER_2, ToneStatus.currentTone[SPEAKER_2],
 1702              		.loc 1 683 0
 1703 0260 144B     		ldr	r3, .L120+4
 1704 0262 DA78     		ldrb	r2, [r3, #3]	@ zero_extendqisi2
 1705 0264 124B     		ldr	r3, .L120
 1706 0266 1B79     		ldrb	r3, [r3, #4]	@ zero_extendqisi2
 1707 0268 0120     		movs	r0, #1
 1708 026a 1146     		mov	r1, r2
 1709 026c 0122     		movs	r2, #1
 1710 026e FFF7FEFF 		bl	enableSpeakerForSirenTone
 1711 0272 76E0     		b	.L81
 1712              	.L102:
 684:.\SirenState.c ****                     true, InputRead.bDualDelay);
 685:.\SirenState.c **** 			}
 686:.\SirenState.c **** 		}
 687:.\SirenState.c **** 	}
 688:.\SirenState.c **** 	else
 689:.\SirenState.c **** 	{	
 690:.\SirenState.c ****         if(InputRead.bParkKill)
 1713              		.loc 1 690 0
 1714 0274 0E4B     		ldr	r3, .L120
 1715 0276 5B78     		ldrb	r3, [r3, #1]	@ zero_extendqisi2
 1716 0278 002B     		cmp	r3, #0
 1717 027a 02D0     		beq	.L112
 691:.\SirenState.c ****             disableBothSpeakers();
 1718              		.loc 1 691 0
 1719 027c FFF7FEFF 		bl	disableBothSpeakers
 1720 0280 6FE0     		b	.L81
 1721              	.L112:
 692:.\SirenState.c ****         else
 693:.\SirenState.c ****         {
 694:.\SirenState.c ****     		if(InputRead.bHornRing)
 1722              		.loc 1 694 0
 1723 0282 0B4B     		ldr	r3, .L120
 1724 0284 DB78     		ldrb	r3, [r3, #3]	@ zero_extendqisi2
 1725 0286 002B     		cmp	r3, #0
 1726 0288 18D0     		beq	.L113
ARM GAS  C:\Users\faithc\AppData\Local\Temp\cc1EpcH5.s 			page 44


 695:.\SirenState.c ****     		{	//Plays HORN
 696:.\SirenState.c ****     			bToneChangeOnHornRing = false;
 1727              		.loc 1 696 0
 1728 028a 0B4B     		ldr	r3, .L120+8
 1729 028c 0022     		movs	r2, #0
 1730 028e 1A70     		strb	r2, [r3]
 697:.\SirenState.c ****     			deactivateManualWail();
 1731              		.loc 1 697 0
 1732 0290 FFF7FEFF 		bl	deactivateManualWail
 698:.\SirenState.c ****     			enableSpeakerForSirenTone(SPEAKER_1, HORN, false, false);
 1733              		.loc 1 698 0
 1734 0294 0020     		movs	r0, #0
 1735 0296 0521     		movs	r1, #5
 1736 0298 0022     		movs	r2, #0
 1737 029a 0023     		movs	r3, #0
 1738 029c FFF7FEFF 		bl	enableSpeakerForSirenTone
 699:.\SirenState.c ****     			enableSpeakerForSirenTone(SPEAKER_2, HORN, false, false);
 1739              		.loc 1 699 0
 1740 02a0 0120     		movs	r0, #1
 1741 02a2 0521     		movs	r1, #5
 1742 02a4 0022     		movs	r2, #0
 1743 02a6 0023     		movs	r3, #0
 1744 02a8 FFF7FEFF 		bl	enableSpeakerForSirenTone
 1745 02ac 59E0     		b	.L81
 1746              	.L121:
 1747 02ae 00BF     		.align	2
 1748              	.L120:
 1749 02b0 0C000000 		.word	InputRead
 1750 02b4 14000000 		.word	ToneStatus
 1751 02b8 1E000000 		.word	bToneChangeOnHornRing.7384
 1752              	.L113:
 700:.\SirenState.c ****     		}
 701:.\SirenState.c ****     		else if(isTrailingTone(ToneStatus.previousTone[SPEAKER_1]))
 1753              		.loc 1 701 0
 1754 02bc 294B     		ldr	r3, .L122
 1755 02be 1B78     		ldrb	r3, [r3]	@ zero_extendqisi2
 1756 02c0 1846     		mov	r0, r3
 1757 02c2 FFF7FEFF 		bl	isTrailingTone
 1758 02c6 0346     		mov	r3, r0
 1759 02c8 002B     		cmp	r3, #0
 1760 02ca 1ED0     		beq	.L114
 702:.\SirenState.c ****     		{
 703:.\SirenState.c ****     			if(isAudioTone(ToneStatus.previousTone[SPEAKER_1]))	//Plays ECTO or COMMAND	
 1761              		.loc 1 703 0
 1762 02cc 254B     		ldr	r3, .L122
 1763 02ce 1B78     		ldrb	r3, [r3]	@ zero_extendqisi2
 1764 02d0 1846     		mov	r0, r3
 1765 02d2 FFF7FEFF 		bl	isAudioTone
 1766 02d6 0346     		mov	r3, r0
 1767 02d8 002B     		cmp	r3, #0
 1768 02da 07D0     		beq	.L115
 704:.\SirenState.c ****     				enableSpeakersForAudioTone(SPEAKER_1, ToneStatus.previousTone[SPEAKER_1], false);
 1769              		.loc 1 704 0
 1770 02dc 214B     		ldr	r3, .L122
 1771 02de 1B78     		ldrb	r3, [r3]	@ zero_extendqisi2
 1772 02e0 0020     		movs	r0, #0
 1773 02e2 1946     		mov	r1, r3
ARM GAS  C:\Users\faithc\AppData\Local\Temp\cc1EpcH5.s 			page 45


 1774 02e4 0022     		movs	r2, #0
 1775 02e6 FFF7FEFF 		bl	enableSpeakersForAudioTone
 1776 02ea 07E0     		b	.L116
 1777              	.L115:
 705:.\SirenState.c ****     			else	//Plays MANUAL WAIL
 706:.\SirenState.c ****     				enableSpeakerForSirenTone(SPEAKER_1, ToneStatus.previousTone[SPEAKER_1], false, false);	
 1778              		.loc 1 706 0
 1779 02ec 1D4B     		ldr	r3, .L122
 1780 02ee 1B78     		ldrb	r3, [r3]	@ zero_extendqisi2
 1781 02f0 0020     		movs	r0, #0
 1782 02f2 1946     		mov	r1, r3
 1783 02f4 0022     		movs	r2, #0
 1784 02f6 0023     		movs	r3, #0
 1785 02f8 FFF7FEFF 		bl	enableSpeakerForSirenTone
 1786              	.L116:
 707:.\SirenState.c ****                 
 708:.\SirenState.c ****                 ToneStatus.previousTone[SPEAKER_1] = NO_TONE;
 1787              		.loc 1 708 0
 1788 02fc 194B     		ldr	r3, .L122
 1789 02fe 0022     		movs	r2, #0
 1790 0300 1A70     		strb	r2, [r3]
 709:.\SirenState.c ****                 bToneChangeOnHornRing = false;
 1791              		.loc 1 709 0
 1792 0302 194B     		ldr	r3, .L122+4
 1793 0304 0022     		movs	r2, #0
 1794 0306 1A70     		strb	r2, [r3]
 1795 0308 2BE0     		b	.L81
 1796              	.L114:
 710:.\SirenState.c ****     		}
 711:.\SirenState.c ****     		else if(isTrailingTone(ToneStatus.previousTone[SPEAKER_2]))
 1797              		.loc 1 711 0
 1798 030a 164B     		ldr	r3, .L122
 1799 030c 5B78     		ldrb	r3, [r3, #1]	@ zero_extendqisi2
 1800 030e 1846     		mov	r0, r3
 1801 0310 FFF7FEFF 		bl	isTrailingTone
 1802 0314 0346     		mov	r3, r0
 1803 0316 002B     		cmp	r3, #0
 1804 0318 1ED0     		beq	.L117
 712:.\SirenState.c ****     		{
 713:.\SirenState.c ****     			if(isAudioTone(ToneStatus.previousTone[SPEAKER_2]))	//Plays ECTO or COMMAND	
 1805              		.loc 1 713 0
 1806 031a 124B     		ldr	r3, .L122
 1807 031c 5B78     		ldrb	r3, [r3, #1]	@ zero_extendqisi2
 1808 031e 1846     		mov	r0, r3
 1809 0320 FFF7FEFF 		bl	isAudioTone
 1810 0324 0346     		mov	r3, r0
 1811 0326 002B     		cmp	r3, #0
 1812 0328 07D0     		beq	.L118
 714:.\SirenState.c ****     				enableSpeakersForAudioTone(SPEAKER_2, ToneStatus.previousTone[SPEAKER_2], false);	
 1813              		.loc 1 714 0
 1814 032a 0E4B     		ldr	r3, .L122
 1815 032c 5B78     		ldrb	r3, [r3, #1]	@ zero_extendqisi2
 1816 032e 0120     		movs	r0, #1
 1817 0330 1946     		mov	r1, r3
 1818 0332 0022     		movs	r2, #0
 1819 0334 FFF7FEFF 		bl	enableSpeakersForAudioTone
 1820 0338 07E0     		b	.L119
ARM GAS  C:\Users\faithc\AppData\Local\Temp\cc1EpcH5.s 			page 46


 1821              	.L118:
 715:.\SirenState.c ****     			else	//Plays MANUAL WAIL	
 716:.\SirenState.c ****     				enableSpeakerForSirenTone(SPEAKER_2, ToneStatus.previousTone[SPEAKER_2], false, false);	
 1822              		.loc 1 716 0
 1823 033a 0A4B     		ldr	r3, .L122
 1824 033c 5B78     		ldrb	r3, [r3, #1]	@ zero_extendqisi2
 1825 033e 0120     		movs	r0, #1
 1826 0340 1946     		mov	r1, r3
 1827 0342 0022     		movs	r2, #0
 1828 0344 0023     		movs	r3, #0
 1829 0346 FFF7FEFF 		bl	enableSpeakerForSirenTone
 1830              	.L119:
 717:.\SirenState.c ****                     
 718:.\SirenState.c ****                 ToneStatus.previousTone[SPEAKER_2] = NO_TONE;
 1831              		.loc 1 718 0
 1832 034a 064B     		ldr	r3, .L122
 1833 034c 0022     		movs	r2, #0
 1834 034e 5A70     		strb	r2, [r3, #1]
 719:.\SirenState.c ****                 bToneChangeOnHornRing = false;
 1835              		.loc 1 719 0
 1836 0350 054B     		ldr	r3, .L122+4
 1837 0352 0022     		movs	r2, #0
 1838 0354 1A70     		strb	r2, [r3]
 1839 0356 04E0     		b	.L81
 1840              	.L117:
 720:.\SirenState.c ****     		}
 721:.\SirenState.c ****     		else	//Plays NO TONE
 722:.\SirenState.c ****             {
 723:.\SirenState.c ****                 bToneChangeOnHornRing = false;
 1841              		.loc 1 723 0
 1842 0358 034B     		ldr	r3, .L122+4
 1843 035a 0022     		movs	r2, #0
 1844 035c 1A70     		strb	r2, [r3]
 724:.\SirenState.c ****     			disableBothSpeakers();
 1845              		.loc 1 724 0
 1846 035e FFF7FEFF 		bl	disableBothSpeakers
 1847              	.L81:
 725:.\SirenState.c ****             }
 726:.\SirenState.c ****         }
 727:.\SirenState.c **** 	}
 728:.\SirenState.c **** }
 1848              		.loc 1 728 0
 1849 0362 80BD     		pop	{r7, pc}
 1850              	.L123:
 1851              		.align	2
 1852              	.L122:
 1853 0364 14000000 		.word	ToneStatus
 1854 0368 1E000000 		.word	bToneChangeOnHornRing.7384
 1855              		.cfi_endproc
 1856              	.LFE76:
 1857              		.size	decideTonesToPlay, .-decideTonesToPlay
 1858              		.section	.text.enableSpeakerForSirenTone,"ax",%progbits
 1859              		.align	2
 1860              		.thumb
 1861              		.thumb_func
 1862              		.type	enableSpeakerForSirenTone, %function
 1863              	enableSpeakerForSirenTone:
ARM GAS  C:\Users\faithc\AppData\Local\Temp\cc1EpcH5.s 			page 47


 1864              	.LFB77:
 729:.\SirenState.c **** 
 730:.\SirenState.c **** /*******************************************************************************
 731:.\SirenState.c **** * Function Name: enableSpeakerForSirenTone
 732:.\SirenState.c **** ********************************************************************************
 733:.\SirenState.c **** *
 734:.\SirenState.c **** * Summary:
 735:.\SirenState.c **** *   Procedure for enabling a siren tone for the selected speaker
 736:.\SirenState.c **** *
 737:.\SirenState.c **** * Parameters: 
 738:.\SirenState.c **** *   bSpeaker: Speaker selection (SPEAKER_1 or SPEAKER_2)
 739:.\SirenState.c **** *   toneSelection: The tone to play
 740:.\SirenState.c **** *   bInputEnable: The current input status
 741:.\SirenState.c **** *   bDelay: The Dual Delay status
 742:.\SirenState.c **** *
 743:.\SirenState.c **** * Return:
 744:.\SirenState.c **** *   TRUE for valid inputs, FALSE otherwise
 745:.\SirenState.c **** *
 746:.\SirenState.c **** *******************************************************************************/
 747:.\SirenState.c **** static uint8 enableSpeakerForSirenTone(uint8 bSpeaker, enum ToneType toneSelection,
 748:.\SirenState.c ****                                     uint8 bInputEnable, uint8 bDelay)
 749:.\SirenState.c **** {
 1865              		.loc 1 749 0
 1866              		.cfi_startproc
 1867              		@ args = 0, pretend = 0, frame = 8
 1868              		@ frame_needed = 1, uses_anonymous_args = 0
 1869 0000 90B5     		push	{r4, r7, lr}
 1870              		.cfi_def_cfa_offset 12
 1871              		.cfi_offset 4, -12
 1872              		.cfi_offset 7, -8
 1873              		.cfi_offset 14, -4
 1874 0002 83B0     		sub	sp, sp, #12
 1875              		.cfi_def_cfa_offset 24
 1876 0004 00AF     		add	r7, sp, #0
 1877              		.cfi_def_cfa_register 7
 1878 0006 0446     		mov	r4, r0
 1879 0008 0846     		mov	r0, r1
 1880 000a 1146     		mov	r1, r2
 1881 000c 1A46     		mov	r2, r3
 1882 000e 2346     		mov	r3, r4
 1883 0010 FB71     		strb	r3, [r7, #7]
 1884 0012 0346     		mov	r3, r0
 1885 0014 BB71     		strb	r3, [r7, #6]
 1886 0016 0B46     		mov	r3, r1
 1887 0018 7B71     		strb	r3, [r7, #5]
 1888 001a 1346     		mov	r3, r2
 1889 001c 3B71     		strb	r3, [r7, #4]
 750:.\SirenState.c **** 	if((bSpeaker != SPEAKER_1) && (bSpeaker != SPEAKER_2))
 1890              		.loc 1 750 0
 1891 001e FB79     		ldrb	r3, [r7, #7]	@ zero_extendqisi2
 1892 0020 002B     		cmp	r3, #0
 1893 0022 04D0     		beq	.L125
 1894              		.loc 1 750 0 is_stmt 0 discriminator 1
 1895 0024 FB79     		ldrb	r3, [r7, #7]	@ zero_extendqisi2
 1896 0026 012B     		cmp	r3, #1
 1897 0028 01D0     		beq	.L125
 751:.\SirenState.c ****         return false;
ARM GAS  C:\Users\faithc\AppData\Local\Temp\cc1EpcH5.s 			page 48


 1898              		.loc 1 751 0 is_stmt 1
 1899 002a 0023     		movs	r3, #0
 1900 002c 28E0     		b	.L126
 1901              	.L125:
 752:.\SirenState.c ****     
 753:.\SirenState.c ****     if((toneSelection < NO_TONE) || (toneSelection > TEST_TONE))
 1902              		.loc 1 753 0
 1903 002e BB79     		ldrb	r3, [r7, #6]	@ zero_extendqisi2
 1904 0030 162B     		cmp	r3, #22
 1905 0032 01D9     		bls	.L127
 754:.\SirenState.c ****         return false;
 1906              		.loc 1 754 0
 1907 0034 0023     		movs	r3, #0
 1908 0036 23E0     		b	.L126
 1909              	.L127:
 755:.\SirenState.c ****     
 756:.\SirenState.c ****     if((bInputEnable != true) && (bInputEnable != false))
 1910              		.loc 1 756 0
 1911 0038 7B79     		ldrb	r3, [r7, #5]	@ zero_extendqisi2
 1912 003a 012B     		cmp	r3, #1
 1913 003c 04D0     		beq	.L128
 1914              		.loc 1 756 0 is_stmt 0 discriminator 1
 1915 003e 7B79     		ldrb	r3, [r7, #5]	@ zero_extendqisi2
 1916 0040 002B     		cmp	r3, #0
 1917 0042 01D0     		beq	.L128
 757:.\SirenState.c ****         return false;
 1918              		.loc 1 757 0 is_stmt 1
 1919 0044 0023     		movs	r3, #0
 1920 0046 1BE0     		b	.L126
 1921              	.L128:
 758:.\SirenState.c ****     
 759:.\SirenState.c ****     deactivateAudio();
 1922              		.loc 1 759 0
 1923 0048 FFF7FEFF 		bl	deactivateAudio
 760:.\SirenState.c ****     playAudioTone(bSpeaker, NO_TONE, false);
 1924              		.loc 1 760 0
 1925 004c FB79     		ldrb	r3, [r7, #7]	@ zero_extendqisi2
 1926 004e 1846     		mov	r0, r3
 1927 0050 0021     		movs	r1, #0
 1928 0052 0022     		movs	r2, #0
 1929 0054 FFF7FEFF 		bl	playAudioTone
 761:.\SirenState.c **** 	playPWMTone(bSpeaker, toneSelection, bInputEnable, bDelay);
 1930              		.loc 1 761 0
 1931 0058 F879     		ldrb	r0, [r7, #7]	@ zero_extendqisi2
 1932 005a B979     		ldrb	r1, [r7, #6]	@ zero_extendqisi2
 1933 005c 7A79     		ldrb	r2, [r7, #5]	@ zero_extendqisi2
 1934 005e 3B79     		ldrb	r3, [r7, #4]	@ zero_extendqisi2
 1935 0060 FFF7FEFF 		bl	playPWMTone
 762:.\SirenState.c **** 	
 763:.\SirenState.c ****     if(toneSelection != NO_TONE)
 1936              		.loc 1 763 0
 1937 0064 BB79     		ldrb	r3, [r7, #6]	@ zero_extendqisi2
 1938 0066 002B     		cmp	r3, #0
 1939 0068 09D0     		beq	.L129
 764:.\SirenState.c ****     {
 765:.\SirenState.c ****     	if(bSpeaker)
 1940              		.loc 1 765 0
ARM GAS  C:\Users\faithc\AppData\Local\Temp\cc1EpcH5.s 			page 49


 1941 006a FB79     		ldrb	r3, [r7, #7]	@ zero_extendqisi2
 1942 006c 002B     		cmp	r3, #0
 1943 006e 03D0     		beq	.L130
 766:.\SirenState.c ****     		PowerAmpOutput2_Write(true);
 1944              		.loc 1 766 0
 1945 0070 0120     		movs	r0, #1
 1946 0072 FFF7FEFF 		bl	PowerAmpOutput2_Write
 1947 0076 02E0     		b	.L129
 1948              	.L130:
 767:.\SirenState.c ****     	else
 768:.\SirenState.c ****     		PowerAmpOutput1_Write(true);
 1949              		.loc 1 768 0
 1950 0078 0120     		movs	r0, #1
 1951 007a FFF7FEFF 		bl	PowerAmpOutput1_Write
 1952              	.L129:
 769:.\SirenState.c ****     }
 770:.\SirenState.c ****         
 771:.\SirenState.c ****     return true;
 1953              		.loc 1 771 0
 1954 007e 0123     		movs	r3, #1
 1955              	.L126:
 772:.\SirenState.c **** }
 1956              		.loc 1 772 0
 1957 0080 1846     		mov	r0, r3
 1958 0082 0C37     		adds	r7, r7, #12
 1959              		.cfi_def_cfa_offset 12
 1960 0084 BD46     		mov	sp, r7
 1961              		.cfi_def_cfa_register 13
 1962              		@ sp needed
 1963 0086 90BD     		pop	{r4, r7, pc}
 1964              		.cfi_endproc
 1965              	.LFE77:
 1966              		.size	enableSpeakerForSirenTone, .-enableSpeakerForSirenTone
 1967              		.section	.text.enableSpeakersForAudioTone,"ax",%progbits
 1968              		.align	2
 1969              		.thumb
 1970              		.thumb_func
 1971              		.type	enableSpeakersForAudioTone, %function
 1972              	enableSpeakersForAudioTone:
 1973              	.LFB78:
 773:.\SirenState.c **** 
 774:.\SirenState.c **** /*******************************************************************************
 775:.\SirenState.c **** * Function Name: enableSpeakersForAudioTone
 776:.\SirenState.c **** ********************************************************************************
 777:.\SirenState.c **** *
 778:.\SirenState.c **** * Summary:
 779:.\SirenState.c **** *   Procedure for enabling an audio tone for the selected speaker
 780:.\SirenState.c **** *
 781:.\SirenState.c **** * Parameters: 
 782:.\SirenState.c **** *   bSpeaker: Speaker selection (SPEAKER_1 or SPEAKER_2)
 783:.\SirenState.c **** *   toneSelection: The tone to play
 784:.\SirenState.c **** *   bInputEnable: The current input status
 785:.\SirenState.c **** *
 786:.\SirenState.c **** * Return:
 787:.\SirenState.c **** *   TRUE for valid inputs, FALSE otherwise
 788:.\SirenState.c **** *
 789:.\SirenState.c **** *******************************************************************************/
ARM GAS  C:\Users\faithc\AppData\Local\Temp\cc1EpcH5.s 			page 50


 790:.\SirenState.c **** static uint8 enableSpeakersForAudioTone(uint8 bSpeaker, enum ToneType toneSelection,
 791:.\SirenState.c ****                                         uint8 bInputEnable)
 792:.\SirenState.c **** {
 1974              		.loc 1 792 0
 1975              		.cfi_startproc
 1976              		@ args = 0, pretend = 0, frame = 8
 1977              		@ frame_needed = 1, uses_anonymous_args = 0
 1978 0000 80B5     		push	{r7, lr}
 1979              		.cfi_def_cfa_offset 8
 1980              		.cfi_offset 7, -8
 1981              		.cfi_offset 14, -4
 1982 0002 82B0     		sub	sp, sp, #8
 1983              		.cfi_def_cfa_offset 16
 1984 0004 00AF     		add	r7, sp, #0
 1985              		.cfi_def_cfa_register 7
 1986 0006 0346     		mov	r3, r0
 1987 0008 FB71     		strb	r3, [r7, #7]
 1988 000a 0B46     		mov	r3, r1
 1989 000c BB71     		strb	r3, [r7, #6]
 1990 000e 1346     		mov	r3, r2
 1991 0010 7B71     		strb	r3, [r7, #5]
 793:.\SirenState.c **** 	if((bSpeaker != SPEAKER_1) && (bSpeaker != SPEAKER_2))
 1992              		.loc 1 793 0
 1993 0012 FB79     		ldrb	r3, [r7, #7]	@ zero_extendqisi2
 1994 0014 002B     		cmp	r3, #0
 1995 0016 04D0     		beq	.L132
 1996              		.loc 1 793 0 is_stmt 0 discriminator 1
 1997 0018 FB79     		ldrb	r3, [r7, #7]	@ zero_extendqisi2
 1998 001a 012B     		cmp	r3, #1
 1999 001c 01D0     		beq	.L132
 794:.\SirenState.c ****         return false;
 2000              		.loc 1 794 0 is_stmt 1
 2001 001e 0023     		movs	r3, #0
 2002 0020 27E0     		b	.L133
 2003              	.L132:
 795:.\SirenState.c ****     
 796:.\SirenState.c ****     if((toneSelection < WAIL) || (toneSelection > TEST_TONE))
 2004              		.loc 1 796 0
 2005 0022 BB79     		ldrb	r3, [r7, #6]	@ zero_extendqisi2
 2006 0024 002B     		cmp	r3, #0
 2007 0026 02D0     		beq	.L134
 2008              		.loc 1 796 0 is_stmt 0 discriminator 1
 2009 0028 BB79     		ldrb	r3, [r7, #6]	@ zero_extendqisi2
 2010 002a 162B     		cmp	r3, #22
 2011 002c 01D9     		bls	.L135
 2012              	.L134:
 797:.\SirenState.c ****         return false;
 2013              		.loc 1 797 0 is_stmt 1
 2014 002e 0023     		movs	r3, #0
 2015 0030 1FE0     		b	.L133
 2016              	.L135:
 798:.\SirenState.c ****     
 799:.\SirenState.c ****     if((bInputEnable != true) && (bInputEnable != false))
 2017              		.loc 1 799 0
 2018 0032 7B79     		ldrb	r3, [r7, #5]	@ zero_extendqisi2
 2019 0034 012B     		cmp	r3, #1
 2020 0036 04D0     		beq	.L136
ARM GAS  C:\Users\faithc\AppData\Local\Temp\cc1EpcH5.s 			page 51


 2021              		.loc 1 799 0 is_stmt 0 discriminator 1
 2022 0038 7B79     		ldrb	r3, [r7, #5]	@ zero_extendqisi2
 2023 003a 002B     		cmp	r3, #0
 2024 003c 01D0     		beq	.L136
 800:.\SirenState.c ****         return false;
 2025              		.loc 1 800 0 is_stmt 1
 2026 003e 0023     		movs	r3, #0
 2027 0040 17E0     		b	.L133
 2028              	.L136:
 801:.\SirenState.c ****     
 802:.\SirenState.c ****     deactivateManualWail();
 2029              		.loc 1 802 0
 2030 0042 FFF7FEFF 		bl	deactivateManualWail
 803:.\SirenState.c ****     playPWMTone(bSpeaker, NO_TONE, false, false);
 2031              		.loc 1 803 0
 2032 0046 FB79     		ldrb	r3, [r7, #7]	@ zero_extendqisi2
 2033 0048 1846     		mov	r0, r3
 2034 004a 0021     		movs	r1, #0
 2035 004c 0022     		movs	r2, #0
 2036 004e 0023     		movs	r3, #0
 2037 0050 FFF7FEFF 		bl	playPWMTone
 804:.\SirenState.c **** 	playAudioTone(bSpeaker, toneSelection, bInputEnable);
 2038              		.loc 1 804 0
 2039 0054 F979     		ldrb	r1, [r7, #7]	@ zero_extendqisi2
 2040 0056 BA79     		ldrb	r2, [r7, #6]	@ zero_extendqisi2
 2041 0058 7B79     		ldrb	r3, [r7, #5]	@ zero_extendqisi2
 2042 005a 0846     		mov	r0, r1
 2043 005c 1146     		mov	r1, r2
 2044 005e 1A46     		mov	r2, r3
 2045 0060 FFF7FEFF 		bl	playAudioTone
 805:.\SirenState.c **** 	PowerAmpOutput1_Write(true);
 2046              		.loc 1 805 0
 2047 0064 0120     		movs	r0, #1
 2048 0066 FFF7FEFF 		bl	PowerAmpOutput1_Write
 806:.\SirenState.c **** 	PowerAmpOutput2_Write(true);
 2049              		.loc 1 806 0
 2050 006a 0120     		movs	r0, #1
 2051 006c FFF7FEFF 		bl	PowerAmpOutput2_Write
 807:.\SirenState.c ****     
 808:.\SirenState.c ****     return true;
 2052              		.loc 1 808 0
 2053 0070 0123     		movs	r3, #1
 2054              	.L133:
 809:.\SirenState.c **** }
 2055              		.loc 1 809 0
 2056 0072 1846     		mov	r0, r3
 2057 0074 0837     		adds	r7, r7, #8
 2058              		.cfi_def_cfa_offset 8
 2059 0076 BD46     		mov	sp, r7
 2060              		.cfi_def_cfa_register 13
 2061              		@ sp needed
 2062 0078 80BD     		pop	{r7, pc}
 2063              		.cfi_endproc
 2064              	.LFE78:
 2065              		.size	enableSpeakersForAudioTone, .-enableSpeakersForAudioTone
 2066 007a 00BF     		.section	.text.getHighestPriorityChannel,"ax",%progbits
 2067              		.align	2
ARM GAS  C:\Users\faithc\AppData\Local\Temp\cc1EpcH5.s 			page 52


 2068              		.thumb
 2069              		.thumb_func
 2070              		.type	getHighestPriorityChannel, %function
 2071              	getHighestPriorityChannel:
 2072              	.LFB79:
 810:.\SirenState.c **** 
 811:.\SirenState.c **** /*******************************************************************************
 812:.\SirenState.c **** * Function Name: getHighestPriorityInput
 813:.\SirenState.c **** ********************************************************************************
 814:.\SirenState.c **** *
 815:.\SirenState.c **** * Summary:
 816:.\SirenState.c **** *  Determines the active tone with the highest priority
 817:.\SirenState.c **** *
 818:.\SirenState.c **** * Parameters: 
 819:.\SirenState.c **** *   bSpeakerNumber - The speaker selection for the input reading
 820:.\SirenState.c **** *
 821:.\SirenState.c **** * Return:
 822:.\SirenState.c **** *   The active tone mode with the highest priority
 823:.\SirenState.c **** *
 824:.\SirenState.c **** *******************************************************************************/
 825:.\SirenState.c **** static enum ChannelIndex getHighestPriorityChannel(uint8 bSpeakerNumber)
 826:.\SirenState.c **** {
 2073              		.loc 1 826 0
 2074              		.cfi_startproc
 2075              		@ args = 0, pretend = 0, frame = 16
 2076              		@ frame_needed = 1, uses_anonymous_args = 0
 2077 0000 80B5     		push	{r7, lr}
 2078              		.cfi_def_cfa_offset 8
 2079              		.cfi_offset 7, -8
 2080              		.cfi_offset 14, -4
 2081 0002 84B0     		sub	sp, sp, #16
 2082              		.cfi_def_cfa_offset 24
 2083 0004 00AF     		add	r7, sp, #0
 2084              		.cfi_def_cfa_register 7
 2085 0006 0346     		mov	r3, r0
 2086 0008 FB71     		strb	r3, [r7, #7]
 827:.\SirenState.c ****     uint8 modeStatusByte = 0;
 2087              		.loc 1 827 0
 2088 000a 0023     		movs	r3, #0
 2089 000c FB73     		strb	r3, [r7, #15]
 828:.\SirenState.c ****     
 829:.\SirenState.c ****     if((bSpeakerNumber != SPEAKER_1) && (bSpeakerNumber != SPEAKER_2))
 2090              		.loc 1 829 0
 2091 000e FB79     		ldrb	r3, [r7, #7]	@ zero_extendqisi2
 2092 0010 002B     		cmp	r3, #0
 2093 0012 04D0     		beq	.L138
 2094              		.loc 1 829 0 is_stmt 0 discriminator 1
 2095 0014 FB79     		ldrb	r3, [r7, #7]	@ zero_extendqisi2
 2096 0016 012B     		cmp	r3, #1
 2097 0018 01D0     		beq	.L138
 830:.\SirenState.c ****         return NO_CHANNEL;
 2098              		.loc 1 830 0 is_stmt 1
 2099 001a FF23     		movs	r3, #255
 2100 001c 36E0     		b	.L139
 2101              	.L138:
 831:.\SirenState.c ****     
 832:.\SirenState.c ****     if(bSpeakerNumber)
ARM GAS  C:\Users\faithc\AppData\Local\Temp\cc1EpcH5.s 			page 53


 2102              		.loc 1 832 0
 2103 001e FB79     		ldrb	r3, [r7, #7]	@ zero_extendqisi2
 2104 0020 002B     		cmp	r3, #0
 2105 0022 04D0     		beq	.L140
 833:.\SirenState.c ****         modeStatusByte = ModeStatus2_Read();
 2106              		.loc 1 833 0
 2107 0024 FFF7FEFF 		bl	ModeStatus2_Read
 2108 0028 0346     		mov	r3, r0
 2109 002a FB73     		strb	r3, [r7, #15]
 2110 002c 03E0     		b	.L141
 2111              	.L140:
 834:.\SirenState.c ****     else
 835:.\SirenState.c ****         modeStatusByte = ModeStatus_Read();
 2112              		.loc 1 835 0
 2113 002e FFF7FEFF 		bl	ModeStatus_Read
 2114 0032 0346     		mov	r3, r0
 2115 0034 FB73     		strb	r3, [r7, #15]
 2116              	.L141:
 836:.\SirenState.c ****     
 837:.\SirenState.c ****     if(modeStatusByte & 0x20)
 2117              		.loc 1 837 0
 2118 0036 FB7B     		ldrb	r3, [r7, #15]	@ zero_extendqisi2
 2119 0038 03F02003 		and	r3, r3, #32
 2120 003c 002B     		cmp	r3, #0
 2121 003e 01D0     		beq	.L142
 838:.\SirenState.c ****         return CHANNEL_6;
 2122              		.loc 1 838 0
 2123 0040 0523     		movs	r3, #5
 2124 0042 23E0     		b	.L139
 2125              	.L142:
 839:.\SirenState.c ****     if(modeStatusByte & 0x10)
 2126              		.loc 1 839 0
 2127 0044 FB7B     		ldrb	r3, [r7, #15]	@ zero_extendqisi2
 2128 0046 03F01003 		and	r3, r3, #16
 2129 004a 002B     		cmp	r3, #0
 2130 004c 01D0     		beq	.L143
 840:.\SirenState.c ****         return CHANNEL_5;
 2131              		.loc 1 840 0
 2132 004e 0423     		movs	r3, #4
 2133 0050 1CE0     		b	.L139
 2134              	.L143:
 841:.\SirenState.c ****     if(modeStatusByte & 0x08)
 2135              		.loc 1 841 0
 2136 0052 FB7B     		ldrb	r3, [r7, #15]	@ zero_extendqisi2
 2137 0054 03F00803 		and	r3, r3, #8
 2138 0058 002B     		cmp	r3, #0
 2139 005a 01D0     		beq	.L144
 842:.\SirenState.c ****         return CHANNEL_4;
 2140              		.loc 1 842 0
 2141 005c 0323     		movs	r3, #3
 2142 005e 15E0     		b	.L139
 2143              	.L144:
 843:.\SirenState.c ****     if(modeStatusByte & 0x04)
 2144              		.loc 1 843 0
 2145 0060 FB7B     		ldrb	r3, [r7, #15]	@ zero_extendqisi2
 2146 0062 03F00403 		and	r3, r3, #4
 2147 0066 002B     		cmp	r3, #0
ARM GAS  C:\Users\faithc\AppData\Local\Temp\cc1EpcH5.s 			page 54


 2148 0068 01D0     		beq	.L145
 844:.\SirenState.c ****         return CHANNEL_3;    
 2149              		.loc 1 844 0
 2150 006a 0223     		movs	r3, #2
 2151 006c 0EE0     		b	.L139
 2152              	.L145:
 845:.\SirenState.c ****     if(modeStatusByte & 0x02)
 2153              		.loc 1 845 0
 2154 006e FB7B     		ldrb	r3, [r7, #15]	@ zero_extendqisi2
 2155 0070 03F00203 		and	r3, r3, #2
 2156 0074 002B     		cmp	r3, #0
 2157 0076 01D0     		beq	.L146
 846:.\SirenState.c ****         return CHANNEL_2;
 2158              		.loc 1 846 0
 2159 0078 0123     		movs	r3, #1
 2160 007a 07E0     		b	.L139
 2161              	.L146:
 847:.\SirenState.c ****     if(modeStatusByte & 0x01)
 2162              		.loc 1 847 0
 2163 007c FB7B     		ldrb	r3, [r7, #15]	@ zero_extendqisi2
 2164 007e 03F00103 		and	r3, r3, #1
 2165 0082 002B     		cmp	r3, #0
 2166 0084 01D0     		beq	.L147
 848:.\SirenState.c ****         return CHANNEL_1;
 2167              		.loc 1 848 0
 2168 0086 0023     		movs	r3, #0
 2169 0088 00E0     		b	.L139
 2170              	.L147:
 849:.\SirenState.c ****     
 850:.\SirenState.c ****     return NO_CHANNEL;
 2171              		.loc 1 850 0
 2172 008a FF23     		movs	r3, #255
 2173              	.L139:
 851:.\SirenState.c **** }
 2174              		.loc 1 851 0
 2175 008c 1846     		mov	r0, r3
 2176 008e 1037     		adds	r7, r7, #16
 2177              		.cfi_def_cfa_offset 8
 2178 0090 BD46     		mov	sp, r7
 2179              		.cfi_def_cfa_register 13
 2180              		@ sp needed
 2181 0092 80BD     		pop	{r7, pc}
 2182              		.cfi_endproc
 2183              	.LFE79:
 2184              		.size	getHighestPriorityChannel, .-getHighestPriorityChannel
 2185              		.section	.text.getAlternatingTone,"ax",%progbits
 2186              		.align	2
 2187              		.thumb
 2188              		.thumb_func
 2189              		.type	getAlternatingTone, %function
 2190              	getAlternatingTone:
 2191              	.LFB80:
 852:.\SirenState.c **** 
 853:.\SirenState.c **** /*******************************************************************************
 854:.\SirenState.c **** * Function Name: getAlternatingTone
 855:.\SirenState.c **** ********************************************************************************
 856:.\SirenState.c **** *
ARM GAS  C:\Users\faithc\AppData\Local\Temp\cc1EpcH5.s 			page 55


 857:.\SirenState.c **** * Summary:
 858:.\SirenState.c **** *   Gets the 2nd tone to play during toggling with the horn
 859:.\SirenState.c **** *
 860:.\SirenState.c **** * Parameters: 
 861:.\SirenState.c **** *   toneSelection: The first tone to play during toggling
 862:.\SirenState.c **** *
 863:.\SirenState.c **** * Return:
 864:.\SirenState.c **** *   The alternating tone (or the same tone if no horn capability)
 865:.\SirenState.c **** *
 866:.\SirenState.c **** *******************************************************************************/
 867:.\SirenState.c **** static enum ToneType getAlternatingTone(enum ToneType toneSelection)
 868:.\SirenState.c **** {
 2192              		.loc 1 868 0
 2193              		.cfi_startproc
 2194              		@ args = 0, pretend = 0, frame = 8
 2195              		@ frame_needed = 1, uses_anonymous_args = 0
 2196 0000 80B5     		push	{r7, lr}
 2197              		.cfi_def_cfa_offset 8
 2198              		.cfi_offset 7, -8
 2199              		.cfi_offset 14, -4
 2200 0002 82B0     		sub	sp, sp, #8
 2201              		.cfi_def_cfa_offset 16
 2202 0004 00AF     		add	r7, sp, #0
 2203              		.cfi_def_cfa_register 7
 2204 0006 0346     		mov	r3, r0
 2205 0008 FB71     		strb	r3, [r7, #7]
 869:.\SirenState.c **** 	if((toneSelection == NO_TONE) || isAudioTone(toneSelection) || (toneSelection == TEST_TONE))
 2206              		.loc 1 869 0
 2207 000a FB79     		ldrb	r3, [r7, #7]	@ zero_extendqisi2
 2208 000c 002B     		cmp	r3, #0
 2209 000e 09D0     		beq	.L149
 2210              		.loc 1 869 0 is_stmt 0 discriminator 1
 2211 0010 FB79     		ldrb	r3, [r7, #7]	@ zero_extendqisi2
 2212 0012 1846     		mov	r0, r3
 2213 0014 FFF7FEFF 		bl	isAudioTone
 2214 0018 0346     		mov	r3, r0
 2215 001a 002B     		cmp	r3, #0
 2216 001c 02D1     		bne	.L149
 2217              		.loc 1 869 0 discriminator 2
 2218 001e FB79     		ldrb	r3, [r7, #7]	@ zero_extendqisi2
 2219 0020 162B     		cmp	r3, #22
 2220 0022 01D1     		bne	.L150
 2221              	.L149:
 870:.\SirenState.c **** 		return toneSelection;
 2222              		.loc 1 870 0 is_stmt 1
 2223 0024 FB79     		ldrb	r3, [r7, #7]	@ zero_extendqisi2
 2224 0026 0FE0     		b	.L151
 2225              	.L150:
 871:.\SirenState.c **** 	
 872:.\SirenState.c **** 	if((toneSelection == MECHANICAL) || (toneSelection == PCALL_FAST))
 2226              		.loc 1 872 0
 2227 0028 FB79     		ldrb	r3, [r7, #7]	@ zero_extendqisi2
 2228 002a 062B     		cmp	r3, #6
 2229 002c 02D0     		beq	.L152
 2230              		.loc 1 872 0 is_stmt 0 discriminator 1
 2231 002e FB79     		ldrb	r3, [r7, #7]	@ zero_extendqisi2
 2232 0030 0A2B     		cmp	r3, #10
ARM GAS  C:\Users\faithc\AppData\Local\Temp\cc1EpcH5.s 			page 56


 2233 0032 01D1     		bne	.L153
 2234              	.L152:
 873:.\SirenState.c **** 		return PHASER;
 2235              		.loc 1 873 0 is_stmt 1
 2236 0034 0423     		movs	r3, #4
 2237 0036 07E0     		b	.L151
 2238              	.L153:
 874:.\SirenState.c **** 	
 875:.\SirenState.c **** 	if(toneSelection == PHASER_YELP)
 2239              		.loc 1 875 0
 2240 0038 FB79     		ldrb	r3, [r7, #7]	@ zero_extendqisi2
 2241 003a 0D2B     		cmp	r3, #13
 2242 003c 01D1     		bne	.L154
 876:.\SirenState.c **** 		return HORN_PHASER;
 2243              		.loc 1 876 0
 2244 003e 0B23     		movs	r3, #11
 2245 0040 02E0     		b	.L151
 2246              	.L154:
 877:.\SirenState.c **** 	
 878:.\SirenState.c **** 	return (toneSelection + 1);
 2247              		.loc 1 878 0
 2248 0042 FB79     		ldrb	r3, [r7, #7]
 2249 0044 0133     		adds	r3, r3, #1
 2250 0046 DBB2     		uxtb	r3, r3
 2251              	.L151:
 879:.\SirenState.c **** }
 2252              		.loc 1 879 0
 2253 0048 1846     		mov	r0, r3
 2254 004a 0837     		adds	r7, r7, #8
 2255              		.cfi_def_cfa_offset 8
 2256 004c BD46     		mov	sp, r7
 2257              		.cfi_def_cfa_register 13
 2258              		@ sp needed
 2259 004e 80BD     		pop	{r7, pc}
 2260              		.cfi_endproc
 2261              	.LFE80:
 2262              		.size	getAlternatingTone, .-getAlternatingTone
 2263              		.section	.text.isTrailingTone,"ax",%progbits
 2264              		.align	2
 2265              		.thumb
 2266              		.thumb_func
 2267              		.type	isTrailingTone, %function
 2268              	isTrailingTone:
 2269              	.LFB81:
 880:.\SirenState.c **** 
 881:.\SirenState.c **** /*******************************************************************************
 882:.\SirenState.c **** * Function Name: isTrailingTone
 883:.\SirenState.c **** ********************************************************************************
 884:.\SirenState.c **** *
 885:.\SirenState.c **** * Summary:
 886:.\SirenState.c **** *   Determines if the given tone has the trailing effect
 887:.\SirenState.c **** *
 888:.\SirenState.c **** * Parameters: 
 889:.\SirenState.c **** *   thisTone: The tone to check
 890:.\SirenState.c **** *
 891:.\SirenState.c **** * Return:
 892:.\SirenState.c **** *   TRUE if trailing tone, FALSE if not trailing tone or invalid input
ARM GAS  C:\Users\faithc\AppData\Local\Temp\cc1EpcH5.s 			page 57


 893:.\SirenState.c **** *
 894:.\SirenState.c **** *******************************************************************************/
 895:.\SirenState.c **** static uint8 isTrailingTone(enum ToneType thisTone)
 896:.\SirenState.c **** {
 2270              		.loc 1 896 0
 2271              		.cfi_startproc
 2272              		@ args = 0, pretend = 0, frame = 8
 2273              		@ frame_needed = 1, uses_anonymous_args = 0
 2274 0000 80B5     		push	{r7, lr}
 2275              		.cfi_def_cfa_offset 8
 2276              		.cfi_offset 7, -8
 2277              		.cfi_offset 14, -4
 2278 0002 82B0     		sub	sp, sp, #8
 2279              		.cfi_def_cfa_offset 16
 2280 0004 00AF     		add	r7, sp, #0
 2281              		.cfi_def_cfa_register 7
 2282 0006 0346     		mov	r3, r0
 2283 0008 FB71     		strb	r3, [r7, #7]
 897:.\SirenState.c ****     if((thisTone == MANUAL_WAIL) || (thisTone == ECTOSIREN) || isCommand(thisTone))
 2284              		.loc 1 897 0
 2285 000a FB79     		ldrb	r3, [r7, #7]	@ zero_extendqisi2
 2286 000c 072B     		cmp	r3, #7
 2287 000e 09D0     		beq	.L156
 2288              		.loc 1 897 0 is_stmt 0 discriminator 1
 2289 0010 FB79     		ldrb	r3, [r7, #7]	@ zero_extendqisi2
 2290 0012 0E2B     		cmp	r3, #14
 2291 0014 06D0     		beq	.L156
 2292              		.loc 1 897 0 discriminator 2
 2293 0016 FB79     		ldrb	r3, [r7, #7]	@ zero_extendqisi2
 2294 0018 1846     		mov	r0, r3
 2295 001a FFF7FEFF 		bl	isCommand
 2296 001e 0346     		mov	r3, r0
 2297 0020 002B     		cmp	r3, #0
 2298 0022 01D0     		beq	.L157
 2299              	.L156:
 898:.\SirenState.c ****         return true;
 2300              		.loc 1 898 0 is_stmt 1
 2301 0024 0123     		movs	r3, #1
 2302 0026 00E0     		b	.L158
 2303              	.L157:
 899:.\SirenState.c ****     
 900:.\SirenState.c ****     return false;
 2304              		.loc 1 900 0
 2305 0028 0023     		movs	r3, #0
 2306              	.L158:
 901:.\SirenState.c **** }
 2307              		.loc 1 901 0
 2308 002a 1846     		mov	r0, r3
 2309 002c 0837     		adds	r7, r7, #8
 2310              		.cfi_def_cfa_offset 8
 2311 002e BD46     		mov	sp, r7
 2312              		.cfi_def_cfa_register 13
 2313              		@ sp needed
 2314 0030 80BD     		pop	{r7, pc}
 2315              		.cfi_endproc
 2316              	.LFE81:
 2317              		.size	isTrailingTone, .-isTrailingTone
ARM GAS  C:\Users\faithc\AppData\Local\Temp\cc1EpcH5.s 			page 58


 2318 0032 00BF     		.section	.text.isAudioTone,"ax",%progbits
 2319              		.align	2
 2320              		.thumb
 2321              		.thumb_func
 2322              		.type	isAudioTone, %function
 2323              	isAudioTone:
 2324              	.LFB82:
 902:.\SirenState.c **** 
 903:.\SirenState.c **** /*******************************************************************************
 904:.\SirenState.c **** * Function Name: isAudioTone
 905:.\SirenState.c **** ********************************************************************************
 906:.\SirenState.c **** *
 907:.\SirenState.c **** * Summary:
 908:.\SirenState.c **** *   Determines if the given tone is an audio tone
 909:.\SirenState.c **** *
 910:.\SirenState.c **** * Parameters: 
 911:.\SirenState.c **** *   thisTone: The tone to check
 912:.\SirenState.c **** *
 913:.\SirenState.c **** * Return:
 914:.\SirenState.c **** *   TRUE if audio tone, FALSE if not audio tone or invalid input
 915:.\SirenState.c **** *
 916:.\SirenState.c **** *******************************************************************************/
 917:.\SirenState.c **** static uint8 isAudioTone(enum ToneType thisTone)
 918:.\SirenState.c **** {
 2325              		.loc 1 918 0
 2326              		.cfi_startproc
 2327              		@ args = 0, pretend = 0, frame = 8
 2328              		@ frame_needed = 1, uses_anonymous_args = 0
 2329 0000 80B5     		push	{r7, lr}
 2330              		.cfi_def_cfa_offset 8
 2331              		.cfi_offset 7, -8
 2332              		.cfi_offset 14, -4
 2333 0002 82B0     		sub	sp, sp, #8
 2334              		.cfi_def_cfa_offset 16
 2335 0004 00AF     		add	r7, sp, #0
 2336              		.cfi_def_cfa_register 7
 2337 0006 0346     		mov	r3, r0
 2338 0008 FB71     		strb	r3, [r7, #7]
 919:.\SirenState.c ****     if((thisTone == ECTOSIREN) || isSong(thisTone) || isCommand(thisTone))
 2339              		.loc 1 919 0
 2340 000a FB79     		ldrb	r3, [r7, #7]	@ zero_extendqisi2
 2341 000c 0E2B     		cmp	r3, #14
 2342 000e 0DD0     		beq	.L160
 2343              		.loc 1 919 0 is_stmt 0 discriminator 1
 2344 0010 FB79     		ldrb	r3, [r7, #7]	@ zero_extendqisi2
 2345 0012 1846     		mov	r0, r3
 2346 0014 FFF7FEFF 		bl	isSong
 2347 0018 0346     		mov	r3, r0
 2348 001a 002B     		cmp	r3, #0
 2349 001c 06D1     		bne	.L160
 2350              		.loc 1 919 0 discriminator 2
 2351 001e FB79     		ldrb	r3, [r7, #7]	@ zero_extendqisi2
 2352 0020 1846     		mov	r0, r3
 2353 0022 FFF7FEFF 		bl	isCommand
 2354 0026 0346     		mov	r3, r0
 2355 0028 002B     		cmp	r3, #0
 2356 002a 01D0     		beq	.L161
ARM GAS  C:\Users\faithc\AppData\Local\Temp\cc1EpcH5.s 			page 59


 2357              	.L160:
 920:.\SirenState.c ****         return true;
 2358              		.loc 1 920 0 is_stmt 1
 2359 002c 0123     		movs	r3, #1
 2360 002e 00E0     		b	.L162
 2361              	.L161:
 921:.\SirenState.c ****     
 922:.\SirenState.c ****     return false;
 2362              		.loc 1 922 0
 2363 0030 0023     		movs	r3, #0
 2364              	.L162:
 923:.\SirenState.c **** }
 2365              		.loc 1 923 0
 2366 0032 1846     		mov	r0, r3
 2367 0034 0837     		adds	r7, r7, #8
 2368              		.cfi_def_cfa_offset 8
 2369 0036 BD46     		mov	sp, r7
 2370              		.cfi_def_cfa_register 13
 2371              		@ sp needed
 2372 0038 80BD     		pop	{r7, pc}
 2373              		.cfi_endproc
 2374              	.LFE82:
 2375              		.size	isAudioTone, .-isAudioTone
 2376 003a 00BF     		.section	.text.isCommand,"ax",%progbits
 2377              		.align	2
 2378              		.thumb
 2379              		.thumb_func
 2380              		.type	isCommand, %function
 2381              	isCommand:
 2382              	.LFB83:
 924:.\SirenState.c **** 
 925:.\SirenState.c **** /*******************************************************************************
 926:.\SirenState.c **** * Function Name: isCommand
 927:.\SirenState.c **** ********************************************************************************
 928:.\SirenState.c **** *
 929:.\SirenState.c **** * Summary:
 930:.\SirenState.c **** *   Determines if the given tone is a command
 931:.\SirenState.c **** *
 932:.\SirenState.c **** * Parameters: 
 933:.\SirenState.c **** *   thisTone: The tone to check
 934:.\SirenState.c **** *
 935:.\SirenState.c **** * Return:
 936:.\SirenState.c **** *   TRUE if a command, FALSE if not a command or invalid input
 937:.\SirenState.c **** *
 938:.\SirenState.c **** *******************************************************************************/
 939:.\SirenState.c **** static uint8 isCommand(enum ToneType thisTone)
 940:.\SirenState.c **** {
 2383              		.loc 1 940 0
 2384              		.cfi_startproc
 2385              		@ args = 0, pretend = 0, frame = 8
 2386              		@ frame_needed = 1, uses_anonymous_args = 0
 2387              		@ link register save eliminated.
 2388 0000 80B4     		push	{r7}
 2389              		.cfi_def_cfa_offset 4
 2390              		.cfi_offset 7, -4
 2391 0002 83B0     		sub	sp, sp, #12
 2392              		.cfi_def_cfa_offset 16
ARM GAS  C:\Users\faithc\AppData\Local\Temp\cc1EpcH5.s 			page 60


 2393 0004 00AF     		add	r7, sp, #0
 2394              		.cfi_def_cfa_register 7
 2395 0006 0346     		mov	r3, r0
 2396 0008 FB71     		strb	r3, [r7, #7]
 941:.\SirenState.c ****     if((thisTone >= MOVE_OUT) && (thisTone <= REMAIN_WINDOW_DOWN))
 2397              		.loc 1 941 0
 2398 000a FB79     		ldrb	r3, [r7, #7]	@ zero_extendqisi2
 2399 000c 0F2B     		cmp	r3, #15
 2400 000e 04D9     		bls	.L164
 2401              		.loc 1 941 0 is_stmt 0 discriminator 1
 2402 0010 FB79     		ldrb	r3, [r7, #7]	@ zero_extendqisi2
 2403 0012 152B     		cmp	r3, #21
 2404 0014 01D8     		bhi	.L164
 942:.\SirenState.c ****         return true;
 2405              		.loc 1 942 0 is_stmt 1
 2406 0016 0123     		movs	r3, #1
 2407 0018 00E0     		b	.L165
 2408              	.L164:
 943:.\SirenState.c ****     
 944:.\SirenState.c ****     return false;
 2409              		.loc 1 944 0
 2410 001a 0023     		movs	r3, #0
 2411              	.L165:
 945:.\SirenState.c **** }
 2412              		.loc 1 945 0
 2413 001c 1846     		mov	r0, r3
 2414 001e 0C37     		adds	r7, r7, #12
 2415              		.cfi_def_cfa_offset 4
 2416 0020 BD46     		mov	sp, r7
 2417              		.cfi_def_cfa_register 13
 2418              		@ sp needed
 2419 0022 5DF8047B 		ldr	r7, [sp], #4
 2420              		.cfi_restore 7
 2421              		.cfi_def_cfa_offset 0
 2422 0026 7047     		bx	lr
 2423              		.cfi_endproc
 2424              	.LFE83:
 2425              		.size	isCommand, .-isCommand
 2426              		.section	.text.isSong,"ax",%progbits
 2427              		.align	2
 2428              		.thumb
 2429              		.thumb_func
 2430              		.type	isSong, %function
 2431              	isSong:
 2432              	.LFB84:
 946:.\SirenState.c **** 
 947:.\SirenState.c **** /*******************************************************************************
 948:.\SirenState.c **** * Function Name: isSong
 949:.\SirenState.c **** ********************************************************************************
 950:.\SirenState.c **** *
 951:.\SirenState.c **** * Summary:
 952:.\SirenState.c **** *   Determines if the given tone is a song
 953:.\SirenState.c **** *
 954:.\SirenState.c **** * Parameters: 
 955:.\SirenState.c **** *   thisTone: The tone to check
 956:.\SirenState.c **** *
 957:.\SirenState.c **** * Return:
ARM GAS  C:\Users\faithc\AppData\Local\Temp\cc1EpcH5.s 			page 61


 958:.\SirenState.c **** *   TRUE if a song, FALSE if not a song or invalid input
 959:.\SirenState.c **** *
 960:.\SirenState.c **** *******************************************************************************/
 961:.\SirenState.c **** static uint8 isSong(enum ToneType thisTone)
 962:.\SirenState.c **** {
 2433              		.loc 1 962 0
 2434              		.cfi_startproc
 2435              		@ args = 0, pretend = 0, frame = 8
 2436              		@ frame_needed = 1, uses_anonymous_args = 0
 2437              		@ link register save eliminated.
 2438 0000 80B4     		push	{r7}
 2439              		.cfi_def_cfa_offset 4
 2440              		.cfi_offset 7, -4
 2441 0002 83B0     		sub	sp, sp, #12
 2442              		.cfi_def_cfa_offset 16
 2443 0004 00AF     		add	r7, sp, #0
 2444              		.cfi_def_cfa_register 7
 2445 0006 0346     		mov	r3, r0
 2446 0008 FB71     		strb	r3, [r7, #7]
 963:.\SirenState.c ****     if(thisTone == COPS_SONG)
 2447              		.loc 1 963 0
 2448 000a FB79     		ldrb	r3, [r7, #7]	@ zero_extendqisi2
 2449 000c 0F2B     		cmp	r3, #15
 2450 000e 01D1     		bne	.L167
 964:.\SirenState.c ****         return true;
 2451              		.loc 1 964 0
 2452 0010 0123     		movs	r3, #1
 2453 0012 00E0     		b	.L168
 2454              	.L167:
 965:.\SirenState.c ****     
 966:.\SirenState.c ****     return false;
 2455              		.loc 1 966 0
 2456 0014 0023     		movs	r3, #0
 2457              	.L168:
 967:.\SirenState.c **** }
 2458              		.loc 1 967 0
 2459 0016 1846     		mov	r0, r3
 2460 0018 0C37     		adds	r7, r7, #12
 2461              		.cfi_def_cfa_offset 4
 2462 001a BD46     		mov	sp, r7
 2463              		.cfi_def_cfa_register 13
 2464              		@ sp needed
 2465 001c 5DF8047B 		ldr	r7, [sp], #4
 2466              		.cfi_restore 7
 2467              		.cfi_def_cfa_offset 0
 2468 0020 7047     		bx	lr
 2469              		.cfi_endproc
 2470              	.LFE84:
 2471              		.size	isSong, .-isSong
 2472 0022 00BF     		.section	.text.getBitIndex,"ax",%progbits
 2473              		.align	2
 2474              		.thumb
 2475              		.thumb_func
 2476              		.type	getBitIndex, %function
 2477              	getBitIndex:
 2478              	.LFB85:
 968:.\SirenState.c **** 
ARM GAS  C:\Users\faithc\AppData\Local\Temp\cc1EpcH5.s 			page 62


 969:.\SirenState.c **** /*******************************************************************************
 970:.\SirenState.c **** * Function Name: getBitIndex
 971:.\SirenState.c **** ********************************************************************************
 972:.\SirenState.c **** *
 973:.\SirenState.c **** * Summary:
 974:.\SirenState.c **** *  Computes the index of a byte based on the mask given. 7 is the most significant bit.
 975:.\SirenState.c **** *
 976:.\SirenState.c **** * Parameters:
 977:.\SirenState.c **** *  maskNumber: An 8-bit value with a single bit being set to 1
 978:.\SirenState.c **** *
 979:.\SirenState.c **** * Return:
 980:.\SirenState.c **** *  The index of the set bit ranging 0 - 7
 981:.\SirenState.c **** *
 982:.\SirenState.c **** *******************************************************************************/
 983:.\SirenState.c **** static uint8 getBitIndex(enum BitMask maskNumber)
 984:.\SirenState.c **** {
 2479              		.loc 1 984 0
 2480              		.cfi_startproc
 2481              		@ args = 0, pretend = 0, frame = 16
 2482              		@ frame_needed = 1, uses_anonymous_args = 0
 2483              		@ link register save eliminated.
 2484 0000 80B4     		push	{r7}
 2485              		.cfi_def_cfa_offset 4
 2486              		.cfi_offset 7, -4
 2487 0002 85B0     		sub	sp, sp, #20
 2488              		.cfi_def_cfa_offset 24
 2489 0004 00AF     		add	r7, sp, #0
 2490              		.cfi_def_cfa_register 7
 2491 0006 0346     		mov	r3, r0
 2492 0008 FB71     		strb	r3, [r7, #7]
 985:.\SirenState.c **** 	uint8 indexResult = 0;
 2493              		.loc 1 985 0
 2494 000a 0023     		movs	r3, #0
 2495 000c FB73     		strb	r3, [r7, #15]
 986:.\SirenState.c **** 	
 987:.\SirenState.c **** 	switch(maskNumber)
 2496              		.loc 1 987 0
 2497 000e FB79     		ldrb	r3, [r7, #7]	@ zero_extendqisi2
 2498 0010 013B     		subs	r3, r3, #1
 2499 0012 1F2B     		cmp	r3, #31
 2500 0014 54D8     		bhi	.L170
 2501 0016 01A2     		adr	r2, .L172
 2502 0018 52F823F0 		ldr	pc, [r2, r3, lsl #2]
 2503              		.p2align 2
 2504              	.L172:
 2505 001c 9D000000 		.word	.L171+1
 2506 0020 A3000000 		.word	.L173+1
 2507 0024 C1000000 		.word	.L170+1
 2508 0028 A9000000 		.word	.L174+1
 2509 002c C1000000 		.word	.L170+1
 2510 0030 C1000000 		.word	.L170+1
 2511 0034 C1000000 		.word	.L170+1
 2512 0038 AF000000 		.word	.L175+1
 2513 003c C1000000 		.word	.L170+1
 2514 0040 C1000000 		.word	.L170+1
 2515 0044 C1000000 		.word	.L170+1
 2516 0048 C1000000 		.word	.L170+1
ARM GAS  C:\Users\faithc\AppData\Local\Temp\cc1EpcH5.s 			page 63


 2517 004c C1000000 		.word	.L170+1
 2518 0050 C1000000 		.word	.L170+1
 2519 0054 C1000000 		.word	.L170+1
 2520 0058 B5000000 		.word	.L176+1
 2521 005c C1000000 		.word	.L170+1
 2522 0060 C1000000 		.word	.L170+1
 2523 0064 C1000000 		.word	.L170+1
 2524 0068 C1000000 		.word	.L170+1
 2525 006c C1000000 		.word	.L170+1
 2526 0070 C1000000 		.word	.L170+1
 2527 0074 C1000000 		.word	.L170+1
 2528 0078 C1000000 		.word	.L170+1
 2529 007c C1000000 		.word	.L170+1
 2530 0080 C1000000 		.word	.L170+1
 2531 0084 C1000000 		.word	.L170+1
 2532 0088 C1000000 		.word	.L170+1
 2533 008c C1000000 		.word	.L170+1
 2534 0090 C1000000 		.word	.L170+1
 2535 0094 C1000000 		.word	.L170+1
 2536 0098 BB000000 		.word	.L177+1
 2537              		.p2align 1
 2538              	.L171:
 988:.\SirenState.c **** 	{
 989:.\SirenState.c **** 		case BIT0:
 990:.\SirenState.c **** 			indexResult = 0;
 2539              		.loc 1 990 0
 2540 009c 0023     		movs	r3, #0
 2541 009e FB73     		strb	r3, [r7, #15]
 991:.\SirenState.c **** 			break;
 2542              		.loc 1 991 0
 2543 00a0 11E0     		b	.L178
 2544              	.L173:
 992:.\SirenState.c **** 		case BIT1:
 993:.\SirenState.c **** 			indexResult = 1;
 2545              		.loc 1 993 0
 2546 00a2 0123     		movs	r3, #1
 2547 00a4 FB73     		strb	r3, [r7, #15]
 994:.\SirenState.c **** 			break;
 2548              		.loc 1 994 0
 2549 00a6 0EE0     		b	.L178
 2550              	.L174:
 995:.\SirenState.c **** 		case BIT2:
 996:.\SirenState.c **** 			indexResult = 2;
 2551              		.loc 1 996 0
 2552 00a8 0223     		movs	r3, #2
 2553 00aa FB73     		strb	r3, [r7, #15]
 997:.\SirenState.c **** 			break;
 2554              		.loc 1 997 0
 2555 00ac 0BE0     		b	.L178
 2556              	.L175:
 998:.\SirenState.c **** 		case BIT3:
 999:.\SirenState.c **** 			indexResult = 3;
 2557              		.loc 1 999 0
 2558 00ae 0323     		movs	r3, #3
 2559 00b0 FB73     		strb	r3, [r7, #15]
1000:.\SirenState.c **** 			break;
 2560              		.loc 1 1000 0
ARM GAS  C:\Users\faithc\AppData\Local\Temp\cc1EpcH5.s 			page 64


 2561 00b2 08E0     		b	.L178
 2562              	.L176:
1001:.\SirenState.c **** 		case BIT4:
1002:.\SirenState.c **** 			indexResult = 4;
 2563              		.loc 1 1002 0
 2564 00b4 0423     		movs	r3, #4
 2565 00b6 FB73     		strb	r3, [r7, #15]
1003:.\SirenState.c **** 			break;
 2566              		.loc 1 1003 0
 2567 00b8 05E0     		b	.L178
 2568              	.L177:
1004:.\SirenState.c **** 		case BIT5:
1005:.\SirenState.c **** 			indexResult = 5;
 2569              		.loc 1 1005 0
 2570 00ba 0523     		movs	r3, #5
 2571 00bc FB73     		strb	r3, [r7, #15]
1006:.\SirenState.c **** 			break;
 2572              		.loc 1 1006 0
 2573 00be 02E0     		b	.L178
 2574              	.L170:
1007:.\SirenState.c **** 		default:
1008:.\SirenState.c **** 			indexResult = NO_CHANNEL;
 2575              		.loc 1 1008 0
 2576 00c0 FF23     		movs	r3, #255
 2577 00c2 FB73     		strb	r3, [r7, #15]
1009:.\SirenState.c **** 			break;
 2578              		.loc 1 1009 0
 2579 00c4 00BF     		nop
 2580              	.L178:
1010:.\SirenState.c **** 	}
1011:.\SirenState.c **** 	
1012:.\SirenState.c **** 	return indexResult;
 2581              		.loc 1 1012 0
 2582 00c6 FB7B     		ldrb	r3, [r7, #15]	@ zero_extendqisi2
1013:.\SirenState.c **** }
 2583              		.loc 1 1013 0
 2584 00c8 1846     		mov	r0, r3
 2585 00ca 1437     		adds	r7, r7, #20
 2586              		.cfi_def_cfa_offset 4
 2587 00cc BD46     		mov	sp, r7
 2588              		.cfi_def_cfa_register 13
 2589              		@ sp needed
 2590 00ce 5DF8047B 		ldr	r7, [sp], #4
 2591              		.cfi_restore 7
 2592              		.cfi_def_cfa_offset 0
 2593 00d2 7047     		bx	lr
 2594              		.cfi_endproc
 2595              	.LFE85:
 2596              		.size	getBitIndex, .-getBitIndex
 2597              		.bss
 2598 001b 00       		.align	2
 2599              	previousChannels.7356:
 2600 001c 0000     		.space	2
 2601              	bToneChangeOnHornRing.7384:
 2602 001e 00       		.space	1
 2603 001f 00       		.text
 2604              	.Letext0:
ARM GAS  C:\Users\faithc\AppData\Local\Temp\cc1EpcH5.s 			page 65


 2605              		.file 2 "c:\\program files (x86)\\cypress\\psoc creator\\3.3\\psoc creator\\import\\gnu\\arm\\4.9.
 2606              		.file 3 "c:\\program files (x86)\\cypress\\psoc creator\\3.3\\psoc creator\\import\\gnu\\arm\\4.9.
 2607              		.file 4 "Generated_Source\\PSoC5/cytypes.h"
 2608              		.file 5 ".\\CommonVariables.h"
 2609              		.file 6 "Generated_Source\\PSoC5/core_cm3.h"