ARM GAS  C:\Users\faithc\AppData\Local\Temp\cc6V120r.s 			page 1


   1              		.syntax unified
   2              		.cpu cortex-m3
   3              		.fpu softvfp
   4              		.eabi_attribute 20, 1
   5              		.eabi_attribute 21, 1
   6              		.eabi_attribute 23, 3
   7              		.eabi_attribute 24, 1
   8              		.eabi_attribute 25, 1
   9              		.eabi_attribute 26, 1
  10              		.eabi_attribute 30, 1
  11              		.eabi_attribute 34, 1
  12              		.eabi_attribute 18, 4
  13              		.thumb
  14              		.file	"CommManager.c"
  15              		.text
  16              	.Ltext0:
  17              		.cfi_sections	.debug_frame
  18              		.section	.text.startVoiceStreamMode,"ax",%progbits
  19              		.align	2
  20              		.thumb
  21              		.thumb_func
  22              		.type	startVoiceStreamMode, %function
  23              	startVoiceStreamMode:
  24              	.LFB67:
  25              		.file 1 ".\\CommManager.c"
   1:.\CommManager.c **** /* ========================================
   2:.\CommManager.c ****  *
   3:.\CommManager.c ****  * Copyright FENIEX INDUSTRIES, 2016
   4:.\CommManager.c ****  * 200W SIREN
   5:.\CommManager.c ****  *
   6:.\CommManager.c ****  * All Rights Reserved
   7:.\CommManager.c ****  * UNPUBLISHED, LICENSED SOFTWARE.
   8:.\CommManager.c ****  *
   9:.\CommManager.c ****  * CONFIDENTIAL AND PROPRIETARY INFORMATION
  10:.\CommManager.c ****  * WHICH IS THE PROPERTY OF your company.
  11:.\CommManager.c ****  *
  12:.\CommManager.c ****  * ========================================
  13:.\CommManager.c **** */
  14:.\CommManager.c **** 
  15:.\CommManager.c **** /**********CHANGE LOG**********/
  16:.\CommManager.c **** 
  17:.\CommManager.c **** 
  18:.\CommManager.c **** /**********PREPROCESSOR DIRECTIVES**********/
  19:.\CommManager.c **** #include "CommonVariables.h"
  20:.\CommManager.c **** #include "SirenState.h"
  21:.\CommManager.c **** #include "CommManager.h"
  22:.\CommManager.c **** 
  23:.\CommManager.c **** #define HEADER_BYTE_COUNT       2
  24:.\CommManager.c **** #define EOP_BYTE_COUNT          2
  25:.\CommManager.c **** 
  26:.\CommManager.c **** #define HEADER_START_INDEX      0
  27:.\CommManager.c **** #define PAYLOAD_START_INDEX     HEADER_BYTE_COUNT
  28:.\CommManager.c **** 
  29:.\CommManager.c **** #define MAX_PAYLOAD_BYTE_COUNT  7
  30:.\CommManager.c **** #define PACKET_TYPE_COUNT       2
  31:.\CommManager.c **** 
  32:.\CommManager.c **** /**********DEFINED CONSTANTS**********/
ARM GAS  C:\Users\faithc\AppData\Local\Temp\cc6V120r.s 			page 2


  33:.\CommManager.c **** enum DataType
  34:.\CommManager.c **** {
  35:.\CommManager.c ****     VOICE_DATA,
  36:.\CommManager.c ****     SIREN_INPUTS,
  37:.\CommManager.c **** };
  38:.\CommManager.c **** 
  39:.\CommManager.c **** enum PacketState
  40:.\CommManager.c **** {
  41:.\CommManager.c ****     HEADER_STATE,
  42:.\CommManager.c ****     PAYLOAD_STATE,
  43:.\CommManager.c ****     EOP_STATE
  44:.\CommManager.c **** };
  45:.\CommManager.c **** 
  46:.\CommManager.c **** static const uint8 START_BYTE = 0xAA;
  47:.\CommManager.c **** static const uint8 STOP_BYTE = 0x55;
  48:.\CommManager.c **** static const uint8 INITIAL_DAC_VALUE = 128;
  49:.\CommManager.c **** static const uint8 TIMER_LIMIT_IN_TEN_MILLISECONDS = 50;
  50:.\CommManager.c **** 
  51:.\CommManager.c **** /**********DATA STRUCTURES**********/
  52:.\CommManager.c **** typedef struct
  53:.\CommManager.c **** {
  54:.\CommManager.c ****     const uint8 HEADER_BYTE;
  55:.\CommManager.c ****     const uint8 PACKET_TYPE;
  56:.\CommManager.c ****     const uint8 PAYLOAD_SIZE;
  57:.\CommManager.c ****     const uint8 EOP_CARRIAGE_RETURN;
  58:.\CommManager.c ****     const uint8 EOP_LINE_FEED;
  59:.\CommManager.c **** }Packet;
  60:.\CommManager.c **** 
  61:.\CommManager.c **** static Packet PacketList[PACKET_TYPE_COUNT] = 
  62:.\CommManager.c **** {
  63:.\CommManager.c ****     {'~', 'V', 1, '\r', '\n'},
  64:.\CommManager.c ****     {'~', 'S', 3, '\r', '\n'},
  65:.\CommManager.c **** };
  66:.\CommManager.c **** 
  67:.\CommManager.c **** /**********GLOBAL VARIABLES**********/
  68:.\CommManager.c **** static uint8 bVoiceStreamEnabled = false;
  69:.\CommManager.c **** static uint8 tenMilliSecondsCount = 0;
  70:.\CommManager.c **** 
  71:.\CommManager.c **** /**********LOCAL FUNCTION PROTOTYPES**********/
  72:.\CommManager.c **** static void detectPacket(uint8 dataByte);
  73:.\CommManager.c **** static void startVoiceStreamMode(void);
  74:.\CommManager.c **** static void stopVoiceStreamMode(void);
  75:.\CommManager.c **** 
  76:.\CommManager.c **** /**********DEFINED GLOBAL FUNCTIONS**********/
  77:.\CommManager.c **** /*******************************************************************************
  78:.\CommManager.c **** * Function Name: processByteReceivedHandler
  79:.\CommManager.c **** ********************************************************************************
  80:.\CommManager.c **** *
  81:.\CommManager.c **** * Summary:
  82:.\CommManager.c **** *  Triggers when a byte is received in UART, called in UART_ISR(). If in voice
  83:.\CommManager.c **** *  stream mode, the byte is sent directly to the DAC.
  84:.\CommManager.c **** *
  85:.\CommManager.c **** * Parameters:
  86:.\CommManager.c **** *  None.
  87:.\CommManager.c **** *
  88:.\CommManager.c **** * Return:
  89:.\CommManager.c **** *  None.
ARM GAS  C:\Users\faithc\AppData\Local\Temp\cc6V120r.s 			page 3


  90:.\CommManager.c **** *
  91:.\CommManager.c **** *******************************************************************************/
  92:.\CommManager.c **** void processByteReceivedHandler(void)
  93:.\CommManager.c **** {
  94:.\CommManager.c ****     uint8 dataByte = 0;
  95:.\CommManager.c ****     
  96:.\CommManager.c ****     UART_Timer_Stop();
  97:.\CommManager.c ****     disableToneInputInterrupts();
  98:.\CommManager.c ****     tenMilliSecondsCount = 0;
  99:.\CommManager.c ****     
 100:.\CommManager.c ****     do
 101:.\CommManager.c ****     {
 102:.\CommManager.c ****         dataByte = UART_GetChar();
 103:.\CommManager.c ****         
 104:.\CommManager.c ****         if(bVoiceStreamEnabled)
 105:.\CommManager.c ****         {   
 106:.\CommManager.c ****             VDAC8_1_SetValue(dataByte);
 107:.\CommManager.c ****             VDAC8_2_SetValue(dataByte);
 108:.\CommManager.c ****         }
 109:.\CommManager.c ****         
 110:.\CommManager.c ****         detectPacket(dataByte);
 111:.\CommManager.c ****         
 112:.\CommManager.c ****     }while(UART_ReadRxStatus() & UART_RX_STS_FIFO_NOTEMPTY);
 113:.\CommManager.c ****     
 114:.\CommManager.c ****     UART_Timer_Start();
 115:.\CommManager.c **** }
 116:.\CommManager.c **** 
 117:.\CommManager.c **** /*******************************************************************************
 118:.\CommManager.c **** * Function Name: processLED_TimerRoutine
 119:.\CommManager.c **** ********************************************************************************
 120:.\CommManager.c **** *
 121:.\CommManager.c **** * Summary:
 122:.\CommManager.c **** *  Toggles the LED every second, called in LED_ISR().
 123:.\CommManager.c **** *
 124:.\CommManager.c **** * Parameters:
 125:.\CommManager.c **** *  None.
 126:.\CommManager.c **** *
 127:.\CommManager.c **** * Return:
 128:.\CommManager.c **** *  None.
 129:.\CommManager.c **** *
 130:.\CommManager.c **** *******************************************************************************/
 131:.\CommManager.c **** void processLED_TimerRoutine(void)
 132:.\CommManager.c **** {
 133:.\CommManager.c ****     static uint8 bSwitch = false;
 134:.\CommManager.c ****     
 135:.\CommManager.c ****     LED_Timer_ReadStatusRegister();
 136:.\CommManager.c ****     
 137:.\CommManager.c ****     bSwitch = !bSwitch;
 138:.\CommManager.c ****     LEDoutput_Write(bSwitch);
 139:.\CommManager.c **** }
 140:.\CommManager.c **** 
 141:.\CommManager.c **** /*******************************************************************************
 142:.\CommManager.c **** * Function Name: processCommTimeoutRoutine
 143:.\CommManager.c **** ********************************************************************************
 144:.\CommManager.c **** *
 145:.\CommManager.c **** * Summary:
 146:.\CommManager.c **** *  Starts to count when UART has not received data for more than a second. After
ARM GAS  C:\Users\faithc\AppData\Local\Temp\cc6V120r.s 			page 4


 147:.\CommManager.c **** *   reaching the timer limit, the routine reenables the siren inputs and stops
 148:.\CommManager.c **** *   the timer. Called in UART_TimerISR().
 149:.\CommManager.c **** *
 150:.\CommManager.c **** * Parameters:
 151:.\CommManager.c **** *  None.
 152:.\CommManager.c **** *
 153:.\CommManager.c **** * Return:
 154:.\CommManager.c **** *  None.
 155:.\CommManager.c **** *
 156:.\CommManager.c **** *******************************************************************************/
 157:.\CommManager.c **** void processCommTimeoutRoutine(void)
 158:.\CommManager.c **** {
 159:.\CommManager.c ****     UART_Timer_ReadStatusRegister();
 160:.\CommManager.c ****     
 161:.\CommManager.c ****     if(tenMilliSecondsCount < TIMER_LIMIT_IN_TEN_MILLISECONDS)
 162:.\CommManager.c ****         tenMilliSecondsCount++;
 163:.\CommManager.c ****     else
 164:.\CommManager.c ****     {
 165:.\CommManager.c ****         tenMilliSecondsCount = 0;
 166:.\CommManager.c ****         disableAudioAndPWM();
 167:.\CommManager.c ****         disableBothSpeakers();
 168:.\CommManager.c ****         enableToneInputInterrupts();
 169:.\CommManager.c ****         UART_Timer_Stop();
 170:.\CommManager.c ****     }
 171:.\CommManager.c **** }
 172:.\CommManager.c **** 
 173:.\CommManager.c **** /**********DEFINED LOCAL FUNCTIONS**********/
 174:.\CommManager.c **** /*******************************************************************************
 175:.\CommManager.c **** * Function Name: detectPacket
 176:.\CommManager.c **** ********************************************************************************
 177:.\CommManager.c **** *
 178:.\CommManager.c **** * Summary:
 179:.\CommManager.c **** *  Determines if the incoming byte belongs to a valid packet. If the packet is for
 180:.\CommManager.c **** *  for starting voice stream, voice stream mode will be activated.
 181:.\CommManager.c **** *
 182:.\CommManager.c **** * Parameters:
 183:.\CommManager.c **** *  dataByte: The byte to check
 184:.\CommManager.c **** *
 185:.\CommManager.c **** * Return:
 186:.\CommManager.c **** *  None.
 187:.\CommManager.c **** *
 188:.\CommManager.c **** *******************************************************************************/
 189:.\CommManager.c **** static void detectPacket(uint8 dataByte)
 190:.\CommManager.c **** {
 191:.\CommManager.c ****     static uint8 packet[MAX_PAYLOAD_BYTE_COUNT+HEADER_BYTE_COUNT+EOP_BYTE_COUNT];   
 192:.\CommManager.c ****     static enum PacketState currentState = HEADER_STATE;
 193:.\CommManager.c ****     static enum DataType currentType = SIREN_INPUTS;
 194:.\CommManager.c ****     static uint8 currentPacketIndex = HEADER_START_INDEX;
 195:.\CommManager.c ****     
 196:.\CommManager.c ****     switch(currentState)
 197:.\CommManager.c ****     {
 198:.\CommManager.c ****         case HEADER_STATE:
 199:.\CommManager.c ****             if((currentPacketIndex == HEADER_START_INDEX) && ((dataByte == PacketList[VOICE_DATA].H
 200:.\CommManager.c ****                 (dataByte == PacketList[SIREN_INPUTS].HEADER_BYTE)))
 201:.\CommManager.c ****             {
 202:.\CommManager.c ****                 packet[currentPacketIndex] = dataByte;
 203:.\CommManager.c ****                 currentPacketIndex++;
ARM GAS  C:\Users\faithc\AppData\Local\Temp\cc6V120r.s 			page 5


 204:.\CommManager.c ****             }
 205:.\CommManager.c ****             else if((currentPacketIndex == (HEADER_START_INDEX+1)) && ((dataByte == PacketList[VOIC
 206:.\CommManager.c ****                 (dataByte == PacketList[SIREN_INPUTS].PACKET_TYPE)))
 207:.\CommManager.c ****             {
 208:.\CommManager.c ****                 packet[currentPacketIndex] = dataByte;
 209:.\CommManager.c ****                 currentPacketIndex++;
 210:.\CommManager.c ****                 currentState = PAYLOAD_STATE;
 211:.\CommManager.c ****                 
 212:.\CommManager.c ****                 if(dataByte == PacketList[VOICE_DATA].PACKET_TYPE)
 213:.\CommManager.c ****                     currentType = VOICE_DATA;
 214:.\CommManager.c ****                 else
 215:.\CommManager.c ****                     currentType = SIREN_INPUTS;
 216:.\CommManager.c ****             }
 217:.\CommManager.c ****             else
 218:.\CommManager.c ****             {
 219:.\CommManager.c ****                 currentPacketIndex = HEADER_START_INDEX;
 220:.\CommManager.c ****                 currentType = SIREN_INPUTS;
 221:.\CommManager.c ****             }
 222:.\CommManager.c ****             break;
 223:.\CommManager.c ****             
 224:.\CommManager.c ****         case PAYLOAD_STATE:
 225:.\CommManager.c ****             packet[currentPacketIndex] = dataByte;
 226:.\CommManager.c ****             currentPacketIndex++;
 227:.\CommManager.c ****             
 228:.\CommManager.c ****             if(currentPacketIndex >= (PAYLOAD_START_INDEX + PacketList[currentType].PAYLOAD_SIZE))
 229:.\CommManager.c ****                 currentState = EOP_STATE;
 230:.\CommManager.c ****             break;   
 231:.\CommManager.c ****             
 232:.\CommManager.c ****         case EOP_STATE:
 233:.\CommManager.c ****             if((currentPacketIndex == (PAYLOAD_START_INDEX + PacketList[currentType].PAYLOAD_SIZE))
 234:.\CommManager.c ****                 (dataByte == PacketList[currentType].EOP_CARRIAGE_RETURN))
 235:.\CommManager.c ****             {
 236:.\CommManager.c ****                 packet[currentPacketIndex] = dataByte;
 237:.\CommManager.c ****                 currentPacketIndex++;
 238:.\CommManager.c ****             }
 239:.\CommManager.c ****             else if((currentPacketIndex == (PAYLOAD_START_INDEX + PacketList[currentType].PAYLOAD_S
 240:.\CommManager.c ****                 (dataByte == PacketList[currentType].EOP_LINE_FEED))
 241:.\CommManager.c ****             {
 242:.\CommManager.c ****                 packet[currentPacketIndex] = dataByte;
 243:.\CommManager.c ****                 
 244:.\CommManager.c ****                 if(currentType == VOICE_DATA)
 245:.\CommManager.c ****                 { 
 246:.\CommManager.c ****                     if(packet[PAYLOAD_START_INDEX] == START_BYTE)
 247:.\CommManager.c ****                     {
 248:.\CommManager.c ****                         bVoiceStreamEnabled = true;
 249:.\CommManager.c ****                         startVoiceStreamMode();
 250:.\CommManager.c ****                     }
 251:.\CommManager.c ****                     else
 252:.\CommManager.c ****                     {
 253:.\CommManager.c ****                         bVoiceStreamEnabled = false;
 254:.\CommManager.c ****                         stopVoiceStreamMode();
 255:.\CommManager.c ****                     }
 256:.\CommManager.c ****                 }
 257:.\CommManager.c ****                 else if(currentType == SIREN_INPUTS)
 258:.\CommManager.c ****                     setTonesWithCommunication(packet[PAYLOAD_START_INDEX], 
 259:.\CommManager.c ****                         packet[PAYLOAD_START_INDEX + 1], packet[PAYLOAD_START_INDEX + 2]);
 260:.\CommManager.c ****                 
ARM GAS  C:\Users\faithc\AppData\Local\Temp\cc6V120r.s 			page 6


 261:.\CommManager.c ****                 currentPacketIndex = HEADER_START_INDEX;
 262:.\CommManager.c ****                 currentState = HEADER_STATE;
 263:.\CommManager.c ****                 currentType = SIREN_INPUTS;
 264:.\CommManager.c ****             }
 265:.\CommManager.c ****             else
 266:.\CommManager.c ****             {
 267:.\CommManager.c ****                 currentPacketIndex = HEADER_START_INDEX;
 268:.\CommManager.c ****                 currentState = HEADER_STATE;
 269:.\CommManager.c ****                 currentType = SIREN_INPUTS;
 270:.\CommManager.c ****             }
 271:.\CommManager.c ****             break;
 272:.\CommManager.c ****     }
 273:.\CommManager.c **** }
 274:.\CommManager.c **** 
 275:.\CommManager.c **** /*******************************************************************************
 276:.\CommManager.c **** * Function Name: startVoiceStreamMode
 277:.\CommManager.c **** ********************************************************************************
 278:.\CommManager.c **** *
 279:.\CommManager.c **** * Summary:
 280:.\CommManager.c **** *  Enables DACs and Power Amps for voice stream.
 281:.\CommManager.c **** *
 282:.\CommManager.c **** * Parameters:
 283:.\CommManager.c **** *  None.
 284:.\CommManager.c **** *
 285:.\CommManager.c **** * Return:
 286:.\CommManager.c **** *  None.
 287:.\CommManager.c **** *
 288:.\CommManager.c **** *******************************************************************************/
 289:.\CommManager.c **** static void startVoiceStreamMode(void)
 290:.\CommManager.c **** {
  26              		.loc 1 290 0
  27              		.cfi_startproc
  28              		@ args = 0, pretend = 0, frame = 0
  29              		@ frame_needed = 0, uses_anonymous_args = 0
  30 0000 08B5     		push	{r3, lr}
  31              		.cfi_def_cfa_offset 8
  32              		.cfi_offset 3, -8
  33              		.cfi_offset 14, -4
 291:.\CommManager.c ****     DACtimer1_Stop();
  34              		.loc 1 291 0
  35 0002 FFF7FEFF 		bl	DACtimer1_Stop
  36              	.LVL0:
 292:.\CommManager.c ****     DACtimer2_Stop();
  37              		.loc 1 292 0
  38 0006 FFF7FEFF 		bl	DACtimer2_Stop
  39              	.LVL1:
 293:.\CommManager.c ****     
 294:.\CommManager.c ****     AMux1_FastSelect(DAC_MODE);
  40              		.loc 1 294 0
  41 000a 0120     		movs	r0, #1
  42 000c FFF7FEFF 		bl	AMux1_FastSelect
  43              	.LVL2:
 295:.\CommManager.c ****     AMux2_FastSelect(DAC_MODE);
  44              		.loc 1 295 0
  45 0010 0120     		movs	r0, #1
  46 0012 FFF7FEFF 		bl	AMux2_FastSelect
  47              	.LVL3:
ARM GAS  C:\Users\faithc\AppData\Local\Temp\cc6V120r.s 			page 7


 296:.\CommManager.c ****     
 297:.\CommManager.c ****     PGA_1_Start();   
  48              		.loc 1 297 0
  49 0016 FFF7FEFF 		bl	PGA_1_Start
  50              	.LVL4:
 298:.\CommManager.c ****     VDAC8_1_Start();
  51              		.loc 1 298 0
  52 001a FFF7FEFF 		bl	VDAC8_1_Start
  53              	.LVL5:
 299:.\CommManager.c ****     VDAC8_1_SetValue(INITIAL_DAC_VALUE);
  54              		.loc 1 299 0
  55 001e 8020     		movs	r0, #128
  56 0020 FFF7FEFF 		bl	VDAC8_1_SetValue
  57              	.LVL6:
 300:.\CommManager.c ****     
 301:.\CommManager.c ****     PGA_2_Start();   
  58              		.loc 1 301 0
  59 0024 FFF7FEFF 		bl	PGA_2_Start
  60              	.LVL7:
 302:.\CommManager.c ****     VDAC8_2_Start();
  61              		.loc 1 302 0
  62 0028 FFF7FEFF 		bl	VDAC8_2_Start
  63              	.LVL8:
 303:.\CommManager.c ****     VDAC8_2_SetValue(INITIAL_DAC_VALUE);
  64              		.loc 1 303 0
  65 002c 8020     		movs	r0, #128
  66 002e FFF7FEFF 		bl	VDAC8_2_SetValue
  67              	.LVL9:
 304:.\CommManager.c ****     
 305:.\CommManager.c ****     PowerAmpOutput1_Write(true);
  68              		.loc 1 305 0
  69 0032 0120     		movs	r0, #1
  70 0034 FFF7FEFF 		bl	PowerAmpOutput1_Write
  71              	.LVL10:
 306:.\CommManager.c ****     PowerAmpOutput2_Write(true);
  72              		.loc 1 306 0
  73 0038 0120     		movs	r0, #1
  74 003a FFF7FEFF 		bl	PowerAmpOutput2_Write
  75              	.LVL11:
  76 003e 08BD     		pop	{r3, pc}
  77              		.cfi_endproc
  78              	.LFE67:
  79              		.size	startVoiceStreamMode, .-startVoiceStreamMode
  80              		.section	.text.stopVoiceStreamMode,"ax",%progbits
  81              		.align	2
  82              		.thumb
  83              		.thumb_func
  84              		.type	stopVoiceStreamMode, %function
  85              	stopVoiceStreamMode:
  86              	.LFB68:
 307:.\CommManager.c **** }
 308:.\CommManager.c **** 
 309:.\CommManager.c **** /*******************************************************************************
 310:.\CommManager.c **** * Function Name: stopVoiceStreamMode
 311:.\CommManager.c **** ********************************************************************************
 312:.\CommManager.c **** *
 313:.\CommManager.c **** * Summary:
ARM GAS  C:\Users\faithc\AppData\Local\Temp\cc6V120r.s 			page 8


 314:.\CommManager.c **** *  Disables DACs and Power Amps for voice stream.
 315:.\CommManager.c **** *
 316:.\CommManager.c **** * Parameters:
 317:.\CommManager.c **** *  None.
 318:.\CommManager.c **** *
 319:.\CommManager.c **** * Return:
 320:.\CommManager.c **** *  None.
 321:.\CommManager.c **** *
 322:.\CommManager.c **** *******************************************************************************/
 323:.\CommManager.c **** static void stopVoiceStreamMode(void)
 324:.\CommManager.c **** {
  87              		.loc 1 324 0
  88              		.cfi_startproc
  89              		@ args = 0, pretend = 0, frame = 0
  90              		@ frame_needed = 0, uses_anonymous_args = 0
  91 0000 08B5     		push	{r3, lr}
  92              		.cfi_def_cfa_offset 8
  93              		.cfi_offset 3, -8
  94              		.cfi_offset 14, -4
 325:.\CommManager.c ****     PowerAmpOutput1_Write(false);
  95              		.loc 1 325 0
  96 0002 0020     		movs	r0, #0
  97 0004 FFF7FEFF 		bl	PowerAmpOutput1_Write
  98              	.LVL12:
 326:.\CommManager.c ****     PowerAmpOutput2_Write(false);
  99              		.loc 1 326 0
 100 0008 0020     		movs	r0, #0
 101 000a FFF7FEFF 		bl	PowerAmpOutput2_Write
 102              	.LVL13:
 327:.\CommManager.c ****     
 328:.\CommManager.c ****     VDAC8_1_SetValue(INITIAL_DAC_VALUE);
 103              		.loc 1 328 0
 104 000e 8020     		movs	r0, #128
 105 0010 FFF7FEFF 		bl	VDAC8_1_SetValue
 106              	.LVL14:
 329:.\CommManager.c ****     VDAC8_1_Stop();
 107              		.loc 1 329 0
 108 0014 FFF7FEFF 		bl	VDAC8_1_Stop
 109              	.LVL15:
 330:.\CommManager.c ****     PGA_1_Stop();
 110              		.loc 1 330 0
 111 0018 FFF7FEFF 		bl	PGA_1_Stop
 112              	.LVL16:
 331:.\CommManager.c ****     
 332:.\CommManager.c ****     VDAC8_2_SetValue(INITIAL_DAC_VALUE);
 113              		.loc 1 332 0
 114 001c 8020     		movs	r0, #128
 115 001e FFF7FEFF 		bl	VDAC8_2_SetValue
 116              	.LVL17:
 333:.\CommManager.c ****     VDAC8_2_Stop();
 117              		.loc 1 333 0
 118 0022 FFF7FEFF 		bl	VDAC8_2_Stop
 119              	.LVL18:
 334:.\CommManager.c ****     PGA_2_Stop();
 120              		.loc 1 334 0
 121 0026 FFF7FEFF 		bl	PGA_2_Stop
 122              	.LVL19:
ARM GAS  C:\Users\faithc\AppData\Local\Temp\cc6V120r.s 			page 9


 123 002a 08BD     		pop	{r3, pc}
 124              		.cfi_endproc
 125              	.LFE68:
 126              		.size	stopVoiceStreamMode, .-stopVoiceStreamMode
 127              		.section	.text.detectPacket,"ax",%progbits
 128              		.align	2
 129              		.thumb
 130              		.thumb_func
 131              		.type	detectPacket, %function
 132              	detectPacket:
 133              	.LFB66:
 190:.\CommManager.c ****     static uint8 packet[MAX_PAYLOAD_BYTE_COUNT+HEADER_BYTE_COUNT+EOP_BYTE_COUNT];   
 134              		.loc 1 190 0
 135              		.cfi_startproc
 136              		@ args = 0, pretend = 0, frame = 0
 137              		@ frame_needed = 0, uses_anonymous_args = 0
 138              	.LVL20:
 139 0000 38B5     		push	{r3, r4, r5, lr}
 140              		.cfi_def_cfa_offset 16
 141              		.cfi_offset 3, -16
 142              		.cfi_offset 4, -12
 143              		.cfi_offset 5, -8
 144              		.cfi_offset 14, -4
 196:.\CommManager.c ****     {
 145              		.loc 1 196 0
 146 0002 4A4B     		ldr	r3, .L21
 147 0004 1B78     		ldrb	r3, [r3]	@ zero_extendqisi2
 148 0006 012B     		cmp	r3, #1
 149 0008 2DD0     		beq	.L7
 150 000a 13B1     		cbz	r3, .L8
 151 000c 022B     		cmp	r3, #2
 152 000e 3FD0     		beq	.L9
 153 0010 38BD     		pop	{r3, r4, r5, pc}
 154              	.L8:
 199:.\CommManager.c ****                 (dataByte == PacketList[SIREN_INPUTS].HEADER_BYTE)))
 155              		.loc 1 199 0
 156 0012 464B     		ldr	r3, .L21
 157 0014 5B78     		ldrb	r3, [r3, #1]	@ zero_extendqisi2
 158 0016 43B9     		cbnz	r3, .L10
 199:.\CommManager.c ****                 (dataByte == PacketList[SIREN_INPUTS].HEADER_BYTE)))
 159              		.loc 1 199 0 is_stmt 0 discriminator 1
 160 0018 7E28     		cmp	r0, #126
 161 001a 00D0     		beq	.L11
 199:.\CommManager.c ****                 (dataByte == PacketList[SIREN_INPUTS].HEADER_BYTE)))
 162              		.loc 1 199 0 discriminator 2
 163 001c 05D1     		bne	.L10
 164              	.L11:
 202:.\CommManager.c ****                 currentPacketIndex++;
 165              		.loc 1 202 0 is_stmt 1
 166 001e 434A     		ldr	r2, .L21
 167 0020 D118     		adds	r1, r2, r3
 168 0022 0871     		strb	r0, [r1, #4]
 203:.\CommManager.c ****             }
 169              		.loc 1 203 0
 170 0024 0133     		adds	r3, r3, #1
 171 0026 5370     		strb	r3, [r2, #1]
 172 0028 38BD     		pop	{r3, r4, r5, pc}
ARM GAS  C:\Users\faithc\AppData\Local\Temp\cc6V120r.s 			page 10


 173              	.L10:
 205:.\CommManager.c ****                 (dataByte == PacketList[SIREN_INPUTS].PACKET_TYPE)))
 174              		.loc 1 205 0
 175 002a 012B     		cmp	r3, #1
 176 002c 14D1     		bne	.L12
 205:.\CommManager.c ****                 (dataByte == PacketList[SIREN_INPUTS].PACKET_TYPE)))
 177              		.loc 1 205 0 is_stmt 0 discriminator 1
 178 002e 5628     		cmp	r0, #86
 179 0030 01D0     		beq	.L13
 205:.\CommManager.c ****                 (dataByte == PacketList[SIREN_INPUTS].PACKET_TYPE)))
 180              		.loc 1 205 0 discriminator 2
 181 0032 5328     		cmp	r0, #83
 182 0034 10D1     		bne	.L12
 183              	.L13:
 208:.\CommManager.c ****                 currentPacketIndex++;
 184              		.loc 1 208 0 is_stmt 1
 185 0036 3D4A     		ldr	r2, .L21
 186 0038 D118     		adds	r1, r2, r3
 187 003a 0871     		strb	r0, [r1, #4]
 209:.\CommManager.c ****                 currentState = PAYLOAD_STATE;
 188              		.loc 1 209 0
 189 003c 0133     		adds	r3, r3, #1
 190 003e 5370     		strb	r3, [r2, #1]
 210:.\CommManager.c ****                 
 191              		.loc 1 210 0
 192 0040 0123     		movs	r3, #1
 193 0042 1370     		strb	r3, [r2]
 212:.\CommManager.c ****                     currentType = VOICE_DATA;
 194              		.loc 1 212 0
 195 0044 5628     		cmp	r0, #86
 196 0046 03D1     		bne	.L14
 213:.\CommManager.c ****                 else
 197              		.loc 1 213 0
 198 0048 0022     		movs	r2, #0
 199 004a 394B     		ldr	r3, .L21+4
 200 004c 1A70     		strb	r2, [r3]
 201 004e 38BD     		pop	{r3, r4, r5, pc}
 202              	.L14:
 215:.\CommManager.c ****             }
 203              		.loc 1 215 0
 204 0050 0122     		movs	r2, #1
 205 0052 374B     		ldr	r3, .L21+4
 206 0054 1A70     		strb	r2, [r3]
 207 0056 38BD     		pop	{r3, r4, r5, pc}
 208              	.L12:
 219:.\CommManager.c ****                 currentType = SIREN_INPUTS;
 209              		.loc 1 219 0
 210 0058 0022     		movs	r2, #0
 211 005a 344B     		ldr	r3, .L21
 212 005c 5A70     		strb	r2, [r3, #1]
 220:.\CommManager.c ****             }
 213              		.loc 1 220 0
 214 005e 0122     		movs	r2, #1
 215 0060 334B     		ldr	r3, .L21+4
 216 0062 1A70     		strb	r2, [r3]
 217 0064 38BD     		pop	{r3, r4, r5, pc}
 218              	.L7:
ARM GAS  C:\Users\faithc\AppData\Local\Temp\cc6V120r.s 			page 11


 225:.\CommManager.c ****             currentPacketIndex++;
 219              		.loc 1 225 0
 220 0066 314A     		ldr	r2, .L21
 221 0068 5378     		ldrb	r3, [r2, #1]	@ zero_extendqisi2
 222 006a D118     		adds	r1, r2, r3
 223 006c 0871     		strb	r0, [r1, #4]
 226:.\CommManager.c ****             
 224              		.loc 1 226 0
 225 006e 0133     		adds	r3, r3, #1
 226 0070 DBB2     		uxtb	r3, r3
 227 0072 5370     		strb	r3, [r2, #1]
 228:.\CommManager.c ****                 currentState = EOP_STATE;
 228              		.loc 1 228 0
 229 0074 2E4A     		ldr	r2, .L21+4
 230 0076 1278     		ldrb	r2, [r2]	@ zero_extendqisi2
 231 0078 02EB8202 		add	r2, r2, r2, lsl #2
 232 007c 2D49     		ldr	r1, .L21+8
 233 007e 0A44     		add	r2, r2, r1
 234 0080 9278     		ldrb	r2, [r2, #2]	@ zero_extendqisi2
 235 0082 0232     		adds	r2, r2, #2
 236 0084 9342     		cmp	r3, r2
 237 0086 50DB     		blt	.L5
 229:.\CommManager.c ****             break;   
 238              		.loc 1 229 0
 239 0088 0222     		movs	r2, #2
 240 008a 284B     		ldr	r3, .L21
 241 008c 1A70     		strb	r2, [r3]
 242 008e 38BD     		pop	{r3, r4, r5, pc}
 243              	.L9:
 233:.\CommManager.c ****                 (dataByte == PacketList[currentType].EOP_CARRIAGE_RETURN))
 244              		.loc 1 233 0
 245 0090 264B     		ldr	r3, .L21
 246 0092 5978     		ldrb	r1, [r3, #1]	@ zero_extendqisi2
 247 0094 264B     		ldr	r3, .L21+4
 248 0096 1A78     		ldrb	r2, [r3]	@ zero_extendqisi2
 249 0098 02EB8203 		add	r3, r2, r2, lsl #2
 250 009c 254C     		ldr	r4, .L21+8
 251 009e 2344     		add	r3, r3, r4
 252 00a0 9B78     		ldrb	r3, [r3, #2]	@ zero_extendqisi2
 253 00a2 9C1C     		adds	r4, r3, #2
 254 00a4 A142     		cmp	r1, r4
 255 00a6 0CD1     		bne	.L15
 234:.\CommManager.c ****             {
 256              		.loc 1 234 0 discriminator 1
 257 00a8 02EB8204 		add	r4, r2, r2, lsl #2
 258 00ac 214D     		ldr	r5, .L21+8
 259 00ae 2C44     		add	r4, r4, r5
 260 00b0 E478     		ldrb	r4, [r4, #3]	@ zero_extendqisi2
 233:.\CommManager.c ****                 (dataByte == PacketList[currentType].EOP_CARRIAGE_RETURN))
 261              		.loc 1 233 0 discriminator 1
 262 00b2 8442     		cmp	r4, r0
 263 00b4 05D1     		bne	.L15
 236:.\CommManager.c ****                 currentPacketIndex++;
 264              		.loc 1 236 0
 265 00b6 1D4B     		ldr	r3, .L21
 266 00b8 5A18     		adds	r2, r3, r1
 267 00ba 1071     		strb	r0, [r2, #4]
ARM GAS  C:\Users\faithc\AppData\Local\Temp\cc6V120r.s 			page 12


 237:.\CommManager.c ****             }
 268              		.loc 1 237 0
 269 00bc 0131     		adds	r1, r1, #1
 270 00be 5970     		strb	r1, [r3, #1]
 271 00c0 38BD     		pop	{r3, r4, r5, pc}
 272              	.L15:
 239:.\CommManager.c ****                 (dataByte == PacketList[currentType].EOP_LINE_FEED))
 273              		.loc 1 239 0
 274 00c2 0333     		adds	r3, r3, #3
 275 00c4 9942     		cmp	r1, r3
 276 00c6 29D1     		bne	.L16
 240:.\CommManager.c ****             {
 277              		.loc 1 240 0 discriminator 1
 278 00c8 02EB8203 		add	r3, r2, r2, lsl #2
 279 00cc 194C     		ldr	r4, .L21+8
 280 00ce 2344     		add	r3, r3, r4
 281 00d0 1B79     		ldrb	r3, [r3, #4]	@ zero_extendqisi2
 239:.\CommManager.c ****                 (dataByte == PacketList[currentType].EOP_LINE_FEED))
 282              		.loc 1 239 0 discriminator 1
 283 00d2 8342     		cmp	r3, r0
 284 00d4 22D1     		bne	.L16
 242:.\CommManager.c ****                 
 285              		.loc 1 242 0
 286 00d6 154B     		ldr	r3, .L21
 287 00d8 1944     		add	r1, r1, r3
 288 00da 0871     		strb	r0, [r1, #4]
 244:.\CommManager.c ****                 { 
 289              		.loc 1 244 0
 290 00dc 72B9     		cbnz	r2, .L17
 246:.\CommManager.c ****                     {
 291              		.loc 1 246 0
 292 00de 9B79     		ldrb	r3, [r3, #6]	@ zero_extendqisi2
 293 00e0 AA2B     		cmp	r3, #170
 294 00e2 05D1     		bne	.L18
 248:.\CommManager.c ****                         startVoiceStreamMode();
 295              		.loc 1 248 0
 296 00e4 0122     		movs	r2, #1
 297 00e6 114B     		ldr	r3, .L21
 298 00e8 DA73     		strb	r2, [r3, #15]
 249:.\CommManager.c ****                     }
 299              		.loc 1 249 0
 300 00ea FFF7FEFF 		bl	startVoiceStreamMode
 301              	.LVL21:
 302 00ee 0DE0     		b	.L19
 303              	.LVL22:
 304              	.L18:
 253:.\CommManager.c ****                         stopVoiceStreamMode();
 305              		.loc 1 253 0
 306 00f0 0022     		movs	r2, #0
 307 00f2 0E4B     		ldr	r3, .L21
 308 00f4 DA73     		strb	r2, [r3, #15]
 254:.\CommManager.c ****                     }
 309              		.loc 1 254 0
 310 00f6 FFF7FEFF 		bl	stopVoiceStreamMode
 311              	.LVL23:
 312 00fa 07E0     		b	.L19
 313              	.LVL24:
ARM GAS  C:\Users\faithc\AppData\Local\Temp\cc6V120r.s 			page 13


 314              	.L17:
 257:.\CommManager.c ****                     setTonesWithCommunication(packet[PAYLOAD_START_INDEX], 
 315              		.loc 1 257 0
 316 00fc 012A     		cmp	r2, #1
 317 00fe 05D1     		bne	.L19
 258:.\CommManager.c ****                         packet[PAYLOAD_START_INDEX + 1], packet[PAYLOAD_START_INDEX + 2]);
 318              		.loc 1 258 0
 319 0100 0A4B     		ldr	r3, .L21
 320 0102 9879     		ldrb	r0, [r3, #6]	@ zero_extendqisi2
 321              	.LVL25:
 322 0104 D979     		ldrb	r1, [r3, #7]	@ zero_extendqisi2
 323              	.LVL26:
 324 0106 1A7A     		ldrb	r2, [r3, #8]	@ zero_extendqisi2
 325 0108 FFF7FEFF 		bl	setTonesWithCommunication
 326              	.LVL27:
 327              	.L19:
 261:.\CommManager.c ****                 currentState = HEADER_STATE;
 328              		.loc 1 261 0
 329 010c 074B     		ldr	r3, .L21
 330 010e 0022     		movs	r2, #0
 331 0110 5A70     		strb	r2, [r3, #1]
 262:.\CommManager.c ****                 currentType = SIREN_INPUTS;
 332              		.loc 1 262 0
 333 0112 1A70     		strb	r2, [r3]
 263:.\CommManager.c ****             }
 334              		.loc 1 263 0
 335 0114 0122     		movs	r2, #1
 336 0116 064B     		ldr	r3, .L21+4
 337 0118 1A70     		strb	r2, [r3]
 338 011a 38BD     		pop	{r3, r4, r5, pc}
 339              	.LVL28:
 340              	.L16:
 267:.\CommManager.c ****                 currentState = HEADER_STATE;
 341              		.loc 1 267 0
 342 011c 034B     		ldr	r3, .L21
 343 011e 0022     		movs	r2, #0
 344 0120 5A70     		strb	r2, [r3, #1]
 268:.\CommManager.c ****                 currentType = SIREN_INPUTS;
 345              		.loc 1 268 0
 346 0122 1A70     		strb	r2, [r3]
 269:.\CommManager.c ****             }
 347              		.loc 1 269 0
 348 0124 0122     		movs	r2, #1
 349 0126 024B     		ldr	r3, .L21+4
 350 0128 1A70     		strb	r2, [r3]
 351              	.L5:
 352 012a 38BD     		pop	{r3, r4, r5, pc}
 353              	.L22:
 354              		.align	2
 355              	.L21:
 356 012c 00000000 		.word	.LANCHOR0
 357 0130 00000000 		.word	.LANCHOR1
 358 0134 00000000 		.word	.LANCHOR2
 359              		.cfi_endproc
 360              	.LFE66:
 361              		.size	detectPacket, .-detectPacket
 362              		.section	.text.processByteReceivedHandler,"ax",%progbits
ARM GAS  C:\Users\faithc\AppData\Local\Temp\cc6V120r.s 			page 14


 363              		.align	2
 364              		.global	processByteReceivedHandler
 365              		.thumb
 366              		.thumb_func
 367              		.type	processByteReceivedHandler, %function
 368              	processByteReceivedHandler:
 369              	.LFB63:
  93:.\CommManager.c ****     uint8 dataByte = 0;
 370              		.loc 1 93 0
 371              		.cfi_startproc
 372              		@ args = 0, pretend = 0, frame = 0
 373              		@ frame_needed = 0, uses_anonymous_args = 0
 374 0000 10B5     		push	{r4, lr}
 375              		.cfi_def_cfa_offset 8
 376              		.cfi_offset 4, -8
 377              		.cfi_offset 14, -4
 378              	.LVL29:
  96:.\CommManager.c ****     disableToneInputInterrupts();
 379              		.loc 1 96 0
 380 0002 FFF7FEFF 		bl	UART_Timer_Stop
 381              	.LVL30:
  97:.\CommManager.c ****     tenMilliSecondsCount = 0;
 382              		.loc 1 97 0
 383 0006 FFF7FEFF 		bl	disableToneInputInterrupts
 384              	.LVL31:
  98:.\CommManager.c ****     
 385              		.loc 1 98 0
 386 000a 0022     		movs	r2, #0
 387 000c 0B4B     		ldr	r3, .L27
 388 000e 1A74     		strb	r2, [r3, #16]
 389              	.LVL32:
 390              	.L25:
 102:.\CommManager.c ****         
 391              		.loc 1 102 0
 392 0010 FFF7FEFF 		bl	UART_GetChar
 393              	.LVL33:
 394 0014 0446     		mov	r4, r0
 395              	.LVL34:
 104:.\CommManager.c ****         {   
 396              		.loc 1 104 0
 397 0016 094B     		ldr	r3, .L27
 398 0018 DB7B     		ldrb	r3, [r3, #15]	@ zero_extendqisi2
 399 001a 23B1     		cbz	r3, .L24
 106:.\CommManager.c ****             VDAC8_2_SetValue(dataByte);
 400              		.loc 1 106 0
 401 001c FFF7FEFF 		bl	VDAC8_1_SetValue
 402              	.LVL35:
 107:.\CommManager.c ****         }
 403              		.loc 1 107 0
 404 0020 2046     		mov	r0, r4
 405 0022 FFF7FEFF 		bl	VDAC8_2_SetValue
 406              	.LVL36:
 407              	.L24:
 110:.\CommManager.c ****         
 408              		.loc 1 110 0
 409 0026 2046     		mov	r0, r4
 410 0028 FFF7FEFF 		bl	detectPacket
ARM GAS  C:\Users\faithc\AppData\Local\Temp\cc6V120r.s 			page 15


 411              	.LVL37:
 112:.\CommManager.c ****     
 412              		.loc 1 112 0
 413 002c FFF7FEFF 		bl	UART_ReadRxStatus
 414              	.LVL38:
 415 0030 10F0200F 		tst	r0, #32
 416 0034 ECD1     		bne	.L25
 114:.\CommManager.c **** }
 417              		.loc 1 114 0
 418 0036 FFF7FEFF 		bl	UART_Timer_Start
 419              	.LVL39:
 420 003a 10BD     		pop	{r4, pc}
 421              	.L28:
 422              		.align	2
 423              	.L27:
 424 003c 00000000 		.word	.LANCHOR0
 425              		.cfi_endproc
 426              	.LFE63:
 427              		.size	processByteReceivedHandler, .-processByteReceivedHandler
 428              		.section	.text.processLED_TimerRoutine,"ax",%progbits
 429              		.align	2
 430              		.global	processLED_TimerRoutine
 431              		.thumb
 432              		.thumb_func
 433              		.type	processLED_TimerRoutine, %function
 434              	processLED_TimerRoutine:
 435              	.LFB64:
 132:.\CommManager.c ****     static uint8 bSwitch = false;
 436              		.loc 1 132 0
 437              		.cfi_startproc
 438              		@ args = 0, pretend = 0, frame = 0
 439              		@ frame_needed = 0, uses_anonymous_args = 0
 440 0000 08B5     		push	{r3, lr}
 441              		.cfi_def_cfa_offset 8
 442              		.cfi_offset 3, -8
 443              		.cfi_offset 14, -4
 135:.\CommManager.c ****     
 444              		.loc 1 135 0
 445 0002 FFF7FEFF 		bl	LED_Timer_ReadStatusRegister
 446              	.LVL40:
 137:.\CommManager.c ****     LEDoutput_Write(bSwitch);
 447              		.loc 1 137 0
 448 0006 044B     		ldr	r3, .L31
 449 0008 587C     		ldrb	r0, [r3, #17]	@ zero_extendqisi2
 450 000a B0FA80F0 		clz	r0, r0
 451 000e 4009     		lsrs	r0, r0, #5
 452 0010 5874     		strb	r0, [r3, #17]
 138:.\CommManager.c **** }
 453              		.loc 1 138 0
 454 0012 FFF7FEFF 		bl	LEDoutput_Write
 455              	.LVL41:
 456 0016 08BD     		pop	{r3, pc}
 457              	.L32:
 458              		.align	2
 459              	.L31:
 460 0018 00000000 		.word	.LANCHOR0
 461              		.cfi_endproc
ARM GAS  C:\Users\faithc\AppData\Local\Temp\cc6V120r.s 			page 16


 462              	.LFE64:
 463              		.size	processLED_TimerRoutine, .-processLED_TimerRoutine
 464              		.section	.text.processCommTimeoutRoutine,"ax",%progbits
 465              		.align	2
 466              		.global	processCommTimeoutRoutine
 467              		.thumb
 468              		.thumb_func
 469              		.type	processCommTimeoutRoutine, %function
 470              	processCommTimeoutRoutine:
 471              	.LFB65:
 158:.\CommManager.c ****     UART_Timer_ReadStatusRegister();
 472              		.loc 1 158 0
 473              		.cfi_startproc
 474              		@ args = 0, pretend = 0, frame = 0
 475              		@ frame_needed = 0, uses_anonymous_args = 0
 476 0000 08B5     		push	{r3, lr}
 477              		.cfi_def_cfa_offset 8
 478              		.cfi_offset 3, -8
 479              		.cfi_offset 14, -4
 159:.\CommManager.c ****     
 480              		.loc 1 159 0
 481 0002 FFF7FEFF 		bl	UART_Timer_ReadStatusRegister
 482              	.LVL42:
 161:.\CommManager.c ****         tenMilliSecondsCount++;
 483              		.loc 1 161 0
 484 0006 0A4B     		ldr	r3, .L37
 485 0008 1B7C     		ldrb	r3, [r3, #16]	@ zero_extendqisi2
 486 000a 312B     		cmp	r3, #49
 487 000c 03D8     		bhi	.L34
 162:.\CommManager.c ****     else
 488              		.loc 1 162 0
 489 000e 0133     		adds	r3, r3, #1
 490 0010 074A     		ldr	r2, .L37
 491 0012 1374     		strb	r3, [r2, #16]
 492 0014 08BD     		pop	{r3, pc}
 493              	.L34:
 165:.\CommManager.c ****         disableAudioAndPWM();
 494              		.loc 1 165 0
 495 0016 0022     		movs	r2, #0
 496 0018 054B     		ldr	r3, .L37
 497 001a 1A74     		strb	r2, [r3, #16]
 166:.\CommManager.c ****         disableBothSpeakers();
 498              		.loc 1 166 0
 499 001c FFF7FEFF 		bl	disableAudioAndPWM
 500              	.LVL43:
 167:.\CommManager.c ****         enableToneInputInterrupts();
 501              		.loc 1 167 0
 502 0020 FFF7FEFF 		bl	disableBothSpeakers
 503              	.LVL44:
 168:.\CommManager.c ****         UART_Timer_Stop();
 504              		.loc 1 168 0
 505 0024 FFF7FEFF 		bl	enableToneInputInterrupts
 506              	.LVL45:
 169:.\CommManager.c ****     }
 507              		.loc 1 169 0
 508 0028 FFF7FEFF 		bl	UART_Timer_Stop
 509              	.LVL46:
ARM GAS  C:\Users\faithc\AppData\Local\Temp\cc6V120r.s 			page 17


 510 002c 08BD     		pop	{r3, pc}
 511              	.L38:
 512 002e 00BF     		.align	2
 513              	.L37:
 514 0030 00000000 		.word	.LANCHOR0
 515              		.cfi_endproc
 516              	.LFE65:
 517              		.size	processCommTimeoutRoutine, .-processCommTimeoutRoutine
 518              		.section	.rodata
 519              		.align	2
 520              		.set	.LANCHOR2,. + 0
 521              		.type	PacketList, %object
 522              		.size	PacketList, 10
 523              	PacketList:
 524 0000 7E       		.byte	126
 525 0001 56       		.byte	86
 526 0002 01       		.byte	1
 527 0003 0D       		.byte	13
 528 0004 0A       		.byte	10
 529 0005 7E       		.byte	126
 530 0006 53       		.byte	83
 531 0007 03       		.byte	3
 532 0008 0D       		.byte	13
 533 0009 0A       		.byte	10
 534 000a 0000     		.data
 535              		.set	.LANCHOR1,. + 0
 536              		.type	currentType.7247, %object
 537              		.size	currentType.7247, 1
 538              	currentType.7247:
 539 0000 01       		.byte	1
 540              		.bss
 541              		.align	2
 542              		.set	.LANCHOR0,. + 0
 543              		.type	currentState.7246, %object
 544              		.size	currentState.7246, 1
 545              	currentState.7246:
 546 0000 00       		.space	1
 547              		.type	currentPacketIndex.7248, %object
 548              		.size	currentPacketIndex.7248, 1
 549              	currentPacketIndex.7248:
 550 0001 00       		.space	1
 551 0002 0000     		.space	2
 552              		.type	packet.7245, %object
 553              		.size	packet.7245, 11
 554              	packet.7245:
 555 0004 00000000 		.space	11
 555      00000000 
 555      000000
 556              		.type	bVoiceStreamEnabled, %object
 557              		.size	bVoiceStreamEnabled, 1
 558              	bVoiceStreamEnabled:
 559 000f 00       		.space	1
 560              		.type	tenMilliSecondsCount, %object
 561              		.size	tenMilliSecondsCount, 1
 562              	tenMilliSecondsCount:
 563 0010 00       		.space	1
 564              		.type	bSwitch.7238, %object
ARM GAS  C:\Users\faithc\AppData\Local\Temp\cc6V120r.s 			page 18


 565              		.size	bSwitch.7238, 1
 566              	bSwitch.7238:
 567 0011 00       		.space	1
 568 0012 0000     		.text
 569              	.Letext0:
 570              		.file 2 "c:\\program files (x86)\\cypress\\psoc creator\\3.3\\psoc creator\\import\\gnu\\arm\\4.9.
 571              		.file 3 "c:\\program files (x86)\\cypress\\psoc creator\\3.3\\psoc creator\\import\\gnu\\arm\\4.9.
 572              		.file 4 "Generated_Source\\PSoC5/cytypes.h"
 573              		.file 5 ".\\CommonVariables.h"
 574              		.file 6 "Generated_Source\\PSoC5/DACtimer1.h"
 575              		.file 7 "Generated_Source\\PSoC5/DACtimer2.h"
 576              		.file 8 "Generated_Source\\PSoC5/AMux1.h"
 577              		.file 9 "Generated_Source\\PSoC5/AMux2.h"
 578              		.file 10 "Generated_Source\\PSoC5/PGA_1.h"
 579              		.file 11 "Generated_Source\\PSoC5/VDAC8_1.h"
 580              		.file 12 "Generated_Source\\PSoC5/PGA_2.h"
 581              		.file 13 "Generated_Source\\PSoC5/VDAC8_2.h"
 582              		.file 14 "Generated_Source\\PSoC5/PowerAmpOutput1.h"
 583              		.file 15 "Generated_Source\\PSoC5/PowerAmpOutput2.h"
 584              		.file 16 "Generated_Source\\PSoC5/UART_Timer.h"
 585              		.file 17 ".\\SirenState.h"
 586              		.file 18 "Generated_Source\\PSoC5/UART.h"
 587              		.file 19 "Generated_Source\\PSoC5/LED_Timer.h"
 588              		.file 20 "Generated_Source\\PSoC5/LEDoutput.h"
 589              		.file 21 "Generated_Source\\PSoC5/core_cm3.h"