ARM GAS  C:\Users\faithc\AppData\Local\Temp\ccw6MITa.s 			page 1


   1              		.syntax unified
   2              		.cpu cortex-m3
   3              		.fpu softvfp
   4              		.eabi_attribute 20, 1
   5              		.eabi_attribute 21, 1
   6              		.eabi_attribute 23, 3
   7              		.eabi_attribute 24, 1
   8              		.eabi_attribute 25, 1
   9              		.eabi_attribute 26, 1
  10              		.eabi_attribute 30, 1
  11              		.eabi_attribute 34, 1
  12              		.eabi_attribute 18, 4
  13              		.thumb
  14              		.file	"DACaudio.c"
  15              		.text
  16              	.Ltext0:
  17              		.cfi_sections	.debug_frame
  18              		.section	.text.getSamplingReloadValue,"ax",%progbits
  19              		.align	2
  20              		.thumb
  21              		.thumb_func
  22              		.type	getSamplingReloadValue, %function
  23              	getSamplingReloadValue:
  24              	.LFB71:
  25              		.file 1 ".\\DACaudio.c"
   1:.\DACaudio.c  **** /* ========================================
   2:.\DACaudio.c  ****  *
   3:.\DACaudio.c  ****  * Copyright YOUR COMPANY, THE YEAR
   4:.\DACaudio.c  ****  * All Rights Reserved
   5:.\DACaudio.c  ****  * UNPUBLISHED, LICENSED SOFTWARE.
   6:.\DACaudio.c  ****  *
   7:.\DACaudio.c  ****  * CONFIDENTIAL AND PROPRIETARY INFORMATION
   8:.\DACaudio.c  ****  * WHICH IS THE PROPERTY OF your company.
   9:.\DACaudio.c  ****  *
  10:.\DACaudio.c  ****  * ========================================
  11:.\DACaudio.c  **** */
  12:.\DACaudio.c  **** /**********PREPROCESSOR DIRECTIVES**********/
  13:.\DACaudio.c  **** #include "CommonVariables.h"
  14:.\DACaudio.c  **** #include "SirenState.h"
  15:.\DACaudio.c  **** #include "DACaudio.h"
  16:.\DACaudio.c  **** #include "FileDecode.h"
  17:.\DACaudio.c  ****     
  18:.\DACaudio.c  **** /**********DEFINED CONSTANTS**********/
  19:.\DACaudio.c  **** static const uint8 INITIAL_DAC_VALUE = 128;
  20:.\DACaudio.c  **** 
  21:.\DACaudio.c  **** static const uint8 DEFAULT_CHANNEL_COUNT = 1;
  22:.\DACaudio.c  **** static const uint32 DEFAULT_SAMPLING_RATE = 8000; 
  23:.\DACaudio.c  **** 
  24:.\DACaudio.c  **** static const uint32 ECTO_CYCLE_START_INDEX = 12090;
  25:.\DACaudio.c  **** static const uint32 ECTO_CYCLE_END_INDEX = 23940;
  26:.\DACaudio.c  **** static const uint32 ECTO_RAMP_DOWN_INDEX = 83210;
  27:.\DACaudio.c  **** 
  28:.\DACaudio.c  **** /**********DATA STRUCTURES**********/
  29:.\DACaudio.c  **** typedef struct
  30:.\DACaudio.c  **** {
  31:.\DACaudio.c  ****     uint8 channelCount;
  32:.\DACaudio.c  ****     uint8 bytesPerSample;
ARM GAS  C:\Users\faithc\AppData\Local\Temp\ccw6MITa.s 			page 2


  33:.\DACaudio.c  ****     uint32 samplingRate;
  34:.\DACaudio.c  ****     uint32 dataSize;
  35:.\DACaudio.c  **** }DACdata;
  36:.\DACaudio.c  **** 
  37:.\DACaudio.c  **** /**********GLOBAL VARIABLES**********/
  38:.\DACaudio.c  **** static enum ToneType currentSongNumber = NO_TONE;
  39:.\DACaudio.c  **** static uint32 dataIndex = 0;
  40:.\DACaudio.c  **** 
  41:.\DACaudio.c  **** static uint8 bCurrentSpeaker = SPEAKER_1;
  42:.\DACaudio.c  **** static uint8 bAudioInputFlag = false;
  43:.\DACaudio.c  **** 
  44:.\DACaudio.c  **** static uint8 bAudioActive = false;
  45:.\DACaudio.c  **** static uint8 bSongFinishedFlag = false;
  46:.\DACaudio.c  **** 
  47:.\DACaudio.c  **** static DACdata Speaker1 = {0, 0, 0, 0};
  48:.\DACaudio.c  **** static DACdata Speaker2 = {0, 0, 0, 0};
  49:.\DACaudio.c  **** 
  50:.\DACaudio.c  **** /**********FUNCTION PROTOTYPES**********/
  51:.\DACaudio.c  **** static uint8 isMusicReady(enum ToneType songChoice);
  52:.\DACaudio.c  **** static uint16 getSamplingReloadValue(uint32 frequency);
  53:.\DACaudio.c  **** 
  54:.\DACaudio.c  **** /**********DEFINED FUNCTIONS**********/
  55:.\DACaudio.c  **** /*******************************************************************************
  56:.\DACaudio.c  **** * Function Name: isSongFinished
  57:.\DACaudio.c  **** ********************************************************************************
  58:.\DACaudio.c  **** *
  59:.\DACaudio.c  **** * Summary:
  60:.\DACaudio.c  **** *  Returns the status for song completion.
  61:.\DACaudio.c  **** *
  62:.\DACaudio.c  **** * Parameters: 
  63:.\DACaudio.c  **** *   None
  64:.\DACaudio.c  **** *
  65:.\DACaudio.c  **** * Return:
  66:.\DACaudio.c  **** *   TRUE if the song completed, FALSE if not completed
  67:.\DACaudio.c  **** *
  68:.\DACaudio.c  **** *******************************************************************************/
  69:.\DACaudio.c  **** uint8 isSongFinished(void)
  70:.\DACaudio.c  **** {
  71:.\DACaudio.c  ****     return bSongFinishedFlag;
  72:.\DACaudio.c  **** }
  73:.\DACaudio.c  **** 
  74:.\DACaudio.c  **** /*******************************************************************************
  75:.\DACaudio.c  **** * Function Name: playAudioTone
  76:.\DACaudio.c  **** ********************************************************************************
  77:.\DACaudio.c  **** *
  78:.\DACaudio.c  **** * Summary:
  79:.\DACaudio.c  **** *  Starts playing file song by updating the DAC at the sampling rate
  80:.\DACaudio.c  **** *
  81:.\DACaudio.c  **** * Parameters: 
  82:.\DACaudio.c  **** *   bSpeaker: The speaker to update
  83:.\DACaudio.c  **** *   songChoice: The value that represents the song selection
  84:.\DACaudio.c  **** *   bAudioInput: The input status for the song selection
  85:.\DACaudio.c  **** *
  86:.\DACaudio.c  **** * Return:
  87:.\DACaudio.c  **** *   TRUE for valid inputs, FALSE otherwise
  88:.\DACaudio.c  **** *
  89:.\DACaudio.c  **** *******************************************************************************/
ARM GAS  C:\Users\faithc\AppData\Local\Temp\ccw6MITa.s 			page 3


  90:.\DACaudio.c  **** uint8 playAudioTone(uint8 bSpeaker, enum ToneType songChoice, uint8 bAudioInput)
  91:.\DACaudio.c  **** {   
  92:.\DACaudio.c  ****     uint16 DACreloadValue = 0;
  93:.\DACaudio.c  ****     
  94:.\DACaudio.c  ****     if((bSpeaker != SPEAKER_1) && (bSpeaker != SPEAKER_2))
  95:.\DACaudio.c  ****         return false;
  96:.\DACaudio.c  ****     
  97:.\DACaudio.c  ****     if((bAudioInput != true) && (bAudioInput != false))
  98:.\DACaudio.c  ****         return false;
  99:.\DACaudio.c  ****     
 100:.\DACaudio.c  ****     if((songChoice < ECTOSIREN) || (songChoice > REMAIN_WINDOW_DOWN))
 101:.\DACaudio.c  ****     {
 102:.\DACaudio.c  ****         if(songChoice == NO_TONE)
 103:.\DACaudio.c  ****             currentSongNumber = songChoice;
 104:.\DACaudio.c  **** 
 105:.\DACaudio.c  ****         return false;
 106:.\DACaudio.c  ****     }
 107:.\DACaudio.c  ****     
 108:.\DACaudio.c  ****     if((currentSongNumber != songChoice) || ((currentSongNumber == songChoice) && (!bAudioActive)))
 109:.\DACaudio.c  ****     {
 110:.\DACaudio.c  ****         if(!isMusicReady(songChoice))
 111:.\DACaudio.c  ****             return false;
 112:.\DACaudio.c  **** 
 113:.\DACaudio.c  ****         currentSongNumber = songChoice;
 114:.\DACaudio.c  ****         dataIndex = 0;
 115:.\DACaudio.c  ****         bSongFinishedFlag = false;
 116:.\DACaudio.c  ****     }
 117:.\DACaudio.c  ****     
 118:.\DACaudio.c  ****     bCurrentSpeaker = bSpeaker;
 119:.\DACaudio.c  ****     bAudioInputFlag = bAudioInput;
 120:.\DACaudio.c  ****     
 121:.\DACaudio.c  ****     if((Speaker1.channelCount == DEFAULT_CHANNEL_COUNT) && 
 122:.\DACaudio.c  ****         (Speaker1.samplingRate == DEFAULT_SAMPLING_RATE))
 123:.\DACaudio.c  ****     {
 124:.\DACaudio.c  ****         AMux1_FastSelect(DAC_MODE);
 125:.\DACaudio.c  ****         AMux2_FastSelect(DAC_MODE);
 126:.\DACaudio.c  ****         
 127:.\DACaudio.c  ****         DACreloadValue = getSamplingReloadValue(Speaker1.samplingRate);        
 128:.\DACaudio.c  ****         DACtimer1_Start();        
 129:.\DACaudio.c  ****         DACtimer1_WritePeriod(DACreloadValue);
 130:.\DACaudio.c  ****         
 131:.\DACaudio.c  ****         PGA_1_Start();   
 132:.\DACaudio.c  ****         VDAC8_1_Start();
 133:.\DACaudio.c  ****         VDAC8_1_SetValue(INITIAL_DAC_VALUE);
 134:.\DACaudio.c  ****         
 135:.\DACaudio.c  ****         PGA_2_Start();   
 136:.\DACaudio.c  ****         VDAC8_2_Start();
 137:.\DACaudio.c  ****         VDAC8_2_SetValue(INITIAL_DAC_VALUE);
 138:.\DACaudio.c  ****     }
 139:.\DACaudio.c  ****         
 140:.\DACaudio.c  ****     return true;
 141:.\DACaudio.c  **** }
 142:.\DACaudio.c  **** 
 143:.\DACaudio.c  **** /*******************************************************************************
 144:.\DACaudio.c  **** * Function Name: stopAudioTone
 145:.\DACaudio.c  **** ********************************************************************************
 146:.\DACaudio.c  **** *
ARM GAS  C:\Users\faithc\AppData\Local\Temp\ccw6MITa.s 			page 4


 147:.\DACaudio.c  **** * Summary:
 148:.\DACaudio.c  **** *  Stops the file song by disabling the DAC timer
 149:.\DACaudio.c  **** *
 150:.\DACaudio.c  **** * Parameters: 
 151:.\DACaudio.c  **** *   bSpeaker: The speaker to update
 152:.\DACaudio.c  **** *
 153:.\DACaudio.c  **** * Return:
 154:.\DACaudio.c  **** *   TRUE for valid inputs, FALSE otherwise
 155:.\DACaudio.c  **** *
 156:.\DACaudio.c  **** *******************************************************************************/
 157:.\DACaudio.c  **** uint8 stopAudioTone(uint8 bSpeaker){
 158:.\DACaudio.c  ****     
 159:.\DACaudio.c  ****     if((bSpeaker != SPEAKER_1) && (bSpeaker != SPEAKER_2))
 160:.\DACaudio.c  ****         return false;
 161:.\DACaudio.c  ****     
 162:.\DACaudio.c  ****     DACtimer1_Stop();
 163:.\DACaudio.c  ****     VDAC8_1_SetValue(INITIAL_DAC_VALUE);
 164:.\DACaudio.c  ****     VDAC8_1_Stop();
 165:.\DACaudio.c  ****     PGA_1_Stop();
 166:.\DACaudio.c  ****     
 167:.\DACaudio.c  ****     VDAC8_2_SetValue(INITIAL_DAC_VALUE);
 168:.\DACaudio.c  ****     VDAC8_2_Stop();
 169:.\DACaudio.c  ****     PGA_2_Stop(); 
 170:.\DACaudio.c  ****     
 171:.\DACaudio.c  ****     return true;
 172:.\DACaudio.c  **** }
 173:.\DACaudio.c  **** 
 174:.\DACaudio.c  **** /*******************************************************************************
 175:.\DACaudio.c  **** * Function Name: updateDAC1
 176:.\DACaudio.c  **** ********************************************************************************
 177:.\DACaudio.c  **** *
 178:.\DACaudio.c  **** * Summary:
 179:.\DACaudio.c  **** *  Updates the value for DAC1 based on the file data
 180:.\DACaudio.c  **** *
 181:.\DACaudio.c  **** * Parameters: 
 182:.\DACaudio.c  **** *   None
 183:.\DACaudio.c  **** *
 184:.\DACaudio.c  **** * Return:
 185:.\DACaudio.c  **** *   None
 186:.\DACaudio.c  **** *
 187:.\DACaudio.c  **** *******************************************************************************/
 188:.\DACaudio.c  **** void updateDAC1(void)
 189:.\DACaudio.c  **** {
 190:.\DACaudio.c  ****     uint8 DACvalue = 0;
 191:.\DACaudio.c  ****     
 192:.\DACaudio.c  ****     DACtimer1_ReadStatusRegister(); 
 193:.\DACaudio.c  ****     CyWdtClear();
 194:.\DACaudio.c  ****     
 195:.\DACaudio.c  ****     DACvalue = getNextWaveData(dataIndex); //Obtains next byte to send to DAC
 196:.\DACaudio.c  ****     
 197:.\DACaudio.c  ****     VDAC8_1_SetValue(DACvalue); //Update both DACs at the same time for sync
 198:.\DACaudio.c  ****     VDAC8_2_SetValue(DACvalue);
 199:.\DACaudio.c  ****             
 200:.\DACaudio.c  ****     dataIndex = (dataIndex + 1) % Speaker1.dataSize; //Increment index for song data, resets after 
 201:.\DACaudio.c  ****     
 202:.\DACaudio.c  ****     switch(currentSongNumber)
 203:.\DACaudio.c  ****     {
ARM GAS  C:\Users\faithc\AppData\Local\Temp\ccw6MITa.s 			page 5


 204:.\DACaudio.c  ****         case ECTOSIREN:
 205:.\DACaudio.c  ****             if(!bAudioActive)   //Variable stays high until tone is complete
 206:.\DACaudio.c  ****                 bAudioActive = true;
 207:.\DACaudio.c  ****             
 208:.\DACaudio.c  ****             if(dataIndex == 0)
 209:.\DACaudio.c  ****             {   //Reached end of ramp down
 210:.\DACaudio.c  ****                 bAudioActive = false;
 211:.\DACaudio.c  ****                 //ModeStatusISR_SetPending();
 212:.\DACaudio.c  ****                 disableAudioAndPWM();
 213:.\DACaudio.c  ****                 disableBothSpeakers();
 214:.\DACaudio.c  ****             }
 215:.\DACaudio.c  ****             else if((dataIndex >= ECTO_CYCLE_END_INDEX) && (dataIndex < ECTO_RAMP_DOWN_INDEX))
 216:.\DACaudio.c  ****             {   //Reached end of ecto cycle
 217:.\DACaudio.c  ****                 if(bAudioInputFlag)
 218:.\DACaudio.c  ****                     dataIndex = ECTO_CYCLE_START_INDEX;
 219:.\DACaudio.c  ****                 else
 220:.\DACaudio.c  ****                     dataIndex = ECTO_RAMP_DOWN_INDEX;
 221:.\DACaudio.c  ****             }
 222:.\DACaudio.c  ****             break;
 223:.\DACaudio.c  ****         //case GHOSTBUSTERS:
 224:.\DACaudio.c  ****         case COPS_SONG:
 225:.\DACaudio.c  ****             if(!bAudioActive)   //Variable stays high until tone is complete
 226:.\DACaudio.c  ****                 bAudioActive = true;
 227:.\DACaudio.c  ****             
 228:.\DACaudio.c  ****             if(dataIndex == 0)
 229:.\DACaudio.c  ****             {   //Reached end of song
 230:.\DACaudio.c  ****                 bAudioActive = false;
 231:.\DACaudio.c  ****                 bSongFinishedFlag = true;
 232:.\DACaudio.c  ****                 PowerAmpOutput1_Write(false);   //Turn off song
 233:.\DACaudio.c  ****                 PowerAmpOutput2_Write(false);
 234:.\DACaudio.c  ****                 stopAudioTone(SPEAKER_1);
 235:.\DACaudio.c  ****             }
 236:.\DACaudio.c  ****             break;
 237:.\DACaudio.c  ****         case MOVE_OUT:
 238:.\DACaudio.c  ****         case PULL_OVER:
 239:.\DACaudio.c  ****         case STEP_OUT:
 240:.\DACaudio.c  ****         case STEP_OUT_HANDS_UP:
 241:.\DACaudio.c  ****         case REMAIN_IN_VEHICLE:
 242:.\DACaudio.c  ****         case REMAIN_WINDOW_DOWN:
 243:.\DACaudio.c  ****             if(!bAudioActive)
 244:.\DACaudio.c  ****                 bAudioActive = true;
 245:.\DACaudio.c  ****             
 246:.\DACaudio.c  ****             if((dataIndex == 0) && (!bAudioInputFlag))
 247:.\DACaudio.c  ****             {   //Reached end of command
 248:.\DACaudio.c  ****                 bAudioActive = false;
 249:.\DACaudio.c  ****                 //ModeStatusISR_SetPending();
 250:.\DACaudio.c  ****                 disableAudioAndPWM();
 251:.\DACaudio.c  ****                 disableBothSpeakers();
 252:.\DACaudio.c  ****             }
 253:.\DACaudio.c  ****             break;
 254:.\DACaudio.c  ****         default:
 255:.\DACaudio.c  ****             break;
 256:.\DACaudio.c  ****     }
 257:.\DACaudio.c  **** }
 258:.\DACaudio.c  **** 
 259:.\DACaudio.c  **** /*******************************************************************************
 260:.\DACaudio.c  **** * Function Name: updateDAC2
ARM GAS  C:\Users\faithc\AppData\Local\Temp\ccw6MITa.s 			page 6


 261:.\DACaudio.c  **** ********************************************************************************
 262:.\DACaudio.c  **** *
 263:.\DACaudio.c  **** * Summary:
 264:.\DACaudio.c  **** *  Updates the value for DAC2 based on the file data
 265:.\DACaudio.c  **** *
 266:.\DACaudio.c  **** * Parameters: 
 267:.\DACaudio.c  **** *   None
 268:.\DACaudio.c  **** *
 269:.\DACaudio.c  **** * Return:
 270:.\DACaudio.c  **** *   None
 271:.\DACaudio.c  **** *
 272:.\DACaudio.c  **** *******************************************************************************/
 273:.\DACaudio.c  **** void updateDAC2(void)
 274:.\DACaudio.c  **** {
 275:.\DACaudio.c  ****     //static uint32 dataIndex = 0;
 276:.\DACaudio.c  ****     uint8 DACvalue = 0;
 277:.\DACaudio.c  ****     
 278:.\DACaudio.c  ****     DACtimer2_ReadStatusRegister();   
 279:.\DACaudio.c  ****     CyWdtClear();
 280:.\DACaudio.c  ****     
 281:.\DACaudio.c  ****     DACvalue = getNextWaveData(dataIndex); 
 282:.\DACaudio.c  ****     
 283:.\DACaudio.c  ****     if(Speaker2.bytesPerSample == 1)
 284:.\DACaudio.c  ****     {   //8-bit data
 285:.\DACaudio.c  ****         if(Speaker2.channelCount == 1)
 286:.\DACaudio.c  ****             VDAC8_2_SetValue(DACvalue);
 287:.\DACaudio.c  ****         else
 288:.\DACaudio.c  ****         {   //2 channels
 289:.\DACaudio.c  ****             if((dataIndex % 2) == 0)
 290:.\DACaudio.c  ****                 VDAC8_1_SetValue(DACvalue);
 291:.\DACaudio.c  ****             else
 292:.\DACaudio.c  ****                 VDAC8_2_SetValue(DACvalue);
 293:.\DACaudio.c  ****         }
 294:.\DACaudio.c  ****         
 295:.\DACaudio.c  ****         dataIndex = (dataIndex + 1) % Speaker2.dataSize;
 296:.\DACaudio.c  ****     }
 297:.\DACaudio.c  ****     else
 298:.\DACaudio.c  ****     {   //16-bit data
 299:.\DACaudio.c  ****         if(Speaker2.channelCount == 1)
 300:.\DACaudio.c  ****             VDAC8_2_SetValue(DACvalue);
 301:.\DACaudio.c  ****         else
 302:.\DACaudio.c  ****         {   //2 channels
 303:.\DACaudio.c  ****             if((dataIndex % 4) == 0)
 304:.\DACaudio.c  ****                 VDAC8_1_SetValue(DACvalue);
 305:.\DACaudio.c  ****             else
 306:.\DACaudio.c  ****                 VDAC8_2_SetValue(DACvalue);
 307:.\DACaudio.c  ****         }
 308:.\DACaudio.c  ****         
 309:.\DACaudio.c  ****         dataIndex = (dataIndex + 2) % Speaker2.dataSize;
 310:.\DACaudio.c  ****     }
 311:.\DACaudio.c  **** }
 312:.\DACaudio.c  **** 
 313:.\DACaudio.c  **** /*******************************************************************************
 314:.\DACaudio.c  **** * Function Name: isAudioActive
 315:.\DACaudio.c  **** ********************************************************************************
 316:.\DACaudio.c  **** *
 317:.\DACaudio.c  **** * Summary:
ARM GAS  C:\Users\faithc\AppData\Local\Temp\ccw6MITa.s 			page 7


 318:.\DACaudio.c  **** *  Returns the status of an audio tone
 319:.\DACaudio.c  **** *
 320:.\DACaudio.c  **** * Parameters: 
 321:.\DACaudio.c  **** *   None
 322:.\DACaudio.c  **** *
 323:.\DACaudio.c  **** * Return:
 324:.\DACaudio.c  **** *   TRUE if active, FALSE if inactive
 325:.\DACaudio.c  **** *
 326:.\DACaudio.c  **** *******************************************************************************/
 327:.\DACaudio.c  **** uint8 isAudioActive(void)
 328:.\DACaudio.c  **** {
 329:.\DACaudio.c  ****     return bAudioActive;
 330:.\DACaudio.c  **** }
 331:.\DACaudio.c  **** 
 332:.\DACaudio.c  **** /*******************************************************************************
 333:.\DACaudio.c  **** * Function Name: deactivateAudio
 334:.\DACaudio.c  **** ********************************************************************************
 335:.\DACaudio.c  **** *
 336:.\DACaudio.c  **** * Summary:
 337:.\DACaudio.c  **** *  Updates the boolean to deactivate an audio tone
 338:.\DACaudio.c  **** *
 339:.\DACaudio.c  **** * Parameters: 
 340:.\DACaudio.c  **** *   None
 341:.\DACaudio.c  **** *
 342:.\DACaudio.c  **** * Return:
 343:.\DACaudio.c  **** *   None
 344:.\DACaudio.c  **** *
 345:.\DACaudio.c  **** *******************************************************************************/
 346:.\DACaudio.c  **** void deactivateAudio(void)
 347:.\DACaudio.c  **** {
 348:.\DACaudio.c  ****     bAudioActive = false;
 349:.\DACaudio.c  **** }
 350:.\DACaudio.c  **** 
 351:.\DACaudio.c  **** /*******************************************************************************
 352:.\DACaudio.c  **** * Function Name: isMusicReady
 353:.\DACaudio.c  **** ********************************************************************************
 354:.\DACaudio.c  **** *
 355:.\DACaudio.c  **** * Summary:
 356:.\DACaudio.c  **** *  Verifies that music file is valid and obtains data to process file
 357:.\DACaudio.c  **** *
 358:.\DACaudio.c  **** * Parameters: 
 359:.\DACaudio.c  **** *   None
 360:.\DACaudio.c  **** *
 361:.\DACaudio.c  **** * Return:
 362:.\DACaudio.c  **** *   TRUE for valid inputs, FALSE otherwise
 363:.\DACaudio.c  **** *
 364:.\DACaudio.c  **** *******************************************************************************/
 365:.\DACaudio.c  **** static uint8 isMusicReady(enum ToneType songChoice)
 366:.\DACaudio.c  **** {
 367:.\DACaudio.c  ****     if((songChoice < ECTOSIREN) || (songChoice > REMAIN_WINDOW_DOWN))
 368:.\DACaudio.c  ****         return false;
 369:.\DACaudio.c  ****     
 370:.\DACaudio.c  ****     if(!processHeaderData(songChoice))
 371:.\DACaudio.c  **** 		return false;
 372:.\DACaudio.c  **** 	
 373:.\DACaudio.c  **** 	Speaker1.channelCount = getChannelCount();
 374:.\DACaudio.c  **** 	Speaker1.bytesPerSample = getBytesPerSample();
ARM GAS  C:\Users\faithc\AppData\Local\Temp\ccw6MITa.s 			page 8


 375:.\DACaudio.c  **** 	Speaker1.dataSize = getDataSize();
 376:.\DACaudio.c  **** 	Speaker1.samplingRate = getSamplingRate();
 377:.\DACaudio.c  **** 		
 378:.\DACaudio.c  **** 	return true;
 379:.\DACaudio.c  **** }
 380:.\DACaudio.c  **** 
 381:.\DACaudio.c  **** /*******************************************************************************
 382:.\DACaudio.c  **** * Function Name: getSamplingReloadValue
 383:.\DACaudio.c  **** ********************************************************************************
 384:.\DACaudio.c  **** *
 385:.\DACaudio.c  **** * Summary:
 386:.\DACaudio.c  **** *  Calculates the corresponding reload value for the sampling rate
 387:.\DACaudio.c  **** *
 388:.\DACaudio.c  **** * Parameters: 
 389:.\DACaudio.c  **** *   samplingRate: The 32-bit sampling rate in Hertz
 390:.\DACaudio.c  **** *
 391:.\DACaudio.c  **** * Return:
 392:.\DACaudio.c  **** *   The corresponding reload value
 393:.\DACaudio.c  **** *
 394:.\DACaudio.c  **** *******************************************************************************/
 395:.\DACaudio.c  **** static uint16 getSamplingReloadValue(uint32 samplingRate)
 396:.\DACaudio.c  **** {
  26              		.loc 1 396 0
  27              		.cfi_startproc
  28              		@ args = 0, pretend = 0, frame = 0
  29              		@ frame_needed = 0, uses_anonymous_args = 0
  30              		@ link register save eliminated.
  31              	.LVL0:
 397:.\DACaudio.c  ****     static const uint32 TIMER_FREQUENCY = 48000000;
 398:.\DACaudio.c  ****     return (uint16)(TIMER_FREQUENCY / samplingRate);
  32              		.loc 1 398 0
  33 0000 024B     		ldr	r3, .L2
  34 0002 B3FBF0F0 		udiv	r0, r3, r0
  35              	.LVL1:
 399:.\DACaudio.c  **** }
  36              		.loc 1 399 0
  37 0006 80B2     		uxth	r0, r0
  38 0008 7047     		bx	lr
  39              	.L3:
  40 000a 00BF     		.align	2
  41              	.L2:
  42 000c 006CDC02 		.word	48000000
  43              		.cfi_endproc
  44              	.LFE71:
  45              		.size	getSamplingReloadValue, .-getSamplingReloadValue
  46              		.section	.text.isMusicReady,"ax",%progbits
  47              		.align	2
  48              		.thumb
  49              		.thumb_func
  50              		.type	isMusicReady, %function
  51              	isMusicReady:
  52              	.LFB70:
 366:.\DACaudio.c  ****     if((songChoice < ECTOSIREN) || (songChoice > REMAIN_WINDOW_DOWN))
  53              		.loc 1 366 0
  54              		.cfi_startproc
  55              		@ args = 0, pretend = 0, frame = 0
  56              		@ frame_needed = 0, uses_anonymous_args = 0
ARM GAS  C:\Users\faithc\AppData\Local\Temp\ccw6MITa.s 			page 9


  57              	.LVL2:
 367:.\DACaudio.c  ****         return false;
  58              		.loc 1 367 0
  59 0000 A0F10E03 		sub	r3, r0, #14
  60 0004 DBB2     		uxtb	r3, r3
  61 0006 072B     		cmp	r3, #7
  62 0008 13D8     		bhi	.L6
 366:.\DACaudio.c  ****     if((songChoice < ECTOSIREN) || (songChoice > REMAIN_WINDOW_DOWN))
  63              		.loc 1 366 0
  64 000a 10B5     		push	{r4, lr}
  65              		.cfi_def_cfa_offset 8
  66              		.cfi_offset 4, -8
  67              		.cfi_offset 14, -4
 370:.\DACaudio.c  **** 		return false;
  68              		.loc 1 370 0
  69 000c FFF7FEFF 		bl	processHeaderData
  70              	.LVL3:
  71 0010 0346     		mov	r3, r0
  72 0012 88B1     		cbz	r0, .L5
 373:.\DACaudio.c  **** 	Speaker1.bytesPerSample = getBytesPerSample();
  73              		.loc 1 373 0
  74 0014 FFF7FEFF 		bl	getChannelCount
  75              	.LVL4:
  76 0018 084C     		ldr	r4, .L9
  77 001a 2070     		strb	r0, [r4]
 374:.\DACaudio.c  **** 	Speaker1.dataSize = getDataSize();
  78              		.loc 1 374 0
  79 001c FFF7FEFF 		bl	getBytesPerSample
  80              	.LVL5:
  81 0020 6070     		strb	r0, [r4, #1]
 375:.\DACaudio.c  **** 	Speaker1.samplingRate = getSamplingRate();
  82              		.loc 1 375 0
  83 0022 FFF7FEFF 		bl	getDataSize
  84              	.LVL6:
  85 0026 A060     		str	r0, [r4, #8]
 376:.\DACaudio.c  **** 		
  86              		.loc 1 376 0
  87 0028 FFF7FEFF 		bl	getSamplingRate
  88              	.LVL7:
  89 002c 6060     		str	r0, [r4, #4]
 378:.\DACaudio.c  **** }
  90              		.loc 1 378 0
  91 002e 0123     		movs	r3, #1
  92 0030 02E0     		b	.L5
  93              	.LVL8:
  94              	.L6:
  95              		.cfi_def_cfa_offset 0
  96              		.cfi_restore 4
  97              		.cfi_restore 14
 368:.\DACaudio.c  ****     
  98              		.loc 1 368 0
  99 0032 0023     		movs	r3, #0
 379:.\DACaudio.c  **** 
 100              		.loc 1 379 0
 101 0034 1846     		mov	r0, r3
 102              	.LVL9:
 103 0036 7047     		bx	lr
ARM GAS  C:\Users\faithc\AppData\Local\Temp\ccw6MITa.s 			page 10


 104              	.L5:
 105              		.cfi_def_cfa_offset 8
 106              		.cfi_offset 4, -8
 107              		.cfi_offset 14, -4
 108 0038 1846     		mov	r0, r3
 109 003a 10BD     		pop	{r4, pc}
 110              	.L10:
 111              		.align	2
 112              	.L9:
 113 003c 00000000 		.word	.LANCHOR0
 114              		.cfi_endproc
 115              	.LFE70:
 116              		.size	isMusicReady, .-isMusicReady
 117              		.section	.text.isSongFinished,"ax",%progbits
 118              		.align	2
 119              		.global	isSongFinished
 120              		.thumb
 121              		.thumb_func
 122              		.type	isSongFinished, %function
 123              	isSongFinished:
 124              	.LFB63:
  70:.\DACaudio.c  ****     return bSongFinishedFlag;
 125              		.loc 1 70 0
 126              		.cfi_startproc
 127              		@ args = 0, pretend = 0, frame = 0
 128              		@ frame_needed = 0, uses_anonymous_args = 0
 129              		@ link register save eliminated.
  72:.\DACaudio.c  **** 
 130              		.loc 1 72 0
 131 0000 014B     		ldr	r3, .L12
 132 0002 187B     		ldrb	r0, [r3, #12]	@ zero_extendqisi2
 133 0004 7047     		bx	lr
 134              	.L13:
 135 0006 00BF     		.align	2
 136              	.L12:
 137 0008 00000000 		.word	.LANCHOR0
 138              		.cfi_endproc
 139              	.LFE63:
 140              		.size	isSongFinished, .-isSongFinished
 141              		.section	.text.playAudioTone,"ax",%progbits
 142              		.align	2
 143              		.global	playAudioTone
 144              		.thumb
 145              		.thumb_func
 146              		.type	playAudioTone, %function
 147              	playAudioTone:
 148              	.LFB64:
  91:.\DACaudio.c  ****     uint16 DACreloadValue = 0;
 149              		.loc 1 91 0
 150              		.cfi_startproc
 151              		@ args = 0, pretend = 0, frame = 0
 152              		@ frame_needed = 0, uses_anonymous_args = 0
 153              	.LVL10:
 154 0000 F8B5     		push	{r3, r4, r5, r6, r7, lr}
 155              		.cfi_def_cfa_offset 24
 156              		.cfi_offset 3, -24
 157              		.cfi_offset 4, -20
ARM GAS  C:\Users\faithc\AppData\Local\Temp\ccw6MITa.s 			page 11


 158              		.cfi_offset 5, -16
 159              		.cfi_offset 6, -12
 160              		.cfi_offset 7, -8
 161              		.cfi_offset 14, -4
 162 0002 0546     		mov	r5, r0
 163              	.LVL11:
  94:.\DACaudio.c  ****         return false;
 164              		.loc 1 94 0
 165 0004 0128     		cmp	r0, #1
 166 0006 48D8     		bhi	.L19
 167 0008 0F46     		mov	r7, r1
 168 000a 1646     		mov	r6, r2
  97:.\DACaudio.c  ****         return false;
 169              		.loc 1 97 0
 170 000c 012A     		cmp	r2, #1
 171 000e 46D8     		bhi	.L20
 100:.\DACaudio.c  ****     {
 172              		.loc 1 100 0
 173 0010 A1F10E03 		sub	r3, r1, #14
 174 0014 DBB2     		uxtb	r3, r3
 175 0016 072B     		cmp	r3, #7
 176 0018 05D9     		bls	.L16
 102:.\DACaudio.c  ****             currentSongNumber = songChoice;
 177              		.loc 1 102 0
 178 001a 0029     		cmp	r1, #0
 179 001c 41D1     		bne	.L21
 103:.\DACaudio.c  **** 
 180              		.loc 1 103 0
 181 001e 234B     		ldr	r3, .L24
 182 0020 5973     		strb	r1, [r3, #13]
 105:.\DACaudio.c  ****     }
 183              		.loc 1 105 0
 184 0022 0024     		movs	r4, #0
 185 0024 40E0     		b	.L15
 186              	.L16:
 108:.\DACaudio.c  ****     {
 187              		.loc 1 108 0
 188 0026 214B     		ldr	r3, .L24
 189 0028 5B7B     		ldrb	r3, [r3, #13]	@ zero_extendqisi2
 190 002a 8B42     		cmp	r3, r1
 191 002c 02D1     		bne	.L17
 108:.\DACaudio.c  ****     {
 192              		.loc 1 108 0 is_stmt 0 discriminator 1
 193 002e 1F4B     		ldr	r3, .L24
 194 0030 9B7B     		ldrb	r3, [r3, #14]	@ zero_extendqisi2
 195 0032 4BB9     		cbnz	r3, .L18
 196              	.L17:
 110:.\DACaudio.c  ****             return false;
 197              		.loc 1 110 0 is_stmt 1
 198 0034 3846     		mov	r0, r7
 199              	.LVL12:
 200 0036 FFF7FEFF 		bl	isMusicReady
 201              	.LVL13:
 202 003a 0446     		mov	r4, r0
 203 003c A0B3     		cbz	r0, .L15
 113:.\DACaudio.c  ****         dataIndex = 0;
 204              		.loc 1 113 0
ARM GAS  C:\Users\faithc\AppData\Local\Temp\ccw6MITa.s 			page 12


 205 003e 1B4B     		ldr	r3, .L24
 206 0040 5F73     		strb	r7, [r3, #13]
 114:.\DACaudio.c  ****         bSongFinishedFlag = false;
 207              		.loc 1 114 0
 208 0042 0022     		movs	r2, #0
 209 0044 1A61     		str	r2, [r3, #16]
 115:.\DACaudio.c  ****     }
 210              		.loc 1 115 0
 211 0046 1A73     		strb	r2, [r3, #12]
 212              	.L18:
 118:.\DACaudio.c  ****     bAudioInputFlag = bAudioInput;
 213              		.loc 1 118 0
 214 0048 184B     		ldr	r3, .L24
 215 004a 1D75     		strb	r5, [r3, #20]
 119:.\DACaudio.c  ****     
 216              		.loc 1 119 0
 217 004c 5E75     		strb	r6, [r3, #21]
 121:.\DACaudio.c  ****         (Speaker1.samplingRate == DEFAULT_SAMPLING_RATE))
 218              		.loc 1 121 0
 219 004e 1C78     		ldrb	r4, [r3]	@ zero_extendqisi2
 220 0050 012C     		cmp	r4, #1
 221 0052 28D1     		bne	.L22
 122:.\DACaudio.c  ****     {
 222              		.loc 1 122 0 discriminator 1
 223 0054 5B68     		ldr	r3, [r3, #4]
 121:.\DACaudio.c  ****         (Speaker1.samplingRate == DEFAULT_SAMPLING_RATE))
 224              		.loc 1 121 0 discriminator 1
 225 0056 B3F5FA5F 		cmp	r3, #8000
 226 005a 25D1     		bne	.L15
 124:.\DACaudio.c  ****         AMux2_FastSelect(DAC_MODE);
 227              		.loc 1 124 0
 228 005c 0120     		movs	r0, #1
 229 005e FFF7FEFF 		bl	AMux1_FastSelect
 230              	.LVL14:
 125:.\DACaudio.c  ****         
 231              		.loc 1 125 0
 232 0062 0120     		movs	r0, #1
 233 0064 FFF7FEFF 		bl	AMux2_FastSelect
 234              	.LVL15:
 127:.\DACaudio.c  ****         DACtimer1_Start();        
 235              		.loc 1 127 0
 236 0068 104B     		ldr	r3, .L24
 237 006a 5868     		ldr	r0, [r3, #4]
 238 006c FFF7FEFF 		bl	getSamplingReloadValue
 239              	.LVL16:
 240 0070 0546     		mov	r5, r0
 241              	.LVL17:
 128:.\DACaudio.c  ****         DACtimer1_WritePeriod(DACreloadValue);
 242              		.loc 1 128 0
 243 0072 FFF7FEFF 		bl	DACtimer1_Start
 244              	.LVL18:
 129:.\DACaudio.c  ****         
 245              		.loc 1 129 0
 246 0076 2846     		mov	r0, r5
 247 0078 FFF7FEFF 		bl	DACtimer1_WritePeriod
 248              	.LVL19:
 131:.\DACaudio.c  ****         VDAC8_1_Start();
ARM GAS  C:\Users\faithc\AppData\Local\Temp\ccw6MITa.s 			page 13


 249              		.loc 1 131 0
 250 007c FFF7FEFF 		bl	PGA_1_Start
 251              	.LVL20:
 132:.\DACaudio.c  ****         VDAC8_1_SetValue(INITIAL_DAC_VALUE);
 252              		.loc 1 132 0
 253 0080 FFF7FEFF 		bl	VDAC8_1_Start
 254              	.LVL21:
 133:.\DACaudio.c  ****         
 255              		.loc 1 133 0
 256 0084 8020     		movs	r0, #128
 257 0086 FFF7FEFF 		bl	VDAC8_1_SetValue
 258              	.LVL22:
 135:.\DACaudio.c  ****         VDAC8_2_Start();
 259              		.loc 1 135 0
 260 008a FFF7FEFF 		bl	PGA_2_Start
 261              	.LVL23:
 136:.\DACaudio.c  ****         VDAC8_2_SetValue(INITIAL_DAC_VALUE);
 262              		.loc 1 136 0
 263 008e FFF7FEFF 		bl	VDAC8_2_Start
 264              	.LVL24:
 137:.\DACaudio.c  ****     }
 265              		.loc 1 137 0
 266 0092 8020     		movs	r0, #128
 267 0094 FFF7FEFF 		bl	VDAC8_2_SetValue
 268              	.LVL25:
 269 0098 06E0     		b	.L15
 270              	.LVL26:
 271              	.L19:
  95:.\DACaudio.c  ****     
 272              		.loc 1 95 0
 273 009a 0024     		movs	r4, #0
 274 009c 04E0     		b	.L15
 275              	.L20:
  98:.\DACaudio.c  ****     
 276              		.loc 1 98 0
 277 009e 0024     		movs	r4, #0
 278 00a0 02E0     		b	.L15
 279              	.L21:
 105:.\DACaudio.c  ****     }
 280              		.loc 1 105 0
 281 00a2 0024     		movs	r4, #0
 282 00a4 00E0     		b	.L15
 283              	.LVL27:
 284              	.L22:
 140:.\DACaudio.c  **** }
 285              		.loc 1 140 0
 286 00a6 0124     		movs	r4, #1
 287              	.LVL28:
 288              	.L15:
 141:.\DACaudio.c  **** 
 289              		.loc 1 141 0
 290 00a8 2046     		mov	r0, r4
 291 00aa F8BD     		pop	{r3, r4, r5, r6, r7, pc}
 292              	.L25:
 293              		.align	2
 294              	.L24:
 295 00ac 00000000 		.word	.LANCHOR0
ARM GAS  C:\Users\faithc\AppData\Local\Temp\ccw6MITa.s 			page 14


 296              		.cfi_endproc
 297              	.LFE64:
 298              		.size	playAudioTone, .-playAudioTone
 299              		.section	.text.stopAudioTone,"ax",%progbits
 300              		.align	2
 301              		.global	stopAudioTone
 302              		.thumb
 303              		.thumb_func
 304              		.type	stopAudioTone, %function
 305              	stopAudioTone:
 306              	.LFB65:
 157:.\DACaudio.c  ****     
 307              		.loc 1 157 0
 308              		.cfi_startproc
 309              		@ args = 0, pretend = 0, frame = 0
 310              		@ frame_needed = 0, uses_anonymous_args = 0
 311              	.LVL29:
 159:.\DACaudio.c  ****         return false;
 312              		.loc 1 159 0
 313 0000 0128     		cmp	r0, #1
 314 0002 12D8     		bhi	.L28
 157:.\DACaudio.c  ****     
 315              		.loc 1 157 0
 316 0004 08B5     		push	{r3, lr}
 317              		.cfi_def_cfa_offset 8
 318              		.cfi_offset 3, -8
 319              		.cfi_offset 14, -4
 162:.\DACaudio.c  ****     VDAC8_1_SetValue(INITIAL_DAC_VALUE);
 320              		.loc 1 162 0
 321 0006 FFF7FEFF 		bl	DACtimer1_Stop
 322              	.LVL30:
 163:.\DACaudio.c  ****     VDAC8_1_Stop();
 323              		.loc 1 163 0
 324 000a 8020     		movs	r0, #128
 325 000c FFF7FEFF 		bl	VDAC8_1_SetValue
 326              	.LVL31:
 164:.\DACaudio.c  ****     PGA_1_Stop();
 327              		.loc 1 164 0
 328 0010 FFF7FEFF 		bl	VDAC8_1_Stop
 329              	.LVL32:
 165:.\DACaudio.c  ****     
 330              		.loc 1 165 0
 331 0014 FFF7FEFF 		bl	PGA_1_Stop
 332              	.LVL33:
 167:.\DACaudio.c  ****     VDAC8_2_Stop();
 333              		.loc 1 167 0
 334 0018 8020     		movs	r0, #128
 335 001a FFF7FEFF 		bl	VDAC8_2_SetValue
 336              	.LVL34:
 168:.\DACaudio.c  ****     PGA_2_Stop(); 
 337              		.loc 1 168 0
 338 001e FFF7FEFF 		bl	VDAC8_2_Stop
 339              	.LVL35:
 169:.\DACaudio.c  ****     
 340              		.loc 1 169 0
 341 0022 FFF7FEFF 		bl	PGA_2_Stop
 342              	.LVL36:
ARM GAS  C:\Users\faithc\AppData\Local\Temp\ccw6MITa.s 			page 15


 171:.\DACaudio.c  **** }
 343              		.loc 1 171 0
 344 0026 0120     		movs	r0, #1
 345 0028 08BD     		pop	{r3, pc}
 346              	.LVL37:
 347              	.L28:
 348              		.cfi_def_cfa_offset 0
 349              		.cfi_restore 3
 350              		.cfi_restore 14
 160:.\DACaudio.c  ****     
 351              		.loc 1 160 0
 352 002a 0020     		movs	r0, #0
 353              	.LVL38:
 354 002c 7047     		bx	lr
 355              		.cfi_endproc
 356              	.LFE65:
 357              		.size	stopAudioTone, .-stopAudioTone
 358 002e 00BF     		.section	.text.updateDAC1,"ax",%progbits
 359              		.align	2
 360              		.global	updateDAC1
 361              		.thumb
 362              		.thumb_func
 363              		.type	updateDAC1, %function
 364              	updateDAC1:
 365              	.LFB66:
 189:.\DACaudio.c  ****     uint8 DACvalue = 0;
 366              		.loc 1 189 0
 367              		.cfi_startproc
 368              		@ args = 0, pretend = 0, frame = 0
 369              		@ frame_needed = 0, uses_anonymous_args = 0
 370 0000 38B5     		push	{r3, r4, r5, lr}
 371              		.cfi_def_cfa_offset 16
 372              		.cfi_offset 3, -16
 373              		.cfi_offset 4, -12
 374              		.cfi_offset 5, -8
 375              		.cfi_offset 14, -4
 376              	.LVL39:
 192:.\DACaudio.c  ****     CyWdtClear();
 377              		.loc 1 192 0
 378 0002 FFF7FEFF 		bl	DACtimer1_ReadStatusRegister
 379              	.LVL40:
 193:.\DACaudio.c  ****     
 380              		.loc 1 193 0
 381 0006 FFF7FEFF 		bl	CyWdtClear
 382              	.LVL41:
 195:.\DACaudio.c  ****     
 383              		.loc 1 195 0
 384 000a 334C     		ldr	r4, .L43
 385 000c 2069     		ldr	r0, [r4, #16]
 386 000e FFF7FEFF 		bl	getNextWaveData
 387              	.LVL42:
 388 0012 0546     		mov	r5, r0
 389              	.LVL43:
 197:.\DACaudio.c  ****     VDAC8_2_SetValue(DACvalue);
 390              		.loc 1 197 0
 391 0014 FFF7FEFF 		bl	VDAC8_1_SetValue
 392              	.LVL44:
ARM GAS  C:\Users\faithc\AppData\Local\Temp\ccw6MITa.s 			page 16


 198:.\DACaudio.c  ****             
 393              		.loc 1 198 0
 394 0018 2846     		mov	r0, r5
 395 001a FFF7FEFF 		bl	VDAC8_2_SetValue
 396              	.LVL45:
 200:.\DACaudio.c  ****     
 397              		.loc 1 200 0
 398 001e 2369     		ldr	r3, [r4, #16]
 399 0020 5A1C     		adds	r2, r3, #1
 400 0022 A368     		ldr	r3, [r4, #8]
 401 0024 B2FBF3F1 		udiv	r1, r2, r3
 402 0028 03FB1123 		mls	r3, r3, r1, r2
 403 002c 2361     		str	r3, [r4, #16]
 202:.\DACaudio.c  ****     {
 404              		.loc 1 202 0
 405 002e 627B     		ldrb	r2, [r4, #13]	@ zero_extendqisi2
 406 0030 0E3A     		subs	r2, r2, #14
 407 0032 072A     		cmp	r2, #7
 408 0034 4ED8     		bhi	.L31
 409 0036 DFE802F0 		tbb	[pc, r2]
 410              	.L34:
 411 003a 04       		.byte	(.L33-.L34)/2
 412 003b 26       		.byte	(.L35-.L34)/2
 413 003c 3C       		.byte	(.L36-.L34)/2
 414 003d 3C       		.byte	(.L36-.L34)/2
 415 003e 3C       		.byte	(.L36-.L34)/2
 416 003f 3C       		.byte	(.L36-.L34)/2
 417 0040 3C       		.byte	(.L36-.L34)/2
 418 0041 3C       		.byte	(.L36-.L34)/2
 419              		.p2align 1
 420              	.L33:
 205:.\DACaudio.c  ****                 bAudioActive = true;
 421              		.loc 1 205 0
 422 0042 254A     		ldr	r2, .L43
 423 0044 927B     		ldrb	r2, [r2, #14]	@ zero_extendqisi2
 424 0046 12B9     		cbnz	r2, .L37
 206:.\DACaudio.c  ****             
 425              		.loc 1 206 0
 426 0048 0121     		movs	r1, #1
 427 004a 234A     		ldr	r2, .L43
 428 004c 9173     		strb	r1, [r2, #14]
 429              	.L37:
 208:.\DACaudio.c  ****             {   //Reached end of ramp down
 430              		.loc 1 208 0
 431 004e 3BB9     		cbnz	r3, .L38
 210:.\DACaudio.c  ****                 //ModeStatusISR_SetPending();
 432              		.loc 1 210 0
 433 0050 0022     		movs	r2, #0
 434 0052 214B     		ldr	r3, .L43
 435 0054 9A73     		strb	r2, [r3, #14]
 212:.\DACaudio.c  ****                 disableBothSpeakers();
 436              		.loc 1 212 0
 437 0056 FFF7FEFF 		bl	disableAudioAndPWM
 438              	.LVL46:
 213:.\DACaudio.c  ****             }
 439              		.loc 1 213 0
 440 005a FFF7FEFF 		bl	disableBothSpeakers
ARM GAS  C:\Users\faithc\AppData\Local\Temp\ccw6MITa.s 			page 17


 441              	.LVL47:
 442 005e 38BD     		pop	{r3, r4, r5, pc}
 443              	.LVL48:
 444              	.L38:
 215:.\DACaudio.c  ****             {   //Reached end of ecto cycle
 445              		.loc 1 215 0
 446 0060 A3F5BB43 		sub	r3, r3, #23936
 447 0064 043B     		subs	r3, r3, #4
 448 0066 4EF28572 		movw	r2, #59269
 449 006a 9342     		cmp	r3, r2
 450 006c 32D8     		bhi	.L31
 217:.\DACaudio.c  ****                     dataIndex = ECTO_CYCLE_START_INDEX;
 451              		.loc 1 217 0
 452 006e 1A4B     		ldr	r3, .L43
 453 0070 5B7D     		ldrb	r3, [r3, #21]	@ zero_extendqisi2
 454 0072 23B1     		cbz	r3, .L39
 218:.\DACaudio.c  ****                 else
 455              		.loc 1 218 0
 456 0074 42F63A72 		movw	r2, #12090
 457 0078 174B     		ldr	r3, .L43
 458 007a 1A61     		str	r2, [r3, #16]
 459 007c 38BD     		pop	{r3, r4, r5, pc}
 460              	.LVL49:
 461              	.L39:
 220:.\DACaudio.c  ****             }
 462              		.loc 1 220 0
 463 007e 174A     		ldr	r2, .L43+4
 464 0080 154B     		ldr	r3, .L43
 465 0082 1A61     		str	r2, [r3, #16]
 466 0084 38BD     		pop	{r3, r4, r5, pc}
 467              	.LVL50:
 468              	.L35:
 225:.\DACaudio.c  ****                 bAudioActive = true;
 469              		.loc 1 225 0
 470 0086 144A     		ldr	r2, .L43
 471 0088 927B     		ldrb	r2, [r2, #14]	@ zero_extendqisi2
 472 008a 12B9     		cbnz	r2, .L40
 226:.\DACaudio.c  ****             
 473              		.loc 1 226 0
 474 008c 0121     		movs	r1, #1
 475 008e 124A     		ldr	r2, .L43
 476 0090 9173     		strb	r1, [r2, #14]
 477              	.L40:
 228:.\DACaudio.c  ****             {   //Reached end of song
 478              		.loc 1 228 0
 479 0092 FBB9     		cbnz	r3, .L31
 230:.\DACaudio.c  ****                 bSongFinishedFlag = true;
 480              		.loc 1 230 0
 481 0094 104B     		ldr	r3, .L43
 482 0096 0024     		movs	r4, #0
 483 0098 9C73     		strb	r4, [r3, #14]
 231:.\DACaudio.c  ****                 PowerAmpOutput1_Write(false);   //Turn off song
 484              		.loc 1 231 0
 485 009a 0122     		movs	r2, #1
 486 009c 1A73     		strb	r2, [r3, #12]
 232:.\DACaudio.c  ****                 PowerAmpOutput2_Write(false);
 487              		.loc 1 232 0
ARM GAS  C:\Users\faithc\AppData\Local\Temp\ccw6MITa.s 			page 18


 488 009e 2046     		mov	r0, r4
 489 00a0 FFF7FEFF 		bl	PowerAmpOutput1_Write
 490              	.LVL51:
 233:.\DACaudio.c  ****                 stopAudioTone(SPEAKER_1);
 491              		.loc 1 233 0
 492 00a4 2046     		mov	r0, r4
 493 00a6 FFF7FEFF 		bl	PowerAmpOutput2_Write
 494              	.LVL52:
 234:.\DACaudio.c  ****             }
 495              		.loc 1 234 0
 496 00aa 2046     		mov	r0, r4
 497 00ac FFF7FEFF 		bl	stopAudioTone
 498              	.LVL53:
 499 00b0 38BD     		pop	{r3, r4, r5, pc}
 500              	.LVL54:
 501              	.L36:
 243:.\DACaudio.c  ****                 bAudioActive = true;
 502              		.loc 1 243 0
 503 00b2 094A     		ldr	r2, .L43
 504 00b4 927B     		ldrb	r2, [r2, #14]	@ zero_extendqisi2
 505 00b6 12B9     		cbnz	r2, .L41
 244:.\DACaudio.c  ****             
 506              		.loc 1 244 0
 507 00b8 0121     		movs	r1, #1
 508 00ba 074A     		ldr	r2, .L43
 509 00bc 9173     		strb	r1, [r2, #14]
 510              	.L41:
 246:.\DACaudio.c  ****             {   //Reached end of command
 511              		.loc 1 246 0
 512 00be 4BB9     		cbnz	r3, .L31
 246:.\DACaudio.c  ****             {   //Reached end of command
 513              		.loc 1 246 0 is_stmt 0 discriminator 1
 514 00c0 054B     		ldr	r3, .L43
 515 00c2 5B7D     		ldrb	r3, [r3, #21]	@ zero_extendqisi2
 516 00c4 33B9     		cbnz	r3, .L31
 248:.\DACaudio.c  ****                 //ModeStatusISR_SetPending();
 517              		.loc 1 248 0 is_stmt 1
 518 00c6 0022     		movs	r2, #0
 519 00c8 034B     		ldr	r3, .L43
 520 00ca 9A73     		strb	r2, [r3, #14]
 250:.\DACaudio.c  ****                 disableBothSpeakers();
 521              		.loc 1 250 0
 522 00cc FFF7FEFF 		bl	disableAudioAndPWM
 523              	.LVL55:
 251:.\DACaudio.c  ****             }
 524              		.loc 1 251 0
 525 00d0 FFF7FEFF 		bl	disableBothSpeakers
 526              	.LVL56:
 527              	.L31:
 528 00d4 38BD     		pop	{r3, r4, r5, pc}
 529              	.LVL57:
 530              	.L44:
 531 00d6 00BF     		.align	2
 532              	.L43:
 533 00d8 00000000 		.word	.LANCHOR0
 534 00dc 0A450100 		.word	83210
 535              		.cfi_endproc
ARM GAS  C:\Users\faithc\AppData\Local\Temp\ccw6MITa.s 			page 19


 536              	.LFE66:
 537              		.size	updateDAC1, .-updateDAC1
 538              		.section	.text.updateDAC2,"ax",%progbits
 539              		.align	2
 540              		.global	updateDAC2
 541              		.thumb
 542              		.thumb_func
 543              		.type	updateDAC2, %function
 544              	updateDAC2:
 545              	.LFB67:
 274:.\DACaudio.c  ****     //static uint32 dataIndex = 0;
 546              		.loc 1 274 0
 547              		.cfi_startproc
 548              		@ args = 0, pretend = 0, frame = 0
 549              		@ frame_needed = 0, uses_anonymous_args = 0
 550 0000 10B5     		push	{r4, lr}
 551              		.cfi_def_cfa_offset 8
 552              		.cfi_offset 4, -8
 553              		.cfi_offset 14, -4
 554              	.LVL58:
 278:.\DACaudio.c  ****     CyWdtClear();
 555              		.loc 1 278 0
 556 0002 FFF7FEFF 		bl	DACtimer2_ReadStatusRegister
 557              	.LVL59:
 279:.\DACaudio.c  ****     
 558              		.loc 1 279 0
 559 0006 FFF7FEFF 		bl	CyWdtClear
 560              	.LVL60:
 281:.\DACaudio.c  ****     
 561              		.loc 1 281 0
 562 000a 094C     		ldr	r4, .L49
 563 000c 2069     		ldr	r0, [r4, #16]
 564 000e FFF7FEFF 		bl	getNextWaveData
 565              	.LVL61:
 303:.\DACaudio.c  ****                 VDAC8_1_SetValue(DACvalue);
 566              		.loc 1 303 0
 567 0012 2369     		ldr	r3, [r4, #16]
 568 0014 13F0030F 		tst	r3, #3
 569 0018 02D1     		bne	.L46
 304:.\DACaudio.c  ****             else
 570              		.loc 1 304 0
 571 001a FFF7FEFF 		bl	VDAC8_1_SetValue
 572              	.LVL62:
 573 001e 01E0     		b	.L47
 574              	.LVL63:
 575              	.L46:
 306:.\DACaudio.c  ****         }
 576              		.loc 1 306 0
 577 0020 FFF7FEFF 		bl	VDAC8_2_SetValue
 578              	.LVL64:
 579              	.L47:
 309:.\DACaudio.c  ****     }
 580              		.loc 1 309 0
 581 0024 024A     		ldr	r2, .L49
 582 0026 1369     		ldr	r3, [r2, #16]
 583 0028 0233     		adds	r3, r3, #2
 584 002a 1361     		str	r3, [r2, #16]
ARM GAS  C:\Users\faithc\AppData\Local\Temp\ccw6MITa.s 			page 20


 585 002c 10BD     		pop	{r4, pc}
 586              	.L50:
 587 002e 00BF     		.align	2
 588              	.L49:
 589 0030 00000000 		.word	.LANCHOR0
 590              		.cfi_endproc
 591              	.LFE67:
 592              		.size	updateDAC2, .-updateDAC2
 593              		.section	.text.isAudioActive,"ax",%progbits
 594              		.align	2
 595              		.global	isAudioActive
 596              		.thumb
 597              		.thumb_func
 598              		.type	isAudioActive, %function
 599              	isAudioActive:
 600              	.LFB68:
 328:.\DACaudio.c  ****     return bAudioActive;
 601              		.loc 1 328 0
 602              		.cfi_startproc
 603              		@ args = 0, pretend = 0, frame = 0
 604              		@ frame_needed = 0, uses_anonymous_args = 0
 605              		@ link register save eliminated.
 330:.\DACaudio.c  **** 
 606              		.loc 1 330 0
 607 0000 014B     		ldr	r3, .L52
 608 0002 987B     		ldrb	r0, [r3, #14]	@ zero_extendqisi2
 609 0004 7047     		bx	lr
 610              	.L53:
 611 0006 00BF     		.align	2
 612              	.L52:
 613 0008 00000000 		.word	.LANCHOR0
 614              		.cfi_endproc
 615              	.LFE68:
 616              		.size	isAudioActive, .-isAudioActive
 617              		.section	.text.deactivateAudio,"ax",%progbits
 618              		.align	2
 619              		.global	deactivateAudio
 620              		.thumb
 621              		.thumb_func
 622              		.type	deactivateAudio, %function
 623              	deactivateAudio:
 624              	.LFB69:
 347:.\DACaudio.c  ****     bAudioActive = false;
 625              		.loc 1 347 0
 626              		.cfi_startproc
 627              		@ args = 0, pretend = 0, frame = 0
 628              		@ frame_needed = 0, uses_anonymous_args = 0
 629              		@ link register save eliminated.
 348:.\DACaudio.c  **** }
 630              		.loc 1 348 0
 631 0000 0022     		movs	r2, #0
 632 0002 014B     		ldr	r3, .L55
 633 0004 9A73     		strb	r2, [r3, #14]
 634 0006 7047     		bx	lr
 635              	.L56:
 636              		.align	2
 637              	.L55:
ARM GAS  C:\Users\faithc\AppData\Local\Temp\ccw6MITa.s 			page 21


 638 0008 00000000 		.word	.LANCHOR0
 639              		.cfi_endproc
 640              	.LFE69:
 641              		.size	deactivateAudio, .-deactivateAudio
 642              		.bss
 643              		.align	2
 644              		.set	.LANCHOR0,. + 0
 645              		.type	Speaker1, %object
 646              		.size	Speaker1, 12
 647              	Speaker1:
 648 0000 00000000 		.space	12
 648      00000000 
 648      00000000 
 649              		.type	bSongFinishedFlag, %object
 650              		.size	bSongFinishedFlag, 1
 651              	bSongFinishedFlag:
 652 000c 00       		.space	1
 653              		.type	currentSongNumber, %object
 654              		.size	currentSongNumber, 1
 655              	currentSongNumber:
 656 000d 00       		.space	1
 657              		.type	bAudioActive, %object
 658              		.size	bAudioActive, 1
 659              	bAudioActive:
 660 000e 00       		.space	1
 661 000f 00       		.space	1
 662              		.type	dataIndex, %object
 663              		.size	dataIndex, 4
 664              	dataIndex:
 665 0010 00000000 		.space	4
 666              		.type	bCurrentSpeaker, %object
 667              		.size	bCurrentSpeaker, 1
 668              	bCurrentSpeaker:
 669 0014 00       		.space	1
 670              		.type	bAudioInputFlag, %object
 671              		.size	bAudioInputFlag, 1
 672              	bAudioInputFlag:
 673 0015 00       		.space	1
 674 0016 0000     		.text
 675              	.Letext0:
 676              		.file 2 "c:\\program files (x86)\\cypress\\psoc creator\\3.3\\psoc creator\\import\\gnu\\arm\\4.9.
 677              		.file 3 "c:\\program files (x86)\\cypress\\psoc creator\\3.3\\psoc creator\\import\\gnu\\arm\\4.9.
 678              		.file 4 "Generated_Source\\PSoC5/cytypes.h"
 679              		.file 5 ".\\FileDecode.h"
 680              		.file 6 "Generated_Source\\PSoC5/AMux1.h"
 681              		.file 7 "Generated_Source\\PSoC5/AMux2.h"
 682              		.file 8 "Generated_Source\\PSoC5/DACtimer1.h"
 683              		.file 9 "Generated_Source\\PSoC5/PGA_1.h"
 684              		.file 10 "Generated_Source\\PSoC5/VDAC8_1.h"
 685              		.file 11 "Generated_Source\\PSoC5/PGA_2.h"
 686              		.file 12 "Generated_Source\\PSoC5/VDAC8_2.h"
 687              		.file 13 "Generated_Source\\PSoC5/CyLib.h"
 688              		.file 14 ".\\SirenState.h"
 689              		.file 15 "Generated_Source\\PSoC5/PowerAmpOutput1.h"
 690              		.file 16 "Generated_Source\\PSoC5/PowerAmpOutput2.h"
 691              		.file 17 "Generated_Source\\PSoC5/DACtimer2.h"
 692              		.file 18 ".\\CommonVariables.h"
ARM GAS  C:\Users\faithc\AppData\Local\Temp\ccw6MITa.s 			page 22


 693              		.file 19 "Generated_Source\\PSoC5/core_cm3.h"