ARM GAS  C:\Users\faithc\AppData\Local\Temp\ccOz6CyW.s 			page 1


   1              		.syntax unified
   2              		.cpu cortex-m3
   3              		.fpu softvfp
   4              		.eabi_attribute 20, 1
   5              		.eabi_attribute 21, 1
   6              		.eabi_attribute 23, 3
   7              		.eabi_attribute 24, 1
   8              		.eabi_attribute 25, 1
   9              		.eabi_attribute 26, 1
  10              		.eabi_attribute 30, 1
  11              		.eabi_attribute 34, 1
  12              		.eabi_attribute 18, 4
  13              		.thumb
  14              		.file	"FileDecode.c"
  15              		.text
  16              	.Ltext0:
  17              		.cfi_sections	.debug_frame
  18              		.section	.text.convertToBigEndian,"ax",%progbits
  19              		.align	2
  20              		.thumb
  21              		.thumb_func
  22              		.type	convertToBigEndian, %function
  23              	convertToBigEndian:
  24              	.LFB73:
  25              		.file 1 ".\\FileDecode.c"
   1:.\FileDecode.c **** /* ========================================
   2:.\FileDecode.c ****  *
   3:.\FileDecode.c ****  * Copyright YOUR COMPANY, THE YEAR
   4:.\FileDecode.c ****  * All Rights Reserved
   5:.\FileDecode.c ****  * UNPUBLISHED, LICENSED SOFTWARE.
   6:.\FileDecode.c ****  *
   7:.\FileDecode.c ****  * CONFIDENTIAL AND PROPRIETARY INFORMATION
   8:.\FileDecode.c ****  * WHICH IS THE PROPERTY OF your company.
   9:.\FileDecode.c ****  *
  10:.\FileDecode.c ****  * ========================================
  11:.\FileDecode.c **** */
  12:.\FileDecode.c **** 
  13:.\FileDecode.c **** /**********PREPROCESSOR DIRECTIVES**********/
  14:.\FileDecode.c **** #include "CommonVariables.h"
  15:.\FileDecode.c **** #include <string.h>
  16:.\FileDecode.c **** 
  17:.\FileDecode.c **** #define SONG_COUNT              9//10
  18:.\FileDecode.c **** 
  19:.\FileDecode.c **** #define BITS_PER_BYTE           8
  20:.\FileDecode.c **** #define MAX_READ_SIZE           4
  21:.\FileDecode.c **** 
  22:.\FileDecode.c **** #define ID_SIZE                 4
  23:.\FileDecode.c **** #define FORMAT_SIZE             4
  24:.\FileDecode.c **** #define SUBCHUNK_SIZE_FOR_PCM   16
  25:.\FileDecode.c **** #define AUDIO_FORMAT_VALUE      1   //PCM, values other than 1 indicate compression
  26:.\FileDecode.c **** #define MAX_CHANNEL_COUNT       2
  27:.\FileDecode.c **** #define EXPECTED_SAMPLING_RATE  8000
  28:.\FileDecode.c **** 
  29:.\FileDecode.c **** #define HEADER_SIZE             44    
  30:.\FileDecode.c **** #define NO_COMPARE_VALUE        0
  31:.\FileDecode.c **** 
  32:.\FileDecode.c **** /**********DEFINED CONSTANTS**********/
ARM GAS  C:\Users\faithc\AppData\Local\Temp\ccOz6CyW.s 			page 2


  33:.\FileDecode.c **** enum HeaderDataStartIndex
  34:.\FileDecode.c **** {
  35:.\FileDecode.c ****     WAVE_CHUNK_ID = 0,
  36:.\FileDecode.c ****     WAVE_CHUNK_SIZE = 4,
  37:.\FileDecode.c ****     WAVE_CHUNK_FORMAT = 8,
  38:.\FileDecode.c ****     
  39:.\FileDecode.c ****     FIRST_SUBCHUNK_ID = 12,
  40:.\FileDecode.c ****     FIRST_SUBCHUNK_SIZE = 16,
  41:.\FileDecode.c ****     FIRST_SUBCHUNK_AUDIO_FORMAT = 20,
  42:.\FileDecode.c ****     FIRST_SUBCHUNK_CHANNEL_COUNT = 22,
  43:.\FileDecode.c ****     FIRST_SUBCHUNK_SAMPLE_RATE = 24,
  44:.\FileDecode.c ****     FIRST_SUBCHUNK_BYTE_RATE = 28,
  45:.\FileDecode.c ****     FIRST_SUBCHUNK_BLOCK_ALIGN = 32,
  46:.\FileDecode.c ****     FIRST_SUBCHUNK_BITS_PER_SAMPLE = 34,
  47:.\FileDecode.c ****     
  48:.\FileDecode.c ****     SECOND_SUBCHUNK_ID = 36,
  49:.\FileDecode.c ****     SECOND_SUBCHUNK_SIZE = 40,
  50:.\FileDecode.c ****     SECOND_SUBCHUNK_DATA = 44
  51:.\FileDecode.c **** };
  52:.\FileDecode.c **** 
  53:.\FileDecode.c **** static const uint8 READ_COMMAND = 0x03;
  54:.\FileDecode.c **** static const uint32 BYTE_SHIFT_FACTOR = 256;
  55:.\FileDecode.c **** 
  56:.\FileDecode.c **** static const uint8 LOWEST_DAC_VALUE = 0x00;
  57:.\FileDecode.c **** static const uint8 CENTER_DAC_VALUE = 0x80;
  58:.\FileDecode.c **** static const uint8 HIGHEST_DAC_VALUE = 0xFF;
  59:.\FileDecode.c **** 
  60:.\FileDecode.c **** /**********DATA STRUCTURES**********/
  61:.\FileDecode.c **** static uint8 headerArray[HEADER_SIZE];
  62:.\FileDecode.c **** 
  63:.\FileDecode.c **** static const uint32 SONG_START_ADDRESS[SONG_COUNT] = 
  64:.\FileDecode.c **** {   0x00,       //ECTOSIREN
  65:.\FileDecode.c ****     //0x18420,    //GHOSTBUSTERS
  66:.\FileDecode.c ****     0x1DFBD0,   //COPS_SONG
  67:.\FileDecode.c ****     0x38B340,   //MOVE_OUT
  68:.\FileDecode.c ****     0x38EA70,   //PULL_OVER
  69:.\FileDecode.c ****     0x3911D0,   //STEP_OUT
  70:.\FileDecode.c ****     0x395430,   //STEP_OUT_HANDS_UP
  71:.\FileDecode.c ****     0x39BAB0,   //REMAIN_IN_VEHICLE
  72:.\FileDecode.c ****     0x39FAC0,   //REMAIN_WINDOW_DOWN
  73:.\FileDecode.c ****     0x3A6180    //MECHANICAL_DAC
  74:.\FileDecode.c **** };
  75:.\FileDecode.c **** 
  76:.\FileDecode.c **** static struct
  77:.\FileDecode.c **** {
  78:.\FileDecode.c ****     uint8 ID[ID_SIZE];
  79:.\FileDecode.c ****     uint32 size;
  80:.\FileDecode.c ****     uint8 format[FORMAT_SIZE];
  81:.\FileDecode.c **** }WaveChunk;
  82:.\FileDecode.c **** 
  83:.\FileDecode.c **** static struct
  84:.\FileDecode.c **** {
  85:.\FileDecode.c ****     uint8 ID[ID_SIZE];
  86:.\FileDecode.c ****     uint32 size;
  87:.\FileDecode.c ****     uint32 audioFormat;     // 1 for PCM
  88:.\FileDecode.c ****     uint32 channelCount;    // 1 or 2
  89:.\FileDecode.c ****     uint32 sampleRate;      // samples per second
ARM GAS  C:\Users\faithc\AppData\Local\Temp\ccOz6CyW.s 			page 3


  90:.\FileDecode.c ****     uint32 byteRate;        // bytes per second (for both channels)
  91:.\FileDecode.c ****     uint32 blockAlign;      // bytes per sample (for both channels)
  92:.\FileDecode.c ****     uint32 bitsPerSample;   // expecting either 8 or 16
  93:.\FileDecode.c **** }FirstSubChunk;
  94:.\FileDecode.c **** 
  95:.\FileDecode.c **** static struct
  96:.\FileDecode.c **** {
  97:.\FileDecode.c ****     uint8 ID[ID_SIZE];
  98:.\FileDecode.c ****     uint32 size;
  99:.\FileDecode.c **** }SecondSubChunk;
 100:.\FileDecode.c **** 
 101:.\FileDecode.c **** /**********GLOBAL VARIABLES**********/
 102:.\FileDecode.c **** static enum ToneType currentSong = NO_TONE;
 103:.\FileDecode.c **** 
 104:.\FileDecode.c **** /**********FUNCTION PROTOTYPES**********/
 105:.\FileDecode.c **** static uint8 adjustDACvalue(uint8 oldDACvalue);
 106:.\FileDecode.c **** static uint8 convertToUnsignedByte(int16 signedValue);
 107:.\FileDecode.c **** static uint8 processBigEndianData(uint8* dataArray, uint8* headerSubArray, char* compareString, uin
 108:.\FileDecode.c **** static uint8 processLittleEndianData(uint32* dataParameter, uint8* headerSubArray, uint16 compareVa
 109:.\FileDecode.c **** static uint32 convertToBigEndian(uint32 littleEndianValue, uint8 byteCount);
 110:.\FileDecode.c **** 
 111:.\FileDecode.c **** /**********DEFINED FUNCTIONS**********/
 112:.\FileDecode.c **** 
 113:.\FileDecode.c **** /*******************************************************************************
 114:.\FileDecode.c **** * Function Name: getChannelCount
 115:.\FileDecode.c **** ********************************************************************************
 116:.\FileDecode.c **** *
 117:.\FileDecode.c **** * Summary:
 118:.\FileDecode.c **** *  Returns the channel count for the current file
 119:.\FileDecode.c **** *
 120:.\FileDecode.c **** * Parameters: 
 121:.\FileDecode.c **** *   None
 122:.\FileDecode.c **** *
 123:.\FileDecode.c **** * Return:
 124:.\FileDecode.c **** *   The channel count as 1 or 2
 125:.\FileDecode.c **** *
 126:.\FileDecode.c **** *******************************************************************************/
 127:.\FileDecode.c **** uint8 getChannelCount(void)
 128:.\FileDecode.c **** {
 129:.\FileDecode.c **** 	return (uint8)(FirstSubChunk.channelCount);
 130:.\FileDecode.c **** }
 131:.\FileDecode.c **** 
 132:.\FileDecode.c **** /*******************************************************************************
 133:.\FileDecode.c **** * Function Name: getBytesPerSample
 134:.\FileDecode.c **** ********************************************************************************
 135:.\FileDecode.c **** *
 136:.\FileDecode.c **** * Summary:
 137:.\FileDecode.c **** *  Returns the number of bytes in each sample
 138:.\FileDecode.c **** *
 139:.\FileDecode.c **** * Parameters: 
 140:.\FileDecode.c **** *   None
 141:.\FileDecode.c **** *
 142:.\FileDecode.c **** * Return:
 143:.\FileDecode.c **** *   The number of bytes per sample as 1 or 2
 144:.\FileDecode.c **** *
 145:.\FileDecode.c **** *******************************************************************************/
 146:.\FileDecode.c **** uint8 getBytesPerSample(void)
ARM GAS  C:\Users\faithc\AppData\Local\Temp\ccOz6CyW.s 			page 4


 147:.\FileDecode.c **** {
 148:.\FileDecode.c **** 	return (uint8)(FirstSubChunk.blockAlign);
 149:.\FileDecode.c **** }
 150:.\FileDecode.c **** 
 151:.\FileDecode.c **** /*******************************************************************************
 152:.\FileDecode.c **** * Function Name: getSamplingRate
 153:.\FileDecode.c **** ********************************************************************************
 154:.\FileDecode.c **** *
 155:.\FileDecode.c **** * Summary:
 156:.\FileDecode.c **** *  Returns the sampling rate for the current file
 157:.\FileDecode.c **** *
 158:.\FileDecode.c **** * Parameters: 
 159:.\FileDecode.c **** *   None
 160:.\FileDecode.c **** *
 161:.\FileDecode.c **** * Return:
 162:.\FileDecode.c **** *   The sampling rate in Hertz
 163:.\FileDecode.c **** *
 164:.\FileDecode.c **** *******************************************************************************/
 165:.\FileDecode.c **** uint32 getSamplingRate(void)
 166:.\FileDecode.c **** {
 167:.\FileDecode.c **** 	return FirstSubChunk.sampleRate;
 168:.\FileDecode.c **** }
 169:.\FileDecode.c **** 
 170:.\FileDecode.c **** /*******************************************************************************
 171:.\FileDecode.c **** * Function Name: getDataSize
 172:.\FileDecode.c **** ********************************************************************************
 173:.\FileDecode.c **** *
 174:.\FileDecode.c **** * Summary:
 175:.\FileDecode.c **** *  Returns the number of data sample bytes for the current file
 176:.\FileDecode.c **** *
 177:.\FileDecode.c **** * Parameters: 
 178:.\FileDecode.c **** *   None
 179:.\FileDecode.c **** *
 180:.\FileDecode.c **** * Return:
 181:.\FileDecode.c **** *   The number of data sample bytes
 182:.\FileDecode.c **** *
 183:.\FileDecode.c **** *******************************************************************************/
 184:.\FileDecode.c **** uint32 getDataSize(void)
 185:.\FileDecode.c **** {
 186:.\FileDecode.c **** 	return SecondSubChunk.size;
 187:.\FileDecode.c **** }
 188:.\FileDecode.c **** 
 189:.\FileDecode.c **** /*******************************************************************************
 190:.\FileDecode.c **** * Function Name: getNextWaveData
 191:.\FileDecode.c **** ********************************************************************************
 192:.\FileDecode.c **** *
 193:.\FileDecode.c **** * Summary:
 194:.\FileDecode.c **** *  Gets the next 8-bit value to send out to the DAC, called in the DAC1_ISR or DAC2_ISR
 195:.\FileDecode.c **** *
 196:.\FileDecode.c **** * Parameters: 
 197:.\FileDecode.c **** *   addressIndex: The index to retrieve the next data point
 198:.\FileDecode.c **** *
 199:.\FileDecode.c **** * Return:
 200:.\FileDecode.c **** *   The DAC value ranging 0 - 255
 201:.\FileDecode.c **** *
 202:.\FileDecode.c **** *******************************************************************************/
 203:.\FileDecode.c **** uint8 getNextWaveData(uint32 addressIndex)
ARM GAS  C:\Users\faithc\AppData\Local\Temp\ccOz6CyW.s 			page 5


 204:.\FileDecode.c **** { 
 205:.\FileDecode.c ****     static uint8 bFirstTime = true;
 206:.\FileDecode.c ****     uint8 addressMSB = 0;
 207:.\FileDecode.c ****     uint8 addressCSB = 0;
 208:.\FileDecode.c ****     uint8 addressLSB = 0;
 209:.\FileDecode.c ****     uint8 DACvalue = CENTER_DAC_VALUE;
 210:.\FileDecode.c ****     
 211:.\FileDecode.c ****     addressIndex += SONG_START_ADDRESS[currentSong-ECTOSIREN] + (uint32)(SECOND_SUBCHUNK_DATA);
 212:.\FileDecode.c ****     
 213:.\FileDecode.c ****     addressMSB = (uint8)((addressIndex & 0xFF0000) / (BYTE_SHIFT_FACTOR * BYTE_SHIFT_FACTOR));
 214:.\FileDecode.c ****     addressCSB = (uint8)((addressIndex & 0xFF00) / BYTE_SHIFT_FACTOR);
 215:.\FileDecode.c ****     addressLSB = (uint8)(addressIndex & 0x00FF);    //Splits the 24-bit address up into 3 separate 
 216:.\FileDecode.c ****     
 217:.\FileDecode.c ****     if(SPIM_ReadTxStatus() & SPIM_STS_SPI_IDLE)
 218:.\FileDecode.c ****     {   //Chip Select is high and the SPI transmission is done
 219:.\FileDecode.c ****         if(bFirstTime)
 220:.\FileDecode.c ****             bFirstTime = false; //Don't read on first iteration, just send command and address
 221:.\FileDecode.c ****         else
 222:.\FileDecode.c ****             DACvalue = SPIM_ReadRxData();   //Retrieve next DAC value from the SPI buffer
 223:.\FileDecode.c ****             
 224:.\FileDecode.c ****         SPIM_WriteTxData(READ_COMMAND); //Send command (8 bits)
 225:.\FileDecode.c ****         SPIM_WriteTxData(addressMSB);   //Send address (24 bits)
 226:.\FileDecode.c ****         SPIM_WriteTxData(addressCSB);
 227:.\FileDecode.c ****         SPIM_WriteTxData(addressLSB);        
 228:.\FileDecode.c ****         SPIM_WriteTxData(0x00);         //Send dummy byte (8 bits) to make total of 40 SPI clock cy
 229:.\FileDecode.c ****     }
 230:.\FileDecode.c **** 
 231:.\FileDecode.c ****     return DACvalue;
 232:.\FileDecode.c **** }
 233:.\FileDecode.c **** 
 234:.\FileDecode.c **** /*******************************************************************************
 235:.\FileDecode.c **** * Function Name: processHeaderData
 236:.\FileDecode.c **** ********************************************************************************
 237:.\FileDecode.c **** *
 238:.\FileDecode.c **** * Summary:
 239:.\FileDecode.c **** *  Verifies valid file by inspecting the header content
 240:.\FileDecode.c **** *
 241:.\FileDecode.c **** * Parameters: 
 242:.\FileDecode.c **** *   None
 243:.\FileDecode.c **** *
 244:.\FileDecode.c **** * Return:
 245:.\FileDecode.c **** *   TRUE for valid header, FALSE otherwise
 246:.\FileDecode.c **** *
 247:.\FileDecode.c **** *******************************************************************************/
 248:.\FileDecode.c **** uint8 processHeaderData(enum ToneType songChoice)
 249:.\FileDecode.c **** {  
 250:.\FileDecode.c ****     uint32 address = 0;
 251:.\FileDecode.c ****     uint8 addressMSB = 0;
 252:.\FileDecode.c ****     uint8 addressCSB = 0;
 253:.\FileDecode.c ****     uint8 addressLSB = 0;
 254:.\FileDecode.c ****     uint8 index = 0;
 255:.\FileDecode.c ****     
 256:.\FileDecode.c ****     if((songChoice < ECTOSIREN) || (songChoice > REMAIN_WINDOW_DOWN))
 257:.\FileDecode.c ****         return false;
 258:.\FileDecode.c ****     
 259:.\FileDecode.c ****     currentSong = songChoice;
 260:.\FileDecode.c ****     address = SONG_START_ADDRESS[currentSong-ECTOSIREN];
ARM GAS  C:\Users\faithc\AppData\Local\Temp\ccOz6CyW.s 			page 6


 261:.\FileDecode.c ****     
 262:.\FileDecode.c ****     addressMSB = (uint8)((address & 0xFF0000) / (BYTE_SHIFT_FACTOR * BYTE_SHIFT_FACTOR));
 263:.\FileDecode.c ****     addressCSB = (uint8)((address & 0xFF00) / BYTE_SHIFT_FACTOR);
 264:.\FileDecode.c ****     addressLSB = (uint8)(address & 0x00FF);
 265:.\FileDecode.c ****     
 266:.\FileDecode.c ****     for(index = 0; index < HEADER_SIZE; index++)
 267:.\FileDecode.c ****     {
 268:.\FileDecode.c ****         SPIM_WriteTxData(READ_COMMAND);         //Send command (8 bits)
 269:.\FileDecode.c ****         SPIM_WriteTxData(addressMSB);
 270:.\FileDecode.c ****         SPIM_WriteTxData(addressCSB);           //Send address (24 bits)
 271:.\FileDecode.c ****         SPIM_WriteTxData(addressLSB + index);
 272:.\FileDecode.c ****         
 273:.\FileDecode.c ****         SPIM_WriteTxData(0x00);                 //Send dummy byte (8 bits) to make total of 40 SPI 
 274:.\FileDecode.c ****         while(!(SPIM_ReadTxStatus() & SPIM_STS_SPI_IDLE)){} //Wait for Chip Select to go high
 275:.\FileDecode.c ****         headerArray[index] = SPIM_ReadRxData(); //Retrieve next header data from the SPI buffer
 276:.\FileDecode.c ****     }
 277:.\FileDecode.c ****     
 278:.\FileDecode.c ****     if(!processBigEndianData(WaveChunk.ID, &headerArray[WAVE_CHUNK_ID], "RIFF", ID_SIZE))
 279:.\FileDecode.c ****         return false;
 280:.\FileDecode.c **** 		
 281:.\FileDecode.c **** 	if(!processLittleEndianData(&WaveChunk.size, &headerArray[WAVE_CHUNK_SIZE], NO_COMPARE_VALUE, MAX_
 282:.\FileDecode.c **** 		return false;
 283:.\FileDecode.c **** 
 284:.\FileDecode.c **** 	if(!processBigEndianData(WaveChunk.format, &headerArray[WAVE_CHUNK_FORMAT], "WAVE", FORMAT_SIZE))
 285:.\FileDecode.c ****         return false;
 286:.\FileDecode.c **** 		
 287:.\FileDecode.c **** 	if(!processBigEndianData(FirstSubChunk.ID, &headerArray[FIRST_SUBCHUNK_ID], "fmt ", ID_SIZE))
 288:.\FileDecode.c ****         return false;
 289:.\FileDecode.c **** 		
 290:.\FileDecode.c **** 	if(!processLittleEndianData(&FirstSubChunk.size, &headerArray[FIRST_SUBCHUNK_SIZE], SUBCHUNK_SIZE_
 291:.\FileDecode.c **** 		return false;
 292:.\FileDecode.c **** 		
 293:.\FileDecode.c **** 	if(!processLittleEndianData(&FirstSubChunk.audioFormat, &headerArray[FIRST_SUBCHUNK_AUDIO_FORMAT],
 294:.\FileDecode.c **** 		return false;
 295:.\FileDecode.c **** 		
 296:.\FileDecode.c **** 	if(!processLittleEndianData(&FirstSubChunk.channelCount, &headerArray[FIRST_SUBCHUNK_CHANNEL_COUNT
 297:.\FileDecode.c **** 		return false;
 298:.\FileDecode.c **** 	
 299:.\FileDecode.c **** 	if(!processLittleEndianData(&FirstSubChunk.sampleRate, &headerArray[FIRST_SUBCHUNK_SAMPLE_RATE], E
 300:.\FileDecode.c **** 		return false;
 301:.\FileDecode.c **** 		
 302:.\FileDecode.c **** 	if(!processLittleEndianData(&FirstSubChunk.byteRate, &headerArray[FIRST_SUBCHUNK_BYTE_RATE], NO_CO
 303:.\FileDecode.c **** 		return false;
 304:.\FileDecode.c **** 		
 305:.\FileDecode.c **** 	if(!processLittleEndianData(&FirstSubChunk.blockAlign, &headerArray[FIRST_SUBCHUNK_BLOCK_ALIGN], N
 306:.\FileDecode.c **** 		return false;
 307:.\FileDecode.c **** 		
 308:.\FileDecode.c **** 	if(!processLittleEndianData(&FirstSubChunk.bitsPerSample, &headerArray[FIRST_SUBCHUNK_BITS_PER_SAM
 309:.\FileDecode.c **** 		return false;
 310:.\FileDecode.c **** 	
 311:.\FileDecode.c **** 	if(!processBigEndianData(SecondSubChunk.ID, &headerArray[SECOND_SUBCHUNK_ID], "data", ID_SIZE))
 312:.\FileDecode.c ****         return false;
 313:.\FileDecode.c **** 		
 314:.\FileDecode.c **** 	if(!processLittleEndianData(&SecondSubChunk.size, &headerArray[SECOND_SUBCHUNK_SIZE], NO_COMPARE_V
 315:.\FileDecode.c **** 		return false;
 316:.\FileDecode.c ****     
 317:.\FileDecode.c ****     return true;
ARM GAS  C:\Users\faithc\AppData\Local\Temp\ccOz6CyW.s 			page 7


 318:.\FileDecode.c **** }
 319:.\FileDecode.c **** 
 320:.\FileDecode.c **** /*******************************************************************************
 321:.\FileDecode.c **** * Function Name: adjustDACvalue
 322:.\FileDecode.c **** ********************************************************************************
 323:.\FileDecode.c **** *
 324:.\FileDecode.c **** * Summary:
 325:.\FileDecode.c **** *  Alters the current DAC value based on the offset and amplitude constants
 326:.\FileDecode.c **** *
 327:.\FileDecode.c **** * Parameters: 
 328:.\FileDecode.c **** *   oldDACvalue: The original value to send to the DAC
 329:.\FileDecode.c **** *
 330:.\FileDecode.c **** * Return:
 331:.\FileDecode.c **** *   The altered DAC value, should still be in range 0 - 255
 332:.\FileDecode.c **** *
 333:.\FileDecode.c **** *******************************************************************************/
 334:.\FileDecode.c **** static uint8 adjustDACvalue(uint8 oldDACvalue)
 335:.\FileDecode.c **** {
 336:.\FileDecode.c ****     static const uint8 OFFSET_VALUE = 0;
 337:.\FileDecode.c ****     static const uint8 AMPLITUDE_FACTOR = 1;
 338:.\FileDecode.c ****     uint8 newDACvalue = CENTER_DAC_VALUE;
 339:.\FileDecode.c ****     
 340:.\FileDecode.c ****     newDACvalue = oldDACvalue / AMPLITUDE_FACTOR + OFFSET_VALUE;
 341:.\FileDecode.c ****     
 342:.\FileDecode.c ****     if((oldDACvalue > LOWEST_DAC_VALUE) && (newDACvalue == LOWEST_DAC_VALUE))
 343:.\FileDecode.c ****         return LOWEST_DAC_VALUE;   //Indicates truncation at 0
 344:.\FileDecode.c ****     
 345:.\FileDecode.c ****     if((oldDACvalue < HIGHEST_DAC_VALUE) && (newDACvalue == HIGHEST_DAC_VALUE))
 346:.\FileDecode.c ****         return HIGHEST_DAC_VALUE;   //Indicates truncation at 255
 347:.\FileDecode.c ****     
 348:.\FileDecode.c ****     return newDACvalue;
 349:.\FileDecode.c **** }
 350:.\FileDecode.c **** 
 351:.\FileDecode.c **** /*******************************************************************************
 352:.\FileDecode.c **** * Function Name: convertToUnsignedByte
 353:.\FileDecode.c **** ********************************************************************************
 354:.\FileDecode.c **** *
 355:.\FileDecode.c **** * Summary:
 356:.\FileDecode.c **** *  Converts a signed 16-bit value to an unsigned 8-bit value
 357:.\FileDecode.c **** *
 358:.\FileDecode.c **** * Parameters: 
 359:.\FileDecode.c **** *   signedValue: The 16-bit signed value
 360:.\FileDecode.c **** *
 361:.\FileDecode.c **** * Return:
 362:.\FileDecode.c **** *   The unsigned 8-bit value in range 0 - 255
 363:.\FileDecode.c **** *
 364:.\FileDecode.c **** *******************************************************************************/
 365:.\FileDecode.c **** static uint8 convertToUnsignedByte(int16 signedValue)
 366:.\FileDecode.c **** {
 367:.\FileDecode.c ****     static const int16 SIGNED_MASK = 0x8000;
 368:.\FileDecode.c ****     int16 adjustedValue = 0;
 369:.\FileDecode.c ****     
 370:.\FileDecode.c ****     if((FirstSubChunk.blockAlign == 1) &&
 371:.\FileDecode.c ****         ((signedValue < 0x0080) || (signedValue > 0x007F)))
 372:.\FileDecode.c ****         return 0;   //8-bit values must be in range -128 to 127
 373:.\FileDecode.c ****     
 374:.\FileDecode.c ****     if(FirstSubChunk.blockAlign == 2)
ARM GAS  C:\Users\faithc\AppData\Local\Temp\ccOz6CyW.s 			page 8


 375:.\FileDecode.c ****     {   //Convert 16-bit to 8-bit with rounding
 376:.\FileDecode.c ****         if(signedValue & SIGNED_MASK)
 377:.\FileDecode.c ****             adjustedValue = ((2 * signedValue - BYTE_SHIFT_FACTOR) / 2) / BYTE_SHIFT_FACTOR;
 378:.\FileDecode.c ****         else
 379:.\FileDecode.c ****             adjustedValue = ((2 * signedValue + BYTE_SHIFT_FACTOR) / 2) / BYTE_SHIFT_FACTOR;
 380:.\FileDecode.c ****     }
 381:.\FileDecode.c ****     
 382:.\FileDecode.c ****     adjustedValue += CENTER_DAC_VALUE;    //Add offset to meet range 0 - 255
 383:.\FileDecode.c ****     
 384:.\FileDecode.c **** 	return (uint8)(adjustedValue);
 385:.\FileDecode.c **** }
 386:.\FileDecode.c **** 
 387:.\FileDecode.c **** /*******************************************************************************
 388:.\FileDecode.c **** * Function Name: processBigEndianData
 389:.\FileDecode.c **** ********************************************************************************
 390:.\FileDecode.c **** *
 391:.\FileDecode.c **** * Summary:
 392:.\FileDecode.c **** *  Retrieves next header data and verifies that the big endian (ASCII) header 
 393:.\FileDecode.c **** *   parameters are valid
 394:.\FileDecode.c **** *
 395:.\FileDecode.c **** * Parameters: 
 396:.\FileDecode.c **** *   dataArray: The pointer to the array that will store the ASCII content
 397:.\FileDecode.c **** *   headerSubArray: The pointer to a section of the header array for validation
 398:.\FileDecode.c **** *   compareString: Used with the string compare function to check that the
 399:.\FileDecode.c **** *                   ASCII values are correct
 400:.\FileDecode.c **** *   arraySize: The number of elements to check in the arrays
 401:.\FileDecode.c **** *
 402:.\FileDecode.c **** * Return:
 403:.\FileDecode.c **** *   TRUE for valid content, FALSE otherwise
 404:.\FileDecode.c **** *
 405:.\FileDecode.c **** *******************************************************************************/
 406:.\FileDecode.c **** static uint8 processBigEndianData(uint8* dataArray, uint8* headerSubArray, char* compareString, uin
 407:.\FileDecode.c **** {
 408:.\FileDecode.c ****     uint8 arrayCopy[MAX_READ_SIZE+1];
 409:.\FileDecode.c ****     uint8 index = 0;
 410:.\FileDecode.c ****     
 411:.\FileDecode.c ****     if((dataArray == NULL) || (headerSubArray == NULL) 
 412:.\FileDecode.c ****         || (compareString == NULL) || (arraySize > MAX_READ_SIZE)) 
 413:.\FileDecode.c ****         return false;   //Validate input parameters
 414:.\FileDecode.c ****     
 415:.\FileDecode.c ****     memset(arrayCopy, 0, MAX_READ_SIZE+1);  //Clear array
 416:.\FileDecode.c ****     
 417:.\FileDecode.c ****     for(index = 0; index < arraySize; index++)
 418:.\FileDecode.c ****         arrayCopy[index] = headerSubArray[index];   //Make copy of ASCII content + null character t
 419:.\FileDecode.c ****     
 420:.\FileDecode.c ****     if(strcmp((char*)(arrayCopy), compareString))   //0 for match, 1 for no match
 421:.\FileDecode.c **** 		return false;
 422:.\FileDecode.c ****     
 423:.\FileDecode.c ****     for(index = 0; index < arraySize; index++)      //Matched, store ASCII content
 424:.\FileDecode.c ****         dataArray[index] = headerSubArray[index];
 425:.\FileDecode.c **** 		
 426:.\FileDecode.c **** 	return true;
 427:.\FileDecode.c **** }
 428:.\FileDecode.c **** 
 429:.\FileDecode.c **** /*******************************************************************************
 430:.\FileDecode.c **** * Function Name: processLittleEndianData
 431:.\FileDecode.c **** ********************************************************************************
ARM GAS  C:\Users\faithc\AppData\Local\Temp\ccOz6CyW.s 			page 9


 432:.\FileDecode.c **** *
 433:.\FileDecode.c **** * Summary:
 434:.\FileDecode.c **** *  Retrieves next header data and verifies that the little endian header 
 435:.\FileDecode.c **** *   parameters are valid
 436:.\FileDecode.c **** *
 437:.\FileDecode.c **** * Parameters: 
 438:.\FileDecode.c **** *   dataParameter: The pointer to variable that will hold the next header data
 439:.\FileDecode.c **** *   headerSubArray: The pointer to a section of the header array for validation
 440:.\FileDecode.c **** *   compareValue: Used to verify that the tested value is in range
 441:.\FileDecode.c **** *   byteCount: Number of bytes to validate
 442:.\FileDecode.c **** *
 443:.\FileDecode.c **** * Return:
 444:.\FileDecode.c **** *   TRUE for valid content, FALSE otherwise
 445:.\FileDecode.c **** *
 446:.\FileDecode.c **** *******************************************************************************/
 447:.\FileDecode.c **** static uint8 processLittleEndianData(uint32* dataParameter, uint8* headerSubArray, uint16 compareVa
 448:.\FileDecode.c **** {
 449:.\FileDecode.c ****     uint8 index = 0;
 450:.\FileDecode.c **** 	uint32 littleEndianValue = 0;
 451:.\FileDecode.c **** 	uint32 bigEndianValue = 0;
 452:.\FileDecode.c **** 	
 453:.\FileDecode.c **** 	if((dataParameter == NULL) || (headerSubArray == NULL) || (byteCount > MAX_READ_SIZE))
 454:.\FileDecode.c **** 		return false;   //Validate input parameters
 455:.\FileDecode.c **** 	
 456:.\FileDecode.c **** 	for(index = 0; index < byteCount; index++)
 457:.\FileDecode.c **** 	{   //Convert bytes into one little endian value
 458:.\FileDecode.c **** 		littleEndianValue *= BYTE_SHIFT_FACTOR;        
 459:.\FileDecode.c ****         littleEndianValue += headerSubArray[index];
 460:.\FileDecode.c **** 	}
 461:.\FileDecode.c **** 	
 462:.\FileDecode.c **** 	bigEndianValue = convertToBigEndian(littleEndianValue, byteCount);
 463:.\FileDecode.c **** 	if((compareValue != NO_COMPARE_VALUE) && (bigEndianValue > compareValue))
 464:.\FileDecode.c ****         return false;   //Check if the data meets the limitations
 465:.\FileDecode.c **** 		
 466:.\FileDecode.c ****     *dataParameter = bigEndianValue;    //Passed check, store the value
 467:.\FileDecode.c **** 
 468:.\FileDecode.c **** 	return true;
 469:.\FileDecode.c **** }
 470:.\FileDecode.c **** 
 471:.\FileDecode.c **** /*******************************************************************************
 472:.\FileDecode.c **** * Function Name: convertToBigEndian
 473:.\FileDecode.c **** ********************************************************************************
 474:.\FileDecode.c **** *
 475:.\FileDecode.c **** * Summary:
 476:.\FileDecode.c **** *  Converts a little endian value to a big endian value
 477:.\FileDecode.c **** *
 478:.\FileDecode.c **** * Parameters: 
 479:.\FileDecode.c **** *   littleEndianValue: The little endian value
 480:.\FileDecode.c **** *   byteCount: The number of bytes to rearrange
 481:.\FileDecode.c **** *
 482:.\FileDecode.c **** * Return:
 483:.\FileDecode.c **** *   The big endian equivalent
 484:.\FileDecode.c **** *
 485:.\FileDecode.c **** *******************************************************************************/
 486:.\FileDecode.c **** static uint32 convertToBigEndian(uint32 littleEndianValue, uint8 byteCount)
 487:.\FileDecode.c **** {
  26              		.loc 1 487 0
ARM GAS  C:\Users\faithc\AppData\Local\Temp\ccOz6CyW.s 			page 10


  27              		.cfi_startproc
  28              		@ args = 0, pretend = 0, frame = 0
  29              		@ frame_needed = 0, uses_anonymous_args = 0
  30              		@ link register save eliminated.
  31              	.LVL0:
  32 0000 10B4     		push	{r4}
  33              		.cfi_def_cfa_offset 4
  34              		.cfi_offset 4, -4
  35 0002 0246     		mov	r2, r0
  36              	.LVL1:
 488:.\FileDecode.c ****     uint8 index = 0;
 489:.\FileDecode.c ****     uint32 bigEndianValue = 0;
  37              		.loc 1 489 0
  38 0004 0020     		movs	r0, #0
  39              	.LVL2:
 490:.\FileDecode.c ****     
 491:.\FileDecode.c ****     for(index = 0; index < byteCount; index++)
  40              		.loc 1 491 0
  41 0006 0346     		mov	r3, r0
  42 0008 05E0     		b	.L2
  43              	.LVL3:
  44              	.L3:
 492:.\FileDecode.c ****     {
 493:.\FileDecode.c ****         bigEndianValue *= BYTE_SHIFT_FACTOR;
 494:.\FileDecode.c ****         bigEndianValue += (littleEndianValue & 0xFF);
  45              		.loc 1 494 0 discriminator 3
  46 000a D4B2     		uxtb	r4, r2
  47 000c 04EB0020 		add	r0, r4, r0, lsl #8
  48              	.LVL4:
 495:.\FileDecode.c ****         littleEndianValue /= BYTE_SHIFT_FACTOR;        
  49              		.loc 1 495 0 discriminator 3
  50 0010 120A     		lsrs	r2, r2, #8
  51              	.LVL5:
 491:.\FileDecode.c ****     {
  52              		.loc 1 491 0 discriminator 3
  53 0012 0133     		adds	r3, r3, #1
  54              	.LVL6:
  55 0014 DBB2     		uxtb	r3, r3
  56              	.LVL7:
  57              	.L2:
 491:.\FileDecode.c ****     {
  58              		.loc 1 491 0 is_stmt 0 discriminator 1
  59 0016 8B42     		cmp	r3, r1
  60 0018 F7D3     		bcc	.L3
 496:.\FileDecode.c ****     }
 497:.\FileDecode.c ****     
 498:.\FileDecode.c ****     return bigEndianValue;
 499:.\FileDecode.c **** }
  61              		.loc 1 499 0 is_stmt 1
  62 001a 5DF8044B 		ldr	r4, [sp], #4
  63              		.cfi_restore 4
  64              		.cfi_def_cfa_offset 0
  65 001e 7047     		bx	lr
  66              		.cfi_endproc
  67              	.LFE73:
  68              		.size	convertToBigEndian, .-convertToBigEndian
  69              		.section	.text.processLittleEndianData,"ax",%progbits
ARM GAS  C:\Users\faithc\AppData\Local\Temp\ccOz6CyW.s 			page 11


  70              		.align	2
  71              		.thumb
  72              		.thumb_func
  73              		.type	processLittleEndianData, %function
  74              	processLittleEndianData:
  75              	.LFB72:
 448:.\FileDecode.c ****     uint8 index = 0;
  76              		.loc 1 448 0
  77              		.cfi_startproc
  78              		@ args = 0, pretend = 0, frame = 0
  79              		@ frame_needed = 0, uses_anonymous_args = 0
  80              	.LVL8:
 453:.\FileDecode.c **** 		return false;   //Validate input parameters
  81              		.loc 1 453 0
  82 0000 C0B1     		cbz	r0, .L10
 448:.\FileDecode.c ****     uint8 index = 0;
  83              		.loc 1 448 0 discriminator 1
  84 0002 70B5     		push	{r4, r5, r6, lr}
  85              		.cfi_def_cfa_offset 16
  86              		.cfi_offset 4, -16
  87              		.cfi_offset 5, -12
  88              		.cfi_offset 6, -8
  89              		.cfi_offset 14, -4
  90 0004 0646     		mov	r6, r0
 453:.\FileDecode.c **** 		return false;   //Validate input parameters
  91              		.loc 1 453 0 discriminator 1
  92 0006 B9B1     		cbz	r1, .L11
 453:.\FileDecode.c **** 		return false;   //Validate input parameters
  93              		.loc 1 453 0 is_stmt 0 discriminator 2
  94 0008 042B     		cmp	r3, #4
  95 000a 17D8     		bhi	.L12
  96 000c 0020     		movs	r0, #0
  97              	.LVL9:
  98 000e 0446     		mov	r4, r0
  99 0010 04E0     		b	.L7
 100              	.LVL10:
 101              	.L8:
 459:.\FileDecode.c **** 	}
 102              		.loc 1 459 0 is_stmt 1 discriminator 3
 103 0012 0D5D     		ldrb	r5, [r1, r4]	@ zero_extendqisi2
 104 0014 05EB0020 		add	r0, r5, r0, lsl #8
 105              	.LVL11:
 456:.\FileDecode.c **** 	{   //Convert bytes into one little endian value
 106              		.loc 1 456 0 discriminator 3
 107 0018 0134     		adds	r4, r4, #1
 108              	.LVL12:
 109 001a E4B2     		uxtb	r4, r4
 110              	.LVL13:
 111              	.L7:
 456:.\FileDecode.c **** 	{   //Convert bytes into one little endian value
 112              		.loc 1 456 0 is_stmt 0 discriminator 1
 113 001c 9C42     		cmp	r4, r3
 114 001e F8D3     		bcc	.L8
 115 0020 1946     		mov	r1, r3
 116              	.LVL14:
 117 0022 1446     		mov	r4, r2
 118              	.LVL15:
ARM GAS  C:\Users\faithc\AppData\Local\Temp\ccOz6CyW.s 			page 12


 462:.\FileDecode.c **** 	if((compareValue != NO_COMPARE_VALUE) && (bigEndianValue > compareValue))
 119              		.loc 1 462 0 is_stmt 1
 120 0024 FFF7FEFF 		bl	convertToBigEndian
 121              	.LVL16:
 463:.\FileDecode.c ****         return false;   //Check if the data meets the limitations
 122              		.loc 1 463 0
 123 0028 0CB1     		cbz	r4, .L9
 463:.\FileDecode.c ****         return false;   //Check if the data meets the limitations
 124              		.loc 1 463 0 is_stmt 0 discriminator 1
 125 002a 8442     		cmp	r4, r0
 126 002c 08D3     		bcc	.L13
 127              	.L9:
 466:.\FileDecode.c **** 
 128              		.loc 1 466 0 is_stmt 1
 129 002e 3060     		str	r0, [r6]
 468:.\FileDecode.c **** }
 130              		.loc 1 468 0
 131 0030 0120     		movs	r0, #1
 132              	.LVL17:
 133 0032 70BD     		pop	{r4, r5, r6, pc}
 134              	.LVL18:
 135              	.L10:
 136              		.cfi_def_cfa_offset 0
 137              		.cfi_restore 4
 138              		.cfi_restore 5
 139              		.cfi_restore 6
 140              		.cfi_restore 14
 454:.\FileDecode.c **** 	
 141              		.loc 1 454 0
 142 0034 0020     		movs	r0, #0
 143              	.LVL19:
 469:.\FileDecode.c **** 
 144              		.loc 1 469 0
 145 0036 7047     		bx	lr
 146              	.LVL20:
 147              	.L11:
 148              		.cfi_def_cfa_offset 16
 149              		.cfi_offset 4, -16
 150              		.cfi_offset 5, -12
 151              		.cfi_offset 6, -8
 152              		.cfi_offset 14, -4
 454:.\FileDecode.c **** 	
 153              		.loc 1 454 0
 154 0038 0020     		movs	r0, #0
 155              	.LVL21:
 156 003a 70BD     		pop	{r4, r5, r6, pc}
 157              	.LVL22:
 158              	.L12:
 159 003c 0020     		movs	r0, #0
 160              	.LVL23:
 161 003e 70BD     		pop	{r4, r5, r6, pc}
 162              	.LVL24:
 163              	.L13:
 464:.\FileDecode.c **** 		
 164              		.loc 1 464 0
 165 0040 0020     		movs	r0, #0
 166              	.LVL25:
ARM GAS  C:\Users\faithc\AppData\Local\Temp\ccOz6CyW.s 			page 13


 469:.\FileDecode.c **** 
 167              		.loc 1 469 0
 168 0042 70BD     		pop	{r4, r5, r6, pc}
 169              		.cfi_endproc
 170              	.LFE72:
 171              		.size	processLittleEndianData, .-processLittleEndianData
 172              		.section	.text.processBigEndianData,"ax",%progbits
 173              		.align	2
 174              		.thumb
 175              		.thumb_func
 176              		.type	processBigEndianData, %function
 177              	processBigEndianData:
 178              	.LFB71:
 407:.\FileDecode.c ****     uint8 arrayCopy[MAX_READ_SIZE+1];
 179              		.loc 1 407 0
 180              		.cfi_startproc
 181              		@ args = 0, pretend = 0, frame = 8
 182              		@ frame_needed = 0, uses_anonymous_args = 0
 183              	.LVL26:
 411:.\FileDecode.c ****         || (compareString == NULL) || (arraySize > MAX_READ_SIZE)) 
 184              		.loc 1 411 0
 185 0000 28B3     		cbz	r0, .L21
 407:.\FileDecode.c ****     uint8 arrayCopy[MAX_READ_SIZE+1];
 186              		.loc 1 407 0 discriminator 1
 187 0002 70B5     		push	{r4, r5, r6, lr}
 188              		.cfi_def_cfa_offset 16
 189              		.cfi_offset 4, -16
 190              		.cfi_offset 5, -12
 191              		.cfi_offset 6, -8
 192              		.cfi_offset 14, -4
 193 0004 82B0     		sub	sp, sp, #8
 194              		.cfi_def_cfa_offset 24
 195 0006 0646     		mov	r6, r0
 411:.\FileDecode.c ****         || (compareString == NULL) || (arraySize > MAX_READ_SIZE)) 
 196              		.loc 1 411 0 discriminator 1
 197 0008 19B3     		cbz	r1, .L22
 412:.\FileDecode.c ****         return false;   //Validate input parameters
 198              		.loc 1 412 0
 199 000a 22B3     		cbz	r2, .L23
 412:.\FileDecode.c ****         return false;   //Validate input parameters
 200              		.loc 1 412 0 is_stmt 0 discriminator 1
 201 000c 042B     		cmp	r3, #4
 202 000e 24D8     		bhi	.L24
 415:.\FileDecode.c ****     
 203              		.loc 1 415 0 is_stmt 1
 204 0010 0020     		movs	r0, #0
 205              	.LVL27:
 206 0012 0090     		str	r0, [sp]
 207 0014 8DF80400 		strb	r0, [sp, #4]
 417:.\FileDecode.c ****         arrayCopy[index] = headerSubArray[index];   //Make copy of ASCII content + null character t
 208              		.loc 1 417 0
 209 0018 06E0     		b	.L17
 210              	.LVL28:
 211              	.L18:
 418:.\FileDecode.c ****     
 212              		.loc 1 418 0 discriminator 3
 213 001a 0D5C     		ldrb	r5, [r1, r0]	@ zero_extendqisi2
ARM GAS  C:\Users\faithc\AppData\Local\Temp\ccOz6CyW.s 			page 14


 214 001c 02AC     		add	r4, sp, #8
 215 001e 0444     		add	r4, r4, r0
 216 0020 04F8085C 		strb	r5, [r4, #-8]
 417:.\FileDecode.c ****         arrayCopy[index] = headerSubArray[index];   //Make copy of ASCII content + null character t
 217              		.loc 1 417 0 discriminator 3
 218 0024 0130     		adds	r0, r0, #1
 219              	.LVL29:
 220 0026 C0B2     		uxtb	r0, r0
 221              	.LVL30:
 222              	.L17:
 417:.\FileDecode.c ****         arrayCopy[index] = headerSubArray[index];   //Make copy of ASCII content + null character t
 223              		.loc 1 417 0 is_stmt 0 discriminator 1
 224 0028 9842     		cmp	r0, r3
 225 002a F6D3     		bcc	.L18
 226 002c 1D46     		mov	r5, r3
 227 002e 0C46     		mov	r4, r1
 420:.\FileDecode.c **** 		return false;
 228              		.loc 1 420 0 is_stmt 1
 229 0030 6846     		mov	r0, sp
 230              	.LVL31:
 231 0032 1146     		mov	r1, r2
 232              	.LVL32:
 233 0034 FFF7FEFF 		bl	strcmp
 234              	.LVL33:
 235 0038 88B9     		cbnz	r0, .L25
 236 003a 0022     		movs	r2, #0
 237 003c 03E0     		b	.L19
 238              	.LVL34:
 239              	.L20:
 424:.\FileDecode.c **** 		
 240              		.loc 1 424 0 discriminator 3
 241 003e A15C     		ldrb	r1, [r4, r2]	@ zero_extendqisi2
 242 0040 B154     		strb	r1, [r6, r2]
 423:.\FileDecode.c ****         dataArray[index] = headerSubArray[index];
 243              		.loc 1 423 0 discriminator 3
 244 0042 0132     		adds	r2, r2, #1
 245              	.LVL35:
 246 0044 D2B2     		uxtb	r2, r2
 247              	.LVL36:
 248              	.L19:
 423:.\FileDecode.c ****         dataArray[index] = headerSubArray[index];
 249              		.loc 1 423 0 is_stmt 0 discriminator 1
 250 0046 AA42     		cmp	r2, r5
 251 0048 F9D3     		bcc	.L20
 426:.\FileDecode.c **** }
 252              		.loc 1 426 0 is_stmt 1
 253 004a 0120     		movs	r0, #1
 254 004c 08E0     		b	.L16
 255              	.LVL37:
 256              	.L21:
 257              		.cfi_def_cfa_offset 0
 258              		.cfi_restore 4
 259              		.cfi_restore 5
 260              		.cfi_restore 6
 261              		.cfi_restore 14
 413:.\FileDecode.c ****     
 262              		.loc 1 413 0
ARM GAS  C:\Users\faithc\AppData\Local\Temp\ccOz6CyW.s 			page 15


 263 004e 0020     		movs	r0, #0
 264              	.LVL38:
 427:.\FileDecode.c **** 
 265              		.loc 1 427 0
 266 0050 7047     		bx	lr
 267              	.LVL39:
 268              	.L22:
 269              		.cfi_def_cfa_offset 24
 270              		.cfi_offset 4, -16
 271              		.cfi_offset 5, -12
 272              		.cfi_offset 6, -8
 273              		.cfi_offset 14, -4
 413:.\FileDecode.c ****     
 274              		.loc 1 413 0
 275 0052 0020     		movs	r0, #0
 276              	.LVL40:
 277 0054 04E0     		b	.L16
 278              	.LVL41:
 279              	.L23:
 280 0056 0020     		movs	r0, #0
 281              	.LVL42:
 282 0058 02E0     		b	.L16
 283              	.LVL43:
 284              	.L24:
 285 005a 0020     		movs	r0, #0
 286              	.LVL44:
 287 005c 00E0     		b	.L16
 288              	.LVL45:
 289              	.L25:
 421:.\FileDecode.c ****     
 290              		.loc 1 421 0
 291 005e 0020     		movs	r0, #0
 292              	.LVL46:
 293              	.L16:
 427:.\FileDecode.c **** 
 294              		.loc 1 427 0
 295 0060 02B0     		add	sp, sp, #8
 296              		.cfi_def_cfa_offset 16
 297              		@ sp needed
 298 0062 70BD     		pop	{r4, r5, r6, pc}
 299              		.cfi_endproc
 300              	.LFE71:
 301              		.size	processBigEndianData, .-processBigEndianData
 302              		.section	.text.getChannelCount,"ax",%progbits
 303              		.align	2
 304              		.global	getChannelCount
 305              		.thumb
 306              		.thumb_func
 307              		.type	getChannelCount, %function
 308              	getChannelCount:
 309              	.LFB63:
 128:.\FileDecode.c **** 	return (uint8)(FirstSubChunk.channelCount);
 310              		.loc 1 128 0
 311              		.cfi_startproc
 312              		@ args = 0, pretend = 0, frame = 0
 313              		@ frame_needed = 0, uses_anonymous_args = 0
 314              		@ link register save eliminated.
ARM GAS  C:\Users\faithc\AppData\Local\Temp\ccOz6CyW.s 			page 16


 130:.\FileDecode.c **** 
 315              		.loc 1 130 0
 316 0000 014B     		ldr	r3, .L28
 317 0002 187B     		ldrb	r0, [r3, #12]	@ zero_extendqisi2
 318 0004 7047     		bx	lr
 319              	.L29:
 320 0006 00BF     		.align	2
 321              	.L28:
 322 0008 00000000 		.word	.LANCHOR0
 323              		.cfi_endproc
 324              	.LFE63:
 325              		.size	getChannelCount, .-getChannelCount
 326              		.section	.text.getBytesPerSample,"ax",%progbits
 327              		.align	2
 328              		.global	getBytesPerSample
 329              		.thumb
 330              		.thumb_func
 331              		.type	getBytesPerSample, %function
 332              	getBytesPerSample:
 333              	.LFB64:
 147:.\FileDecode.c **** 	return (uint8)(FirstSubChunk.blockAlign);
 334              		.loc 1 147 0
 335              		.cfi_startproc
 336              		@ args = 0, pretend = 0, frame = 0
 337              		@ frame_needed = 0, uses_anonymous_args = 0
 338              		@ link register save eliminated.
 149:.\FileDecode.c **** 
 339              		.loc 1 149 0
 340 0000 014B     		ldr	r3, .L31
 341 0002 187E     		ldrb	r0, [r3, #24]	@ zero_extendqisi2
 342 0004 7047     		bx	lr
 343              	.L32:
 344 0006 00BF     		.align	2
 345              	.L31:
 346 0008 00000000 		.word	.LANCHOR0
 347              		.cfi_endproc
 348              	.LFE64:
 349              		.size	getBytesPerSample, .-getBytesPerSample
 350              		.section	.text.getSamplingRate,"ax",%progbits
 351              		.align	2
 352              		.global	getSamplingRate
 353              		.thumb
 354              		.thumb_func
 355              		.type	getSamplingRate, %function
 356              	getSamplingRate:
 357              	.LFB65:
 166:.\FileDecode.c **** 	return FirstSubChunk.sampleRate;
 358              		.loc 1 166 0
 359              		.cfi_startproc
 360              		@ args = 0, pretend = 0, frame = 0
 361              		@ frame_needed = 0, uses_anonymous_args = 0
 362              		@ link register save eliminated.
 168:.\FileDecode.c **** 
 363              		.loc 1 168 0
 364 0000 014B     		ldr	r3, .L34
 365 0002 1869     		ldr	r0, [r3, #16]
 366 0004 7047     		bx	lr
ARM GAS  C:\Users\faithc\AppData\Local\Temp\ccOz6CyW.s 			page 17


 367              	.L35:
 368 0006 00BF     		.align	2
 369              	.L34:
 370 0008 00000000 		.word	.LANCHOR0
 371              		.cfi_endproc
 372              	.LFE65:
 373              		.size	getSamplingRate, .-getSamplingRate
 374              		.section	.text.getDataSize,"ax",%progbits
 375              		.align	2
 376              		.global	getDataSize
 377              		.thumb
 378              		.thumb_func
 379              		.type	getDataSize, %function
 380              	getDataSize:
 381              	.LFB66:
 185:.\FileDecode.c **** 	return SecondSubChunk.size;
 382              		.loc 1 185 0
 383              		.cfi_startproc
 384              		@ args = 0, pretend = 0, frame = 0
 385              		@ frame_needed = 0, uses_anonymous_args = 0
 386              		@ link register save eliminated.
 187:.\FileDecode.c **** 
 387              		.loc 1 187 0
 388 0000 014B     		ldr	r3, .L37
 389 0002 586A     		ldr	r0, [r3, #36]
 390 0004 7047     		bx	lr
 391              	.L38:
 392 0006 00BF     		.align	2
 393              	.L37:
 394 0008 00000000 		.word	.LANCHOR0
 395              		.cfi_endproc
 396              	.LFE66:
 397              		.size	getDataSize, .-getDataSize
 398              		.section	.text.getNextWaveData,"ax",%progbits
 399              		.align	2
 400              		.global	getNextWaveData
 401              		.thumb
 402              		.thumb_func
 403              		.type	getNextWaveData, %function
 404              	getNextWaveData:
 405              	.LFB67:
 204:.\FileDecode.c ****     static uint8 bFirstTime = true;
 406              		.loc 1 204 0
 407              		.cfi_startproc
 408              		@ args = 0, pretend = 0, frame = 0
 409              		@ frame_needed = 0, uses_anonymous_args = 0
 410              	.LVL47:
 411 0000 F8B5     		push	{r3, r4, r5, r6, r7, lr}
 412              		.cfi_def_cfa_offset 24
 413              		.cfi_offset 3, -24
 414              		.cfi_offset 4, -20
 415              		.cfi_offset 5, -16
 416              		.cfi_offset 6, -12
 417              		.cfi_offset 7, -8
 418              		.cfi_offset 14, -4
 419              	.LVL48:
 211:.\FileDecode.c ****     
ARM GAS  C:\Users\faithc\AppData\Local\Temp\ccOz6CyW.s 			page 18


 420              		.loc 1 211 0
 421 0002 184B     		ldr	r3, .L45
 422 0004 93F82830 		ldrb	r3, [r3, #40]	@ zero_extendqisi2
 423 0008 0E3B     		subs	r3, r3, #14
 424 000a 174A     		ldr	r2, .L45+4
 425 000c 52F82330 		ldr	r3, [r2, r3, lsl #2]
 426 0010 1844     		add	r0, r0, r3
 427              	.LVL49:
 428 0012 2C30     		adds	r0, r0, #44
 429              	.LVL50:
 213:.\FileDecode.c ****     addressCSB = (uint8)((addressIndex & 0xFF00) / BYTE_SHIFT_FACTOR);
 430              		.loc 1 213 0
 431 0014 C0F30747 		ubfx	r7, r0, #16, #8
 432              	.LVL51:
 214:.\FileDecode.c ****     addressLSB = (uint8)(addressIndex & 0x00FF);    //Splits the 24-bit address up into 3 separate 
 433              		.loc 1 214 0
 434 0018 C0F30726 		ubfx	r6, r0, #8, #8
 435              	.LVL52:
 215:.\FileDecode.c ****     
 436              		.loc 1 215 0
 437 001c C4B2     		uxtb	r4, r0
 438              	.LVL53:
 217:.\FileDecode.c ****     {   //Chip Select is high and the SPI transmission is done
 439              		.loc 1 217 0
 440 001e FFF7FEFF 		bl	SPIM_ReadTxStatus
 441              	.LVL54:
 442 0022 10F0100F 		tst	r0, #16
 443 0026 1AD0     		beq	.L43
 219:.\FileDecode.c ****             bFirstTime = false; //Don't read on first iteration, just send command and address
 444              		.loc 1 219 0
 445 0028 104B     		ldr	r3, .L45+8
 446 002a 1B78     		ldrb	r3, [r3]	@ zero_extendqisi2
 447 002c 23B1     		cbz	r3, .L41
 220:.\FileDecode.c ****         else
 448              		.loc 1 220 0
 449 002e 0022     		movs	r2, #0
 450 0030 0E4B     		ldr	r3, .L45+8
 451 0032 1A70     		strb	r2, [r3]
 209:.\FileDecode.c ****     
 452              		.loc 1 209 0
 453 0034 8025     		movs	r5, #128
 454 0036 02E0     		b	.L42
 455              	.L41:
 222:.\FileDecode.c ****             
 456              		.loc 1 222 0
 457 0038 FFF7FEFF 		bl	SPIM_ReadRxData
 458              	.LVL55:
 459 003c 0546     		mov	r5, r0
 460              	.LVL56:
 461              	.L42:
 224:.\FileDecode.c ****         SPIM_WriteTxData(addressMSB);   //Send address (24 bits)
 462              		.loc 1 224 0
 463 003e 0320     		movs	r0, #3
 464 0040 FFF7FEFF 		bl	SPIM_WriteTxData
 465              	.LVL57:
 225:.\FileDecode.c ****         SPIM_WriteTxData(addressCSB);
 466              		.loc 1 225 0
ARM GAS  C:\Users\faithc\AppData\Local\Temp\ccOz6CyW.s 			page 19


 467 0044 3846     		mov	r0, r7
 468 0046 FFF7FEFF 		bl	SPIM_WriteTxData
 469              	.LVL58:
 226:.\FileDecode.c ****         SPIM_WriteTxData(addressLSB);        
 470              		.loc 1 226 0
 471 004a 3046     		mov	r0, r6
 472 004c FFF7FEFF 		bl	SPIM_WriteTxData
 473              	.LVL59:
 227:.\FileDecode.c ****         SPIM_WriteTxData(0x00);         //Send dummy byte (8 bits) to make total of 40 SPI clock cy
 474              		.loc 1 227 0
 475 0050 2046     		mov	r0, r4
 476 0052 FFF7FEFF 		bl	SPIM_WriteTxData
 477              	.LVL60:
 228:.\FileDecode.c ****     }
 478              		.loc 1 228 0
 479 0056 0020     		movs	r0, #0
 480 0058 FFF7FEFF 		bl	SPIM_WriteTxData
 481              	.LVL61:
 482 005c 00E0     		b	.L40
 483              	.LVL62:
 484              	.L43:
 209:.\FileDecode.c ****     
 485              		.loc 1 209 0
 486 005e 8025     		movs	r5, #128
 487              	.LVL63:
 488              	.L40:
 232:.\FileDecode.c **** 
 489              		.loc 1 232 0
 490 0060 2846     		mov	r0, r5
 491 0062 F8BD     		pop	{r3, r4, r5, r6, r7, pc}
 492              	.LVL64:
 493              	.L46:
 494              		.align	2
 495              	.L45:
 496 0064 00000000 		.word	.LANCHOR0
 497 0068 00000000 		.word	.LANCHOR1
 498 006c 00000000 		.word	.LANCHOR2
 499              		.cfi_endproc
 500              	.LFE67:
 501              		.size	getNextWaveData, .-getNextWaveData
 502              		.section	.text.processHeaderData,"ax",%progbits
 503              		.align	2
 504              		.global	processHeaderData
 505              		.thumb
 506              		.thumb_func
 507              		.type	processHeaderData, %function
 508              	processHeaderData:
 509              	.LFB68:
 249:.\FileDecode.c ****     uint32 address = 0;
 510              		.loc 1 249 0
 511              		.cfi_startproc
 512              		@ args = 0, pretend = 0, frame = 0
 513              		@ frame_needed = 0, uses_anonymous_args = 0
 514              	.LVL65:
 515 0000 F8B5     		push	{r3, r4, r5, r6, r7, lr}
 516              		.cfi_def_cfa_offset 24
 517              		.cfi_offset 3, -24
ARM GAS  C:\Users\faithc\AppData\Local\Temp\ccOz6CyW.s 			page 20


 518              		.cfi_offset 4, -20
 519              		.cfi_offset 5, -16
 520              		.cfi_offset 6, -12
 521              		.cfi_offset 7, -8
 522              		.cfi_offset 14, -4
 523              	.LVL66:
 256:.\FileDecode.c ****         return false;
 524              		.loc 1 256 0
 525 0002 A0F10E03 		sub	r3, r0, #14
 526 0006 DBB2     		uxtb	r3, r3
 527 0008 072B     		cmp	r3, #7
 528 000a 00F2B780 		bhi	.L52
 259:.\FileDecode.c ****     address = SONG_START_ADDRESS[currentSong-ECTOSIREN];
 529              		.loc 1 259 0
 530 000e 5E4B     		ldr	r3, .L55
 531 0010 83F82800 		strb	r0, [r3, #40]
 260:.\FileDecode.c ****     
 532              		.loc 1 260 0
 533 0014 0E38     		subs	r0, r0, #14
 534              	.LVL67:
 535 0016 5D4B     		ldr	r3, .L55+4
 536 0018 53F82050 		ldr	r5, [r3, r0, lsl #2]
 537              	.LVL68:
 262:.\FileDecode.c ****     addressCSB = (uint8)((address & 0xFF00) / BYTE_SHIFT_FACTOR);
 538              		.loc 1 262 0
 539 001c C5F30747 		ubfx	r7, r5, #16, #8
 540              	.LVL69:
 263:.\FileDecode.c ****     addressLSB = (uint8)(address & 0x00FF);
 541              		.loc 1 263 0
 542 0020 C5F30726 		ubfx	r6, r5, #8, #8
 543              	.LVL70:
 264:.\FileDecode.c ****     
 544              		.loc 1 264 0
 545 0024 EDB2     		uxtb	r5, r5
 546              	.LVL71:
 266:.\FileDecode.c ****     {
 547              		.loc 1 266 0
 548 0026 0024     		movs	r4, #0
 549 0028 1CE0     		b	.L49
 550              	.LVL72:
 551              	.L51:
 268:.\FileDecode.c ****         SPIM_WriteTxData(addressMSB);
 552              		.loc 1 268 0
 553 002a 0320     		movs	r0, #3
 554 002c FFF7FEFF 		bl	SPIM_WriteTxData
 555              	.LVL73:
 269:.\FileDecode.c ****         SPIM_WriteTxData(addressCSB);           //Send address (24 bits)
 556              		.loc 1 269 0
 557 0030 3846     		mov	r0, r7
 558 0032 FFF7FEFF 		bl	SPIM_WriteTxData
 559              	.LVL74:
 270:.\FileDecode.c ****         SPIM_WriteTxData(addressLSB + index);
 560              		.loc 1 270 0
 561 0036 3046     		mov	r0, r6
 562 0038 FFF7FEFF 		bl	SPIM_WriteTxData
 563              	.LVL75:
 271:.\FileDecode.c ****         
ARM GAS  C:\Users\faithc\AppData\Local\Temp\ccOz6CyW.s 			page 21


 564              		.loc 1 271 0
 565 003c 2819     		adds	r0, r5, r4
 566 003e C0B2     		uxtb	r0, r0
 567 0040 FFF7FEFF 		bl	SPIM_WriteTxData
 568              	.LVL76:
 273:.\FileDecode.c ****         while(!(SPIM_ReadTxStatus() & SPIM_STS_SPI_IDLE)){} //Wait for Chip Select to go high
 569              		.loc 1 273 0
 570 0044 0020     		movs	r0, #0
 571 0046 FFF7FEFF 		bl	SPIM_WriteTxData
 572              	.LVL77:
 573              	.L50:
 274:.\FileDecode.c ****         headerArray[index] = SPIM_ReadRxData(); //Retrieve next header data from the SPI buffer
 574              		.loc 1 274 0 discriminator 1
 575 004a FFF7FEFF 		bl	SPIM_ReadTxStatus
 576              	.LVL78:
 577 004e 10F0100F 		tst	r0, #16
 578 0052 FAD0     		beq	.L50
 275:.\FileDecode.c ****     }
 579              		.loc 1 275 0 discriminator 2
 580 0054 FFF7FEFF 		bl	SPIM_ReadRxData
 581              	.LVL79:
 582 0058 4B4B     		ldr	r3, .L55
 583 005a 2344     		add	r3, r3, r4
 584 005c 83F82C00 		strb	r0, [r3, #44]
 266:.\FileDecode.c ****     {
 585              		.loc 1 266 0 discriminator 2
 586 0060 0134     		adds	r4, r4, #1
 587              	.LVL80:
 588 0062 E4B2     		uxtb	r4, r4
 589              	.LVL81:
 590              	.L49:
 266:.\FileDecode.c ****     {
 591              		.loc 1 266 0 is_stmt 0 discriminator 1
 592 0064 2B2C     		cmp	r4, #43
 593 0066 E0D9     		bls	.L51
 278:.\FileDecode.c ****         return false;
 594              		.loc 1 278 0 is_stmt 1
 595 0068 4749     		ldr	r1, .L55
 596 006a 01F15800 		add	r0, r1, #88
 597 006e 2C31     		adds	r1, r1, #44
 598 0070 474A     		ldr	r2, .L55+8
 599 0072 0423     		movs	r3, #4
 600 0074 FFF7FEFF 		bl	processBigEndianData
 601              	.LVL82:
 602 0078 0346     		mov	r3, r0
 603 007a 0028     		cmp	r0, #0
 604 007c 00F08180 		beq	.L48
 281:.\FileDecode.c **** 		return false;
 605              		.loc 1 281 0
 606 0080 4149     		ldr	r1, .L55
 607 0082 01F15C00 		add	r0, r1, #92
 608 0086 3031     		adds	r1, r1, #48
 609 0088 0022     		movs	r2, #0
 610 008a 0423     		movs	r3, #4
 611 008c FFF7FEFF 		bl	processLittleEndianData
 612              	.LVL83:
 613 0090 0346     		mov	r3, r0
ARM GAS  C:\Users\faithc\AppData\Local\Temp\ccOz6CyW.s 			page 22


 614 0092 0028     		cmp	r0, #0
 615 0094 75D0     		beq	.L48
 284:.\FileDecode.c ****         return false;
 616              		.loc 1 284 0
 617 0096 3C49     		ldr	r1, .L55
 618 0098 01F16000 		add	r0, r1, #96
 619 009c 3431     		adds	r1, r1, #52
 620 009e 3D4A     		ldr	r2, .L55+12
 621 00a0 0423     		movs	r3, #4
 622 00a2 FFF7FEFF 		bl	processBigEndianData
 623              	.LVL84:
 624 00a6 0346     		mov	r3, r0
 625 00a8 0028     		cmp	r0, #0
 626 00aa 6AD0     		beq	.L48
 287:.\FileDecode.c ****         return false;
 627              		.loc 1 287 0
 628 00ac 3649     		ldr	r1, .L55
 629 00ae 0846     		mov	r0, r1
 630 00b0 3831     		adds	r1, r1, #56
 631 00b2 394A     		ldr	r2, .L55+16
 632 00b4 0423     		movs	r3, #4
 633 00b6 FFF7FEFF 		bl	processBigEndianData
 634              	.LVL85:
 635 00ba 0346     		mov	r3, r0
 636 00bc 0028     		cmp	r0, #0
 637 00be 60D0     		beq	.L48
 290:.\FileDecode.c **** 		return false;
 638              		.loc 1 290 0
 639 00c0 3149     		ldr	r1, .L55
 640 00c2 081D     		adds	r0, r1, #4
 641 00c4 3C31     		adds	r1, r1, #60
 642 00c6 1022     		movs	r2, #16
 643 00c8 0423     		movs	r3, #4
 644 00ca FFF7FEFF 		bl	processLittleEndianData
 645              	.LVL86:
 646 00ce 0346     		mov	r3, r0
 647 00d0 0028     		cmp	r0, #0
 648 00d2 56D0     		beq	.L48
 293:.\FileDecode.c **** 		return false;
 649              		.loc 1 293 0
 650 00d4 2C49     		ldr	r1, .L55
 651 00d6 01F10800 		add	r0, r1, #8
 652 00da 4031     		adds	r1, r1, #64
 653 00dc 0122     		movs	r2, #1
 654 00de 0223     		movs	r3, #2
 655 00e0 FFF7FEFF 		bl	processLittleEndianData
 656              	.LVL87:
 657 00e4 0346     		mov	r3, r0
 658 00e6 0028     		cmp	r0, #0
 659 00e8 4BD0     		beq	.L48
 296:.\FileDecode.c **** 		return false;
 660              		.loc 1 296 0
 661 00ea 2749     		ldr	r1, .L55
 662 00ec 01F10C00 		add	r0, r1, #12
 663 00f0 4231     		adds	r1, r1, #66
 664 00f2 0222     		movs	r2, #2
 665 00f4 1346     		mov	r3, r2
ARM GAS  C:\Users\faithc\AppData\Local\Temp\ccOz6CyW.s 			page 23


 666 00f6 FFF7FEFF 		bl	processLittleEndianData
 667              	.LVL88:
 668 00fa 0346     		mov	r3, r0
 669 00fc 0028     		cmp	r0, #0
 670 00fe 40D0     		beq	.L48
 299:.\FileDecode.c **** 		return false;
 671              		.loc 1 299 0
 672 0100 2149     		ldr	r1, .L55
 673 0102 01F11000 		add	r0, r1, #16
 674 0106 4431     		adds	r1, r1, #68
 675 0108 4FF4FA52 		mov	r2, #8000
 676 010c 0423     		movs	r3, #4
 677 010e FFF7FEFF 		bl	processLittleEndianData
 678              	.LVL89:
 679 0112 0346     		mov	r3, r0
 680 0114 A8B3     		cbz	r0, .L48
 302:.\FileDecode.c **** 		return false;
 681              		.loc 1 302 0
 682 0116 1C49     		ldr	r1, .L55
 683 0118 01F11400 		add	r0, r1, #20
 684 011c 4831     		adds	r1, r1, #72
 685 011e 0022     		movs	r2, #0
 686 0120 0423     		movs	r3, #4
 687 0122 FFF7FEFF 		bl	processLittleEndianData
 688              	.LVL90:
 689 0126 0346     		mov	r3, r0
 690 0128 58B3     		cbz	r0, .L48
 305:.\FileDecode.c **** 		return false;
 691              		.loc 1 305 0
 692 012a 1749     		ldr	r1, .L55
 693 012c 01F11800 		add	r0, r1, #24
 694 0130 4C31     		adds	r1, r1, #76
 695 0132 0022     		movs	r2, #0
 696 0134 0223     		movs	r3, #2
 697 0136 FFF7FEFF 		bl	processLittleEndianData
 698              	.LVL91:
 699 013a 0346     		mov	r3, r0
 700 013c 08B3     		cbz	r0, .L48
 308:.\FileDecode.c **** 		return false;
 701              		.loc 1 308 0
 702 013e 1249     		ldr	r1, .L55
 703 0140 01F11C00 		add	r0, r1, #28
 704 0144 4E31     		adds	r1, r1, #78
 705 0146 0022     		movs	r2, #0
 706 0148 0223     		movs	r3, #2
 707 014a FFF7FEFF 		bl	processLittleEndianData
 708              	.LVL92:
 709 014e 0346     		mov	r3, r0
 710 0150 B8B1     		cbz	r0, .L48
 311:.\FileDecode.c ****         return false;
 711              		.loc 1 311 0
 712 0152 0D49     		ldr	r1, .L55
 713 0154 01F12000 		add	r0, r1, #32
 714 0158 5031     		adds	r1, r1, #80
 715 015a 104A     		ldr	r2, .L55+20
 716 015c 0423     		movs	r3, #4
 717 015e FFF7FEFF 		bl	processBigEndianData
ARM GAS  C:\Users\faithc\AppData\Local\Temp\ccOz6CyW.s 			page 24


 718              	.LVL93:
 719 0162 0346     		mov	r3, r0
 720 0164 68B1     		cbz	r0, .L48
 314:.\FileDecode.c **** 		return false;
 721              		.loc 1 314 0
 722 0166 0849     		ldr	r1, .L55
 723 0168 01F12400 		add	r0, r1, #36
 724 016c 5431     		adds	r1, r1, #84
 725 016e 0022     		movs	r2, #0
 726 0170 0423     		movs	r3, #4
 727 0172 FFF7FEFF 		bl	processLittleEndianData
 728              	.LVL94:
 729 0176 0346     		mov	r3, r0
 730 0178 10B9     		cbnz	r0, .L53
 731 017a 02E0     		b	.L48
 732              	.LVL95:
 733              	.L52:
 257:.\FileDecode.c ****     
 734              		.loc 1 257 0
 735 017c 0023     		movs	r3, #0
 736 017e 00E0     		b	.L48
 737              	.LVL96:
 738              	.L53:
 317:.\FileDecode.c **** }
 739              		.loc 1 317 0
 740 0180 0123     		movs	r3, #1
 741              	.LVL97:
 742              	.L48:
 318:.\FileDecode.c **** 
 743              		.loc 1 318 0
 744 0182 1846     		mov	r0, r3
 745 0184 F8BD     		pop	{r3, r4, r5, r6, r7, pc}
 746              	.L56:
 747 0186 00BF     		.align	2
 748              	.L55:
 749 0188 00000000 		.word	.LANCHOR0
 750 018c 00000000 		.word	.LANCHOR1
 751 0190 00000000 		.word	.LC0
 752 0194 08000000 		.word	.LC1
 753 0198 10000000 		.word	.LC2
 754 019c 18000000 		.word	.LC3
 755              		.cfi_endproc
 756              	.LFE68:
 757              		.size	processHeaderData, .-processHeaderData
 758              		.section	.rodata
 759              		.align	2
 760              		.set	.LANCHOR1,. + 0
 761              		.type	SONG_START_ADDRESS, %object
 762              		.size	SONG_START_ADDRESS, 36
 763              	SONG_START_ADDRESS:
 764 0000 00000000 		.word	0
 765 0004 D0FB1D00 		.word	1965008
 766 0008 40B33800 		.word	3715904
 767 000c 70EA3800 		.word	3730032
 768 0010 D0113900 		.word	3740112
 769 0014 30543900 		.word	3757104
 770 0018 B0BA3900 		.word	3783344
ARM GAS  C:\Users\faithc\AppData\Local\Temp\ccOz6CyW.s 			page 25


 771 001c C0FA3900 		.word	3799744
 772 0020 80613A00 		.word	3826048
 773              		.data
 774              		.set	.LANCHOR2,. + 0
 775              		.type	bFirstTime.7242, %object
 776              		.size	bFirstTime.7242, 1
 777              	bFirstTime.7242:
 778 0000 01       		.byte	1
 779              		.section	.rodata.str1.4,"aMS",%progbits,1
 780              		.align	2
 781              	.LC0:
 782 0000 52494646 		.ascii	"RIFF\000"
 782      00
 783 0005 000000   		.space	3
 784              	.LC1:
 785 0008 57415645 		.ascii	"WAVE\000"
 785      00
 786 000d 000000   		.space	3
 787              	.LC2:
 788 0010 666D7420 		.ascii	"fmt \000"
 788      00
 789 0015 000000   		.space	3
 790              	.LC3:
 791 0018 64617461 		.ascii	"data\000"
 791      00
 792 001d 000000   		.bss
 793              		.align	2
 794              		.set	.LANCHOR0,. + 0
 795              		.type	FirstSubChunk, %object
 796              		.size	FirstSubChunk, 32
 797              	FirstSubChunk:
 798 0000 00000000 		.space	32
 798      00000000 
 798      00000000 
 798      00000000 
 798      00000000 
 799              		.type	SecondSubChunk, %object
 800              		.size	SecondSubChunk, 8
 801              	SecondSubChunk:
 802 0020 00000000 		.space	8
 802      00000000 
 803              		.type	currentSong, %object
 804              		.size	currentSong, 1
 805              	currentSong:
 806 0028 00       		.space	1
 807 0029 000000   		.space	3
 808              		.type	headerArray, %object
 809              		.size	headerArray, 44
 810              	headerArray:
 811 002c 00000000 		.space	44
 811      00000000 
 811      00000000 
 811      00000000 
 811      00000000 
 812              		.type	WaveChunk, %object
 813              		.size	WaveChunk, 12
 814              	WaveChunk:
ARM GAS  C:\Users\faithc\AppData\Local\Temp\ccOz6CyW.s 			page 26


 815 0058 00000000 		.space	12
 815      00000000 
 815      00000000 
 816              		.text
 817              	.Letext0:
 818              		.file 2 "c:\\program files (x86)\\cypress\\psoc creator\\3.3\\psoc creator\\import\\gnu\\arm\\4.9.
 819              		.file 3 "c:\\program files (x86)\\cypress\\psoc creator\\3.3\\psoc creator\\import\\gnu\\arm\\4.9.
 820              		.file 4 "Generated_Source\\PSoC5/cytypes.h"
 821              		.file 5 ".\\CommonVariables.h"
 822              		.file 6 "Generated_Source\\PSoC5/SPIM.h"
 823              		.file 7 "Generated_Source\\PSoC5/core_cm3.h"
 824              		.file 8 "c:\\program files (x86)\\cypress\\psoc creator\\3.3\\psoc creator\\import\\gnu\\arm\\4.9.