ARM GAS  C:\Users\faithc\AppData\Local\Temp\ccoCzp3s.s 			page 1


   1              		.syntax unified
   2              		.cpu cortex-m3
   3              		.fpu softvfp
   4              		.eabi_attribute 20, 1
   5              		.eabi_attribute 21, 1
   6              		.eabi_attribute 23, 3
   7              		.eabi_attribute 24, 1
   8              		.eabi_attribute 25, 1
   9              		.eabi_attribute 26, 1
  10              		.eabi_attribute 30, 1
  11              		.eabi_attribute 34, 1
  12              		.eabi_attribute 18, 4
  13              		.thumb
  14              		.file	"main.c"
  15              		.text
  16              	.Ltext0:
  17              		.cfi_sections	.debug_frame
  18              		.section	.text.initializePeripherals,"ax",%progbits
  19              		.align	2
  20              		.thumb
  21              		.thumb_func
  22              		.type	initializePeripherals, %function
  23              	initializePeripherals:
  24              	.LFB64:
  25              		.file 1 ".\\main.c"
   1:.\main.c      **** /* ========================================
   2:.\main.c      ****  *
   3:.\main.c      ****  * Copyright YOUR COMPANY, THE YEAR
   4:.\main.c      ****  * All Rights Reserved
   5:.\main.c      ****  * UNPUBLISHED, LICENSED SOFTWARE.
   6:.\main.c      ****  *
   7:.\main.c      ****  * CONFIDENTIAL AND PROPRIETARY INFORMATION
   8:.\main.c      ****  * WHICH IS THE PROPERTY OF your company.
   9:.\main.c      ****  *
  10:.\main.c      ****  * ========================================
  11:.\main.c      **** */
  12:.\main.c      **** /**********PREPROCESSOR DIRECTIVES**********/
  13:.\main.c      **** #include "CommonVariables.h"
  14:.\main.c      **** #include "Fault.h"
  15:.\main.c      **** #include "SirenState.h"
  16:.\main.c      **** 
  17:.\main.c      **** /**********DEFINED CONSTANTS**********/
  18:.\main.c      **** 
  19:.\main.c      **** /**********DATA STRUCTURES**********/
  20:.\main.c      **** 
  21:.\main.c      **** /**********GLOBAL VARIABLES**********/
  22:.\main.c      **** 
  23:.\main.c      **** /**********FUNCTION PROTOTYPES**********/
  24:.\main.c      **** static void initializePeripherals(void);
  25:.\main.c      **** 
  26:.\main.c      **** /**********DEFINED FUNCTIONS**********/
  27:.\main.c      **** 
  28:.\main.c      **** int main()
  29:.\main.c      **** {
  30:.\main.c      ****     initializePeripherals();
  31:.\main.c      ****     CyGlobalIntEnable; /* Enable global interrupts. */
  32:.\main.c      **** 
ARM GAS  C:\Users\faithc\AppData\Local\Temp\ccoCzp3s.s 			page 2


  33:.\main.c      ****     initializeInputReadings();
  34:.\main.c      ****     
  35:.\main.c      ****     for(;;)
  36:.\main.c      ****     {       
  37:.\main.c      ****         while(!isThereOverload())
  38:.\main.c      ****         {   //No overload, so allow any ISRs to process
  39:.\main.c      ****             CyWdtClear();
  40:.\main.c      ****             CyDelay(1);
  41:.\main.c      ****         }
  42:.\main.c      ****         processOverloadRoutine();
  43:.\main.c      ****     }
  44:.\main.c      **** }
  45:.\main.c      **** 
  46:.\main.c      **** /*******************************************************************************
  47:.\main.c      **** * Function Name: initializePeripherals
  48:.\main.c      **** ********************************************************************************
  49:.\main.c      **** *
  50:.\main.c      **** * Summary:
  51:.\main.c      **** *  Sets up the watchdog timer, disables, power amplifiers, and enables all ISRs
  52:.\main.c      **** *
  53:.\main.c      **** * Parameters:  
  54:.\main.c      **** *   None
  55:.\main.c      **** *
  56:.\main.c      **** * Return:
  57:.\main.c      **** *   None
  58:.\main.c      **** *
  59:.\main.c      **** *******************************************************************************/
  60:.\main.c      **** static void initializePeripherals(void)
  61:.\main.c      **** {
  26              		.loc 1 61 0
  27              		.cfi_startproc
  28              		@ args = 0, pretend = 0, frame = 0
  29              		@ frame_needed = 0, uses_anonymous_args = 0
  30 0000 08B5     		push	{r3, lr}
  31              		.cfi_def_cfa_offset 8
  32              		.cfi_offset 3, -8
  33              		.cfi_offset 14, -4
  62:.\main.c      ****     CyWdtStart(CYWDT_1024_TICKS, CYWDT_LPMODE_NOCHANGE);    //2.048 - 3.072 seconds
  34              		.loc 1 62 0
  35 0002 0320     		movs	r0, #3
  36 0004 0021     		movs	r1, #0
  37 0006 FFF7FEFF 		bl	CyWdtStart
  38              	.LVL0:
  63:.\main.c      ****     PowerAmpOutput1_Write(false);
  39              		.loc 1 63 0
  40 000a 0020     		movs	r0, #0
  41 000c FFF7FEFF 		bl	PowerAmpOutput1_Write
  42              	.LVL1:
  64:.\main.c      ****     PowerAmpOutput2_Write(false);
  43              		.loc 1 64 0
  44 0010 0020     		movs	r0, #0
  45 0012 FFF7FEFF 		bl	PowerAmpOutput2_Write
  46              	.LVL2:
  65:.\main.c      ****     
  66:.\main.c      ****     LED_ISR_Start();    //Start LED heartbeat
  47              		.loc 1 66 0
  48 0016 FFF7FEFF 		bl	LED_ISR_Start
ARM GAS  C:\Users\faithc\AppData\Local\Temp\ccoCzp3s.s 			page 3


  49              	.LVL3:
  67:.\main.c      ****     LED_Timer_Start();
  50              		.loc 1 67 0
  51 001a FFF7FEFF 		bl	LED_Timer_Start
  52              	.LVL4:
  53              	.L2:
  68:.\main.c      ****     
  69:.\main.c      ****     while(!OverloadInput1_Read() || !OverloadInput2_Read()){};  //Used to catch first overload
  54              		.loc 1 69 0 discriminator 3
  55 001e FFF7FEFF 		bl	OverloadInput1_Read
  56              	.LVL5:
  57 0022 0028     		cmp	r0, #0
  58 0024 FBD0     		beq	.L2
  59              		.loc 1 69 0 is_stmt 0 discriminator 2
  60 0026 FFF7FEFF 		bl	OverloadInput2_Read
  61              	.LVL6:
  62 002a 0028     		cmp	r0, #0
  63 002c F7D0     		beq	.L2
  70:.\main.c      ****     initializeToneConfigurationList();                          //Gets tones from EEPROM
  64              		.loc 1 70 0 is_stmt 1
  65 002e FFF7FEFF 		bl	initializeToneConfigurationList
  66              	.LVL7:
  71:.\main.c      ****     CyDelay(250); //Delay needed to eliminate power amp starting prematurely
  67              		.loc 1 71 0
  68 0032 FA20     		movs	r0, #250
  69 0034 FFF7FEFF 		bl	CyDelay
  70              	.LVL8:
  72:.\main.c      ****     
  73:.\main.c      ****     AMux1_Start();              //Initialize both multiplexers
  71              		.loc 1 73 0
  72 0038 FFF7FEFF 		bl	AMux1_Start
  73              	.LVL9:
  74:.\main.c      ****     AMux1_FastSelect(PWM_MODE);
  74              		.loc 1 74 0
  75 003c 0020     		movs	r0, #0
  76 003e FFF7FEFF 		bl	AMux1_FastSelect
  77              	.LVL10:
  75:.\main.c      ****     AMux2_Start();
  78              		.loc 1 75 0
  79 0042 FFF7FEFF 		bl	AMux2_Start
  80              	.LVL11:
  76:.\main.c      ****     AMux2_FastSelect(PWM_MODE);
  81              		.loc 1 76 0
  82 0046 0020     		movs	r0, #0
  83 0048 FFF7FEFF 		bl	AMux2_FastSelect
  84              	.LVL12:
  77:.\main.c      ****     
  78:.\main.c      ****     PWM1_ISR_Start();       //Initialize interrupts for PWM tones
  85              		.loc 1 78 0
  86 004c FFF7FEFF 		bl	PWM1_ISR_Start
  87              	.LVL13:
  79:.\main.c      ****     PWM2_ISR_Start();
  88              		.loc 1 79 0
  89 0050 FFF7FEFF 		bl	PWM2_ISR_Start
  90              	.LVL14:
  80:.\main.c      ****     PWMtimer1_ISR_Start();  
  91              		.loc 1 80 0
ARM GAS  C:\Users\faithc\AppData\Local\Temp\ccoCzp3s.s 			page 4


  92 0054 FFF7FEFF 		bl	PWMtimer1_ISR_Start
  93              	.LVL15:
  81:.\main.c      ****     PWMtimer2_ISR_Start();
  94              		.loc 1 81 0
  95 0058 FFF7FEFF 		bl	PWMtimer2_ISR_Start
  96              	.LVL16:
  82:.\main.c      ****     
  83:.\main.c      ****     SPIM_Start();           //Initialize interrupts for DAC tones
  97              		.loc 1 83 0
  98 005c FFF7FEFF 		bl	SPIM_Start
  99              	.LVL17:
  84:.\main.c      ****     DAC1_ISR_Start();
 100              		.loc 1 84 0
 101 0060 FFF7FEFF 		bl	DAC1_ISR_Start
 102              	.LVL18:
  85:.\main.c      ****     
  86:.\main.c      ****     UART_TimerISR_Start();
 103              		.loc 1 86 0
 104 0064 FFF7FEFF 		bl	UART_TimerISR_Start
 105              	.LVL19:
  87:.\main.c      ****     UART_ISR_Start();
 106              		.loc 1 87 0
 107 0068 FFF7FEFF 		bl	UART_ISR_Start
 108              	.LVL20:
  88:.\main.c      ****     UART_Start();
 109              		.loc 1 88 0
 110 006c FFF7FEFF 		bl	UART_Start
 111              	.LVL21:
  89:.\main.c      ****     
  90:.\main.c      ****     OverloadISR_Start();     
 112              		.loc 1 90 0
 113 0070 FFF7FEFF 		bl	OverloadISR_Start
 114              	.LVL22:
  91:.\main.c      ****     RadioMicKeyISR_Start();
 115              		.loc 1 91 0
 116 0074 FFF7FEFF 		bl	RadioMicKeyISR_Start
 117              	.LVL23:
  92:.\main.c      ****     
  93:.\main.c      ****     ParkKillISR_Start();   //Initialize interrupts for all inputs
 118              		.loc 1 93 0
 119 0078 FFF7FEFF 		bl	ParkKillISR_Start
 120              	.LVL24:
  94:.\main.c      ****     ParkKillStatus_InterruptEnable();
 121              		.loc 1 94 0
 122 007c FFF7FEFF 		bl	ParkKillStatus_InterruptEnable
 123              	.LVL25:
  95:.\main.c      ****     
  96:.\main.c      ****     HornRingISR_Start();
 124              		.loc 1 96 0
 125 0080 FFF7FEFF 		bl	HornRingISR_Start
 126              	.LVL26:
  97:.\main.c      ****     HornRingStatus_InterruptEnable();
 127              		.loc 1 97 0
 128 0084 FFF7FEFF 		bl	HornRingStatus_InterruptEnable
 129              	.LVL27:
  98:.\main.c      ****     
  99:.\main.c      ****     enableToneInputInterrupts();
ARM GAS  C:\Users\faithc\AppData\Local\Temp\ccoCzp3s.s 			page 5


 130              		.loc 1 99 0
 131 0088 FFF7FEFF 		bl	enableToneInputInterrupts
 132              	.LVL28:
 133 008c 08BD     		pop	{r3, pc}
 134              		.cfi_endproc
 135              	.LFE64:
 136              		.size	initializePeripherals, .-initializePeripherals
 137 008e 00BF     		.section	.text.main,"ax",%progbits
 138              		.align	2
 139              		.global	main
 140              		.thumb
 141              		.thumb_func
 142              		.type	main, %function
 143              	main:
 144              	.LFB63:
  29:.\main.c      ****     initializePeripherals();
 145              		.loc 1 29 0
 146              		.cfi_startproc
 147              		@ Volatile: function does not return.
 148              		@ args = 0, pretend = 0, frame = 0
 149              		@ frame_needed = 0, uses_anonymous_args = 0
 150 0000 08B5     		push	{r3, lr}
 151              		.cfi_def_cfa_offset 8
 152              		.cfi_offset 3, -8
 153              		.cfi_offset 14, -4
  30:.\main.c      ****     CyGlobalIntEnable; /* Enable global interrupts. */
 154              		.loc 1 30 0
 155 0002 FFF7FEFF 		bl	initializePeripherals
 156              	.LVL29:
  31:.\main.c      **** 
 157              		.loc 1 31 0
 158              	@ 31 ".\main.c" 1
 159 0006 62B6     		CPSIE   i
 160              	@ 0 "" 2
  33:.\main.c      ****     
 161              		.loc 1 33 0
 162              		.thumb
 163 0008 FFF7FEFF 		bl	initializeInputReadings
 164              	.LVL30:
 165 000c 04E0     		b	.L6
 166              	.L7:
  39:.\main.c      ****             CyDelay(1);
 167              		.loc 1 39 0
 168 000e FFF7FEFF 		bl	CyWdtClear
 169              	.LVL31:
  40:.\main.c      ****         }
 170              		.loc 1 40 0
 171 0012 0120     		movs	r0, #1
 172 0014 FFF7FEFF 		bl	CyDelay
 173              	.LVL32:
 174              	.L6:
  37:.\main.c      ****         {   //No overload, so allow any ISRs to process
 175              		.loc 1 37 0
 176 0018 FFF7FEFF 		bl	isThereOverload
 177              	.LVL33:
 178 001c 0028     		cmp	r0, #0
 179 001e F6D0     		beq	.L7
ARM GAS  C:\Users\faithc\AppData\Local\Temp\ccoCzp3s.s 			page 6


  42:.\main.c      ****     }
 180              		.loc 1 42 0
 181 0020 FFF7FEFF 		bl	processOverloadRoutine
 182              	.LVL34:
  43:.\main.c      **** }
 183              		.loc 1 43 0
 184 0024 F8E7     		b	.L6
 185              		.cfi_endproc
 186              	.LFE63:
 187              		.size	main, .-main
 188 0026 00BF     		.text
 189              	.Letext0:
 190              		.file 2 "c:\\program files (x86)\\cypress\\psoc creator\\3.3\\psoc creator\\import\\gnu\\arm\\4.9.
 191              		.file 3 "c:\\program files (x86)\\cypress\\psoc creator\\3.3\\psoc creator\\import\\gnu\\arm\\4.9.
 192              		.file 4 "Generated_Source\\PSoC5/cytypes.h"
 193              		.file 5 "Generated_Source\\PSoC5/CyLib.h"
 194              		.file 6 "Generated_Source\\PSoC5/PowerAmpOutput1.h"
 195              		.file 7 "Generated_Source\\PSoC5/PowerAmpOutput2.h"
 196              		.file 8 "Generated_Source\\PSoC5/LED_ISR.h"
 197              		.file 9 "Generated_Source\\PSoC5/LED_Timer.h"
 198              		.file 10 "Generated_Source\\PSoC5/OverloadInput1.h"
 199              		.file 11 "Generated_Source\\PSoC5/OverloadInput2.h"
 200              		.file 12 ".\\SirenState.h"
 201              		.file 13 "Generated_Source\\PSoC5/AMux1.h"
 202              		.file 14 "Generated_Source\\PSoC5/AMux2.h"
 203              		.file 15 "Generated_Source\\PSoC5/PWM1_ISR.h"
 204              		.file 16 "Generated_Source\\PSoC5/PWM2_ISR.h"
 205              		.file 17 "Generated_Source\\PSoC5/PWMtimer1_ISR.h"
 206              		.file 18 "Generated_Source\\PSoC5/PWMtimer2_ISR.h"
 207              		.file 19 "Generated_Source\\PSoC5/SPIM.h"
 208              		.file 20 "Generated_Source\\PSoC5/DAC1_ISR.h"
 209              		.file 21 "Generated_Source\\PSoC5/UART_TimerISR.h"
 210              		.file 22 "Generated_Source\\PSoC5/UART_ISR.h"
 211              		.file 23 "Generated_Source\\PSoC5/UART.h"
 212              		.file 24 "Generated_Source\\PSoC5/OverloadISR.h"
 213              		.file 25 "Generated_Source\\PSoC5/RadioMicKeyISR.h"
 214              		.file 26 "Generated_Source\\PSoC5/ParkKillISR.h"
 215              		.file 27 "Generated_Source\\PSoC5/ParkKillStatus.h"
 216              		.file 28 "Generated_Source\\PSoC5/HornRingISR.h"
 217              		.file 29 "Generated_Source\\PSoC5/HornRingStatus.h"
 218              		.file 30 ".\\Fault.h"
 219              		.file 31 "Generated_Source\\PSoC5/core_cm3.h"