ARM GAS  C:\Users\faithc\AppData\Local\Temp\ccLnlZ1N.s 			page 1


   1              		.syntax unified
   2              		.cpu cortex-m3
   3              		.fpu softvfp
   4              		.eabi_attribute 20, 1
   5              		.eabi_attribute 21, 1
   6              		.eabi_attribute 23, 3
   7              		.eabi_attribute 24, 1
   8              		.eabi_attribute 25, 1
   9              		.eabi_attribute 26, 1
  10              		.eabi_attribute 30, 1
  11              		.eabi_attribute 34, 1
  12              		.eabi_attribute 18, 4
  13              		.thumb
  14              		.file	"PWMtimer2_ISR.c"
  15              		.text
  16              	.Ltext0:
  17              		.cfi_sections	.debug_frame
  18              		.section	.text.PWMtimer2_ISR_Interrupt,"ax",%progbits
  19              		.align	2
  20              		.global	PWMtimer2_ISR_Interrupt
  21              		.thumb
  22              		.thumb_func
  23              		.type	PWMtimer2_ISR_Interrupt, %function
  24              	PWMtimer2_ISR_Interrupt:
  25              	.LFB66:
  26              		.file 1 ".\\Generated_Source\\PSoC5\\PWMtimer2_ISR.c"
   1:.\Generated_Source\PSoC5/PWMtimer2_ISR.c **** /*******************************************************************************
   2:.\Generated_Source\PSoC5/PWMtimer2_ISR.c **** * File Name: PWMtimer2_ISR.c  
   3:.\Generated_Source\PSoC5/PWMtimer2_ISR.c **** * Version 1.70
   4:.\Generated_Source\PSoC5/PWMtimer2_ISR.c **** *
   5:.\Generated_Source\PSoC5/PWMtimer2_ISR.c **** *  Description:
   6:.\Generated_Source\PSoC5/PWMtimer2_ISR.c **** *   API for controlling the state of an interrupt.
   7:.\Generated_Source\PSoC5/PWMtimer2_ISR.c **** *
   8:.\Generated_Source\PSoC5/PWMtimer2_ISR.c **** *
   9:.\Generated_Source\PSoC5/PWMtimer2_ISR.c **** *  Note:
  10:.\Generated_Source\PSoC5/PWMtimer2_ISR.c **** *
  11:.\Generated_Source\PSoC5/PWMtimer2_ISR.c **** ********************************************************************************
  12:.\Generated_Source\PSoC5/PWMtimer2_ISR.c **** * Copyright 2008-2015, Cypress Semiconductor Corporation.  All rights reserved.
  13:.\Generated_Source\PSoC5/PWMtimer2_ISR.c **** * You may use this file only in accordance with the license, terms, conditions, 
  14:.\Generated_Source\PSoC5/PWMtimer2_ISR.c **** * disclaimers, and limitations in the end user license agreement accompanying 
  15:.\Generated_Source\PSoC5/PWMtimer2_ISR.c **** * the software package with which this file was provided.
  16:.\Generated_Source\PSoC5/PWMtimer2_ISR.c **** *******************************************************************************/
  17:.\Generated_Source\PSoC5/PWMtimer2_ISR.c **** 
  18:.\Generated_Source\PSoC5/PWMtimer2_ISR.c **** 
  19:.\Generated_Source\PSoC5/PWMtimer2_ISR.c **** #include <cydevice_trm.h>
  20:.\Generated_Source\PSoC5/PWMtimer2_ISR.c **** #include <CyLib.h>
  21:.\Generated_Source\PSoC5/PWMtimer2_ISR.c **** #include <PWMtimer2_ISR.h>
  22:.\Generated_Source\PSoC5/PWMtimer2_ISR.c **** #include "cyapicallbacks.h"
  23:.\Generated_Source\PSoC5/PWMtimer2_ISR.c **** 
  24:.\Generated_Source\PSoC5/PWMtimer2_ISR.c **** #if !defined(PWMtimer2_ISR__REMOVED) /* Check for removal by optimization */
  25:.\Generated_Source\PSoC5/PWMtimer2_ISR.c **** 
  26:.\Generated_Source\PSoC5/PWMtimer2_ISR.c **** /*******************************************************************************
  27:.\Generated_Source\PSoC5/PWMtimer2_ISR.c **** *  Place your includes, defines and code here 
  28:.\Generated_Source\PSoC5/PWMtimer2_ISR.c **** ********************************************************************************/
  29:.\Generated_Source\PSoC5/PWMtimer2_ISR.c **** /* `#START PWMtimer2_ISR_intc` */
  30:.\Generated_Source\PSoC5/PWMtimer2_ISR.c **** #include <stdbool.h>
  31:.\Generated_Source\PSoC5/PWMtimer2_ISR.c **** #include "Tones.h"
ARM GAS  C:\Users\faithc\AppData\Local\Temp\ccLnlZ1N.s 			page 2


  32:.\Generated_Source\PSoC5/PWMtimer2_ISR.c **** /* `#END` */
  33:.\Generated_Source\PSoC5/PWMtimer2_ISR.c **** 
  34:.\Generated_Source\PSoC5/PWMtimer2_ISR.c **** #ifndef CYINT_IRQ_BASE
  35:.\Generated_Source\PSoC5/PWMtimer2_ISR.c **** #define CYINT_IRQ_BASE      16
  36:.\Generated_Source\PSoC5/PWMtimer2_ISR.c **** #endif /* CYINT_IRQ_BASE */
  37:.\Generated_Source\PSoC5/PWMtimer2_ISR.c **** #ifndef CYINT_VECT_TABLE
  38:.\Generated_Source\PSoC5/PWMtimer2_ISR.c **** #define CYINT_VECT_TABLE    ((cyisraddress **) CYREG_NVIC_VECT_OFFSET)
  39:.\Generated_Source\PSoC5/PWMtimer2_ISR.c **** #endif /* CYINT_VECT_TABLE */
  40:.\Generated_Source\PSoC5/PWMtimer2_ISR.c **** 
  41:.\Generated_Source\PSoC5/PWMtimer2_ISR.c **** /* Declared in startup, used to set unused interrupts to. */
  42:.\Generated_Source\PSoC5/PWMtimer2_ISR.c **** CY_ISR_PROTO(IntDefaultHandler);
  43:.\Generated_Source\PSoC5/PWMtimer2_ISR.c **** 
  44:.\Generated_Source\PSoC5/PWMtimer2_ISR.c **** 
  45:.\Generated_Source\PSoC5/PWMtimer2_ISR.c **** /*******************************************************************************
  46:.\Generated_Source\PSoC5/PWMtimer2_ISR.c **** * Function Name: PWMtimer2_ISR_Start
  47:.\Generated_Source\PSoC5/PWMtimer2_ISR.c **** ********************************************************************************
  48:.\Generated_Source\PSoC5/PWMtimer2_ISR.c **** *
  49:.\Generated_Source\PSoC5/PWMtimer2_ISR.c **** * Summary:
  50:.\Generated_Source\PSoC5/PWMtimer2_ISR.c **** *  Set up the interrupt and enable it. This function disables the interrupt, 
  51:.\Generated_Source\PSoC5/PWMtimer2_ISR.c **** *  sets the default interrupt vector, sets the priority from the value in the
  52:.\Generated_Source\PSoC5/PWMtimer2_ISR.c **** *  Design Wide Resources Interrupt Editor, then enables the interrupt to the 
  53:.\Generated_Source\PSoC5/PWMtimer2_ISR.c **** *  interrupt controller.
  54:.\Generated_Source\PSoC5/PWMtimer2_ISR.c **** *
  55:.\Generated_Source\PSoC5/PWMtimer2_ISR.c **** * Parameters:  
  56:.\Generated_Source\PSoC5/PWMtimer2_ISR.c **** *   None
  57:.\Generated_Source\PSoC5/PWMtimer2_ISR.c **** *
  58:.\Generated_Source\PSoC5/PWMtimer2_ISR.c **** * Return:
  59:.\Generated_Source\PSoC5/PWMtimer2_ISR.c **** *   None
  60:.\Generated_Source\PSoC5/PWMtimer2_ISR.c **** *
  61:.\Generated_Source\PSoC5/PWMtimer2_ISR.c **** *******************************************************************************/
  62:.\Generated_Source\PSoC5/PWMtimer2_ISR.c **** void PWMtimer2_ISR_Start(void)
  63:.\Generated_Source\PSoC5/PWMtimer2_ISR.c **** {
  64:.\Generated_Source\PSoC5/PWMtimer2_ISR.c ****     /* For all we know the interrupt is active. */
  65:.\Generated_Source\PSoC5/PWMtimer2_ISR.c ****     PWMtimer2_ISR_Disable();
  66:.\Generated_Source\PSoC5/PWMtimer2_ISR.c **** 
  67:.\Generated_Source\PSoC5/PWMtimer2_ISR.c ****     /* Set the ISR to point to the PWMtimer2_ISR Interrupt. */
  68:.\Generated_Source\PSoC5/PWMtimer2_ISR.c ****     PWMtimer2_ISR_SetVector(&PWMtimer2_ISR_Interrupt);
  69:.\Generated_Source\PSoC5/PWMtimer2_ISR.c **** 
  70:.\Generated_Source\PSoC5/PWMtimer2_ISR.c ****     /* Set the priority. */
  71:.\Generated_Source\PSoC5/PWMtimer2_ISR.c ****     PWMtimer2_ISR_SetPriority((uint8)PWMtimer2_ISR_INTC_PRIOR_NUMBER);
  72:.\Generated_Source\PSoC5/PWMtimer2_ISR.c **** 
  73:.\Generated_Source\PSoC5/PWMtimer2_ISR.c ****     /* Enable it. */
  74:.\Generated_Source\PSoC5/PWMtimer2_ISR.c ****     PWMtimer2_ISR_Enable();
  75:.\Generated_Source\PSoC5/PWMtimer2_ISR.c **** }
  76:.\Generated_Source\PSoC5/PWMtimer2_ISR.c **** 
  77:.\Generated_Source\PSoC5/PWMtimer2_ISR.c **** 
  78:.\Generated_Source\PSoC5/PWMtimer2_ISR.c **** /*******************************************************************************
  79:.\Generated_Source\PSoC5/PWMtimer2_ISR.c **** * Function Name: PWMtimer2_ISR_StartEx
  80:.\Generated_Source\PSoC5/PWMtimer2_ISR.c **** ********************************************************************************
  81:.\Generated_Source\PSoC5/PWMtimer2_ISR.c **** *
  82:.\Generated_Source\PSoC5/PWMtimer2_ISR.c **** * Summary:
  83:.\Generated_Source\PSoC5/PWMtimer2_ISR.c **** *  Sets up the interrupt and enables it. This function disables the interrupt,
  84:.\Generated_Source\PSoC5/PWMtimer2_ISR.c **** *  sets the interrupt vector based on the address passed in, sets the priority 
  85:.\Generated_Source\PSoC5/PWMtimer2_ISR.c **** *  from the value in the Design Wide Resources Interrupt Editor, then enables 
  86:.\Generated_Source\PSoC5/PWMtimer2_ISR.c **** *  the interrupt to the interrupt controller.
  87:.\Generated_Source\PSoC5/PWMtimer2_ISR.c **** *  
  88:.\Generated_Source\PSoC5/PWMtimer2_ISR.c **** *  When defining ISR functions, the CY_ISR and CY_ISR_PROTO macros should be 
ARM GAS  C:\Users\faithc\AppData\Local\Temp\ccLnlZ1N.s 			page 3


  89:.\Generated_Source\PSoC5/PWMtimer2_ISR.c **** *  used to provide consistent definition across compilers:
  90:.\Generated_Source\PSoC5/PWMtimer2_ISR.c **** *  
  91:.\Generated_Source\PSoC5/PWMtimer2_ISR.c **** *  Function definition example:
  92:.\Generated_Source\PSoC5/PWMtimer2_ISR.c **** *   CY_ISR(MyISR)
  93:.\Generated_Source\PSoC5/PWMtimer2_ISR.c **** *   {
  94:.\Generated_Source\PSoC5/PWMtimer2_ISR.c **** *   }
  95:.\Generated_Source\PSoC5/PWMtimer2_ISR.c **** *   Function prototype example:
  96:.\Generated_Source\PSoC5/PWMtimer2_ISR.c **** *   CY_ISR_PROTO(MyISR);
  97:.\Generated_Source\PSoC5/PWMtimer2_ISR.c **** *
  98:.\Generated_Source\PSoC5/PWMtimer2_ISR.c **** * Parameters:  
  99:.\Generated_Source\PSoC5/PWMtimer2_ISR.c **** *   address: Address of the ISR to set in the interrupt vector table.
 100:.\Generated_Source\PSoC5/PWMtimer2_ISR.c **** *
 101:.\Generated_Source\PSoC5/PWMtimer2_ISR.c **** * Return:
 102:.\Generated_Source\PSoC5/PWMtimer2_ISR.c **** *   None
 103:.\Generated_Source\PSoC5/PWMtimer2_ISR.c **** *
 104:.\Generated_Source\PSoC5/PWMtimer2_ISR.c **** *******************************************************************************/
 105:.\Generated_Source\PSoC5/PWMtimer2_ISR.c **** void PWMtimer2_ISR_StartEx(cyisraddress address)
 106:.\Generated_Source\PSoC5/PWMtimer2_ISR.c **** {
 107:.\Generated_Source\PSoC5/PWMtimer2_ISR.c ****     /* For all we know the interrupt is active. */
 108:.\Generated_Source\PSoC5/PWMtimer2_ISR.c ****     PWMtimer2_ISR_Disable();
 109:.\Generated_Source\PSoC5/PWMtimer2_ISR.c **** 
 110:.\Generated_Source\PSoC5/PWMtimer2_ISR.c ****     /* Set the ISR to point to the PWMtimer2_ISR Interrupt. */
 111:.\Generated_Source\PSoC5/PWMtimer2_ISR.c ****     PWMtimer2_ISR_SetVector(address);
 112:.\Generated_Source\PSoC5/PWMtimer2_ISR.c **** 
 113:.\Generated_Source\PSoC5/PWMtimer2_ISR.c ****     /* Set the priority. */
 114:.\Generated_Source\PSoC5/PWMtimer2_ISR.c ****     PWMtimer2_ISR_SetPriority((uint8)PWMtimer2_ISR_INTC_PRIOR_NUMBER);
 115:.\Generated_Source\PSoC5/PWMtimer2_ISR.c **** 
 116:.\Generated_Source\PSoC5/PWMtimer2_ISR.c ****     /* Enable it. */
 117:.\Generated_Source\PSoC5/PWMtimer2_ISR.c ****     PWMtimer2_ISR_Enable();
 118:.\Generated_Source\PSoC5/PWMtimer2_ISR.c **** }
 119:.\Generated_Source\PSoC5/PWMtimer2_ISR.c **** 
 120:.\Generated_Source\PSoC5/PWMtimer2_ISR.c **** 
 121:.\Generated_Source\PSoC5/PWMtimer2_ISR.c **** /*******************************************************************************
 122:.\Generated_Source\PSoC5/PWMtimer2_ISR.c **** * Function Name: PWMtimer2_ISR_Stop
 123:.\Generated_Source\PSoC5/PWMtimer2_ISR.c **** ********************************************************************************
 124:.\Generated_Source\PSoC5/PWMtimer2_ISR.c **** *
 125:.\Generated_Source\PSoC5/PWMtimer2_ISR.c **** * Summary:
 126:.\Generated_Source\PSoC5/PWMtimer2_ISR.c **** *   Disables and removes the interrupt.
 127:.\Generated_Source\PSoC5/PWMtimer2_ISR.c **** *
 128:.\Generated_Source\PSoC5/PWMtimer2_ISR.c **** * Parameters:  
 129:.\Generated_Source\PSoC5/PWMtimer2_ISR.c **** *   None
 130:.\Generated_Source\PSoC5/PWMtimer2_ISR.c **** *
 131:.\Generated_Source\PSoC5/PWMtimer2_ISR.c **** * Return:
 132:.\Generated_Source\PSoC5/PWMtimer2_ISR.c **** *   None
 133:.\Generated_Source\PSoC5/PWMtimer2_ISR.c **** *
 134:.\Generated_Source\PSoC5/PWMtimer2_ISR.c **** *******************************************************************************/
 135:.\Generated_Source\PSoC5/PWMtimer2_ISR.c **** void PWMtimer2_ISR_Stop(void)
 136:.\Generated_Source\PSoC5/PWMtimer2_ISR.c **** {
 137:.\Generated_Source\PSoC5/PWMtimer2_ISR.c ****     /* Disable this interrupt. */
 138:.\Generated_Source\PSoC5/PWMtimer2_ISR.c ****     PWMtimer2_ISR_Disable();
 139:.\Generated_Source\PSoC5/PWMtimer2_ISR.c **** 
 140:.\Generated_Source\PSoC5/PWMtimer2_ISR.c ****     /* Set the ISR to point to the passive one. */
 141:.\Generated_Source\PSoC5/PWMtimer2_ISR.c ****     PWMtimer2_ISR_SetVector(&IntDefaultHandler);
 142:.\Generated_Source\PSoC5/PWMtimer2_ISR.c **** }
 143:.\Generated_Source\PSoC5/PWMtimer2_ISR.c **** 
 144:.\Generated_Source\PSoC5/PWMtimer2_ISR.c **** 
 145:.\Generated_Source\PSoC5/PWMtimer2_ISR.c **** /*******************************************************************************
ARM GAS  C:\Users\faithc\AppData\Local\Temp\ccLnlZ1N.s 			page 4


 146:.\Generated_Source\PSoC5/PWMtimer2_ISR.c **** * Function Name: PWMtimer2_ISR_Interrupt
 147:.\Generated_Source\PSoC5/PWMtimer2_ISR.c **** ********************************************************************************
 148:.\Generated_Source\PSoC5/PWMtimer2_ISR.c **** *
 149:.\Generated_Source\PSoC5/PWMtimer2_ISR.c **** * Summary:
 150:.\Generated_Source\PSoC5/PWMtimer2_ISR.c **** *   The default Interrupt Service Routine for PWMtimer2_ISR.
 151:.\Generated_Source\PSoC5/PWMtimer2_ISR.c **** *
 152:.\Generated_Source\PSoC5/PWMtimer2_ISR.c **** *   Add custom code between the coments to keep the next version of this file
 153:.\Generated_Source\PSoC5/PWMtimer2_ISR.c **** *   from over writting your code.
 154:.\Generated_Source\PSoC5/PWMtimer2_ISR.c **** *
 155:.\Generated_Source\PSoC5/PWMtimer2_ISR.c **** * Parameters:  
 156:.\Generated_Source\PSoC5/PWMtimer2_ISR.c **** *
 157:.\Generated_Source\PSoC5/PWMtimer2_ISR.c **** * Return:
 158:.\Generated_Source\PSoC5/PWMtimer2_ISR.c **** *   None
 159:.\Generated_Source\PSoC5/PWMtimer2_ISR.c **** *
 160:.\Generated_Source\PSoC5/PWMtimer2_ISR.c **** *******************************************************************************/
 161:.\Generated_Source\PSoC5/PWMtimer2_ISR.c **** CY_ISR(PWMtimer2_ISR_Interrupt)
 162:.\Generated_Source\PSoC5/PWMtimer2_ISR.c **** {
  27              		.loc 1 162 0
  28              		.cfi_startproc
  29              		@ args = 0, pretend = 0, frame = 0
  30              		@ frame_needed = 0, uses_anonymous_args = 0
  31 0000 08B5     		push	{r3, lr}
  32              		.cfi_def_cfa_offset 8
  33              		.cfi_offset 3, -8
  34              		.cfi_offset 14, -4
 163:.\Generated_Source\PSoC5/PWMtimer2_ISR.c ****     #ifdef PWMtimer2_ISR_INTERRUPT_INTERRUPT_CALLBACK
 164:.\Generated_Source\PSoC5/PWMtimer2_ISR.c ****         PWMtimer2_ISR_Interrupt_InterruptCallback();
 165:.\Generated_Source\PSoC5/PWMtimer2_ISR.c ****     #endif /* PWMtimer2_ISR_INTERRUPT_INTERRUPT_CALLBACK */ 
 166:.\Generated_Source\PSoC5/PWMtimer2_ISR.c **** 
 167:.\Generated_Source\PSoC5/PWMtimer2_ISR.c ****     /*  Place your Interrupt code here. */
 168:.\Generated_Source\PSoC5/PWMtimer2_ISR.c ****     /* `#START PWMtimer2_ISR_Interrupt` */
 169:.\Generated_Source\PSoC5/PWMtimer2_ISR.c ****     processPWMtimerRoutine(true);
  35              		.loc 1 169 0
  36 0002 0120     		movs	r0, #1
  37 0004 FFF7FEFF 		bl	processPWMtimerRoutine
  38              	.LVL0:
  39 0008 08BD     		pop	{r3, pc}
  40              		.cfi_endproc
  41              	.LFE66:
  42              		.size	PWMtimer2_ISR_Interrupt, .-PWMtimer2_ISR_Interrupt
  43 000a 00BF     		.section	.text.PWMtimer2_ISR_SetVector,"ax",%progbits
  44              		.align	2
  45              		.global	PWMtimer2_ISR_SetVector
  46              		.thumb
  47              		.thumb_func
  48              		.type	PWMtimer2_ISR_SetVector, %function
  49              	PWMtimer2_ISR_SetVector:
  50              	.LFB67:
 170:.\Generated_Source\PSoC5/PWMtimer2_ISR.c ****     /* `#END` */
 171:.\Generated_Source\PSoC5/PWMtimer2_ISR.c **** }
 172:.\Generated_Source\PSoC5/PWMtimer2_ISR.c **** 
 173:.\Generated_Source\PSoC5/PWMtimer2_ISR.c **** 
 174:.\Generated_Source\PSoC5/PWMtimer2_ISR.c **** /*******************************************************************************
 175:.\Generated_Source\PSoC5/PWMtimer2_ISR.c **** * Function Name: PWMtimer2_ISR_SetVector
 176:.\Generated_Source\PSoC5/PWMtimer2_ISR.c **** ********************************************************************************
 177:.\Generated_Source\PSoC5/PWMtimer2_ISR.c **** *
 178:.\Generated_Source\PSoC5/PWMtimer2_ISR.c **** * Summary:
ARM GAS  C:\Users\faithc\AppData\Local\Temp\ccLnlZ1N.s 			page 5


 179:.\Generated_Source\PSoC5/PWMtimer2_ISR.c **** *   Change the ISR vector for the Interrupt. Note calling PWMtimer2_ISR_Start
 180:.\Generated_Source\PSoC5/PWMtimer2_ISR.c **** *   will override any effect this method would have had. To set the vector 
 181:.\Generated_Source\PSoC5/PWMtimer2_ISR.c **** *   before the component has been started use PWMtimer2_ISR_StartEx instead.
 182:.\Generated_Source\PSoC5/PWMtimer2_ISR.c **** * 
 183:.\Generated_Source\PSoC5/PWMtimer2_ISR.c **** *   When defining ISR functions, the CY_ISR and CY_ISR_PROTO macros should be 
 184:.\Generated_Source\PSoC5/PWMtimer2_ISR.c **** *   used to provide consistent definition across compilers:
 185:.\Generated_Source\PSoC5/PWMtimer2_ISR.c **** *
 186:.\Generated_Source\PSoC5/PWMtimer2_ISR.c **** *   Function definition example:
 187:.\Generated_Source\PSoC5/PWMtimer2_ISR.c **** *   CY_ISR(MyISR)
 188:.\Generated_Source\PSoC5/PWMtimer2_ISR.c **** *   {
 189:.\Generated_Source\PSoC5/PWMtimer2_ISR.c **** *   }
 190:.\Generated_Source\PSoC5/PWMtimer2_ISR.c **** *
 191:.\Generated_Source\PSoC5/PWMtimer2_ISR.c **** *   Function prototype example:
 192:.\Generated_Source\PSoC5/PWMtimer2_ISR.c **** *     CY_ISR_PROTO(MyISR);
 193:.\Generated_Source\PSoC5/PWMtimer2_ISR.c **** *
 194:.\Generated_Source\PSoC5/PWMtimer2_ISR.c **** * Parameters:
 195:.\Generated_Source\PSoC5/PWMtimer2_ISR.c **** *   address: Address of the ISR to set in the interrupt vector table.
 196:.\Generated_Source\PSoC5/PWMtimer2_ISR.c **** *
 197:.\Generated_Source\PSoC5/PWMtimer2_ISR.c **** * Return:
 198:.\Generated_Source\PSoC5/PWMtimer2_ISR.c **** *   None
 199:.\Generated_Source\PSoC5/PWMtimer2_ISR.c **** *
 200:.\Generated_Source\PSoC5/PWMtimer2_ISR.c **** *******************************************************************************/
 201:.\Generated_Source\PSoC5/PWMtimer2_ISR.c **** void PWMtimer2_ISR_SetVector(cyisraddress address)
 202:.\Generated_Source\PSoC5/PWMtimer2_ISR.c **** {
  51              		.loc 1 202 0
  52              		.cfi_startproc
  53              		@ args = 0, pretend = 0, frame = 0
  54              		@ frame_needed = 0, uses_anonymous_args = 0
  55              		@ link register save eliminated.
  56              	.LVL1:
 203:.\Generated_Source\PSoC5/PWMtimer2_ISR.c ****     cyisraddress * ramVectorTable;
 204:.\Generated_Source\PSoC5/PWMtimer2_ISR.c **** 
 205:.\Generated_Source\PSoC5/PWMtimer2_ISR.c ****     ramVectorTable = (cyisraddress *) *CYINT_VECT_TABLE;
  57              		.loc 1 205 0
  58 0000 024B     		ldr	r3, .L4
  59 0002 1B68     		ldr	r3, [r3]
  60              	.LVL2:
 206:.\Generated_Source\PSoC5/PWMtimer2_ISR.c **** 
 207:.\Generated_Source\PSoC5/PWMtimer2_ISR.c ****     ramVectorTable[CYINT_IRQ_BASE + (uint32)PWMtimer2_ISR__INTC_NUMBER] = address;
  61              		.loc 1 207 0
  62 0004 C3F89000 		str	r0, [r3, #144]
  63 0008 7047     		bx	lr
  64              	.L5:
  65 000a 00BF     		.align	2
  66              	.L4:
  67 000c 08ED00E0 		.word	-536810232
  68              		.cfi_endproc
  69              	.LFE67:
  70              		.size	PWMtimer2_ISR_SetVector, .-PWMtimer2_ISR_SetVector
  71              		.section	.text.PWMtimer2_ISR_GetVector,"ax",%progbits
  72              		.align	2
  73              		.global	PWMtimer2_ISR_GetVector
  74              		.thumb
  75              		.thumb_func
  76              		.type	PWMtimer2_ISR_GetVector, %function
  77              	PWMtimer2_ISR_GetVector:
  78              	.LFB68:
ARM GAS  C:\Users\faithc\AppData\Local\Temp\ccLnlZ1N.s 			page 6


 208:.\Generated_Source\PSoC5/PWMtimer2_ISR.c **** }
 209:.\Generated_Source\PSoC5/PWMtimer2_ISR.c **** 
 210:.\Generated_Source\PSoC5/PWMtimer2_ISR.c **** 
 211:.\Generated_Source\PSoC5/PWMtimer2_ISR.c **** /*******************************************************************************
 212:.\Generated_Source\PSoC5/PWMtimer2_ISR.c **** * Function Name: PWMtimer2_ISR_GetVector
 213:.\Generated_Source\PSoC5/PWMtimer2_ISR.c **** ********************************************************************************
 214:.\Generated_Source\PSoC5/PWMtimer2_ISR.c **** *
 215:.\Generated_Source\PSoC5/PWMtimer2_ISR.c **** * Summary:
 216:.\Generated_Source\PSoC5/PWMtimer2_ISR.c **** *   Gets the "address" of the current ISR vector for the Interrupt.
 217:.\Generated_Source\PSoC5/PWMtimer2_ISR.c **** *
 218:.\Generated_Source\PSoC5/PWMtimer2_ISR.c **** * Parameters:
 219:.\Generated_Source\PSoC5/PWMtimer2_ISR.c **** *   None
 220:.\Generated_Source\PSoC5/PWMtimer2_ISR.c **** *
 221:.\Generated_Source\PSoC5/PWMtimer2_ISR.c **** * Return:
 222:.\Generated_Source\PSoC5/PWMtimer2_ISR.c **** *   Address of the ISR in the interrupt vector table.
 223:.\Generated_Source\PSoC5/PWMtimer2_ISR.c **** *
 224:.\Generated_Source\PSoC5/PWMtimer2_ISR.c **** *******************************************************************************/
 225:.\Generated_Source\PSoC5/PWMtimer2_ISR.c **** cyisraddress PWMtimer2_ISR_GetVector(void)
 226:.\Generated_Source\PSoC5/PWMtimer2_ISR.c **** {
  79              		.loc 1 226 0
  80              		.cfi_startproc
  81              		@ args = 0, pretend = 0, frame = 0
  82              		@ frame_needed = 0, uses_anonymous_args = 0
  83              		@ link register save eliminated.
 227:.\Generated_Source\PSoC5/PWMtimer2_ISR.c ****     cyisraddress * ramVectorTable;
 228:.\Generated_Source\PSoC5/PWMtimer2_ISR.c **** 
 229:.\Generated_Source\PSoC5/PWMtimer2_ISR.c ****     ramVectorTable = (cyisraddress *) *CYINT_VECT_TABLE;
  84              		.loc 1 229 0
  85 0000 024B     		ldr	r3, .L7
  86 0002 1B68     		ldr	r3, [r3]
  87              	.LVL3:
 230:.\Generated_Source\PSoC5/PWMtimer2_ISR.c **** 
 231:.\Generated_Source\PSoC5/PWMtimer2_ISR.c ****     return ramVectorTable[CYINT_IRQ_BASE + (uint32)PWMtimer2_ISR__INTC_NUMBER];
 232:.\Generated_Source\PSoC5/PWMtimer2_ISR.c **** }
  88              		.loc 1 232 0
  89 0004 D3F89000 		ldr	r0, [r3, #144]
  90 0008 7047     		bx	lr
  91              	.L8:
  92 000a 00BF     		.align	2
  93              	.L7:
  94 000c 08ED00E0 		.word	-536810232
  95              		.cfi_endproc
  96              	.LFE68:
  97              		.size	PWMtimer2_ISR_GetVector, .-PWMtimer2_ISR_GetVector
  98              		.section	.text.PWMtimer2_ISR_SetPriority,"ax",%progbits
  99              		.align	2
 100              		.global	PWMtimer2_ISR_SetPriority
 101              		.thumb
 102              		.thumb_func
 103              		.type	PWMtimer2_ISR_SetPriority, %function
 104              	PWMtimer2_ISR_SetPriority:
 105              	.LFB69:
 233:.\Generated_Source\PSoC5/PWMtimer2_ISR.c **** 
 234:.\Generated_Source\PSoC5/PWMtimer2_ISR.c **** 
 235:.\Generated_Source\PSoC5/PWMtimer2_ISR.c **** /*******************************************************************************
 236:.\Generated_Source\PSoC5/PWMtimer2_ISR.c **** * Function Name: PWMtimer2_ISR_SetPriority
 237:.\Generated_Source\PSoC5/PWMtimer2_ISR.c **** ********************************************************************************
ARM GAS  C:\Users\faithc\AppData\Local\Temp\ccLnlZ1N.s 			page 7


 238:.\Generated_Source\PSoC5/PWMtimer2_ISR.c **** *
 239:.\Generated_Source\PSoC5/PWMtimer2_ISR.c **** * Summary:
 240:.\Generated_Source\PSoC5/PWMtimer2_ISR.c **** *   Sets the Priority of the Interrupt. 
 241:.\Generated_Source\PSoC5/PWMtimer2_ISR.c **** *
 242:.\Generated_Source\PSoC5/PWMtimer2_ISR.c **** *   Note calling PWMtimer2_ISR_Start or PWMtimer2_ISR_StartEx will 
 243:.\Generated_Source\PSoC5/PWMtimer2_ISR.c **** *   override any effect this API would have had. This API should only be called
 244:.\Generated_Source\PSoC5/PWMtimer2_ISR.c **** *   after PWMtimer2_ISR_Start or PWMtimer2_ISR_StartEx has been called. 
 245:.\Generated_Source\PSoC5/PWMtimer2_ISR.c **** *   To set the initial priority for the component, use the Design-Wide Resources
 246:.\Generated_Source\PSoC5/PWMtimer2_ISR.c **** *   Interrupt Editor.
 247:.\Generated_Source\PSoC5/PWMtimer2_ISR.c **** *
 248:.\Generated_Source\PSoC5/PWMtimer2_ISR.c **** *   Note This API has no effect on Non-maskable interrupt NMI).
 249:.\Generated_Source\PSoC5/PWMtimer2_ISR.c **** *
 250:.\Generated_Source\PSoC5/PWMtimer2_ISR.c **** * Parameters:
 251:.\Generated_Source\PSoC5/PWMtimer2_ISR.c **** *   priority: Priority of the interrupt, 0 being the highest priority
 252:.\Generated_Source\PSoC5/PWMtimer2_ISR.c **** *             PSoC 3 and PSoC 5LP: Priority is from 0 to 7.
 253:.\Generated_Source\PSoC5/PWMtimer2_ISR.c **** *             PSoC 4: Priority is from 0 to 3.
 254:.\Generated_Source\PSoC5/PWMtimer2_ISR.c **** *
 255:.\Generated_Source\PSoC5/PWMtimer2_ISR.c **** * Return:
 256:.\Generated_Source\PSoC5/PWMtimer2_ISR.c **** *   None
 257:.\Generated_Source\PSoC5/PWMtimer2_ISR.c **** *
 258:.\Generated_Source\PSoC5/PWMtimer2_ISR.c **** *******************************************************************************/
 259:.\Generated_Source\PSoC5/PWMtimer2_ISR.c **** void PWMtimer2_ISR_SetPriority(uint8 priority)
 260:.\Generated_Source\PSoC5/PWMtimer2_ISR.c **** {
 106              		.loc 1 260 0
 107              		.cfi_startproc
 108              		@ args = 0, pretend = 0, frame = 0
 109              		@ frame_needed = 0, uses_anonymous_args = 0
 110              		@ link register save eliminated.
 111              	.LVL4:
 261:.\Generated_Source\PSoC5/PWMtimer2_ISR.c ****     *PWMtimer2_ISR_INTC_PRIOR = priority << 5;
 112              		.loc 1 261 0
 113 0000 4001     		lsls	r0, r0, #5
 114              	.LVL5:
 115 0002 C0B2     		uxtb	r0, r0
 116 0004 014B     		ldr	r3, .L10
 117 0006 1870     		strb	r0, [r3]
 118 0008 7047     		bx	lr
 119              	.L11:
 120 000a 00BF     		.align	2
 121              	.L10:
 122 000c 14E400E0 		.word	-536812524
 123              		.cfi_endproc
 124              	.LFE69:
 125              		.size	PWMtimer2_ISR_SetPriority, .-PWMtimer2_ISR_SetPriority
 126              		.section	.text.PWMtimer2_ISR_GetPriority,"ax",%progbits
 127              		.align	2
 128              		.global	PWMtimer2_ISR_GetPriority
 129              		.thumb
 130              		.thumb_func
 131              		.type	PWMtimer2_ISR_GetPriority, %function
 132              	PWMtimer2_ISR_GetPriority:
 133              	.LFB70:
 262:.\Generated_Source\PSoC5/PWMtimer2_ISR.c **** }
 263:.\Generated_Source\PSoC5/PWMtimer2_ISR.c **** 
 264:.\Generated_Source\PSoC5/PWMtimer2_ISR.c **** 
 265:.\Generated_Source\PSoC5/PWMtimer2_ISR.c **** /*******************************************************************************
 266:.\Generated_Source\PSoC5/PWMtimer2_ISR.c **** * Function Name: PWMtimer2_ISR_GetPriority
ARM GAS  C:\Users\faithc\AppData\Local\Temp\ccLnlZ1N.s 			page 8


 267:.\Generated_Source\PSoC5/PWMtimer2_ISR.c **** ********************************************************************************
 268:.\Generated_Source\PSoC5/PWMtimer2_ISR.c **** *
 269:.\Generated_Source\PSoC5/PWMtimer2_ISR.c **** * Summary:
 270:.\Generated_Source\PSoC5/PWMtimer2_ISR.c **** *   Gets the Priority of the Interrupt.
 271:.\Generated_Source\PSoC5/PWMtimer2_ISR.c **** *
 272:.\Generated_Source\PSoC5/PWMtimer2_ISR.c **** * Parameters:
 273:.\Generated_Source\PSoC5/PWMtimer2_ISR.c **** *   None
 274:.\Generated_Source\PSoC5/PWMtimer2_ISR.c **** *
 275:.\Generated_Source\PSoC5/PWMtimer2_ISR.c **** * Return:
 276:.\Generated_Source\PSoC5/PWMtimer2_ISR.c **** *   Priority of the interrupt, 0 being the highest priority
 277:.\Generated_Source\PSoC5/PWMtimer2_ISR.c **** *    PSoC 3 and PSoC 5LP: Priority is from 0 to 7.
 278:.\Generated_Source\PSoC5/PWMtimer2_ISR.c **** *    PSoC 4: Priority is from 0 to 3.
 279:.\Generated_Source\PSoC5/PWMtimer2_ISR.c **** *
 280:.\Generated_Source\PSoC5/PWMtimer2_ISR.c **** *******************************************************************************/
 281:.\Generated_Source\PSoC5/PWMtimer2_ISR.c **** uint8 PWMtimer2_ISR_GetPriority(void)
 282:.\Generated_Source\PSoC5/PWMtimer2_ISR.c **** {
 134              		.loc 1 282 0
 135              		.cfi_startproc
 136              		@ args = 0, pretend = 0, frame = 0
 137              		@ frame_needed = 0, uses_anonymous_args = 0
 138              		@ link register save eliminated.
 283:.\Generated_Source\PSoC5/PWMtimer2_ISR.c ****     uint8 priority;
 284:.\Generated_Source\PSoC5/PWMtimer2_ISR.c **** 
 285:.\Generated_Source\PSoC5/PWMtimer2_ISR.c **** 
 286:.\Generated_Source\PSoC5/PWMtimer2_ISR.c ****     priority = *PWMtimer2_ISR_INTC_PRIOR >> 5;
 139              		.loc 1 286 0
 140 0000 014B     		ldr	r3, .L13
 141 0002 1878     		ldrb	r0, [r3]	@ zero_extendqisi2
 142              	.LVL6:
 287:.\Generated_Source\PSoC5/PWMtimer2_ISR.c **** 
 288:.\Generated_Source\PSoC5/PWMtimer2_ISR.c ****     return priority;
 289:.\Generated_Source\PSoC5/PWMtimer2_ISR.c **** }
 143              		.loc 1 289 0
 144 0004 4009     		lsrs	r0, r0, #5
 145              	.LVL7:
 146 0006 7047     		bx	lr
 147              	.L14:
 148              		.align	2
 149              	.L13:
 150 0008 14E400E0 		.word	-536812524
 151              		.cfi_endproc
 152              	.LFE70:
 153              		.size	PWMtimer2_ISR_GetPriority, .-PWMtimer2_ISR_GetPriority
 154              		.section	.text.PWMtimer2_ISR_Enable,"ax",%progbits
 155              		.align	2
 156              		.global	PWMtimer2_ISR_Enable
 157              		.thumb
 158              		.thumb_func
 159              		.type	PWMtimer2_ISR_Enable, %function
 160              	PWMtimer2_ISR_Enable:
 161              	.LFB71:
 290:.\Generated_Source\PSoC5/PWMtimer2_ISR.c **** 
 291:.\Generated_Source\PSoC5/PWMtimer2_ISR.c **** 
 292:.\Generated_Source\PSoC5/PWMtimer2_ISR.c **** /*******************************************************************************
 293:.\Generated_Source\PSoC5/PWMtimer2_ISR.c **** * Function Name: PWMtimer2_ISR_Enable
 294:.\Generated_Source\PSoC5/PWMtimer2_ISR.c **** ********************************************************************************
 295:.\Generated_Source\PSoC5/PWMtimer2_ISR.c **** *
ARM GAS  C:\Users\faithc\AppData\Local\Temp\ccLnlZ1N.s 			page 9


 296:.\Generated_Source\PSoC5/PWMtimer2_ISR.c **** * Summary:
 297:.\Generated_Source\PSoC5/PWMtimer2_ISR.c **** *   Enables the interrupt to the interrupt controller. Do not call this function
 298:.\Generated_Source\PSoC5/PWMtimer2_ISR.c **** *   unless ISR_Start() has been called or the functionality of the ISR_Start() 
 299:.\Generated_Source\PSoC5/PWMtimer2_ISR.c **** *   function, which sets the vector and the priority, has been called.
 300:.\Generated_Source\PSoC5/PWMtimer2_ISR.c **** *
 301:.\Generated_Source\PSoC5/PWMtimer2_ISR.c **** * Parameters:
 302:.\Generated_Source\PSoC5/PWMtimer2_ISR.c **** *   None
 303:.\Generated_Source\PSoC5/PWMtimer2_ISR.c **** *
 304:.\Generated_Source\PSoC5/PWMtimer2_ISR.c **** * Return:
 305:.\Generated_Source\PSoC5/PWMtimer2_ISR.c **** *   None
 306:.\Generated_Source\PSoC5/PWMtimer2_ISR.c **** *
 307:.\Generated_Source\PSoC5/PWMtimer2_ISR.c **** *******************************************************************************/
 308:.\Generated_Source\PSoC5/PWMtimer2_ISR.c **** void PWMtimer2_ISR_Enable(void)
 309:.\Generated_Source\PSoC5/PWMtimer2_ISR.c **** {
 162              		.loc 1 309 0
 163              		.cfi_startproc
 164              		@ args = 0, pretend = 0, frame = 0
 165              		@ frame_needed = 0, uses_anonymous_args = 0
 166              		@ link register save eliminated.
 310:.\Generated_Source\PSoC5/PWMtimer2_ISR.c ****     /* Enable the general interrupt. */
 311:.\Generated_Source\PSoC5/PWMtimer2_ISR.c ****     *PWMtimer2_ISR_INTC_SET_EN = PWMtimer2_ISR__INTC_MASK;
 167              		.loc 1 311 0
 168 0000 4FF48012 		mov	r2, #1048576
 169 0004 014B     		ldr	r3, .L16
 170 0006 1A60     		str	r2, [r3]
 171 0008 7047     		bx	lr
 172              	.L17:
 173 000a 00BF     		.align	2
 174              	.L16:
 175 000c 00E100E0 		.word	-536813312
 176              		.cfi_endproc
 177              	.LFE71:
 178              		.size	PWMtimer2_ISR_Enable, .-PWMtimer2_ISR_Enable
 179              		.section	.text.PWMtimer2_ISR_GetState,"ax",%progbits
 180              		.align	2
 181              		.global	PWMtimer2_ISR_GetState
 182              		.thumb
 183              		.thumb_func
 184              		.type	PWMtimer2_ISR_GetState, %function
 185              	PWMtimer2_ISR_GetState:
 186              	.LFB72:
 312:.\Generated_Source\PSoC5/PWMtimer2_ISR.c **** }
 313:.\Generated_Source\PSoC5/PWMtimer2_ISR.c **** 
 314:.\Generated_Source\PSoC5/PWMtimer2_ISR.c **** 
 315:.\Generated_Source\PSoC5/PWMtimer2_ISR.c **** /*******************************************************************************
 316:.\Generated_Source\PSoC5/PWMtimer2_ISR.c **** * Function Name: PWMtimer2_ISR_GetState
 317:.\Generated_Source\PSoC5/PWMtimer2_ISR.c **** ********************************************************************************
 318:.\Generated_Source\PSoC5/PWMtimer2_ISR.c **** *
 319:.\Generated_Source\PSoC5/PWMtimer2_ISR.c **** * Summary:
 320:.\Generated_Source\PSoC5/PWMtimer2_ISR.c **** *   Gets the state (enabled, disabled) of the Interrupt.
 321:.\Generated_Source\PSoC5/PWMtimer2_ISR.c **** *
 322:.\Generated_Source\PSoC5/PWMtimer2_ISR.c **** * Parameters:
 323:.\Generated_Source\PSoC5/PWMtimer2_ISR.c **** *   None
 324:.\Generated_Source\PSoC5/PWMtimer2_ISR.c **** *
 325:.\Generated_Source\PSoC5/PWMtimer2_ISR.c **** * Return:
 326:.\Generated_Source\PSoC5/PWMtimer2_ISR.c **** *   1 if enabled, 0 if disabled.
 327:.\Generated_Source\PSoC5/PWMtimer2_ISR.c **** *
ARM GAS  C:\Users\faithc\AppData\Local\Temp\ccLnlZ1N.s 			page 10


 328:.\Generated_Source\PSoC5/PWMtimer2_ISR.c **** *******************************************************************************/
 329:.\Generated_Source\PSoC5/PWMtimer2_ISR.c **** uint8 PWMtimer2_ISR_GetState(void)
 330:.\Generated_Source\PSoC5/PWMtimer2_ISR.c **** {
 187              		.loc 1 330 0
 188              		.cfi_startproc
 189              		@ args = 0, pretend = 0, frame = 0
 190              		@ frame_needed = 0, uses_anonymous_args = 0
 191              		@ link register save eliminated.
 331:.\Generated_Source\PSoC5/PWMtimer2_ISR.c ****     /* Get the state of the general interrupt. */
 332:.\Generated_Source\PSoC5/PWMtimer2_ISR.c ****     return ((*PWMtimer2_ISR_INTC_SET_EN & (uint32)PWMtimer2_ISR__INTC_MASK) != 0u) ? 1u:0u;
 192              		.loc 1 332 0
 193 0000 044B     		ldr	r3, .L21
 194 0002 1B68     		ldr	r3, [r3]
 195 0004 13F4801F 		tst	r3, #1048576
 196 0008 01D0     		beq	.L20
 197 000a 0120     		movs	r0, #1
 198 000c 7047     		bx	lr
 199              	.L20:
 200 000e 0020     		movs	r0, #0
 333:.\Generated_Source\PSoC5/PWMtimer2_ISR.c **** }
 201              		.loc 1 333 0
 202 0010 7047     		bx	lr
 203              	.L22:
 204 0012 00BF     		.align	2
 205              	.L21:
 206 0014 00E100E0 		.word	-536813312
 207              		.cfi_endproc
 208              	.LFE72:
 209              		.size	PWMtimer2_ISR_GetState, .-PWMtimer2_ISR_GetState
 210              		.section	.text.PWMtimer2_ISR_Disable,"ax",%progbits
 211              		.align	2
 212              		.global	PWMtimer2_ISR_Disable
 213              		.thumb
 214              		.thumb_func
 215              		.type	PWMtimer2_ISR_Disable, %function
 216              	PWMtimer2_ISR_Disable:
 217              	.LFB73:
 334:.\Generated_Source\PSoC5/PWMtimer2_ISR.c **** 
 335:.\Generated_Source\PSoC5/PWMtimer2_ISR.c **** 
 336:.\Generated_Source\PSoC5/PWMtimer2_ISR.c **** /*******************************************************************************
 337:.\Generated_Source\PSoC5/PWMtimer2_ISR.c **** * Function Name: PWMtimer2_ISR_Disable
 338:.\Generated_Source\PSoC5/PWMtimer2_ISR.c **** ********************************************************************************
 339:.\Generated_Source\PSoC5/PWMtimer2_ISR.c **** *
 340:.\Generated_Source\PSoC5/PWMtimer2_ISR.c **** * Summary:
 341:.\Generated_Source\PSoC5/PWMtimer2_ISR.c **** *   Disables the Interrupt in the interrupt controller.
 342:.\Generated_Source\PSoC5/PWMtimer2_ISR.c **** *
 343:.\Generated_Source\PSoC5/PWMtimer2_ISR.c **** * Parameters:
 344:.\Generated_Source\PSoC5/PWMtimer2_ISR.c **** *   None
 345:.\Generated_Source\PSoC5/PWMtimer2_ISR.c **** *
 346:.\Generated_Source\PSoC5/PWMtimer2_ISR.c **** * Return:
 347:.\Generated_Source\PSoC5/PWMtimer2_ISR.c **** *   None
 348:.\Generated_Source\PSoC5/PWMtimer2_ISR.c **** *
 349:.\Generated_Source\PSoC5/PWMtimer2_ISR.c **** *******************************************************************************/
 350:.\Generated_Source\PSoC5/PWMtimer2_ISR.c **** void PWMtimer2_ISR_Disable(void)
 351:.\Generated_Source\PSoC5/PWMtimer2_ISR.c **** {
 218              		.loc 1 351 0
 219              		.cfi_startproc
ARM GAS  C:\Users\faithc\AppData\Local\Temp\ccLnlZ1N.s 			page 11


 220              		@ args = 0, pretend = 0, frame = 0
 221              		@ frame_needed = 0, uses_anonymous_args = 0
 222              		@ link register save eliminated.
 352:.\Generated_Source\PSoC5/PWMtimer2_ISR.c ****     /* Disable the general interrupt. */
 353:.\Generated_Source\PSoC5/PWMtimer2_ISR.c ****     *PWMtimer2_ISR_INTC_CLR_EN = PWMtimer2_ISR__INTC_MASK;
 223              		.loc 1 353 0
 224 0000 4FF48012 		mov	r2, #1048576
 225 0004 014B     		ldr	r3, .L24
 226 0006 1A60     		str	r2, [r3]
 227 0008 7047     		bx	lr
 228              	.L25:
 229 000a 00BF     		.align	2
 230              	.L24:
 231 000c 80E100E0 		.word	-536813184
 232              		.cfi_endproc
 233              	.LFE73:
 234              		.size	PWMtimer2_ISR_Disable, .-PWMtimer2_ISR_Disable
 235              		.section	.text.PWMtimer2_ISR_Start,"ax",%progbits
 236              		.align	2
 237              		.global	PWMtimer2_ISR_Start
 238              		.thumb
 239              		.thumb_func
 240              		.type	PWMtimer2_ISR_Start, %function
 241              	PWMtimer2_ISR_Start:
 242              	.LFB63:
  63:.\Generated_Source\PSoC5/PWMtimer2_ISR.c ****     /* For all we know the interrupt is active. */
 243              		.loc 1 63 0
 244              		.cfi_startproc
 245              		@ args = 0, pretend = 0, frame = 0
 246              		@ frame_needed = 0, uses_anonymous_args = 0
 247 0000 08B5     		push	{r3, lr}
 248              		.cfi_def_cfa_offset 8
 249              		.cfi_offset 3, -8
 250              		.cfi_offset 14, -4
  65:.\Generated_Source\PSoC5/PWMtimer2_ISR.c **** 
 251              		.loc 1 65 0
 252 0002 FFF7FEFF 		bl	PWMtimer2_ISR_Disable
 253              	.LVL8:
  68:.\Generated_Source\PSoC5/PWMtimer2_ISR.c **** 
 254              		.loc 1 68 0
 255 0006 0448     		ldr	r0, .L28
 256 0008 FFF7FEFF 		bl	PWMtimer2_ISR_SetVector
 257              	.LVL9:
  71:.\Generated_Source\PSoC5/PWMtimer2_ISR.c **** 
 258              		.loc 1 71 0
 259 000c 0720     		movs	r0, #7
 260 000e FFF7FEFF 		bl	PWMtimer2_ISR_SetPriority
 261              	.LVL10:
  74:.\Generated_Source\PSoC5/PWMtimer2_ISR.c **** }
 262              		.loc 1 74 0
 263 0012 FFF7FEFF 		bl	PWMtimer2_ISR_Enable
 264              	.LVL11:
 265 0016 08BD     		pop	{r3, pc}
 266              	.L29:
 267              		.align	2
 268              	.L28:
 269 0018 00000000 		.word	PWMtimer2_ISR_Interrupt
ARM GAS  C:\Users\faithc\AppData\Local\Temp\ccLnlZ1N.s 			page 12


 270              		.cfi_endproc
 271              	.LFE63:
 272              		.size	PWMtimer2_ISR_Start, .-PWMtimer2_ISR_Start
 273              		.section	.text.PWMtimer2_ISR_StartEx,"ax",%progbits
 274              		.align	2
 275              		.global	PWMtimer2_ISR_StartEx
 276              		.thumb
 277              		.thumb_func
 278              		.type	PWMtimer2_ISR_StartEx, %function
 279              	PWMtimer2_ISR_StartEx:
 280              	.LFB64:
 106:.\Generated_Source\PSoC5/PWMtimer2_ISR.c ****     /* For all we know the interrupt is active. */
 281              		.loc 1 106 0
 282              		.cfi_startproc
 283              		@ args = 0, pretend = 0, frame = 0
 284              		@ frame_needed = 0, uses_anonymous_args = 0
 285              	.LVL12:
 286 0000 10B5     		push	{r4, lr}
 287              		.cfi_def_cfa_offset 8
 288              		.cfi_offset 4, -8
 289              		.cfi_offset 14, -4
 290 0002 0446     		mov	r4, r0
 108:.\Generated_Source\PSoC5/PWMtimer2_ISR.c **** 
 291              		.loc 1 108 0
 292 0004 FFF7FEFF 		bl	PWMtimer2_ISR_Disable
 293              	.LVL13:
 111:.\Generated_Source\PSoC5/PWMtimer2_ISR.c **** 
 294              		.loc 1 111 0
 295 0008 2046     		mov	r0, r4
 296 000a FFF7FEFF 		bl	PWMtimer2_ISR_SetVector
 297              	.LVL14:
 114:.\Generated_Source\PSoC5/PWMtimer2_ISR.c **** 
 298              		.loc 1 114 0
 299 000e 0720     		movs	r0, #7
 300 0010 FFF7FEFF 		bl	PWMtimer2_ISR_SetPriority
 301              	.LVL15:
 117:.\Generated_Source\PSoC5/PWMtimer2_ISR.c **** }
 302              		.loc 1 117 0
 303 0014 FFF7FEFF 		bl	PWMtimer2_ISR_Enable
 304              	.LVL16:
 305 0018 10BD     		pop	{r4, pc}
 306              		.cfi_endproc
 307              	.LFE64:
 308              		.size	PWMtimer2_ISR_StartEx, .-PWMtimer2_ISR_StartEx
 309 001a 00BF     		.section	.text.PWMtimer2_ISR_Stop,"ax",%progbits
 310              		.align	2
 311              		.global	PWMtimer2_ISR_Stop
 312              		.thumb
 313              		.thumb_func
 314              		.type	PWMtimer2_ISR_Stop, %function
 315              	PWMtimer2_ISR_Stop:
 316              	.LFB65:
 136:.\Generated_Source\PSoC5/PWMtimer2_ISR.c ****     /* Disable this interrupt. */
 317              		.loc 1 136 0
 318              		.cfi_startproc
 319              		@ args = 0, pretend = 0, frame = 0
 320              		@ frame_needed = 0, uses_anonymous_args = 0
ARM GAS  C:\Users\faithc\AppData\Local\Temp\ccLnlZ1N.s 			page 13


 321 0000 08B5     		push	{r3, lr}
 322              		.cfi_def_cfa_offset 8
 323              		.cfi_offset 3, -8
 324              		.cfi_offset 14, -4
 138:.\Generated_Source\PSoC5/PWMtimer2_ISR.c **** 
 325              		.loc 1 138 0
 326 0002 FFF7FEFF 		bl	PWMtimer2_ISR_Disable
 327              	.LVL17:
 141:.\Generated_Source\PSoC5/PWMtimer2_ISR.c **** }
 328              		.loc 1 141 0
 329 0006 0248     		ldr	r0, .L34
 330 0008 FFF7FEFF 		bl	PWMtimer2_ISR_SetVector
 331              	.LVL18:
 332 000c 08BD     		pop	{r3, pc}
 333              	.L35:
 334 000e 00BF     		.align	2
 335              	.L34:
 336 0010 00000000 		.word	IntDefaultHandler
 337              		.cfi_endproc
 338              	.LFE65:
 339              		.size	PWMtimer2_ISR_Stop, .-PWMtimer2_ISR_Stop
 340              		.section	.text.PWMtimer2_ISR_SetPending,"ax",%progbits
 341              		.align	2
 342              		.global	PWMtimer2_ISR_SetPending
 343              		.thumb
 344              		.thumb_func
 345              		.type	PWMtimer2_ISR_SetPending, %function
 346              	PWMtimer2_ISR_SetPending:
 347              	.LFB74:
 354:.\Generated_Source\PSoC5/PWMtimer2_ISR.c **** }
 355:.\Generated_Source\PSoC5/PWMtimer2_ISR.c **** 
 356:.\Generated_Source\PSoC5/PWMtimer2_ISR.c **** 
 357:.\Generated_Source\PSoC5/PWMtimer2_ISR.c **** /*******************************************************************************
 358:.\Generated_Source\PSoC5/PWMtimer2_ISR.c **** * Function Name: PWMtimer2_ISR_SetPending
 359:.\Generated_Source\PSoC5/PWMtimer2_ISR.c **** ********************************************************************************
 360:.\Generated_Source\PSoC5/PWMtimer2_ISR.c **** *
 361:.\Generated_Source\PSoC5/PWMtimer2_ISR.c **** * Summary:
 362:.\Generated_Source\PSoC5/PWMtimer2_ISR.c **** *   Causes the Interrupt to enter the pending state, a software method of
 363:.\Generated_Source\PSoC5/PWMtimer2_ISR.c **** *   generating the interrupt.
 364:.\Generated_Source\PSoC5/PWMtimer2_ISR.c **** *
 365:.\Generated_Source\PSoC5/PWMtimer2_ISR.c **** * Parameters:
 366:.\Generated_Source\PSoC5/PWMtimer2_ISR.c **** *   None
 367:.\Generated_Source\PSoC5/PWMtimer2_ISR.c **** *
 368:.\Generated_Source\PSoC5/PWMtimer2_ISR.c **** * Return:
 369:.\Generated_Source\PSoC5/PWMtimer2_ISR.c **** *   None
 370:.\Generated_Source\PSoC5/PWMtimer2_ISR.c **** *
 371:.\Generated_Source\PSoC5/PWMtimer2_ISR.c **** * Side Effects:
 372:.\Generated_Source\PSoC5/PWMtimer2_ISR.c **** *   If interrupts are enabled and the interrupt is set up properly, the ISR is
 373:.\Generated_Source\PSoC5/PWMtimer2_ISR.c **** *   entered (depending on the priority of this interrupt and other pending 
 374:.\Generated_Source\PSoC5/PWMtimer2_ISR.c **** *   interrupts).
 375:.\Generated_Source\PSoC5/PWMtimer2_ISR.c **** *
 376:.\Generated_Source\PSoC5/PWMtimer2_ISR.c **** *******************************************************************************/
 377:.\Generated_Source\PSoC5/PWMtimer2_ISR.c **** void PWMtimer2_ISR_SetPending(void)
 378:.\Generated_Source\PSoC5/PWMtimer2_ISR.c **** {
 348              		.loc 1 378 0
 349              		.cfi_startproc
 350              		@ args = 0, pretend = 0, frame = 0
ARM GAS  C:\Users\faithc\AppData\Local\Temp\ccLnlZ1N.s 			page 14


 351              		@ frame_needed = 0, uses_anonymous_args = 0
 352              		@ link register save eliminated.
 379:.\Generated_Source\PSoC5/PWMtimer2_ISR.c ****     *PWMtimer2_ISR_INTC_SET_PD = PWMtimer2_ISR__INTC_MASK;
 353              		.loc 1 379 0
 354 0000 4FF48012 		mov	r2, #1048576
 355 0004 014B     		ldr	r3, .L37
 356 0006 1A60     		str	r2, [r3]
 357 0008 7047     		bx	lr
 358              	.L38:
 359 000a 00BF     		.align	2
 360              	.L37:
 361 000c 00E200E0 		.word	-536813056
 362              		.cfi_endproc
 363              	.LFE74:
 364              		.size	PWMtimer2_ISR_SetPending, .-PWMtimer2_ISR_SetPending
 365              		.section	.text.PWMtimer2_ISR_ClearPending,"ax",%progbits
 366              		.align	2
 367              		.global	PWMtimer2_ISR_ClearPending
 368              		.thumb
 369              		.thumb_func
 370              		.type	PWMtimer2_ISR_ClearPending, %function
 371              	PWMtimer2_ISR_ClearPending:
 372              	.LFB75:
 380:.\Generated_Source\PSoC5/PWMtimer2_ISR.c **** }
 381:.\Generated_Source\PSoC5/PWMtimer2_ISR.c **** 
 382:.\Generated_Source\PSoC5/PWMtimer2_ISR.c **** 
 383:.\Generated_Source\PSoC5/PWMtimer2_ISR.c **** /*******************************************************************************
 384:.\Generated_Source\PSoC5/PWMtimer2_ISR.c **** * Function Name: PWMtimer2_ISR_ClearPending
 385:.\Generated_Source\PSoC5/PWMtimer2_ISR.c **** ********************************************************************************
 386:.\Generated_Source\PSoC5/PWMtimer2_ISR.c **** *
 387:.\Generated_Source\PSoC5/PWMtimer2_ISR.c **** * Summary:
 388:.\Generated_Source\PSoC5/PWMtimer2_ISR.c **** *   Clears a pending interrupt in the interrupt controller.
 389:.\Generated_Source\PSoC5/PWMtimer2_ISR.c **** *
 390:.\Generated_Source\PSoC5/PWMtimer2_ISR.c **** *   Note Some interrupt sources are clear-on-read and require the block 
 391:.\Generated_Source\PSoC5/PWMtimer2_ISR.c **** *   interrupt/status register to be read/cleared with the appropriate block API 
 392:.\Generated_Source\PSoC5/PWMtimer2_ISR.c **** *   (GPIO, UART, and so on). Otherwise the ISR will continue to remain in 
 393:.\Generated_Source\PSoC5/PWMtimer2_ISR.c **** *   pending state even though the interrupt itself is cleared using this API.
 394:.\Generated_Source\PSoC5/PWMtimer2_ISR.c **** *
 395:.\Generated_Source\PSoC5/PWMtimer2_ISR.c **** * Parameters:
 396:.\Generated_Source\PSoC5/PWMtimer2_ISR.c **** *   None
 397:.\Generated_Source\PSoC5/PWMtimer2_ISR.c **** *
 398:.\Generated_Source\PSoC5/PWMtimer2_ISR.c **** * Return:
 399:.\Generated_Source\PSoC5/PWMtimer2_ISR.c **** *   None
 400:.\Generated_Source\PSoC5/PWMtimer2_ISR.c **** *
 401:.\Generated_Source\PSoC5/PWMtimer2_ISR.c **** *******************************************************************************/
 402:.\Generated_Source\PSoC5/PWMtimer2_ISR.c **** void PWMtimer2_ISR_ClearPending(void)
 403:.\Generated_Source\PSoC5/PWMtimer2_ISR.c **** {
 373              		.loc 1 403 0
 374              		.cfi_startproc
 375              		@ args = 0, pretend = 0, frame = 0
 376              		@ frame_needed = 0, uses_anonymous_args = 0
 377              		@ link register save eliminated.
 404:.\Generated_Source\PSoC5/PWMtimer2_ISR.c ****     *PWMtimer2_ISR_INTC_CLR_PD = PWMtimer2_ISR__INTC_MASK;
 378              		.loc 1 404 0
 379 0000 4FF48012 		mov	r2, #1048576
 380 0004 014B     		ldr	r3, .L40
 381 0006 1A60     		str	r2, [r3]
ARM GAS  C:\Users\faithc\AppData\Local\Temp\ccLnlZ1N.s 			page 15


 382 0008 7047     		bx	lr
 383              	.L41:
 384 000a 00BF     		.align	2
 385              	.L40:
 386 000c 80E200E0 		.word	-536812928
 387              		.cfi_endproc
 388              	.LFE75:
 389              		.size	PWMtimer2_ISR_ClearPending, .-PWMtimer2_ISR_ClearPending
 390              		.text
 391              	.Letext0:
 392              		.file 2 "c:\\program files (x86)\\cypress\\psoc creator\\3.3\\psoc creator\\import\\gnu\\arm\\4.9.
 393              		.file 3 "c:\\program files (x86)\\cypress\\psoc creator\\3.3\\psoc creator\\import\\gnu\\arm\\4.9.
 394              		.file 4 "Generated_Source\\PSoC5/cytypes.h"
 395              		.file 5 "Generated_Source\\PSoC5/core_cm3.h"
 396              		.file 6 "./Tones.h"