ARM GAS  C:\Users\faithc\AppData\Local\Temp\ccWgDYSd.s 			page 1


   1              		.syntax unified
   2              		.cpu cortex-m3
   3              		.fpu softvfp
   4              		.eabi_attribute 20, 1
   5              		.eabi_attribute 21, 1
   6              		.eabi_attribute 23, 3
   7              		.eabi_attribute 24, 1
   8              		.eabi_attribute 25, 1
   9              		.eabi_attribute 26, 1
  10              		.eabi_attribute 30, 1
  11              		.eabi_attribute 34, 1
  12              		.eabi_attribute 18, 4
  13              		.thumb
  14              		.file	"SirenState.c"
  15              		.text
  16              	.Ltext0:
  17              		.cfi_sections	.debug_frame
  18              		.section	.text.isCommand,"ax",%progbits
  19              		.align	2
  20              		.thumb
  21              		.thumb_func
  22              		.type	isCommand, %function
  23              	isCommand:
  24              	.LFB83:
  25              		.file 1 ".\\SirenState.c"
   1:.\SirenState.c **** /* ========================================
   2:.\SirenState.c ****  *
   3:.\SirenState.c ****  * Copyright YOUR COMPANY, THE YEAR
   4:.\SirenState.c ****  * All Rights Reserved
   5:.\SirenState.c ****  * UNPUBLISHED, LICENSED SOFTWARE.
   6:.\SirenState.c ****  *
   7:.\SirenState.c ****  * CONFIDENTIAL AND PROPRIETARY INFORMATION
   8:.\SirenState.c ****  * WHICH IS THE PROPERTY OF your company.
   9:.\SirenState.c ****  *
  10:.\SirenState.c ****  * ========================================
  11:.\SirenState.c **** */
  12:.\SirenState.c **** 
  13:.\SirenState.c **** /**********PREPROCESSOR DIRECTIVES**********/
  14:.\SirenState.c **** #include "CommonVariables.h"
  15:.\SirenState.c **** #include "SirenState.h"
  16:.\SirenState.c **** #include "Tones.h"
  17:.\SirenState.c **** #include "DACaudio.h"
  18:.\SirenState.c **** 
  19:.\SirenState.c **** /**********DEFINED CONSTANTS**********/
  20:.\SirenState.c **** enum ChannelIndex
  21:.\SirenState.c **** {
  22:.\SirenState.c **** 	CHANNEL_1 = 0,
  23:.\SirenState.c **** 	CHANNEL_2 = 1,
  24:.\SirenState.c **** 	CHANNEL_3 = 2,
  25:.\SirenState.c **** 	CHANNEL_4 = 3,
  26:.\SirenState.c **** 	CHANNEL_5 = 4,
  27:.\SirenState.c **** 	CHANNEL_6 = 5,
  28:.\SirenState.c **** 	NO_CHANNEL = 0xFF
  29:.\SirenState.c **** };
  30:.\SirenState.c **** 
  31:.\SirenState.c **** enum BitMask
  32:.\SirenState.c **** {
ARM GAS  C:\Users\faithc\AppData\Local\Temp\ccWgDYSd.s 			page 2


  33:.\SirenState.c **** 	BIT0 = 0x01,
  34:.\SirenState.c **** 	BIT1 = 0x02,
  35:.\SirenState.c **** 	BIT2 = 0x04,
  36:.\SirenState.c **** 	BIT3 = 0x08,
  37:.\SirenState.c **** 	BIT4 = 0x10,
  38:.\SirenState.c **** 	BIT5 = 0x20,
  39:.\SirenState.c **** 	BIT6 = 0x40,
  40:.\SirenState.c **** 	BIT7 = 0x80
  41:.\SirenState.c **** };
  42:.\SirenState.c **** 
  43:.\SirenState.c **** static const uint8 DEFAULT_CONFIGURATION_LIST[SPEAKER_COUNT * CHANNEL_COUNT_PER_SPEAKER] = 
  44:.\SirenState.c ****     {ECTOSIREN, WAIL, SLOW_YELP, PHASER, HORN, HORN_PHASER,
  45:.\SirenState.c ****     COPS_SONG, WAIL, SLOW_YELP, PHASER, HORN, HORN_PHASER};
  46:.\SirenState.c **** 
  47:.\SirenState.c **** static const uint16 EEPROM_KEY_INDEX = 0xFF;
  48:.\SirenState.c **** static const uint8 EEPROM_KEY_VALUE = 0xAA;
  49:.\SirenState.c **** 
  50:.\SirenState.c **** /**********DATA STRUCTURES**********/
  51:.\SirenState.c **** static enum ToneType toneConfigurationList[SPEAKER_COUNT][CHANNEL_COUNT_PER_SPEAKER];
  52:.\SirenState.c ****     
  53:.\SirenState.c **** static struct
  54:.\SirenState.c **** {
  55:.\SirenState.c ****     uint8 bRadioAndMicKey;
  56:.\SirenState.c ****     uint8 bParkKill;
  57:.\SirenState.c ****     uint8 bTackSwitch;
  58:.\SirenState.c ****     uint8 bHornRing;
  59:.\SirenState.c ****     uint8 bDualDelay;
  60:.\SirenState.c ****     enum ChannelIndex highestPriorityChannel[SPEAKER_COUNT];
  61:.\SirenState.c **** }InputRead;
  62:.\SirenState.c **** 
  63:.\SirenState.c **** static struct
  64:.\SirenState.c **** {
  65:.\SirenState.c ****     enum ToneType previousTone[SPEAKER_COUNT];
  66:.\SirenState.c ****     enum ToneType currentTone[SPEAKER_COUNT];
  67:.\SirenState.c ****     uint8 bRisingEdge[SPEAKER_COUNT];
  68:.\SirenState.c ****     uint8 bDualDelayEnable;
  69:.\SirenState.c **** }ToneStatus;
  70:.\SirenState.c **** 
  71:.\SirenState.c **** /**********GLOBAL VARIABLES**********/
  72:.\SirenState.c **** 
  73:.\SirenState.c **** 
  74:.\SirenState.c **** /**********FUNCTION PROTOTYPES**********/
  75:.\SirenState.c **** static void decideTonesToPlay(void);
  76:.\SirenState.c **** static uint8 enableSpeakerForSirenTone(uint8 bSpeaker, enum ToneType toneSelection, uint8 bInputEna
  77:.\SirenState.c **** static uint8 enableSpeakersForAudioTone(uint8 bSpeaker, enum ToneType toneSelection, uint8 bInputEn
  78:.\SirenState.c **** static enum ChannelIndex getHighestPriorityChannel(uint8 bSpeakerNumber);
  79:.\SirenState.c **** static enum ToneType getAlternatingTone(enum ToneType toneSelection);
  80:.\SirenState.c **** static uint8 isTrailingTone(enum ToneType thisTone);
  81:.\SirenState.c **** static uint8 isAudioTone(enum ToneType thisTone);
  82:.\SirenState.c **** static uint8 isCommand(enum ToneType thisTone);
  83:.\SirenState.c **** static uint8 isSong(enum ToneType thisTone);
  84:.\SirenState.c **** static uint8 getBitIndex(enum BitMask maskNumber);
  85:.\SirenState.c **** 
  86:.\SirenState.c **** /**********DEFINED FUNCTIONS**********/
  87:.\SirenState.c **** /*******************************************************************************
  88:.\SirenState.c **** * Function Name: initializeToneConfigurationList
  89:.\SirenState.c **** ********************************************************************************
ARM GAS  C:\Users\faithc\AppData\Local\Temp\ccWgDYSd.s 			page 3


  90:.\SirenState.c **** *
  91:.\SirenState.c **** * Summary:
  92:.\SirenState.c **** *  Sets the configuration list to the tones saved in EEPROM
  93:.\SirenState.c **** *
  94:.\SirenState.c **** * Parameters:  
  95:.\SirenState.c **** *   None
  96:.\SirenState.c **** *
  97:.\SirenState.c **** * Return:
  98:.\SirenState.c **** *   None
  99:.\SirenState.c **** *
 100:.\SirenState.c **** *******************************************************************************/
 101:.\SirenState.c **** void initializeToneConfigurationList(void)
 102:.\SirenState.c **** {
 103:.\SirenState.c ****     uint8 bHasNoTone = false;  
 104:.\SirenState.c ****     uint8 bSpeakerIndex = SPEAKER_1;
 105:.\SirenState.c ****     uint8 channelIndex = NO_CHANNEL;   
 106:.\SirenState.c ****     uint16 addressIndex = 0;
 107:.\SirenState.c ****     
 108:.\SirenState.c ****     EEPROM_Start();   
 109:.\SirenState.c ****     
 110:.\SirenState.c ****     for(bSpeakerIndex = 0; bSpeakerIndex < SPEAKER_COUNT; bSpeakerIndex++)
 111:.\SirenState.c ****     {   //Check for indices with no tone written to it
 112:.\SirenState.c ****         for(channelIndex = 0; channelIndex < CHANNEL_COUNT_PER_SPEAKER; channelIndex++)
 113:.\SirenState.c ****         {
 114:.\SirenState.c ****             addressIndex = (uint16)(CHANNEL_COUNT_PER_SPEAKER * bSpeakerIndex + channelIndex);
 115:.\SirenState.c ****             if(EEPROM_ReadByte(addressIndex) >= TONE_TYPE_LIST_SIZE)
 116:.\SirenState.c ****             {   //Terminate loop after finding first invalid tone
 117:.\SirenState.c ****                 bHasNoTone = true;
 118:.\SirenState.c ****                 break;
 119:.\SirenState.c ****             }
 120:.\SirenState.c ****         }
 121:.\SirenState.c ****     }
 122:.\SirenState.c ****     
 123:.\SirenState.c ****     if((bHasNoTone == true) || (EEPROM_ReadByte(EEPROM_KEY_INDEX) != EEPROM_KEY_VALUE))
 124:.\SirenState.c ****     {   //Write to EEPROM 
 125:.\SirenState.c ****         EEPROM_UpdateTemperature(); //Optimizes write timings based on temperature reading 
 126:.\SirenState.c ****         
 127:.\SirenState.c ****         for(bSpeakerIndex = 0; bSpeakerIndex < SPEAKER_COUNT; bSpeakerIndex++)
 128:.\SirenState.c ****         {   //Obtain tones from EEPROM to configure channels
 129:.\SirenState.c ****             for(channelIndex = 0; channelIndex < CHANNEL_COUNT_PER_SPEAKER; channelIndex++)
 130:.\SirenState.c ****             {
 131:.\SirenState.c ****                 addressIndex = (uint16)(CHANNEL_COUNT_PER_SPEAKER * bSpeakerIndex + channelIndex);
 132:.\SirenState.c ****                 EEPROM_WriteByte(DEFAULT_CONFIGURATION_LIST[addressIndex], addressIndex);
 133:.\SirenState.c ****             }
 134:.\SirenState.c ****         }
 135:.\SirenState.c ****         
 136:.\SirenState.c ****         EEPROM_WriteByte(EEPROM_KEY_VALUE, EEPROM_KEY_INDEX);
 137:.\SirenState.c ****     }
 138:.\SirenState.c ****     
 139:.\SirenState.c ****     for(bSpeakerIndex = 0; bSpeakerIndex < SPEAKER_COUNT; bSpeakerIndex++)
 140:.\SirenState.c ****     {   //Obtain tones from EEPROM to configure channels
 141:.\SirenState.c ****         for(channelIndex = 0; channelIndex < CHANNEL_COUNT_PER_SPEAKER; channelIndex++)
 142:.\SirenState.c ****         {
 143:.\SirenState.c ****             addressIndex = (uint16)(CHANNEL_COUNT_PER_SPEAKER * bSpeakerIndex + channelIndex);
 144:.\SirenState.c ****             toneConfigurationList[bSpeakerIndex][channelIndex] = EEPROM_ReadByte(addressIndex);
 145:.\SirenState.c ****         }
 146:.\SirenState.c ****     }
ARM GAS  C:\Users\faithc\AppData\Local\Temp\ccWgDYSd.s 			page 4


 147:.\SirenState.c **** }
 148:.\SirenState.c **** 
 149:.\SirenState.c **** /*******************************************************************************
 150:.\SirenState.c **** * Function Name: enableToneInputInterrupts
 151:.\SirenState.c **** ********************************************************************************
 152:.\SirenState.c **** *
 153:.\SirenState.c **** * Summary:
 154:.\SirenState.c **** *   Enables the input interrupts that cannot be activated during Data Link
 155:.\SirenState.c **** *
 156:.\SirenState.c **** * Parameters:  
 157:.\SirenState.c **** *   None
 158:.\SirenState.c **** *
 159:.\SirenState.c **** * Return:
 160:.\SirenState.c **** *   None
 161:.\SirenState.c **** *
 162:.\SirenState.c **** *******************************************************************************/
 163:.\SirenState.c **** void enableToneInputInterrupts(void)
 164:.\SirenState.c **** {
 165:.\SirenState.c ****     TackSwitchISR_Start();
 166:.\SirenState.c ****     TackSwitchStatus_InterruptEnable();
 167:.\SirenState.c ****     
 168:.\SirenState.c ****     DualDelayISR_Start();
 169:.\SirenState.c ****     DualDelayStatus_InterruptEnable();
 170:.\SirenState.c ****     
 171:.\SirenState.c ****     ModeStatusISR_Start();
 172:.\SirenState.c **** }
 173:.\SirenState.c **** 
 174:.\SirenState.c **** /*******************************************************************************
 175:.\SirenState.c **** * Function Name: disableToneInputInterrupts
 176:.\SirenState.c **** ********************************************************************************
 177:.\SirenState.c **** *
 178:.\SirenState.c **** * Summary:
 179:.\SirenState.c **** *   Disables specific input interrupts that cannot be activated during Data Link
 180:.\SirenState.c **** *
 181:.\SirenState.c **** * Parameters:  
 182:.\SirenState.c **** *   None
 183:.\SirenState.c **** *
 184:.\SirenState.c **** * Return:
 185:.\SirenState.c **** *   None
 186:.\SirenState.c **** *
 187:.\SirenState.c **** *******************************************************************************/
 188:.\SirenState.c **** void disableToneInputInterrupts(void)
 189:.\SirenState.c **** {
 190:.\SirenState.c ****     TackSwitchStatus_InterruptDisable();
 191:.\SirenState.c ****     TackSwitchISR_Stop();
 192:.\SirenState.c ****     
 193:.\SirenState.c ****     DualDelayStatus_InterruptDisable();
 194:.\SirenState.c ****     DualDelayISR_Stop();
 195:.\SirenState.c ****     
 196:.\SirenState.c ****     ModeStatusISR_Stop();
 197:.\SirenState.c **** }
 198:.\SirenState.c **** 
 199:.\SirenState.c **** /*******************************************************************************
 200:.\SirenState.c **** * Function Name: initializeInputReadings
 201:.\SirenState.c **** ********************************************************************************
 202:.\SirenState.c **** *
 203:.\SirenState.c **** * Summary:
ARM GAS  C:\Users\faithc\AppData\Local\Temp\ccWgDYSd.s 			page 5


 204:.\SirenState.c **** *  Sets InputRead struct to current input readings at the beginning of the program
 205:.\SirenState.c **** *
 206:.\SirenState.c **** * Parameters:  
 207:.\SirenState.c **** *   None
 208:.\SirenState.c **** *
 209:.\SirenState.c **** * Return:
 210:.\SirenState.c **** *   None
 211:.\SirenState.c **** *
 212:.\SirenState.c **** *******************************************************************************/
 213:.\SirenState.c **** void initializeInputReadings(void)
 214:.\SirenState.c **** {
 215:.\SirenState.c **** 	uint8 speakerIndex = 0;
 216:.\SirenState.c **** 	
 217:.\SirenState.c ****     InputRead.bRadioAndMicKey = RadioRebroadcastInput_Read();
 218:.\SirenState.c ****     InputRead.bRadioAndMicKey |= MicKeyInput_Read();
 219:.\SirenState.c ****     InputRead.bParkKill = ParkKillStatus_Read() & 0x01;
 220:.\SirenState.c ****     InputRead.bHornRing = HornRingStatus_Read() & 0x01;
 221:.\SirenState.c **** 	
 222:.\SirenState.c **** 	for(speakerIndex = 0; speakerIndex < SPEAKER_COUNT; speakerIndex++)
 223:.\SirenState.c **** 		InputRead.highestPriorityChannel[speakerIndex] = getHighestPriorityChannel(speakerIndex);
 224:.\SirenState.c ****     
 225:.\SirenState.c ****     decideTonesToPlay();
 226:.\SirenState.c **** }
 227:.\SirenState.c **** 
 228:.\SirenState.c **** /*******************************************************************************
 229:.\SirenState.c **** * Function Name: processTackSwitchRoutine
 230:.\SirenState.c **** ********************************************************************************
 231:.\SirenState.c **** *
 232:.\SirenState.c **** * Summary:
 233:.\SirenState.c **** *  Cycles through the tones and configures the tone selection for the specified
 234:.\SirenState.c **** *  input, called in TackSwitchISR
 235:.\SirenState.c **** *
 236:.\SirenState.c **** * Parameters:  
 237:.\SirenState.c **** *   None
 238:.\SirenState.c **** *
 239:.\SirenState.c **** * Return:
 240:.\SirenState.c **** *   None
 241:.\SirenState.c **** *
 242:.\SirenState.c **** *******************************************************************************/
 243:.\SirenState.c **** void processTackSwitchRoutine(void)
 244:.\SirenState.c **** {
 245:.\SirenState.c ****     enum ToneType toneToPlay = NO_TONE;
 246:.\SirenState.c ****     uint16 addressIndex = 0;
 247:.\SirenState.c ****     uint8 channelIndex = 0;
 248:.\SirenState.c ****     uint8 bSpeakerIndex = 0;
 249:.\SirenState.c ****     
 250:.\SirenState.c ****     InputRead.bTackSwitch = TackSwitchStatus_Read() & 0x01;
 251:.\SirenState.c ****     
 252:.\SirenState.c ****     if((!InputRead.bRadioAndMicKey) && (!InputRead.bParkKill))
 253:.\SirenState.c ****     {
 254:.\SirenState.c ****         if(InputRead.bTackSwitch)
 255:.\SirenState.c ****         {
 256:.\SirenState.c ****             deactivateManualWail();
 257:.\SirenState.c **** 	        deactivateAudio();
 258:.\SirenState.c **** 			disableAudioAndPWM();
 259:.\SirenState.c ****         }
 260:.\SirenState.c ****         else
ARM GAS  C:\Users\faithc\AppData\Local\Temp\ccWgDYSd.s 			page 6


 261:.\SirenState.c ****         {   //Tack switch is disabled
 262:.\SirenState.c ****             EEPROM_UpdateTemperature(); //Optimizes write timings based on temperature reading
 263:.\SirenState.c ****             
 264:.\SirenState.c ****             for(bSpeakerIndex = 0; bSpeakerIndex < SPEAKER_COUNT; bSpeakerIndex++)
 265:.\SirenState.c ****             {   //Speaker 1 addresses range 0x00 to 0x05, Speaker 2 addresses range 0x06 to 0x0B 
 266:.\SirenState.c ****                 channelIndex = InputRead.highestPriorityChannel[bSpeakerIndex];
 267:.\SirenState.c ****                 addressIndex = (uint16)(CHANNEL_COUNT_PER_SPEAKER * bSpeakerIndex + channelIndex);
 268:.\SirenState.c ****                 
 269:.\SirenState.c ****                 if(channelIndex != NO_CHANNEL)
 270:.\SirenState.c ****                 {
 271:.\SirenState.c ****                     if(toneToPlay == NO_TONE)
 272:.\SirenState.c ****                     {   //Gets original tone for that channel as starting tone in the list         
 273:.\SirenState.c ****                         toneToPlay = EEPROM_ReadByte(addressIndex);    
 274:.\SirenState.c ****                         toneToPlay = (toneToPlay + 1) % TONE_TYPE_LIST_SIZE;  //Increments to next 
 275:.\SirenState.c ****                         
 276:.\SirenState.c ****                         if(toneToPlay == NO_TONE)
 277:.\SirenState.c ****                             toneToPlay++;  //Makes sure a tone is always selected
 278:.\SirenState.c ****                     }
 279:.\SirenState.c ****                     
 280:.\SirenState.c ****                     EEPROM_WriteByte(toneToPlay, addressIndex);
 281:.\SirenState.c **** 					toneConfigurationList[bSpeakerIndex][channelIndex] = toneToPlay;
 282:.\SirenState.c **** 					ToneStatus.previousTone[bSpeakerIndex] = ToneStatus.currentTone[bSpeakerIndex];
 283:.\SirenState.c **** 					ToneStatus.currentTone[bSpeakerIndex] = toneToPlay;
 284:.\SirenState.c **** 					ToneStatus.bRisingEdge[bSpeakerIndex] = true;
 285:.\SirenState.c ****                 }
 286:.\SirenState.c ****             }
 287:.\SirenState.c ****             
 288:.\SirenState.c ****             decideTonesToPlay();  
 289:.\SirenState.c ****         }
 290:.\SirenState.c ****     }
 291:.\SirenState.c **** }
 292:.\SirenState.c **** 
 293:.\SirenState.c **** /*******************************************************************************
 294:.\SirenState.c **** * Function Name: processRadioMicKeyRoutine
 295:.\SirenState.c **** ********************************************************************************
 296:.\SirenState.c **** *
 297:.\SirenState.c **** * Summary:
 298:.\SirenState.c **** *  Updates the siren system for the radio rebroadcast or mic key input change,
 299:.\SirenState.c **** *  called in RadioMicKeyISR
 300:.\SirenState.c **** *
 301:.\SirenState.c **** * Parameters:  
 302:.\SirenState.c **** *   None
 303:.\SirenState.c **** *
 304:.\SirenState.c **** * Return:
 305:.\SirenState.c **** *   None
 306:.\SirenState.c **** *
 307:.\SirenState.c **** *******************************************************************************/
 308:.\SirenState.c **** void processRadioMicKeyRoutine(void)
 309:.\SirenState.c **** {
 310:.\SirenState.c **** 	uint8 speakerIndex = 0;
 311:.\SirenState.c **** 	
 312:.\SirenState.c ****     InputRead.bRadioAndMicKey = RadioRebroadcastInput_Read() ||  MicKeyInput_Read();
 313:.\SirenState.c ****     
 314:.\SirenState.c ****     if(InputRead.bRadioAndMicKey)
 315:.\SirenState.c ****     {
 316:.\SirenState.c **** 		deactivateManualWail(); //Deactivate tones and leave one power amp on
 317:.\SirenState.c ****         deactivateAudio();
ARM GAS  C:\Users\faithc\AppData\Local\Temp\ccWgDYSd.s 			page 7


 318:.\SirenState.c **** 		PowerAmpOutput1_Write(true);
 319:.\SirenState.c ****         PowerAmpOutput2_Write(false);
 320:.\SirenState.c **** 		
 321:.\SirenState.c **** 		for(speakerIndex = 0; speakerIndex < SPEAKER_COUNT; speakerIndex++)
 322:.\SirenState.c **** 		{
 323:.\SirenState.c **** 			stopPWMTone(speakerIndex);
 324:.\SirenState.c **** 			stopAudioTone(speakerIndex);
 325:.\SirenState.c ****             ToneStatus.bRisingEdge[speakerIndex] = false;
 326:.\SirenState.c **** 		}
 327:.\SirenState.c ****     }
 328:.\SirenState.c **** 	else
 329:.\SirenState.c **** 		decideTonesToPlay();
 330:.\SirenState.c **** }
 331:.\SirenState.c **** 
 332:.\SirenState.c **** /*******************************************************************************
 333:.\SirenState.c **** * Function Name: processParkKillRoutine
 334:.\SirenState.c **** ********************************************************************************
 335:.\SirenState.c **** *
 336:.\SirenState.c **** * Summary:
 337:.\SirenState.c **** *  Updates the siren system for the park kill input change, called in ParkKillISR
 338:.\SirenState.c **** *
 339:.\SirenState.c **** * Parameters:  
 340:.\SirenState.c **** *   None
 341:.\SirenState.c **** *
 342:.\SirenState.c **** * Return:
 343:.\SirenState.c **** *   None
 344:.\SirenState.c **** *
 345:.\SirenState.c **** *******************************************************************************/
 346:.\SirenState.c **** void processParkKillRoutine(void)
 347:.\SirenState.c **** {
 348:.\SirenState.c ****     InputRead.bParkKill = ParkKillStatus_Read() & 0x01;    
 349:.\SirenState.c ****     decideTonesToPlay();
 350:.\SirenState.c **** }
 351:.\SirenState.c **** 
 352:.\SirenState.c **** /*******************************************************************************
 353:.\SirenState.c **** * Function Name: processHornRingRoutine
 354:.\SirenState.c **** ********************************************************************************
 355:.\SirenState.c **** *
 356:.\SirenState.c **** * Summary:
 357:.\SirenState.c **** *  Updates the siren system for the horn input change, called in HornRingISR
 358:.\SirenState.c **** *
 359:.\SirenState.c **** * Parameters:  
 360:.\SirenState.c **** *   None
 361:.\SirenState.c **** *
 362:.\SirenState.c **** * Return:
 363:.\SirenState.c **** *   None
 364:.\SirenState.c **** *
 365:.\SirenState.c **** *******************************************************************************/
 366:.\SirenState.c **** void processHornRingRoutine(void)
 367:.\SirenState.c **** {
 368:.\SirenState.c ****     InputRead.bHornRing = HornRingStatus_Read() & 0x01;
 369:.\SirenState.c ****     decideTonesToPlay();
 370:.\SirenState.c **** }
 371:.\SirenState.c **** 
 372:.\SirenState.c **** /*******************************************************************************
 373:.\SirenState.c **** * Function Name: processDualDelayRoutine
 374:.\SirenState.c **** ********************************************************************************
ARM GAS  C:\Users\faithc\AppData\Local\Temp\ccWgDYSd.s 			page 8


 375:.\SirenState.c **** *
 376:.\SirenState.c **** * Summary:
 377:.\SirenState.c **** *  Activates delay functionality for the two current tones, called in DualDelayISR
 378:.\SirenState.c **** *
 379:.\SirenState.c **** * Parameters:  
 380:.\SirenState.c **** *   None
 381:.\SirenState.c **** *
 382:.\SirenState.c **** * Return:
 383:.\SirenState.c **** *   None
 384:.\SirenState.c **** *
 385:.\SirenState.c **** *******************************************************************************/
 386:.\SirenState.c **** void processDualDelayRoutine(void)
 387:.\SirenState.c **** {
 388:.\SirenState.c ****     InputRead.bDualDelay = DualDelayStatus_Read() & 0x01;
 389:.\SirenState.c ****     ToneStatus.bDualDelayEnable = InputRead.bDualDelay;
 390:.\SirenState.c ****     decideTonesToPlay();
 391:.\SirenState.c **** }
 392:.\SirenState.c **** 
 393:.\SirenState.c **** /*******************************************************************************
 394:.\SirenState.c **** * Function Name: processToneChangeRoutine
 395:.\SirenState.c **** ********************************************************************************
 396:.\SirenState.c **** *
 397:.\SirenState.c **** * Summary:
 398:.\SirenState.c **** *  Updates the siren system for the tone input change, called in ModeStatusISR
 399:.\SirenState.c **** *
 400:.\SirenState.c **** * Parameters:  
 401:.\SirenState.c **** *   None
 402:.\SirenState.c **** *
 403:.\SirenState.c **** * Return:
 404:.\SirenState.c **** *   None
 405:.\SirenState.c **** *
 406:.\SirenState.c **** *******************************************************************************/
 407:.\SirenState.c **** void processToneChangeRoutine(void)
 408:.\SirenState.c **** {  
 409:.\SirenState.c ****     static uint8 previousChannels[SPEAKER_COUNT];
 410:.\SirenState.c ****     uint8 currentChannels[SPEAKER_COUNT];
 411:.\SirenState.c ****     uint8 changeStatus[SPEAKER_COUNT];
 412:.\SirenState.c ****     uint8 changedChannel[SPEAKER_COUNT];
 413:.\SirenState.c ****     uint8 speakerIndex = 0;
 414:.\SirenState.c **** 	uint8 priorityChannel = 0;
 415:.\SirenState.c ****     
 416:.\SirenState.c ****     currentChannels[SPEAKER_1] = ModeStatus_Read();
 417:.\SirenState.c ****     currentChannels[SPEAKER_2] = ModeStatus2_Read();
 418:.\SirenState.c ****     
 419:.\SirenState.c ****     for(speakerIndex = 0; speakerIndex < SPEAKER_COUNT; speakerIndex++)
 420:.\SirenState.c ****     {
 421:.\SirenState.c ****         changeStatus[speakerIndex] =
 422:.\SirenState.c ****             previousChannels[speakerIndex] ^ currentChannels[speakerIndex];
 423:.\SirenState.c **** 			
 424:.\SirenState.c **** 		changedChannel[speakerIndex] = getBitIndex(changeStatus[speakerIndex]);
 425:.\SirenState.c **** 		InputRead.highestPriorityChannel[speakerIndex] = getHighestPriorityChannel(speakerIndex);
 426:.\SirenState.c **** 		priorityChannel = InputRead.highestPriorityChannel[speakerIndex];
 427:.\SirenState.c **** 			
 428:.\SirenState.c **** 		if(changeStatus[speakerIndex] & currentChannels[speakerIndex])
 429:.\SirenState.c **** 			ToneStatus.bRisingEdge[speakerIndex] = true;
 430:.\SirenState.c **** 		else
 431:.\SirenState.c ****         {
ARM GAS  C:\Users\faithc\AppData\Local\Temp\ccWgDYSd.s 			page 9


 432:.\SirenState.c ****             if((priorityChannel == NO_CHANNEL) || ((changedChannel[speakerIndex] != NO_CHANNEL) && 
 433:.\SirenState.c ****                 (priorityChannel < changedChannel[speakerIndex])))
 434:.\SirenState.c **** 			    ToneStatus.bRisingEdge[speakerIndex] = false;
 435:.\SirenState.c ****         }
 436:.\SirenState.c **** 		
 437:.\SirenState.c ****         previousChannels[speakerIndex] = currentChannels[speakerIndex];
 438:.\SirenState.c **** 		ToneStatus.previousTone[speakerIndex] = ToneStatus.currentTone[speakerIndex];	
 439:.\SirenState.c **** 		
 440:.\SirenState.c **** 		if(priorityChannel != NO_CHANNEL)
 441:.\SirenState.c **** 			ToneStatus.currentTone[speakerIndex] = toneConfigurationList[speakerIndex][priorityChannel];
 442:.\SirenState.c **** 		else
 443:.\SirenState.c **** 			ToneStatus.currentTone[speakerIndex] = NO_TONE;
 444:.\SirenState.c ****     }
 445:.\SirenState.c **** 	
 446:.\SirenState.c **** 	decideTonesToPlay();
 447:.\SirenState.c **** }
 448:.\SirenState.c **** 
 449:.\SirenState.c **** /*******************************************************************************
 450:.\SirenState.c **** * Function Name: setTonesWithCommunication
 451:.\SirenState.c **** ********************************************************************************
 452:.\SirenState.c **** *
 453:.\SirenState.c **** * Summary:
 454:.\SirenState.c **** *   Called during Data Link to update the tone using the data from the Controller
 455:.\SirenState.c **** *
 456:.\SirenState.c **** * Parameters:  
 457:.\SirenState.c **** *   firstTone: The tone selection for Speaker 1
 458:.\SirenState.c **** *   secondTone: The tone selection for Speaker 2
 459:.\SirenState.c **** *   bDualDelay: The Dual Delay status from the Controller
 460:.\SirenState.c **** *
 461:.\SirenState.c **** * Return:
 462:.\SirenState.c **** *   TRUE for valid inputs, FALSE otherwise
 463:.\SirenState.c **** *
 464:.\SirenState.c **** *******************************************************************************/
 465:.\SirenState.c **** uint8 setTonesWithCommunication(enum ToneType firstTone, enum ToneType secondTone,
 466:.\SirenState.c ****                                 uint8 bDualDelay)
 467:.\SirenState.c **** {
 468:.\SirenState.c ****     uint8 speakerIndex = 0;
 469:.\SirenState.c ****     uint8 bDualDelayChange = false;
 470:.\SirenState.c ****     
 471:.\SirenState.c ****     if((firstTone < NO_TONE) || (firstTone > TEST_TONE))
 472:.\SirenState.c ****         return false;
 473:.\SirenState.c ****     
 474:.\SirenState.c ****     if((secondTone < NO_TONE) || (secondTone > TEST_TONE))
 475:.\SirenState.c ****         return false;
 476:.\SirenState.c ****     
 477:.\SirenState.c ****     if((bDualDelay != true) && (bDualDelay != false))
 478:.\SirenState.c ****         return false;
 479:.\SirenState.c ****     
 480:.\SirenState.c ****     ToneStatus.previousTone[SPEAKER_1] = ToneStatus.currentTone[SPEAKER_1];
 481:.\SirenState.c ****     ToneStatus.previousTone[SPEAKER_2] = ToneStatus.currentTone[SPEAKER_2];
 482:.\SirenState.c ****     ToneStatus.currentTone[SPEAKER_1] = firstTone;
 483:.\SirenState.c ****     ToneStatus.currentTone[SPEAKER_2] = secondTone;
 484:.\SirenState.c ****     
 485:.\SirenState.c ****     if(bDualDelay != ToneStatus.bDualDelayEnable)
 486:.\SirenState.c ****         bDualDelayChange = true;
 487:.\SirenState.c ****     
 488:.\SirenState.c ****     ToneStatus.bDualDelayEnable = bDualDelay;
ARM GAS  C:\Users\faithc\AppData\Local\Temp\ccWgDYSd.s 			page 10


 489:.\SirenState.c ****     
 490:.\SirenState.c ****     for(speakerIndex = 0; speakerIndex < SPEAKER_COUNT; speakerIndex++)
 491:.\SirenState.c ****     {
 492:.\SirenState.c ****         if((ToneStatus.previousTone[speakerIndex] == NO_TONE) &&
 493:.\SirenState.c ****             (ToneStatus.currentTone[speakerIndex] != NO_TONE))
 494:.\SirenState.c ****             ToneStatus.bRisingEdge[speakerIndex] = true;
 495:.\SirenState.c ****         else if((ToneStatus.previousTone[speakerIndex] != NO_TONE) &&
 496:.\SirenState.c ****             (ToneStatus.currentTone[speakerIndex] == NO_TONE))
 497:.\SirenState.c ****             ToneStatus.bRisingEdge[speakerIndex] = false;
 498:.\SirenState.c ****     }
 499:.\SirenState.c ****     
 500:.\SirenState.c ****     if((ToneStatus.previousTone[SPEAKER_1] != ToneStatus.currentTone[SPEAKER_1]) ||
 501:.\SirenState.c ****         (ToneStatus.previousTone[SPEAKER_2] != ToneStatus.currentTone[SPEAKER_2]) ||
 502:.\SirenState.c ****         (bDualDelayChange == true))
 503:.\SirenState.c ****         decideTonesToPlay();
 504:.\SirenState.c ****     
 505:.\SirenState.c ****     return true;
 506:.\SirenState.c **** }
 507:.\SirenState.c **** 
 508:.\SirenState.c **** /*******************************************************************************
 509:.\SirenState.c **** * Function Name: disableAudioAndPWM
 510:.\SirenState.c **** ********************************************************************************
 511:.\SirenState.c **** *
 512:.\SirenState.c **** * Summary:
 513:.\SirenState.c **** *   Disables the DAC and PWM for both speakers, typically called before the Power
 514:.\SirenState.c **** *   Amps are disabled for a clear shut down
 515:.\SirenState.c **** *
 516:.\SirenState.c **** * Parameters: 
 517:.\SirenState.c **** *   None
 518:.\SirenState.c **** *
 519:.\SirenState.c **** * Return:
 520:.\SirenState.c **** *   None
 521:.\SirenState.c **** *
 522:.\SirenState.c **** *******************************************************************************/
 523:.\SirenState.c **** void disableAudioAndPWM(void)
 524:.\SirenState.c **** {
 525:.\SirenState.c **** 	stopPWMTone(SPEAKER_1);
 526:.\SirenState.c ****     stopPWMTone(SPEAKER_2);
 527:.\SirenState.c ****     stopAudioTone(SPEAKER_1);
 528:.\SirenState.c ****     stopAudioTone(SPEAKER_2);
 529:.\SirenState.c **** }
 530:.\SirenState.c **** 
 531:.\SirenState.c **** /*******************************************************************************
 532:.\SirenState.c **** * Function Name: disableBothSpeakers
 533:.\SirenState.c **** ********************************************************************************
 534:.\SirenState.c **** *
 535:.\SirenState.c **** * Summary:
 536:.\SirenState.c **** *   Disables the Power Amps and updates the PWM and DAC status to play no tone
 537:.\SirenState.c **** *   for both speakers, typically called after the DAC and PWM are disabled.
 538:.\SirenState.c **** *
 539:.\SirenState.c **** * Parameters: 
 540:.\SirenState.c **** *   None
 541:.\SirenState.c **** *
 542:.\SirenState.c **** * Return:
 543:.\SirenState.c **** *   None
 544:.\SirenState.c **** *
 545:.\SirenState.c **** *******************************************************************************/
ARM GAS  C:\Users\faithc\AppData\Local\Temp\ccWgDYSd.s 			page 11


 546:.\SirenState.c **** void disableBothSpeakers(void)
 547:.\SirenState.c **** {
 548:.\SirenState.c **** 	deactivateManualWail();
 549:.\SirenState.c **** 	deactivateAudio();
 550:.\SirenState.c **** 	PowerAmpOutput1_Write(false);
 551:.\SirenState.c **** 	PowerAmpOutput2_Write(false);
 552:.\SirenState.c ****     playAudioTone(SPEAKER_1, NO_TONE, false);
 553:.\SirenState.c ****     playAudioTone(SPEAKER_2, NO_TONE, false);
 554:.\SirenState.c ****     playPWMTone(SPEAKER_1, NO_TONE, false, false);
 555:.\SirenState.c ****     playPWMTone(SPEAKER_2, NO_TONE, false, false);
 556:.\SirenState.c **** }
 557:.\SirenState.c **** 
 558:.\SirenState.c **** /*******************************************************************************
 559:.\SirenState.c **** * Function Name: decideTonesToPlay
 560:.\SirenState.c **** ********************************************************************************
 561:.\SirenState.c **** *
 562:.\SirenState.c **** * Summary:
 563:.\SirenState.c **** *  The state machine that determines the tone outcome for each speaker.
 564:.\SirenState.c **** *
 565:.\SirenState.c **** * Parameters:  
 566:.\SirenState.c **** *   None
 567:.\SirenState.c **** *
 568:.\SirenState.c **** * Return:
 569:.\SirenState.c **** *   None
 570:.\SirenState.c **** *
 571:.\SirenState.c **** *******************************************************************************/
 572:.\SirenState.c **** static void decideTonesToPlay(void)
 573:.\SirenState.c **** {
 574:.\SirenState.c **** 	static uint8 bToneChangeOnHornRing = false;
 575:.\SirenState.c ****     
 576:.\SirenState.c ****     disableAudioAndPWM();
 577:.\SirenState.c ****     
 578:.\SirenState.c ****     if(InputRead.bRadioAndMicKey)
 579:.\SirenState.c ****         return;	
 580:.\SirenState.c ****     
 581:.\SirenState.c **** 	if(ToneStatus.currentTone[SPEAKER_1] != NO_TONE)
 582:.\SirenState.c **** 	{
 583:.\SirenState.c **** 		if(isAudioTone(ToneStatus.currentTone[SPEAKER_1]))
 584:.\SirenState.c **** 		{
 585:.\SirenState.c **** 			if(isSong(ToneStatus.currentTone[SPEAKER_1]))
 586:.\SirenState.c **** 			{
 587:.\SirenState.c **** 				if(ToneStatus.bRisingEdge[SPEAKER_1])	//Plays BAD BOYS	
 588:.\SirenState.c **** 					enableSpeakersForAudioTone(SPEAKER_1, ToneStatus.currentTone[SPEAKER_1], true);
 589:.\SirenState.c **** 				else	//Plays NO TONE
 590:.\SirenState.c **** 					disableBothSpeakers();
 591:.\SirenState.c **** 				
 592:.\SirenState.c **** 			}
 593:.\SirenState.c **** 			else	//Plays ECTO OR COMMAND 
 594:.\SirenState.c **** 				enableSpeakersForAudioTone(SPEAKER_1, ToneStatus.currentTone[SPEAKER_1], true);
 595:.\SirenState.c **** 		}
 596:.\SirenState.c **** 		else
 597:.\SirenState.c **** 		{	
 598:.\SirenState.c ****             if(isAudioTone(ToneStatus.currentTone[SPEAKER_2]))
 599:.\SirenState.c ****     		{
 600:.\SirenState.c ****     			if(isSong(ToneStatus.currentTone[SPEAKER_2]))
 601:.\SirenState.c ****     			{
 602:.\SirenState.c ****     				if(ToneStatus.bRisingEdge[SPEAKER_2])	//Plays BAD BOYS	
ARM GAS  C:\Users\faithc\AppData\Local\Temp\ccWgDYSd.s 			page 12


 603:.\SirenState.c ****     					enableSpeakersForAudioTone(SPEAKER_2, ToneStatus.currentTone[SPEAKER_2], true);
 604:.\SirenState.c ****     				else	//Plays NO TONE
 605:.\SirenState.c ****     					disableBothSpeakers();
 606:.\SirenState.c ****     				
 607:.\SirenState.c ****     			}
 608:.\SirenState.c ****     			else	//Plays ECTO OR COMMAND 
 609:.\SirenState.c ****     				enableSpeakersForAudioTone(SPEAKER_2, ToneStatus.currentTone[SPEAKER_2], true);
 610:.\SirenState.c ****     		}
 611:.\SirenState.c **** 			else if(InputRead.bParkKill)	//Plays NO TONE
 612:.\SirenState.c **** 				disableBothSpeakers();
 613:.\SirenState.c **** 			else if(InputRead.bHornRing)
 614:.\SirenState.c **** 			{	//Plays NO TONE
 615:.\SirenState.c **** 				bToneChangeOnHornRing = !bToneChangeOnHornRing;
 616:.\SirenState.c **** 				disableBothSpeakers();
 617:.\SirenState.c **** 			}
 618:.\SirenState.c **** 			else if(bToneChangeOnHornRing)
 619:.\SirenState.c **** 			{	//Plays SPEAKER 1 SIREN TONE
 620:.\SirenState.c **** 				enableSpeakerForSirenTone(SPEAKER_1, getAlternatingTone(ToneStatus.currentTone[SPEAKER_1]), 
 621:.\SirenState.c ****                     true, ToneStatus.bDualDelayEnable);
 622:.\SirenState.c **** 				
 623:.\SirenState.c **** 				if(ToneStatus.currentTone[SPEAKER_2] != NO_TONE)
 624:.\SirenState.c **** 					enableSpeakerForSirenTone(SPEAKER_2, getAlternatingTone(ToneStatus.currentTone[SPEAKER_2]), 
 625:.\SirenState.c ****                         true, ToneStatus.bDualDelayEnable);
 626:.\SirenState.c **** 				else
 627:.\SirenState.c ****                 {
 628:.\SirenState.c ****                     PowerAmpOutput2_Write(false);
 629:.\SirenState.c ****                     enableSpeakerForSirenTone(SPEAKER_2, NO_TONE, false, ToneStatus.bDualDelayEnabl
 630:.\SirenState.c ****                 }
 631:.\SirenState.c **** 			}
 632:.\SirenState.c **** 			else
 633:.\SirenState.c **** 			{	//Plays SPEAKER 1 SIREN TONE
 634:.\SirenState.c **** 				enableSpeakerForSirenTone(SPEAKER_1, ToneStatus.currentTone[SPEAKER_1],
 635:.\SirenState.c ****                     true, ToneStatus.bDualDelayEnable);
 636:.\SirenState.c **** 				
 637:.\SirenState.c **** 				if(ToneStatus.currentTone[SPEAKER_2] != NO_TONE)
 638:.\SirenState.c **** 					enableSpeakerForSirenTone(SPEAKER_2, ToneStatus.currentTone[SPEAKER_2],
 639:.\SirenState.c ****                         true, ToneStatus.bDualDelayEnable);
 640:.\SirenState.c **** 				else
 641:.\SirenState.c ****                 {
 642:.\SirenState.c **** 				    PowerAmpOutput2_Write(false);
 643:.\SirenState.c ****                     enableSpeakerForSirenTone(SPEAKER_2, NO_TONE, false, ToneStatus.bDualDelayEnabl
 644:.\SirenState.c ****                 }
 645:.\SirenState.c **** 			}
 646:.\SirenState.c **** 		}
 647:.\SirenState.c **** 	}
 648:.\SirenState.c **** 	else if(ToneStatus.currentTone[SPEAKER_2] != NO_TONE)
 649:.\SirenState.c **** 	{
 650:.\SirenState.c **** 		if(isAudioTone(ToneStatus.currentTone[SPEAKER_2]))
 651:.\SirenState.c **** 		{
 652:.\SirenState.c **** 			if(isSong(ToneStatus.currentTone[SPEAKER_2]))
 653:.\SirenState.c **** 			{
 654:.\SirenState.c **** 				if(ToneStatus.bRisingEdge[SPEAKER_2])	//Plays BAD BOYS	
 655:.\SirenState.c **** 					enableSpeakersForAudioTone(SPEAKER_2, ToneStatus.currentTone[SPEAKER_2], true);
 656:.\SirenState.c **** 				else	//Plays NO TONE
 657:.\SirenState.c **** 					disableBothSpeakers();
 658:.\SirenState.c **** 				
 659:.\SirenState.c **** 			}
ARM GAS  C:\Users\faithc\AppData\Local\Temp\ccWgDYSd.s 			page 13


 660:.\SirenState.c **** 			else	//Plays ECTO OR COMMAND 
 661:.\SirenState.c **** 				enableSpeakersForAudioTone(SPEAKER_2, ToneStatus.currentTone[SPEAKER_2], true);
 662:.\SirenState.c **** 		}
 663:.\SirenState.c **** 		else
 664:.\SirenState.c **** 		{	
 665:.\SirenState.c **** 			if(InputRead.bParkKill)	//Plays NO TONE
 666:.\SirenState.c **** 				disableBothSpeakers();
 667:.\SirenState.c **** 			else if(InputRead.bHornRing)
 668:.\SirenState.c **** 			{	//Plays NO TONE
 669:.\SirenState.c **** 				bToneChangeOnHornRing = !bToneChangeOnHornRing;
 670:.\SirenState.c **** 				disableBothSpeakers();
 671:.\SirenState.c **** 			}
 672:.\SirenState.c **** 			else if(bToneChangeOnHornRing)
 673:.\SirenState.c **** 			{	//Plays SPEAKER 2 SIREN TONE
 674:.\SirenState.c **** 				PowerAmpOutput1_Write(false);
 675:.\SirenState.c ****                 enableSpeakerForSirenTone(SPEAKER_1, NO_TONE, false, ToneStatus.bDualDelayEnable);
 676:.\SirenState.c **** 				enableSpeakerForSirenTone(SPEAKER_2, getAlternatingTone(ToneStatus.currentTone[SPEAKER_2]),
 677:.\SirenState.c ****                     true, InputRead.bDualDelay);
 678:.\SirenState.c **** 			}
 679:.\SirenState.c **** 			else
 680:.\SirenState.c **** 			{	//Plays SPEAKER 2 SIREN TONE
 681:.\SirenState.c **** 				PowerAmpOutput1_Write(false);
 682:.\SirenState.c ****                 enableSpeakerForSirenTone(SPEAKER_1, NO_TONE, false, ToneStatus.bDualDelayEnable);
 683:.\SirenState.c **** 				enableSpeakerForSirenTone(SPEAKER_2, ToneStatus.currentTone[SPEAKER_2],
 684:.\SirenState.c ****                     true, InputRead.bDualDelay);
 685:.\SirenState.c **** 			}
 686:.\SirenState.c **** 		}
 687:.\SirenState.c **** 	}
 688:.\SirenState.c **** 	else
 689:.\SirenState.c **** 	{	
 690:.\SirenState.c ****         if(InputRead.bParkKill)
 691:.\SirenState.c ****             disableBothSpeakers();
 692:.\SirenState.c ****         else
 693:.\SirenState.c ****         {
 694:.\SirenState.c ****     		if(InputRead.bHornRing)
 695:.\SirenState.c ****     		{	//Plays HORN
 696:.\SirenState.c ****     			bToneChangeOnHornRing = false;
 697:.\SirenState.c ****     			deactivateManualWail();
 698:.\SirenState.c ****     			enableSpeakerForSirenTone(SPEAKER_1, HORN, false, false);
 699:.\SirenState.c ****     			enableSpeakerForSirenTone(SPEAKER_2, HORN, false, false);
 700:.\SirenState.c ****     		}
 701:.\SirenState.c ****     		else if(isTrailingTone(ToneStatus.previousTone[SPEAKER_1]))
 702:.\SirenState.c ****     		{
 703:.\SirenState.c ****     			if(isAudioTone(ToneStatus.previousTone[SPEAKER_1]))	//Plays ECTO or COMMAND	
 704:.\SirenState.c ****     				enableSpeakersForAudioTone(SPEAKER_1, ToneStatus.previousTone[SPEAKER_1], false);
 705:.\SirenState.c ****     			else	//Plays MANUAL WAIL
 706:.\SirenState.c ****     				enableSpeakerForSirenTone(SPEAKER_1, ToneStatus.previousTone[SPEAKER_1], false, false);	
 707:.\SirenState.c ****                 
 708:.\SirenState.c ****                 ToneStatus.previousTone[SPEAKER_1] = NO_TONE;
 709:.\SirenState.c ****                 bToneChangeOnHornRing = false;
 710:.\SirenState.c ****     		}
 711:.\SirenState.c ****     		else if(isTrailingTone(ToneStatus.previousTone[SPEAKER_2]))
 712:.\SirenState.c ****     		{
 713:.\SirenState.c ****     			if(isAudioTone(ToneStatus.previousTone[SPEAKER_2]))	//Plays ECTO or COMMAND	
 714:.\SirenState.c ****     				enableSpeakersForAudioTone(SPEAKER_2, ToneStatus.previousTone[SPEAKER_2], false);	
 715:.\SirenState.c ****     			else	//Plays MANUAL WAIL	
 716:.\SirenState.c ****     				enableSpeakerForSirenTone(SPEAKER_2, ToneStatus.previousTone[SPEAKER_2], false, false);	
ARM GAS  C:\Users\faithc\AppData\Local\Temp\ccWgDYSd.s 			page 14


 717:.\SirenState.c ****                     
 718:.\SirenState.c ****                 ToneStatus.previousTone[SPEAKER_2] = NO_TONE;
 719:.\SirenState.c ****                 bToneChangeOnHornRing = false;
 720:.\SirenState.c ****     		}
 721:.\SirenState.c ****     		else	//Plays NO TONE
 722:.\SirenState.c ****             {
 723:.\SirenState.c ****                 bToneChangeOnHornRing = false;
 724:.\SirenState.c ****     			disableBothSpeakers();
 725:.\SirenState.c ****             }
 726:.\SirenState.c ****         }
 727:.\SirenState.c **** 	}
 728:.\SirenState.c **** }
 729:.\SirenState.c **** 
 730:.\SirenState.c **** /*******************************************************************************
 731:.\SirenState.c **** * Function Name: enableSpeakerForSirenTone
 732:.\SirenState.c **** ********************************************************************************
 733:.\SirenState.c **** *
 734:.\SirenState.c **** * Summary:
 735:.\SirenState.c **** *   Procedure for enabling a siren tone for the selected speaker
 736:.\SirenState.c **** *
 737:.\SirenState.c **** * Parameters: 
 738:.\SirenState.c **** *   bSpeaker: Speaker selection (SPEAKER_1 or SPEAKER_2)
 739:.\SirenState.c **** *   toneSelection: The tone to play
 740:.\SirenState.c **** *   bInputEnable: The current input status
 741:.\SirenState.c **** *   bDelay: The Dual Delay status
 742:.\SirenState.c **** *
 743:.\SirenState.c **** * Return:
 744:.\SirenState.c **** *   TRUE for valid inputs, FALSE otherwise
 745:.\SirenState.c **** *
 746:.\SirenState.c **** *******************************************************************************/
 747:.\SirenState.c **** static uint8 enableSpeakerForSirenTone(uint8 bSpeaker, enum ToneType toneSelection,
 748:.\SirenState.c ****                                     uint8 bInputEnable, uint8 bDelay)
 749:.\SirenState.c **** {
 750:.\SirenState.c **** 	if((bSpeaker != SPEAKER_1) && (bSpeaker != SPEAKER_2))
 751:.\SirenState.c ****         return false;
 752:.\SirenState.c ****     
 753:.\SirenState.c ****     if((toneSelection < NO_TONE) || (toneSelection > TEST_TONE))
 754:.\SirenState.c ****         return false;
 755:.\SirenState.c ****     
 756:.\SirenState.c ****     if((bInputEnable != true) && (bInputEnable != false))
 757:.\SirenState.c ****         return false;
 758:.\SirenState.c ****     
 759:.\SirenState.c ****     deactivateAudio();
 760:.\SirenState.c ****     playAudioTone(bSpeaker, NO_TONE, false);
 761:.\SirenState.c **** 	playPWMTone(bSpeaker, toneSelection, bInputEnable, bDelay);
 762:.\SirenState.c **** 	
 763:.\SirenState.c ****     if(toneSelection != NO_TONE)
 764:.\SirenState.c ****     {
 765:.\SirenState.c ****     	if(bSpeaker)
 766:.\SirenState.c ****     		PowerAmpOutput2_Write(true);
 767:.\SirenState.c ****     	else
 768:.\SirenState.c ****     		PowerAmpOutput1_Write(true);
 769:.\SirenState.c ****     }
 770:.\SirenState.c ****         
 771:.\SirenState.c ****     return true;
 772:.\SirenState.c **** }
 773:.\SirenState.c **** 
ARM GAS  C:\Users\faithc\AppData\Local\Temp\ccWgDYSd.s 			page 15


 774:.\SirenState.c **** /*******************************************************************************
 775:.\SirenState.c **** * Function Name: enableSpeakersForAudioTone
 776:.\SirenState.c **** ********************************************************************************
 777:.\SirenState.c **** *
 778:.\SirenState.c **** * Summary:
 779:.\SirenState.c **** *   Procedure for enabling an audio tone for the selected speaker
 780:.\SirenState.c **** *
 781:.\SirenState.c **** * Parameters: 
 782:.\SirenState.c **** *   bSpeaker: Speaker selection (SPEAKER_1 or SPEAKER_2)
 783:.\SirenState.c **** *   toneSelection: The tone to play
 784:.\SirenState.c **** *   bInputEnable: The current input status
 785:.\SirenState.c **** *
 786:.\SirenState.c **** * Return:
 787:.\SirenState.c **** *   TRUE for valid inputs, FALSE otherwise
 788:.\SirenState.c **** *
 789:.\SirenState.c **** *******************************************************************************/
 790:.\SirenState.c **** static uint8 enableSpeakersForAudioTone(uint8 bSpeaker, enum ToneType toneSelection,
 791:.\SirenState.c ****                                         uint8 bInputEnable)
 792:.\SirenState.c **** {
 793:.\SirenState.c **** 	if((bSpeaker != SPEAKER_1) && (bSpeaker != SPEAKER_2))
 794:.\SirenState.c ****         return false;
 795:.\SirenState.c ****     
 796:.\SirenState.c ****     if((toneSelection < WAIL) || (toneSelection > TEST_TONE))
 797:.\SirenState.c ****         return false;
 798:.\SirenState.c ****     
 799:.\SirenState.c ****     if((bInputEnable != true) && (bInputEnable != false))
 800:.\SirenState.c ****         return false;
 801:.\SirenState.c ****     
 802:.\SirenState.c ****     deactivateManualWail();
 803:.\SirenState.c ****     playPWMTone(bSpeaker, NO_TONE, false, false);
 804:.\SirenState.c **** 	playAudioTone(bSpeaker, toneSelection, bInputEnable);
 805:.\SirenState.c **** 	PowerAmpOutput1_Write(true);
 806:.\SirenState.c **** 	PowerAmpOutput2_Write(true);
 807:.\SirenState.c ****     
 808:.\SirenState.c ****     return true;
 809:.\SirenState.c **** }
 810:.\SirenState.c **** 
 811:.\SirenState.c **** /*******************************************************************************
 812:.\SirenState.c **** * Function Name: getHighestPriorityInput
 813:.\SirenState.c **** ********************************************************************************
 814:.\SirenState.c **** *
 815:.\SirenState.c **** * Summary:
 816:.\SirenState.c **** *  Determines the active tone with the highest priority
 817:.\SirenState.c **** *
 818:.\SirenState.c **** * Parameters: 
 819:.\SirenState.c **** *   bSpeakerNumber - The speaker selection for the input reading
 820:.\SirenState.c **** *
 821:.\SirenState.c **** * Return:
 822:.\SirenState.c **** *   The active tone mode with the highest priority
 823:.\SirenState.c **** *
 824:.\SirenState.c **** *******************************************************************************/
 825:.\SirenState.c **** static enum ChannelIndex getHighestPriorityChannel(uint8 bSpeakerNumber)
 826:.\SirenState.c **** {
 827:.\SirenState.c ****     uint8 modeStatusByte = 0;
 828:.\SirenState.c ****     
 829:.\SirenState.c ****     if((bSpeakerNumber != SPEAKER_1) && (bSpeakerNumber != SPEAKER_2))
 830:.\SirenState.c ****         return NO_CHANNEL;
ARM GAS  C:\Users\faithc\AppData\Local\Temp\ccWgDYSd.s 			page 16


 831:.\SirenState.c ****     
 832:.\SirenState.c ****     if(bSpeakerNumber)
 833:.\SirenState.c ****         modeStatusByte = ModeStatus2_Read();
 834:.\SirenState.c ****     else
 835:.\SirenState.c ****         modeStatusByte = ModeStatus_Read();
 836:.\SirenState.c ****     
 837:.\SirenState.c ****     if(modeStatusByte & 0x20)
 838:.\SirenState.c ****         return CHANNEL_6;
 839:.\SirenState.c ****     if(modeStatusByte & 0x10)
 840:.\SirenState.c ****         return CHANNEL_5;
 841:.\SirenState.c ****     if(modeStatusByte & 0x08)
 842:.\SirenState.c ****         return CHANNEL_4;
 843:.\SirenState.c ****     if(modeStatusByte & 0x04)
 844:.\SirenState.c ****         return CHANNEL_3;    
 845:.\SirenState.c ****     if(modeStatusByte & 0x02)
 846:.\SirenState.c ****         return CHANNEL_2;
 847:.\SirenState.c ****     if(modeStatusByte & 0x01)
 848:.\SirenState.c ****         return CHANNEL_1;
 849:.\SirenState.c ****     
 850:.\SirenState.c ****     return NO_CHANNEL;
 851:.\SirenState.c **** }
 852:.\SirenState.c **** 
 853:.\SirenState.c **** /*******************************************************************************
 854:.\SirenState.c **** * Function Name: getAlternatingTone
 855:.\SirenState.c **** ********************************************************************************
 856:.\SirenState.c **** *
 857:.\SirenState.c **** * Summary:
 858:.\SirenState.c **** *   Gets the 2nd tone to play during toggling with the horn
 859:.\SirenState.c **** *
 860:.\SirenState.c **** * Parameters: 
 861:.\SirenState.c **** *   toneSelection: The first tone to play during toggling
 862:.\SirenState.c **** *
 863:.\SirenState.c **** * Return:
 864:.\SirenState.c **** *   The alternating tone (or the same tone if no horn capability)
 865:.\SirenState.c **** *
 866:.\SirenState.c **** *******************************************************************************/
 867:.\SirenState.c **** static enum ToneType getAlternatingTone(enum ToneType toneSelection)
 868:.\SirenState.c **** {
 869:.\SirenState.c **** 	if((toneSelection == NO_TONE) || isAudioTone(toneSelection) || (toneSelection == TEST_TONE))
 870:.\SirenState.c **** 		return toneSelection;
 871:.\SirenState.c **** 	
 872:.\SirenState.c **** 	if((toneSelection == MECHANICAL) || (toneSelection == PCALL_FAST))
 873:.\SirenState.c **** 		return PHASER;
 874:.\SirenState.c **** 	
 875:.\SirenState.c **** 	if(toneSelection == PHASER_YELP)
 876:.\SirenState.c **** 		return HORN_PHASER;
 877:.\SirenState.c **** 	
 878:.\SirenState.c **** 	return (toneSelection + 1);
 879:.\SirenState.c **** }
 880:.\SirenState.c **** 
 881:.\SirenState.c **** /*******************************************************************************
 882:.\SirenState.c **** * Function Name: isTrailingTone
 883:.\SirenState.c **** ********************************************************************************
 884:.\SirenState.c **** *
 885:.\SirenState.c **** * Summary:
 886:.\SirenState.c **** *   Determines if the given tone has the trailing effect
 887:.\SirenState.c **** *
ARM GAS  C:\Users\faithc\AppData\Local\Temp\ccWgDYSd.s 			page 17


 888:.\SirenState.c **** * Parameters: 
 889:.\SirenState.c **** *   thisTone: The tone to check
 890:.\SirenState.c **** *
 891:.\SirenState.c **** * Return:
 892:.\SirenState.c **** *   TRUE if trailing tone, FALSE if not trailing tone or invalid input
 893:.\SirenState.c **** *
 894:.\SirenState.c **** *******************************************************************************/
 895:.\SirenState.c **** static uint8 isTrailingTone(enum ToneType thisTone)
 896:.\SirenState.c **** {
 897:.\SirenState.c ****     if((thisTone == MANUAL_WAIL) || (thisTone == ECTOSIREN) || isCommand(thisTone))
 898:.\SirenState.c ****         return true;
 899:.\SirenState.c ****     
 900:.\SirenState.c ****     return false;
 901:.\SirenState.c **** }
 902:.\SirenState.c **** 
 903:.\SirenState.c **** /*******************************************************************************
 904:.\SirenState.c **** * Function Name: isAudioTone
 905:.\SirenState.c **** ********************************************************************************
 906:.\SirenState.c **** *
 907:.\SirenState.c **** * Summary:
 908:.\SirenState.c **** *   Determines if the given tone is an audio tone
 909:.\SirenState.c **** *
 910:.\SirenState.c **** * Parameters: 
 911:.\SirenState.c **** *   thisTone: The tone to check
 912:.\SirenState.c **** *
 913:.\SirenState.c **** * Return:
 914:.\SirenState.c **** *   TRUE if audio tone, FALSE if not audio tone or invalid input
 915:.\SirenState.c **** *
 916:.\SirenState.c **** *******************************************************************************/
 917:.\SirenState.c **** static uint8 isAudioTone(enum ToneType thisTone)
 918:.\SirenState.c **** {
 919:.\SirenState.c ****     if((thisTone == ECTOSIREN) || isSong(thisTone) || isCommand(thisTone))
 920:.\SirenState.c ****         return true;
 921:.\SirenState.c ****     
 922:.\SirenState.c ****     return false;
 923:.\SirenState.c **** }
 924:.\SirenState.c **** 
 925:.\SirenState.c **** /*******************************************************************************
 926:.\SirenState.c **** * Function Name: isCommand
 927:.\SirenState.c **** ********************************************************************************
 928:.\SirenState.c **** *
 929:.\SirenState.c **** * Summary:
 930:.\SirenState.c **** *   Determines if the given tone is a command
 931:.\SirenState.c **** *
 932:.\SirenState.c **** * Parameters: 
 933:.\SirenState.c **** *   thisTone: The tone to check
 934:.\SirenState.c **** *
 935:.\SirenState.c **** * Return:
 936:.\SirenState.c **** *   TRUE if a command, FALSE if not a command or invalid input
 937:.\SirenState.c **** *
 938:.\SirenState.c **** *******************************************************************************/
 939:.\SirenState.c **** static uint8 isCommand(enum ToneType thisTone)
 940:.\SirenState.c **** {
  26              		.loc 1 940 0
  27              		.cfi_startproc
  28              		@ args = 0, pretend = 0, frame = 0
  29              		@ frame_needed = 0, uses_anonymous_args = 0
ARM GAS  C:\Users\faithc\AppData\Local\Temp\ccWgDYSd.s 			page 18


  30              		@ link register save eliminated.
  31              	.LVL0:
 941:.\SirenState.c ****     if((thisTone >= MOVE_OUT) && (thisTone <= REMAIN_WINDOW_DOWN))
  32              		.loc 1 941 0
  33 0000 1038     		subs	r0, r0, #16
  34              	.LVL1:
  35 0002 C0B2     		uxtb	r0, r0
  36 0004 0528     		cmp	r0, #5
  37 0006 01D8     		bhi	.L3
 942:.\SirenState.c ****         return true;
  38              		.loc 1 942 0
  39 0008 0120     		movs	r0, #1
  40 000a 7047     		bx	lr
  41              	.L3:
 943:.\SirenState.c ****     
 944:.\SirenState.c ****     return false;
  42              		.loc 1 944 0
  43 000c 0020     		movs	r0, #0
 945:.\SirenState.c **** }
  44              		.loc 1 945 0
  45 000e 7047     		bx	lr
  46              		.cfi_endproc
  47              	.LFE83:
  48              		.size	isCommand, .-isCommand
  49              		.section	.text.isTrailingTone,"ax",%progbits
  50              		.align	2
  51              		.thumb
  52              		.thumb_func
  53              		.type	isTrailingTone, %function
  54              	isTrailingTone:
  55              	.LFB81:
 896:.\SirenState.c ****     if((thisTone == MANUAL_WAIL) || (thisTone == ECTOSIREN) || isCommand(thisTone))
  56              		.loc 1 896 0
  57              		.cfi_startproc
  58              		@ args = 0, pretend = 0, frame = 0
  59              		@ frame_needed = 0, uses_anonymous_args = 0
  60              	.LVL2:
  61 0000 08B5     		push	{r3, lr}
  62              		.cfi_def_cfa_offset 8
  63              		.cfi_offset 3, -8
  64              		.cfi_offset 14, -4
 897:.\SirenState.c ****         return true;
  65              		.loc 1 897 0
  66 0002 0728     		cmp	r0, #7
  67 0004 07D0     		beq	.L6
 897:.\SirenState.c ****         return true;
  68              		.loc 1 897 0 is_stmt 0 discriminator 1
  69 0006 0E28     		cmp	r0, #14
  70 0008 07D0     		beq	.L7
 897:.\SirenState.c ****         return true;
  71              		.loc 1 897 0 discriminator 2
  72 000a FFF7FEFF 		bl	isCommand
  73              	.LVL3:
  74 000e 0346     		mov	r3, r0
  75 0010 20B1     		cbz	r0, .L5
 898:.\SirenState.c ****     
  76              		.loc 1 898 0 is_stmt 1
ARM GAS  C:\Users\faithc\AppData\Local\Temp\ccWgDYSd.s 			page 19


  77 0012 0123     		movs	r3, #1
  78 0014 02E0     		b	.L5
  79              	.LVL4:
  80              	.L6:
  81 0016 0123     		movs	r3, #1
  82 0018 00E0     		b	.L5
  83              	.L7:
  84 001a 0123     		movs	r3, #1
  85              	.LVL5:
  86              	.L5:
 901:.\SirenState.c **** 
  87              		.loc 1 901 0
  88 001c 1846     		mov	r0, r3
  89 001e 08BD     		pop	{r3, pc}
  90              		.cfi_endproc
  91              	.LFE81:
  92              		.size	isTrailingTone, .-isTrailingTone
  93              		.section	.text.isSong,"ax",%progbits
  94              		.align	2
  95              		.thumb
  96              		.thumb_func
  97              		.type	isSong, %function
  98              	isSong:
  99              	.LFB84:
 946:.\SirenState.c **** 
 947:.\SirenState.c **** /*******************************************************************************
 948:.\SirenState.c **** * Function Name: isSong
 949:.\SirenState.c **** ********************************************************************************
 950:.\SirenState.c **** *
 951:.\SirenState.c **** * Summary:
 952:.\SirenState.c **** *   Determines if the given tone is a song
 953:.\SirenState.c **** *
 954:.\SirenState.c **** * Parameters: 
 955:.\SirenState.c **** *   thisTone: The tone to check
 956:.\SirenState.c **** *
 957:.\SirenState.c **** * Return:
 958:.\SirenState.c **** *   TRUE if a song, FALSE if not a song or invalid input
 959:.\SirenState.c **** *
 960:.\SirenState.c **** *******************************************************************************/
 961:.\SirenState.c **** static uint8 isSong(enum ToneType thisTone)
 962:.\SirenState.c **** {
 100              		.loc 1 962 0
 101              		.cfi_startproc
 102              		@ args = 0, pretend = 0, frame = 0
 103              		@ frame_needed = 0, uses_anonymous_args = 0
 104              		@ link register save eliminated.
 105              	.LVL6:
 963:.\SirenState.c ****     if(thisTone == COPS_SONG)
 106              		.loc 1 963 0
 107 0000 0F28     		cmp	r0, #15
 108 0002 01D1     		bne	.L11
 964:.\SirenState.c ****         return true;
 109              		.loc 1 964 0
 110 0004 0120     		movs	r0, #1
 111              	.LVL7:
 112 0006 7047     		bx	lr
 113              	.LVL8:
ARM GAS  C:\Users\faithc\AppData\Local\Temp\ccWgDYSd.s 			page 20


 114              	.L11:
 965:.\SirenState.c ****     
 966:.\SirenState.c ****     return false;
 115              		.loc 1 966 0
 116 0008 0020     		movs	r0, #0
 117              	.LVL9:
 967:.\SirenState.c **** }
 118              		.loc 1 967 0
 119 000a 7047     		bx	lr
 120              		.cfi_endproc
 121              	.LFE84:
 122              		.size	isSong, .-isSong
 123              		.section	.text.isAudioTone,"ax",%progbits
 124              		.align	2
 125              		.thumb
 126              		.thumb_func
 127              		.type	isAudioTone, %function
 128              	isAudioTone:
 129              	.LFB82:
 918:.\SirenState.c ****     if((thisTone == ECTOSIREN) || isSong(thisTone) || isCommand(thisTone))
 130              		.loc 1 918 0
 131              		.cfi_startproc
 132              		@ args = 0, pretend = 0, frame = 0
 133              		@ frame_needed = 0, uses_anonymous_args = 0
 134              	.LVL10:
 919:.\SirenState.c ****         return true;
 135              		.loc 1 919 0
 136 0000 0E28     		cmp	r0, #14
 137 0002 0BD0     		beq	.L14
 918:.\SirenState.c ****     if((thisTone == ECTOSIREN) || isSong(thisTone) || isCommand(thisTone))
 138              		.loc 1 918 0 discriminator 1
 139 0004 10B5     		push	{r4, lr}
 140              		.cfi_def_cfa_offset 8
 141              		.cfi_offset 4, -8
 142              		.cfi_offset 14, -4
 143 0006 0446     		mov	r4, r0
 919:.\SirenState.c ****         return true;
 144              		.loc 1 919 0 discriminator 1
 145 0008 FFF7FEFF 		bl	isSong
 146              	.LVL11:
 147 000c 48B9     		cbnz	r0, .L15
 919:.\SirenState.c ****         return true;
 148              		.loc 1 919 0 is_stmt 0 discriminator 2
 149 000e 2046     		mov	r0, r4
 150 0010 FFF7FEFF 		bl	isCommand
 151              	.LVL12:
 152 0014 0346     		mov	r3, r0
 153 0016 28B1     		cbz	r0, .L13
 920:.\SirenState.c ****     
 154              		.loc 1 920 0 is_stmt 1
 155 0018 0123     		movs	r3, #1
 156 001a 03E0     		b	.L13
 157              	.LVL13:
 158              	.L14:
 159              		.cfi_def_cfa_offset 0
 160              		.cfi_restore 4
 161              		.cfi_restore 14
ARM GAS  C:\Users\faithc\AppData\Local\Temp\ccWgDYSd.s 			page 21


 162 001c 0123     		movs	r3, #1
 923:.\SirenState.c **** 
 163              		.loc 1 923 0
 164 001e 1846     		mov	r0, r3
 165              	.LVL14:
 166 0020 7047     		bx	lr
 167              	.L15:
 168              		.cfi_def_cfa_offset 8
 169              		.cfi_offset 4, -8
 170              		.cfi_offset 14, -4
 920:.\SirenState.c ****     
 171              		.loc 1 920 0
 172 0022 0123     		movs	r3, #1
 173              	.L13:
 923:.\SirenState.c **** 
 174              		.loc 1 923 0
 175 0024 1846     		mov	r0, r3
 176 0026 10BD     		pop	{r4, pc}
 177              		.cfi_endproc
 178              	.LFE82:
 179              		.size	isAudioTone, .-isAudioTone
 180              		.section	.text.getAlternatingTone,"ax",%progbits
 181              		.align	2
 182              		.thumb
 183              		.thumb_func
 184              		.type	getAlternatingTone, %function
 185              	getAlternatingTone:
 186              	.LFB80:
 868:.\SirenState.c **** 	if((toneSelection == NO_TONE) || isAudioTone(toneSelection) || (toneSelection == TEST_TONE))
 187              		.loc 1 868 0
 188              		.cfi_startproc
 189              		@ args = 0, pretend = 0, frame = 0
 190              		@ frame_needed = 0, uses_anonymous_args = 0
 191              	.LVL15:
 192 0000 10B5     		push	{r4, lr}
 193              		.cfi_def_cfa_offset 8
 194              		.cfi_offset 4, -8
 195              		.cfi_offset 14, -4
 869:.\SirenState.c **** 		return toneSelection;
 196              		.loc 1 869 0
 197 0002 0446     		mov	r4, r0
 198 0004 68B1     		cbz	r0, .L19
 869:.\SirenState.c **** 		return toneSelection;
 199              		.loc 1 869 0 is_stmt 0 discriminator 1
 200 0006 FFF7FEFF 		bl	isAudioTone
 201              	.LVL16:
 202 000a 58B9     		cbnz	r0, .L20
 869:.\SirenState.c **** 		return toneSelection;
 203              		.loc 1 869 0 discriminator 2
 204 000c 162C     		cmp	r4, #22
 205 000e 0BD0     		beq	.L21
 872:.\SirenState.c **** 		return PHASER;
 206              		.loc 1 872 0 is_stmt 1
 207 0010 062C     		cmp	r4, #6
 208 0012 0BD0     		beq	.L22
 872:.\SirenState.c **** 		return PHASER;
 209              		.loc 1 872 0 is_stmt 0 discriminator 1
ARM GAS  C:\Users\faithc\AppData\Local\Temp\ccWgDYSd.s 			page 22


 210 0014 0A2C     		cmp	r4, #10
 211 0016 0BD0     		beq	.L23
 875:.\SirenState.c **** 		return HORN_PHASER;
 212              		.loc 1 875 0 is_stmt 1
 213 0018 0D2C     		cmp	r4, #13
 214 001a 0BD0     		beq	.L24
 878:.\SirenState.c **** }
 215              		.loc 1 878 0
 216 001c 0134     		adds	r4, r4, #1
 217 001e E0B2     		uxtb	r0, r4
 218 0020 10BD     		pop	{r4, pc}
 219              	.LVL17:
 220              	.L19:
 221 0022 10BD     		pop	{r4, pc}
 222              	.LVL18:
 223              	.L20:
 870:.\SirenState.c **** 	
 224              		.loc 1 870 0
 225 0024 2046     		mov	r0, r4
 226 0026 10BD     		pop	{r4, pc}
 227              	.L21:
 228 0028 2046     		mov	r0, r4
 229 002a 10BD     		pop	{r4, pc}
 230              	.L22:
 873:.\SirenState.c **** 	
 231              		.loc 1 873 0
 232 002c 0420     		movs	r0, #4
 233 002e 10BD     		pop	{r4, pc}
 234              	.L23:
 235 0030 0420     		movs	r0, #4
 236 0032 10BD     		pop	{r4, pc}
 237              	.L24:
 876:.\SirenState.c **** 	
 238              		.loc 1 876 0
 239 0034 0B20     		movs	r0, #11
 879:.\SirenState.c **** 
 240              		.loc 1 879 0
 241 0036 10BD     		pop	{r4, pc}
 242              		.cfi_endproc
 243              	.LFE80:
 244              		.size	getAlternatingTone, .-getAlternatingTone
 245              		.section	.text.getBitIndex,"ax",%progbits
 246              		.align	2
 247              		.thumb
 248              		.thumb_func
 249              		.type	getBitIndex, %function
 250              	getBitIndex:
 251              	.LFB85:
 968:.\SirenState.c **** 
 969:.\SirenState.c **** /*******************************************************************************
 970:.\SirenState.c **** * Function Name: getBitIndex
 971:.\SirenState.c **** ********************************************************************************
 972:.\SirenState.c **** *
 973:.\SirenState.c **** * Summary:
 974:.\SirenState.c **** *  Computes the index of a byte based on the mask given. 7 is the most significant bit.
 975:.\SirenState.c **** *
 976:.\SirenState.c **** * Parameters:
ARM GAS  C:\Users\faithc\AppData\Local\Temp\ccWgDYSd.s 			page 23


 977:.\SirenState.c **** *  maskNumber: An 8-bit value with a single bit being set to 1
 978:.\SirenState.c **** *
 979:.\SirenState.c **** * Return:
 980:.\SirenState.c **** *  The index of the set bit ranging 0 - 7
 981:.\SirenState.c **** *
 982:.\SirenState.c **** *******************************************************************************/
 983:.\SirenState.c **** static uint8 getBitIndex(enum BitMask maskNumber)
 984:.\SirenState.c **** {
 252              		.loc 1 984 0
 253              		.cfi_startproc
 254              		@ args = 0, pretend = 0, frame = 0
 255              		@ frame_needed = 0, uses_anonymous_args = 0
 256              		@ link register save eliminated.
 257              	.LVL19:
 985:.\SirenState.c **** 	uint8 indexResult = 0;
 986:.\SirenState.c **** 	
 987:.\SirenState.c **** 	switch(maskNumber)
 258              		.loc 1 987 0
 259 0000 0138     		subs	r0, r0, #1
 260              	.LVL20:
 261 0002 1F28     		cmp	r0, #31
 262 0004 1BD8     		bhi	.L27
 263 0006 DFE800F0 		tbb	[pc, r0]
 264              	.L29:
 265 000a 10       		.byte	(.L28-.L29)/2
 266 000b 1C       		.byte	(.L35-.L29)/2
 267 000c 1A       		.byte	(.L27-.L29)/2
 268 000d 12       		.byte	(.L31-.L29)/2
 269 000e 1A       		.byte	(.L27-.L29)/2
 270 000f 1A       		.byte	(.L27-.L29)/2
 271 0010 1A       		.byte	(.L27-.L29)/2
 272 0011 14       		.byte	(.L32-.L29)/2
 273 0012 1A       		.byte	(.L27-.L29)/2
 274 0013 1A       		.byte	(.L27-.L29)/2
 275 0014 1A       		.byte	(.L27-.L29)/2
 276 0015 1A       		.byte	(.L27-.L29)/2
 277 0016 1A       		.byte	(.L27-.L29)/2
 278 0017 1A       		.byte	(.L27-.L29)/2
 279 0018 1A       		.byte	(.L27-.L29)/2
 280 0019 16       		.byte	(.L33-.L29)/2
 281 001a 1A       		.byte	(.L27-.L29)/2
 282 001b 1A       		.byte	(.L27-.L29)/2
 283 001c 1A       		.byte	(.L27-.L29)/2
 284 001d 1A       		.byte	(.L27-.L29)/2
 285 001e 1A       		.byte	(.L27-.L29)/2
 286 001f 1A       		.byte	(.L27-.L29)/2
 287 0020 1A       		.byte	(.L27-.L29)/2
 288 0021 1A       		.byte	(.L27-.L29)/2
 289 0022 1A       		.byte	(.L27-.L29)/2
 290 0023 1A       		.byte	(.L27-.L29)/2
 291 0024 1A       		.byte	(.L27-.L29)/2
 292 0025 1A       		.byte	(.L27-.L29)/2
 293 0026 1A       		.byte	(.L27-.L29)/2
 294 0027 1A       		.byte	(.L27-.L29)/2
 295 0028 1A       		.byte	(.L27-.L29)/2
 296 0029 18       		.byte	(.L34-.L29)/2
 297              		.p2align 1
ARM GAS  C:\Users\faithc\AppData\Local\Temp\ccWgDYSd.s 			page 24


 298              	.L28:
 988:.\SirenState.c **** 	{
 989:.\SirenState.c **** 		case BIT0:
 990:.\SirenState.c **** 			indexResult = 0;
 299              		.loc 1 990 0
 300 002a 0020     		movs	r0, #0
 301 002c 7047     		bx	lr
 302              	.L31:
 303              	.LVL21:
 991:.\SirenState.c **** 			break;
 992:.\SirenState.c **** 		case BIT1:
 993:.\SirenState.c **** 			indexResult = 1;
 994:.\SirenState.c **** 			break;
 995:.\SirenState.c **** 		case BIT2:
 996:.\SirenState.c **** 			indexResult = 2;
 304              		.loc 1 996 0
 305 002e 0220     		movs	r0, #2
 997:.\SirenState.c **** 			break;
 306              		.loc 1 997 0
 307 0030 7047     		bx	lr
 308              	.LVL22:
 309              	.L32:
 998:.\SirenState.c **** 		case BIT3:
 999:.\SirenState.c **** 			indexResult = 3;
 310              		.loc 1 999 0
 311 0032 0320     		movs	r0, #3
1000:.\SirenState.c **** 			break;
 312              		.loc 1 1000 0
 313 0034 7047     		bx	lr
 314              	.LVL23:
 315              	.L33:
1001:.\SirenState.c **** 		case BIT4:
1002:.\SirenState.c **** 			indexResult = 4;
 316              		.loc 1 1002 0
 317 0036 0420     		movs	r0, #4
1003:.\SirenState.c **** 			break;
 318              		.loc 1 1003 0
 319 0038 7047     		bx	lr
 320              	.LVL24:
 321              	.L34:
1004:.\SirenState.c **** 		case BIT5:
1005:.\SirenState.c **** 			indexResult = 5;
 322              		.loc 1 1005 0
 323 003a 0520     		movs	r0, #5
1006:.\SirenState.c **** 			break;
 324              		.loc 1 1006 0
 325 003c 7047     		bx	lr
 326              	.LVL25:
 327              	.L27:
1007:.\SirenState.c **** 		default:
1008:.\SirenState.c **** 			indexResult = NO_CHANNEL;
 328              		.loc 1 1008 0
 329 003e FF20     		movs	r0, #255
1009:.\SirenState.c **** 			break;
 330              		.loc 1 1009 0
 331 0040 7047     		bx	lr
 332              	.LVL26:
ARM GAS  C:\Users\faithc\AppData\Local\Temp\ccWgDYSd.s 			page 25


 333              	.L35:
 993:.\SirenState.c **** 			break;
 334              		.loc 1 993 0
 335 0042 0120     		movs	r0, #1
 336              	.LVL27:
1010:.\SirenState.c **** 	}
1011:.\SirenState.c **** 	
1012:.\SirenState.c **** 	return indexResult;
1013:.\SirenState.c **** }
 337              		.loc 1 1013 0
 338 0044 7047     		bx	lr
 339              		.cfi_endproc
 340              	.LFE85:
 341              		.size	getBitIndex, .-getBitIndex
 342 0046 00BF     		.section	.text.getHighestPriorityChannel,"ax",%progbits
 343              		.align	2
 344              		.thumb
 345              		.thumb_func
 346              		.type	getHighestPriorityChannel, %function
 347              	getHighestPriorityChannel:
 348              	.LFB79:
 826:.\SirenState.c ****     uint8 modeStatusByte = 0;
 349              		.loc 1 826 0
 350              		.cfi_startproc
 351              		@ args = 0, pretend = 0, frame = 0
 352              		@ frame_needed = 0, uses_anonymous_args = 0
 353              	.LVL28:
 829:.\SirenState.c ****         return NO_CHANNEL;
 354              		.loc 1 829 0
 355 0000 0128     		cmp	r0, #1
 356 0002 1AD8     		bhi	.L40
 826:.\SirenState.c ****     uint8 modeStatusByte = 0;
 357              		.loc 1 826 0
 358 0004 08B5     		push	{r3, lr}
 359              		.cfi_def_cfa_offset 8
 360              		.cfi_offset 3, -8
 361              		.cfi_offset 14, -4
 832:.\SirenState.c ****         modeStatusByte = ModeStatus2_Read();
 362              		.loc 1 832 0
 363 0006 10B1     		cbz	r0, .L38
 833:.\SirenState.c ****     else
 364              		.loc 1 833 0
 365 0008 FFF7FEFF 		bl	ModeStatus2_Read
 366              	.LVL29:
 367 000c 01E0     		b	.L39
 368              	.LVL30:
 369              	.L38:
 835:.\SirenState.c ****     
 370              		.loc 1 835 0
 371 000e FFF7FEFF 		bl	ModeStatus_Read
 372              	.LVL31:
 373              	.L39:
 837:.\SirenState.c ****         return CHANNEL_6;
 374              		.loc 1 837 0
 375 0012 10F0200F 		tst	r0, #32
 376 0016 12D1     		bne	.L41
 839:.\SirenState.c ****         return CHANNEL_5;
ARM GAS  C:\Users\faithc\AppData\Local\Temp\ccWgDYSd.s 			page 26


 377              		.loc 1 839 0
 378 0018 10F0100F 		tst	r0, #16
 379 001c 11D1     		bne	.L42
 841:.\SirenState.c ****         return CHANNEL_4;
 380              		.loc 1 841 0
 381 001e 10F0080F 		tst	r0, #8
 382 0022 10D1     		bne	.L43
 843:.\SirenState.c ****         return CHANNEL_3;    
 383              		.loc 1 843 0
 384 0024 10F0040F 		tst	r0, #4
 385 0028 0FD1     		bne	.L44
 845:.\SirenState.c ****         return CHANNEL_2;
 386              		.loc 1 845 0
 387 002a 10F0020F 		tst	r0, #2
 388 002e 0ED1     		bne	.L45
 847:.\SirenState.c ****         return CHANNEL_1;
 389              		.loc 1 847 0
 390 0030 10F0010F 		tst	r0, #1
 391 0034 0DD0     		beq	.L46
 848:.\SirenState.c ****     
 392              		.loc 1 848 0
 393 0036 0020     		movs	r0, #0
 394              	.LVL32:
 395 0038 08BD     		pop	{r3, pc}
 396              	.LVL33:
 397              	.L40:
 398              		.cfi_def_cfa_offset 0
 399              		.cfi_restore 3
 400              		.cfi_restore 14
 830:.\SirenState.c ****     
 401              		.loc 1 830 0
 402 003a FF20     		movs	r0, #255
 403              	.LVL34:
 851:.\SirenState.c **** 
 404              		.loc 1 851 0
 405 003c 7047     		bx	lr
 406              	.LVL35:
 407              	.L41:
 408              		.cfi_def_cfa_offset 8
 409              		.cfi_offset 3, -8
 410              		.cfi_offset 14, -4
 838:.\SirenState.c ****     if(modeStatusByte & 0x10)
 411              		.loc 1 838 0
 412 003e 0520     		movs	r0, #5
 413              	.LVL36:
 414 0040 08BD     		pop	{r3, pc}
 415              	.LVL37:
 416              	.L42:
 840:.\SirenState.c ****     if(modeStatusByte & 0x08)
 417              		.loc 1 840 0
 418 0042 0420     		movs	r0, #4
 419              	.LVL38:
 420 0044 08BD     		pop	{r3, pc}
 421              	.LVL39:
 422              	.L43:
 842:.\SirenState.c ****     if(modeStatusByte & 0x04)
 423              		.loc 1 842 0
ARM GAS  C:\Users\faithc\AppData\Local\Temp\ccWgDYSd.s 			page 27


 424 0046 0320     		movs	r0, #3
 425              	.LVL40:
 426 0048 08BD     		pop	{r3, pc}
 427              	.LVL41:
 428              	.L44:
 844:.\SirenState.c ****     if(modeStatusByte & 0x02)
 429              		.loc 1 844 0
 430 004a 0220     		movs	r0, #2
 431              	.LVL42:
 432 004c 08BD     		pop	{r3, pc}
 433              	.LVL43:
 434              	.L45:
 846:.\SirenState.c ****     if(modeStatusByte & 0x01)
 435              		.loc 1 846 0
 436 004e 0120     		movs	r0, #1
 437              	.LVL44:
 438 0050 08BD     		pop	{r3, pc}
 439              	.LVL45:
 440              	.L46:
 850:.\SirenState.c **** }
 441              		.loc 1 850 0
 442 0052 FF20     		movs	r0, #255
 443              	.LVL46:
 851:.\SirenState.c **** 
 444              		.loc 1 851 0
 445 0054 08BD     		pop	{r3, pc}
 446              		.cfi_endproc
 447              	.LFE79:
 448              		.size	getHighestPriorityChannel, .-getHighestPriorityChannel
 449 0056 00BF     		.section	.text.enableSpeakersForAudioTone,"ax",%progbits
 450              		.align	2
 451              		.thumb
 452              		.thumb_func
 453              		.type	enableSpeakersForAudioTone, %function
 454              	enableSpeakersForAudioTone:
 455              	.LFB78:
 792:.\SirenState.c **** 	if((bSpeaker != SPEAKER_1) && (bSpeaker != SPEAKER_2))
 456              		.loc 1 792 0
 457              		.cfi_startproc
 458              		@ args = 0, pretend = 0, frame = 0
 459              		@ frame_needed = 0, uses_anonymous_args = 0
 460              	.LVL47:
 793:.\SirenState.c ****         return false;
 461              		.loc 1 793 0
 462 0000 0128     		cmp	r0, #1
 463 0002 1ED8     		bhi	.L50
 796:.\SirenState.c ****         return false;
 464              		.loc 1 796 0
 465 0004 4B1E     		subs	r3, r1, #1
 466 0006 DBB2     		uxtb	r3, r3
 467 0008 152B     		cmp	r3, #21
 468 000a 1CD8     		bhi	.L51
 799:.\SirenState.c ****         return false;
 469              		.loc 1 799 0
 470 000c 012A     		cmp	r2, #1
 471 000e 1CD8     		bhi	.L52
 792:.\SirenState.c **** 	if((bSpeaker != SPEAKER_1) && (bSpeaker != SPEAKER_2))
ARM GAS  C:\Users\faithc\AppData\Local\Temp\ccWgDYSd.s 			page 28


 472              		.loc 1 792 0
 473 0010 70B5     		push	{r4, r5, r6, lr}
 474              		.cfi_def_cfa_offset 16
 475              		.cfi_offset 4, -16
 476              		.cfi_offset 5, -12
 477              		.cfi_offset 6, -8
 478              		.cfi_offset 14, -4
 479 0012 1646     		mov	r6, r2
 480 0014 0D46     		mov	r5, r1
 481 0016 0446     		mov	r4, r0
 802:.\SirenState.c ****     playPWMTone(bSpeaker, NO_TONE, false, false);
 482              		.loc 1 802 0
 483 0018 FFF7FEFF 		bl	deactivateManualWail
 484              	.LVL48:
 803:.\SirenState.c **** 	playAudioTone(bSpeaker, toneSelection, bInputEnable);
 485              		.loc 1 803 0
 486 001c 2046     		mov	r0, r4
 487 001e 0021     		movs	r1, #0
 488 0020 0A46     		mov	r2, r1
 489 0022 0B46     		mov	r3, r1
 490 0024 FFF7FEFF 		bl	playPWMTone
 491              	.LVL49:
 804:.\SirenState.c **** 	PowerAmpOutput1_Write(true);
 492              		.loc 1 804 0
 493 0028 2046     		mov	r0, r4
 494 002a 2946     		mov	r1, r5
 495 002c 3246     		mov	r2, r6
 496 002e FFF7FEFF 		bl	playAudioTone
 497              	.LVL50:
 805:.\SirenState.c **** 	PowerAmpOutput2_Write(true);
 498              		.loc 1 805 0
 499 0032 0120     		movs	r0, #1
 500 0034 FFF7FEFF 		bl	PowerAmpOutput1_Write
 501              	.LVL51:
 806:.\SirenState.c ****     
 502              		.loc 1 806 0
 503 0038 0120     		movs	r0, #1
 504 003a FFF7FEFF 		bl	PowerAmpOutput2_Write
 505              	.LVL52:
 808:.\SirenState.c **** }
 506              		.loc 1 808 0
 507 003e 0120     		movs	r0, #1
 508 0040 70BD     		pop	{r4, r5, r6, pc}
 509              	.LVL53:
 510              	.L50:
 511              		.cfi_def_cfa_offset 0
 512              		.cfi_restore 4
 513              		.cfi_restore 5
 514              		.cfi_restore 6
 515              		.cfi_restore 14
 794:.\SirenState.c ****     
 516              		.loc 1 794 0
 517 0042 0020     		movs	r0, #0
 518              	.LVL54:
 809:.\SirenState.c **** 
 519              		.loc 1 809 0
 520 0044 7047     		bx	lr
ARM GAS  C:\Users\faithc\AppData\Local\Temp\ccWgDYSd.s 			page 29


 521              	.LVL55:
 522              	.L51:
 797:.\SirenState.c ****     
 523              		.loc 1 797 0
 524 0046 0020     		movs	r0, #0
 525              	.LVL56:
 526 0048 7047     		bx	lr
 527              	.LVL57:
 528              	.L52:
 800:.\SirenState.c ****     
 529              		.loc 1 800 0
 530 004a 0020     		movs	r0, #0
 531              	.LVL58:
 532 004c 7047     		bx	lr
 533              		.cfi_endproc
 534              	.LFE78:
 535              		.size	enableSpeakersForAudioTone, .-enableSpeakersForAudioTone
 536 004e 00BF     		.section	.text.enableSpeakerForSirenTone,"ax",%progbits
 537              		.align	2
 538              		.thumb
 539              		.thumb_func
 540              		.type	enableSpeakerForSirenTone, %function
 541              	enableSpeakerForSirenTone:
 542              	.LFB77:
 749:.\SirenState.c **** 	if((bSpeaker != SPEAKER_1) && (bSpeaker != SPEAKER_2))
 543              		.loc 1 749 0
 544              		.cfi_startproc
 545              		@ args = 0, pretend = 0, frame = 0
 546              		@ frame_needed = 0, uses_anonymous_args = 0
 547              	.LVL59:
 750:.\SirenState.c ****         return false;
 548              		.loc 1 750 0
 549 0000 0128     		cmp	r0, #1
 550 0002 21D8     		bhi	.L58
 753:.\SirenState.c ****         return false;
 551              		.loc 1 753 0
 552 0004 1629     		cmp	r1, #22
 553 0006 21D8     		bhi	.L59
 756:.\SirenState.c ****         return false;
 554              		.loc 1 756 0
 555 0008 012A     		cmp	r2, #1
 556 000a 21D8     		bhi	.L60
 749:.\SirenState.c **** 	if((bSpeaker != SPEAKER_1) && (bSpeaker != SPEAKER_2))
 557              		.loc 1 749 0
 558 000c F8B5     		push	{r3, r4, r5, r6, r7, lr}
 559              		.cfi_def_cfa_offset 24
 560              		.cfi_offset 3, -24
 561              		.cfi_offset 4, -20
 562              		.cfi_offset 5, -16
 563              		.cfi_offset 6, -12
 564              		.cfi_offset 7, -8
 565              		.cfi_offset 14, -4
 566 000e 1F46     		mov	r7, r3
 567 0010 1646     		mov	r6, r2
 568 0012 0D46     		mov	r5, r1
 569 0014 0446     		mov	r4, r0
 759:.\SirenState.c ****     playAudioTone(bSpeaker, NO_TONE, false);
ARM GAS  C:\Users\faithc\AppData\Local\Temp\ccWgDYSd.s 			page 30


 570              		.loc 1 759 0
 571 0016 FFF7FEFF 		bl	deactivateAudio
 572              	.LVL60:
 760:.\SirenState.c **** 	playPWMTone(bSpeaker, toneSelection, bInputEnable, bDelay);
 573              		.loc 1 760 0
 574 001a 2046     		mov	r0, r4
 575 001c 0021     		movs	r1, #0
 576 001e 0A46     		mov	r2, r1
 577 0020 FFF7FEFF 		bl	playAudioTone
 578              	.LVL61:
 761:.\SirenState.c **** 	
 579              		.loc 1 761 0
 580 0024 2046     		mov	r0, r4
 581 0026 2946     		mov	r1, r5
 582 0028 3246     		mov	r2, r6
 583 002a 3B46     		mov	r3, r7
 584 002c FFF7FEFF 		bl	playPWMTone
 585              	.LVL62:
 763:.\SirenState.c ****     {
 586              		.loc 1 763 0
 587 0030 85B1     		cbz	r5, .L61
 765:.\SirenState.c ****     		PowerAmpOutput2_Write(true);
 588              		.loc 1 765 0
 589 0032 24B1     		cbz	r4, .L57
 766:.\SirenState.c ****     	else
 590              		.loc 1 766 0
 591 0034 0120     		movs	r0, #1
 592 0036 FFF7FEFF 		bl	PowerAmpOutput2_Write
 593              	.LVL63:
 771:.\SirenState.c **** }
 594              		.loc 1 771 0
 595 003a 0120     		movs	r0, #1
 596 003c F8BD     		pop	{r3, r4, r5, r6, r7, pc}
 597              	.L57:
 768:.\SirenState.c ****     }
 598              		.loc 1 768 0
 599 003e 0120     		movs	r0, #1
 600 0040 FFF7FEFF 		bl	PowerAmpOutput1_Write
 601              	.LVL64:
 771:.\SirenState.c **** }
 602              		.loc 1 771 0
 603 0044 0120     		movs	r0, #1
 604 0046 F8BD     		pop	{r3, r4, r5, r6, r7, pc}
 605              	.LVL65:
 606              	.L58:
 607              		.cfi_def_cfa_offset 0
 608              		.cfi_restore 3
 609              		.cfi_restore 4
 610              		.cfi_restore 5
 611              		.cfi_restore 6
 612              		.cfi_restore 7
 613              		.cfi_restore 14
 751:.\SirenState.c ****     
 614              		.loc 1 751 0
 615 0048 0020     		movs	r0, #0
 616              	.LVL66:
 772:.\SirenState.c **** 
ARM GAS  C:\Users\faithc\AppData\Local\Temp\ccWgDYSd.s 			page 31


 617              		.loc 1 772 0
 618 004a 7047     		bx	lr
 619              	.LVL67:
 620              	.L59:
 754:.\SirenState.c ****     
 621              		.loc 1 754 0
 622 004c 0020     		movs	r0, #0
 623              	.LVL68:
 624 004e 7047     		bx	lr
 625              	.LVL69:
 626              	.L60:
 757:.\SirenState.c ****     
 627              		.loc 1 757 0
 628 0050 0020     		movs	r0, #0
 629              	.LVL70:
 630 0052 7047     		bx	lr
 631              	.LVL71:
 632              	.L61:
 633              		.cfi_def_cfa_offset 24
 634              		.cfi_offset 3, -24
 635              		.cfi_offset 4, -20
 636              		.cfi_offset 5, -16
 637              		.cfi_offset 6, -12
 638              		.cfi_offset 7, -8
 639              		.cfi_offset 14, -4
 771:.\SirenState.c **** }
 640              		.loc 1 771 0
 641 0054 0120     		movs	r0, #1
 772:.\SirenState.c **** 
 642              		.loc 1 772 0
 643 0056 F8BD     		pop	{r3, r4, r5, r6, r7, pc}
 644              		.cfi_endproc
 645              	.LFE77:
 646              		.size	enableSpeakerForSirenTone, .-enableSpeakerForSirenTone
 647              		.section	.text.initializeToneConfigurationList,"ax",%progbits
 648              		.align	2
 649              		.global	initializeToneConfigurationList
 650              		.thumb
 651              		.thumb_func
 652              		.type	initializeToneConfigurationList, %function
 653              	initializeToneConfigurationList:
 654              	.LFB63:
 102:.\SirenState.c ****     uint8 bHasNoTone = false;  
 655              		.loc 1 102 0
 656              		.cfi_startproc
 657              		@ args = 0, pretend = 0, frame = 0
 658              		@ frame_needed = 0, uses_anonymous_args = 0
 659 0000 70B5     		push	{r4, r5, r6, lr}
 660              		.cfi_def_cfa_offset 16
 661              		.cfi_offset 4, -16
 662              		.cfi_offset 5, -12
 663              		.cfi_offset 6, -8
 664              		.cfi_offset 14, -4
 665              	.LVL72:
 108:.\SirenState.c ****     
 666              		.loc 1 108 0
 667 0002 FFF7FEFF 		bl	EEPROM_Start
ARM GAS  C:\Users\faithc\AppData\Local\Temp\ccWgDYSd.s 			page 32


 668              	.LVL73:
 110:.\SirenState.c ****     {   //Check for indices with no tone written to it
 669              		.loc 1 110 0
 670 0006 0025     		movs	r5, #0
 103:.\SirenState.c ****     uint8 bSpeakerIndex = SPEAKER_1;
 671              		.loc 1 103 0
 672 0008 2E46     		mov	r6, r5
 110:.\SirenState.c ****     {   //Check for indices with no tone written to it
 673              		.loc 1 110 0
 674 000a 12E0     		b	.L65
 675              	.LVL74:
 676              	.L67:
 114:.\SirenState.c ****             if(EEPROM_ReadByte(addressIndex) >= TONE_TYPE_LIST_SIZE)
 677              		.loc 1 114 0
 678 000c 05EB4503 		add	r3, r5, r5, lsl #1
 679 0010 5800     		lsls	r0, r3, #1
 680 0012 2044     		add	r0, r0, r4
 681              	.LVL75:
 115:.\SirenState.c ****             {   //Terminate loop after finding first invalid tone
 682              		.loc 1 115 0
 683 0014 80B2     		uxth	r0, r0
 684 0016 FFF7FEFF 		bl	EEPROM_ReadByte
 685              	.LVL76:
 686 001a 1628     		cmp	r0, #22
 687 001c 06D8     		bhi	.L77
 112:.\SirenState.c ****         {
 688              		.loc 1 112 0 discriminator 2
 689 001e 0134     		adds	r4, r4, #1
 690              	.LVL77:
 691 0020 E4B2     		uxtb	r4, r4
 692              	.LVL78:
 693 0022 00E0     		b	.L68
 694              	.LVL79:
 695              	.L78:
 696 0024 0024     		movs	r4, #0
 697              	.L68:
 698              	.LVL80:
 112:.\SirenState.c ****         {
 699              		.loc 1 112 0 is_stmt 0 discriminator 1
 700 0026 052C     		cmp	r4, #5
 701 0028 F0D9     		bls	.L67
 702 002a 00E0     		b	.L66
 703              	.LVL81:
 704              	.L77:
 117:.\SirenState.c ****                 break;
 705              		.loc 1 117 0 is_stmt 1
 706 002c 0126     		movs	r6, #1
 707              	.LVL82:
 708              	.L66:
 110:.\SirenState.c ****     {   //Check for indices with no tone written to it
 709              		.loc 1 110 0 discriminator 2
 710 002e 0135     		adds	r5, r5, #1
 711              	.LVL83:
 712 0030 EDB2     		uxtb	r5, r5
 713              	.LVL84:
 714              	.L65:
 110:.\SirenState.c ****     {   //Check for indices with no tone written to it
ARM GAS  C:\Users\faithc\AppData\Local\Temp\ccWgDYSd.s 			page 33


 715              		.loc 1 110 0 is_stmt 0 discriminator 1
 716 0032 012D     		cmp	r5, #1
 717 0034 F6D9     		bls	.L78
 123:.\SirenState.c ****     {   //Write to EEPROM 
 718              		.loc 1 123 0 is_stmt 1
 719 0036 26B9     		cbnz	r6, .L69
 123:.\SirenState.c ****     {   //Write to EEPROM 
 720              		.loc 1 123 0 is_stmt 0 discriminator 1
 721 0038 FF20     		movs	r0, #255
 722 003a FFF7FEFF 		bl	EEPROM_ReadByte
 723              	.LVL85:
 724 003e AA28     		cmp	r0, #170
 725 0040 1AD0     		beq	.L70
 726              	.L69:
 125:.\SirenState.c ****         
 727              		.loc 1 125 0 is_stmt 1
 728 0042 FFF7FEFF 		bl	EEPROM_UpdateTemperature
 729              	.LVL86:
 127:.\SirenState.c ****         {   //Obtain tones from EEPROM to configure channels
 730              		.loc 1 127 0
 731 0046 0025     		movs	r5, #0
 732 0048 10E0     		b	.L71
 733              	.LVL87:
 734              	.L72:
 131:.\SirenState.c ****                 EEPROM_WriteByte(DEFAULT_CONFIGURATION_LIST[addressIndex], addressIndex);
 735              		.loc 1 131 0 discriminator 3
 736 004a 05EB4503 		add	r3, r5, r5, lsl #1
 737 004e 5900     		lsls	r1, r3, #1
 738 0050 2144     		add	r1, r1, r4
 739 0052 89B2     		uxth	r1, r1
 740              	.LVL88:
 132:.\SirenState.c ****             }
 741              		.loc 1 132 0 discriminator 3
 742 0054 154B     		ldr	r3, .L82
 743 0056 585C     		ldrb	r0, [r3, r1]	@ zero_extendqisi2
 744 0058 FFF7FEFF 		bl	EEPROM_WriteByte
 745              	.LVL89:
 129:.\SirenState.c ****             {
 746              		.loc 1 129 0 discriminator 3
 747 005c 0134     		adds	r4, r4, #1
 748              	.LVL90:
 749 005e E4B2     		uxtb	r4, r4
 750              	.LVL91:
 751 0060 00E0     		b	.L73
 752              	.LVL92:
 753              	.L79:
 754 0062 0024     		movs	r4, #0
 755              	.L73:
 756              	.LVL93:
 129:.\SirenState.c ****             {
 757              		.loc 1 129 0 is_stmt 0 discriminator 1
 758 0064 052C     		cmp	r4, #5
 759 0066 F0D9     		bls	.L72
 127:.\SirenState.c ****         {   //Obtain tones from EEPROM to configure channels
 760              		.loc 1 127 0 is_stmt 1 discriminator 2
 761 0068 0135     		adds	r5, r5, #1
 762              	.LVL94:
ARM GAS  C:\Users\faithc\AppData\Local\Temp\ccWgDYSd.s 			page 34


 763 006a EDB2     		uxtb	r5, r5
 764              	.LVL95:
 765              	.L71:
 127:.\SirenState.c ****         {   //Obtain tones from EEPROM to configure channels
 766              		.loc 1 127 0 is_stmt 0 discriminator 1
 767 006c 012D     		cmp	r5, #1
 768 006e F8D9     		bls	.L79
 136:.\SirenState.c ****     }
 769              		.loc 1 136 0 is_stmt 1
 770 0070 AA20     		movs	r0, #170
 771 0072 FF21     		movs	r1, #255
 772 0074 FFF7FEFF 		bl	EEPROM_WriteByte
 773              	.LVL96:
 774              	.L70:
 775 0078 0025     		movs	r5, #0
 776              	.LVL97:
 777 007a 14E0     		b	.L74
 778              	.LVL98:
 779              	.L75:
 143:.\SirenState.c ****             toneConfigurationList[bSpeakerIndex][channelIndex] = EEPROM_ReadByte(addressIndex);
 780              		.loc 1 143 0 discriminator 3
 781 007c 05EB4503 		add	r3, r5, r5, lsl #1
 782 0080 5800     		lsls	r0, r3, #1
 783 0082 2044     		add	r0, r0, r4
 784              	.LVL99:
 144:.\SirenState.c ****         }
 785              		.loc 1 144 0 discriminator 3
 786 0084 80B2     		uxth	r0, r0
 787 0086 FFF7FEFF 		bl	EEPROM_ReadByte
 788              	.LVL100:
 789 008a 05EB4503 		add	r3, r5, r5, lsl #1
 790              	.LVL101:
 791 008e 5B00     		lsls	r3, r3, #1
 792              	.LVL102:
 793 0090 2344     		add	r3, r3, r4
 794              	.LVL103:
 795 0092 074A     		ldr	r2, .L82+4
 796 0094 D054     		strb	r0, [r2, r3]
 141:.\SirenState.c ****         {
 797              		.loc 1 141 0 discriminator 3
 798 0096 0134     		adds	r4, r4, #1
 799              	.LVL104:
 800 0098 E4B2     		uxtb	r4, r4
 801              	.LVL105:
 802 009a 00E0     		b	.L76
 803              	.LVL106:
 804              	.L80:
 805 009c 0024     		movs	r4, #0
 806              	.L76:
 807              	.LVL107:
 141:.\SirenState.c ****         {
 808              		.loc 1 141 0 is_stmt 0 discriminator 1
 809 009e 052C     		cmp	r4, #5
 810 00a0 ECD9     		bls	.L75
 139:.\SirenState.c ****     {   //Obtain tones from EEPROM to configure channels
 811              		.loc 1 139 0 is_stmt 1 discriminator 2
 812 00a2 0135     		adds	r5, r5, #1
ARM GAS  C:\Users\faithc\AppData\Local\Temp\ccWgDYSd.s 			page 35


 813              	.LVL108:
 814 00a4 EDB2     		uxtb	r5, r5
 815              	.LVL109:
 816              	.L74:
 139:.\SirenState.c ****     {   //Obtain tones from EEPROM to configure channels
 817              		.loc 1 139 0 is_stmt 0 discriminator 1
 818 00a6 012D     		cmp	r5, #1
 819 00a8 F8D9     		bls	.L80
 147:.\SirenState.c **** 
 820              		.loc 1 147 0 is_stmt 1
 821 00aa 70BD     		pop	{r4, r5, r6, pc}
 822              	.LVL110:
 823              	.L83:
 824              		.align	2
 825              	.L82:
 826 00ac 00000000 		.word	.LANCHOR0
 827 00b0 00000000 		.word	.LANCHOR1
 828              		.cfi_endproc
 829              	.LFE63:
 830              		.size	initializeToneConfigurationList, .-initializeToneConfigurationList
 831              		.section	.text.enableToneInputInterrupts,"ax",%progbits
 832              		.align	2
 833              		.global	enableToneInputInterrupts
 834              		.thumb
 835              		.thumb_func
 836              		.type	enableToneInputInterrupts, %function
 837              	enableToneInputInterrupts:
 838              	.LFB64:
 164:.\SirenState.c ****     TackSwitchISR_Start();
 839              		.loc 1 164 0
 840              		.cfi_startproc
 841              		@ args = 0, pretend = 0, frame = 0
 842              		@ frame_needed = 0, uses_anonymous_args = 0
 843 0000 08B5     		push	{r3, lr}
 844              		.cfi_def_cfa_offset 8
 845              		.cfi_offset 3, -8
 846              		.cfi_offset 14, -4
 165:.\SirenState.c ****     TackSwitchStatus_InterruptEnable();
 847              		.loc 1 165 0
 848 0002 FFF7FEFF 		bl	TackSwitchISR_Start
 849              	.LVL111:
 166:.\SirenState.c ****     
 850              		.loc 1 166 0
 851 0006 FFF7FEFF 		bl	TackSwitchStatus_InterruptEnable
 852              	.LVL112:
 168:.\SirenState.c ****     DualDelayStatus_InterruptEnable();
 853              		.loc 1 168 0
 854 000a FFF7FEFF 		bl	DualDelayISR_Start
 855              	.LVL113:
 169:.\SirenState.c ****     
 856              		.loc 1 169 0
 857 000e FFF7FEFF 		bl	DualDelayStatus_InterruptEnable
 858              	.LVL114:
 171:.\SirenState.c **** }
 859              		.loc 1 171 0
 860 0012 FFF7FEFF 		bl	ModeStatusISR_Start
 861              	.LVL115:
ARM GAS  C:\Users\faithc\AppData\Local\Temp\ccWgDYSd.s 			page 36


 862 0016 08BD     		pop	{r3, pc}
 863              		.cfi_endproc
 864              	.LFE64:
 865              		.size	enableToneInputInterrupts, .-enableToneInputInterrupts
 866              		.section	.text.disableToneInputInterrupts,"ax",%progbits
 867              		.align	2
 868              		.global	disableToneInputInterrupts
 869              		.thumb
 870              		.thumb_func
 871              		.type	disableToneInputInterrupts, %function
 872              	disableToneInputInterrupts:
 873              	.LFB65:
 189:.\SirenState.c ****     TackSwitchStatus_InterruptDisable();
 874              		.loc 1 189 0
 875              		.cfi_startproc
 876              		@ args = 0, pretend = 0, frame = 0
 877              		@ frame_needed = 0, uses_anonymous_args = 0
 878 0000 08B5     		push	{r3, lr}
 879              		.cfi_def_cfa_offset 8
 880              		.cfi_offset 3, -8
 881              		.cfi_offset 14, -4
 190:.\SirenState.c ****     TackSwitchISR_Stop();
 882              		.loc 1 190 0
 883 0002 FFF7FEFF 		bl	TackSwitchStatus_InterruptDisable
 884              	.LVL116:
 191:.\SirenState.c ****     
 885              		.loc 1 191 0
 886 0006 FFF7FEFF 		bl	TackSwitchISR_Stop
 887              	.LVL117:
 193:.\SirenState.c ****     DualDelayISR_Stop();
 888              		.loc 1 193 0
 889 000a FFF7FEFF 		bl	DualDelayStatus_InterruptDisable
 890              	.LVL118:
 194:.\SirenState.c ****     
 891              		.loc 1 194 0
 892 000e FFF7FEFF 		bl	DualDelayISR_Stop
 893              	.LVL119:
 196:.\SirenState.c **** }
 894              		.loc 1 196 0
 895 0012 FFF7FEFF 		bl	ModeStatusISR_Stop
 896              	.LVL120:
 897 0016 08BD     		pop	{r3, pc}
 898              		.cfi_endproc
 899              	.LFE65:
 900              		.size	disableToneInputInterrupts, .-disableToneInputInterrupts
 901              		.section	.text.disableAudioAndPWM,"ax",%progbits
 902              		.align	2
 903              		.global	disableAudioAndPWM
 904              		.thumb
 905              		.thumb_func
 906              		.type	disableAudioAndPWM, %function
 907              	disableAudioAndPWM:
 908              	.LFB74:
 524:.\SirenState.c **** 	stopPWMTone(SPEAKER_1);
 909              		.loc 1 524 0
 910              		.cfi_startproc
 911              		@ args = 0, pretend = 0, frame = 0
ARM GAS  C:\Users\faithc\AppData\Local\Temp\ccWgDYSd.s 			page 37


 912              		@ frame_needed = 0, uses_anonymous_args = 0
 913 0000 08B5     		push	{r3, lr}
 914              		.cfi_def_cfa_offset 8
 915              		.cfi_offset 3, -8
 916              		.cfi_offset 14, -4
 525:.\SirenState.c ****     stopPWMTone(SPEAKER_2);
 917              		.loc 1 525 0
 918 0002 0020     		movs	r0, #0
 919 0004 FFF7FEFF 		bl	stopPWMTone
 920              	.LVL121:
 526:.\SirenState.c ****     stopAudioTone(SPEAKER_1);
 921              		.loc 1 526 0
 922 0008 0120     		movs	r0, #1
 923 000a FFF7FEFF 		bl	stopPWMTone
 924              	.LVL122:
 527:.\SirenState.c ****     stopAudioTone(SPEAKER_2);
 925              		.loc 1 527 0
 926 000e 0020     		movs	r0, #0
 927 0010 FFF7FEFF 		bl	stopAudioTone
 928              	.LVL123:
 528:.\SirenState.c **** }
 929              		.loc 1 528 0
 930 0014 0120     		movs	r0, #1
 931 0016 FFF7FEFF 		bl	stopAudioTone
 932              	.LVL124:
 933 001a 08BD     		pop	{r3, pc}
 934              		.cfi_endproc
 935              	.LFE74:
 936              		.size	disableAudioAndPWM, .-disableAudioAndPWM
 937              		.section	.text.disableBothSpeakers,"ax",%progbits
 938              		.align	2
 939              		.global	disableBothSpeakers
 940              		.thumb
 941              		.thumb_func
 942              		.type	disableBothSpeakers, %function
 943              	disableBothSpeakers:
 944              	.LFB75:
 547:.\SirenState.c **** 	deactivateManualWail();
 945              		.loc 1 547 0
 946              		.cfi_startproc
 947              		@ args = 0, pretend = 0, frame = 0
 948              		@ frame_needed = 0, uses_anonymous_args = 0
 949 0000 08B5     		push	{r3, lr}
 950              		.cfi_def_cfa_offset 8
 951              		.cfi_offset 3, -8
 952              		.cfi_offset 14, -4
 548:.\SirenState.c **** 	deactivateAudio();
 953              		.loc 1 548 0
 954 0002 FFF7FEFF 		bl	deactivateManualWail
 955              	.LVL125:
 549:.\SirenState.c **** 	PowerAmpOutput1_Write(false);
 956              		.loc 1 549 0
 957 0006 FFF7FEFF 		bl	deactivateAudio
 958              	.LVL126:
 550:.\SirenState.c **** 	PowerAmpOutput2_Write(false);
 959              		.loc 1 550 0
 960 000a 0020     		movs	r0, #0
ARM GAS  C:\Users\faithc\AppData\Local\Temp\ccWgDYSd.s 			page 38


 961 000c FFF7FEFF 		bl	PowerAmpOutput1_Write
 962              	.LVL127:
 551:.\SirenState.c ****     playAudioTone(SPEAKER_1, NO_TONE, false);
 963              		.loc 1 551 0
 964 0010 0020     		movs	r0, #0
 965 0012 FFF7FEFF 		bl	PowerAmpOutput2_Write
 966              	.LVL128:
 552:.\SirenState.c ****     playAudioTone(SPEAKER_2, NO_TONE, false);
 967              		.loc 1 552 0
 968 0016 0020     		movs	r0, #0
 969 0018 0146     		mov	r1, r0
 970 001a 0246     		mov	r2, r0
 971 001c FFF7FEFF 		bl	playAudioTone
 972              	.LVL129:
 553:.\SirenState.c ****     playPWMTone(SPEAKER_1, NO_TONE, false, false);
 973              		.loc 1 553 0
 974 0020 0120     		movs	r0, #1
 975 0022 0021     		movs	r1, #0
 976 0024 0A46     		mov	r2, r1
 977 0026 FFF7FEFF 		bl	playAudioTone
 978              	.LVL130:
 554:.\SirenState.c ****     playPWMTone(SPEAKER_2, NO_TONE, false, false);
 979              		.loc 1 554 0
 980 002a 0020     		movs	r0, #0
 981 002c 0146     		mov	r1, r0
 982 002e 0246     		mov	r2, r0
 983 0030 0346     		mov	r3, r0
 984 0032 FFF7FEFF 		bl	playPWMTone
 985              	.LVL131:
 555:.\SirenState.c **** }
 986              		.loc 1 555 0
 987 0036 0120     		movs	r0, #1
 988 0038 0021     		movs	r1, #0
 989 003a 0A46     		mov	r2, r1
 990 003c 0B46     		mov	r3, r1
 991 003e FFF7FEFF 		bl	playPWMTone
 992              	.LVL132:
 993 0042 08BD     		pop	{r3, pc}
 994              		.cfi_endproc
 995              	.LFE75:
 996              		.size	disableBothSpeakers, .-disableBothSpeakers
 997              		.section	.text.decideTonesToPlay,"ax",%progbits
 998              		.align	2
 999              		.thumb
 1000              		.thumb_func
 1001              		.type	decideTonesToPlay, %function
 1002              	decideTonesToPlay:
 1003              	.LFB76:
 573:.\SirenState.c **** 	static uint8 bToneChangeOnHornRing = false;
 1004              		.loc 1 573 0
 1005              		.cfi_startproc
 1006              		@ args = 0, pretend = 0, frame = 0
 1007              		@ frame_needed = 0, uses_anonymous_args = 0
 1008 0000 38B5     		push	{r3, r4, r5, lr}
 1009              		.cfi_def_cfa_offset 16
 1010              		.cfi_offset 3, -16
 1011              		.cfi_offset 4, -12
ARM GAS  C:\Users\faithc\AppData\Local\Temp\ccWgDYSd.s 			page 39


 1012              		.cfi_offset 5, -8
 1013              		.cfi_offset 14, -4
 576:.\SirenState.c ****     
 1014              		.loc 1 576 0
 1015 0002 FFF7FEFF 		bl	disableAudioAndPWM
 1016              	.LVL133:
 578:.\SirenState.c ****         return;	
 1017              		.loc 1 578 0
 1018 0006 9F4B     		ldr	r3, .L122
 1019 0008 1B7B     		ldrb	r3, [r3, #12]	@ zero_extendqisi2
 1020 000a 002B     		cmp	r3, #0
 1021 000c 40F03881 		bne	.L92
 581:.\SirenState.c **** 	{
 1022              		.loc 1 581 0
 1023 0010 9C4B     		ldr	r3, .L122
 1024 0012 9C7D     		ldrb	r4, [r3, #22]	@ zero_extendqisi2
 1025 0014 002C     		cmp	r4, #0
 1026 0016 00F08580 		beq	.L94
 583:.\SirenState.c **** 		{
 1027              		.loc 1 583 0
 1028 001a 2046     		mov	r0, r4
 1029 001c FFF7FEFF 		bl	isAudioTone
 1030              	.LVL134:
 1031 0020 A8B1     		cbz	r0, .L95
 585:.\SirenState.c **** 			{
 1032              		.loc 1 585 0
 1033 0022 2046     		mov	r0, r4
 1034 0024 FFF7FEFF 		bl	isSong
 1035              	.LVL135:
 1036 0028 58B1     		cbz	r0, .L96
 587:.\SirenState.c **** 					enableSpeakersForAudioTone(SPEAKER_1, ToneStatus.currentTone[SPEAKER_1], true);
 1037              		.loc 1 587 0
 1038 002a 964B     		ldr	r3, .L122
 1039 002c 1B7E     		ldrb	r3, [r3, #24]	@ zero_extendqisi2
 1040 002e 2BB1     		cbz	r3, .L97
 588:.\SirenState.c **** 				else	//Plays NO TONE
 1041              		.loc 1 588 0
 1042 0030 0020     		movs	r0, #0
 1043 0032 2146     		mov	r1, r4
 1044 0034 0122     		movs	r2, #1
 1045 0036 FFF7FEFF 		bl	enableSpeakersForAudioTone
 1046              	.LVL136:
 1047 003a 38BD     		pop	{r3, r4, r5, pc}
 1048              	.L97:
 590:.\SirenState.c **** 				
 1049              		.loc 1 590 0
 1050 003c FFF7FEFF 		bl	disableBothSpeakers
 1051              	.LVL137:
 1052 0040 38BD     		pop	{r3, r4, r5, pc}
 1053              	.L96:
 594:.\SirenState.c **** 		}
 1054              		.loc 1 594 0
 1055 0042 0020     		movs	r0, #0
 1056 0044 2146     		mov	r1, r4
 1057 0046 0122     		movs	r2, #1
 1058 0048 FFF7FEFF 		bl	enableSpeakersForAudioTone
 1059              	.LVL138:
ARM GAS  C:\Users\faithc\AppData\Local\Temp\ccWgDYSd.s 			page 40


 1060 004c 38BD     		pop	{r3, r4, r5, pc}
 1061              	.L95:
 598:.\SirenState.c ****     		{
 1062              		.loc 1 598 0
 1063 004e 8D4B     		ldr	r3, .L122
 1064 0050 DD7D     		ldrb	r5, [r3, #23]	@ zero_extendqisi2
 1065 0052 2846     		mov	r0, r5
 1066 0054 FFF7FEFF 		bl	isAudioTone
 1067              	.LVL139:
 1068 0058 A8B1     		cbz	r0, .L98
 600:.\SirenState.c ****     			{
 1069              		.loc 1 600 0
 1070 005a 2846     		mov	r0, r5
 1071 005c FFF7FEFF 		bl	isSong
 1072              	.LVL140:
 1073 0060 58B1     		cbz	r0, .L99
 602:.\SirenState.c ****     					enableSpeakersForAudioTone(SPEAKER_2, ToneStatus.currentTone[SPEAKER_2], true);
 1074              		.loc 1 602 0
 1075 0062 884B     		ldr	r3, .L122
 1076 0064 5B7E     		ldrb	r3, [r3, #25]	@ zero_extendqisi2
 1077 0066 2BB1     		cbz	r3, .L100
 603:.\SirenState.c ****     				else	//Plays NO TONE
 1078              		.loc 1 603 0
 1079 0068 0120     		movs	r0, #1
 1080 006a 2946     		mov	r1, r5
 1081 006c 0246     		mov	r2, r0
 1082 006e FFF7FEFF 		bl	enableSpeakersForAudioTone
 1083              	.LVL141:
 1084 0072 38BD     		pop	{r3, r4, r5, pc}
 1085              	.L100:
 605:.\SirenState.c ****     				
 1086              		.loc 1 605 0
 1087 0074 FFF7FEFF 		bl	disableBothSpeakers
 1088              	.LVL142:
 1089 0078 38BD     		pop	{r3, r4, r5, pc}
 1090              	.L99:
 609:.\SirenState.c ****     		}
 1091              		.loc 1 609 0
 1092 007a 0120     		movs	r0, #1
 1093 007c 2946     		mov	r1, r5
 1094 007e 0246     		mov	r2, r0
 1095 0080 FFF7FEFF 		bl	enableSpeakersForAudioTone
 1096              	.LVL143:
 1097 0084 38BD     		pop	{r3, r4, r5, pc}
 1098              	.L98:
 611:.\SirenState.c **** 				disableBothSpeakers();
 1099              		.loc 1 611 0
 1100 0086 7F4B     		ldr	r3, .L122
 1101 0088 5B7B     		ldrb	r3, [r3, #13]	@ zero_extendqisi2
 1102 008a 13B1     		cbz	r3, .L101
 612:.\SirenState.c **** 			else if(InputRead.bHornRing)
 1103              		.loc 1 612 0
 1104 008c FFF7FEFF 		bl	disableBothSpeakers
 1105              	.LVL144:
 1106 0090 38BD     		pop	{r3, r4, r5, pc}
 1107              	.L101:
 613:.\SirenState.c **** 			{	//Plays NO TONE
ARM GAS  C:\Users\faithc\AppData\Local\Temp\ccWgDYSd.s 			page 41


 1108              		.loc 1 613 0
 1109 0092 7C4B     		ldr	r3, .L122
 1110 0094 DB7B     		ldrb	r3, [r3, #15]	@ zero_extendqisi2
 1111 0096 43B1     		cbz	r3, .L102
 615:.\SirenState.c **** 				disableBothSpeakers();
 1112              		.loc 1 615 0
 1113 0098 7A4A     		ldr	r2, .L122
 1114 009a D37E     		ldrb	r3, [r2, #27]	@ zero_extendqisi2
 1115 009c B3FA83F3 		clz	r3, r3
 1116 00a0 5B09     		lsrs	r3, r3, #5
 1117 00a2 D376     		strb	r3, [r2, #27]
 616:.\SirenState.c **** 			}
 1118              		.loc 1 616 0
 1119 00a4 FFF7FEFF 		bl	disableBothSpeakers
 1120              	.LVL145:
 1121 00a8 38BD     		pop	{r3, r4, r5, pc}
 1122              	.L102:
 618:.\SirenState.c **** 			{	//Plays SPEAKER 1 SIREN TONE
 1123              		.loc 1 618 0
 1124 00aa 764B     		ldr	r3, .L122
 1125 00ac DB7E     		ldrb	r3, [r3, #27]	@ zero_extendqisi2
 1126 00ae FBB1     		cbz	r3, .L103
 620:.\SirenState.c ****                     true, ToneStatus.bDualDelayEnable);
 1127              		.loc 1 620 0
 1128 00b0 2046     		mov	r0, r4
 1129 00b2 FFF7FEFF 		bl	getAlternatingTone
 1130              	.LVL146:
 1131 00b6 0146     		mov	r1, r0
 1132 00b8 724C     		ldr	r4, .L122
 1133 00ba 0020     		movs	r0, #0
 1134 00bc 0122     		movs	r2, #1
 1135 00be A37E     		ldrb	r3, [r4, #26]	@ zero_extendqisi2
 1136 00c0 FFF7FEFF 		bl	enableSpeakerForSirenTone
 1137              	.LVL147:
 623:.\SirenState.c **** 					enableSpeakerForSirenTone(SPEAKER_2, getAlternatingTone(ToneStatus.currentTone[SPEAKER_2]), 
 1138              		.loc 1 623 0
 1139 00c4 E07D     		ldrb	r0, [r4, #23]	@ zero_extendqisi2
 1140 00c6 40B1     		cbz	r0, .L104
 624:.\SirenState.c ****                         true, ToneStatus.bDualDelayEnable);
 1141              		.loc 1 624 0
 1142 00c8 FFF7FEFF 		bl	getAlternatingTone
 1143              	.LVL148:
 1144 00cc 0146     		mov	r1, r0
 1145 00ce 0120     		movs	r0, #1
 1146 00d0 0246     		mov	r2, r0
 1147 00d2 A37E     		ldrb	r3, [r4, #26]	@ zero_extendqisi2
 1148 00d4 FFF7FEFF 		bl	enableSpeakerForSirenTone
 1149              	.LVL149:
 1150 00d8 38BD     		pop	{r3, r4, r5, pc}
 1151              	.L104:
 628:.\SirenState.c ****                     enableSpeakerForSirenTone(SPEAKER_2, NO_TONE, false, ToneStatus.bDualDelayEnabl
 1152              		.loc 1 628 0
 1153 00da 0020     		movs	r0, #0
 1154 00dc FFF7FEFF 		bl	PowerAmpOutput2_Write
 1155              	.LVL150:
 629:.\SirenState.c ****                 }
 1156              		.loc 1 629 0
ARM GAS  C:\Users\faithc\AppData\Local\Temp\ccWgDYSd.s 			page 42


 1157 00e0 0120     		movs	r0, #1
 1158 00e2 0021     		movs	r1, #0
 1159 00e4 0A46     		mov	r2, r1
 1160 00e6 674B     		ldr	r3, .L122
 1161 00e8 9B7E     		ldrb	r3, [r3, #26]	@ zero_extendqisi2
 1162 00ea FFF7FEFF 		bl	enableSpeakerForSirenTone
 1163              	.LVL151:
 1164 00ee 38BD     		pop	{r3, r4, r5, pc}
 1165              	.L103:
 634:.\SirenState.c ****                     true, ToneStatus.bDualDelayEnable);
 1166              		.loc 1 634 0
 1167 00f0 644D     		ldr	r5, .L122
 1168 00f2 0020     		movs	r0, #0
 1169 00f4 2146     		mov	r1, r4
 1170 00f6 0122     		movs	r2, #1
 1171 00f8 AB7E     		ldrb	r3, [r5, #26]	@ zero_extendqisi2
 1172 00fa FFF7FEFF 		bl	enableSpeakerForSirenTone
 1173              	.LVL152:
 637:.\SirenState.c **** 					enableSpeakerForSirenTone(SPEAKER_2, ToneStatus.currentTone[SPEAKER_2],
 1174              		.loc 1 637 0
 1175 00fe E97D     		ldrb	r1, [r5, #23]	@ zero_extendqisi2
 1176 0100 29B1     		cbz	r1, .L105
 638:.\SirenState.c ****                         true, ToneStatus.bDualDelayEnable);
 1177              		.loc 1 638 0
 1178 0102 0120     		movs	r0, #1
 1179 0104 0246     		mov	r2, r0
 1180 0106 AB7E     		ldrb	r3, [r5, #26]	@ zero_extendqisi2
 1181 0108 FFF7FEFF 		bl	enableSpeakerForSirenTone
 1182              	.LVL153:
 1183 010c 38BD     		pop	{r3, r4, r5, pc}
 1184              	.L105:
 642:.\SirenState.c ****                     enableSpeakerForSirenTone(SPEAKER_2, NO_TONE, false, ToneStatus.bDualDelayEnabl
 1185              		.loc 1 642 0
 1186 010e 0020     		movs	r0, #0
 1187 0110 FFF7FEFF 		bl	PowerAmpOutput2_Write
 1188              	.LVL154:
 643:.\SirenState.c ****                 }
 1189              		.loc 1 643 0
 1190 0114 0120     		movs	r0, #1
 1191 0116 0021     		movs	r1, #0
 1192 0118 0A46     		mov	r2, r1
 1193 011a 5A4B     		ldr	r3, .L122
 1194 011c 9B7E     		ldrb	r3, [r3, #26]	@ zero_extendqisi2
 1195 011e FFF7FEFF 		bl	enableSpeakerForSirenTone
 1196              	.LVL155:
 1197 0122 38BD     		pop	{r3, r4, r5, pc}
 1198              	.L94:
 648:.\SirenState.c **** 	{
 1199              		.loc 1 648 0
 1200 0124 574B     		ldr	r3, .L122
 1201 0126 DC7D     		ldrb	r4, [r3, #23]	@ zero_extendqisi2
 1202 0128 002C     		cmp	r4, #0
 1203 012a 53D0     		beq	.L106
 650:.\SirenState.c **** 		{
 1204              		.loc 1 650 0
 1205 012c 2046     		mov	r0, r4
 1206 012e FFF7FEFF 		bl	isAudioTone
ARM GAS  C:\Users\faithc\AppData\Local\Temp\ccWgDYSd.s 			page 43


 1207              	.LVL156:
 1208 0132 A8B1     		cbz	r0, .L107
 652:.\SirenState.c **** 			{
 1209              		.loc 1 652 0
 1210 0134 2046     		mov	r0, r4
 1211 0136 FFF7FEFF 		bl	isSong
 1212              	.LVL157:
 1213 013a 58B1     		cbz	r0, .L108
 654:.\SirenState.c **** 					enableSpeakersForAudioTone(SPEAKER_2, ToneStatus.currentTone[SPEAKER_2], true);
 1214              		.loc 1 654 0
 1215 013c 514B     		ldr	r3, .L122
 1216 013e 5B7E     		ldrb	r3, [r3, #25]	@ zero_extendqisi2
 1217 0140 2BB1     		cbz	r3, .L109
 655:.\SirenState.c **** 				else	//Plays NO TONE
 1218              		.loc 1 655 0
 1219 0142 0120     		movs	r0, #1
 1220 0144 2146     		mov	r1, r4
 1221 0146 0246     		mov	r2, r0
 1222 0148 FFF7FEFF 		bl	enableSpeakersForAudioTone
 1223              	.LVL158:
 1224 014c 38BD     		pop	{r3, r4, r5, pc}
 1225              	.L109:
 657:.\SirenState.c **** 				
 1226              		.loc 1 657 0
 1227 014e FFF7FEFF 		bl	disableBothSpeakers
 1228              	.LVL159:
 1229 0152 38BD     		pop	{r3, r4, r5, pc}
 1230              	.L108:
 661:.\SirenState.c **** 		}
 1231              		.loc 1 661 0
 1232 0154 0120     		movs	r0, #1
 1233 0156 2146     		mov	r1, r4
 1234 0158 0246     		mov	r2, r0
 1235 015a FFF7FEFF 		bl	enableSpeakersForAudioTone
 1236              	.LVL160:
 1237 015e 38BD     		pop	{r3, r4, r5, pc}
 1238              	.L107:
 665:.\SirenState.c **** 				disableBothSpeakers();
 1239              		.loc 1 665 0
 1240 0160 484B     		ldr	r3, .L122
 1241 0162 5B7B     		ldrb	r3, [r3, #13]	@ zero_extendqisi2
 1242 0164 13B1     		cbz	r3, .L110
 666:.\SirenState.c **** 			else if(InputRead.bHornRing)
 1243              		.loc 1 666 0
 1244 0166 FFF7FEFF 		bl	disableBothSpeakers
 1245              	.LVL161:
 1246 016a 38BD     		pop	{r3, r4, r5, pc}
 1247              	.L110:
 667:.\SirenState.c **** 			{	//Plays NO TONE
 1248              		.loc 1 667 0
 1249 016c 454B     		ldr	r3, .L122
 1250 016e DB7B     		ldrb	r3, [r3, #15]	@ zero_extendqisi2
 1251 0170 43B1     		cbz	r3, .L111
 669:.\SirenState.c **** 				disableBothSpeakers();
 1252              		.loc 1 669 0
 1253 0172 444A     		ldr	r2, .L122
 1254 0174 D37E     		ldrb	r3, [r2, #27]	@ zero_extendqisi2
ARM GAS  C:\Users\faithc\AppData\Local\Temp\ccWgDYSd.s 			page 44


 1255 0176 B3FA83F3 		clz	r3, r3
 1256 017a 5B09     		lsrs	r3, r3, #5
 1257 017c D376     		strb	r3, [r2, #27]
 670:.\SirenState.c **** 			}
 1258              		.loc 1 670 0
 1259 017e FFF7FEFF 		bl	disableBothSpeakers
 1260              	.LVL162:
 1261 0182 38BD     		pop	{r3, r4, r5, pc}
 1262              	.L111:
 672:.\SirenState.c **** 			{	//Plays SPEAKER 2 SIREN TONE
 1263              		.loc 1 672 0
 1264 0184 3F4B     		ldr	r3, .L122
 1265 0186 DB7E     		ldrb	r3, [r3, #27]	@ zero_extendqisi2
 1266 0188 9BB1     		cbz	r3, .L112
 674:.\SirenState.c ****                 enableSpeakerForSirenTone(SPEAKER_1, NO_TONE, false, ToneStatus.bDualDelayEnable);
 1267              		.loc 1 674 0
 1268 018a 0020     		movs	r0, #0
 1269 018c FFF7FEFF 		bl	PowerAmpOutput1_Write
 1270              	.LVL163:
 675:.\SirenState.c **** 				enableSpeakerForSirenTone(SPEAKER_2, getAlternatingTone(ToneStatus.currentTone[SPEAKER_2]),
 1271              		.loc 1 675 0
 1272 0190 3C4C     		ldr	r4, .L122
 1273 0192 0020     		movs	r0, #0
 1274 0194 0146     		mov	r1, r0
 1275 0196 0246     		mov	r2, r0
 1276 0198 A37E     		ldrb	r3, [r4, #26]	@ zero_extendqisi2
 1277 019a FFF7FEFF 		bl	enableSpeakerForSirenTone
 1278              	.LVL164:
 676:.\SirenState.c ****                     true, InputRead.bDualDelay);
 1279              		.loc 1 676 0
 1280 019e E07D     		ldrb	r0, [r4, #23]	@ zero_extendqisi2
 1281 01a0 FFF7FEFF 		bl	getAlternatingTone
 1282              	.LVL165:
 1283 01a4 0146     		mov	r1, r0
 1284 01a6 0120     		movs	r0, #1
 1285 01a8 0246     		mov	r2, r0
 1286 01aa 237C     		ldrb	r3, [r4, #16]	@ zero_extendqisi2
 1287 01ac FFF7FEFF 		bl	enableSpeakerForSirenTone
 1288              	.LVL166:
 1289 01b0 38BD     		pop	{r3, r4, r5, pc}
 1290              	.L112:
 681:.\SirenState.c ****                 enableSpeakerForSirenTone(SPEAKER_1, NO_TONE, false, ToneStatus.bDualDelayEnable);
 1291              		.loc 1 681 0
 1292 01b2 0020     		movs	r0, #0
 1293 01b4 FFF7FEFF 		bl	PowerAmpOutput1_Write
 1294              	.LVL167:
 682:.\SirenState.c **** 				enableSpeakerForSirenTone(SPEAKER_2, ToneStatus.currentTone[SPEAKER_2],
 1295              		.loc 1 682 0
 1296 01b8 324C     		ldr	r4, .L122
 1297 01ba 0020     		movs	r0, #0
 1298 01bc 0146     		mov	r1, r0
 1299 01be 0246     		mov	r2, r0
 1300 01c0 A37E     		ldrb	r3, [r4, #26]	@ zero_extendqisi2
 1301 01c2 FFF7FEFF 		bl	enableSpeakerForSirenTone
 1302              	.LVL168:
 683:.\SirenState.c ****                     true, InputRead.bDualDelay);
 1303              		.loc 1 683 0
ARM GAS  C:\Users\faithc\AppData\Local\Temp\ccWgDYSd.s 			page 45


 1304 01c6 0120     		movs	r0, #1
 1305 01c8 E17D     		ldrb	r1, [r4, #23]	@ zero_extendqisi2
 1306 01ca 0246     		mov	r2, r0
 1307 01cc 237C     		ldrb	r3, [r4, #16]	@ zero_extendqisi2
 1308 01ce FFF7FEFF 		bl	enableSpeakerForSirenTone
 1309              	.LVL169:
 1310 01d2 38BD     		pop	{r3, r4, r5, pc}
 1311              	.L106:
 690:.\SirenState.c ****             disableBothSpeakers();
 1312              		.loc 1 690 0
 1313 01d4 2B4B     		ldr	r3, .L122
 1314 01d6 5B7B     		ldrb	r3, [r3, #13]	@ zero_extendqisi2
 1315 01d8 13B1     		cbz	r3, .L113
 691:.\SirenState.c ****         else
 1316              		.loc 1 691 0
 1317 01da FFF7FEFF 		bl	disableBothSpeakers
 1318              	.LVL170:
 1319 01de 38BD     		pop	{r3, r4, r5, pc}
 1320              	.L113:
 694:.\SirenState.c ****     		{	//Plays HORN
 1321              		.loc 1 694 0
 1322 01e0 284B     		ldr	r3, .L122
 1323 01e2 DB7B     		ldrb	r3, [r3, #15]	@ zero_extendqisi2
 1324 01e4 8BB1     		cbz	r3, .L114
 696:.\SirenState.c ****     			deactivateManualWail();
 1325              		.loc 1 696 0
 1326 01e6 0024     		movs	r4, #0
 1327 01e8 264B     		ldr	r3, .L122
 1328 01ea DC76     		strb	r4, [r3, #27]
 697:.\SirenState.c ****     			enableSpeakerForSirenTone(SPEAKER_1, HORN, false, false);
 1329              		.loc 1 697 0
 1330 01ec FFF7FEFF 		bl	deactivateManualWail
 1331              	.LVL171:
 698:.\SirenState.c ****     			enableSpeakerForSirenTone(SPEAKER_2, HORN, false, false);
 1332              		.loc 1 698 0
 1333 01f0 2046     		mov	r0, r4
 1334 01f2 0521     		movs	r1, #5
 1335 01f4 2246     		mov	r2, r4
 1336 01f6 2346     		mov	r3, r4
 1337 01f8 FFF7FEFF 		bl	enableSpeakerForSirenTone
 1338              	.LVL172:
 699:.\SirenState.c ****     		}
 1339              		.loc 1 699 0
 1340 01fc 0120     		movs	r0, #1
 1341 01fe 0521     		movs	r1, #5
 1342 0200 2246     		mov	r2, r4
 1343 0202 2346     		mov	r3, r4
 1344 0204 FFF7FEFF 		bl	enableSpeakerForSirenTone
 1345              	.LVL173:
 1346 0208 38BD     		pop	{r3, r4, r5, pc}
 1347              	.L114:
 701:.\SirenState.c ****     		{
 1348              		.loc 1 701 0
 1349 020a 1E4B     		ldr	r3, .L122
 1350 020c 1C7D     		ldrb	r4, [r3, #20]	@ zero_extendqisi2
 1351 020e 2046     		mov	r0, r4
 1352 0210 FFF7FEFF 		bl	isTrailingTone
ARM GAS  C:\Users\faithc\AppData\Local\Temp\ccWgDYSd.s 			page 46


 1353              	.LVL174:
 1354 0214 A0B1     		cbz	r0, .L115
 703:.\SirenState.c ****     				enableSpeakersForAudioTone(SPEAKER_1, ToneStatus.previousTone[SPEAKER_1], false);
 1355              		.loc 1 703 0
 1356 0216 2046     		mov	r0, r4
 1357 0218 FFF7FEFF 		bl	isAudioTone
 1358              	.LVL175:
 1359 021c 28B1     		cbz	r0, .L116
 704:.\SirenState.c ****     			else	//Plays MANUAL WAIL
 1360              		.loc 1 704 0
 1361 021e 0020     		movs	r0, #0
 1362 0220 2146     		mov	r1, r4
 1363 0222 0246     		mov	r2, r0
 1364 0224 FFF7FEFF 		bl	enableSpeakersForAudioTone
 1365              	.LVL176:
 1366 0228 05E0     		b	.L117
 1367              	.L116:
 706:.\SirenState.c ****                 
 1368              		.loc 1 706 0
 1369 022a 0020     		movs	r0, #0
 1370 022c 2146     		mov	r1, r4
 1371 022e 0246     		mov	r2, r0
 1372 0230 0346     		mov	r3, r0
 1373 0232 FFF7FEFF 		bl	enableSpeakerForSirenTone
 1374              	.LVL177:
 1375              	.L117:
 708:.\SirenState.c ****                 bToneChangeOnHornRing = false;
 1376              		.loc 1 708 0
 1377 0236 134B     		ldr	r3, .L122
 1378 0238 0022     		movs	r2, #0
 1379 023a 1A75     		strb	r2, [r3, #20]
 709:.\SirenState.c ****     		}
 1380              		.loc 1 709 0
 1381 023c DA76     		strb	r2, [r3, #27]
 1382 023e 38BD     		pop	{r3, r4, r5, pc}
 1383              	.L115:
 711:.\SirenState.c ****     		{
 1384              		.loc 1 711 0
 1385 0240 104B     		ldr	r3, .L122
 1386 0242 5C7D     		ldrb	r4, [r3, #21]	@ zero_extendqisi2
 1387 0244 2046     		mov	r0, r4
 1388 0246 FFF7FEFF 		bl	isTrailingTone
 1389              	.LVL178:
 1390 024a A0B1     		cbz	r0, .L118
 713:.\SirenState.c ****     				enableSpeakersForAudioTone(SPEAKER_2, ToneStatus.previousTone[SPEAKER_2], false);	
 1391              		.loc 1 713 0
 1392 024c 2046     		mov	r0, r4
 1393 024e FFF7FEFF 		bl	isAudioTone
 1394              	.LVL179:
 1395 0252 28B1     		cbz	r0, .L119
 714:.\SirenState.c ****     			else	//Plays MANUAL WAIL	
 1396              		.loc 1 714 0
 1397 0254 0120     		movs	r0, #1
 1398 0256 2146     		mov	r1, r4
 1399 0258 0022     		movs	r2, #0
 1400 025a FFF7FEFF 		bl	enableSpeakersForAudioTone
 1401              	.LVL180:
ARM GAS  C:\Users\faithc\AppData\Local\Temp\ccWgDYSd.s 			page 47


 1402 025e 05E0     		b	.L120
 1403              	.L119:
 716:.\SirenState.c ****                     
 1404              		.loc 1 716 0
 1405 0260 0120     		movs	r0, #1
 1406 0262 2146     		mov	r1, r4
 1407 0264 0022     		movs	r2, #0
 1408 0266 1346     		mov	r3, r2
 1409 0268 FFF7FEFF 		bl	enableSpeakerForSirenTone
 1410              	.LVL181:
 1411              	.L120:
 718:.\SirenState.c ****                 bToneChangeOnHornRing = false;
 1412              		.loc 1 718 0
 1413 026c 054B     		ldr	r3, .L122
 1414 026e 0022     		movs	r2, #0
 1415 0270 5A75     		strb	r2, [r3, #21]
 719:.\SirenState.c ****     		}
 1416              		.loc 1 719 0
 1417 0272 DA76     		strb	r2, [r3, #27]
 1418 0274 38BD     		pop	{r3, r4, r5, pc}
 1419              	.L118:
 723:.\SirenState.c ****     			disableBothSpeakers();
 1420              		.loc 1 723 0
 1421 0276 0022     		movs	r2, #0
 1422 0278 024B     		ldr	r3, .L122
 1423 027a DA76     		strb	r2, [r3, #27]
 724:.\SirenState.c ****             }
 1424              		.loc 1 724 0
 1425 027c FFF7FEFF 		bl	disableBothSpeakers
 1426              	.LVL182:
 1427              	.L92:
 1428 0280 38BD     		pop	{r3, r4, r5, pc}
 1429              	.L123:
 1430 0282 00BF     		.align	2
 1431              	.L122:
 1432 0284 00000000 		.word	.LANCHOR1
 1433              		.cfi_endproc
 1434              	.LFE76:
 1435              		.size	decideTonesToPlay, .-decideTonesToPlay
 1436              		.section	.text.initializeInputReadings,"ax",%progbits
 1437              		.align	2
 1438              		.global	initializeInputReadings
 1439              		.thumb
 1440              		.thumb_func
 1441              		.type	initializeInputReadings, %function
 1442              	initializeInputReadings:
 1443              	.LFB66:
 214:.\SirenState.c **** 	uint8 speakerIndex = 0;
 1444              		.loc 1 214 0
 1445              		.cfi_startproc
 1446              		@ args = 0, pretend = 0, frame = 0
 1447              		@ frame_needed = 0, uses_anonymous_args = 0
 1448 0000 10B5     		push	{r4, lr}
 1449              		.cfi_def_cfa_offset 8
 1450              		.cfi_offset 4, -8
 1451              		.cfi_offset 14, -4
 1452              	.LVL183:
ARM GAS  C:\Users\faithc\AppData\Local\Temp\ccWgDYSd.s 			page 48


 217:.\SirenState.c ****     InputRead.bRadioAndMicKey |= MicKeyInput_Read();
 1453              		.loc 1 217 0
 1454 0002 FFF7FEFF 		bl	RadioRebroadcastInput_Read
 1455              	.LVL184:
 1456 0006 104C     		ldr	r4, .L128
 1457 0008 2073     		strb	r0, [r4, #12]
 218:.\SirenState.c ****     InputRead.bParkKill = ParkKillStatus_Read() & 0x01;
 1458              		.loc 1 218 0
 1459 000a FFF7FEFF 		bl	MicKeyInput_Read
 1460              	.LVL185:
 1461 000e 237B     		ldrb	r3, [r4, #12]	@ zero_extendqisi2
 1462 0010 1843     		orrs	r0, r0, r3
 1463 0012 2073     		strb	r0, [r4, #12]
 219:.\SirenState.c ****     InputRead.bHornRing = HornRingStatus_Read() & 0x01;
 1464              		.loc 1 219 0
 1465 0014 FFF7FEFF 		bl	ParkKillStatus_Read
 1466              	.LVL186:
 1467 0018 00F00100 		and	r0, r0, #1
 1468 001c 6073     		strb	r0, [r4, #13]
 220:.\SirenState.c **** 	
 1469              		.loc 1 220 0
 1470 001e FFF7FEFF 		bl	HornRingStatus_Read
 1471              	.LVL187:
 1472 0022 00F00100 		and	r0, r0, #1
 1473 0026 E073     		strb	r0, [r4, #15]
 222:.\SirenState.c **** 		InputRead.highestPriorityChannel[speakerIndex] = getHighestPriorityChannel(speakerIndex);
 1474              		.loc 1 222 0
 1475 0028 0024     		movs	r4, #0
 1476 002a 07E0     		b	.L125
 1477              	.LVL188:
 1478              	.L126:
 223:.\SirenState.c ****     
 1479              		.loc 1 223 0 discriminator 3
 1480 002c 2046     		mov	r0, r4
 1481 002e FFF7FEFF 		bl	getHighestPriorityChannel
 1482              	.LVL189:
 1483 0032 054B     		ldr	r3, .L128
 1484 0034 2344     		add	r3, r3, r4
 1485 0036 5874     		strb	r0, [r3, #17]
 222:.\SirenState.c **** 		InputRead.highestPriorityChannel[speakerIndex] = getHighestPriorityChannel(speakerIndex);
 1486              		.loc 1 222 0 discriminator 3
 1487 0038 0134     		adds	r4, r4, #1
 1488              	.LVL190:
 1489 003a E4B2     		uxtb	r4, r4
 1490              	.LVL191:
 1491              	.L125:
 222:.\SirenState.c **** 		InputRead.highestPriorityChannel[speakerIndex] = getHighestPriorityChannel(speakerIndex);
 1492              		.loc 1 222 0 is_stmt 0 discriminator 1
 1493 003c 012C     		cmp	r4, #1
 1494 003e F5D9     		bls	.L126
 225:.\SirenState.c **** }
 1495              		.loc 1 225 0 is_stmt 1
 1496 0040 FFF7FEFF 		bl	decideTonesToPlay
 1497              	.LVL192:
 1498 0044 10BD     		pop	{r4, pc}
 1499              	.LVL193:
 1500              	.L129:
ARM GAS  C:\Users\faithc\AppData\Local\Temp\ccWgDYSd.s 			page 49


 1501 0046 00BF     		.align	2
 1502              	.L128:
 1503 0048 00000000 		.word	.LANCHOR1
 1504              		.cfi_endproc
 1505              	.LFE66:
 1506              		.size	initializeInputReadings, .-initializeInputReadings
 1507              		.section	.text.processTackSwitchRoutine,"ax",%progbits
 1508              		.align	2
 1509              		.global	processTackSwitchRoutine
 1510              		.thumb
 1511              		.thumb_func
 1512              		.type	processTackSwitchRoutine, %function
 1513              	processTackSwitchRoutine:
 1514              	.LFB67:
 244:.\SirenState.c ****     enum ToneType toneToPlay = NO_TONE;
 1515              		.loc 1 244 0
 1516              		.cfi_startproc
 1517              		@ args = 0, pretend = 0, frame = 0
 1518              		@ frame_needed = 0, uses_anonymous_args = 0
 1519 0000 2DE9F041 		push	{r4, r5, r6, r7, r8, lr}
 1520              		.cfi_def_cfa_offset 24
 1521              		.cfi_offset 4, -24
 1522              		.cfi_offset 5, -20
 1523              		.cfi_offset 6, -16
 1524              		.cfi_offset 7, -12
 1525              		.cfi_offset 8, -8
 1526              		.cfi_offset 14, -4
 1527              	.LVL194:
 250:.\SirenState.c ****     
 1528              		.loc 1 250 0
 1529 0004 FFF7FEFF 		bl	TackSwitchStatus_Read
 1530              	.LVL195:
 1531 0008 00F00100 		and	r0, r0, #1
 1532 000c 284B     		ldr	r3, .L138
 1533 000e 9873     		strb	r0, [r3, #14]
 252:.\SirenState.c ****     {
 1534              		.loc 1 252 0
 1535 0010 1B7B     		ldrb	r3, [r3, #12]	@ zero_extendqisi2
 1536 0012 002B     		cmp	r3, #0
 1537 0014 4AD1     		bne	.L130
 252:.\SirenState.c ****     {
 1538              		.loc 1 252 0 is_stmt 0 discriminator 1
 1539 0016 264B     		ldr	r3, .L138
 1540 0018 5B7B     		ldrb	r3, [r3, #13]	@ zero_extendqisi2
 1541 001a 002B     		cmp	r3, #0
 1542 001c 46D1     		bne	.L130
 254:.\SirenState.c ****         {
 1543              		.loc 1 254 0 is_stmt 1
 1544 001e 38B1     		cbz	r0, .L132
 256:.\SirenState.c **** 	        deactivateAudio();
 1545              		.loc 1 256 0
 1546 0020 FFF7FEFF 		bl	deactivateManualWail
 1547              	.LVL196:
 257:.\SirenState.c **** 			disableAudioAndPWM();
 1548              		.loc 1 257 0
 1549 0024 FFF7FEFF 		bl	deactivateAudio
 1550              	.LVL197:
ARM GAS  C:\Users\faithc\AppData\Local\Temp\ccWgDYSd.s 			page 50


 258:.\SirenState.c ****         }
 1551              		.loc 1 258 0
 1552 0028 FFF7FEFF 		bl	disableAudioAndPWM
 1553              	.LVL198:
 1554 002c BDE8F081 		pop	{r4, r5, r6, r7, r8, pc}
 1555              	.L132:
 262:.\SirenState.c ****             
 1556              		.loc 1 262 0
 1557 0030 FFF7FEFF 		bl	EEPROM_UpdateTemperature
 1558              	.LVL199:
 264:.\SirenState.c ****             {   //Speaker 1 addresses range 0x00 to 0x05, Speaker 2 addresses range 0x06 to 0x0B 
 1559              		.loc 1 264 0
 1560 0034 0024     		movs	r4, #0
 245:.\SirenState.c ****     uint16 addressIndex = 0;
 1561              		.loc 1 245 0
 1562 0036 2746     		mov	r7, r4
 264:.\SirenState.c ****             {   //Speaker 1 addresses range 0x00 to 0x05, Speaker 2 addresses range 0x06 to 0x0B 
 1563              		.loc 1 264 0
 1564 0038 34E0     		b	.L133
 1565              	.LVL200:
 1566              	.L136:
 266:.\SirenState.c ****                 addressIndex = (uint16)(CHANNEL_COUNT_PER_SPEAKER * bSpeakerIndex + channelIndex);
 1567              		.loc 1 266 0
 1568 003a 2646     		mov	r6, r4
 1569 003c 1C4B     		ldr	r3, .L138
 1570 003e 2344     		add	r3, r3, r4
 1571 0040 93F81180 		ldrb	r8, [r3, #17]	@ zero_extendqisi2
 1572              	.LVL201:
 267:.\SirenState.c ****                 
 1573              		.loc 1 267 0
 1574 0044 04EB4403 		add	r3, r4, r4, lsl #1
 1575 0048 5900     		lsls	r1, r3, #1
 1576 004a 4144     		add	r1, r1, r8
 1577 004c 8DB2     		uxth	r5, r1
 1578              	.LVL202:
 269:.\SirenState.c ****                 {
 1579              		.loc 1 269 0
 1580 004e B8F1FF0F 		cmp	r8, #255
 1581 0052 25D0     		beq	.L134
 271:.\SirenState.c ****                     {   //Gets original tone for that channel as starting tone in the list         
 1582              		.loc 1 271 0
 1583 0054 A7B9     		cbnz	r7, .L135
 273:.\SirenState.c ****                         toneToPlay = (toneToPlay + 1) % TONE_TYPE_LIST_SIZE;  //Increments to next 
 1584              		.loc 1 273 0
 1585 0056 2846     		mov	r0, r5
 1586 0058 FFF7FEFF 		bl	EEPROM_ReadByte
 1587              	.LVL203:
 274:.\SirenState.c ****                         
 1588              		.loc 1 274 0
 1589 005c 0130     		adds	r0, r0, #1
 1590              	.LVL204:
 1591 005e 154A     		ldr	r2, .L138+4
 1592 0060 80FB0223 		smull	r2, r3, r0, r2
 1593 0064 C718     		adds	r7, r0, r3
 1594 0066 C317     		asrs	r3, r0, #31
 1595 0068 C3EB2717 		rsb	r7, r3, r7, asr #4
 1596 006c 07EB4703 		add	r3, r7, r7, lsl #1
ARM GAS  C:\Users\faithc\AppData\Local\Temp\ccWgDYSd.s 			page 51


 1597 0070 C7EBC307 		rsb	r7, r7, r3, lsl #3
 1598 0074 C71B     		subs	r7, r0, r7
 1599              	.LVL205:
 276:.\SirenState.c ****                             toneToPlay++;  //Makes sure a tone is always selected
 1600              		.loc 1 276 0
 1601 0076 17F0FF07 		ands	r7, r7, #255
 1602              	.LVL206:
 1603 007a 01D1     		bne	.L135
 277:.\SirenState.c ****                     }
 1604              		.loc 1 277 0
 1605 007c 0137     		adds	r7, r7, #1
 1606 007e FFB2     		uxtb	r7, r7
 1607              	.LVL207:
 1608              	.L135:
 280:.\SirenState.c **** 					toneConfigurationList[bSpeakerIndex][channelIndex] = toneToPlay;
 1609              		.loc 1 280 0
 1610 0080 3846     		mov	r0, r7
 1611 0082 2946     		mov	r1, r5
 1612 0084 FFF7FEFF 		bl	EEPROM_WriteByte
 1613              	.LVL208:
 281:.\SirenState.c **** 					ToneStatus.previousTone[bSpeakerIndex] = ToneStatus.currentTone[bSpeakerIndex];
 1614              		.loc 1 281 0
 1615 0088 094B     		ldr	r3, .L138
 1616 008a 06EB4602 		add	r2, r6, r6, lsl #1
 1617 008e 5200     		lsls	r2, r2, #1
 1618 0090 4244     		add	r2, r2, r8
 1619 0092 9F54     		strb	r7, [r3, r2]
 282:.\SirenState.c **** 					ToneStatus.currentTone[bSpeakerIndex] = toneToPlay;
 1620              		.loc 1 282 0
 1621 0094 3344     		add	r3, r3, r6
 1622 0096 9A7D     		ldrb	r2, [r3, #22]	@ zero_extendqisi2
 1623 0098 1A75     		strb	r2, [r3, #20]
 283:.\SirenState.c **** 					ToneStatus.bRisingEdge[bSpeakerIndex] = true;
 1624              		.loc 1 283 0
 1625 009a 9F75     		strb	r7, [r3, #22]
 284:.\SirenState.c ****                 }
 1626              		.loc 1 284 0
 1627 009c 0122     		movs	r2, #1
 1628 009e 1A76     		strb	r2, [r3, #24]
 1629              	.L134:
 264:.\SirenState.c ****             {   //Speaker 1 addresses range 0x00 to 0x05, Speaker 2 addresses range 0x06 to 0x0B 
 1630              		.loc 1 264 0 discriminator 2
 1631 00a0 0134     		adds	r4, r4, #1
 1632              	.LVL209:
 1633 00a2 E4B2     		uxtb	r4, r4
 1634              	.LVL210:
 1635              	.L133:
 264:.\SirenState.c ****             {   //Speaker 1 addresses range 0x00 to 0x05, Speaker 2 addresses range 0x06 to 0x0B 
 1636              		.loc 1 264 0 is_stmt 0 discriminator 1
 1637 00a4 012C     		cmp	r4, #1
 1638 00a6 C8D9     		bls	.L136
 288:.\SirenState.c ****         }
 1639              		.loc 1 288 0 is_stmt 1
 1640 00a8 FFF7FEFF 		bl	decideTonesToPlay
 1641              	.LVL211:
 1642              	.L130:
 1643 00ac BDE8F081 		pop	{r4, r5, r6, r7, r8, pc}
ARM GAS  C:\Users\faithc\AppData\Local\Temp\ccWgDYSd.s 			page 52


 1644              	.L139:
 1645              		.align	2
 1646              	.L138:
 1647 00b0 00000000 		.word	.LANCHOR1
 1648 00b4 C94216B2 		.word	-1307163959
 1649              		.cfi_endproc
 1650              	.LFE67:
 1651              		.size	processTackSwitchRoutine, .-processTackSwitchRoutine
 1652              		.section	.text.processRadioMicKeyRoutine,"ax",%progbits
 1653              		.align	2
 1654              		.global	processRadioMicKeyRoutine
 1655              		.thumb
 1656              		.thumb_func
 1657              		.type	processRadioMicKeyRoutine, %function
 1658              	processRadioMicKeyRoutine:
 1659              	.LFB68:
 309:.\SirenState.c **** 	uint8 speakerIndex = 0;
 1660              		.loc 1 309 0
 1661              		.cfi_startproc
 1662              		@ args = 0, pretend = 0, frame = 0
 1663              		@ frame_needed = 0, uses_anonymous_args = 0
 1664 0000 10B5     		push	{r4, lr}
 1665              		.cfi_def_cfa_offset 8
 1666              		.cfi_offset 4, -8
 1667              		.cfi_offset 14, -4
 1668              	.LVL212:
 312:.\SirenState.c ****     
 1669              		.loc 1 312 0
 1670 0002 FFF7FEFF 		bl	RadioRebroadcastInput_Read
 1671              	.LVL213:
 1672 0006 20B9     		cbnz	r0, .L146
 312:.\SirenState.c ****     
 1673              		.loc 1 312 0 is_stmt 0 discriminator 2
 1674 0008 FFF7FEFF 		bl	MicKeyInput_Read
 1675              	.LVL214:
 1676 000c 18B9     		cbnz	r0, .L147
 312:.\SirenState.c ****     
 1677              		.loc 1 312 0
 1678 000e 0023     		movs	r3, #0
 1679 0010 02E0     		b	.L141
 1680              	.L146:
 1681 0012 0123     		movs	r3, #1
 1682 0014 00E0     		b	.L141
 1683              	.L147:
 1684 0016 0123     		movs	r3, #1
 1685              	.L141:
 312:.\SirenState.c ****     
 1686              		.loc 1 312 0 discriminator 6
 1687 0018 DBB2     		uxtb	r3, r3
 1688 001a 104A     		ldr	r2, .L149
 1689 001c 1373     		strb	r3, [r2, #12]
 314:.\SirenState.c ****     {
 1690              		.loc 1 314 0 is_stmt 1 discriminator 6
 1691 001e D3B1     		cbz	r3, .L142
 316:.\SirenState.c ****         deactivateAudio();
 1692              		.loc 1 316 0
 1693 0020 FFF7FEFF 		bl	deactivateManualWail
ARM GAS  C:\Users\faithc\AppData\Local\Temp\ccWgDYSd.s 			page 53


 1694              	.LVL215:
 317:.\SirenState.c **** 		PowerAmpOutput1_Write(true);
 1695              		.loc 1 317 0
 1696 0024 FFF7FEFF 		bl	deactivateAudio
 1697              	.LVL216:
 318:.\SirenState.c ****         PowerAmpOutput2_Write(false);
 1698              		.loc 1 318 0
 1699 0028 0120     		movs	r0, #1
 1700 002a FFF7FEFF 		bl	PowerAmpOutput1_Write
 1701              	.LVL217:
 319:.\SirenState.c **** 		
 1702              		.loc 1 319 0
 1703 002e 0020     		movs	r0, #0
 1704 0030 FFF7FEFF 		bl	PowerAmpOutput2_Write
 1705              	.LVL218:
 321:.\SirenState.c **** 		{
 1706              		.loc 1 321 0
 1707 0034 0024     		movs	r4, #0
 1708 0036 0BE0     		b	.L143
 1709              	.LVL219:
 1710              	.L144:
 323:.\SirenState.c **** 			stopAudioTone(speakerIndex);
 1711              		.loc 1 323 0 discriminator 3
 1712 0038 2046     		mov	r0, r4
 1713 003a FFF7FEFF 		bl	stopPWMTone
 1714              	.LVL220:
 324:.\SirenState.c ****             ToneStatus.bRisingEdge[speakerIndex] = false;
 1715              		.loc 1 324 0 discriminator 3
 1716 003e 2046     		mov	r0, r4
 1717 0040 FFF7FEFF 		bl	stopAudioTone
 1718              	.LVL221:
 325:.\SirenState.c **** 		}
 1719              		.loc 1 325 0 discriminator 3
 1720 0044 054B     		ldr	r3, .L149
 1721 0046 2344     		add	r3, r3, r4
 1722 0048 0022     		movs	r2, #0
 1723 004a 1A76     		strb	r2, [r3, #24]
 321:.\SirenState.c **** 		{
 1724              		.loc 1 321 0 discriminator 3
 1725 004c 0134     		adds	r4, r4, #1
 1726              	.LVL222:
 1727 004e E4B2     		uxtb	r4, r4
 1728              	.LVL223:
 1729              	.L143:
 321:.\SirenState.c **** 		{
 1730              		.loc 1 321 0 is_stmt 0 discriminator 1
 1731 0050 012C     		cmp	r4, #1
 1732 0052 F1D9     		bls	.L144
 1733 0054 10BD     		pop	{r4, pc}
 1734              	.LVL224:
 1735              	.L142:
 329:.\SirenState.c **** }
 1736              		.loc 1 329 0 is_stmt 1
 1737 0056 FFF7FEFF 		bl	decideTonesToPlay
 1738              	.LVL225:
 1739 005a 10BD     		pop	{r4, pc}
 1740              	.L150:
ARM GAS  C:\Users\faithc\AppData\Local\Temp\ccWgDYSd.s 			page 54


 1741              		.align	2
 1742              	.L149:
 1743 005c 00000000 		.word	.LANCHOR1
 1744              		.cfi_endproc
 1745              	.LFE68:
 1746              		.size	processRadioMicKeyRoutine, .-processRadioMicKeyRoutine
 1747              		.section	.text.processParkKillRoutine,"ax",%progbits
 1748              		.align	2
 1749              		.global	processParkKillRoutine
 1750              		.thumb
 1751              		.thumb_func
 1752              		.type	processParkKillRoutine, %function
 1753              	processParkKillRoutine:
 1754              	.LFB69:
 347:.\SirenState.c ****     InputRead.bParkKill = ParkKillStatus_Read() & 0x01;    
 1755              		.loc 1 347 0
 1756              		.cfi_startproc
 1757              		@ args = 0, pretend = 0, frame = 0
 1758              		@ frame_needed = 0, uses_anonymous_args = 0
 1759 0000 08B5     		push	{r3, lr}
 1760              		.cfi_def_cfa_offset 8
 1761              		.cfi_offset 3, -8
 1762              		.cfi_offset 14, -4
 348:.\SirenState.c ****     decideTonesToPlay();
 1763              		.loc 1 348 0
 1764 0002 FFF7FEFF 		bl	ParkKillStatus_Read
 1765              	.LVL226:
 1766 0006 00F00100 		and	r0, r0, #1
 1767 000a 024B     		ldr	r3, .L153
 1768 000c 5873     		strb	r0, [r3, #13]
 349:.\SirenState.c **** }
 1769              		.loc 1 349 0
 1770 000e FFF7FEFF 		bl	decideTonesToPlay
 1771              	.LVL227:
 1772 0012 08BD     		pop	{r3, pc}
 1773              	.L154:
 1774              		.align	2
 1775              	.L153:
 1776 0014 00000000 		.word	.LANCHOR1
 1777              		.cfi_endproc
 1778              	.LFE69:
 1779              		.size	processParkKillRoutine, .-processParkKillRoutine
 1780              		.section	.text.processHornRingRoutine,"ax",%progbits
 1781              		.align	2
 1782              		.global	processHornRingRoutine
 1783              		.thumb
 1784              		.thumb_func
 1785              		.type	processHornRingRoutine, %function
 1786              	processHornRingRoutine:
 1787              	.LFB70:
 367:.\SirenState.c ****     InputRead.bHornRing = HornRingStatus_Read() & 0x01;
 1788              		.loc 1 367 0
 1789              		.cfi_startproc
 1790              		@ args = 0, pretend = 0, frame = 0
 1791              		@ frame_needed = 0, uses_anonymous_args = 0
 1792 0000 08B5     		push	{r3, lr}
 1793              		.cfi_def_cfa_offset 8
ARM GAS  C:\Users\faithc\AppData\Local\Temp\ccWgDYSd.s 			page 55


 1794              		.cfi_offset 3, -8
 1795              		.cfi_offset 14, -4
 368:.\SirenState.c ****     decideTonesToPlay();
 1796              		.loc 1 368 0
 1797 0002 FFF7FEFF 		bl	HornRingStatus_Read
 1798              	.LVL228:
 1799 0006 00F00100 		and	r0, r0, #1
 1800 000a 024B     		ldr	r3, .L157
 1801 000c D873     		strb	r0, [r3, #15]
 369:.\SirenState.c **** }
 1802              		.loc 1 369 0
 1803 000e FFF7FEFF 		bl	decideTonesToPlay
 1804              	.LVL229:
 1805 0012 08BD     		pop	{r3, pc}
 1806              	.L158:
 1807              		.align	2
 1808              	.L157:
 1809 0014 00000000 		.word	.LANCHOR1
 1810              		.cfi_endproc
 1811              	.LFE70:
 1812              		.size	processHornRingRoutine, .-processHornRingRoutine
 1813              		.section	.text.processDualDelayRoutine,"ax",%progbits
 1814              		.align	2
 1815              		.global	processDualDelayRoutine
 1816              		.thumb
 1817              		.thumb_func
 1818              		.type	processDualDelayRoutine, %function
 1819              	processDualDelayRoutine:
 1820              	.LFB71:
 387:.\SirenState.c ****     InputRead.bDualDelay = DualDelayStatus_Read() & 0x01;
 1821              		.loc 1 387 0
 1822              		.cfi_startproc
 1823              		@ args = 0, pretend = 0, frame = 0
 1824              		@ frame_needed = 0, uses_anonymous_args = 0
 1825 0000 08B5     		push	{r3, lr}
 1826              		.cfi_def_cfa_offset 8
 1827              		.cfi_offset 3, -8
 1828              		.cfi_offset 14, -4
 388:.\SirenState.c ****     ToneStatus.bDualDelayEnable = InputRead.bDualDelay;
 1829              		.loc 1 388 0
 1830 0002 FFF7FEFF 		bl	DualDelayStatus_Read
 1831              	.LVL230:
 1832 0006 00F00100 		and	r0, r0, #1
 1833 000a 034B     		ldr	r3, .L161
 1834 000c 1874     		strb	r0, [r3, #16]
 389:.\SirenState.c ****     decideTonesToPlay();
 1835              		.loc 1 389 0
 1836 000e 9876     		strb	r0, [r3, #26]
 390:.\SirenState.c **** }
 1837              		.loc 1 390 0
 1838 0010 FFF7FEFF 		bl	decideTonesToPlay
 1839              	.LVL231:
 1840 0014 08BD     		pop	{r3, pc}
 1841              	.L162:
 1842 0016 00BF     		.align	2
 1843              	.L161:
 1844 0018 00000000 		.word	.LANCHOR1
ARM GAS  C:\Users\faithc\AppData\Local\Temp\ccWgDYSd.s 			page 56


 1845              		.cfi_endproc
 1846              	.LFE71:
 1847              		.size	processDualDelayRoutine, .-processDualDelayRoutine
 1848              		.section	.text.processToneChangeRoutine,"ax",%progbits
 1849              		.align	2
 1850              		.global	processToneChangeRoutine
 1851              		.thumb
 1852              		.thumb_func
 1853              		.type	processToneChangeRoutine, %function
 1854              	processToneChangeRoutine:
 1855              	.LFB72:
 408:.\SirenState.c ****     static uint8 previousChannels[SPEAKER_COUNT];
 1856              		.loc 1 408 0
 1857              		.cfi_startproc
 1858              		@ args = 0, pretend = 0, frame = 8
 1859              		@ frame_needed = 0, uses_anonymous_args = 0
 1860 0000 2DE9F043 		push	{r4, r5, r6, r7, r8, r9, lr}
 1861              		.cfi_def_cfa_offset 28
 1862              		.cfi_offset 4, -28
 1863              		.cfi_offset 5, -24
 1864              		.cfi_offset 6, -20
 1865              		.cfi_offset 7, -16
 1866              		.cfi_offset 8, -12
 1867              		.cfi_offset 9, -8
 1868              		.cfi_offset 14, -4
 1869 0004 83B0     		sub	sp, sp, #12
 1870              		.cfi_def_cfa_offset 40
 1871              	.LVL232:
 416:.\SirenState.c ****     currentChannels[SPEAKER_2] = ModeStatus2_Read();
 1872              		.loc 1 416 0
 1873 0006 FFF7FEFF 		bl	ModeStatus_Read
 1874              	.LVL233:
 1875 000a 8DF80400 		strb	r0, [sp, #4]
 417:.\SirenState.c ****     
 1876              		.loc 1 417 0
 1877 000e FFF7FEFF 		bl	ModeStatus2_Read
 1878              	.LVL234:
 1879 0012 8DF80500 		strb	r0, [sp, #5]
 419:.\SirenState.c ****     {
 1880              		.loc 1 419 0
 1881 0016 0024     		movs	r4, #0
 1882 0018 3AE0     		b	.L164
 1883              	.LVL235:
 1884              	.L170:
 422:.\SirenState.c **** 			
 1885              		.loc 1 422 0
 1886 001a 2546     		mov	r5, r4
 1887 001c 204B     		ldr	r3, .L172
 1888 001e 03EB0408 		add	r8, r3, r4
 1889 0022 98F81C60 		ldrb	r6, [r8, #28]	@ zero_extendqisi2
 1890 0026 02AB     		add	r3, sp, #8
 1891 0028 2344     		add	r3, r3, r4
 1892 002a 13F8047C 		ldrb	r7, [r3, #-4]	@ zero_extendqisi2
 421:.\SirenState.c ****             previousChannels[speakerIndex] ^ currentChannels[speakerIndex];
 1893              		.loc 1 421 0
 1894 002e 7E40     		eors	r6, r6, r7
 424:.\SirenState.c **** 		InputRead.highestPriorityChannel[speakerIndex] = getHighestPriorityChannel(speakerIndex);
ARM GAS  C:\Users\faithc\AppData\Local\Temp\ccWgDYSd.s 			page 57


 1895              		.loc 1 424 0
 1896 0030 3046     		mov	r0, r6
 1897 0032 FFF7FEFF 		bl	getBitIndex
 1898              	.LVL236:
 1899 0036 8146     		mov	r9, r0
 425:.\SirenState.c **** 		priorityChannel = InputRead.highestPriorityChannel[speakerIndex];
 1900              		.loc 1 425 0
 1901 0038 2046     		mov	r0, r4
 1902 003a FFF7FEFF 		bl	getHighestPriorityChannel
 1903              	.LVL237:
 1904 003e 88F81100 		strb	r0, [r8, #17]
 1905              	.LVL238:
 428:.\SirenState.c **** 			ToneStatus.bRisingEdge[speakerIndex] = true;
 1906              		.loc 1 428 0
 1907 0042 3742     		tst	r7, r6
 1908 0044 03D0     		beq	.L165
 429:.\SirenState.c **** 		else
 1909              		.loc 1 429 0
 1910 0046 0122     		movs	r2, #1
 1911 0048 88F81820 		strb	r2, [r8, #24]
 1912 004c 0AE0     		b	.L166
 1913              	.L165:
 432:.\SirenState.c ****                 (priorityChannel < changedChannel[speakerIndex])))
 1914              		.loc 1 432 0
 1915 004e FF28     		cmp	r0, #255
 1916 0050 04D0     		beq	.L167
 432:.\SirenState.c ****                 (priorityChannel < changedChannel[speakerIndex])))
 1917              		.loc 1 432 0 is_stmt 0 discriminator 1
 1918 0052 B9F1FF0F 		cmp	r9, #255
 1919 0056 05D0     		beq	.L166
 432:.\SirenState.c ****                 (priorityChannel < changedChannel[speakerIndex])))
 1920              		.loc 1 432 0 discriminator 2
 1921 0058 8145     		cmp	r9, r0
 1922 005a 03D9     		bls	.L166
 1923              	.L167:
 434:.\SirenState.c ****         }
 1924              		.loc 1 434 0 is_stmt 1
 1925 005c 104B     		ldr	r3, .L172
 1926 005e 2B44     		add	r3, r3, r5
 1927 0060 0022     		movs	r2, #0
 1928 0062 1A76     		strb	r2, [r3, #24]
 1929              	.L166:
 437:.\SirenState.c **** 		ToneStatus.previousTone[speakerIndex] = ToneStatus.currentTone[speakerIndex];	
 1930              		.loc 1 437 0
 1931 0064 0E4B     		ldr	r3, .L172
 1932 0066 2B44     		add	r3, r3, r5
 1933 0068 1F77     		strb	r7, [r3, #28]
 438:.\SirenState.c **** 		
 1934              		.loc 1 438 0
 1935 006a 9A7D     		ldrb	r2, [r3, #22]	@ zero_extendqisi2
 1936 006c 1A75     		strb	r2, [r3, #20]
 440:.\SirenState.c **** 			ToneStatus.currentTone[speakerIndex] = toneConfigurationList[speakerIndex][priorityChannel];
 1937              		.loc 1 440 0
 1938 006e FF28     		cmp	r0, #255
 1939 0070 08D0     		beq	.L168
 441:.\SirenState.c **** 		else
 1940              		.loc 1 441 0
ARM GAS  C:\Users\faithc\AppData\Local\Temp\ccWgDYSd.s 			page 58


 1941 0072 0B4B     		ldr	r3, .L172
 1942 0074 05EB4502 		add	r2, r5, r5, lsl #1
 1943 0078 5200     		lsls	r2, r2, #1
 1944 007a 1044     		add	r0, r0, r2
 1945              	.LVL239:
 1946 007c 1A5C     		ldrb	r2, [r3, r0]	@ zero_extendqisi2
 1947 007e 1D44     		add	r5, r5, r3
 1948 0080 AA75     		strb	r2, [r5, #22]
 1949 0082 03E0     		b	.L169
 1950              	.LVL240:
 1951              	.L168:
 443:.\SirenState.c ****     }
 1952              		.loc 1 443 0
 1953 0084 064B     		ldr	r3, .L172
 1954 0086 1D44     		add	r5, r5, r3
 1955 0088 0023     		movs	r3, #0
 1956 008a AB75     		strb	r3, [r5, #22]
 1957              	.LVL241:
 1958              	.L169:
 419:.\SirenState.c ****     {
 1959              		.loc 1 419 0 discriminator 2
 1960 008c 0134     		adds	r4, r4, #1
 1961              	.LVL242:
 1962 008e E4B2     		uxtb	r4, r4
 1963              	.LVL243:
 1964              	.L164:
 419:.\SirenState.c ****     {
 1965              		.loc 1 419 0 is_stmt 0 discriminator 1
 1966 0090 012C     		cmp	r4, #1
 1967 0092 C2D9     		bls	.L170
 446:.\SirenState.c **** }
 1968              		.loc 1 446 0 is_stmt 1
 1969 0094 FFF7FEFF 		bl	decideTonesToPlay
 1970              	.LVL244:
 447:.\SirenState.c **** 
 1971              		.loc 1 447 0
 1972 0098 03B0     		add	sp, sp, #12
 1973              		.cfi_def_cfa_offset 28
 1974              		@ sp needed
 1975 009a BDE8F083 		pop	{r4, r5, r6, r7, r8, r9, pc}
 1976              	.LVL245:
 1977              	.L173:
 1978 009e 00BF     		.align	2
 1979              	.L172:
 1980 00a0 00000000 		.word	.LANCHOR1
 1981              		.cfi_endproc
 1982              	.LFE72:
 1983              		.size	processToneChangeRoutine, .-processToneChangeRoutine
 1984              		.section	.text.setTonesWithCommunication,"ax",%progbits
 1985              		.align	2
 1986              		.global	setTonesWithCommunication
 1987              		.thumb
 1988              		.thumb_func
 1989              		.type	setTonesWithCommunication, %function
 1990              	setTonesWithCommunication:
 1991              	.LFB73:
 467:.\SirenState.c ****     uint8 speakerIndex = 0;
ARM GAS  C:\Users\faithc\AppData\Local\Temp\ccWgDYSd.s 			page 59


 1992              		.loc 1 467 0
 1993              		.cfi_startproc
 1994              		@ args = 0, pretend = 0, frame = 0
 1995              		@ frame_needed = 0, uses_anonymous_args = 0
 1996              	.LVL246:
 471:.\SirenState.c ****         return false;
 1997              		.loc 1 471 0
 1998 0000 1628     		cmp	r0, #22
 1999 0002 3DD8     		bhi	.L182
 474:.\SirenState.c ****         return false;
 2000              		.loc 1 474 0
 2001 0004 1629     		cmp	r1, #22
 2002 0006 3DD8     		bhi	.L183
 477:.\SirenState.c ****         return false;
 2003              		.loc 1 477 0
 2004 0008 012A     		cmp	r2, #1
 2005 000a 3DD8     		bhi	.L184
 467:.\SirenState.c ****     uint8 speakerIndex = 0;
 2006              		.loc 1 467 0
 2007 000c F8B5     		push	{r3, r4, r5, r6, r7, lr}
 2008              		.cfi_def_cfa_offset 24
 2009              		.cfi_offset 3, -24
 2010              		.cfi_offset 4, -20
 2011              		.cfi_offset 5, -16
 2012              		.cfi_offset 6, -12
 2013              		.cfi_offset 7, -8
 2014              		.cfi_offset 14, -4
 480:.\SirenState.c ****     ToneStatus.previousTone[SPEAKER_2] = ToneStatus.currentTone[SPEAKER_2];
 2015              		.loc 1 480 0
 2016 000e 204B     		ldr	r3, .L189
 2017 0010 9E7D     		ldrb	r6, [r3, #22]	@ zero_extendqisi2
 2018 0012 1E75     		strb	r6, [r3, #20]
 481:.\SirenState.c ****     ToneStatus.currentTone[SPEAKER_1] = firstTone;
 2019              		.loc 1 481 0
 2020 0014 DF7D     		ldrb	r7, [r3, #23]	@ zero_extendqisi2
 2021 0016 5F75     		strb	r7, [r3, #21]
 482:.\SirenState.c ****     ToneStatus.currentTone[SPEAKER_2] = secondTone;
 2022              		.loc 1 482 0
 2023 0018 9875     		strb	r0, [r3, #22]
 483:.\SirenState.c ****     
 2024              		.loc 1 483 0
 2025 001a D975     		strb	r1, [r3, #23]
 485:.\SirenState.c ****         bDualDelayChange = true;
 2026              		.loc 1 485 0
 2027 001c 9B7E     		ldrb	r3, [r3, #26]	@ zero_extendqisi2
 2028 001e 9342     		cmp	r3, r2
 2029 0020 02D1     		bne	.L185
 469:.\SirenState.c ****     
 2030              		.loc 1 469 0
 2031 0022 4FF0000E 		mov	lr, #0
 2032 0026 01E0     		b	.L176
 2033              	.L185:
 486:.\SirenState.c ****     
 2034              		.loc 1 486 0
 2035 0028 4FF0010E 		mov	lr, #1
 2036              	.L176:
 2037              	.LVL247:
ARM GAS  C:\Users\faithc\AppData\Local\Temp\ccWgDYSd.s 			page 60


 488:.\SirenState.c ****     
 2038              		.loc 1 488 0
 2039 002c 184B     		ldr	r3, .L189
 2040 002e 9A76     		strb	r2, [r3, #26]
 490:.\SirenState.c ****     {
 2041              		.loc 1 490 0
 2042 0030 0023     		movs	r3, #0
 2043 0032 18E0     		b	.L177
 2044              	.LVL248:
 2045              	.L180:
 492:.\SirenState.c ****             (ToneStatus.currentTone[speakerIndex] != NO_TONE))
 2046              		.loc 1 492 0
 2047 0034 1C46     		mov	r4, r3
 2048 0036 164A     		ldr	r2, .L189
 2049 0038 1A44     		add	r2, r2, r3
 2050 003a 127D     		ldrb	r2, [r2, #20]	@ zero_extendqisi2
 2051 003c 42B9     		cbnz	r2, .L178
 493:.\SirenState.c ****             ToneStatus.bRisingEdge[speakerIndex] = true;
 2052              		.loc 1 493 0 discriminator 1
 2053 003e 144D     		ldr	r5, .L189
 2054 0040 1D44     		add	r5, r5, r3
 2055 0042 AD7D     		ldrb	r5, [r5, #22]	@ zero_extendqisi2
 492:.\SirenState.c ****             (ToneStatus.currentTone[speakerIndex] != NO_TONE))
 2056              		.loc 1 492 0 discriminator 1
 2057 0044 25B1     		cbz	r5, .L178
 494:.\SirenState.c ****         else if((ToneStatus.previousTone[speakerIndex] != NO_TONE) &&
 2058              		.loc 1 494 0
 2059 0046 124A     		ldr	r2, .L189
 2060 0048 1444     		add	r4, r4, r2
 2061 004a 0122     		movs	r2, #1
 2062 004c 2276     		strb	r2, [r4, #24]
 2063 004e 08E0     		b	.L179
 2064              	.L178:
 495:.\SirenState.c ****             (ToneStatus.currentTone[speakerIndex] == NO_TONE))
 2065              		.loc 1 495 0
 2066 0050 3AB1     		cbz	r2, .L179
 496:.\SirenState.c ****             ToneStatus.bRisingEdge[speakerIndex] = false;
 2067              		.loc 1 496 0 discriminator 1
 2068 0052 0F4A     		ldr	r2, .L189
 2069 0054 2244     		add	r2, r2, r4
 2070 0056 927D     		ldrb	r2, [r2, #22]	@ zero_extendqisi2
 495:.\SirenState.c ****             (ToneStatus.currentTone[speakerIndex] == NO_TONE))
 2071              		.loc 1 495 0 discriminator 1
 2072 0058 1AB9     		cbnz	r2, .L179
 497:.\SirenState.c ****     }
 2073              		.loc 1 497 0
 2074 005a 0D4A     		ldr	r2, .L189
 2075 005c 1444     		add	r4, r4, r2
 2076 005e 0022     		movs	r2, #0
 2077 0060 2276     		strb	r2, [r4, #24]
 2078              	.L179:
 490:.\SirenState.c ****     {
 2079              		.loc 1 490 0 discriminator 2
 2080 0062 0133     		adds	r3, r3, #1
 2081              	.LVL249:
 2082 0064 DBB2     		uxtb	r3, r3
 2083              	.LVL250:
ARM GAS  C:\Users\faithc\AppData\Local\Temp\ccWgDYSd.s 			page 61


 2084              	.L177:
 490:.\SirenState.c ****     {
 2085              		.loc 1 490 0 is_stmt 0 discriminator 1
 2086 0066 012B     		cmp	r3, #1
 2087 0068 E4D9     		bls	.L180
 500:.\SirenState.c ****         (ToneStatus.previousTone[SPEAKER_2] != ToneStatus.currentTone[SPEAKER_2]) ||
 2088              		.loc 1 500 0 is_stmt 1
 2089 006a B042     		cmp	r0, r6
 2090 006c 04D1     		bne	.L181
 500:.\SirenState.c ****         (ToneStatus.previousTone[SPEAKER_2] != ToneStatus.currentTone[SPEAKER_2]) ||
 2091              		.loc 1 500 0 is_stmt 0 discriminator 1
 2092 006e B942     		cmp	r1, r7
 2093 0070 02D1     		bne	.L181
 501:.\SirenState.c ****         (bDualDelayChange == true))
 2094              		.loc 1 501 0 is_stmt 1
 2095 0072 BEF1000F 		cmp	lr, #0
 2096 0076 09D0     		beq	.L186
 2097              	.L181:
 503:.\SirenState.c ****     
 2098              		.loc 1 503 0
 2099 0078 FFF7FEFF 		bl	decideTonesToPlay
 2100              	.LVL251:
 505:.\SirenState.c **** }
 2101              		.loc 1 505 0
 2102 007c 0120     		movs	r0, #1
 2103 007e F8BD     		pop	{r3, r4, r5, r6, r7, pc}
 2104              	.LVL252:
 2105              	.L182:
 2106              		.cfi_def_cfa_offset 0
 2107              		.cfi_restore 3
 2108              		.cfi_restore 4
 2109              		.cfi_restore 5
 2110              		.cfi_restore 6
 2111              		.cfi_restore 7
 2112              		.cfi_restore 14
 472:.\SirenState.c ****     
 2113              		.loc 1 472 0
 2114 0080 0020     		movs	r0, #0
 2115              	.LVL253:
 2116 0082 7047     		bx	lr
 2117              	.LVL254:
 2118              	.L183:
 475:.\SirenState.c ****     
 2119              		.loc 1 475 0
 2120 0084 0020     		movs	r0, #0
 2121              	.LVL255:
 506:.\SirenState.c **** 
 2122              		.loc 1 506 0
 2123 0086 7047     		bx	lr
 2124              	.LVL256:
 2125              	.L184:
 478:.\SirenState.c ****     
 2126              		.loc 1 478 0
 2127 0088 0020     		movs	r0, #0
 2128              	.LVL257:
 2129 008a 7047     		bx	lr
 2130              	.LVL258:
ARM GAS  C:\Users\faithc\AppData\Local\Temp\ccWgDYSd.s 			page 62


 2131              	.L186:
 2132              		.cfi_def_cfa_offset 24
 2133              		.cfi_offset 3, -24
 2134              		.cfi_offset 4, -20
 2135              		.cfi_offset 5, -16
 2136              		.cfi_offset 6, -12
 2137              		.cfi_offset 7, -8
 2138              		.cfi_offset 14, -4
 505:.\SirenState.c **** }
 2139              		.loc 1 505 0
 2140 008c 0120     		movs	r0, #1
 2141              	.LVL259:
 506:.\SirenState.c **** 
 2142              		.loc 1 506 0
 2143 008e F8BD     		pop	{r3, r4, r5, r6, r7, pc}
 2144              	.LVL260:
 2145              	.L190:
 2146              		.align	2
 2147              	.L189:
 2148 0090 00000000 		.word	.LANCHOR1
 2149              		.cfi_endproc
 2150              	.LFE73:
 2151              		.size	setTonesWithCommunication, .-setTonesWithCommunication
 2152              		.section	.rodata
 2153              		.align	2
 2154              		.set	.LANCHOR0,. + 0
 2155              		.type	DEFAULT_CONFIGURATION_LIST, %object
 2156              		.size	DEFAULT_CONFIGURATION_LIST, 12
 2157              	DEFAULT_CONFIGURATION_LIST:
 2158 0000 0E       		.byte	14
 2159 0001 01       		.byte	1
 2160 0002 02       		.byte	2
 2161 0003 04       		.byte	4
 2162 0004 05       		.byte	5
 2163 0005 0B       		.byte	11
 2164 0006 0F       		.byte	15
 2165 0007 01       		.byte	1
 2166 0008 02       		.byte	2
 2167 0009 04       		.byte	4
 2168 000a 05       		.byte	5
 2169 000b 0B       		.byte	11
 2170              		.bss
 2171              		.align	2
 2172              		.set	.LANCHOR1,. + 0
 2173              		.type	toneConfigurationList, %object
 2174              		.size	toneConfigurationList, 12
 2175              	toneConfigurationList:
 2176 0000 00000000 		.space	12
 2176      00000000 
 2176      00000000 
 2177              		.type	InputRead, %object
 2178              		.size	InputRead, 7
 2179              	InputRead:
 2180 000c 00000000 		.space	7
 2180      000000
 2181 0013 00       		.space	1
 2182              		.type	ToneStatus, %object
ARM GAS  C:\Users\faithc\AppData\Local\Temp\ccWgDYSd.s 			page 63


 2183              		.size	ToneStatus, 7
 2184              	ToneStatus:
 2185 0014 00000000 		.space	7
 2185      000000
 2186              		.type	bToneChangeOnHornRing.7384, %object
 2187              		.size	bToneChangeOnHornRing.7384, 1
 2188              	bToneChangeOnHornRing.7384:
 2189 001b 00       		.space	1
 2190              		.type	previousChannels.7356, %object
 2191              		.size	previousChannels.7356, 2
 2192              	previousChannels.7356:
 2193 001c 0000     		.space	2
 2194 001e 0000     		.text
 2195              	.Letext0:
 2196              		.file 2 "c:\\program files (x86)\\cypress\\psoc creator\\3.3\\psoc creator\\import\\gnu\\arm\\4.9.
 2197              		.file 3 "c:\\program files (x86)\\cypress\\psoc creator\\3.3\\psoc creator\\import\\gnu\\arm\\4.9.
 2198              		.file 4 "Generated_Source\\PSoC5/cytypes.h"
 2199              		.file 5 ".\\CommonVariables.h"
 2200              		.file 6 "Generated_Source\\PSoC5/ModeStatus2.h"
 2201              		.file 7 "Generated_Source\\PSoC5/ModeStatus.h"
 2202              		.file 8 ".\\Tones.h"
 2203              		.file 9 ".\\DACaudio.h"
 2204              		.file 10 "Generated_Source\\PSoC5/PowerAmpOutput1.h"
 2205              		.file 11 "Generated_Source\\PSoC5/PowerAmpOutput2.h"
 2206              		.file 12 "Generated_Source\\PSoC5/EEPROM.h"
 2207              		.file 13 "Generated_Source\\PSoC5/TackSwitchISR.h"
 2208              		.file 14 "Generated_Source\\PSoC5/TackSwitchStatus.h"
 2209              		.file 15 "Generated_Source\\PSoC5/DualDelayISR.h"
 2210              		.file 16 "Generated_Source\\PSoC5/DualDelayStatus.h"
 2211              		.file 17 "Generated_Source\\PSoC5/ModeStatusISR.h"
 2212              		.file 18 "Generated_Source\\PSoC5/RadioRebroadcastInput.h"
 2213              		.file 19 "Generated_Source\\PSoC5/MicKeyInput.h"
 2214              		.file 20 "Generated_Source\\PSoC5/ParkKillStatus.h"
 2215              		.file 21 "Generated_Source\\PSoC5/HornRingStatus.h"
 2216              		.file 22 "Generated_Source\\PSoC5/core_cm3.h"