ARM GAS  C:\Users\faithc\AppData\Local\Temp\ccWgDYSd.s 			page 1


   1              		.syntax unified
   2              		.cpu cortex-m3
   3              		.fpu softvfp
   4              		.eabi_attribute 20, 1
   5              		.eabi_attribute 21, 1
   6              		.eabi_attribute 23, 3
   7              		.eabi_attribute 24, 1
   8              		.eabi_attribute 25, 1
   9              		.eabi_attribute 26, 1
  10              		.eabi_attribute 30, 1
  11              		.eabi_attribute 34, 1
  12              		.eabi_attribute 18, 4
  13              		.thumb
  14              		.file	"SirenState.c"
  15              		.text
  16              	.Ltext0:
  17              		.cfi_sections	.debug_frame
  18              		.section	.text.isCommand,"ax",%progbits
  19              		.align	2
  20              		.thumb
  21              		.thumb_func
  22              		.type	isCommand, %function
  23              	isCommand:
  24              	.LFB83:
  25              		.file 1 ".\\SirenState.c"
   1:.\SirenState.c **** /* ========================================
   2:.\SirenState.c ****  *
   3:.\SirenState.c ****  * Copyright YOUR COMPANY, THE YEAR
   4:.\SirenState.c ****  * All Rights Reserved
   5:.\SirenState.c ****  * UNPUBLISHED, LICENSED SOFTWARE.
   6:.\SirenState.c ****  *
   7:.\SirenState.c ****  * CONFIDENTIAL AND PROPRIETARY INFORMATION
   8:.\SirenState.c ****  * WHICH IS THE PROPERTY OF your company.
   9:.\SirenState.c ****  *
  10:.\SirenState.c ****  * ========================================
  11:.\SirenState.c **** */
  12:.\SirenState.c **** 
  13:.\SirenState.c **** /**********PREPROCESSOR DIRECTIVES**********/
  14:.\SirenState.c **** #include "CommonVariables.h"
  15:.\SirenState.c **** #include "SirenState.h"
  16:.\SirenState.c **** #include "Tones.h"
  17:.\SirenState.c **** #include "DACaudio.h"
  18:.\SirenState.c **** 
  19:.\SirenState.c **** /**********DEFINED CONSTANTS**********/
  20:.\SirenState.c **** enum ChannelIndex
  21:.\SirenState.c **** {
  22:.\SirenState.c **** 	CHANNEL_1 = 0,
  23:.\SirenState.c **** 	CHANNEL_2 = 1,
  24:.\SirenState.c **** 	CHANNEL_3 = 2,
  25:.\SirenState.c **** 	CHANNEL_4 = 3,
  26:.\SirenState.c **** 	CHANNEL_5 = 4,
  27:.\SirenState.c **** 	CHANNEL_6 = 5,
  28:.\SirenState.c **** 	NO_CHANNEL = 0xFF
  29:.\SirenState.c **** };
  30:.\SirenState.c **** 
  31:.\SirenState.c **** enum BitMask
  32:.\SirenState.c **** {
ARM GAS  C:\Users\faithc\AppData\Local\Temp\ccWgDYSd.s 			page 2


  33:.\SirenState.c **** 	BIT0 = 0x01,
  34:.\SirenState.c **** 	BIT1 = 0x02,
  35:.\SirenState.c **** 	BIT2 = 0x04,
  36:.\SirenState.c **** 	BIT3 = 0x08,
  37:.\SirenState.c **** 	BIT4 = 0x10,
  38:.\SirenState.c **** 	BIT5 = 0x20,
  39:.\SirenState.c **** 	BIT6 = 0x40,
  40:.\SirenState.c **** 	BIT7 = 0x80
  41:.\SirenState.c **** };
  42:.\SirenState.c **** 
  43:.\SirenState.c **** static const uint8 DEFAULT_CONFIGURATION_LIST[SPEAKER_COUNT * CHANNEL_COUNT_PER_SPEAKER] = 
  44:.\SirenState.c ****     {ECTOSIREN, WAIL, SLOW_YELP, PHASER, HORN, HORN_PHASER,
  45:.\SirenState.c ****     COPS_SONG, WAIL, SLOW_YELP, PHASER, HORN, HORN_PHASER};
  46:.\SirenState.c **** 
  47:.\SirenState.c **** static const uint16 EEPROM_KEY_INDEX = 0xFF;
  48:.\SirenState.c **** static const uint8 EEPROM_KEY_VALUE = 0xAA;
  49:.\SirenState.c **** 
  50:.\SirenState.c **** /**********DATA STRUCTURES**********/
  51:.\SirenState.c **** static enum ToneType toneConfigurationList[SPEAKER_COUNT][CHANNEL_COUNT_PER_SPEAKER];
  52:.\SirenState.c ****     
  53:.\SirenState.c **** static struct
  54:.\SirenState.c **** {
  55:.\SirenState.c ****     uint8 bRadioAndMicKey;
  56:.\SirenState.c ****     uint8 bParkKill;
  57:.\SirenState.c ****     uint8 bTackSwitch;
  58:.\SirenState.c ****     uint8 bHornRing;
  59:.\SirenState.c ****     uint8 bDualDelay;
  60:.\SirenState.c ****     enum ChannelIndex highestPriorityChannel[SPEAKER_COUNT];
  61:.\SirenState.c **** }InputRead;
  62:.\SirenState.c **** 
  63:.\SirenState.c **** static struct
  64:.\SirenState.c **** {
  65:.\SirenState.c ****     enum ToneType previousTone[SPEAKER_COUNT];
  66:.\SirenState.c ****     enum ToneType currentTone[SPEAKER_COUNT];
  67:.\SirenState.c ****     uint8 bRisingEdge[SPEAKER_COUNT];
  68:.\SirenState.c ****     uint8 bDualDelayEnable;
  69:.\SirenState.c **** }ToneStatus;
  70:.\SirenState.c **** 
  71:.\SirenState.c **** /**********GLOBAL VARIABLES**********/
  72:.\SirenState.c **** 
  73:.\SirenState.c **** 
  74:.\SirenState.c **** /**********FUNCTION PROTOTYPES**********/
  75:.\SirenState.c **** static void decideTonesToPlay(void);
  76:.\SirenState.c **** static uint8 enableSpeakerForSirenTone(uint8 bSpeaker, enum ToneType toneSelection, uint8 bInputEna
  77:.\SirenState.c **** static uint8 enableSpeakersForAudioTone(uint8 bSpeaker, enum ToneType toneSelection, uint8 bInputEn
  78:.\SirenState.c **** static enum ChannelIndex getHighestPriorityChannel(uint8 bSpeakerNumber);
  79:.\SirenState.c **** static enum ToneType getAlternatingTone(enum ToneType toneSelection);
  80:.\SirenState.c **** static uint8 isTrailingTone(enum ToneType thisTone);
  81:.\SirenState.c **** static uint8 isAudioTone(enum ToneType thisTone);
  82:.\SirenState.c **** static uint8 isCommand(enum ToneType thisTone);
  83:.\SirenState.c **** static uint8 isSong(enum ToneType thisTone);
  84:.\SirenState.c **** static uint8 getBitIndex(enum BitMask maskNumber);
  85:.\SirenState.c **** 
  86:.\SirenState.c **** /**********DEFINED FUNCTIONS**********/
  87:.\SirenState.c **** /*******************************************************************************
  88:.\SirenState.c **** * Function Name: initializeToneConfigurationList
  89:.\SirenState.c **** ********************************************************************************
ARM GAS  C:\Users\faithc\AppData\Local\Temp\ccWgDYSd.s 			page 3


  90:.\SirenState.c **** *
  91:.\SirenState.c **** * Summary:
  92:.\SirenState.c **** *  Sets the configuration list to the tones saved in EEPROM
  93:.\SirenState.c **** *
  94:.\SirenState.c **** * Parameters:  
  95:.\SirenState.c **** *   None
  96:.\SirenState.c **** *
  97:.\SirenState.c **** * Return:
  98:.\SirenState.c **** *   None
  99:.\SirenState.c **** *
 100:.\SirenState.c **** *******************************************************************************/
 101:.\SirenState.c **** void initializeToneConfigurationList(void)
 102:.\SirenState.c **** {
 103:.\SirenState.c ****     uint8 bHasNoTone = false;  
 104:.\SirenState.c ****     uint8 bSpeakerIndex = SPEAKER_1;
 105:.\SirenState.c ****     uint8 channelIndex = NO_CHANNEL;   
 106:.\SirenState.c ****     uint16 addressIndex = 0;
 107:.\SirenState.c ****     
 108:.\SirenState.c ****     EEPROM_Start();   
 109:.\SirenState.c ****     
 110:.\SirenState.c ****     for(bSpeakerIndex = 0; bSpeakerIndex < SPEAKER_COUNT; bSpeakerIndex++)
 111:.\SirenState.c ****     {   //Check for indices with no tone written to it
 112:.\SirenState.c ****         for(channelIndex = 0; channelIndex < CHANNEL_COUNT_PER_SPEAKER; channelIndex++)
 113:.\SirenState.c ****         {
 114:.\SirenState.c ****             addressIndex = (uint16)(CHANNEL_COUNT_PER_SPEAKER * bSpeakerIndex + channelIndex);
 115:.\SirenState.c ****             if(EEPROM_ReadByte(addressIndex) >= TONE_TYPE_LIST_SIZE)
 116:.\SirenState.c ****             {   //Terminate loop after finding first invalid tone
 117:.\SirenState.c ****                 bHasNoTone = true;
 118:.\SirenState.c ****                 break;
 119:.\SirenState.c ****             }
 120:.\SirenState.c ****         }
 121:.\SirenState.c ****     }
 122:.\SirenState.c ****     
 123:.\SirenState.c ****     if((bHasNoTone == true) || (EEPROM_ReadByte(EEPROM_KEY_INDEX) != EEPROM_KEY_VALUE))
 124:.\SirenState.c ****     {   //Write to EEPROM 
 125:.\SirenState.c ****         EEPROM_UpdateTemperature(); //Optimizes write timings based on temperature reading 
 126:.\SirenState.c ****         
 127:.\SirenState.c ****         for(bSpeakerIndex = 0; bSpeakerIndex < SPEAKER_COUNT; bSpeakerIndex++)
 128:.\SirenState.c ****         {   //Obtain tones from EEPROM to configure channels
 129:.\SirenState.c ****             for(channelIndex = 0; channelIndex < CHANNEL_COUNT_PER_SPEAKER; channelIndex++)
 130:.\SirenState.c ****             {
 131:.\SirenState.c ****                 addressIndex = (uint16)(CHANNEL_COUNT_PER_SPEAKER * bSpeakerIndex + channelIndex);
 132:.\SirenState.c ****                 EEPROM_WriteByte(DEFAULT_CONFIGURATION_LIST[addressIndex], addressIndex);
 133:.\SirenState.c ****             }
 134:.\SirenState.c ****         }
 135:.\SirenState.c ****         
 136:.\SirenState.c ****         EEPROM_WriteByte(EEPROM_KEY_VALUE, EEPROM_KEY_INDEX);
 137:.\SirenState.c ****     }
 138:.\SirenState.c ****     
 139:.\SirenState.c ****     for(bSpeakerIndex = 0; bSpeakerIndex < SPEAKER_COUNT; bSpeakerIndex++)
 140:.\SirenState.c ****     {   //Obtain tones from EEPROM to configure channels
 141:.\SirenState.c ****         for(channelIndex = 0; channelIndex < CHANNEL_COUNT_PER_SPEAKER; channelIndex++)
 142:.\SirenState.c ****         {
 143:.\SirenState.c ****             addressIndex = (uint16)(CHANNEL_COUNT_PER_SPEAKER * bSpeakerIndex + channelIndex);
 144:.\SirenState.c ****             toneConfigurationList[bSpeakerIndex][channelIndex] = EEPROM_ReadByte(addressIndex);
 145:.\SirenState.c ****         }
 146:.\SirenState.c ****     }
ARM GAS  C:\Users\faithc\AppData\Local\Temp\ccWgDYSd.s 			page 4


 147:.\SirenState.c **** }
 148:.\SirenState.c **** 
 149:.\SirenState.c **** /*******************************************************************************
 150:.\SirenState.c **** * Function Name: enableToneInputInterrupts
 151:.\SirenState.c **** ********************************************************************************
 152:.\SirenState.c **** *
 153:.\SirenState.c **** * Summary:
 154:.\SirenState.c **** *   Enables the input interrupts that cannot be activated during Data Link
 155:.\SirenState.c **** *
 156:.\SirenState.c **** * Parameters:  
 157:.\SirenState.c **** *   None
 158:.\SirenState.c **** *
 159:.\SirenState.c **** * Return:
 160:.\SirenState.c **** *   None
 161:.\SirenState.c **** *
 162:.\SirenState.c **** *******************************************************************************/
 163:.\SirenState.c **** void enableToneInputInterrupts(void)
 164:.\SirenState.c **** {
 165:.\SirenState.c ****     TackSwitchISR_Start();
 166:.\SirenState.c ****     TackSwitchStatus_InterruptEnable();
 167:.\SirenState.c ****     
 168:.\SirenState.c ****     DualDelayISR_Start();
 169:.\SirenState.c ****     DualDelayStatus_InterruptEnable();
 170:.\SirenState.c ****     
 171:.\SirenState.c ****     ModeStatusISR_Start();
 172:.\SirenState.c **** }
 173:.\SirenState.c **** 
 174:.\SirenState.c **** /*******************************************************************************
 175:.\SirenState.c **** * Function Name: disableToneInputInterrupts
 176:.\SirenState.c **** ********************************************************************************
 177:.\SirenState.c **** *
 178:.\SirenState.c **** * Summary:
 179:.\SirenState.c **** *   Disables specific input interrupts that cannot be activated during Data Link
 180:.\SirenState.c **** *
 181:.\SirenState.c **** * Parameters:  
 182:.\SirenState.c **** *   None
 183:.\SirenState.c **** *
 184:.\SirenState.c **** * Return:
 185:.\SirenState.c **** *   None
 186:.\SirenState.c **** *
 187:.\SirenState.c **** *******************************************************************************/
 188:.\SirenState.c **** void disableToneInputInterrupts(void)
 189:.\SirenState.c **** {
 190:.\SirenState.c ****     TackSwitchStatus_InterruptDisable();
 191:.\SirenState.c ****     TackSwitchISR_Stop();
 192:.\SirenState.c ****     
 193:.\SirenState.c ****     DualDelayStatus_InterruptDisable();
 194:.\SirenState.c ****     DualDelayISR_Stop();
 195:.\SirenState.c ****     
 196:.\SirenState.c ****     ModeStatusISR_Stop();
 197:.\SirenState.c **** }
 198:.\SirenState.c **** 
 199:.\SirenState.c **** /*******************************************************************************
 200:.\SirenState.c **** * Function Name: initializeInputReadings
 201:.\SirenState.c **** ********************************************************************************
 202:.\SirenState.c **** *
 203:.\SirenState.c **** * Summary:
ARM GAS  C:\Users\faithc\AppData\Local\Temp\ccWgDYSd.s 			page 5


 204:.\SirenState.c **** *  Sets InputRead struct to current input readings at the beginning of the program
 205:.\SirenState.c **** *
 206:.\SirenState.c **** * Parameters:  
 207:.\SirenState.c **** *   None
 208:.\SirenState.c **** *
 209:.\SirenState.c **** * Return:
 210:.\SirenState.c **** *   None
 211:.\SirenState.c **** *
 212:.\SirenState.c **** *******************************************************************************/
 213:.\SirenState.c **** void initializeInputReadings(void)
 214:.\SirenState.c **** {
 215:.\SirenState.c **** 	uint8 speakerIndex = 0;
 216:.\SirenState.c **** 	
 217:.\SirenState.c ****     InputRead.bRadioAndMicKey = RadioRebroadcastInput_Read();
 218:.\SirenState.c ****     InputRead.bRadioAndMicKey |= MicKeyInput_Read();
 219:.\SirenState.c ****     InputRead.bParkKill = ParkKillStatus_Read() & 0x01;
 220:.\SirenState.c ****     InputRead.bHornRing = HornRingStatus_Read() & 0x01;
 221:.\SirenState.c **** 	
 222:.\SirenState.c **** 	for(speakerIndex = 0; speakerIndex < SPEAKER_COUNT; speakerIndex++)
 223:.\SirenState.c **** 		InputRead.highestPriorityChannel[speakerIndex] = getHighestPriorityChannel(speakerIndex);
 224:.\SirenState.c ****     
 225:.\SirenState.c ****     decideTonesToPlay();
 226:.\SirenState.c **** }
 227:.\SirenState.c **** 
 228:.\SirenState.c **** /*******************************************************************************
 229:.\SirenState.c **** * Function Name: processTackSwitchRoutine
 230:.\SirenState.c **** ********************************************************************************
 231:.\SirenState.c **** *
 232:.\SirenState.c **** * Summary:
 233:.\SirenState.c **** *  Cycles through the tones and configures the tone selection for the specified
 234:.\SirenState.c **** *  input, called in TackSwitchISR
 235:.\SirenState.c **** *
 236:.\SirenState.c **** * Parameters:  
 237:.\SirenState.c **** *   None
 238:.\SirenState.c **** *
 239:.\SirenState.c **** * Return:
 240:.\SirenState.c **** *   None
 241:.\SirenState.c **** *
 242:.\SirenState.c **** *******************************************************************************/
 243:.\SirenState.c **** void processTackSwitchRoutine(void)
 244:.\SirenState.c **** {
 245:.\SirenState.c ****     enum ToneType toneToPlay = NO_TONE;
 246:.\SirenState.c ****     uint16 addressIndex = 0;
 247:.\SirenState.c ****     uint8 channelIndex = 0;
 248:.\SirenState.c ****     uint8 bSpeakerIndex = 0;
 249:.\SirenState.c ****     
 250:.\SirenState.c ****     InputRead.bTackSwitch = TackSwitchStatus_Read() & 0x01;
 251:.\SirenState.c ****     
 252:.\SirenState.c ****     if((!InputRead.bRadioAndMicKey) && (!InputRead.bParkKill))
 253:.\SirenState.c ****     {
 254:.\SirenState.c ****         if(InputRead.bTackSwitch)
 255:.\SirenState.c ****         {
 256:.\SirenState.c ****             deactivateManualWail();
 257:.\SirenState.c **** 	        deactivateAudio();
 258:.\SirenState.c **** 			disableAudioAndPWM();
 259:.\SirenState.c ****         }
 260:.\SirenState.c ****         else
ARM GAS  C:\Users\faithc\AppData\Local\Temp\ccWgDYSd.s 			page 6


 261:.\SirenState.c ****         {   //Tack switch is disabled
 262:.\SirenState.c ****             EEPROM_UpdateTemperature(); //Optimizes write timings based on temperature reading
 263:.\SirenState.c ****             
 264:.\SirenState.c ****             for(bSpeakerIndex = 0; bSpeakerIndex < SPEAKER_COUNT; bSpeakerIndex++)
 265:.\SirenState.c ****             {   //Speaker 1 addresses range 0x00 to 0x05, Speaker 2 addresses range 0x06 to 0x0B 
 266:.\SirenState.c ****                 channelIndex = InputRead.highestPriorityChannel[bSpeakerIndex];
 267:.\SirenState.c ****                 addressIndex = (uint16)(CHANNEL_COUNT_PER_SPEAKER * bSpeakerIndex + channelIndex);
 268:.\SirenState.c ****                 
 269:.\SirenState.c ****                 if(channelIndex != NO_CHANNEL)
 270:.\SirenState.c ****                 {
 271:.\SirenState.c ****                     if(toneToPlay == NO_TONE)
 272:.\SirenState.c ****                     {   //Gets original tone for that channel as starting tone in the list         
 273:.\SirenState.c ****                         toneToPlay = EEPROM_ReadByte(addressIndex);    
 274:.\SirenState.c ****                         toneToPlay = (toneToPlay + 1) % TONE_TYPE_LIST_SIZE;  //Increments to next 
 275:.\SirenState.c ****                         
 276:.\SirenState.c ****                         if(toneToPlay == NO_TONE)
 277:.\SirenState.c ****                             toneToPlay++;  //Makes sure a tone is always selected
 278:.\SirenState.c ****                     }
 279:.\SirenState.c ****                     
 280:.\SirenState.c ****                     EEPROM_WriteByte(toneToPlay, addressIndex);
 281:.\SirenState.c **** 					toneConfigurationList[bSpeakerIndex][channelIndex] = toneToPlay;
 282:.\SirenState.c **** 					ToneStatus.previousTone[bSpeakerIndex] = ToneStatus.currentTone[bSpeakerIndex];
 283:.\SirenState.c **** 					ToneStatus.currentTone[bSpeakerIndex] = toneToPlay;
 284:.\SirenState.c **** 					ToneStatus.bRisingEdge[bSpeakerIndex] = true;
 285:.\SirenState.c ****                 }
 286:.\SirenState.c ****             }
 287:.\SirenState.c ****             
 288:.\SirenState.c ****             decideTonesToPlay();  
 289:.\SirenState.c ****         }
 290:.\SirenState.c ****     }
 291:.\SirenState.c **** }
 292:.\SirenState.c **** 
 293:.\SirenState.c **** /*******************************************************************************
 294:.\SirenState.c **** * Function Name: processRadioMicKeyRoutine
 295:.\SirenState.c **** ********************************************************************************
 296:.\SirenState.c **** *
 297:.\SirenState.c **** * Summary:
 298:.\SirenState.c **** *  Updates the siren system for the radio rebroadcast or mic key input change,
 299:.\SirenState.c **** *  called in RadioMicKeyISR
 300:.\SirenState.c **** *
 301:.\SirenState.c **** * Parameters:  
 302:.\SirenState.c **** *   None
 303:.\SirenState.c **** *
 304:.\SirenState.c **** * Return:
 305:.\SirenState.c **** *   None
 306:.\SirenState.c **** *
 307:.\SirenState.c **** *******************************************************************************/
 308:.\SirenState.c **** void processRadioMicKeyRoutine(void)
 309:.\SirenState.c **** {
 310:.\SirenState.c **** 	uint8 speakerIndex = 0;
 311:.\SirenState.c **** 	
 312:.\SirenState.c ****     InputRead.bRadioAndMicKey = RadioRebroadcastInput_Read() ||  MicKeyInput_Read();
 313:.\SirenState.c ****     
 314:.\SirenState.c ****     if(InputRead.bRadioAndMicKey)
 315:.\SirenState.c ****     {
 316:.\SirenState.c **** 		deactivateManualWail(); //Deactivate tones and leave one power amp on
 317:.\SirenState.c ****         deactivateAudio();
ARM GAS  C:\Users\faithc\AppData\Local\Temp\ccWgDYSd.s 			page 7


 318:.\SirenState.c **** 		PowerAmpOutput1_Write(true);
 319:.\SirenState.c ****         PowerAmpOutput2_Write(false);
 320:.\SirenState.c **** 		
 321:.\SirenState.c **** 		for(speakerIndex = 0; speakerIndex < SPEAKER_COUNT; speakerIndex++)
 322:.\SirenState.c **** 		{
 323:.\SirenState.c **** 			stopPWMTone(speakerIndex);
 324:.\SirenState.c **** 			stopAudioTone(speakerIndex);
 325:.\SirenState.c ****             ToneStatus.bRisingEdge[speakerIndex] = false;
 326:.\SirenState.c **** 		}
 327:.\SirenState.c ****     }
 328:.\SirenState.c **** 	else
 329:.\SirenState.c **** 		decideTonesToPlay();
 330:.\SirenState.c **** }
 331:.\SirenState.c **** 
 332:.\SirenState.c **** /*******************************************************************************
 333:.\SirenState.c **** * Function Name: processParkKillRoutine
 334:.\SirenState.c **** ********************************************************************************
 335:.\SirenState.c **** *
 336:.\SirenState.c **** * Summary:
 337:.\SirenState.c **** *  Updates the siren system for the park kill input change, called in ParkKillISR
 338:.\SirenState.c **** *
 339:.\SirenState.c **** * Parameters:  
 340:.\SirenState.c **** *   None
 341:.\SirenState.c **** *
 342:.\SirenState.c **** * Return:
 343:.\SirenState.c **** *   None
 344:.\SirenState.c **** *
 345:.\SirenState.c **** *******************************************************************************/
 346:.\SirenState.c **** void processParkKillRoutine(void)
 347:.\SirenState.c **** {
 348:.\SirenState.c ****     InputRead.bParkKill = ParkKillStatus_Read() & 0x01;    
 349:.\SirenState.c ****     decideTonesToPlay();
 350:.\SirenState.c **** }
 351:.\SirenState.c **** 
 352:.\SirenState.c **** /*******************************************************************************
 353:.\SirenState.c **** * Function Name: processHornRingRoutine
 354:.\SirenState.c **** ********************************************************************************
 355:.\SirenState.c **** *
 356:.\SirenState.c **** * Summary:
 357:.\SirenState.c **** *  Updates the siren system for the horn input change, called in HornRingISR
 358:.\SirenState.c **** *
 359:.\SirenState.c **** * Parameters:  
 360:.\SirenState.c **** *   None
 361:.\SirenState.c **** *
 362:.\SirenState.c **** * Return:
 363:.\SirenState.c **** *   None
 364:.\SirenState.c **** *
 365:.\SirenState.c **** *******************************************************************************/
 366:.\SirenState.c **** void processHornRingRoutine(void)
 367:.\SirenState.c **** {
 368:.\SirenState.c ****     InputRead.bHornRing = HornRingStatus_Read() & 0x01;
 369:.\SirenState.c ****     decideTonesToPlay();
 370:.\SirenState.c **** }
 371:.\SirenState.c **** 
 372:.\SirenState.c **** /*******************************************************************************
 373:.\SirenState.c **** * Function Name: processDualDelayRoutine
 374:.\SirenState.c **** ********************************************************************************
ARM GAS  C:\Users\faithc\AppData\Local\Temp\ccWgDYSd.s 			page 8


 375:.\SirenState.c **** *
 376:.\SirenState.c **** * Summary:
 377:.\SirenState.c **** *  Activates delay functionality for the two current tones, called in DualDelayISR
 378:.\SirenState.c **** *
 379:.\SirenState.c **** * Parameters:  
 380:.\SirenState.c **** *   None
 381:.\SirenState.c **** *
 382:.\SirenState.c **** * Return:
 383:.\SirenState.c **** *   None
 384:.\SirenState.c **** *
 385:.\SirenState.c **** *******************************************************************************/
 386:.\SirenState.c **** void processDualDelayRoutine(void)
 387:.\SirenState.c **** {
 388:.\SirenState.c ****     InputRead.bDualDelay = DualDelayStatus_Read() & 0x01;
 389:.\SirenState.c ****     ToneStatus.bDualDelayEnable = InputRead.bDualDelay;
 390:.\SirenState.c ****     decideTonesToPlay();
 391:.\SirenState.c **** }
 392:.\SirenState.c **** 
 393:.\SirenState.c **** /*******************************************************************************
 394:.\SirenState.c **** * Function Name: processToneChangeRoutine
 395:.\SirenState.c **** ********************************************************************************
 396:.\SirenState.c **** *
 397:.\SirenState.c **** * Summary:
 398:.\SirenState.c **** *  Updates the siren system for the tone input change, called in ModeStatusISR
 399:.\SirenState.c **** *
 400:.\SirenState.c **** * Parameters:  
 401:.\SirenState.c **** *   None
 402:.\SirenState.c **** *
 403:.\SirenState.c **** * Return:
 404:.\SirenState.c **** *   None
 405:.\SirenState.c **** *
 406:.\SirenState.c **** *******************************************************************************/
 407:.\SirenState.c **** void processToneChangeRoutine(void)
 408:.\SirenState.c **** {  
 409:.\SirenState.c ****     static uint8 previousChannels[SPEAKER_COUNT];
 410:.\SirenState.c ****     uint8 currentChannels[SPEAKER_COUNT];
 411:.\SirenState.c ****     uint8 changeStatus[SPEAKER_COUNT];
 412:.\SirenState.c ****     uint8 changedChannel[SPEAKER_COUNT];
 413:.\SirenState.c ****     uint8 speakerIndex = 0;
 414:.\SirenState.c **** 	uint8 priorityChannel = 0;
 415:.\SirenState.c ****     
 416:.\SirenState.c ****     currentChannels[SPEAKER_1] = ModeStatus_Read();
 417:.\SirenState.c ****     currentChannels[SPEAKER_2] = ModeStatus2_Read();
 418:.\SirenState.c ****     
 419:.\SirenState.c ****     for(speakerIndex = 0; speakerIndex < SPEAKER_COUNT; speakerIndex++)
 420:.\SirenState.c ****     {
 421:.\SirenState.c ****         changeStatus[speakerIndex] =
 422:.\SirenState.c ****             previousChannels[speakerIndex] ^ currentChannels[speakerIndex];
 423:.\SirenState.c **** 			
 424:.\SirenState.c **** 		changedChannel[speakerIndex] = getBitIndex(changeStatus[speakerIndex]);
 425:.\SirenState.c **** 		InputRead.highestPriorityChannel[speakerIndex] = getHighestPriorityChannel(speakerIndex);
 426:.\SirenState.c **** 		priorityChannel = InputRead.highestPriorityChannel[speakerIndex];
 427:.\SirenState.c **** 			
 428:.\SirenState.c **** 		if(changeStatus[speakerIndex] & currentChannels[speakerIndex])
 429:.\SirenState.c **** 			ToneStatus.bRisingEdge[speakerIndex] = true;
 430:.\SirenState.c **** 		else
 431:.\SirenState.c ****         {
ARM GAS  C:\Users\faithc\AppData\Local\Temp\ccWgDYSd.s 			page 9


 432:.\SirenState.c ****             if((priorityChannel == NO_CHANNEL) || ((changedChannel[speakerIndex] != NO_CHANNEL) && 
 433:.\SirenState.c ****                 (priorityChannel < changedChannel[speakerIndex])))
 434:.\SirenState.c **** 			    ToneStatus.bRisingEdge[speakerIndex] = false;
 435:.\SirenState.c ****         }
 436:.\SirenState.c **** 		
 437:.\SirenState.c ****         previousChannels[speakerIndex] = currentChannels[speakerIndex];
 438:.\SirenState.c **** 		ToneStatus.previousTone[speakerIndex] = ToneStatus.currentTone[speakerIndex];	
 439:.\SirenState.c **** 		
 440:.\SirenState.c **** 		if(priorityChannel != NO_CHANNEL)
 441:.\SirenState.c **** 			ToneStatus.currentTone[speakerIndex] = toneConfigurationList[speakerIndex][priorityChannel];
 442:.\SirenState.c **** 		else
 443:.\SirenState.c **** 			ToneStatus.currentTone[speakerIndex] = NO_TONE;
 444:.\SirenState.c ****     }
 445:.\SirenState.c **** 	
 446:.\SirenState.c **** 	decideTonesToPlay();
 447:.\SirenState.c **** }
 448:.\SirenState.c **** 
 449:.\SirenState.c **** /*******************************************************************************
 450:.\SirenState.c **** * Function Name: setTonesWithCommunication
 451:.\SirenState.c **** ********************************************************************************
 452:.\SirenState.c **** *
 453:.\SirenState.c **** * Summary:
 454:.\SirenState.c **** *   Called during Data Link to update the tone using the data from the Controller
 455:.\SirenState.c **** *
 456:.\SirenState.c **** * Parameters:  
 457:.\SirenState.c **** *   firstTone: The tone selection for Speaker 1
 458:.\SirenState.c **** *   secondTone: The tone selection for Speaker 2
 459:.\SirenState.c **** *   bDualDelay: The Dual Delay status from the Controller
 460:.\SirenState.c **** *
 461:.\SirenState.c **** * Return:
 462:.\SirenState.c **** *   TRUE for valid inputs, FALSE otherwise
 463:.\SirenState.c **** *
 464:.\SirenState.c **** *******************************************************************************/
 465:.\SirenState.c **** uint8 setTonesWithCommunication(enum ToneType firstTone, enum ToneType secondTone,
 466:.\SirenState.c ****                                 uint8 bDualDelay)
 467:.\SirenState.c **** {
 468:.\SirenState.c ****     uint8 speakerIndex = 0;
 469:.\SirenState.c ****     uint8 bDualDelayChange = false;
 470:.\SirenState.c ****     
 471:.\SirenState.c ****     if((firstTone < NO_TONE) || (firstTone > TEST_TONE))
 472:.\SirenState.c ****         return false;
 473:.\SirenState.c ****     
 474:.\SirenState.c ****     if((secondTone < NO_TONE) || (secondTone > TEST_TONE))
 475:.\SirenState.c ****         return false;
 476:.\SirenState.c ****     
 477:.\SirenState.c ****     if((bDualDelay != true) && (bDualDelay != false))
 478:.\SirenState.c ****         return false;
 479:.\SirenState.c ****     
 480:.\SirenState.c ****     ToneStatus.previousTone[SPEAKER_1] = ToneStatus.currentTone[SPEAKER_1];
 481:.\SirenState.c ****     ToneStatus.previousTone[SPEAKER_2] = ToneStatus.currentTone[SPEAKER_2];
 482:.\SirenState.c ****     ToneStatus.currentTone[SPEAKER_1] = firstTone;
 483:.\SirenState.c ****     ToneStatus.currentTone[SPEAKER_2] = secondTone;
 484:.\SirenState.c ****     
 485:.\SirenState.c ****     if(bDualDelay != ToneStatus.bDualDelayEnable)
 486:.\SirenState.c ****         bDualDelayChange = true;
 487:.\SirenState.c ****     
 488:.\SirenState.c ****     ToneStatus.bDualDelayEnable = bDualDelay;
ARM GAS  C:\Users\faithc\AppData\Local\Temp\ccWgDYSd.s 			page 10


 489:.\SirenState.c ****     
 490:.\SirenState.c ****     for(speakerIndex = 0; speakerIndex < SPEAKER_COUNT; speakerIndex++)
 491:.\SirenState.c ****     {
 492:.\SirenState.c ****         if((ToneStatus.previousTone[speakerIndex] == NO_TONE) &&
 493:.\SirenState.c ****             (ToneStatus.currentTone[speakerIndex] != NO_TONE))
 494:.\SirenState.c ****             ToneStatus.bRisingEdge[speakerIndex] = true;
 495:.\SirenState.c ****         else if((ToneStatus.previousTone[speakerIndex] != NO_TONE) &&
 496:.\SirenState.c ****             (ToneStatus.currentTone[speakerIndex] == NO_TONE))
 497:.\SirenState.c ****             ToneStatus.bRisingEdge[speakerIndex] = false;
 498:.\SirenState.c ****     }
 499:.\SirenState.c ****     
 500:.\SirenState.c ****     if((ToneStatus.previousTone[SPEAKER_1] != ToneStatus.currentTone[SPEAKER_1]) ||
 501:.\SirenState.c ****         (ToneStatus.previousTone[SPEAKER_2] != ToneStatus.currentTone[SPEAKER_2]) ||
 502:.\SirenState.c ****         (bDualDelayChange == true))
 503:.\SirenState.c ****         decideTonesToPlay();
 504:.\SirenState.c ****     
 505:.\SirenState.c ****     return true;
 506:.\SirenState.c **** }
 507:.\SirenState.c **** 
 508:.\SirenState.c **** /*******************************************************************************
 509:.\SirenState.c **** * Function Name: disableAudioAndPWM
 510:.\SirenState.c **** ********************************************************************************
 511:.\SirenState.c **** *
 512:.\SirenState.c **** * Summary:
 513:.\SirenState.c **** *   Disables the DAC and PWM for both speakers, typically called before the Power
 514:.\SirenState.c **** *   Amps are disabled for a clear shut down
 515:.\SirenState.c **** *
 516:.\SirenState.c **** * Parameters: 
 517:.\SirenState.c **** *   None
 518:.\SirenState.c **** *
 519:.\SirenState.c **** * Return:
 520:.\SirenState.c **** *   None
 521:.\SirenState.c **** *
 522:.\SirenState.c **** *******************************************************************************/
 523:.\SirenState.c **** void disableAudioAndPWM(void)
 524:.\SirenState.c **** {
 525:.\SirenState.c **** 	stopPWMTone(SPEAKER_1);
 526:.\SirenState.c ****     stopPWMTone(SPEAKER_2);
 527:.\SirenState.c ****     stopAudioTone(SPEAKER_1);
 528:.\SirenState.c ****     stopAudioTone(SPEAKER_2);
 529:.\SirenState.c **** }
 530:.\SirenState.c **** 
 531:.\SirenState.c **** /*******************************************************************************
 532:.\SirenState.c **** * Function Name: disableBothSpeakers
 533:.\SirenState.c **** ********************************************************************************
 534:.\SirenState.c **** *
 535:.\SirenState.c **** * Summary:
 536:.\SirenState.c **** *   Disables the Power Amps and updates the PWM and DAC status to play no tone
 537:.\SirenState.c **** *   for both speakers, typically called after the DAC and PWM are disabled.
 538:.\SirenState.c **** *
 539:.\SirenState.c **** * Parameters: 
 540:.\SirenState.c **** *   None
 541:.\SirenState.c **** *
 542:.\SirenState.c **** * Return:
 543:.\SirenState.c **** *   None
 544:.\SirenState.c **** *
 545:.\SirenState.c **** *******************************************************************************/
ARM GAS  C:\Users\faithc\AppData\Local\Temp\ccWgDYSd.s 			page 11


 546:.\SirenState.c **** void disableBothSpeakers(void)
 547:.\SirenState.c **** {
 548:.\SirenState.c **** 	deactivateManualWail();
 549:.\SirenState.c **** 	deactivateAudio();
 550:.\SirenState.c **** 	PowerAmpOutput1_Write(false);
 551:.\SirenState.c **** 	PowerAmpOutput2_Write(false);
 552:.\SirenState.c ****     playAudioTone(SPEAKER_1, NO_TONE, false);
 553:.\SirenState.c ****     playAudioTone(SPEAKER_2, NO_TONE, false);
 554:.\SirenState.c ****     playPWMTone(SPEAKER_1, NO_TONE, false, false);
 555:.\SirenState.c ****     playPWMTone(SPEAKER_2, NO_TONE, false, false);
 556:.\SirenState.c **** }
 557:.\SirenState.c **** 
 558:.\SirenState.c **** /*******************************************************************************
 559:.\SirenState.c **** * Function Name: decideTonesToPlay
 560:.\SirenState.c **** ********************************************************************************
 561:.\SirenState.c **** *
 562:.\SirenState.c **** * Summary:
 563:.\SirenState.c **** *  The state machine that determines the tone outcome for each speaker.
 564:.\SirenState.c **** *
 565:.\SirenState.c **** * Parameters:  
 566:.\SirenState.c **** *   None
 567:.\SirenState.c **** *
 568:.\SirenState.c **** * Return:
 569:.\SirenState.c **** *   None
 570:.\SirenState.c **** *
 571:.\SirenState.c **** *******************************************************************************/
 572:.\SirenState.c **** static void decideTonesToPlay(void)
 573:.\SirenState.c **** {
 574:.\SirenState.c **** 	static uint8 bToneChangeOnHornRing = false;
 575:.\SirenState.c ****     
 576:.\SirenState.c ****     disableAudioAndPWM();
 577:.\SirenState.c ****     
 578:.\SirenState.c ****     if(InputRead.bRadioAndMicKey)
 579:.\SirenState.c ****         return;	
 580:.\SirenState.c ****     
 581:.\SirenState.c **** 	if(ToneStatus.currentTone[SPEAKER_1] != NO_TONE)
 582:.\SirenState.c **** 	{
 583:.\SirenState.c **** 		if(isAudioTone(ToneStatus.currentTone[SPEAKER_1]))
 584:.\SirenState.c **** 		{
 585:.\SirenState.c **** 			if(isSong(ToneStatus.currentTone[SPEAKER_1]))
 586:.\SirenState.c **** 			{
 587:.\SirenState.c **** 				if(ToneStatus.bRisingEdge[SPEAKER_1])	//Plays BAD BOYS	
 588:.\SirenState.c **** 					enableSpeakersForAudioTone(SPEAKER_1, ToneStatus.currentTone[SPEAKER_1], true);
 589:.\SirenState.c **** 				else	//Plays NO TONE
 590:.\SirenState.c **** 					disableBothSpeakers();
 591:.\SirenState.c **** 				
 592:.\SirenState.c **** 			}
 593:.\SirenState.c **** 			else	//Plays ECTO OR COMMAND 
 594:.\SirenState.c **** 				enableSpeakersForAudioTone(SPEAKER_1, ToneStatus.currentTone[SPEAKER_1], true);
 595:.\SirenState.c **** 		}
 596:.\SirenState.c **** 		else
 597:.\SirenState.c **** 		{	
 598:.\SirenState.c ****             if(isAudioTone(ToneStatus.currentTone[SPEAKER_2]))
 599:.\SirenState.c ****     		{
 600:.\SirenState.c ****     			if(isSong(ToneStatus.currentTone[SPEAKER_2]))
 601:.\SirenState.c ****     			{
 602:.\SirenState.c ****     				if(ToneStatus.bRisingEdge[SPEAKER_2])	//Plays BAD BOYS	
ARM GAS  C:\Users\faithc\AppData\Local\Temp\ccWgDYSd.s 			page 12


 603:.\SirenState.c ****     					enableSpeakersForAudioTone(SPEAKER_2, ToneStatus.currentTone[SPEAKER_2], true);
 604:.\SirenState.c ****     				else	//Plays NO TONE
 605:.\SirenState.c ****     					disableBothSpeakers();
 606:.\SirenState.c ****     				
 607:.\SirenState.c ****     			}
 608:.\SirenState.c ****     			else	//Plays ECTO OR COMMAND 
 609:.\SirenState.c ****     				enableSpeakersForAudioTone(SPEAKER_2, ToneStatus.currentTone[SPEAKER_2], true);
 610:.\SirenState.c ****     		}
 611:.\SirenState.c **** 			else if(InputRead.bParkKill)	//Plays NO TONE
 612:.\SirenState.c **** 				disableBothSpeakers();
 613:.\SirenState.c **** 			else if(InputRead.bHornRing)
 614:.\SirenState.c **** 			{	//Plays NO TONE
 615:.\SirenState.c **** 				bToneChangeOnHornRing = !bToneChangeOnHornRing;
 616:.\SirenState.c **** 				disableBothSpeakers();
 617:.\SirenState.c **** 			}
 618:.\SirenState.c **** 			else if(bToneChangeOnHornRing)
 619:.\SirenState.c **** 			{	//Plays SPEAKER 1 SIREN TONE
 620:.\SirenState.c **** 				enableSpeakerForSirenTone(SPEAKER_1, getAlternatingTone(ToneStatus.currentTone[SPEAKER_1]), 
 621:.\SirenState.c ****                     true, ToneStatus.bDualDelayEnable);
 622:.\SirenState.c **** 				
 623:.\SirenState.c **** 				if(ToneStatus.currentTone[SPEAKER_2] != NO_TONE)
 624:.\SirenState.c **** 					enableSpeakerForSirenTone(SPEAKER_2, getAlternatingTone(ToneStatus.currentTone[SPEAKER_2]), 
 625:.\SirenState.c ****                         true, ToneStatus.bDualDelayEnable);
 626:.\SirenState.c **** 				else
 627:.\SirenState.c ****                 {
 628:.\SirenState.c ****                     PowerAmpOutput2_Write(false);
 629:.\SirenState.c ****                     enableSpeakerForSirenTone(SPEAKER_2, NO_TONE, false, ToneStatus.bDualDelayEnabl
 630:.\SirenState.c ****                 }
 631:.\SirenState.c **** 			}
 632:.\SirenState.c **** 			else
 633:.\SirenState.c **** 			{	//Plays SPEAKER 1 SIREN TONE
 634:.\SirenState.c **** 				enableSpeakerForSirenTone(SPEAKER_1, ToneStatus.currentTone[SPEAKER_1],
 635:.\SirenState.c ****                     true, ToneStatus.bDualDelayEnable);
 636:.\SirenState.c **** 				
 637:.\SirenState.c **** 				if(ToneStatus.currentTone[SPEAKER_2] != NO_TONE)
 638:.\SirenState.c **** 					enableSpeakerForSirenTone(SPEAKER_2, ToneStatus.currentTone[SPEAKER_2],
 639:.\SirenState.c ****                         true, ToneStatus.bDualDelayEnable);
 640:.\SirenState.c **** 				else
 641:.\SirenState.c ****                 {
 642:.\SirenState.c **** 				    PowerAmpOutput2_Write(false);
 643:.\SirenState.c ****                     enableSpeakerForSirenTone(SPEAKER_2, NO_TONE, false, ToneStatus.bDualDelayEnabl
 644:.\SirenState.c ****                 }
 645:.\SirenState.c **** 			}
 646:.\SirenState.c **** 		}
 647:.\SirenState.c **** 	}
 648:.\SirenState.c **** 	else if(ToneStatus.currentTone[SPEAKER_2] != NO_TONE)
 649:.\SirenState.c **** 	{
 650:.\SirenState.c **** 		if(isAudioTone(ToneStatus.currentTone[SPEAKER_2]))
 651:.\SirenState.c **** 		{
 652:.\SirenState.c **** 			if(isSong(ToneStatus.currentTone[SPEAKER_2]))
 653:.\SirenState.c **** 			{
 654:.\SirenState.c **** 				if(ToneStatus.bRisingEdge[SPEAKER_2])	//Plays BAD BOYS	
 655:.\SirenState.c **** 					enableSpeakersForAudioTone(SPEAKER_2, ToneStatus.currentTone[SPEAKER_2], true);
 656:.\SirenState.c **** 				else	//Plays NO TONE
 657:.\SirenState.c **** 					disableBothSpeakers();
 658:.\SirenState.c **** 				
 659:.\SirenState.c **** 			}
ARM GAS  C:\Users\faithc\AppData\Local\Temp\ccWgDYSd.s 			page 13


 660:.\SirenState.c **** 			else	//Plays ECTO OR COMMAND 
 661:.\SirenState.c **** 				enableSpeakersForAudioTone(SPEAKER_2, ToneStatus.currentTone[SPEAKER_2], true);
 662:.\SirenState.c **** 		}
 663:.\SirenState.c **** 		else
 664:.\SirenState.c **** 		{	
 665:.\SirenState.c **** 			if(InputRead.bParkKill)	//Plays NO TONE
 666:.\SirenState.c **** 				disableBothSpeakers();
 667:.\SirenState.c **** 			else if(InputRead.bHornRing)
 668:.\SirenState.c **** 			{	//Plays NO TONE
 669:.\SirenState.c **** 				bToneChangeOnHornRing = !bToneChangeOnHornRing;
 670:.\SirenState.c **** 				disableBothSpeakers();
 671:.\SirenState.c **** 			}
 672:.\SirenState.c **** 			else if(bToneChangeOnHornRing)
 673:.\SirenState.c **** 			{	//Plays SPEAKER 2 SIREN TONE
 674:.\SirenState.c **** 				PowerAmpOutput1_Write(false);
 675:.\SirenState.c ****                 enableSpeakerForSirenTone(SPEAKER_1, NO_TONE, false, ToneStatus.bDualDelayEnable);
 676:.\SirenState.c **** 				enableSpeakerForSirenTone(SPEAKER_2, getAlternatingTone(ToneStatus.currentTone[SPEAKER_2]),
 677:.\SirenState.c ****                     true, InputRead.bDualDelay);
 678:.\SirenState.c **** 			}
 679:.\SirenState.c **** 			else
 680:.\SirenState.c **** 			{	//Plays SPEAKER 2 SIREN TONE
 681:.\SirenState.c **** 				PowerAmpOutput1_Write(false);
 682:.\SirenState.c ****                 enableSpeakerForSirenTone(SPEAKER_1, NO_TONE, false, ToneStatus.bDualDelayEnable);
 683:.\SirenState.c **** 				enableSpeakerForSirenTone(SPEAKER_2, ToneStatus.currentTone[SPEAKER_2],
 684:.\SirenState.c ****                     true, InputRead.bDualDelay);
 685:.\SirenState.c **** 			}
 686:.\SirenState.c **** 		}
 687:.\SirenState.c **** 	}
 688:.\SirenState.c **** 	else
 689:.\SirenState.c **** 	{	
 690:.\SirenState.c ****         if(InputRead.bParkKill)
 691:.\SirenState.c ****             disableBothSpeakers();
 692:.\SirenState.c ****         else
 693:.\SirenState.c ****         {
 694:.\SirenState.c ****     		if(InputRead.bHornRing)
 695:.\SirenState.c ****     		{	//Plays HORN
 696:.\SirenState.c ****     			bToneChangeOnHornRing = false;
 697:.\SirenState.c ****     			deactivateManualWail();
 698:.\SirenState.c ****     			enableSpeakerForSirenTone(SPEAKER_1, HORN, false, false);
 699:.\SirenState.c ****     			enableSpeakerForSirenTone(SPEAKER_2, HORN, false, false);
 700:.\SirenState.c ****     		}
 701:.\SirenState.c ****     		else if(isTrailingTone(ToneStatus.previousTone[SPEAKER_1]))
 702:.\SirenState.c ****     		{
 703:.\SirenState.c ****     			if(isAudioTone(ToneStatus.previousTone[SPEAKER_1]))	//Plays ECTO or COMMAND	
 704:.\SirenState.c ****     				enableSpeakersForAudioTone(SPEAKER_1, ToneStatus.previousTone[SPEAKER_1], false);
 705:.\SirenState.c ****     			else	//Plays MANUAL WAIL
 706:.\SirenState.c ****     				enableSpeakerForSirenTone(SPEAKER_1, ToneStatus.previousTone[SPEAKER_1], false, false);	
 707:.\SirenState.c ****                 
 708:.\SirenState.c ****                 ToneStatus.previousTone[SPEAKER_1] = NO_TONE;
 709:.\SirenState.c ****                 bToneChangeOnHornRing = false;
 710:.\SirenState.c ****     		}
 711:.\SirenState.c ****     		else if(isTrailingTone(ToneStatus.previousTone[SPEAKER_2]))
 712:.\SirenState.c ****     		{
 713:.\SirenState.c ****     			if(isAudioTone(ToneStatus.previousTone[SPEAKER_2]))	//Plays ECTO or COMMAND	
 714:.\SirenState.c ****     				enableSpeakersForAudioTone(SPEAKER_2, ToneStatus.previousTone[SPEAKER_2], false);	
 715:.\SirenState.c ****     			else	//Plays MANUAL WAIL	
 716:.\SirenState.c ****     				enableSpeakerForSirenTone(SPEAKER_2, ToneStatus.previousTone[SPEAKER_2], false, false);	
ARM GAS  C:\Users\faithc\AppData\Local\Temp\ccWgDYSd.s 			page 14


 717:.\SirenState.c ****                     
 718:.\SirenState.c ****                 ToneStatus.previousTone[SPEAKER_2] = NO_TONE;
 719:.\SirenState.c ****                 bToneChangeOnHornRing = false;
 720:.\SirenState.c ****     		}
 721:.\SirenState.c ****     		else	//Plays NO TONE
 722:.\SirenState.c ****             {
 723:.\SirenState.c ****                 bToneChangeOnHornRing = false;
 724:.\SirenState.c ****     			disableBothSpeakers();
 725:.\SirenState.c ****             }
 726:.\SirenState.c ****         }
 727:.\SirenState.c **** 	}
 728:.\SirenState.c **** }
 729:.\SirenState.c **** 
 730:.\SirenState.c **** /*******************************************************************************
 731:.\SirenState.c **** * Function Name: enableSpeakerForSirenTone
 732:.\SirenState.c **** ********************************************************************************
 733:.\SirenState.c **** *
 734:.\SirenState.c **** * Summary:
 735:.\SirenState.c **** *   Procedure for enabling a siren tone for the selected speaker
 736:.\SirenState.c **** *
 737:.\SirenState.c **** * Parameters: 
 738:.\SirenState.c **** *   bSpeaker: Speaker selection (SPEAKER_1 or SPEAKER_2)
 739:.\SirenState.c **** *   toneSelection: The tone to play
 740:.\SirenState.c **** *   bInputEnable: The current input status
 741:.\SirenState.c **** *   bDelay: The Dual Delay status
 742:.\SirenState.c **** *
 743:.\SirenState.c **** * Return:
 744:.\SirenState.c **** *   TRUE for valid inputs, FALSE otherwise
 745:.\SirenState.c **** *
 746:.\SirenState.c **** *******************************************************************************/
 747:.\SirenState.c **** static uint8 enableSpeakerForSirenTone(uint8 bSpeaker, enum ToneType toneSelection,
 748:.\SirenState.c ****                                     uint8 bInputEnable, uint8 bDelay)
 749:.\SirenState.c **** {
 750:.\SirenState.c **** 	if((bSpeaker != SPEAKER_1) && (bSpeaker != SPEAKER_2))
 751:.\SirenState.c ****         return false;
 752:.\SirenState.c ****     
 753:.\SirenState.c ****     if((toneSelection < NO_TONE) || (toneSelection > TEST_TONE))
 754:.\SirenState.c ****         return false;
 755:.\SirenState.c ****     
 756:.\SirenState.c ****     if((bInputEnable != true) && (bInputEnable != false))
 757:.\SirenState.c ****         return false;
 758:.\SirenState.c ****     
 759:.\SirenState.c ****     deactivateAudio();
 760:.\SirenState.c ****     playAudioTone(bSpeaker, NO_TONE, false);
 761:.\SirenState.c **** 	playPWMTone(bSpeaker, toneSelection, bInputEnable, bDelay);
 762:.\SirenState.c **** 	
 763:.\SirenState.c ****     if(toneSelection != NO_TONE)
 764:.\SirenState.c ****     {
 765:.\SirenState.c ****     	if(bSpeaker)
 766:.\SirenState.c ****     		PowerAmpOutput2_Write(true);
 767:.\SirenState.c ****     	else
 768:.\SirenState.c ****     		PowerAmpOutput1_Write(true);
 769:.\SirenState.c ****     }
 770:.\SirenState.c ****         
 771:.\SirenState.c ****     return true;
 772:.\SirenState.c **** }
 773:.\SirenState.c **** 
ARM GAS  C:\Users\faithc\AppData\Local\Temp\ccWgDYSd.s 			page 15


 774:.\SirenState.c **** /*******************************************************************************
 775:.\SirenState.c **** * Function Name: enableSpeakersForAudioTone
 776:.\SirenState.c **** ********************************************************************************
 777:.\SirenState.c **** *
 778:.\SirenState.c **** * Summary:
 779:.\SirenState.c **** *   Procedure for enabling an audio tone for the selected speaker
 780:.\SirenState.c **** *
 781:.\SirenState.c **** * Parameters: 
 782:.\SirenState.c **** *   bSpeaker: Speaker selection (SPEAKER_1 or SPEAKER_2)
 783:.\SirenState.c **** *   toneSelection: The tone to play
 784:.\SirenState.c **** *   bInputEnable: The current input status
 785:.\SirenState.c **** *
 786:.\SirenState.c **** * Return:
 787:.\SirenState.c **** *   TRUE for valid inputs, FALSE otherwise
 788:.\SirenState.c **** *
 789:.\SirenState.c **** *******************************************************************************/
 790:.\SirenState.c **** static uint8 enableSpeakersForAudioTone(uint8 bSpeaker, enum ToneType toneSelection,
 791:.\SirenState.c ****                                         uint8 bInputEnable)
 792:.\SirenState.c **** {
 793:.\SirenState.c **** 	if((bSpeaker != SPEAKER_1) && (bSpeaker != SPEAKER_2))
 794:.\SirenState.c ****         return false;
 795:.\SirenState.c ****     
 796:.\SirenState.c ****     if((toneSelection < WAIL) || (toneSelection > TEST_TONE))
 797:.\SirenState.c ****         return false;
 798:.\SirenState.c ****     
 799:.\SirenState.c ****     if((bInputEnable != true) && (bInputEnable != false))
 800:.\SirenState.c ****         return false;
 801:.\SirenState.c ****     
 802:.\SirenState.c ****     deactivateManualWail();
 803:.\SirenState.c ****     playPWMTone(bSpeaker, NO_TONE, false, false);
 804:.\SirenState.c **** 	playAudioTone(bSpeaker, toneSelection, bInputEnable);
 805:.\SirenState.c **** 	PowerAmpOutput1_Write(true);
 806:.\SirenState.c **** 	PowerAmpOutput2_Write(true);
 807:.\SirenState.c ****     
 808:.\SirenState.c ****     return true;
 809:.\SirenState.c **** }
 810:.\SirenState.c **** 
 811:.\SirenState.c **** /*******************************************************************************
 812:.\SirenState.c **** * Function Name: getHighestPriorityInput
 813:.\SirenState.c **** ********************************************************************************
 814:.\SirenState.c **** *
 815:.\SirenState.c **** * Summary:
 816:.\SirenState.c **** *  Determines the active tone with the highest priority
 817:.\SirenState.c **** *
 818:.\SirenState.c **** * Parameters: 
 819:.\SirenState.c **** *   bSpeakerNumber - The speaker selection for the input reading
 820:.\SirenState.c **** *
 821:.\SirenState.c **** * Return:
 822:.\SirenState.c **** *   The active tone mode with the highest priority
 823:.\SirenState.c **** *
 824:.\SirenState.c **** *******************************************************************************/
 825:.\SirenState.c **** static enum ChannelIndex getHighestPriorityChannel(uint8 bSpeakerNumber)
 826:.\SirenState.c **** {
 827:.\SirenState.c ****     uint8 modeStatusByte = 0;
 828:.\SirenState.c ****     
 829:.\SirenState.c ****     if((bSpeakerNumber != SPEAKER_1) && (bSpeakerNumber != SPEAKER_2))
 830:.\SirenState.c ****         return NO_CHANNEL;
ARM GAS  C:\Users\faithc\AppData\Local\Temp\ccWgDYSd.s 			page 16


 831:.\SirenState.c ****     
 832:.\SirenState.c ****     if(bSpeakerNumber)
 833:.\SirenState.c ****         modeStatusByte = ModeStatus2_Read();
 834:.\SirenState.c ****     else
 835:.\SirenState.c ****         modeStatusByte = ModeStatus_Read();
 836:.\SirenState.c ****     
 837:.\SirenState.c ****     if(modeStatusByte & 0x20)
 838:.\SirenState.c ****         return CHANNEL_6;
 839:.\SirenState.c ****     if(modeStatusByte & 0x10)
 840:.\SirenState.c ****         return CHANNEL_5;
 841:.\SirenState.c ****     if(modeStatusByte & 0x08)
 842:.\SirenState.c ****         return CHANNEL_4;
 843:.\SirenState.c ****     if(modeStatusByte & 0x04)
 844:.\SirenState.c ****         return CHANNEL_3;    
 845:.\SirenState.c ****     if(modeStatusByte & 0x02)
 846:.\SirenState.c ****         return CHANNEL_2;
 847:.\SirenState.c ****     if(modeStatusByte & 0x01)
 848:.\SirenState.c ****         return CHANNEL_1;
 849:.\SirenState.c ****     
 850:.\SirenState.c ****     return NO_CHANNEL;
 851:.\SirenState.c **** }
 852:.\SirenState.c **** 
 853:.\SirenState.c **** /*******************************************************************************
 854:.\SirenState.c **** * Function Name: getAlternatingTone
 855:.\SirenState.c **** ********************************************************************************
 856:.\SirenState.c **** *
 857:.\SirenState.c **** * Summary:
 858:.\SirenState.c **** *   Gets the 2nd tone to play during toggling with the horn
 859:.\SirenState.c **** *
 860:.\SirenState.c **** * Parameters: 
 861:.\SirenState.c **** *   toneSelection: The first tone to play during toggling
 862:.\SirenState.c **** *
 863:.\SirenState.c **** * Return:
 864:.\SirenState.c **** *   The alternating tone (or the same tone if no horn capability)
 865:.\SirenState.c **** *
 866:.\SirenState.c **** *******************************************************************************/
 867:.\SirenState.c **** static enum ToneType getAlternatingTone(enum ToneType toneSelection)
 868:.\SirenState.c **** {
 869:.\SirenState.c **** 	if((toneSelection == NO_TONE) || isAudioTone(toneSelection) || (toneSelection == TEST_TONE))
 870:.\SirenState.c **** 		return toneSelection;
 871:.\SirenState.c **** 	
 872:.\SirenState.c **** 	if((toneSelection == MECHANICAL) || (toneSelection == PCALL_FAST))
 873:.\SirenState.c **** 		return PHASER;
 874:.\SirenState.c **** 	
 875:.\SirenState.c **** 	if(toneSelection == PHASER_YELP)
 876:.\SirenState.c **** 		return HORN_PHASER;
 877:.\SirenState.c **** 	
 878:.\SirenState.c **** 	return (toneSelection + 1);
 879:.\SirenState.c **** }
 880:.\SirenState.c **** 
 881:.\SirenState.c **** /*******************************************************************************
 882:.\SirenState.c **** * Function Name: isTrailingTone
 883:.\SirenState.c **** ********************************************************************************
 884:.\SirenState.c **** *
 885:.\SirenState.c **** * Summary:
 886:.\SirenState.c **** *   Determines if the given tone has the trailing effect
 887:.\SirenState.c **** *
ARM GAS  C:\Users\faithc\AppData\Local\Temp\ccWgDYSd.s 			page 17


 888:.\SirenState.c **** * Parameters: 
 889:.\SirenState.c **** *   thisTone: The tone to check
 890:.\SirenState.c **** *
 891:.\SirenState.c **** * Return:
 892:.\SirenState.c **** *   TRUE if trailing tone, FALSE if not trailing tone or invalid input
 893:.\SirenState.c **** *
 894:.\SirenState.c **** *******************************************************************************/
 895:.\SirenState.c **** static uint8 isTrailingTone(enum ToneType thisTone)
 896:.\SirenState.c **** {
 897:.\SirenState.c ****     if((thisTone == MANUAL_WAIL) || (thisTone == ECTOSIREN) || isCommand(thisTone))
 898:.\SirenState.c ****         return true;
 899:.\SirenState.c ****     
 900:.\SirenState.c ****     return false;
 901:.\SirenState.c **** }
 902:.\SirenState.c **** 
 903:.\SirenState.c **** /*******************************************************************************
 904:.\SirenState.c **** * Function Name: isAudioTone
 905:.\SirenState.c **** ********************************************************************************
 906:.\SirenState.c **** *
 907:.\SirenState.c **** * Summary:
 908:.\SirenState.c **** *   Determines if the given tone is an audio tone
 909:.\SirenState.c **** *
 910:.\SirenState.c **** * Parameters: 
 911:.\SirenState.c **** *   thisTone: The tone to check
 912:.\SirenState.c **** *
 913:.\SirenState.c **** * Return:
 914:.\SirenState.c **** *   TRUE if audio tone, FALSE if not audio tone or invalid input
 915:.\SirenState.c **** *
 916:.\SirenState.c **** *******************************************************************************/
 917:.\SirenState.c **** static uint8 isAudioTone(enum ToneType thisTone)
 918:.\SirenState.c **** {
 919:.\SirenState.c ****     if((thisTone == ECTOSIREN) || isSong(thisTone) || isCommand(thisTone))
 920:.\SirenState.c ****         return true;
 921:.\SirenState.c ****     
 922:.\SirenState.c ****     return false;
 923:.\SirenState.c **** }
 924:.\SirenState.c **** 
 925:.\SirenState.c **** /*******************************************************************************
 926:.\SirenState.c **** * Function Name: isCommand
 927:.\SirenState.c **** ********************************************************************************
 928:.\SirenState.c **** *
 929:.\SirenState.c **** * Summary:
 930:.\SirenState.c **** *   Determines if the given tone is a command
 931:.\SirenState.c **** *
 932:.\SirenState.c **** * Parameters: 
 933:.\SirenState.c **** *   thisTone: The tone to check
 934:.\SirenState.c **** *
 935:.\SirenState.c **** * Return:
 936:.\SirenState.c **** *   TRUE if a command, FALSE if not a command or invalid input
 937:.\SirenState.c **** *
 938:.\SirenState.c **** *******************************************************************************/
 939:.\SirenState.c **** static uint8 isCommand(enum ToneType thisTone)
 940:.\SirenState.c **** {
  26              		.loc 1 940 0
  27              		.cfi_startproc
  28              		@ args = 0, pretend = 0, frame = 0
  29              		@ frame_needed = 0, uses_anonymous_args = 0
ARM GAS  C:\Users\faithc\AppData\Local\Temp\ccWgDYSd.s 			page 18


  30              		@ link register save eliminated.
  31              	.LVL0:
 941:.\SirenState.c ****     if((thisTone >= MOVE_OUT) && (thisTone <= REMAIN_WINDOW_DOWN))
  32              		.loc 1 941 0
  33 0000 1038     		subs	r0, r0, #16
  34              	.LVL1:
  35 0002 C0B2     		uxtb	r0, r0
  36 0004 0528     		cmp	r0, #5
  37 0006 01D8     		bhi	.L3
 942:.\SirenState.c ****         return true;
  38              		.loc 1 942 0
  39 0008 0120     		movs	r0, #1
  40 000a 7047     		bx	lr
  41              	.L3:
 943:.\SirenState.c ****     
 944:.\SirenState.c ****     return false;
  42              		.loc 1 944 0
  43 000c 0020     		movs	r0, #0
 945:.\SirenState.c **** }
  44              		.loc 1 945 0
  45 000e 7047     		bx	lr
  46              		.cfi_endproc
  47              	.LFE83:
  48              		.size	isCommand, .-isCommand
  49              		.section	.text.isTrailingTone,"ax",%progbits
  50              		.align	2
  51              		.thumb
  52              		.thumb_func
  53              		.type	isTrailingTone, %function
  54              	isTrailingTone:
  55              	.LFB81:
 896:.\SirenState.c ****     if((thisTone == MANUAL_WAIL) || (thisTone == ECTOSIREN) || isCommand(thisTone))
  56              		.loc 1 896 0
  57              		.cfi_startproc
  58              		@ args = 0, pretend = 0, frame = 0
  59              		@ frame_needed = 0, uses_anonymous_args = 0
  60              	.LVL2:
  61 0000 08B5     		push	{r3, lr}
  62              		.cfi_def_cfa_offset 8
  63              		.cfi_offset 3, -8
  64              		.cfi_offset 14, -4
 897:.\SirenState.c ****         return true;
  65              		.loc 1 897 0
  66 0002 0728     		cmp	r0, #7
  67 0004 07D0     		beq	.L6
 897:.\SirenState.c ****         return true;
  68              		.loc 1 897 0 is_stmt 0 discriminator 1
  69 0006 0E28     		cmp	r0, #14
  70 0008 07D0     		beq	.L7
 897:.\SirenState.c ****         return true;
  71              		.loc 1 897 0 discriminator 2
  72 000a FFF7FEFF 		bl	isCommand
  73              	.LVL3:
  74 000e 0346     		mov	r3, r0
  75 0010 20B1     		cbz	r0, .L5
 898:.\SirenState.c ****     
  76              		.loc 1 898 0 is_stmt 1
ARM GAS  C:\Users\faithc\AppData\Local\Temp\ccWgDYSd.s 			page 19


  77 0012 0123     		movs	r3, #1
  78 0014 02E0     		b	.L5
  79              	.LVL4:
  80              	.L6:
  81 0016 0123     		movs	r3, #1
  82 0018 00E0     		b	.L5
  83              	.L7:
  84 001a 0123     		movs	r3, #1
  85              	.LVL5:
  86              	.L5:
 901:.\SirenState.c **** 
  87              		.loc 1 901 0
  88 001c 1846     		mov	r0, r3
  89 001e 08BD     		pop	{r3, pc}
  90              		.cfi_endproc
  91              	.LFE81:
  92              		.size	isTrailingTone, .-isTrailingTone
  93              		.section	.text.isSong,"ax",%progbits
  94              		.align	2
  95              		.thumb
  96              		.thumb_func
  97              		.type	isSong, %function
  98              	isSong:
  99              	.LFB84:
 946:.\SirenState.c **** 
 947:.\SirenState.c **** /*******************************************************************************
 948:.\SirenState.c **** * Function Name: isSong
 949:.\SirenState.c **** ********************************************************************************
 950:.\SirenState.c **** *
 951:.\SirenState.c **** * Summary:
 952:.\SirenState.c **** *   Determines if the given tone is a song
 953:.\SirenState.c **** *
 954:.\SirenState.c **** * Parameters: 
 955:.\SirenState.c **** *   thisTone: The tone to check
 956:.\SirenState.c **** *
 957:.\SirenState.c **** * Return:
 958:.\SirenState.c **** *   TRUE if a song, FALSE if not a song or invalid input
 959:.\SirenState.c **** *
 960:.\SirenState.c **** *******************************************************************************/
 961:.\SirenState.c **** static uint8 isSong(enum ToneType thisTone)
 962:.\SirenState.c **** {
 100              		.loc 1 962 0
 101              		.cfi_startproc
 102              		@ args = 0, pretend = 0, frame = 0
 103              		@ frame_needed = 0, uses_anonymous_args = 0
 104              		@ link register save eliminated.
 105              	.LVL6:
 963:.\SirenState.c ****     if(thisTone == COPS_SONG)
 106              		.loc 1 963 0
 107 0000 0F28     		cmp	r0, #15
 108 0002 01D1     		bne	.L11
 964:.\SirenState.c ****         return true;
 109              		.loc 1 964 0
 110 0004 0120     		movs	r0, #1
 111              	.LVL7:
 112 0006 7047     		bx	lr
 113              	.LVL8:
ARM GAS  C:\Users\faithc\AppData\Local\Temp\ccWgDYSd.s 			page 20


 114              	.L11:
 965:.\SirenState.c ****     
 966:.\SirenState.c ****     return false;
 115              		.loc 1 966 0
 116 0008 0020     		movs	r0, #0
 117              	.LVL9:
 967:.\SirenState.c **** }
 118              		.loc 1 967 0
 119 000a 7047     		bx	lr
 120              		.cfi_endproc
 121              	.LFE84:
 122              		.size	isSong, .-isSong
 123              		.section	.text.isAudioTone,"ax",%progbits
 124              		.align	2
 125              		.thumb
 126              		.thumb_func
 127              		.type	isAudioTone, %function
 128              	isAudioTone:
 129              	.LFB82:
 918:.\SirenState.c ****     if((thisTone == ECTOSIREN) || isSong(thisTone) || isCommand(thisTone))
 130              		.loc 1 918 0
 131              		.cfi_startproc
 132              		@ args = 0, pretend = 0, frame = 0
 133              		@ frame_needed = 0, uses_anonymous_args = 0
 134              	.LVL10:
 919:.\SirenState.c ****         return true;
 135              		.loc 1 919 0
 136 0000 0E28     		cmp	r0, #14
 137 0002 0BD0     		beq	.L14
 918:.\SirenState.c ****     if((thisTone == ECTOSIREN) || isSong(thisTone) || isCommand(thisTone))
 138              		.loc 1 918 0 discriminator 1
 139 0004 10B5     		push	{r4, lr}
 140              		.cfi_def_cfa_offset 8
 141              		.cfi_offset 4, -8
 142              		.cfi_offset 14, -4
 143 0006 0446     		mov	r4, r0
 919:.\SirenState.c ****         return true;
 144              		.loc 1 919 0 discriminator 1
 145 0008 FFF7FEFF 		bl	isSong
 146              	.LVL11:
 147 000c 48B9     		cbnz	r0, .L15
 919:.\SirenState.c ****         return true;
 148              		.loc 1 919 0 is_stmt 0 discriminator 2
 149 000e 2046     		mov	r0, r4
 150 0010 FFF7FEFF 		bl	isCommand
 151              	.LVL12:
 152 0014 0346     		mov	r3, r0
 153 0016 28B1     		cbz	r0, .L13
 920:.\SirenState.c ****     
 154              		.loc 1 920 0 is_stmt 1
 155 0018 0123     		movs	r3, #1
 156 001a 03E0     		b	.L13
 157              	.LVL13:
 158              	.L14:
 159              		.cfi_def_cfa_offset 0
 160              		.cfi_restore 4
 161              		.cfi_restore 14
ARM GAS  C:\Users\faithc\AppData\Local\Temp\ccWgDYSd.s 			page 21


 162 001c 0123     		movs	r3, #1
 923:.\SirenState.c **** 
 163              		.loc 1 923 0
 164 001e 1846     		mov	r0, r3
 165              	.LVL14:
 166 0020 7047     		bx	lr
 167              	.L15:
 168              		.cfi_def_cfa_offset 8
 169              		.cfi_offset 4, -8
 170              		.cfi_offset 14, -4
 920:.\SirenState.c ****     
 171              		.loc 1 920 0
 172 0022 0123     		movs	r3, #1
 173              	.L13:
 923:.\SirenState.c **** 
 174              		.loc 1 923 0
 175 0024 1846     		mov	r0, r3
 176 0026 10BD     		pop	{r4, pc}
 177              		.cfi_endproc
 178              	.LFE82:
 179              		.size	isAudioTone, .-isAudioTone
 180              		.section	.text.getAlternatingTone,"ax",%progbits
 181              		.align	2
 182              		.thumb
 183              		.thumb_func
 184              		.type	getAlternatingTone, %function
 185              	getAlternatingTone:
 186              	.LFB80:
 868:.\SirenState.c **** 	if((toneSelection == NO_TONE) || isAudioTone(toneSelection) || (toneSelection == TEST_TONE))
 187              		.loc 1 868 0
 188              		.cfi_startproc
 189              		@ args = 0, pretend = 0, frame = 0
 190              		@ frame_needed = 0, uses_anonymous_args = 0
 191              	.LVL15:
 192 0000 10B5     		push	{r4, lr}
 193              		.cfi_def_cfa_offset 8
 194              		.cfi_offset 4, -8
 195              		.cfi_offset 14, -4
 869:.\SirenState.c **** 		return toneSelection;
 196              		.loc 1 869 0
 197 0002 0446     		mov	r4, r0
 198 0004 68B1     		cbz	r0, .L19
 869:.\SirenState.c **** 		return toneSelection;
 199              		.loc 1 869 0 is_stmt 0 discriminator 1
 200 0006 FFF7FEFF 		bl	isAudioTone
 201              	.LVL16:
 202 000a 58B9     		cbnz	r0, .L20
 869:.\SirenState.c **** 		return toneSelection;
 203              		.loc 1 869 0 discriminator 2
 204 000c 162C     		cmp	r4, #22
 205 000e 0BD0     		beq	.L21
 872:.\SirenState.c **** 		return PHASER;
 206              		.loc 1 872 0 is_stmt 1
 207 0010 062C     		cmp	r4, #6
 208 0012 0BD0     		beq	.L22
 872:.\SirenState.c **** 		return PHASER;
 209              		.loc 1 872 0 is_stmt 0 discriminator 1
ARM GAS  C:\Users\faithc\AppData\Local\Temp\ccWgDYSd.s 			page 22


 210 0014 0A2C     		cmp	r4, #10
 211 0016 0BD0     		beq	.L23
 875:.\SirenState.c **** 		return HORN_PHASER;
 212              		.loc 1 875 0 is_stmt 1
 213 0018 0D2C     		cmp	r4, #13
 214 001a 0BD0     		beq	.L24
 878:.\SirenState.c **** }
 215              		.loc 1 878 0
 216 001c 0134     		adds	r4, r4, #1
 217 001e E0B2     		uxtb	r0, r4
 218 0020 10BD     		pop	{r4, pc}
 219              	.LVL17:
 220              	.L19:
 221 0022 10BD     		pop	{r4, pc}
 222              	.LVL18:
 223              	.L20:
 870:.\SirenState.c **** 	
 224              		.loc 1 870 0
 225 0024 2046     		mov	r0, r4
 226 0026 10BD     		pop	{r4, pc}
 227              	.L21:
 228 0028 2046     		mov	r0, r4
 229 002a 10BD     		pop	{r4, pc}
 230              	.L22:
 873:.\SirenState.c **** 	
 231              		.loc 1 873 0
 232 002c 0420     		movs	r0, #4
 233 002e 10BD     		pop	{r4, pc}
 234              	.L23:
 235 0030 0420     		movs	r0, #4
 236 0032 10BD     		pop	{r4, pc}
 237              	.L24:
 876:.\SirenState.c **** 	
 238              		.loc 1 876 0
 239 0034 0B20     		movs	r0, #11
 879:.\SirenState.c **** 
 240              		.loc 1 879 0
 241 0036 10BD     		pop	{r4, pc}
 242              		.cfi_endproc
 243              	.LFE80:
 244              		.size	getAlternatingTone, .-getAlternatingTone
 245              		.section	.text.getBitIndex,"ax",%progbits
 246              		.align	2
 247              		.thumb
 248              		.thumb_func
 249              		.type	getBitIndex, %function
 250              	getBitIndex:
 251              	.LFB85:
 968:.\SirenState.c **** 
 969:.\SirenState.c **** /*******************************************************************************
 970:.\SirenState.c **** * Function Name: getBitIndex
 971:.\SirenState.c **** ********************************************************************************
 972:.\SirenState.c **** *
 973:.\SirenState.c **** * Summary:
 974:.\SirenState.c **** *  Computes the index of a byte based on the mask given. 7 is the most significant bit.
 975:.\SirenState.c **** *
 976:.\SirenState.c **** * Parameters:
ARM GAS  C:\Users\faithc\AppData\Local\Temp\ccWgDYSd.s 			page 23


 977:.\SirenState.c **** *  maskNumber: An 8-bit value with a single bit being set to 1
 978:.\SirenState.c **** *
 979:.\SirenState.c **** * Return:
 980:.\SirenState.c **** *  The index of the set bit ranging 0 - 7
 981:.\SirenState.c **** *
 982:.\SirenState.c **** *******************************************************************************/
 983:.\SirenState.c **** static uint8 getBitIndex(enum BitMask maskNumber)
 984:.\SirenState.c **** {
 252              		.loc 1 984 0
 253              		.cfi_startproc
 254              		@ args = 0, pretend = 0, frame = 0
 255              		@ frame_needed = 0, uses_anonymous_args = 0
 256              		@ link register save eliminated.
 257              	.LVL19:
 985:.\SirenState.c **** 	uint8 indexResult = 0;
 986:.\SirenState.c **** 	
 987:.\SirenState.c **** 	switch(maskNumber)
 258              		.loc 1 987 0
 259 0000 0138     		subs	r0, r0, #1
 260              	.LVL20:
 261 0002 1F28     		cmp	r0, #31
 262 0004 1BD8     		bhi	.L27
 263 0006 DFE800F0 		tbb	[pc, r0]
 264              	.L29:
 265 000a 10       		.byte	(.L28-.L29)/2
 266 000b 1C       		.byte	(.L35-.L29)/2
 267 000c 1A       		.byte	(.L27-.L29)/2
 268 000d 12       		.byte	(.L31-.L29)/2
 269 000e 1A       		.byte	(.L27-.L29)/2
 270 000f 1A       		.byte	(.L27-.L29)/2
 271 0010 1A       		.byte	(.L27-.L29)/2
 272 0011 14       		.byte	(.L32-.L29)/2
 273 0012 1A       		.byte	(.L27-.L29)/2
 274 0013 1A       		.byte	(.L27-.L29)/2
 275 0014 1A       		.byte	(.L27-.L29)/2
 276 0015 1A       		.byte	(.L27-.L29)/2
 277 0016 1A       		.byte	(.L27-.L29)/2
 278 0017 1A       		.byte	(.L27-.L29)/2
 279 0018 1A       		.byte	(.L27-.L29)/2
 280 0019 16       		.byte	(.L33-.L29)/2
 281 001a 1A       		.byte	(.L27-.L29)/2
 282 001b 1A       		.byte	(.L27-.L29)/2
 283 001c 1A       		.byte	(.L27-.L29)/2
 284 001d 1A       		.byte	(.L27-.L29)/2
 285 001e 1A       		.byte	(.L27-.L29)/2
 286 001f 1A       		.byte	(.L27-.L29)/2
 287 0020 1A       		.byte	(.L27-.L29)/2
 288 0021 1A       		.byte	(.L27-.L29)/2
 289 0022 1A       		.byte	(.L27-.L29)/2
 290 0023 1A       		.byte	(.L27-.L29)/2
 291 0024 1A       		.byte	(.L27-.L29)/2
 292 0025 1A       		.byte	(.L27-.L29)/2
 293 0026 1A       		.byte	(.L27-.L29)/2
 294 0027 1A       		.byte	(.L27-.L29)/2
 295 0028 1A       		.byte	(.L27-.L29)/2
 296 0029 18       		.byte	(.L34-.L29)/2
 297              		.p2align 1
ARM GAS  C:\Users\faithc\AppData\Local\Temp\ccWgDYSd.s 			page 24


 298              	.L28:
 988:.\SirenState.c **** 	{
 989:.\SirenState.c **** 		case BIT0:
 990:.\SirenState.c **** 			indexResult = 0;
 299              		.loc 1 990 0
 300 002a 0020     		movs	r0, #0
 301 002c 7047     		bx	lr
 302              	.L31:
 303              	.LVL21:
 991:.\SirenState.c **** 			break;
 992:.\SirenState.c **** 		case BIT1:
 993:.\SirenState.c **** 			indexResult = 1;
 994:.\SirenState.c **** 			break;
 995:.\SirenState.c **** 		case BIT2:
 996:.\SirenState.c **** 			indexResult = 2;
 304              		.loc 1 996 0
 305 002e 0220     		movs	r0, #2
 997:.\SirenState.c **** 			break;
 306              		.loc 1 997 0
 307 0030 7047     		bx	lr
 308              	.LVL22:
 309              	.L32:
 998:.\SirenState.c **** 		case BIT3:
 999:.\SirenState.c **** 			indexResult = 3;
 310              		.loc 1 999 0
 311 0032 0320     		movs	r0, #3
1000:.\SirenState.c **** 			break;
 312              		.loc 1 1000 0
 313 0034 7047     		bx	lr
 314              	.LVL23:
 315              	.L33:
1001:.\SirenState.c **** 		case BIT4:
1002:.\SirenState.c **** 			indexResult = 4;
 316              		.loc 1 1002 0
 317 0036 0420     		movs	r0, #4
1003:.\SirenState.c **** 			break;
 318              		.loc 1 1003 0
 319 0038 7047     		bx	lr
 320              	.LVL24:
 321              	.L34:
1004:.\SirenState.c **** 		case BIT5:
1005:.\SirenState.c **** 			indexResult = 5;
 322              		.loc 1 1005 0
 323 003a 0520     		movs	r0, #5
1006:.\SirenState.c **** 			break;
 324              		.loc 1 1006 0
 325 003c 7047     		bx	lr
 326              	.LVL25:
 327              	.L27:
1007:.\SirenState.c **** 		default:
1008:.\SirenState.c **** 			indexResult = NO_CHANNEL;
 328              		.loc 1 1008 0
 329 003e FF20     		movs	r0, #255
1009:.\SirenState.c **** 			break;
 330              		.loc 1 1009 0
 331 0040 7047     		bx	lr
 332              	.LVL26:
ARM GAS  C:\Users\faithc\AppData\Local\Temp\ccWgDYSd.s 			page 25


 333              	.L35:
 993:.\SirenState.c **** 			break;
 334              		.loc 1 993 0
 335 0042 0120     		movs	r0, #1
 336              	.LVL27:
1010:.\SirenState.c **** 	}
1011:.\SirenState.c **** 	
1012:.\SirenState.c **** 	return indexResult;
1013:.\SirenState.c **** }
 337              		.loc 1 1013 0
 338 0044 7047     		bx	lr
 339              		.cfi_endproc
 340              	.LFE85:
 341              		.size	getBitIndex, .-getBitIndex
 342 0046 00BF     		.section	.text.getHighestPriorityChannel,"ax",%progbits
 343              		.align	2
 344              		.thumb
 345              		.thumb_func
 346              		.type	getHighestPriorityChannel, %function
 347              	getHighestPriorityChannel:
 348              	.LFB79:
 826:.\SirenState.c ****     uint8 modeStatusByte = 0;
 349              		.loc 1 826 0
 350              		.cfi_startproc
 351              		@ args = 0, pretend = 0, frame = 0
 352              		@ frame_needed = 0, uses_anonymous_args = 0
 353              	.LVL28:
 829:.\SirenState.c ****         return NO_CHANNEL;
 354              		.loc 1 829 0
 355 0000 0128     		cmp	r0, #1
 356 0002 1AD8     		bhi	.L40
 826:.\SirenState.c ****     uint8 modeStatusByte = 0;
 357              		.loc 1 826 0
 358 0004 08B5     		push	{r3, lr}
 359              		.cfi_def_cfa_offset 8
 360              		.cfi_offset 3, -8
 361              		.cfi_offset 14, -4
 832:.\SirenState.c ****         modeStatusByte = ModeStatus2_Read();
 362              		.loc 1 832 0
 363 0006 10B1     		cbz	r0, .L38
 833:.\SirenState.c ****     else
 364              		.loc 1 833 0
 365 0008 FFF7FEFF 		bl	ModeStatus2_Read
 366              	.LVL29:
 367 000c 01E0     		b	.L39
 368              	.LVL30:
 369              	.L38:
 835:.\SirenState.c ****     
 370              		.loc 1 835 0
 371 000e FFF7FEFF 		bl	ModeStatus_Read
 372              	.LVL31:
 373              	.L39:
 837:.\SirenState.c ****         return CHANNEL_6;
 374              		.loc 1 837 0
 375 0012 10F0200F 		tst	r0, #32
 376 0016 12D1     		bne	.L41
 839:.\SirenState.c ****         return CHANNEL_5;
ARM GAS  C:\Users\faithc\AppData\Local\Temp\ccWgDYSd.s 			page 26


 377              		.loc 1 839 0
 378 0018 10F0100F 		tst	r0, #16
 379 001c 11D1     		bne	.L42
 841:.\SirenState.c ****         return CHANNEL_4;
 380              		.loc 1 841 0
 381 001e 10F0080F 		tst	r0, #8
 382 0022 10D1     		bne	.L43
 843:.\SirenState.c ****         return CHANNEL_3;    
 383              		.loc 1 843 0
 384 0024 10F0040F 		tst	r0, #4
 385 0028 0FD1     		bne	.L44
 845:.\SirenState.c ****         return CHANNEL_2;
 386              		.loc 1 845 0
 387 002a 10F0020F 		tst	r0, #2
 388 002e 0ED1     		bne	.L45
 847:.\SirenState.c ****         return CHANNEL_1;
 389              		.loc 1 847 0
 390 0030 10F0010F 		tst	r0, #1
 391 0034 0DD0     		beq	.L46
 848:.\SirenState.c ****     
 392              		.loc 1 848 0
 393 0036 0020     		movs	r0, #0
 394              	.LVL32:
 395 0038 08BD     		pop	{r3, pc}
 396              	.LVL33:
 397              	.L40:
 398              		.cfi_def_cfa_offset 0
 399              		.cfi_restore 3
 400              		.cfi_restore 14
 830:.\SirenState.c ****     
 401              		.loc 1 830 0
 402 003a FF20     		movs	r0, #255
 403              	.LVL34:
 851:.\SirenState.c **** 
 404              		.loc 1 851 0
 405 003c 7047     		bx	lr
 406              	.LVL35:
 407              	.L41:
 408              		.cfi_def_cfa_offset 8
 409              		.cfi_offset 3, -8
 410              		.cfi_offset 14, -4
 838:.\SirenState.c ****     if(modeStatusByte & 0x10)
 411              		.loc 1 838 0
 412 003e 0520     		movs	r0, #5
 413              	.LVL36:
 414 0040 08BD     		pop	{r3, pc}
 415              	.LVL37:
 416              	.L42:
 840:.\SirenState.c ****     if(modeStatusByte & 0x08)
 417              		.loc 1 840 0
 418 0042 0420     		movs	r0, #4
 419              	.LVL38:
 420 0044 08BD     		pop	{r3, pc}
 421              	.LVL39:
 422              	.L43:
 842:.\SirenState.c ****     if(modeStatusByte & 0x04)
 423              		.loc 1 842 0
ARM GAS  C:\Users\faithc\AppData\Local\Temp\ccWgDYSd.s 			page 27


 424 0046 0320     		movs	r0, #3
 425              	.LVL40:
 426 0048 08BD     		pop	{r3, pc}
 427              	.LVL41:
 428              	.L44:
 844:.\SirenState.c ****     if(modeStatusByte & 0x02)
 429              		.loc 1 844 0
 430 004a 0220     		movs	r0, #2
 431              	.LVL42:
 432 004c 08BD     		pop	{r3, pc}
 433              	.LVL43:
 434              	.L45:
 846:.\SirenState.c ****     if(modeStatusByte & 0x01)
 435              		.loc 1 846 0
 436 004e 0120     		movs	r0, #1
 437              	.LVL44:
 438 0050 08BD     		pop	{r3, pc}
 439              	.LVL45:
 440              	.L46:
 850:.\SirenState.c **** }
 441              		.loc 1 850 0
 442 0052 FF20     		movs	r0, #255
 443              	.LVL46:
 851:.\SirenState.c **** 
 444              		.loc 1 851 0
 445 0054 08BD     		pop	{r3, pc}
 446              		.cfi_endproc
 447              	.LFE79:
 448              		.size	getHighestPriorityChannel, .-getHighestPriorityChannel
 449 0056 00BF     		.section	.text.enableSpeakersForAudioTone,"ax",%progbits
 450              		.align	2
 451              		.thumb
 452              		.thumb_func
 453              		.type	enableSpeakersForAudioTone, %function
 454              	enableSpeakersForAudioTone:
 455              	.LFB78:
 792:.\SirenState.c **** 	if((bSpeaker != SPEAKER_1) && (bSpeaker != SPEAKER_2))
 456              		.loc 1 792 0
 457              		.cfi_startproc
 458              		@ args = 0, pretend = 0, frame = 0
 459              		@ frame_needed = 0, uses_anonymous_args = 0
 460              	.LVL47:
 793:.\SirenState.c ****         return false;
 461              		.loc 1 793 0
 462 0000 0128     		cmp	r0, #1
 463 0002 1ED8     		bhi	.L50
 796:.\SirenState.c ****         return false;
 464              		.loc 1 796 0
 465 0004 4B1E     		subs	r3, r1, #1
 466 0006 DBB2     		uxtb	r3, r3
 467 0008 152B     		cmp	r3, #21
 468 000a 1CD8     		bhi	.L51
 799:.\SirenState.c ****         return false;
 469              		.loc 1 799 0
 470 000c 012A     		cmp	r2, #1
 471 000e 1CD8     		bhi	.L52
 792:.\SirenState.c **** 	if((bSpeaker != SPEAKER_1) && (bSpeaker != SPEAKER_2))
ARM GAS  C:\Users\faithc\AppData\Local\Temp\ccWgDYSd.s 			page 28


 472              		.loc 1 792 0
 473 0010 70B5     		push	{r4, r5, r6, lr}
 474              		.cfi_def_cfa_offset 16
 475              		.cfi_offset 4, -16
 476              		.cfi_offset 5, -12
 477              		.cfi_offset 6, -8
 478              		.cfi_offset 14, -4
 479 0012 1646     		mov	r6, r2
 480 0014 0D46     		mov	r5, r1
 481 0016 0446     		mov	r4, r0
 802:.\SirenState.c ****     playPWMTone(bSpeaker, NO_TONE, false, false);
 482              		.loc 1 802 0
 483 0018 FFF7FEFF 		bl	deactivateManualWail
 484              	.LVL48:
 803:.\SirenState.c **** 	playAudioTone(bSpeaker, toneSelection, bInputEnable);
 485              		.loc 1 803 0
 486 001c 2046     		mov	r0, r4
 487 001e 0021     		movs	r1, #0
 488 0020 0A46     		mov	r2, r1
 489 0022 0B46     		mov	r3, r1
 490 0024 FFF7FEFF 		bl	playPWMTone
 491              	.LVL49:
 804:.\SirenState.c **** 	PowerAmpOutput1_Write(true);
 492              		.loc 1 804 0
 493 0028 2046     		mov	r0, r4
 494 002a 2946     		mov	r1, r5
 495 002c 3246     		mov	r2, r6
 496 002e FFF7FEFF 		bl	playAudioTone
 497              	.LVL50:
 805:.\SirenState.c **** 	PowerAmpOutput2_Write(true);
 498              		.loc 1 805 0
 499 0032 0120     		movs	r0, #1
 500 0034 FFF7FEFF 		bl	PowerAmpOutput1_Write
 501              	.LVL51:
 806:.\SirenState.c ****     
 502              		.loc 1 806 0
 503 0038 0120     		movs	r0, #1
 504 003a FFF7FEFF 		bl	PowerAmpOutput2_Write
 505              	.LVL52:
 808:.\SirenState.c **** }
 506              		.loc 1 808 0
 507 003e 0120     		movs	r0, #1
 508 0040 70BD     		pop	{r4, r5, r6, pc}
 509              	.LVL53:
 510              	.L50:
 511              		.cfi_def_cfa_offset 0
 512              		.cfi_restore 4
 513              		.cfi_restore 5
 514              		.cfi_restore 6
 515              		.cfi_restore 14
 794:.\SirenState.c ****     
 516              		.loc 1 794 0
 517 0042 0020     		movs	r0, #0
 518              	.LVL54:
 809:.\SirenState.c **** 
 519              		.loc 1 809 0
 520 0044 7047     		bx	lr
ARM GAS  C:\Users\faithc\AppData\Local\Temp\ccWgDYSd.s 			page 29


 521              	.LVL55:
 522              	.L51:
 797:.\SirenState.c ****     
 523              		.loc 1 797 0
 524 0046 0020     		movs	r0, #0
 525              	.LVL56:
 526 0048 7047     		bx	lr
 527              	.LVL57:
 528              	.L52:
 800:.\SirenState.c ****     
 529              		.loc 1 800 0
 530 004a 0020     		movs	r0, #0
 531              	.LVL58:
 532 004c 7047     		bx	lr
 533              		.cfi_endproc
 534              	.LFE78:
 535              		.size	enableSpeakersForAudioTone, .-enableSpeakersForAudioTone
 536 004e 00BF     		.section	.text.enableSpeakerForSirenTone,"ax",%progbits
 537              		.align	2
 538              		.thumb
 539              		.thumb_func
 540              		.type	enableSpeakerForSirenTone, %function
 541              	enableSpeakerForSirenTone:
 542              	.LFB77:
 749:.\SirenState.c **** 	if((bSpeaker != SPEAKER_1) && (bSpeaker != SPEAKER_2))
 543              		.loc 1 749 0
 544              		.cfi_startproc
 545              		@ args = 0, pretend = 0, frame = 0
 546              		@ frame_needed = 0, uses_anonymous_args = 0
 547              	.LVL59:
 750:.\SirenState.c ****         return false;
 548              		.loc 1 750 0
 549 0000 0128     		cmp	r0, #1
 550 0002 21D8     		bhi	.L58
 753:.\SirenState.c ****         return false;
 551              		.loc 1 753 0
 552 0004 1629     		cmp	r1, #22
 553 0006 21D8     		bhi	.L59
 756:.\SirenState.c ****         return false;
 554              		.loc 1 756 0
 555 0008 012A     		cmp	r2, #1
 556 000a 21D8     		bhi	.L60
 749:.\SirenState.c **** 	if((bSpeaker != SPEAKER_1) && (bSpeaker != SPEAKER_2))
 557              		.loc 1 749 0
 558 000c F8B5     		push	{r3, r4, r5, r6, r7, lr}
 559              		.cfi_def_cfa_offset 24
 560              		.cfi_offset 3, -24
 561              		.cfi_offset 4, -20
 562              		.cfi_offset 5, -16
 563              		.cfi_offset 6, -12
 564              		.cfi_offset 7, -8
 565              		.cfi_offset 14, -4
 566 000e 1F46     		mov	r7, r3
 567 0010 1646     		mov	r6, r2
 568 0012 0D46     		mov	r5, r1
 569 0014 0446     		mov	r4, r0
 759:.\SirenState.c ****     playAudioTone(bSpeaker, NO_TONE, false);
ARM GAS  C:\Users\faithc\AppData\Local\Temp\ccWgDYSd.s 			page 30


 570              		.loc 1 759 0
 571 0016 FFF7FEFF 		bl	deactivateAudio
 572              	.LVL60:
 760:.\SirenState.c **** 	playPWMTone(bSpeaker, toneSelection, bInputEnable, bDelay);
 573              		.loc 1 760 0
 574 001a 2046     		mov	r0, r4
 575 001c 0021     		movs	r1, #0
 576 001e 0A46     		mov	r2, r1
 577 0020 FFF7FEFF 		bl	playAudioTone
 578              	.LVL61:
 761:.\SirenState.c **** 	
 579              		.loc 1 761 0
 580 0024 2046     		mov	r0, r4
 581 0026 2946     		mov	r1, r5
 582 0028 3246     		mov	r2, r6
 583 002a 3B46     		mov	r3, r7
 584 002c FFF7FEFF 		bl	playPWMTone
 585              	.LVL62:
 763:.\SirenState.c ****     {
 586              		.loc 1 763 0
 587 0030 85B1     		cbz	r5, .L61
 765:.\SirenState.c ****     		PowerAmpOutput2_Write(true);
 588              		.loc 1 765 0
 589 0032 24B1     		cbz	r4, .L57
 766:.\SirenState.c ****     	else
 590              		.loc 1 766 0
 591 0034 0120     		movs	r0, #1
 592 0036 FFF7FEFF 		bl	PowerAmpOutput2_Write
 593              	.LVL63:
 771:.\SirenState.c **** }
 594              		.loc 1 771 0
 595 003a 0120     		movs	r0, #1
 596 003c F8BD     		pop	{r3, r4, r5, r6, r7, pc}
 597              	.L57:
 768:.\SirenState.c ****     }
 598              		.loc 1 768 0
 599 003e 0120     		movs	r0, #1
 600 0040 FFF7FEFF 		bl	PowerAmpOutput1_Write
 601              	.LVL64:
 771:.\SirenState.c **** }
 602              		.loc 1 771 0
 603 0044 0120     		movs	r0, #1
 604 0046 F8BD     		pop	{r3, r4, r5, r6, r7, pc}
 605              	.LVL65:
 606              	.L58:
 607              		.cfi_def_cfa_offset 0
 608              		.cfi_restore 3
 609              		.cfi_restore 4
 610              		.cfi_restore 5
 611              		.cfi_restore 6
 612              		.cfi_restore 7
 613              		.cfi_restore 14
 751:.\SirenState.c ****     
 614              		.loc 1 751 0
 615 0048 0020     		movs	r0, #0
 616              	.LVL66:
 772:.\SirenState.c **** 
ARM GAS  C:\Users\faithc\AppData\Local\Temp\ccWgDYSd.s 			page 31


 617              		.loc 1 772 0
 618 004a 7047     		bx	lr
 619              	.LVL67:
 620              	.L59:
 754:.\SirenState.c ****     
 621              		.loc 1 754 0
 622 004c 0020     		movs	r0, #0
 623              	.LVL68:
 624 004e 7047     		bx	lr
 625              	.LVL69:
 626              	.L60:
 757:.\SirenState.c ****     
 627              		.loc 1 757 0
 628 0050 0020     		movs	r0, #0
 629              	.LVL70:
 630 0052 7047     		bx	lr
 631              	.LVL71:
 632              	.L61:
 633              		.cfi_def_cfa_offset 24
 634              		.cfi_offset 3, -24
 635              		.cfi_offset 4, -20
 636              		.cfi_offset 5, -16
 637              		.cfi_offset 6, -12
 638              		.cfi_offset 7, -8
 639              		.cfi_offset 14, -4
 771:.\SirenState.c **** }
 640              		.loc 1 771 0
 641 0054 0120     		movs	r0, #1
 772:.\SirenState.c **** 
 642              		.loc 1 772 0
 643 0056 F8BD     		pop	{r3, r4, r5, r6, r7, pc}
 644              		.cfi_endproc
 645              	.LFE77:
 646              		.size	enableSpeakerForSirenTone, .-enableSpeakerForSirenTone
 647              		.section	.text.initializeToneConfigurationList,"ax",%progbits
 648              		.align	2
 649              		.global	initializeToneConfigurationList
 650              		.thumb
 651              		.thumb_func
 652              		.type	initializeToneConfigurationList, %function
 653              	initializeToneConfigurationList:
 654              	.LFB63:
 102:.\SirenState.c ****     uint8 bHasNoTone = false;  
 655              		.loc 1 102 0
 656              		.cfi_startproc
 657              		@ args = 0, pretend = 0, frame = 0
 658              		@ frame_needed = 0, uses_anonymous_args = 0
 659 0000 70B5     		push	{r4, r5, r6, lr}
 660              		.cfi_def_cfa_offset 16
 661              		.cfi_offset 4, -16
 662              		.cfi_offset 5, -12
 663              		.cfi_offset 6, -8
 664              		.cfi_offset 14, -4
 665              	.LVL72:
 108:.\SirenState.c ****     
 666              		.loc 1 108 0
 667 0002 FFF7FEFF 		bl	EEPROM_Start
ARM GAS  C:\Users\faithc\AppData\Local\Temp\ccWgDYSd.s 			page 32


 668              	.LVL73:
 110:.\SirenState.c ****     {   //Check for indices with no tone written to it
 669              		.loc 1 110 0
 670 0006 0025     		movs	r5, #0
 103:.\SirenState.c ****     uint8 bSpeakerIndex = SPEAKER_1;
 671              		.loc 1 103 0
 672 0008 2E46     		mov	r6, r5
 110:.\SirenState.c ****     {   //Check for indices with no tone written to it
 673              		.loc 1 110 0
 674 000a 12E0     		b	.L65
 675              	.LVL74:
 676              	.L67:
 114:.\SirenState.c ****             if(EEPROM_ReadByte(addressIndex) >= TONE_TYPE_LIST_SIZE)
 677              		.loc 1 114 0
 678 000c 05EB4503 		add	r3, r5, r5, lsl #1
 679 0010 5800     		lsls	r0, r3, #1
 680 0012 2044     		add	r0, r0, r4
 681              	.LVL75:
 115:.\SirenState.c ****             {   //Terminate loop after finding first invalid tone
 682              		.loc 1 115 0
 683 0014 80B2     		uxth	r0, r0
 684 0016 FFF7FEFF 		bl	EEPROM_ReadByte
 685              	.LVL76:
 686 001a 1628     		cmp	r0, #22
 687 001c 06D8     		bhi	.L77
 112:.\SirenState.c ****         {
 688              		.loc 1 112 0 discriminator 2
 689 001e 0134     		adds	r4, r4, #1
 690              	.LVL77:
 691 0020 E4B2     		uxtb	r4, r4
 692              	.LVL78:
 693 0022 00E0     		b	.L68
 694              	.LVL79:
 695              	.L78:
 696 0024 0024     		movs	r4, #0
 697              	.L68:
 698              	.LVL80:
 112:.\SirenState.c ****         {
 699              		.loc 1 112 0 is_stmt 0 discriminator 1
 700 0026 052C     		cmp	r4, #5
 701 0028 F0D9     		bls	.L67
 702 002a 00E0     		b	.L66
 703              	.LVL81:
 704              	.L77:
 117:.\SirenState.c ****                 break;
 705              		.loc 1 117 0 is_stmt 1
 706 002c 0126     		movs	r6, #1
 707              	.LVL82:
 708              	.L66:
 110:.\SirenState.c ****     {   //Check for indices with no tone written to it
 709              		.loc 1 110 0 discriminator 2
 710 002e 0135     		adds	r5, r5, #1
 711              	.LVL83:
 712 0030 EDB2     		uxtb	r5, r5
 713              	.LVL84:
 714              	.L65:
 110:.\SirenState.c ****     {   //Check for indices with no tone written to it
ARM GAS  C:\Users\faithc\AppData\Local\Temp\ccWgDYSd.s 			page 33


 715              		.loc 1 110 0 is_stmt 0 discriminator 1
 716 0032 012D     		cmp	r5, #1
 717 0034 F6D9     		bls	.L78
 123:.\SirenState.c ****     {   //Write to EEPROM 
 718              		.loc 1 123 0 is_stmt 1
 719 0036 26B9     		cbnz	r6, .L69
 123:.\SirenState.c ****     {   //Write to EEPROM 
 720              		.loc 1 123 0 is_stmt 0 discriminator 1
 721 0038 FF20     		movs	r0, #255
 722 003a FFF7FEFF 		bl	EEPROM_ReadByte
 723              	.LVL85:
 724 003e AA28     		cmp	r0, #170
 725 0040 1AD0     		beq	.L70
 726              	.L69:
 125:.\SirenState.c ****         
 727              		.loc 1 125 0 is_stmt 1
 728 0042 FFF7FEFF 		bl	EEPROM_UpdateTemperature
 729              	.LVL86:
 127:.\SirenState.c ****         {   //Obtain tones from EEPROM to configure channels
 730              		.loc 1 127 0
 731 0046 0025     		movs	r5, #0
 732 0048 10E0     		b	.L71
 733              	.LVL87:
 734              	.L72:
 131:.\SirenState.c ****                 EEPROM_WriteByte(DEFAULT_CONFIGURATION_LIST[addressIndex], addressIndex);
 735              		.loc 1 131 0 discriminator 3
 736 004a 05EB4503 		add	r3, r5, r5, lsl #1
 737 004e 5900     		lsls	r1, r3, #1
 738 0050 2144     		add	r1, r1, r4
 739 0052 89B2     		uxth	r1, r1
 740              	.LVL88:
 132:.\SirenState.c ****             }
 741              		.loc 1 132 0 discriminator 3
 742 0054 154B     		ldr	r3, .L82
 743 0056 585C     		ldrb	r0, [r3, r1]	@ zero_extendqisi2
 744 0058 FFF7FEFF 		bl	EEPROM_WriteByte
 745              	.LVL89:
 129:.\SirenState.c ****             {
 746              		.loc 1 129 0 discriminator 3
 747 005c 0134     		adds	r4, r4, #1
 748              	.LVL90:
 749 005e E4B2     		uxtb	r4, r4
 750              	.LVL91:
 751 0060 00E0     		b	.L73
 752              	.LVL92:
 753              	.L79:
 754 0062 0024     		movs	r4, #0
 755              	.L73:
 756              	.LVL93:
 129:.\SirenState.c ****             {
 757              		.loc 1 129 0 is_stmt 0 discriminator 1
 758 0064 052C     		cmp	r4, #5
 759 0066 F0D9     		bls	.L72
 127:.\SirenState.c ****         {   //Obtain tones from EEPROM to configure channels
 760              		.loc 1 127 0 is_stmt 1 discriminator 2
 761 0068 0135     		adds	r5, r5, #1
 762              	.LVL94:
ARM GAS  C:\Users\faithc\AppData\Local\Temp\ccWgDYSd.s 			page 34


 763 006a EDB2     		uxtb	r5, r5
 764              	.LVL95:
 765              	.L71:
 127:.\SirenState.c ****         {   //Obtain tones from EEPROM to configure channels
 766              		.loc 1 127 0 is_stmt 0 discriminator 1
 767 006c 012D     		cmp	r5, #1
 768 006e F8D9     		bls	.L79
 136:.\SirenState.c ****     }
 769              		.loc 1 136 0 is_stmt 1
 770 0070 AA20     		movs	r0, #170
 771 0072 FF21     		movs	r1, #255
 772 0074 FFF7FEFF 		bl	EEPROM_WriteByte
 773              	.LVL96:
 774              	.L70:
 775 0078 0025     		movs	r5, #0
 776              	.LVL97:
 777 007a 14E0     		b	.L74
 778              	.LVL98:
 779              	.L75:
 143:.\SirenState.c ****             toneConfigurationList[bSpeakerIndex][channelIndex] = EEPROM_ReadByte(addressIndex);
 780              		.loc 1 143 0 discriminator 3
 781 007c 05EB4503 		add	r3, r5, r5, lsl #1
 782 0080 5800     		lsls	r0, r3, #1
 783 0082 2044     		add	r0, r0, r4
 784              	.LVL99:
 144:.\SirenState.c ****         }
 785              		.loc 1 144 0 discriminator 3
 786 0084 80B2     		uxth	r0, r0
 787 0086 FFF7FEFF 		bl	EEPROM_ReadByte
 788              	.LVL100:
 789 008a 05EB4503 		add	r3, r5, r5, lsl #1
 790              	.LVL101:
 791 008e 5B00     		lsls	r3, r3, #1
 792              	.LVL102:
 793 0090 2344     		add	r3, r3, r4
 794              	.LVL103:
 795 0092 074A     		ldr	r2, .L82+4
 796 0094 D054     		strb	r0, [r2, r3]
 141:.\SirenState.c ****         {
 797              		.loc 1 141 0 discriminator 3
 798 0096 0134     		adds	r4, r4, #1
 799              	.LVL104:
 800 0098 E4B2     		uxtb	r4, r4
 801              	.LVL105:
 802 009a 00E0     		b	.L76
 803              	.LVL106:
 804              	.L80:
 805 009c 0024     		movs	r4, #0
 806              	.L76:
 807              	.LVL107:
 141:.\SirenState.c ****         {
 808              		.loc 1 141 0 is_stmt 0 discriminator 1
 809 009e 052C     		cmp	r4, #5
 810 00a0 ECD9     		bls	.L75
 139:.\SirenState.c ****     {   //Obtain tones from EEPROM to configure channels
 811              		.loc 1 139 0 is_stmt 1 discriminator 2
 812 00a2 0135     		adds	r5, r5, #1
ARM GAS  C:\Users\faithc\AppData\Local\Temp\ccWgDYSd.s 			page 35


 813              	.LVL108:
 814 00a4 EDB2     		uxtb	r5, r5
 815              	.LVL109:
 816              	.L74:
 139:.\SirenState.c ****     {   //Obtain tones from EEPROM to configure channels
 817              		.loc 1 139 0 is_stmt 0 discriminator 1
 818 00a6 012D     		cmp	r5, #1
 819 00a8 F8D9     		bls	.L80
 147:.\SirenState.c **** 
 820              		.loc 1 147 0 is_stmt 1
 821 00aa 70BD     		pop	{r4, r5, r6, pc}
 822              	.LVL110:
 823              	.L83:
 824              		.align	2
 825              	.L82:
 826 00ac 00000000 		.word	.LANCHOR0
 827 00b0 00000000 		.word	.LANCHOR1
 828              		.cfi_endproc
 829              	.LFE63:
 830              		.size	initializeToneConfigurationList, .-initializeToneConfigurationList
 831              		.section	.text.enableToneInputInterrupts,"ax",%progbits
 832              		.align	2
 833              		.global	enableToneInputInterrupts
 834              		.thumb
 835              		.thumb_func
 836              		.type	enableToneInputInterrupts, %function
 837              	enableToneInputInterrupts:
 838              	.LFB64:
 164:.\SirenState.c ****     TackSwitchISR_Start();
 839              		.loc 1 164 0
 840              		.cfi_startproc
 841              		@ args = 0, pretend = 0, frame = 0
 842              		@ frame_needed = 0, uses_anonymous_args = 0
 843 0000 08B5     		push	{r3, lr}
 844              		.cfi_def_cfa_offset 8
 845              		.cfi_offset 3, -8
 846              		.cfi_offset 14, -4
 165:.\SirenState.c ****     TackSwitchStatus_InterruptEnable();
 847              		.loc 1 165 0
 848 0002 FFF7FEFF 		bl	TackSwitchISR_Start
 849              	.LVL111:
 166:.\SirenState.c ****     
 850              		.loc 1 166 0
 851 0006 FFF7FEFF 		bl	TackSwitchStatus_InterruptEnable
 852              	.LVL112:
 168:.\SirenState.c ****     DualDelayStatus_InterruptEnable();
 853              		.loc 1 168 0
 854 000a FFF7FEFF 		bl	DualDelayISR_Start
 855              	.LVL113:
 169:.\SirenState.c ****     
 856              		.loc 1 169 0
 857 000e FFF7FEFF 		bl	DualDelayStatus_InterruptEnable
 858              	.LVL114:
 171:.\SirenState.c **** }
 859              		.loc 1 171 0
 860 0012 FFF7FEFF 		bl	ModeStatusISR_Start
 861              	.LVL115:
ARM GAS  C:\Users\faithc\AppData\Local\Temp\ccWgDYSd.s 			page 36


 862 0016 08BD     		pop	{r3, pc}
 863              		.cfi_endproc
 864              	.LFE64:
 865              		.size	enableToneInputInterrupts, .-enableToneInputInterrupts
 866              		.section	.text.disableToneInputInterrupts,"ax",%progbits
 867              		.align	2
 868              		.global	disableToneInputInterrupts
 869              		.thumb
 870              		.thumb_func
 871              		.type	disableToneInputInterrupts, %function
 872              	disableToneInputInterrupts:
 873              	.LFB65:
 189:.\SirenState.c ****     TackSwitchStatus_InterruptDisable();
 874              		.loc 1 189 0
 875              		.cfi_startproc
 876              		@ args = 0, pretend = 0, frame = 0
 877              		@ frame_needed = 0, uses_anonymous_args = 0
 878 0000 08B5     		push	{r3, lr}
 879              		.cfi_def_cfa_offset 8
 880              		.cfi_offset 3, -8
 881              		.cfi_offset 14, -4
 190:.\SirenState.c ****     TackSwitchISR_Stop();
 882              		.loc 1 190 0
 883 0002 FFF7FEFF 		bl	TackSwitchStatus_InterruptDisable
 884              	.LVL116:
 191:.\SirenState.c ****     
 885              		.loc 1 191 0
 886 0006 FFF7FEFF 		bl	TackSwitchISR_Stop
 887              	.LVL117:
 193:.\SirenState.c ****     DualDelayISR_Stop();
 888              		.loc 1 193 0
 889 000a FFF7FEFF 		bl	DualDelayStatus_InterruptDisable
 890              	.LVL118:
 194:.\SirenState.c ****     
 891              		.loc 1 194 0
 892 000e FFF7FEFF 		bl	DualDelayISR_Stop
 893              	.LVL119:
 196:.\SirenState.c **** }
 894              		.loc 1 196 0
 895 0012 FFF7FEFF 		bl	ModeStatusISR_Stop
 896              	.LVL120:
 897 0016 08BD     		pop	{r3, pc}
 898              		.cfi_endproc
 899              	.LFE65:
 900              		.size	disableToneInputInterrupts, .-disableToneInputInterrupts
 901              		.section	.text.disableAudioAndPWM,"ax",%progbits
 902              		.align	2
 903              		.global	disableAudioAndPWM
 904              		.thumb
 905              		.thumb_func
 906              		.type	disableAudioAndPWM, %function
 907              	disableAudioAndPWM:
 908              	.LFB74:
 524:.\SirenState.c **** 	stopPWMTone(SPEAKER_1);
 909              		.loc 1 524 0
 910              		.cfi_startproc
 911              		@ args = 0, pretend = 0, frame = 0
ARM GAS  C:\Users\faithc\AppData\Local\Temp\ccWgDYSd.s 			page 37


 912              		@ frame_needed = 0, uses_anonymous_args = 0
 913 0000 08B5     		push	{r3, lr}
 914              		.cfi_def_cfa_offset 8
 915              		.cfi_offset 3, -8
 916              		.cfi_offset 14, -4
 525:.\SirenState.c ****     stopPWMTone(SPEAKER_2);
 917              		.loc 1 525 0
 918 0002 0020     		movs	r0, #0
 919 0004 FFF7FEFF 		bl	stopPWMTone
 920              	.LVL121:
 526:.\SirenState.c ****     stopAudioTone(SPEAKER_1);
 921              		.loc 1 526 0
 922 0008 0120     		movs	r0, #1
 923 000a FFF7FEFF 		bl	stopPWMTone
 924              	.LVL122:
 527:.\SirenState.c ****     stopAudioTone(SPEAKER_2);
 925              		.loc 1 527 0
 926 000e 0020     		movs	r0, #0
 927 0010 FFF7FEFF 		bl	stopAudioTone
 928              	.LVL123:
 528:.\SirenState.c **** }
 929              		.loc 1 528 0
 930 0014 0120     		movs	r0, #1
 931 0016 FFF7FEFF 		bl	stopAudioTone
 932              	.LVL124:
 933 001a 08BD     		pop	{r3, pc}
 934              		.cfi_endproc
 935              	.LFE74:
 936              		.size	disableAudioAndPWM, .-disableAudioAndPWM
 937              		.section	.text.disableBothSpeakers,"ax",%progbits
 938              		.align	2
 939              		.global	disableBothSpeakers
 940              		.thumb
 941              		.thumb_func
 942              		.type	disableBothSpeakers, %function
 943              	disableBothSpeakers:
 944              	.LFB75:
 547:.\SirenState.c **** 	deactivateManualWail();
 945              		.loc 1 547 0
 946              		.cfi_startproc
 947              		@ args = 0, pretend = 0, frame = 0
 948              		@ frame_needed = 0, uses_anonymous_args = 0
 949 0000 08B5     		push	{r3, lr}
 950              		.cfi_def_cfa_offset 8
 951              		.cfi_offset 3, -8
 952              		.cfi_offset 14, -4
 548:.\SirenState.c **** 	deactivateAudio();
 953              		.loc 1 548 0
 954 0002 FFF7FEFF 		bl	deactivateManualWail
 955              	.LVL125:
 549:.\SirenState.c **** 	PowerAmpOutput1_Write(false);
 956              		.loc 1 549 0
 957 0006 FFF7FEFF 		bl	deactivateAudio
 958              	.LVL126:
 550:.\SirenState.c **** 	PowerAmpOutput2_Write(false);
 959              		.loc 1 550 0
 960 000a 0020     		movs	r0, #0
ARM GAS  C:\Users\faithc\AppData\Local\Temp\ccWgDYSd.s 			page 38


 961 000c FFF7FEFF 		bl	PowerAmpOutput1_Write
 962              	.LVL127:
 551:.\SirenState.c ****     playAudioTone(SPEAKER_1, NO_TONE, false);
 963              		.loc 1 551 0
 964 0010 0020     		movs	r0, #0
 965 0012 FFF7FEFF 		bl	PowerAmpOutput2_Write
 966              	.LVL128:
 552:.\SirenState.c ****     playAudioTone(SPEAKER_2, NO_TONE, false);
 967              		.loc 1 552 0
 968 0016 0020     		movs	r0, #0
 969 0018 0146     		mov	r1, r0
 970 001a 0246     		mov	r2, r0
 971 001c FFF7FEFF 		bl	playAudioTone
 972              	.LVL129:
 553:.\SirenState.c ****     playPWMTone(SPEAKER_1, NO_TONE, false, false);
 973              		.loc 1 553 0
 974 0020 0120     		movs	r0, #1
 975 0022 0021     		movs	r1, #0
 976 0024 0A46     		mov	r2, r1
 977 0026 FFF7FEFF 		bl	playAudioTone
 978              	.LVL130:
 554:.\SirenState.c ****     playPWMTone(SPEAKER_2, NO_TONE, false, false);
 979              		.loc 1 554 0
 980 002a 0020     		movs	r0, #0
 981 002c 0146     		mov	r1, r0
 982 002e 0246     		mov	r2, r0
 983 0030 0346     		mov	r3, r0
 984 0032 FFF7FEFF 		bl	playPWMTone
 985              	.LVL131:
 555:.\SirenState.c **** }
 986              		.loc 1 555 0
 987 0036 0120     		movs	r0, #1
 988 0038 0021     		movs	r1, #0
 989 003a 0A46     		mov	r2, r1
 990 003c 0B46     		mov	r3, r1
 991 003e FFF7FEFF 		bl	playPWMTone
 992              	.LVL132:
 993 0042 08BD     		pop	{r3, pc}
 994              		.cfi_endproc
 995              	.LFE75:
 996              		.size	disableBothSpeakers, .-disableBothSpeakers
 997              		.section	.text.decideTonesToPlay,"ax",%progbits
 998              		.align	2
 999              		.thumb
 1000              		.thumb_func
 1001              		.type	decideTonesToPlay, %function
 1002              	decideTonesToPlay:
 1003              	.LFB76:
 573:.\SirenState.c **** 	static uint8 bToneChangeOnHornRing = false;
 1004              		.loc 1 573 0
 1005              		.cfi_startproc
 1006              		@ args = 0, pretend = 0, frame = 0
 1007              		@ frame_needed = 0, uses_anonymous_args = 0
 1008 0000 38B5     		push	{r3, r4, r5, lr}
 1009              		.cfi_def_cfa_offset 16
 1010              		.cfi_offset 3, -16
 1011              		.cfi_offset 4, -12
ARM GAS  C:\Users\faithc\AppData\Local\Temp\ccWgDYSd.s 			page 39


 1012              		.cfi_offset 5, -8
 1013              		.cfi_offset 14, -4
 576:.\SirenState.c ****     
 1014              		.loc 1 576 0
 1015 0002 FFF7FEFF 		bl	disableAudioAndPWM
 1016              	.LVL133:
 578:.\SirenState.c ****         return;	
 1017              		.loc 1 578 0
 1018 0006 9F4B     		ldr	r3, .L122
 1019 0008 1B7B     		ldrb	r3, [r3, #12]	@ zero_extendqisi2
 1020 000a 002B     		cmp	r3, #0
 1021 000c 40F03881 		bne	.L92
 581:.\SirenState.c **** 	{
 1022              		.loc 1 581 0
 1023 0010 9C4B     		ldr	r3, .L122
 1024 0012 9C7D     		ldrb	r4, [r3, #22]	@ zero_extendqisi2
 1025 0014 002C     		cmp	r4, #0
 1026 0016 00F08580 		beq	.L94
 583:.\SirenState.c **** 		{
 1027              		.loc 1 583 0
 1028 001a 2046     		mov	r0, r4
 1029 001c FFF7FEFF 		bl	isAudioTone
 1030              	.LVL134:
 1031 0020 A8B1     		cbz	r0, .L95
 585:.\SirenState.c **** 			{
 1032              		.loc 1 585 0
 1033 0022 2046     		mov	r0, r4
 1034 0024 FFF7FEFF 		bl	isSong
 1035              	.LVL135:
 1036 0028 58B1     		cbz	r0, .L96
 587:.\SirenState.c **** 					enableSpeakersForAudioTone(SPEAKER_1, ToneStatus.currentTone[SPEAKER_1], true);
 1037              		.loc 1 587 0
 1038 002a 964B     		ldr	r3, .L122
 1039 002c 1B7E     		ldrb	r3, [r3, #24]	@ zero_extendqisi2
 1040 002e 2BB1     		cbz	r3, .L97
 588:.\SirenState.c **** 				else	//Plays NO TONE
 1041              		.loc 1 588 0
 1042 0030 0020     		movs	r0, #0
 1043 0032 2146     		mov	r1, r4
 1044 0034 0122     		movs	r2, #1
 1045 0036 FFF7FEFF 		bl	enableSpeakersForAudioTone
 1046              	.LVL136:
 1047 003a 38BD     		pop	{r3, r4, r5, pc}
 1048              	.L97:
 590:.\SirenState.c **** 				
 1049              		.loc 1 590 0
 1050 003c FFF7FEFF 		bl	disableBothSpeakers
 1051              	.LVL137:
 1052 0040 38BD     		pop	{r3, r4, r5, pc}
 1053              	.L96:
 594:.\SirenState.c **** 		}
 1054              		.loc 1 594 0
 1055 0042 0020     		movs	r0, #0
 1056 0044 2146     		mov	r1, r4
 1057 0046 0122     		movs	r2, #1
 1058 0048 FFF7FEFF 		bl	enableSpeakersForAudioTone
 1059              	.LVL138:
ARM GAS  C:\Users\faithc\AppData\Local\Temp\ccWgDYSd.s 			page 40


 1060 004c 38BD     		pop	{r3, r4, r5, pc}
 1061              	.L95:
 598:.\SirenState.c ****     		{
 1062              		.loc 1 598 0
 1063 004e 8D4B     		ldr	r3, .L122
 1064 0050 DD7D     		ldrb	r5, [r3, #23]	@ zero_extendqisi2
 1065 0052 2846     		mov	r0, r5
 1066 0054 FFF7FEFF 		bl	isAudioTone
 1067              	.LVL139:
 1068 0058 A8B1     		cbz	r0, .L98
 600:.\SirenState.c ****     			{
 1069              		.loc 1 600 0
 1070 005a 2846     		mov	r0, r5
 1071 005c FFF7FEFF 		bl	isSong
 1072              	.LVL140:
 1073 0060 58B1     		cbz	r0, .L99
 602:.\SirenState.c ****     					enableSpeakersForAudioTone(SPEAKER_2, ToneStatus.currentTone[SPEAKER_2], true);
 1074              		.loc 1 602 0
 1075 0062 884B     		ldr	r3, .L122
 1076 0064 5B7E     		ldrb	r3, [r3, #25]	@ zero_extendqisi2
 1077 0066 2BB1     		cbz	r3, .L100
 603:.\SirenState.c ****     				else	//Plays NO TONE
 1078              		.loc 1 603 0
 1079 0068 0120     		movs	r0, #1
 1080 006a 2946     		mov	r1, r5
 1081 006c 0246     		mov	r2, r0
 1082 006e FFF7FEFF 		bl	enableSpeakersForAudioTone
 1083              	.LVL141:
 1084 0072 38BD     		pop	{r3, r4, r5, pc}
 1085              	.L100:
 605:.\SirenState.c ****     				
 1086              		.loc 1 605 0
 1087 0074 FFF7FEFF 		bl	disableBothSpeakers
 1088              	.LVL142:
 1089 0078 38BD     		pop	{r3, r4, r5, pc}
 1090              	.L99:
 609:.\SirenState.c ****     		}
 1091              		.loc 1 609 0
 1092 007a 0120     		movs	r0, #1
 1093 007c 2946     		mov	r1, r5
 1094 007e 0246     		mov	r2, r0
 1095 0080 FFF7FEFF 		bl	enableSpeakersForAudioTone
 1096              	.LVL143:
 1097 0084 38BD     		pop	{r3, r4, r5, pc}
 1098              	.L98:
 611:.\SirenState.c **** 				disableBothSpeakers();
 1099              		.loc 1 611 0
 1100 0086 7F4B     		ldr	r3, .L122
 1101 0088 5B7B     		ldrb	r3, [r3, #13]	@ zero_extendqisi2
 1102 008a 13B1     		cbz	r3, .L101
 612:.\SirenState.c **** 			else if(InputRead.bHornRing)
 1103              		.loc 1 612 0
 1104 008c FFF7FEFF 		bl	disableBothSpeakers
 1105              	.LVL144:
 1106 0090 38BD     		pop	{r3, r4, r5, pc}
 1107              	.L101:
 613:.\SirenState.c **** 			{	//Plays NO TONE
ARM GAS  C:\Users\faithc\AppData\Local\Temp\ccWgDYSd.s 			page 41


 1108              		.loc 1 613 0
 1109 0092 7C4B     		ldr	r3, .L122
 1110 0094 DB7B     		ldrb	r3, [r3, #15]	@ zero_extendqisi2
 1111 0096 43B1     		cbz	r3, .L102
 615:.\SirenState.c **** 				disableBothSpeakers();
 1112              		.loc 1 615 0
 1113 0098 7A4A     		ldr	r2, .L122
 1114 009a D37E     		ldrb	r3, [r2, #27]	@ zero_extendqisi2
 1115 009c B3FA83F3 		clz	r3, r3
 1116 00a0 5B09     		lsrs	r3, r3, #5
 1117 00a2 D376     		strb	r3, [r2, #27]
 616:.\SirenState.c **** 			}
 1118              		.loc 1 616 0
 1119 00a4 FFF7FEFF 		bl	disableBothSpeakers
 1120              	.LVL145:
 1121 00a8 38BD     		pop	{r3, r4, r5, pc}
 1122              	.L102:
 618:.\SirenState.c **** 			{	//Plays SPEAKER 1 SIREN TONE
 1123              		.loc 1 618 0
 1124 00aa 764B     		ldr	r3, .L122
 1125 00ac DB7E     		ldrb	r3, [r3, #27]	@ zero_extendqisi2
 1126 00ae FBB1     		cbz	r3, .L103
 620:.\SirenState.c ****                     true, ToneStatus.bDualDelayEnable);
 1127              		.loc 1 620 0
 1128 00b0 2046     		mov	r0, r4
 1129 00b2 FFF7FEFF 		bl	getAlternatingTone
 1130              	.LVL146:
 1131 00b6 0146     		mov	r1, r0
 1132 00b8 724C     		ldr	r4, .L122
 1133 00ba 0020     		movs	r0, #0
 1134 00bc 0122     		movs	r2, #1
 1135 00be A37E     		ldrb	r3, [r4, #26]	@ zero_extendqisi2
 1136 00c0 FFF7FEFF 		bl	enableSpeakerForSirenTone
 1137              	.LVL147:
 623:.\SirenState.c **** 					enableSpeakerForSirenTone(SPEAKER_2, getAlternatingTone(ToneStatus.currentTone[SPEAKER_2]), 
 1138              		.loc 1 623 0
 1139 00c4 E07D     		ldrb	r0, [r4, #23]	@ zero_extendqisi2
 1140 00c6 40B1     		cbz	r0, .L104
 624:.\SirenState.c ****                         true, ToneStatus.bDualDelayEnable);
 1141              		.loc 1 624 0
 1142 00c8 FFF7FEFF 		bl	getAlternatingTone
 1143              	.LVL148:
 1144 00cc 0146     		mov	r1, r0
 1145 00ce 0120     		movs	r0, #1
 1146 00d0 0246     		mov	r2, r0
 1147 00d2 A37E     		ldrb	r3, [r4, #26]	@ zero_extendqisi2
 1148 00d4 FFF7FEFF 		bl	enableSpeakerForSirenTone
 1149              	.LVL149:
 1150 00d8 38BD     		pop	{r3, r4, r5, pc}
 1151              	.L104:
 628:.\SirenState.c ****                     enableSpeakerForSirenTone(SPEAKER_2, NO_TONE, false, ToneStatus.bDualDelayEnabl
 1152              		.loc 1 628 0
 1153 00da 0020     		movs	r0, #0
 1154 00dc FFF7FEFF 		bl	PowerAmpOutput2_Write
 1155              	.LVL150:
 629:.\SirenState.c ****                 }
 1156              		.loc 1 629 0
ARM GAS  C:\Users\faithc\AppData\Local\Temp\ccWgDYSd.s 			page 42


 1157 00e0 0120     		movs	r0, #1
 1158 00e2 0021     		movs	r1, #0
 1159 00e4 0A46     		mov	r2, r1
 1160 00e6 674B     		ldr	r3, .L122
 1161 00e8 9B7E     		ldrb	r3, [r3, #26]	@ zero_extendqisi2
 1162 00ea FFF7FEFF 		bl	enableSpeakerForSirenTone
 1163              	.LVL151:
 1164 00ee 38BD     		pop	{r3, r4, r5, pc}
 1165              	.L103:
 634:.\SirenState.c ****                     true, ToneStatus.bDualDelayEnable);
 1166              		.loc 1 634 0
 1167 00f0 644D     		ldr	r5, .L122
 1168 00f2 0020     		movs	r0, #0
 1169 00f4 2146     		mov	r1, r4
 1170 00f6 0122     		movs	r2, #1
 1171 00f8 AB7E     		ldrb	r3, [r5, #26]	@ zero_extendqisi2
 1172 00fa FFF7FEFF 		bl	enableSpeakerForSirenTone
 1173              	.LVL152:
 637:.\SirenState.c **** 					enableSpeakerForSirenTone(SPEAKER_2, ToneStatus.currentTone[SPEAKER_2],
 1174              		.loc 1 637 0
 1175 00fe E97D     		ldrb	r1, [r5, #23]	@ zero_extendqisi2
 1176 0100 29B1     		cbz	r1, .L105
 638:.\SirenState.c ****                         true, ToneStatus.bDualDelayEnable);
 1177              		.loc 1 638 0
 1178 0102 0120     		movs	r0, #1
 1179 0104 0246     		mov	r2, r0
 1180 0106 AB7E     		ldrb	r3, [r5, #26]	@ zero_extendqisi2
 1181 0108 FFF7FEFF 		bl	enableSpeakerForSirenTone
 1182              	.LVL153:
 1183 010c 38BD     		pop	{r3, r4, r5, pc}
 1184              	.L105:
 642:.\SirenState.c ****                     enableSpeakerForSirenTone(SPEAKER_2, NO_TONE, false, ToneStatus.bDualDelayEnabl
 1185              		.loc 1 642 0
 1186 010e 0020     		movs	r0, #0
 1187 0110 FFF7FEFF 		bl	PowerAmpOutput2_Write
 1188              	.LVL154:
 643:.\SirenState.c ****                 }
 1189              		.loc 1 643 0
 1190 0114 0120     		movs	r0, #1
 1191 0116 0021     		movs	r1, #0
 1192 0118 0A46     		mov	r2, r1
 1193 011a 5A4B     		ldr	r3, .L122
 1194 011c 9B7E     		ldrb	r3, [r3, #26]	@ zero_extendqisi2
 1195 011e FFF7FEFF 		bl	enableSpeakerForSirenTone
 1196              	.LVL155:
 1197 0122 38BD     		pop	{r3, r4, r5, pc}
 1198              	.L94:
 648:.\SirenState.c **** 	{
 1199              		.loc 1 648 0
 1200 0124 574B     		ldr	r3, .L122
 1201 0126 DC7D     		ldrb	r4, [r3, #23]	@ zero_extendqisi2
 1202 0128 002C     		cmp	r4, #0
 1203 012a 53D0     		beq	.L106
 650:.\SirenState.c **** 		{
 1204              		.loc 1 650 0
 1205 012c 2046     		mov	r0, r4
 1206 012e FFF7FEFF 		bl	isAudioTone
ARM GAS  C:\Users\faithc\AppData\Local\Temp\ccWgDYSd.s 			page 43


 1207              	.LVL156:
 1208 0132 A8B1     		cbz	r0, .L107
 652:.\SirenState.c **** 			{
 1209              		.loc 1 652 0
 1210 0134 2046     		mov	r0, r4
 1211 0136 FFF7FEFF 		bl	isSong
 1212              	.LVL157:
 1213 013a 58B1     		cbz	r0, .L108
 654:.\SirenState.c **** 					enableSpeakersForAudioTone(SPEAKER_2, ToneStatus.currentTone[SPEAKER_2], true);
 1214              		.loc 1 654 0
 1215 013c 514B     		ldr	r3, .L122
 1216 013e 5B7E     		ldrb	r3, [r3, #25]	@ zero_extendqisi2
 1217 0140 2BB1     		cbz	r3, .L109
 655:.\SirenState.c **** 				else	//Plays NO TONE
 1218              		.loc 1 655 0
 1219 0142 0120     		movs	r0, #1
 1220 0144 2146     		mov	r1, r4
 1221 0146 0246     		mov	r2, r0
 1222 0148 FFF7FEFF 		bl	enableSpeakersForAudioTone
 1223              	.LVL158:
 1224 014c 38BD     		pop	{r3, r4, r5, pc}
 1225              	.L109:
 657:.\SirenState.c **** 				
 1226              		.loc 1 657 0
 1227 014e FFF7FEFF 		bl	disableBothSpeakers
 1228              	.LVL159:
 1229 0152 38BD     		pop	{r3, r4, r5, pc}
 1230              	.L108:
 661:.\SirenState.c **** 		}
 1231              		.loc 1 661 0
 1232 0154 0120     		movs	r0, #1
 1233 0156 2146     		mov	r1, r4
 1234 0158 0246     		mov	r2, r0
 1235 015a FFF7FEFF 		bl	enableSpeakersForAudioTone
 1236              	.LVL160:
 1237 015e 38BD     		pop	{r3, r4, r5, pc}
 1238              	.L107:
 665:.\SirenState.c **** 				disableBothSpeakers();
 1239              		.loc 1 665 0
 1240 0160 484B     		ldr	r3, .L122
 1241 0162 5B7B     		ldrb	r3, [r3, #13]	@ zero_extendqisi2
 1242 0164 13B1     		cbz	r3, .L110
 666:.\SirenState.c **** 			else if(InputRead.bHornRing)
 1243              		.loc 1 666 0
 1244 0166 FFF7FEFF 		bl	disableBothSpeakers
 1245              	.LVL161:
 1246 016a 38BD     		pop	{r3, r4, r5, pc}
 1247              	.L110:
 667:.\SirenState.c **** 			{	//Plays NO TONE
 1248              		.loc 1 667 0
 1249 016c 454B     		ldr	r3, .L122
 1250 016e DB7B     		ldrb	r3, [r3, #15]	@ zero_extendqisi2
 1251 0170 43B1     		cbz	r3, .L111
 669:.\SirenState.c **** 				disableBothSpeakers();
 1252              		.loc 1 669 0
 1253 0172 444A     		ldr	r2, .L122
 1254 0174 D37E     		ldrb	r3, [r2, #27]	@ zero_extendqisi2
ARM GAS  C:\Users\faithc\AppData\Local\Temp\ccWgDYSd.s 			page 44


 1255 0176 B3FA83F3 		clz	r3, r3
 1256 017a 5B09     		lsrs	r3, r3, #5
 1257 017c D376     		strb	r3, [r2, #27]
 670:.\SirenState.c **** 			}
 1258              		.loc 1 670 0
 1259 017e FFF7FEFF 		bl	disableBothSpeakers
 1260              	.LVL162:
 1261 0182 38BD     		pop	{r3, r4, r5, pc}
 1262              	.L111:
 672:.\SirenState.c **** 			{	//Plays SPEAKER 2 SIREN TONE
 1263              		.loc 1 672 0
 1264 0184 3F4B     		ldr	r3, .L122
 1265 0186 DB7E     		ldrb	r3, [r3, #27]	@ zero_extendqisi2
 1266 0188 9BB1     		cbz	r3, .L112
 674:.\SirenState.c ****                 enableSpeakerForSirenTone(SPEAKER_1, NO_TONE, false, ToneStatus.bDualDelayEnable);
 1267              		.loc 1 674 0
 1268 018a 0020     		movs	r0, #0
 1269 018c FFF7FEFF 		bl	PowerAmpOutput1_Write
 1270              	.LVL163:
 675:.\SirenState.c **** 				enableSpeakerForSirenTone(SPEAKER_2, getAlternatingTone(ToneStatus.currentTone[SPEAKER_2]),
 1271              		.loc 1 675 0
 1272 0190 3C4C     		ldr	r4, .L122
 1273 0192 0020     		movs	r0, #0
 1274 0194 0146     		mov	r1, r0
 1275 0196 0246     		mov	r2, r0
 1276 0198 A37E     		ldrb	r3, [r4, #26]	@ zero_extendqisi2
 1277 019a FFF7FEFF 		bl	enableSpeakerForSirenTone
 1278              	.LVL164:
 676:.\SirenState.c ****                     true, InputRead.bDualDelay);
 1279              		.loc 1 676 0
 1280 019e E07D     		ldrb	r0, [r4, #23]	@ zero_extendqisi2
 1281 01a0 FFF7FEFF 		bl	getAlternatingTone
 1282              	.LVL165:
 1283 01a4 0146     		mov	r1, r0
 1284 01a6 0120     		movs	r0, #1
 1285 01a8 0246     		mov	r2, r0
 1286 01aa 237C     		ldrb	r3, [r4, #16]	@ zero_extendqisi2
 1287 01ac FFF7FEFF 		bl	enableSpeakerForSirenTone
 1288              	.LVL166:
 1289 01b0 38BD     		pop	{r3, r4, r5, pc}
 1290              	.L112:
 681:.\SirenState.c ****                 enableSpeakerForSirenTone(SPEAKER_1, NO_TONE, false, ToneStatus.bDualDelayEnable);
 1291              		.loc 1 681 0
 1292 01b2 0020     		movs	r0, #0
 1293 01b4 FFF7FEFF 		bl	PowerAmpOutput1_Write
 1294              	.LVL167:
 682:.\SirenState.c **** 				enableSpeakerForSirenTone(SPEAKER_2, ToneStatus.currentTone[SPEAKER_2],
 1295              		.loc 1 682 0
 1296 01b8 324C     		ldr	r4, .L122
 1297 01ba 0020     		movs	r0, #0
 1298 01bc 0146     		mov	r1, r0
 1299 01be 0246     		mov	r2, r0
 1300 01c0 A37E     		ldrb	r3, [r4, #26]	@ zero_extendqisi2
 1301 01c2 FFF7FEFF 		bl	enableSpeakerForSirenTone
 1302              	.LVL168:
 683:.\SirenState.c ****                     true, InputRead.bDualDelay);
 1303              		.loc 1 683 0
ARM GAS  C:\Users\faithc\AppData\Local\Temp\ccWgDYSd.s 			page 45


 1304 01c6 0120     		movs	r0, #1
 1305 01c8 E17D     		ldrb	r1, [r4, #23]	@ zero_extendqisi2
 1306 01ca 0246     		mov	r2, r0
 1307 01cc 237C     		ldrb	r3, [r4, #16]	@ zero_extendqisi2
 1308 01ce FFF7FEFF 		bl	enableSpeakerForSirenTone
 1309              	.LVL169:
 1310 01d2 38BD     		pop	{r3, r4, r5, pc}
 1311              	.L106:
 690:.\SirenState.c ****             disableBothSpeakers();
 1312              		.loc 1 690 0
 1313 01d4 2B4B     		ldr	r3, .L122
 1314 01d6 5B7B     		ldrb	r3, [r3, #13]	@ zero_extendqisi2
 1315 01d8 13B1     		cbz	r3, .L113
 691:.\SirenState.c ****         else
 1316              		.loc 1 691 0
 1317 01da FFF7FEFF 		bl	disableBothSpeakers
 1318              	.LVL170:
 1319 01de 38BD     		pop	{r3, r4, r5, pc}
 1320              	.L113:
 694:.\SirenState.c ****     		{	//Plays HORN
 1321              		.loc 1 694 0
 1322 01e0 284B     		ldr	r3, .L122
 1323 01e2 DB7B     		ldrb	r3, [r3, #15]	@ zero_extendqisi2
 1324 01e4 8BB1     		cbz	r3, .L114
 696:.\SirenState.c ****     			deactivateManualWail();
 1325              		.loc 1 696 0
 1326 01e6 0024     		movs	r4, #0
 1327 01e8 264B     		ldr	r3, .L122
 1328 01ea DC76     		strb	r4, [r3, #27]
 697:.\SirenState.c ****     			enableSpeakerForSirenTone(SPEAKER_1, HORN, false, false);
 1329              		.loc 1 697 0
 1330 01ec FFF7FEFF 		bl	deactivateManualWail
 1331              	.LVL171:
 698:.\SirenState.c ****     			enableSpeakerForSirenTone(SPEAKER_2, HORN, false, false);
 1332              		.loc 1 698 0
 1333 01f0 2046     		mov	r0, r4
 1334 01f2 0521     		movs	r1, #5
 1335 01f4 2246     		mov	r2, r4
 1336 01f6 2346     		mov	r3, r4
 1337 01f8 FFF7FEFF 		bl	enableSpeakerForSirenTone
 1338              	.LVL172:
 699:.\SirenState.c ****     		}
 1339              		.loc 1 699 0
 1340 01fc 0120     		movs	r0, #1
 1341 01fe 0521     		movs	r1, #5
 1342 0200 2246     		mov	r2, r4
 1343 0202 2346     		mov	r3, r4
 1344 0204 FFF7FEFF 		bl	enableSpeakerForSirenTone
 1345              	.LVL173:
 1346 0208 38BD     		pop	{r3, r4, r5, pc}
 1347              	.L114:
 701:.\SirenState.c ****     		{
 1348              		.loc 1 701 0
 1349 020a 1E4B     		ldr	r3, .L122
 1350 020c 1C7D     		ldrb	r4, [r3, #20]	@ zero_extendqisi2
 1351 020e 2046     		mov	r0, r4
 1352 0210 FFF7FEFF 		bl	isTrailingTone
ARM GAS  C:\Users\faithc\AppData\Local\Temp\ccWgDYSd.s 			page 46


 1353              	.LVL174:
 1354 0214 A0B1     		cbz	r0, .L115
 703:.\SirenState.c ****     				enableSpeakersForAudioTone(SPEAKER_1, ToneStatus.previousTone[SPEAKER_1], false);
 1355              		.loc 1 703 0
 1356 0216 2046     		mov	r0, r4
 1357 0218 FFF7FEFF 		bl	isAudioTone
 1358              	.LVL175:
 1359 021c 28B1     		cbz	r0, .L116
 704:.\SirenState.c ****     			else	//Plays MANUAL WAIL
 1360              		.loc 1 704 0
 1361 021e 0020     		movs	r0, #0
 1362 0220 2146     		mov	r1, r4
 1363 0222 0246     		mov	r2, r0
 1364 0224 FFF7FEFF 		bl	enableSpeakersForAudioTone
 1365              	.LVL176:
 1366 0228 05E0     		b	.L117
 1367              	.L116:
 706:.\SirenState.c ****                 
 1368              		.loc 1 706 0
 1369 022a 0020     		movs	r0, #0
 1370 022c 2146     		mov	r1, r4
 1371 022e 0246     		mov	r2, r0
 1372 0230 0346     		mov	r3, r0
 1373 0232 FFF7FEFF 		bl	enableSpeakerForSirenTone
 1374              	.LVL177:
 1375              	.L117:
 708:.\SirenState.c ****                 bToneChangeOnHornRing = false;
 1376              		.loc 1 708 0
 1377 0236 134B     		ldr	r3, .L122
 1378 0238 0022     		movs	r2, #0
 1379 023a 1A75     		strb	r2, [r3, #20]
 709:.\SirenState.c ****     		}
 1380              		.loc 1 709 0
 1381 023c DA76     		strb	r2, [r3, #27]
 1382 023e 38BD     		pop	{r3, r4, r5, pc}
 1383              	.L115:
 711:.\SirenState.c ****     		{
 1384              		.loc 1 711 0
 1385 0240 104B     		ldr	r3, .L122
 1386 0242 5C7D     		ldrb	r4, [r3, #21]	@ zero_extendqisi2
 1387 0244 2046     		mov	r0, r4
 1388 0246 FFF7FEFF 		bl	isTrailingTone
 1389              	.LVL178:
 1390 024a A0B1     		cbz	r0, .L118
 713:.\SirenState.c ****     				enableSpeakersForAudioTone(SPEAKER_2, ToneStatus.previousTone[SPEAKER_2], false);	
 1391              		.loc 1 713 0
 1392 024c 2046     		mov	r0, r4
 1393 024e FFF7FEFF 		bl	isAudioTone
 1394              	.LVL179:
 1395 0252 28B1     		cbz	r0, .L119
 714:.\SirenState.c ****     			else	//Plays MANUAL WAIL	
 1396              		.loc 1 714 0
 1397 0254 0120     		movs	r0, #1
 1398 0256 2146     		mov	r1, r4
 1399 0258 0022     		movs	r2, #0
 1400 025a FFF7FEFF 		bl	enableSpeakersForAudioTone
 1401              	.LVL180:
ARM GAS  C:\Users\faithc\AppData\Local\Temp\ccWgDYSd.s 			page 47


 1402 025e 05E0     		b	.L120
 1403              	.L119:
 716:.\SirenState.c ****                     
 1404              		.loc 1 716 0
 1405 0260 0120     		movs	r0, #1
 1406 0262 2146     		mov	r1, r4
 1407 0264 0022     		movs	r2, #0
 1408 0266 1346     		mov	r3, r2
 1409 0268 FFF7FEFF 		bl	enableSpeakerForSirenTone
 1410              	.LVL181:
 1411              	.L120:
 718:.\SirenState.c ****                 bToneChangeOnHornRing = false;
 1412              		.loc 1 718 0
 1413 026c 054B     		ldr	r3, .L122
 1414 026e 0022     		movs	r2, #0
 1415 0270 5A75     		strb	r2, [r3, #21]
 719:.\SirenState.c ****     		}
 1416              		.loc 1 719 0
 1417 0272 DA76     		strb	r2, [r3, #27]
 1418 0274 38BD     		pop	{r3, r4, r5, pc}
 1419              	.L118:
 723:.\SirenState.c ****     			disableBothSpeakers();
 1420              		.loc 1 723 0
 1421 0276 0022     		movs	r2, #0
 1422 0278 024B     		ldr	r3, .L122
 1423 027a DA76     		strb	r2, [r3, #27]
 724:.\SirenState.c ****             }
 1424              		.loc 1 724 0
 1425 027c FFF7FEFF 		bl	disableBothSpeakers
 1426              	.LVL182:
 1427              	.L92:
 1428 0280 38BD     		pop	{r3, r4, r5, pc}
 1429              	.L123:
 1430 0282 00BF     		.align	2
 1431              	.L122:
 1432 0284 00000000 		.word	.LANCHOR1
 1433              		.cfi_endproc
 1434              	.LFE76:
 1435              		.size	decideTonesToPlay, .-decideTonesToPlay
 1436              		.section	.text.initializeInputReadings,"ax",%progbits
 1437              		.align	2
 1438              		.global	initializeInputReadings
 1439              		.thumb
 1440              		.thumb_func
 1441              		.type	initializeInputReadings, %function
 1442              	initializeInputReadings:
 1443              	.LFB66:
 214:.\SirenState.c **** 	uint8 speakerIndex = 0;
 1444              		.loc 1 214 0
 1445              		.cfi_startproc
 1446              		@ args = 0, pretend = 0, frame = 0
 1447              		@ frame_needed = 0, uses_anonymous_args = 0
 1448 0000 10B5     		push	{r4, lr}
 1449              		.cfi_def_cfa_offset 8
 1450              		.cfi_offset 4, -8
 1451              		.cfi_offset 14, -4
 1452              	.LVL183:
ARM GAS  C:\Users\faithc\AppData\Local\Temp\ccWgDYSd.s 			page 48


 217:.\SirenState.c ****     InputRead.bRadioAndMicKey |= MicKeyInput_Read();
 1453              		.loc 1 217 0
 1454 0002 FFF7FEFF 		bl	RadioRebroadcastInput_Read
 1455              	.LVL184:
 1456 0006 104C     		ldr	r4, .L128
 1457 0008 2073     		strb	r0, [r4, #12]
 218:.\SirenState.c ****     InputRead.bParkKill = ParkKillStatus_Read() & 0x01;
 1458              		.loc 1 218 0
 1459 000a FFF7FEFF 		bl	MicKeyInput_Read
 1460              	.LVL185:
 1461 000e 237B     		ldrb	r3, [r4, #12]	@ zero_extendqisi2
 1462 0010 1843     		orrs	r0, r0, r3
 1463 0012 2073     		strb	r0, [r4, #12]
 219:.\SirenState.c ****     InputRead.bHornRing = HornRingStatus_Read() & 0x01;
 1464              		.loc 1 219 0
 1465 0014 FFF7FEFF 		bl	ParkKillStatus_Read
 1466              	.LVL186:
 1467 0018 00F00100 		and	r0, r0, #1
 1468 001c 6073     		strb	r0, [r4, #13]
 220:.\SirenState.c **** 	
 1469              		.loc 1 220 0
 1470 001e FFF7FEFF 		bl	HornRingStatus_Read
 1471              	.LVL187:
 1472 0022 00F00100 		and	r0, r0, #1
 1473 0026 E073     		strb	r0, [r4, #15]
 222:.\SirenState.c **** 		InputRead.highestPriorityChannel[speakerIndex] = getHighestPriorityChannel(speakerIndex);
 1474              		.loc 1 222 0
 1475 0028 0024     		movs	r4, #0
 1476 002a 07E0     		b	.L125
 1477              	.LVL188:
 1478              	.L126:
 223:.\SirenState.c ****     
 1479              		.loc 1 223 0 discriminator 3
 1480 002c 2046     		mov	r0, r4
 1481 002e FFF7FEFF 		bl	getHighestPriorityChannel
 1482              	.LVL189:
 1483 0032 054B     		ldr	r3, .L128
 1484 0034 2344     		add	r3, r3, r4
 1485 0036 5874     		strb	r0, [r3, #17]
 222:.\SirenState.c **** 		InputRead.highestPriorityChannel[speakerIndex] = getHighestPriorityChannel(speakerIndex);
 1486              		.loc 1 222 0 discriminator 3
 1487 0038 0134     		adds	r4, r4, #1
 1488              	.LVL190:
 1489 003a E4B2     		uxtb	r4, r4
 1490              	.LVL191:
 1491              	.L125:
 222:.\SirenState.c **** 		InputRead.highestPriorityChannel[speakerIndex] = getHighestPriorityChannel(speakerIndex);
 1492              		.loc 1 222 0 is_stmt 0 discriminator 1
 1493 003c 012C     		cmp	r4, #1
 1494 003e F5D9     		bls	.L126
 225:.\SirenState.c **** }
 1495              		.loc 1 225 0 is_stmt 1
 1496 0040 FFF7FEFF 		bl	decideTonesToPlay
 1497              	.LVL192:
 1498 0044 10BD     		pop	{r4, pc}
 1499              	.LVL193:
 1500              	.L129:
ARM GAS  C:\Users\faithc\AppData\Local\Temp\ccWgDYSd.s 			page 49


 1501 0046 00BF     		.align	2
 1502              	.L128:
 1503 0048 00000000 		.word	.LANCHOR1
 1504              		.cfi_endproc
 1505              	.LFE66:
 1506              		.size	initializeInputReadings, .-initializeInputReadings
 1507              		.section	.text.processTackSwitchRoutine,"ax",%progbits
 1508              		.align	2
 1509              		.global	processTackSwitchRoutine
 1510              		.thumb
 1511              		.thumb_func
 1512              		.type	processTackSwitchRoutine, %function
 1513              	processTackSwitchRoutine:
 1514              	.LFB67:
 244:.\SirenState.c ****     enum ToneType toneToPlay = NO_TONE;
 1515              		.loc 1 244 0
 1516              		.cfi_startproc
 1517              		@ args = 0, pretend = 0, frame = 0
 1518              		@ frame_needed = 0, uses_anonymous_args = 0
 1519 0000 2DE9F041 		push	{r4, r5, r6, r7, r8, lr}
 1520              		.cfi_def_cfa_offset 24
 1521              		.cfi_offset 4, -24
 1522              		.cfi_offset 5, -20
 1523              		.cfi_offset 6, -16
 1524              		.cfi_offset 7, -12
 1525              		.cfi_offset 8, -8
 1526              		.cfi_offset 14, -4
 1527              	.LVL194:
 250:.\SirenState.c ****     
 1528              		.loc 1 250 0
 1529 0004 FFF7FEFF 		bl	TackSwitchStatus_Read
 1530              	.LVL195:
 1531 0008 00F00100 		and	r0, r0, #1
 1532 000c 284B     		ldr	r3, .L138
 1533 000e 9873     		strb	r0, [r3, #14]
 252:.\SirenState.c ****     {
 1534              		.loc 1 252 0
 1535 0010 1B7B     		ldrb	r3, [r3, #12]	@ zero_extendqisi2
 1536 0012 002B     		cmp	r3, #0
 1537 0014 4AD1     		bne	.L130
 252:.\SirenState.c ****     {
 1538              		.loc 1 252 0 is_stmt 0 discriminator 1
 1539 0016 264B     		ldr	r3, .L138
 1540 0018 5B7B     		ldrb	r3, [r3, #13]	@ zero_extendqisi2
 1541 001a 002B     		cmp	r3, #0
 1542 001c 46D1     		bne	.L130
 254:.\SirenState.c ****         {
 1543              		.loc 1 254 0 is_stmt 1
 1544 001e 38B1     		cbz	r0, .L132
 256:.\SirenState.c **** 	        deactivateAudio();
 1545              		.loc 1 256 0
 1546 0020 FFF7FEFF 		bl	deactivateManualWail
 1547              	.LVL196:
 257:.\SirenState.c **** 			disableAudioAndPWM();
 1548              		.loc 1 257 0
 1549 0024 FFF7FEFF 		bl	deactivateAudio
 1550              	.LVL197:
ARM GAS  C:\Users\faithc\AppData\Local\Temp\ccWgDYSd.s 			page 50


 258:.\SirenState.c ****         }
 1551              		.loc 1 258 0
 1552 0028 FFF7FEFF 		bl	disableAudioAndPWM
 1553              	.LVL198:
 1554 002c BDE8F081 		pop	{r4, r5, r6, r7, r8, pc}
 1555              	.L132:
 262:.\SirenState.c ****             
 1556              		.loc 1 262 0
 1557 0030 FFF7FEFF 		bl	EEPROM_UpdateTemperature
 1558              	.LVL199:
 264:.\SirenState.c ****             {   //Speaker 1 addresses range 0x00 to 0x05, Speaker 2 addresses range 0x06 to 0x0B 
 1559              		.loc 1 264 0
 1560 0034 0024     		movs	r4, #0
 245:.\SirenState.c ****     uint16 addressIndex = 0;
 1561              		.loc 1 245 0
 1562 0036 2746     		mov	r7, r4
 264:.\SirenState.c ****             {   //Speaker 1 addresses range 0x00 to 0x05, Speaker 2 addresses range 0x06 to 0x0B 
 1563              		.loc 1 264 0
 1564 0038 34E0     		b	.L133
 1565              	.LVL200:
 1566              	.L136:
 266:.\SirenState.c ****                 addressIndex = (uint16)(CHANNEL_COUNT_PER_SPEAKER * bSpeakerIndex + channelIndex);
 1567              		.loc 1 266 0
 1568 003a 2646     		mov	r6, r4
 1569 003c 1C4B     		ldr	r3, .L138
 1570 003e 2344     		add	r3, r3, r4
 1571 0040 93F81180 		ldrb	r8, [r3, #17]	@ zero_extendqisi2
 1572              	.LVL201:
 267:.\SirenState.c ****                 
 1573              		.loc 1 267 0
 1574 0044 04EB4403 		add	r3, r4, r4, lsl #1
 1575 0048 5900     		lsls	r1, r3, #1
 1576 004a 4144     		add	r1, r1, r8
 1577 004c 8DB2     		uxth	r5, r1
 1578              	.LVL202:
 269:.\SirenState.c ****                 {
 1579              		.loc 1 269 0
 1580 004e B8F1FF0F 		cmp	r8, #255
 1581 0052 25D0     		beq	.L134
 271:.\SirenState.c ****                     {   //Gets original tone for that channel as starting tone in the list         
 1582              		.loc 1 271 0
 1583 0054 A7B9     		cbnz	r7, .L135
 273:.\SirenState.c ****                         toneToPlay = (toneToPlay + 1) % TONE_TYPE_LIST_SIZE;  //Increments to next 
 1584              		.loc 1 273 0
 1585 0056 2846     		mov	r0, r5
 1586 0058 FFF7FEFF 		bl	EEPROM_ReadByte
 1587              	.LVL203:
 274:.\SirenState.c ****                         
 1588              		.loc 1 274 0
 1589 005c 0130     		adds	r0, r0, #1
 1590              	.LVL204:
 1591 005e 154A     		ldr	r2, .L138+4
 1592 0060 80FB0223 		smull	r2, r3, r0, r2
 1593 0064 C718     		adds	r7, r0, r3
 1594 0066 C317     		asrs	r3, r0, #31
 1595 0068 C3EB2717 		rsb	r7, r3, r7, asr #4
 1596 006c 07EB4703 		add	r3, r7, r7, lsl #1
ARM GAS  C:\Users\faithc\AppData\Local\Temp\ccWgDYSd.s 			page 51


 1597 0070 C7EBC307 		rsb	r7, r7, r3, lsl #3
 1598 0074 C71B     		subs	r7, r0, r7
 1599              	.LVL205:
 276:.\SirenState.c ****                             toneToPlay++;  //Makes sure a tone is always selected
 1600              		.loc 1 276 0
 1601 0076 17F0FF07 		ands	r7, r7, #255
 1602              	.LVL206:
 1603 007a 01D1     		bne	.L135
 277:.\SirenState.c ****                     }
 1604              		.loc 1 277 0
 1605 007c 0137     		adds	r7, r7, #1
 1606 007e FFB2     		uxtb	r7, r7
 1607              	.LVL207:
 1608              	.L135:
 280:.\SirenState.c **** 					toneConfigurationList[bSpeakerIndex][channelIndex] = toneToPlay;
 1609              		.loc 1 280 0
 1610 0080 3846     		mov	r0, r7
 1611 0082 2946     		mov	r1, r5
 1612 0084 FFF7FEFF 		bl	EEPROM_WriteByte
 1613              	.LVL208:
 281:.\SirenState.c **** 					ToneStatus.previousTone[bSpeakerIndex] = ToneStatus.currentTone[bSpeakerIndex];
 1614              		.loc 1 281 0
 1615 0088 094B     		ldr	r3, .L138
 1616 008a 06EB4602 		add	r2, r6, r6, lsl #1
 1617 008e 5200     		lsls	r2, r2, #1
 1618 0090 4244     		add	r2, r2, r8
 1619 0092 9F54     		strb	r7, [r3, r2]
 282:.\SirenState.c **** 					ToneStatus.currentTone[bSpeakerIndex] = toneToPlay;
 1620              		.loc 1 282 0
 1621 0094 3344     		add	r3, r3, r6
 1622 0096 9A7D     		ldrb	r2, [r3, #22]	@ zero_extendqisi2
 1623 0098 1A75     		strb	r2, [r3, #20]
 283:.\SirenState.c **** 					ToneStatus.bRisingEdge[bSpeakerIndex] = true;
 1624              		.loc 1 283 0
 1625 009a 9F75     		strb	r7, [r3, #22]
 284:.\SirenState.c ****                 }
 1626              		.loc 1 284 0
 1627 009c 0122     		movs	r2, #1
 1628 009e 1A76     		strb	r2, [r3, #24]
 1629              	.L134:
 264:.\SirenState.c ****             {   //Speaker 1 addresses range 0x00 to 0x05, Speaker 2 addresses range 0x06 to 0x0B 
 1630              		.loc 1 264 0 discriminator 2
 1631 00a0 0134     		adds	r4, r4, #1
 1632              	.LVL209:
 1633 00a2 E4B2     		uxtb	r4, r4
 1634              	.LVL210:
 1635              	.L133:
 264:.\SirenState.c ****             {   //Speaker 1 addresses range 0x00 to 0x05, Speaker 2 addresses range 0x06 to 0x0B 
 1636              		.loc 1 264 0 is_stmt 0 discriminator 1
 1637 00a4 012C     		cmp	r4, #1
 1638 00a6 C8D9     		bls	.L136
 288:.\SirenState.c ****         }
 1639              		.loc 1 288 0 is_stmt 1
 1640 00a8 FFF7FEFF 		bl	decideTonesToPlay
 1641              	.LVL211:
 1642              	.L130:
 1643 00ac BDE8F081 		pop	{r4, r5, r6, r7, r8, pc}
ARM GAS  C:\Users\faithc\AppData\Local\Temp\ccWgDYSd.s 			page 52


 1644              	.L139:
 1645              		.align	2
 1646              	.L138:
 1647 00b0 00000000 		.word	.LANCHOR1
 1648 00b4 C94216B2 		.word	-1307163959
 1649              		.cfi_endproc
 1650              	.LFE67:
 1651              		.size	processTackSwitchRoutine, .-processTackSwitchRoutine
 1652              		.section	.text.processRadioMicKeyRoutine,"ax",%progbits
 1653              		.align	2
 1654              		.global	processRadioMicKeyRoutine
 1655              		.thumb
 1656              		.thumb_func
 1657              		.type	processRadioMicKeyRoutine, %function
 1658              	processRadioMicKeyRoutine:
 1659              	.LFB68:
 309:.\SirenState.c **** 	uint8 speakerIndex = 0;
 1660              		.loc 1 309 0
 1661              		.cfi_startproc
 1662              		@ args = 0, pretend = 0, frame = 0
 1663              		@ frame_needed = 0, uses_anonymous_args = 0
 1664 0000 10B5     		push	{r4, lr}
 1665              		.cfi_def_cfa_offset 8
 1666              		.cfi_offset 4, -8
 1667              		.cfi_offset 14, -4
 1668              	.LVL212:
 312:.\SirenState.c ****     
 1669              		.loc 1 312 0
 1670 0002 FFF7FEFF 		bl	RadioRebroadcastInput_Read
 1671              	.LVL213:
 1672 0006 20B9     		cbnz	r0, .L146
 312:.\SirenState.c ****     
 1673              		.loc 1 312 0 is_stmt 0 discriminator 2
 1674 0008 FFF7FEFF 		bl	MicKeyInput_Read
 1675              	.LVL214:
 1676 000c 18B9     		cbnz	r0, .L147
 312:.\SirenState.c ****     
 1677              		.loc 1 312 0
 1678 000e 0023     		movs	r3, #0
 1679 0010 02E0     		b	.L141
 1680              	.L146:
 1681 0012 0123     		movs	r3, #1
 1682 0014 00E0     		b	.L141
 1683              	.L147:
 1684 0016 0123     		movs	r3, #1
 1685              	.L141:
 312:.\SirenState.c ****     
 1686              		.loc 1 312 0 discriminator 6
 1687 0018 DBB2     		uxtb	r3, r3
 1688 001a 104A     		ldr	r2, .L149
 1689 001c 1373     		strb	r3, [r2, #12]
 314:.\SirenState.c ****     {
 1690              		.loc 1 314 0 is_stmt 1 discriminator 6
 1691 001e D3B1     		cbz	r3, .L142
 316:.\SirenState.c ****         deactivateAudio();
 1692              		.loc 1 316 0
 1693 0020 FFF7FEFF 		bl	deactivateManualWail
ARM GAS  C:\Users\faithc\AppData\Local\Temp\ccWgDYSd.s 			page 53


 1694              	.LVL215:
 317:.\SirenState.c **** 		PowerAmpOutput1_Write(true);
 1695              		.loc 1 317 0
 1696 0024 FFF7FEFF 		bl	deactivateAudio
 1697              	.LVL216:
 318:.\SirenState.c ****         PowerAmpOutput2_Write(false);
 1698              		.loc 1 318 0
 1699 0028 0120     		movs	r0, #1
 1700 002a FFF7FEFF 		bl	PowerAmpOutput1_Write
 1701              	.LVL217:
 319:.\SirenState.c **** 		
 1702              		.loc 1 319 0
 1703 002e 0020     		movs	r0, #0
 1704 0030 FFF7FEFF 		bl	PowerAmpOutput2_Write
 1705              	.LVL218:
 321:.\SirenState.c **** 		{
 1706              		.loc 1 321 0
 1707 0034 0024     		movs	r4, #0
 1708 0036 0BE0     		b	.L143
 1709              	.LVL219:
 1710              	.L144:
 323:.\SirenState.c **** 			stopAudioTone(speakerIndex);
 1711              		.loc 1 323 0 discriminator 3
 1712 0038 2046     		mov	r0, r4
 1713 003a FFF7FEFF 		bl	stopPWMTone
 1714              	.LVL220:
 324:.\SirenState.c ****             ToneStatus.bRisingEdge[speakerIndex] = false;
 1715              		.loc 1 324 0 discriminator 3
 1716 003e 2046     		mov	r0, r4
 1717 0040 FFF7FEFF 		bl	stopAudioTone
 1718              	.LVL221:
 325:.\SirenState.c **** 		}
 1719              		.loc 1 325 0 discriminator 3
 1720 0044 054B     		ldr	r3, .L149
 1721 0046 2344     		add	r3, r3, r4
 1722 0048 0022     		movs	r2, #0
 1723 004a 1A76     		strb	r2, [r3, #24]
 321:.\SirenState.c **** 		{
 1724              		.loc 1 321 0 discriminator 3
 1725 004c 0134     		adds	r4, r4, #1
 1726              	.LVL222:
 1727 004e E4B2     		uxtb	r4, r4
 1728              	.LVL223:
 1729              	.L143:
 321:.\SirenState.c **** 		{
 1730              		.loc 1 321 0 is_stmt 0 discriminator 1
 1731 0050 012C     		cmp	r4, #1
 1732 0052 F1D9     		bls	.L144
 1733 0054 10BD     		pop	{r4, pc}
 1734              	.LVL224:
 1735              	.L142:
 329:.\SirenState.c **** }
 1736              		.loc 1 329 0 is_stmt 1
 1737 0056 FFF7FEFF 		bl	decideTonesToPlay
 1738              	.LVL225:
 1739 005a 10BD     		pop	{r4, pc}
 1740              	.L150:
ARM GAS  C:\Users\faithc\AppData\Local\Temp\ccWgDYSd.s 			page 54


 1741              		.align	2
 1742              	.L149:
 1743 005c 00000000 		.word	.LANCHOR1
 1744              		.cfi_endproc
 1745              	.LFE68:
 1746              		.size	processRadioMicKeyRoutine, .-processRadioMicKeyRoutine
 1747              		.section	.text.processParkKillRoutine,"ax",%progbits
 1748              		.align	2
 1749              		.global	processParkKillRoutine
 1750              		.thumb
 1751              		.thumb_func
 1752              		.type	processParkKillRoutine, %function
 1753              	processParkKillRoutine:
 1754              	.LFB69:
 347:.\SirenState.c ****     InputRead.bParkKill = ParkKillStatus_Read() & 0x01;    
 1755              		.loc 1 347 0
 1756              		.cfi_startproc
 1757              		@ args = 0, pretend = 0, frame = 0
 1758              		@ frame_needed = 0, uses_anonymous_args = 0
 1759 0000 08B5     		push	{r3, lr}
 1760              		.cfi_def_cfa_offset 8
 1761              		.cfi_offset 3, -8
 1762              		.cfi_offset 14, -4
 348:.\SirenState.c ****     decideTonesToPlay();
 1763              		.loc 1 348 0
 1764 0002 FFF7FEFF 		bl	ParkKillStatus_Read
 1765              	.LVL226:
 1766 0006 00F00100 		and	r0, r0, #1
 1767 000a 024B     		ldr	r3, .L153
 1768 000c 5873     		strb	r0, [r3, #13]
 349:.\SirenState.c **** }
 1769              		.loc 1 349 0
 1770 000e FFF7FEFF 		bl	decideTonesToPlay
 1771              	.LVL227:
 1772 0012 08BD     		pop	{r3, pc}
 1773              	.L154:
 1774              		.align	2
 1775              	.L153:
 1776 0014 00000000 		.word	.LANCHOR1
 1777              		.cfi_endproc
 1778              	.LFE69:
 1779              		.size	processParkKillRoutine, .-processParkKillRoutine
 1780              		.section	.text.processHornRingRoutine,"ax",%progbits
 1781              		.align	2
 1782              		.global	processHornRingRoutine
 1783              		.thumb
 1784              		.thumb_func
 1785              		.type	processHornRingRoutine, %function
 1786              	processHornRingRoutine:
 1787              	.LFB70:
 367:.\SirenState.c ****     InputRead.bHornRing = HornRingStatus_Read() & 0x01;
 1788              		.loc 1 367 0
 1789              		.cfi_startproc
 1790              		@ args = 0, pretend = 0, frame = 0
 1791              		@ frame_needed = 0, uses_anonymous_args = 0
 1792 0000 08B5     		push	{r3, lr}
 1793              		.cfi_def_cfa_offset 8
ARM GAS  C:\Users\faithc\AppData\Local\Temp\ccWgDYSd.s 			page 55


 1794              		.cfi_offset 3, -8
 1795              		.cfi_offset 14, -4
 368:.\SirenState.c ****     decideTonesToPlay();
 1796              		.loc 1 368 0
 1797 0002 FFF7FEFF 		bl	HornRingStatus_Read
 1798              	.LVL228:
 1799 0006 00F00100 		and	r0, r0, #1
 1800 000a 024B     		ldr	r3, .L157
 1801 000c D873     		strb	r0, [r3, #15]
 369:.\SirenState.c **** }
 1802              		.loc 1 369 0
 1803 000e FFF7FEFF 		bl	decideTonesToPlay
 1804              	.LVL229:
 1805 0012 08BD     		pop	{r3, pc}
 1806              	.L158:
 1807              		.align	2
 1808              	.L157:
 1809 0014 00000000 		.word	.LANCHOR1
 1810              		.cfi_endproc
 1811              	.LFE70:
 1812              		.size	processHornRingRoutine, .-processHornRingRoutine
 1813              		.section	.text.processDualDelayRoutine,"ax",%progbits
 1814              		.align	2
 1815              		.global	processDualDelayRoutine
 1816              		.thumb
 1817              		.thumb_func
 1818              		.type	processDualDelayRoutine, %function
 1819              	processDualDelayRoutine:
 1820              	.LFB71:
 387:.\SirenState.c ****     InputRead.bDualDelay = DualDelayStatus_Read() & 0x01;
 1821              		.loc 1 387 0
 1822              		.cfi_startproc
 1823              		@ args = 0, pretend = 0, frame = 0
 1824              		@ frame_needed = 0, uses_anonymous_args = 0
 1825 0000 08B5     		push	{r3, lr}
 1826              		.cfi_def_cfa_offset 8
 1827              		.cfi_offset 3, -8
 1828              		.cfi_offset 14, -4
 388:.\SirenState.c ****     ToneStatus.bDualDelayEnable = InputRead.bDualDelay;
 1829              		.loc 1 388 0
 1830 0002 FFF7FEFF 		bl	DualDelayStatus_Read
 1831              	.LVL230:
 1832 0006 00F00100 		and	r0, r0, #1
 1833 000a 034B     		ldr	r3, .L161
 1834 000c 1874     		strb	r0, [r3, #16]
 389:.\SirenState.c ****     decideTonesToPlay();
 1835              		.loc 1 389 0
 1836 000e 9876     		strb	r0, [r3, #26]
 390:.\SirenState.c **** }
 1837              		.loc 1 390 0
 1838 0010 FFF7FEFF 		bl	decideTonesToPlay
 1839              	.LVL231:
 1840 0014 08BD     		pop	{r3, pc}
 1841              	.L162:
 1842 0016 00BF     		.align	2
 1843              	.L161:
 1844 0018 00000000 		.word	.LANCHOR1
ARM GAS  C:\Users\faithc\AppData\Local\Temp\ccWgDYSd.s 			page 56


 1845              		.cfi_endproc
 1846              	.LFE71:
 1847              		.size	processDualDelayRoutine, .-processDualDelayRoutine
 1848              		.section	.text.processToneChangeRoutine,"ax",%progbits
 1849              		.align	2
 1850              		.global	processToneChangeRoutine
 1851              		.thumb
 1852              		.thumb_func
 1853              		.type	processToneChangeRoutine, %function
 1854              	processToneChangeRoutine:
 1855              	.LFB72:
 408:.\SirenState.c ****     static uint8 previousChannels[SPEAKER_COUNT];
 1856              		.loc 1 408 0
 1857              		.cfi_startproc
 1858              		@ args = 0, pretend = 0, frame = 8
 1859              		@ frame_needed = 0, uses_anonymous_args = 0
 1860 0000 2DE9F043 		push	{r4, r5, r6, r7, r8, r9, lr}
 1861              		.cfi_def_cfa_offset 28
 1862              		.cfi_offset 4, -28
 1863              		.cfi_offset 5, -24
 1864              		.cfi_offset 6, -20
 1865              		.cfi_offset 7, -16
 1866              		.cfi_offset 8, -12
 1867              		.cfi_offset 9, -8
 1868              		.cfi_offset 14, -4
 1869 0004 83B0     		sub	sp, sp, #12
 1870              		.cfi_def_cfa_offset 40
 1871              	.LVL232:
 416:.\SirenState.c ****     currentChannels[SPEAKER_2] = ModeStatus2_Read();
 1872              		.loc 1 416 0
 1873 0006 FFF7FEFF 		bl	ModeStatus_Read
 1874              	.LVL233:
 1875 000a 8DF80400 		strb	r0, [sp, #4]
 417:.\SirenState.c ****     
 1876              		.loc 1 417 0
 1877 000e FFF7FEFF 		bl	ModeStatus2_Read
 1878              	.LVL234:
 1879 0012 8DF80500 		strb	r0, [sp, #5]
 419:.\SirenState.c ****     {
 1880              		.loc 1 419 0
 1881 0016 0024     		movs	r4, #0
 1882 0018 3AE0     		b	.L164
 1883              	.LVL235:
 1884              	.L170:
 422:.\SirenState.c **** 			
 1885              		.loc 1 422 0
 1886 001a 2546     		mov	r5, r4
 1887 001c 204B     		ldr	r3, .L172
 1888 001e 03EB0408 		add	r8, r3, r4
 1889 0022 98F81C60 		ldrb	r6, [r8, #28]	@ zero_extendqisi2
 1890 0026 02AB     		add	r3, sp, #8
 1891 0028 2344     		add	r3, r3, r4
 1892 002a 13F8047C 		ldrb	r7, [r3, #-4]	@ zero_extendqisi2
 421:.\SirenState.c ****             previousChannels[speakerIndex] ^ currentChannels[speakerIndex];
 1893              		.loc 1 421 0
 1894 002e 7E40     		eors	r6, r6, r7
 424:.\SirenState.c **** 		InputRead.highestPriorityChannel[speakerIndex] = getHighestPriorityChannel(speakerIndex);
ARM GAS  C:\Users\faithc\AppData\Local\Temp\ccWgDYSd.s 			page 57


 1895              		.loc 1 424 0
 1896 0030 3046     		mov	r0, r6
 1897 0032 FFF7FEFF 		bl	getBitIndex
 1898              	.LVL236:
 1899 0036 8146     		mov	r9, r0
 425:.\SirenState.c **** 		priorityChannel = InputRead.highestPriorityChannel[speakerIndex];
 1900              		.loc 1 425 0
 1901 0038 2046     		mov	r0, r4
 1902 003a FFF7FEFF 		bl	getHighestPriorityChannel
 1903              	.LVL237:
 1904 003e 88F81100 		strb	r0, [r8, #17]
 1905              	.LVL238:
 428:.\SirenState.c **** 			ToneStatus.bRisingEdge[speakerIndex] = true;
 1906              		.loc 1 428 0
 1907 0042 3742     		tst	r7, r6
 1908 0044 03D0     		beq	.L165
 429:.\SirenState.c **** 		else
 1909              		.loc 1 429 0
 1910 0046 0122     		movs	r2, #1
 1911 0048 88F81820 		strb	r2, [r8, #24]
 1912 004c 0AE0     		b	.L166
 1913              	.L165:
 432:.\SirenState.c ****                 (priorityChannel < changedChannel[speakerIndex])))
 1914              		.loc 1 432 0
 1915 004e FF28     		cmp	r0, #255
 1916 0050 04D0     		beq	.L167
 432:.\SirenState.c ****                 (priorityChannel < changedChannel[speakerIndex])))
 1917              		.loc 1 432 0 is_stmt 0 discriminator 1
 1918 0052 B9F1FF0F 		cmp	r9, #255
 1919 0056 05D0     		beq	.L166
 432:.\SirenState.c ****                 (priorityChannel < changedChannel[speakerIndex])))
 1920              		.loc 1 432 0 discriminator 2
 1921 0058 8145     		cmp	r9, r0
 1922 005a 03D9     		bls	.L166
 1923              	.L167:
 434:.\SirenState.c ****         }
 1924              		.loc 1 434 0 is_stmt 1
 1925 005c 104B     		ldr	r3, .L172
 1926 005e 2B44     		add	r3, r3, r5
 1927 0060 0022     		movs	r2, #0
 1928 0062 1A76     		strb	r2, [r3, #24]
 1929              	.L166:
 437:.\SirenState.c **** 		ToneStatus.previousTone[speakerIndex] = ToneStatus.currentTone[speakerIndex];	
 1930              		.loc 1 437 0
 1931 0064 0E4B     		ldr	r3, .L172
 1932 0066 2B44     		add	r3, r3, r5
 1933 0068 1F77     		strb	r7, [r3, #28]
 438:.\SirenState.c **** 		
 1934              		.loc 1 438 0
 1935 006a 9A7D     		ldrb	r2, [r3, #22]	@ zero_extendqisi2
 1936 006c 1A75     		strb	r2, [r3, #20]
 440:.\SirenState.c **** 			ToneStatus.currentTone[speakerIndex] = toneConfigurationList[speakerIndex][priorityChannel];
 1937              		.loc 1 440 0
 1938 006e FF28     		cmp	r0, #255
 1939 0070 08D0     		beq	.L168
 441:.\SirenState.c **** 		else
 1940              		.loc 1 441 0
ARM GAS  C:\Users\faithc\AppData\Local\Temp\ccWgDYSd.s 			page 58


 1941 0072 0B4B     		ldr	r3, .L172
 1942 0074 05EB4502 		add	r2, r5, r5, lsl #1
 1943 0078 5200     		lsls	r2, r2, #1
 1944 007a 1044     		add	r0, r0, r2
 1945              	.LVL239:
 1946 007c 1A5C     		ldrb	r2, [r3, r0]	@ zero_extendqisi2
 1947 007e 1D44     		add	r5, r5, r3
 1948 0080 AA75     		strb	r2, [r5, #22]
 1949 0082 03E0     		b	.L169
 1950              	.LVL240:
 1951              	.L168:
 443:.\SirenState.c ****     }
 1952              		.loc 1 443 0
 1953 0084 064B     		ldr	r3, .L172
 1954 0086 1D44     		add	r5, r5, r3
 1955 0088 0023     		movs	r3, #0
 1956 008a AB75     		strb	r3, [r5, #22]
 1957              	.LVL241:
 1958              	.L169:
 419:.\SirenState.c ****     {
 1959              		.loc 1 419 0 discriminator 2
 1960 008c 0134     		adds	r4, r4, #1
 1961              	.LVL242:
 1962 008e E4B2     		uxtb	r4, r4
 1963              	.LVL243:
 1964              	.L164:
 419:.\SirenState.c ****     {
 1965              		.loc 1 419 0 is_stmt 0 discriminator 1
 1966 0090 012C     		cmp	r4, #1
 1967 0092 C2D9     		bls	.L170
 446:.\SirenState.c **** }
 1968              		.loc 1 446 0 is_stmt 1
 1969 0094 FFF7FEFF 		bl	decideTonesToPlay
 1970              	.LVL244:
 447:.\SirenState.c **** 
 1971              		.loc 1 447 0
 1972 0098 03B0     		add	sp, sp, #12
 1973              		.cfi_def_cfa_offset 28
 1974              		@ sp needed
 1975 009a BDE8F083 		pop	{r4, r5, r6, r7, r8, r9, pc}
 1976              	.LVL245:
 1977              	.L173:
 1978 009e 00BF     		.align	2
 1979              	.L172:
 1980 00a0 00000000 		.word	.LANCHOR1
 1981              		.cfi_endproc
 1982              	.LFE72:
 1983              		.size	processToneChangeRoutine, .-processToneChangeRoutine
 1984              		.section	.text.setTonesWithCommunication,"ax",%progbits
 1985              		.align	2
 1986              		.global	setTonesWithCommunication
 1987              		.thumb
 1988              		.thumb_func
 1989              		.type	setTonesWithCommunication, %function
 1990              	setTonesWithCommunication:
 1991              	.LFB73:
 467:.\SirenState.c ****     uint8 speakerIndex = 0;
ARM GAS  C:\Users\faithc\AppData\Local\Temp\ccWgDYSd.s 			page 59


 1992              		.loc 1 467 0
 1993              		.cfi_startproc
 1994              		@ args = 0, pretend = 0, frame = 0
 1995              		@ frame_needed = 0, uses_anonymous_args = 0
 1996              	.LVL246:
 471:.\SirenState.c ****         return false;
 1997              		.loc 1 471 0
 1998 0000 1628     		cmp	r0, #22
 1999 0002 3DD8     		bhi	.L182
 474:.\SirenState.c ****         return false;
 2000              		.loc 1 474 0
 2001 0004 1629     		cmp	r1, #22
 2002 0006 3DD8     		bhi	.L183
 477:.\SirenState.c ****         return false;
 2003              		.loc 1 477 0
 2004 0008 012A     		cmp	r2, #1
 2005 000a 3DD8     		bhi	.L184
 467:.\SirenState.c ****     uint8 speakerIndex = 0;
 2006              		.loc 1 467 0
 2007 000c F8B5     		push	{r3, r4, r5, r6, r7, lr}
 2008              		.cfi_def_cfa_offset 24
 2009              		.cfi_offset 3, -24
 2010              		.cfi_offset 4, -20
 2011              		.cfi_offset 5, -16
 2012              		.cfi_offset 6, -12
 2013              		.cfi_offset 7, -8
 2014              		.cfi_offset 14, -4
 480:.\SirenState.c ****     ToneStatus.previousTone[SPEAKER_2] = ToneStatus.currentTone[SPEAKER_2];
 2015              		.loc 1 480 0
 2016 000e 204B     		ldr	r3, .L189
 2017 0010 9E7D     		ldrb	r6, [r3, #22]	@ zero_extendqisi2
 2018 0012 1E75     		strb	r6, [r3, #20]
 481:.\SirenState.c ****     ToneStatus.currentTone[SPEAKER_1] = firstTone;
 2019              		.loc 1 481 0
 2020 0014 DF7D     		ldrb	r7, [r3, #23]	@ zero_extendqisi2
 2021 0016 5F75     		strb	r7, [r3, #21]
 482:.\SirenState.c ****     ToneStatus.currentTone[SPEAKER_2] = secondTone;
 2022              		.loc 1 482 0
 2023 0018 9875     		strb	r0, [r3, #22]
 483:.\SirenState.c ****     
 2024              		.loc 1 483 0
 2025 001a D975     		strb	r1, [r3, #23]
 485:.\SirenState.c ****         bDualDelayChange = true;
 2026              		.loc 1 485 0
 2027 001c 9B7E     		ldrb	r3, [r3, #26]	@ zero_extendqisi2
 2028 001e 9342     		cmp	r3, r2
 2029 0020 02D1     		bne	.L185
 469:.\SirenState.c ****     
 2030              		.loc 1 469 0
 2031 0022 4FF0000E 		mov	lr, #0
 2032 0026 01E0     		b	.L176
 2033              	.L185:
 486:.\SirenState.c ****     
 2034              		.loc 1 486 0
 2035 0028 4FF0010E 		mov	lr, #1
 2036              	.L176:
 2037              	.LVL247:
ARM GAS  C:\Users\faithc\AppData\Local\Temp\ccWgDYSd.s 			page 60


 488:.\SirenState.c ****     
 2038              		.loc 1 488 0
 2039 002c 184B     		ldr	r3, .L189
 2040 002e 9A76     		strb	r2, [r3, #26]
 490:.\SirenState.c ****     {
 2041              		.loc 1 490 0
 2042 0030 0023     		movs	r3, #0
 2043 0032 18E0     		b	.L177
 2044              	.LVL248:
 2045              	.L180:
 492:.\SirenState.c ****             (ToneStatus.currentTone[speakerIndex] != NO_TONE))
 2046              		.loc 1 492 0
 2047 0034 1C46     		mov	r4, r3
 2048 0036 164A     		ldr	r2, .L189
 2049 0038 1A44     		add	r2, r2, r3
 2050 003a 127D     		ldrb	r2, [r2, #20]	@ zero_extendqisi2
 2051 003c 42B9     		cbnz	r2, .L178
 493:.\SirenState.c ****             ToneStatus.bRisingEdge[speakerIndex] = true;
 2052              		.loc 1 493 0 discriminator 1
 2053 003e 144D     		ldr	r5, .L189
 2054 0040 1D44     		add	r5, r5, r3
 2055 0042 AD7D     		ldrb	r5, [r5, #22]	@ zero_extendqisi2
 492:.\SirenState.c ****             (ToneStatus.currentTone[speakerIndex] != NO_TONE))
 2056              		.loc 1 492 0 discriminator 1
 2057 0044 25B1     		cbz	r5, .L178
 494:.\SirenState.c ****         else if((ToneStatus.previousTone[speakerIndex] != NO_TONE) &&
 2058              		.loc 1 494 0
 2059 0046 124A     		ldr	r2, .L189
 2060 0048 1444     		add	r4, r4, r2
 2061 004a 0122     		movs	r2, #1
 2062 004c 2276     		strb	r2, [r4, #24]
 2063 004e 08E0     		b	.L179
 2064              	.L178:
 495:.\SirenState.c ****             (ToneStatus.currentTone[speakerIndex] == NO_TONE))
 2065              		.loc 1 495 0
 2066 0050 3AB1     		cbz	r2, .L179
 496:.\SirenState.c ****             ToneStatus.bRisingEdge[speakerIndex] = false;
 2067              		.loc 1 496 0 discriminator 1
 2068 0052 0F4A     		ldr	r2, .L189
 2069 0054 2244     		add	r2, r2, r4
 2070 0056 927D     		ldrb	r2, [r2, #22]	@ zero_extendqisi2
 495:.\SirenState.c ****             (ToneStatus.currentTone[speakerIndex] == NO_TONE))
 2071              		.loc 1 495 0 discriminator 1
 2072 0058 1AB9     		cbnz	r2, .L179
 497:.\SirenState.c ****     }
 2073              		.loc 1 497 0
 2074 005a 0D4A     		ldr	r2, .L189
 2075 005c 1444     		add	r4, r4, r2
 2076 005e 0022     		movs	r2, #0
 2077 0060 2276     		strb	r2, [r4, #24]
 2078              	.L179:
 490:.\SirenState.c ****     {
 2079              		.loc 1 490 0 discriminator 2
 2080 0062 0133     		adds	r3, r3, #1
 2081              	.LVL249:
 2082 0064 DBB2     		uxtb	r3, r3
 2083              	.LVL250:
ARM GAS  C:\Users\faithc\AppData\Local\Temp\ccWgDYSd.s 			page 61


 2084              	.L177:
 490:.\SirenState.c ****     {
 2085              		.loc 1 490 0 is_stmt 0 discriminator 1
 2086 0066 012B     		cmp	r3, #1
 2087 0068 E4D9     		bls	.L180
 500:.\SirenState.c ****         (ToneStatus.previousTone[SPEAKER_2] != ToneStatus.currentTone[SPEAKER_2]) ||
 2088              		.loc 1 500 0 is_stmt 1
 2089 006a B042     		cmp	r0, r6
 2090 006c 04D1     		bne	.L181
 500:.\SirenState.c ****         (ToneStatus.previousTone[SPEAKER_2] != ToneStatus.currentTone[SPEAKER_2]) ||
 2091              		.loc 1 500 0 is_stmt 0 discriminator 1
 2092 006e B942     		cmp	r1, r7
 2093 0070 02D1     		bne	.L181
 501:.\SirenState.c ****         (bDualDelayChange == true))
 2094              		.loc 1 501 0 is_stmt 1
 2095 0072 BEF1000F 		cmp	lr, #0
 2096 0076 09D0     		beq	.L186
 2097              	.L181:
 503:.\SirenState.c ****     
 2098              		.loc 1 503 0
 2099 0078 FFF7FEFF 		bl	decideTonesToPlay
 2100              	.LVL251:
 505:.\SirenState.c **** }
 2101              		.loc 1 505 0
 2102 007c 0120     		movs	r0, #1
 2103 007e F8BD     		pop	{r3, r4, r5, r6, r7, pc}
 2104              	.LVL252:
 2105              	.L182:
 2106              		.cfi_def_cfa_offset 0
 2107              		.cfi_restore 3
 2108              		.cfi_restore 4
 2109              		.cfi_restore 5
 2110              		.cfi_restore 6
 2111              		.cfi_restore 7
 2112              		.cfi_restore 14
 472:.\SirenState.c ****     
 2113              		.loc 1 472 0
 2114 0080 0020     		movs	r0, #0
 2115              	.LVL253:
 2116 0082 7047     		bx	lr
 2117              	.LVL254:
 2118              	.L183:
 475:.\SirenState.c ****     
 2119              		.loc 1 475 0
 2120 0084 0020     		movs	r0, #0
 2121              	.LVL255:
 506:.\SirenState.c **** 
 2122              		.loc 1 506 0
 2123 0086 7047     		bx	lr
 2124              	.LVL256:
 2125              	.L184:
 478:.\SirenState.c ****     
 2126              		.loc 1 478 0
 2127 0088 0020     		movs	r0, #0
 2128              	.LVL257:
 2129 008a 7047     		bx	lr
 2130              	.LVL258:
ARM GAS  C:\Users\faithc\AppData\Local\Temp\ccWgDYSd.s 			page 62


 2131              	.L186:
 2132              		.cfi_def_cfa_offset 24
 2133              		.cfi_offset 3, -24
 2134              		.cfi_offset 4, -20
 2135              		.cfi_offset 5, -16
 2136              		.cfi_offset 6, -12
 2137              		.cfi_offset 7, -8
 2138              		.cfi_offset 14, -4
 505:.\SirenState.c **** }
 2139              		.loc 1 505 0
 2140 008c 0120     		movs	r0, #1
 2141              	.LVL259:
 506:.\SirenState.c **** 
 2142              		.loc 1 506 0
 2143 008e F8BD     		pop	{r3, r4, r5, r6, r7, pc}
 2144              	.LVL260:
 2145              	.L190:
 2146              		.align	2
 2147              	.L189:
 2148 0090 00000000 		.word	.LANCHOR1
 2149              		.cfi_endproc
 2150              	.LFE73:
 2151              		.size	setTonesWithCommunication, .-setTonesWithCommunication
 2152              		.section	.rodata
 2153              		.align	2
 2154              		.set	.LANCHOR0,. + 0
 2155              		.type	DEFAULT_CONFIGURATION_LIST, %object
 2156              		.size	DEFAULT_CONFIGURATION_LIST, 12
 2157              	DEFAULT_CONFIGURATION_LIST:
 2158 0000 0E       		.byte	14
 2159 0001 01       		.byte	1
 2160 0002 02       		.byte	2
 2161 0003 04       		.byte	4
 2162 0004 05       		.byte	5
 2163 0005 0B       		.byte	11
 2164 0006 0F       		.byte	15
 2165 0007 01       		.byte	1
 2166 0008 02       		.byte	2
 2167 0009 04       		.byte	4
 2168 000a 05       		.byte	5
 2169 000b 0B       		.byte	11
 2170              		.bss
 2171              		.align	2
 2172              		.set	.LANCHOR1,. + 0
 2173              		.type	toneConfigurationList, %object
 2174              		.size	toneConfigurationList, 12
 2175              	toneConfigurationList:
 2176 0000 00000000 		.space	12
 2176      00000000 
 2176      00000000 
 2177              		.type	InputRead, %object
 2178              		.size	InputRead, 7
 2179              	InputRead:
 2180 000c 00000000 		.space	7
 2180      000000
 2181 0013 00       		.space	1
 2182              		.type	ToneStatus, %object
ARM GAS  C:\Users\faithc\AppData\Local\Temp\ccWgDYSd.s 			page 63


 2183              		.size	ToneStatus, 7
 2184              	ToneStatus:
 2185 0014 00000000 		.space	7
 2185      000000
 2186              		.type	bToneChangeOnHornRing.7384, %object
 2187              		.size	bToneChangeOnHornRing.7384, 1
 2188              	bToneChangeOnHornRing.7384:
 2189 001b 00       		.space	1
 2190              		.type	previousChannels.7356, %object
 2191              		.size	previousChannels.7356, 2
 2192              	previousChannels.7356:
 2193 001c 0000     		.space	2
 2194 001e 0000     		.text
 2195              	.Letext0:
 2196              		.file 2 "c:\\program files (x86)\\cypress\\psoc creator\\3.3\\psoc creator\\import\\gnu\\arm\\4.9.
 2197              		.file 3 "c:\\program files (x86)\\cypress\\psoc creator\\3.3\\psoc creator\\import\\gnu\\arm\\4.9.
 2198              		.file 4 "Generated_Source\\PSoC5/cytypes.h"
 2199              		.file 5 ".\\CommonVariables.h"
 2200              		.file 6 "Generated_Source\\PSoC5/ModeStatus2.h"
 2201              		.file 7 "Generated_Source\\PSoC5/ModeStatus.h"
 2202              		.file 8 ".\\Tones.h"
 2203              		.file 9 ".\\DACaudio.h"
 2204              		.file 10 "Generated_Source\\PSoC5/PowerAmpOutput1.h"
 2205              		.file 11 "Generated_Source\\PSoC5/PowerAmpOutput2.h"
 2206              		.file 12 "Generated_Source\\PSoC5/EEPROM.h"
 2207              		.file 13 "Generated_Source\\PSoC5/TackSwitchISR.h"
 2208              		.file 14 "Generated_Source\\PSoC5/TackSwitchStatus.h"
 2209              		.file 15 "Generated_Source\\PSoC5/DualDelayISR.h"
 2210              		.file 16 "Generated_Source\\PSoC5/DualDelayStatus.h"
 2211              		.file 17 "Generated_Source\\PSoC5/ModeStatusISR.h"
 2212              		.file 18 "Generated_Source\\PSoC5/RadioRebroadcastInput.h"
 2213              		.file 19 "Generated_Source\\PSoC5/MicKeyInput.h"
 2214              		.file 20 "Generated_Source\\PSoC5/ParkKillStatus.h"
 2215              		.file 21 "Generated_Source\\PSoC5/HornRingStatus.h"
 2216              		.file 22 "Generated_Source\\PSoC5/core_cm3.h"
 2217              		.section	.debug_info,"",%progbits
 2218              	.Ldebug_info0:
 2219 0000 23120000 		.4byte	0x1223
 2220 0004 0400     		.2byte	0x4
 2221 0006 00000000 		.4byte	.Ldebug_abbrev0
 2222 000a 04       		.byte	0x4
 2223 000b 01       		.uleb128 0x1
 2224 000c 09080000 		.4byte	.LASF150
 2225 0010 01       		.byte	0x1
 2226 0011 3E050000 		.4byte	.LASF151
 2227 0015 A0020000 		.4byte	.LASF152
 2228 0019 00000000 		.4byte	.Ldebug_ranges0+0
 2229 001d 00000000 		.4byte	0
 2230 0021 00000000 		.4byte	.Ldebug_line0
 2231 0025 02       		.uleb128 0x2
 2232 0026 01       		.byte	0x1
 2233 0027 06       		.byte	0x6
 2234 0028 7D090000 		.4byte	.LASF0
 2235 002c 02       		.uleb128 0x2
 2236 002d 01       		.byte	0x1
 2237 002e 08       		.byte	0x8
 2238 002f F0070000 		.4byte	.LASF1
ARM GAS  C:\Users\faithc\AppData\Local\Temp\ccWgDYSd.s 			page 64


 2239 0033 02       		.uleb128 0x2
 2240 0034 02       		.byte	0x2
 2241 0035 05       		.byte	0x5
 2242 0036 3F060000 		.4byte	.LASF2
 2243 003a 02       		.uleb128 0x2
 2244 003b 02       		.byte	0x2
 2245 003c 07       		.byte	0x7
 2246 003d 94090000 		.4byte	.LASF3
 2247 0041 03       		.uleb128 0x3
 2248 0042 B6000000 		.4byte	.LASF9
 2249 0046 02       		.byte	0x2
 2250 0047 3F       		.byte	0x3f
 2251 0048 4C000000 		.4byte	0x4c
 2252 004c 02       		.uleb128 0x2
 2253 004d 04       		.byte	0x4
 2254 004e 05       		.byte	0x5
 2255 004f 89060000 		.4byte	.LASF4
 2256 0053 02       		.uleb128 0x2
 2257 0054 04       		.byte	0x4
 2258 0055 07       		.byte	0x7
 2259 0056 38070000 		.4byte	.LASF5
 2260 005a 02       		.uleb128 0x2
 2261 005b 08       		.byte	0x8
 2262 005c 05       		.byte	0x5
 2263 005d 8A040000 		.4byte	.LASF6
 2264 0061 02       		.uleb128 0x2
 2265 0062 08       		.byte	0x8
 2266 0063 07       		.byte	0x7
 2267 0064 23020000 		.4byte	.LASF7
 2268 0068 04       		.uleb128 0x4
 2269 0069 04       		.byte	0x4
 2270 006a 05       		.byte	0x5
 2271 006b 696E7400 		.ascii	"int\000"
 2272 006f 02       		.uleb128 0x2
 2273 0070 04       		.byte	0x4
 2274 0071 07       		.byte	0x7
 2275 0072 81000000 		.4byte	.LASF8
 2276 0076 03       		.uleb128 0x3
 2277 0077 76070000 		.4byte	.LASF10
 2278 007b 03       		.byte	0x3
 2279 007c 2C       		.byte	0x2c
 2280 007d 41000000 		.4byte	0x41
 2281 0081 03       		.uleb128 0x3
 2282 0082 BA090000 		.4byte	.LASF11
 2283 0086 04       		.byte	0x4
 2284 0087 C2       		.byte	0xc2
 2285 0088 2C000000 		.4byte	0x2c
 2286 008c 03       		.uleb128 0x3
 2287 008d 13040000 		.4byte	.LASF12
 2288 0091 04       		.byte	0x4
 2289 0092 C3       		.byte	0xc3
 2290 0093 3A000000 		.4byte	0x3a
 2291 0097 02       		.uleb128 0x2
 2292 0098 04       		.byte	0x4
 2293 0099 04       		.byte	0x4
 2294 009a DC010000 		.4byte	.LASF13
 2295 009e 02       		.uleb128 0x2
ARM GAS  C:\Users\faithc\AppData\Local\Temp\ccWgDYSd.s 			page 65


 2296 009f 08       		.byte	0x8
 2297 00a0 04       		.byte	0x4
 2298 00a1 C0090000 		.4byte	.LASF14
 2299 00a5 02       		.uleb128 0x2
 2300 00a6 01       		.byte	0x1
 2301 00a7 08       		.byte	0x8
 2302 00a8 D3030000 		.4byte	.LASF15
 2303 00ac 05       		.uleb128 0x5
 2304 00ad C4070000 		.4byte	.LASF16
 2305 00b1 04       		.byte	0x4
 2306 00b2 6401     		.2byte	0x164
 2307 00b4 53000000 		.4byte	0x53
 2308 00b8 02       		.uleb128 0x2
 2309 00b9 04       		.byte	0x4
 2310 00ba 07       		.byte	0x7
 2311 00bb 2F070000 		.4byte	.LASF17
 2312 00bf 06       		.uleb128 0x6
 2313 00c0 46010000 		.4byte	.LASF41
 2314 00c4 01       		.byte	0x1
 2315 00c5 05       		.byte	0x5
 2316 00c6 1D       		.byte	0x1d
 2317 00c7 56010000 		.4byte	0x156
 2318 00cb 07       		.uleb128 0x7
 2319 00cc F5050000 		.4byte	.LASF18
 2320 00d0 00       		.sleb128 0
 2321 00d1 07       		.uleb128 0x7
 2322 00d2 BB030000 		.4byte	.LASF19
 2323 00d6 01       		.sleb128 1
 2324 00d7 07       		.uleb128 0x7
 2325 00d8 DA080000 		.4byte	.LASF20
 2326 00dc 02       		.sleb128 2
 2327 00dd 07       		.uleb128 0x7
 2328 00de E5040000 		.4byte	.LASF21
 2329 00e2 03       		.sleb128 3
 2330 00e3 07       		.uleb128 0x7
 2331 00e4 15090000 		.4byte	.LASF22
 2332 00e8 04       		.sleb128 4
 2333 00e9 07       		.uleb128 0x7
 2334 00ea 3C090000 		.4byte	.LASF23
 2335 00ee 05       		.sleb128 5
 2336 00ef 07       		.uleb128 0x7
 2337 00f0 6A000000 		.4byte	.LASF24
 2338 00f4 06       		.sleb128 6
 2339 00f5 07       		.uleb128 0x7
 2340 00f6 17020000 		.4byte	.LASF25
 2341 00fa 07       		.sleb128 7
 2342 00fb 07       		.uleb128 0x7
 2343 00fc 0A040000 		.4byte	.LASF26
 2344 0100 08       		.sleb128 8
 2345 0101 07       		.uleb128 0x7
 2346 0102 A4050000 		.4byte	.LASF27
 2347 0106 09       		.sleb128 9
 2348 0107 07       		.uleb128 0x7
 2349 0108 19000000 		.4byte	.LASF28
 2350 010c 0A       		.sleb128 10
 2351 010d 07       		.uleb128 0x7
 2352 010e 23030000 		.4byte	.LASF29
ARM GAS  C:\Users\faithc\AppData\Local\Temp\ccWgDYSd.s 			page 66


 2353 0112 0B       		.sleb128 11
 2354 0113 07       		.uleb128 0x7
 2355 0114 47000000 		.4byte	.LASF30
 2356 0118 0C       		.sleb128 12
 2357 0119 07       		.uleb128 0x7
 2358 011a FD050000 		.4byte	.LASF31
 2359 011e 0D       		.sleb128 13
 2360 011f 07       		.uleb128 0x7
 2361 0120 F3010000 		.4byte	.LASF32
 2362 0124 0E       		.sleb128 14
 2363 0125 07       		.uleb128 0x7
 2364 0126 CE000000 		.4byte	.LASF33
 2365 012a 0F       		.sleb128 15
 2366 012b 07       		.uleb128 0x7
 2367 012c 74030000 		.4byte	.LASF34
 2368 0130 10       		.sleb128 16
 2369 0131 07       		.uleb128 0x7
 2370 0132 55040000 		.4byte	.LASF35
 2371 0136 11       		.sleb128 17
 2372 0137 07       		.uleb128 0x7
 2373 0138 87010000 		.4byte	.LASF36
 2374 013c 12       		.sleb128 18
 2375 013d 07       		.uleb128 0x7
 2376 013e A4000000 		.4byte	.LASF37
 2377 0142 13       		.sleb128 19
 2378 0143 07       		.uleb128 0x7
 2379 0144 62030000 		.4byte	.LASF38
 2380 0148 14       		.sleb128 20
 2381 0149 07       		.uleb128 0x7
 2382 014a 44020000 		.4byte	.LASF39
 2383 014e 15       		.sleb128 21
 2384 014f 07       		.uleb128 0x7
 2385 0150 3A020000 		.4byte	.LASF40
 2386 0154 16       		.sleb128 22
 2387 0155 00       		.byte	0
 2388 0156 06       		.uleb128 0x6
 2389 0157 6B020000 		.4byte	.LASF42
 2390 015b 01       		.byte	0x1
 2391 015c 01       		.byte	0x1
 2392 015d 14       		.byte	0x14
 2393 015e 8E010000 		.4byte	0x18e
 2394 0162 07       		.uleb128 0x7
 2395 0163 41090000 		.4byte	.LASF43
 2396 0167 00       		.sleb128 0
 2397 0168 07       		.uleb128 0x7
 2398 0169 4B090000 		.4byte	.LASF44
 2399 016d 01       		.sleb128 1
 2400 016e 07       		.uleb128 0x7
 2401 016f 55090000 		.4byte	.LASF45
 2402 0173 02       		.sleb128 2
 2403 0174 07       		.uleb128 0x7
 2404 0175 5F090000 		.4byte	.LASF46
 2405 0179 03       		.sleb128 3
 2406 017a 07       		.uleb128 0x7
 2407 017b 69090000 		.4byte	.LASF47
 2408 017f 04       		.sleb128 4
 2409 0180 07       		.uleb128 0x7
ARM GAS  C:\Users\faithc\AppData\Local\Temp\ccWgDYSd.s 			page 67


 2410 0181 73090000 		.4byte	.LASF48
 2411 0185 05       		.sleb128 5
 2412 0186 07       		.uleb128 0x7
 2413 0187 5A050000 		.4byte	.LASF49
 2414 018b FF01     		.sleb128 255
 2415 018d 00       		.byte	0
 2416 018e 06       		.uleb128 0x6
 2417 018f C7090000 		.4byte	.LASF50
 2418 0193 01       		.byte	0x1
 2419 0194 01       		.byte	0x1
 2420 0195 1F       		.byte	0x1f
 2421 0196 CD010000 		.4byte	0x1cd
 2422 019a 07       		.uleb128 0x7
 2423 019b 4F010000 		.4byte	.LASF51
 2424 019f 01       		.sleb128 1
 2425 01a0 07       		.uleb128 0x7
 2426 01a1 54010000 		.4byte	.LASF52
 2427 01a5 02       		.sleb128 2
 2428 01a6 07       		.uleb128 0x7
 2429 01a7 59010000 		.4byte	.LASF53
 2430 01ab 04       		.sleb128 4
 2431 01ac 07       		.uleb128 0x7
 2432 01ad 5E010000 		.4byte	.LASF54
 2433 01b1 08       		.sleb128 8
 2434 01b2 07       		.uleb128 0x7
 2435 01b3 63010000 		.4byte	.LASF55
 2436 01b7 10       		.sleb128 16
 2437 01b8 07       		.uleb128 0x7
 2438 01b9 68010000 		.4byte	.LASF56
 2439 01bd 20       		.sleb128 32
 2440 01be 07       		.uleb128 0x7
 2441 01bf 6D010000 		.4byte	.LASF57
 2442 01c3 C000     		.sleb128 64
 2443 01c5 07       		.uleb128 0x7
 2444 01c6 72010000 		.4byte	.LASF58
 2445 01ca 8001     		.sleb128 128
 2446 01cc 00       		.byte	0
 2447 01cd 08       		.uleb128 0x8
 2448 01ce 07       		.byte	0x7
 2449 01cf 01       		.byte	0x1
 2450 01d0 35       		.byte	0x35
 2451 01d1 1E020000 		.4byte	0x21e
 2452 01d5 09       		.uleb128 0x9
 2453 01d6 96070000 		.4byte	.LASF59
 2454 01da 01       		.byte	0x1
 2455 01db 37       		.byte	0x37
 2456 01dc 81000000 		.4byte	0x81
 2457 01e0 00       		.byte	0
 2458 01e1 09       		.uleb128 0x9
 2459 01e2 EA000000 		.4byte	.LASF60
 2460 01e6 01       		.byte	0x1
 2461 01e7 38       		.byte	0x38
 2462 01e8 81000000 		.4byte	0x81
 2463 01ec 01       		.byte	0x1
 2464 01ed 09       		.uleb128 0x9
 2465 01ee 90010000 		.4byte	.LASF61
 2466 01f2 01       		.byte	0x1
ARM GAS  C:\Users\faithc\AppData\Local\Temp\ccWgDYSd.s 			page 68


 2467 01f3 39       		.byte	0x39
 2468 01f4 81000000 		.4byte	0x81
 2469 01f8 02       		.byte	0x2
 2470 01f9 09       		.uleb128 0x9
 2471 01fa 3C010000 		.4byte	.LASF62
 2472 01fe 01       		.byte	0x1
 2473 01ff 3A       		.byte	0x3a
 2474 0200 81000000 		.4byte	0x81
 2475 0204 03       		.byte	0x3
 2476 0205 09       		.uleb128 0x9
 2477 0206 A6070000 		.4byte	.LASF63
 2478 020a 01       		.byte	0x1
 2479 020b 3B       		.byte	0x3b
 2480 020c 81000000 		.4byte	0x81
 2481 0210 04       		.byte	0x4
 2482 0211 09       		.uleb128 0x9
 2483 0212 D8030000 		.4byte	.LASF64
 2484 0216 01       		.byte	0x1
 2485 0217 3C       		.byte	0x3c
 2486 0218 1E020000 		.4byte	0x21e
 2487 021c 05       		.byte	0x5
 2488 021d 00       		.byte	0
 2489 021e 0A       		.uleb128 0xa
 2490 021f 56010000 		.4byte	0x156
 2491 0223 2E020000 		.4byte	0x22e
 2492 0227 0B       		.uleb128 0xb
 2493 0228 B8000000 		.4byte	0xb8
 2494 022c 01       		.byte	0x1
 2495 022d 00       		.byte	0
 2496 022e 08       		.uleb128 0x8
 2497 022f 07       		.byte	0x7
 2498 0230 01       		.byte	0x1
 2499 0231 3F       		.byte	0x3f
 2500 0232 67020000 		.4byte	0x267
 2501 0236 09       		.uleb128 0x9
 2502 0237 18010000 		.4byte	.LASF65
 2503 023b 01       		.byte	0x1
 2504 023c 41       		.byte	0x41
 2505 023d 67020000 		.4byte	0x267
 2506 0241 00       		.byte	0
 2507 0242 09       		.uleb128 0x9
 2508 0243 18050000 		.4byte	.LASF66
 2509 0247 01       		.byte	0x1
 2510 0248 42       		.byte	0x42
 2511 0249 67020000 		.4byte	0x267
 2512 024d 02       		.byte	0x2
 2513 024e 09       		.uleb128 0x9
 2514 024f 6A070000 		.4byte	.LASF67
 2515 0253 01       		.byte	0x1
 2516 0254 43       		.byte	0x43
 2517 0255 77020000 		.4byte	0x277
 2518 0259 04       		.byte	0x4
 2519 025a 09       		.uleb128 0x9
 2520 025b 78020000 		.4byte	.LASF68
 2521 025f 01       		.byte	0x1
 2522 0260 44       		.byte	0x44
 2523 0261 81000000 		.4byte	0x81
ARM GAS  C:\Users\faithc\AppData\Local\Temp\ccWgDYSd.s 			page 69


 2524 0265 06       		.byte	0x6
 2525 0266 00       		.byte	0
 2526 0267 0A       		.uleb128 0xa
 2527 0268 BF000000 		.4byte	0xbf
 2528 026c 77020000 		.4byte	0x277
 2529 0270 0B       		.uleb128 0xb
 2530 0271 B8000000 		.4byte	0xb8
 2531 0275 01       		.byte	0x1
 2532 0276 00       		.byte	0
 2533 0277 0A       		.uleb128 0xa
 2534 0278 81000000 		.4byte	0x81
 2535 027c 87020000 		.4byte	0x287
 2536 0280 0B       		.uleb128 0xb
 2537 0281 B8000000 		.4byte	0xb8
 2538 0285 01       		.byte	0x1
 2539 0286 00       		.byte	0
 2540 0287 0C       		.uleb128 0xc
 2541 0288 9C010000 		.4byte	.LASF69
 2542 028c 01       		.byte	0x1
 2543 028d AB03     		.2byte	0x3ab
 2544 028f 81000000 		.4byte	0x81
 2545 0293 00000000 		.4byte	.LFB83
 2546 0297 10000000 		.4byte	.LFE83-.LFB83
 2547 029b 01       		.uleb128 0x1
 2548 029c 9C       		.byte	0x9c
 2549 029d B2020000 		.4byte	0x2b2
 2550 02a1 0D       		.uleb128 0xd
 2551 02a2 E7070000 		.4byte	.LASF71
 2552 02a6 01       		.byte	0x1
 2553 02a7 AB03     		.2byte	0x3ab
 2554 02a9 BF000000 		.4byte	0xbf
 2555 02ad 00000000 		.4byte	.LLST0
 2556 02b1 00       		.byte	0
 2557 02b2 0C       		.uleb128 0xc
 2558 02b3 32040000 		.4byte	.LASF70
 2559 02b7 01       		.byte	0x1
 2560 02b8 7F03     		.2byte	0x37f
 2561 02ba 81000000 		.4byte	0x81
 2562 02be 00000000 		.4byte	.LFB81
 2563 02c2 20000000 		.4byte	.LFE81-.LFB81
 2564 02c6 01       		.uleb128 0x1
 2565 02c7 9C       		.byte	0x9c
 2566 02c8 E6020000 		.4byte	0x2e6
 2567 02cc 0D       		.uleb128 0xd
 2568 02cd E7070000 		.4byte	.LASF71
 2569 02d1 01       		.byte	0x1
 2570 02d2 7F03     		.2byte	0x37f
 2571 02d4 BF000000 		.4byte	0xbf
 2572 02d8 21000000 		.4byte	.LLST1
 2573 02dc 0E       		.uleb128 0xe
 2574 02dd 0E000000 		.4byte	.LVL3
 2575 02e1 87020000 		.4byte	0x287
 2576 02e5 00       		.byte	0
 2577 02e6 0C       		.uleb128 0xc
 2578 02e7 B3010000 		.4byte	.LASF72
 2579 02eb 01       		.byte	0x1
 2580 02ec C103     		.2byte	0x3c1
ARM GAS  C:\Users\faithc\AppData\Local\Temp\ccWgDYSd.s 			page 70


 2581 02ee 81000000 		.4byte	0x81
 2582 02f2 00000000 		.4byte	.LFB84
 2583 02f6 0C000000 		.4byte	.LFE84-.LFB84
 2584 02fa 01       		.uleb128 0x1
 2585 02fb 9C       		.byte	0x9c
 2586 02fc 11030000 		.4byte	0x311
 2587 0300 0D       		.uleb128 0xd
 2588 0301 E7070000 		.4byte	.LASF71
 2589 0305 01       		.byte	0x1
 2590 0306 C103     		.2byte	0x3c1
 2591 0308 BF000000 		.4byte	0xbf
 2592 030c 5B000000 		.4byte	.LLST2
 2593 0310 00       		.byte	0
 2594 0311 0C       		.uleb128 0xc
 2595 0312 5F040000 		.4byte	.LASF73
 2596 0316 01       		.byte	0x1
 2597 0317 9503     		.2byte	0x395
 2598 0319 81000000 		.4byte	0x81
 2599 031d 00000000 		.4byte	.LFB82
 2600 0321 28000000 		.4byte	.LFE82-.LFB82
 2601 0325 01       		.uleb128 0x1
 2602 0326 9C       		.byte	0x9c
 2603 0327 60030000 		.4byte	0x360
 2604 032b 0D       		.uleb128 0xd
 2605 032c E7070000 		.4byte	.LASF71
 2606 0330 01       		.byte	0x1
 2607 0331 9503     		.2byte	0x395
 2608 0333 BF000000 		.4byte	0xbf
 2609 0337 95000000 		.4byte	.LLST3
 2610 033b 0F       		.uleb128 0xf
 2611 033c 0C000000 		.4byte	.LVL11
 2612 0340 E6020000 		.4byte	0x2e6
 2613 0344 4F030000 		.4byte	0x34f
 2614 0348 10       		.uleb128 0x10
 2615 0349 01       		.uleb128 0x1
 2616 034a 50       		.byte	0x50
 2617 034b 02       		.uleb128 0x2
 2618 034c 74       		.byte	0x74
 2619 034d 00       		.sleb128 0
 2620 034e 00       		.byte	0
 2621 034f 11       		.uleb128 0x11
 2622 0350 14000000 		.4byte	.LVL12
 2623 0354 87020000 		.4byte	0x287
 2624 0358 10       		.uleb128 0x10
 2625 0359 01       		.uleb128 0x1
 2626 035a 50       		.byte	0x50
 2627 035b 02       		.uleb128 0x2
 2628 035c 74       		.byte	0x74
 2629 035d 00       		.sleb128 0
 2630 035e 00       		.byte	0
 2631 035f 00       		.byte	0
 2632 0360 0C       		.uleb128 0xc
 2633 0361 B1070000 		.4byte	.LASF74
 2634 0365 01       		.byte	0x1
 2635 0366 6303     		.2byte	0x363
 2636 0368 BF000000 		.4byte	0xbf
 2637 036c 00000000 		.4byte	.LFB80
ARM GAS  C:\Users\faithc\AppData\Local\Temp\ccWgDYSd.s 			page 71


 2638 0370 38000000 		.4byte	.LFE80-.LFB80
 2639 0374 01       		.uleb128 0x1
 2640 0375 9C       		.byte	0x9c
 2641 0376 9B030000 		.4byte	0x39b
 2642 037a 0D       		.uleb128 0xd
 2643 037b 13070000 		.4byte	.LASF75
 2644 037f 01       		.byte	0x1
 2645 0380 6303     		.2byte	0x363
 2646 0382 BF000000 		.4byte	0xbf
 2647 0386 CF000000 		.4byte	.LLST4
 2648 038a 11       		.uleb128 0x11
 2649 038b 0A000000 		.4byte	.LVL16
 2650 038f 11030000 		.4byte	0x311
 2651 0393 10       		.uleb128 0x10
 2652 0394 01       		.uleb128 0x1
 2653 0395 50       		.byte	0x50
 2654 0396 02       		.uleb128 0x2
 2655 0397 74       		.byte	0x74
 2656 0398 00       		.sleb128 0
 2657 0399 00       		.byte	0
 2658 039a 00       		.byte	0
 2659 039b 0C       		.uleb128 0xc
 2660 039c 1A040000 		.4byte	.LASF76
 2661 03a0 01       		.byte	0x1
 2662 03a1 D703     		.2byte	0x3d7
 2663 03a3 81000000 		.4byte	0x81
 2664 03a7 00000000 		.4byte	.LFB85
 2665 03ab 46000000 		.4byte	.LFE85-.LFB85
 2666 03af 01       		.uleb128 0x1
 2667 03b0 9C       		.byte	0x9c
 2668 03b1 D6030000 		.4byte	0x3d6
 2669 03b5 0D       		.uleb128 0xd
 2670 03b6 0C020000 		.4byte	.LASF77
 2671 03ba 01       		.byte	0x1
 2672 03bb D703     		.2byte	0x3d7
 2673 03bd 8E010000 		.4byte	0x18e
 2674 03c1 09010000 		.4byte	.LLST5
 2675 03c5 12       		.uleb128 0x12
 2676 03c6 26040000 		.4byte	.LASF80
 2677 03ca 01       		.byte	0x1
 2678 03cb D903     		.2byte	0x3d9
 2679 03cd 81000000 		.4byte	0x81
 2680 03d1 2A010000 		.4byte	.LLST6
 2681 03d5 00       		.byte	0
 2682 03d6 0C       		.uleb128 0xc
 2683 03d7 CB040000 		.4byte	.LASF78
 2684 03db 01       		.byte	0x1
 2685 03dc 3903     		.2byte	0x339
 2686 03de 56010000 		.4byte	0x156
 2687 03e2 00000000 		.4byte	.LFB79
 2688 03e6 56000000 		.4byte	.LFE79-.LFB79
 2689 03ea 01       		.uleb128 0x1
 2690 03eb 9C       		.byte	0x9c
 2691 03ec 23040000 		.4byte	0x423
 2692 03f0 0D       		.uleb128 0xd
 2693 03f1 7D030000 		.4byte	.LASF79
 2694 03f5 01       		.byte	0x1
ARM GAS  C:\Users\faithc\AppData\Local\Temp\ccWgDYSd.s 			page 72


 2695 03f6 3903     		.2byte	0x339
 2696 03f8 81000000 		.4byte	0x81
 2697 03fc 92010000 		.4byte	.LLST7
 2698 0400 12       		.uleb128 0x12
 2699 0401 FD010000 		.4byte	.LASF81
 2700 0405 01       		.byte	0x1
 2701 0406 3B03     		.2byte	0x33b
 2702 0408 81000000 		.4byte	0x81
 2703 040c E5010000 		.4byte	.LLST8
 2704 0410 0E       		.uleb128 0xe
 2705 0411 0C000000 		.4byte	.LVL29
 2706 0415 AA100000 		.4byte	0x10aa
 2707 0419 0E       		.uleb128 0xe
 2708 041a 12000000 		.4byte	.LVL31
 2709 041e B5100000 		.4byte	0x10b5
 2710 0422 00       		.byte	0
 2711 0423 0C       		.uleb128 0xc
 2712 0424 49060000 		.4byte	.LASF82
 2713 0428 01       		.byte	0x1
 2714 0429 1603     		.2byte	0x316
 2715 042b 81000000 		.4byte	0x81
 2716 042f 00000000 		.4byte	.LFB78
 2717 0433 4E000000 		.4byte	.LFE78-.LFB78
 2718 0437 01       		.uleb128 0x1
 2719 0438 9C       		.byte	0x9c
 2720 0439 DC040000 		.4byte	0x4dc
 2721 043d 0D       		.uleb128 0xd
 2722 043e 0F010000 		.4byte	.LASF83
 2723 0442 01       		.byte	0x1
 2724 0443 1603     		.2byte	0x316
 2725 0445 81000000 		.4byte	0x81
 2726 0449 69020000 		.4byte	.LLST9
 2727 044d 0D       		.uleb128 0xd
 2728 044e 13070000 		.4byte	.LASF75
 2729 0452 01       		.byte	0x1
 2730 0453 1603     		.2byte	0x316
 2731 0455 BF000000 		.4byte	0xbf
 2732 0459 D5020000 		.4byte	.LLST10
 2733 045d 0D       		.uleb128 0xd
 2734 045e 4A070000 		.4byte	.LASF84
 2735 0462 01       		.byte	0x1
 2736 0463 1703     		.2byte	0x317
 2737 0465 81000000 		.4byte	0x81
 2738 0469 01030000 		.4byte	.LLST11
 2739 046d 0E       		.uleb128 0xe
 2740 046e 1C000000 		.4byte	.LVL48
 2741 0472 C0100000 		.4byte	0x10c0
 2742 0476 0F       		.uleb128 0xf
 2743 0477 28000000 		.4byte	.LVL49
 2744 047b C7100000 		.4byte	0x10c7
 2745 047f 99040000 		.4byte	0x499
 2746 0483 10       		.uleb128 0x10
 2747 0484 01       		.uleb128 0x1
 2748 0485 53       		.byte	0x53
 2749 0486 01       		.uleb128 0x1
 2750 0487 30       		.byte	0x30
 2751 0488 10       		.uleb128 0x10
ARM GAS  C:\Users\faithc\AppData\Local\Temp\ccWgDYSd.s 			page 73


 2752 0489 01       		.uleb128 0x1
 2753 048a 52       		.byte	0x52
 2754 048b 01       		.uleb128 0x1
 2755 048c 30       		.byte	0x30
 2756 048d 10       		.uleb128 0x10
 2757 048e 01       		.uleb128 0x1
 2758 048f 51       		.byte	0x51
 2759 0490 01       		.uleb128 0x1
 2760 0491 30       		.byte	0x30
 2761 0492 10       		.uleb128 0x10
 2762 0493 01       		.uleb128 0x1
 2763 0494 50       		.byte	0x50
 2764 0495 02       		.uleb128 0x2
 2765 0496 74       		.byte	0x74
 2766 0497 00       		.sleb128 0
 2767 0498 00       		.byte	0
 2768 0499 0F       		.uleb128 0xf
 2769 049a 32000000 		.4byte	.LVL50
 2770 049e EB100000 		.4byte	0x10eb
 2771 04a2 B9040000 		.4byte	0x4b9
 2772 04a6 10       		.uleb128 0x10
 2773 04a7 01       		.uleb128 0x1
 2774 04a8 52       		.byte	0x52
 2775 04a9 02       		.uleb128 0x2
 2776 04aa 76       		.byte	0x76
 2777 04ab 00       		.sleb128 0
 2778 04ac 10       		.uleb128 0x10
 2779 04ad 01       		.uleb128 0x1
 2780 04ae 51       		.byte	0x51
 2781 04af 02       		.uleb128 0x2
 2782 04b0 75       		.byte	0x75
 2783 04b1 00       		.sleb128 0
 2784 04b2 10       		.uleb128 0x10
 2785 04b3 01       		.uleb128 0x1
 2786 04b4 50       		.byte	0x50
 2787 04b5 02       		.uleb128 0x2
 2788 04b6 74       		.byte	0x74
 2789 04b7 00       		.sleb128 0
 2790 04b8 00       		.byte	0
 2791 04b9 0F       		.uleb128 0xf
 2792 04ba 38000000 		.4byte	.LVL51
 2793 04be 0A110000 		.4byte	0x110a
 2794 04c2 CC040000 		.4byte	0x4cc
 2795 04c6 10       		.uleb128 0x10
 2796 04c7 01       		.uleb128 0x1
 2797 04c8 50       		.byte	0x50
 2798 04c9 01       		.uleb128 0x1
 2799 04ca 31       		.byte	0x31
 2800 04cb 00       		.byte	0
 2801 04cc 11       		.uleb128 0x11
 2802 04cd 3E000000 		.4byte	.LVL52
 2803 04d1 1B110000 		.4byte	0x111b
 2804 04d5 10       		.uleb128 0x10
 2805 04d6 01       		.uleb128 0x1
 2806 04d7 50       		.byte	0x50
 2807 04d8 01       		.uleb128 0x1
 2808 04d9 31       		.byte	0x31
ARM GAS  C:\Users\faithc\AppData\Local\Temp\ccWgDYSd.s 			page 74


 2809 04da 00       		.byte	0
 2810 04db 00       		.byte	0
 2811 04dc 0C       		.uleb128 0xc
 2812 04dd CD070000 		.4byte	.LASF85
 2813 04e1 01       		.byte	0x1
 2814 04e2 EB02     		.2byte	0x2eb
 2815 04e4 81000000 		.4byte	0x81
 2816 04e8 00000000 		.4byte	.LFB77
 2817 04ec 58000000 		.4byte	.LFE77-.LFB77
 2818 04f0 01       		.uleb128 0x1
 2819 04f1 9C       		.byte	0x9c
 2820 04f2 A6050000 		.4byte	0x5a6
 2821 04f6 0D       		.uleb128 0xd
 2822 04f7 0F010000 		.4byte	.LASF83
 2823 04fb 01       		.byte	0x1
 2824 04fc EB02     		.2byte	0x2eb
 2825 04fe 81000000 		.4byte	0x81
 2826 0502 2D030000 		.4byte	.LLST12
 2827 0506 0D       		.uleb128 0xd
 2828 0507 13070000 		.4byte	.LASF75
 2829 050b 01       		.byte	0x1
 2830 050c EB02     		.2byte	0x2eb
 2831 050e BF000000 		.4byte	0xbf
 2832 0512 99030000 		.4byte	.LLST13
 2833 0516 0D       		.uleb128 0xd
 2834 0517 4A070000 		.4byte	.LASF84
 2835 051b 01       		.byte	0x1
 2836 051c EC02     		.2byte	0x2ec
 2837 051e 81000000 		.4byte	0x81
 2838 0522 D3030000 		.4byte	.LLST14
 2839 0526 0D       		.uleb128 0xd
 2840 0527 C0060000 		.4byte	.LASF86
 2841 052b 01       		.byte	0x1
 2842 052c EC02     		.2byte	0x2ec
 2843 052e 81000000 		.4byte	0x81
 2844 0532 0D040000 		.4byte	.LLST15
 2845 0536 0E       		.uleb128 0xe
 2846 0537 1A000000 		.4byte	.LVL60
 2847 053b 2C110000 		.4byte	0x112c
 2848 053f 0F       		.uleb128 0xf
 2849 0540 24000000 		.4byte	.LVL61
 2850 0544 EB100000 		.4byte	0x10eb
 2851 0548 5D050000 		.4byte	0x55d
 2852 054c 10       		.uleb128 0x10
 2853 054d 01       		.uleb128 0x1
 2854 054e 52       		.byte	0x52
 2855 054f 01       		.uleb128 0x1
 2856 0550 30       		.byte	0x30
 2857 0551 10       		.uleb128 0x10
 2858 0552 01       		.uleb128 0x1
 2859 0553 51       		.byte	0x51
 2860 0554 01       		.uleb128 0x1
 2861 0555 30       		.byte	0x30
 2862 0556 10       		.uleb128 0x10
 2863 0557 01       		.uleb128 0x1
 2864 0558 50       		.byte	0x50
 2865 0559 02       		.uleb128 0x2
ARM GAS  C:\Users\faithc\AppData\Local\Temp\ccWgDYSd.s 			page 75


 2866 055a 74       		.byte	0x74
 2867 055b 00       		.sleb128 0
 2868 055c 00       		.byte	0
 2869 055d 0F       		.uleb128 0xf
 2870 055e 30000000 		.4byte	.LVL62
 2871 0562 C7100000 		.4byte	0x10c7
 2872 0566 83050000 		.4byte	0x583
 2873 056a 10       		.uleb128 0x10
 2874 056b 01       		.uleb128 0x1
 2875 056c 53       		.byte	0x53
 2876 056d 02       		.uleb128 0x2
 2877 056e 77       		.byte	0x77
 2878 056f 00       		.sleb128 0
 2879 0570 10       		.uleb128 0x10
 2880 0571 01       		.uleb128 0x1
 2881 0572 52       		.byte	0x52
 2882 0573 02       		.uleb128 0x2
 2883 0574 76       		.byte	0x76
 2884 0575 00       		.sleb128 0
 2885 0576 10       		.uleb128 0x10
 2886 0577 01       		.uleb128 0x1
 2887 0578 51       		.byte	0x51
 2888 0579 02       		.uleb128 0x2
 2889 057a 75       		.byte	0x75
 2890 057b 00       		.sleb128 0
 2891 057c 10       		.uleb128 0x10
 2892 057d 01       		.uleb128 0x1
 2893 057e 50       		.byte	0x50
 2894 057f 02       		.uleb128 0x2
 2895 0580 74       		.byte	0x74
 2896 0581 00       		.sleb128 0
 2897 0582 00       		.byte	0
 2898 0583 0F       		.uleb128 0xf
 2899 0584 3A000000 		.4byte	.LVL63
 2900 0588 1B110000 		.4byte	0x111b
 2901 058c 96050000 		.4byte	0x596
 2902 0590 10       		.uleb128 0x10
 2903 0591 01       		.uleb128 0x1
 2904 0592 50       		.byte	0x50
 2905 0593 01       		.uleb128 0x1
 2906 0594 31       		.byte	0x31
 2907 0595 00       		.byte	0
 2908 0596 11       		.uleb128 0x11
 2909 0597 44000000 		.4byte	.LVL64
 2910 059b 0A110000 		.4byte	0x110a
 2911 059f 10       		.uleb128 0x10
 2912 05a0 01       		.uleb128 0x1
 2913 05a1 50       		.byte	0x50
 2914 05a2 01       		.uleb128 0x1
 2915 05a3 31       		.byte	0x31
 2916 05a4 00       		.byte	0
 2917 05a5 00       		.byte	0
 2918 05a6 13       		.uleb128 0x13
 2919 05a7 E4080000 		.4byte	.LASF91
 2920 05ab 01       		.byte	0x1
 2921 05ac 65       		.byte	0x65
 2922 05ad 00000000 		.4byte	.LFB63
ARM GAS  C:\Users\faithc\AppData\Local\Temp\ccWgDYSd.s 			page 76


 2923 05b1 B4000000 		.4byte	.LFE63-.LFB63
 2924 05b5 01       		.uleb128 0x1
 2925 05b6 9C       		.byte	0x9c
 2926 05b7 AA060000 		.4byte	0x6aa
 2927 05bb 14       		.uleb128 0x14
 2928 05bc 97080000 		.4byte	.LASF87
 2929 05c0 01       		.byte	0x1
 2930 05c1 67       		.byte	0x67
 2931 05c2 81000000 		.4byte	0x81
 2932 05c6 47040000 		.4byte	.LLST16
 2933 05ca 14       		.uleb128 0x14
 2934 05cb C0000000 		.4byte	.LASF88
 2935 05cf 01       		.byte	0x1
 2936 05d0 68       		.byte	0x68
 2937 05d1 81000000 		.4byte	0x81
 2938 05d5 66040000 		.4byte	.LLST17
 2939 05d9 14       		.uleb128 0x14
 2940 05da 4D050000 		.4byte	.LASF89
 2941 05de 01       		.byte	0x1
 2942 05df 69       		.byte	0x69
 2943 05e0 81000000 		.4byte	0x81
 2944 05e4 C8040000 		.4byte	.LLST18
 2945 05e8 14       		.uleb128 0x14
 2946 05e9 A6010000 		.4byte	.LASF90
 2947 05ed 01       		.byte	0x1
 2948 05ee 6A       		.byte	0x6a
 2949 05ef 8C000000 		.4byte	0x8c
 2950 05f3 40050000 		.4byte	.LLST19
 2951 05f7 0E       		.uleb128 0xe
 2952 05f8 06000000 		.4byte	.LVL73
 2953 05fc 33110000 		.4byte	0x1133
 2954 0600 0F       		.uleb128 0xf
 2955 0601 1A000000 		.4byte	.LVL76
 2956 0605 3A110000 		.4byte	0x113a
 2957 0609 1E060000 		.4byte	0x61e
 2958 060d 10       		.uleb128 0x10
 2959 060e 01       		.uleb128 0x1
 2960 060f 50       		.byte	0x50
 2961 0610 0C       		.uleb128 0xc
 2962 0611 75       		.byte	0x75
 2963 0612 00       		.sleb128 0
 2964 0613 31       		.byte	0x31
 2965 0614 24       		.byte	0x24
 2966 0615 75       		.byte	0x75
 2967 0616 00       		.sleb128 0
 2968 0617 22       		.byte	0x22
 2969 0618 31       		.byte	0x31
 2970 0619 24       		.byte	0x24
 2971 061a 74       		.byte	0x74
 2972 061b 00       		.sleb128 0
 2973 061c 22       		.byte	0x22
 2974 061d 00       		.byte	0
 2975 061e 0F       		.uleb128 0xf
 2976 061f 3E000000 		.4byte	.LVL85
 2977 0623 3A110000 		.4byte	0x113a
 2978 0627 32060000 		.4byte	0x632
 2979 062b 10       		.uleb128 0x10
ARM GAS  C:\Users\faithc\AppData\Local\Temp\ccWgDYSd.s 			page 77


 2980 062c 01       		.uleb128 0x1
 2981 062d 50       		.byte	0x50
 2982 062e 02       		.uleb128 0x2
 2983 062f 08       		.byte	0x8
 2984 0630 FF       		.byte	0xff
 2985 0631 00       		.byte	0
 2986 0632 0E       		.uleb128 0xe
 2987 0633 46000000 		.4byte	.LVL86
 2988 0637 4F110000 		.4byte	0x114f
 2989 063b 0F       		.uleb128 0xf
 2990 063c 5C000000 		.4byte	.LVL89
 2991 0640 5A110000 		.4byte	0x115a
 2992 0644 75060000 		.4byte	0x675
 2993 0648 10       		.uleb128 0x10
 2994 0649 01       		.uleb128 0x1
 2995 064a 51       		.byte	0x51
 2996 064b 0C       		.uleb128 0xc
 2997 064c 75       		.byte	0x75
 2998 064d 00       		.sleb128 0
 2999 064e 31       		.byte	0x31
 3000 064f 24       		.byte	0x24
 3001 0650 75       		.byte	0x75
 3002 0651 00       		.sleb128 0
 3003 0652 22       		.byte	0x22
 3004 0653 31       		.byte	0x31
 3005 0654 24       		.byte	0x24
 3006 0655 74       		.byte	0x74
 3007 0656 00       		.sleb128 0
 3008 0657 22       		.byte	0x22
 3009 0658 10       		.uleb128 0x10
 3010 0659 01       		.uleb128 0x1
 3011 065a 50       		.byte	0x50
 3012 065b 18       		.uleb128 0x18
 3013 065c 75       		.byte	0x75
 3014 065d 00       		.sleb128 0
 3015 065e 31       		.byte	0x31
 3016 065f 24       		.byte	0x24
 3017 0660 75       		.byte	0x75
 3018 0661 00       		.sleb128 0
 3019 0662 22       		.byte	0x22
 3020 0663 31       		.byte	0x31
 3021 0664 24       		.byte	0x24
 3022 0665 74       		.byte	0x74
 3023 0666 00       		.sleb128 0
 3024 0667 22       		.byte	0x22
 3025 0668 0A       		.byte	0xa
 3026 0669 FFFF     		.2byte	0xffff
 3027 066b 1A       		.byte	0x1a
 3028 066c 03       		.byte	0x3
 3029 066d 00000000 		.4byte	.LANCHOR0
 3030 0671 22       		.byte	0x22
 3031 0672 94       		.byte	0x94
 3032 0673 01       		.byte	0x1
 3033 0674 00       		.byte	0
 3034 0675 0F       		.uleb128 0xf
 3035 0676 78000000 		.4byte	.LVL96
 3036 067a 5A110000 		.4byte	0x115a
ARM GAS  C:\Users\faithc\AppData\Local\Temp\ccWgDYSd.s 			page 78


 3037 067e 8F060000 		.4byte	0x68f
 3038 0682 10       		.uleb128 0x10
 3039 0683 01       		.uleb128 0x1
 3040 0684 51       		.byte	0x51
 3041 0685 02       		.uleb128 0x2
 3042 0686 08       		.byte	0x8
 3043 0687 FF       		.byte	0xff
 3044 0688 10       		.uleb128 0x10
 3045 0689 01       		.uleb128 0x1
 3046 068a 50       		.byte	0x50
 3047 068b 02       		.uleb128 0x2
 3048 068c 09       		.byte	0x9
 3049 068d AA       		.byte	0xaa
 3050 068e 00       		.byte	0
 3051 068f 11       		.uleb128 0x11
 3052 0690 8A000000 		.4byte	.LVL100
 3053 0694 3A110000 		.4byte	0x113a
 3054 0698 10       		.uleb128 0x10
 3055 0699 01       		.uleb128 0x1
 3056 069a 50       		.byte	0x50
 3057 069b 0C       		.uleb128 0xc
 3058 069c 75       		.byte	0x75
 3059 069d 00       		.sleb128 0
 3060 069e 31       		.byte	0x31
 3061 069f 24       		.byte	0x24
 3062 06a0 75       		.byte	0x75
 3063 06a1 00       		.sleb128 0
 3064 06a2 22       		.byte	0x22
 3065 06a3 31       		.byte	0x31
 3066 06a4 24       		.byte	0x24
 3067 06a5 74       		.byte	0x74
 3068 06a6 00       		.sleb128 0
 3069 06a7 22       		.byte	0x22
 3070 06a8 00       		.byte	0
 3071 06a9 00       		.byte	0
 3072 06aa 13       		.uleb128 0x13
 3073 06ab 24050000 		.4byte	.LASF92
 3074 06af 01       		.byte	0x1
 3075 06b0 A3       		.byte	0xa3
 3076 06b1 00000000 		.4byte	.LFB64
 3077 06b5 18000000 		.4byte	.LFE64-.LFB64
 3078 06b9 01       		.uleb128 0x1
 3079 06ba 9C       		.byte	0x9c
 3080 06bb ED060000 		.4byte	0x6ed
 3081 06bf 0E       		.uleb128 0xe
 3082 06c0 06000000 		.4byte	.LVL111
 3083 06c4 74110000 		.4byte	0x1174
 3084 06c8 0E       		.uleb128 0xe
 3085 06c9 0A000000 		.4byte	.LVL112
 3086 06cd 7B110000 		.4byte	0x117b
 3087 06d1 0E       		.uleb128 0xe
 3088 06d2 0E000000 		.4byte	.LVL113
 3089 06d6 82110000 		.4byte	0x1182
 3090 06da 0E       		.uleb128 0xe
 3091 06db 12000000 		.4byte	.LVL114
 3092 06df 89110000 		.4byte	0x1189
 3093 06e3 0E       		.uleb128 0xe
ARM GAS  C:\Users\faithc\AppData\Local\Temp\ccWgDYSd.s 			page 79


 3094 06e4 16000000 		.4byte	.LVL115
 3095 06e8 90110000 		.4byte	0x1190
 3096 06ec 00       		.byte	0
 3097 06ed 13       		.uleb128 0x13
 3098 06ee AF050000 		.4byte	.LASF93
 3099 06f2 01       		.byte	0x1
 3100 06f3 BC       		.byte	0xbc
 3101 06f4 00000000 		.4byte	.LFB65
 3102 06f8 18000000 		.4byte	.LFE65-.LFB65
 3103 06fc 01       		.uleb128 0x1
 3104 06fd 9C       		.byte	0x9c
 3105 06fe 30070000 		.4byte	0x730
 3106 0702 0E       		.uleb128 0xe
 3107 0703 06000000 		.4byte	.LVL116
 3108 0707 97110000 		.4byte	0x1197
 3109 070b 0E       		.uleb128 0xe
 3110 070c 0A000000 		.4byte	.LVL117
 3111 0710 9E110000 		.4byte	0x119e
 3112 0714 0E       		.uleb128 0xe
 3113 0715 0E000000 		.4byte	.LVL118
 3114 0719 A5110000 		.4byte	0x11a5
 3115 071d 0E       		.uleb128 0xe
 3116 071e 12000000 		.4byte	.LVL119
 3117 0722 AC110000 		.4byte	0x11ac
 3118 0726 0E       		.uleb128 0xe
 3119 0727 16000000 		.4byte	.LVL120
 3120 072b B3110000 		.4byte	0x11b3
 3121 072f 00       		.byte	0
 3122 0730 15       		.uleb128 0x15
 3123 0731 57070000 		.4byte	.LASF94
 3124 0735 01       		.byte	0x1
 3125 0736 0B02     		.2byte	0x20b
 3126 0738 00000000 		.4byte	.LFB74
 3127 073c 1C000000 		.4byte	.LFE74-.LFB74
 3128 0740 01       		.uleb128 0x1
 3129 0741 9C       		.byte	0x9c
 3130 0742 8F070000 		.4byte	0x78f
 3131 0746 0F       		.uleb128 0xf
 3132 0747 08000000 		.4byte	.LVL121
 3133 074b BA110000 		.4byte	0x11ba
 3134 074f 59070000 		.4byte	0x759
 3135 0753 10       		.uleb128 0x10
 3136 0754 01       		.uleb128 0x1
 3137 0755 50       		.byte	0x50
 3138 0756 01       		.uleb128 0x1
 3139 0757 30       		.byte	0x30
 3140 0758 00       		.byte	0
 3141 0759 0F       		.uleb128 0xf
 3142 075a 0E000000 		.4byte	.LVL122
 3143 075e BA110000 		.4byte	0x11ba
 3144 0762 6C070000 		.4byte	0x76c
 3145 0766 10       		.uleb128 0x10
 3146 0767 01       		.uleb128 0x1
 3147 0768 50       		.byte	0x50
 3148 0769 01       		.uleb128 0x1
 3149 076a 31       		.byte	0x31
 3150 076b 00       		.byte	0
ARM GAS  C:\Users\faithc\AppData\Local\Temp\ccWgDYSd.s 			page 80


 3151 076c 0F       		.uleb128 0xf
 3152 076d 14000000 		.4byte	.LVL123
 3153 0771 CF110000 		.4byte	0x11cf
 3154 0775 7F070000 		.4byte	0x77f
 3155 0779 10       		.uleb128 0x10
 3156 077a 01       		.uleb128 0x1
 3157 077b 50       		.byte	0x50
 3158 077c 01       		.uleb128 0x1
 3159 077d 30       		.byte	0x30
 3160 077e 00       		.byte	0
 3161 077f 11       		.uleb128 0x11
 3162 0780 1A000000 		.4byte	.LVL124
 3163 0784 CF110000 		.4byte	0x11cf
 3164 0788 10       		.uleb128 0x10
 3165 0789 01       		.uleb128 0x1
 3166 078a 50       		.byte	0x50
 3167 078b 01       		.uleb128 0x1
 3168 078c 31       		.byte	0x31
 3169 078d 00       		.byte	0
 3170 078e 00       		.byte	0
 3171 078f 15       		.uleb128 0x15
 3172 0790 64060000 		.4byte	.LASF95
 3173 0794 01       		.byte	0x1
 3174 0795 2202     		.2byte	0x222
 3175 0797 00000000 		.4byte	.LFB75
 3176 079b 44000000 		.4byte	.LFE75-.LFB75
 3177 079f 01       		.uleb128 0x1
 3178 07a0 9C       		.byte	0x9c
 3179 07a1 58080000 		.4byte	0x858
 3180 07a5 0E       		.uleb128 0xe
 3181 07a6 06000000 		.4byte	.LVL125
 3182 07aa C0100000 		.4byte	0x10c0
 3183 07ae 0E       		.uleb128 0xe
 3184 07af 0A000000 		.4byte	.LVL126
 3185 07b3 2C110000 		.4byte	0x112c
 3186 07b7 0F       		.uleb128 0xf
 3187 07b8 10000000 		.4byte	.LVL127
 3188 07bc 0A110000 		.4byte	0x110a
 3189 07c0 CA070000 		.4byte	0x7ca
 3190 07c4 10       		.uleb128 0x10
 3191 07c5 01       		.uleb128 0x1
 3192 07c6 50       		.byte	0x50
 3193 07c7 01       		.uleb128 0x1
 3194 07c8 30       		.byte	0x30
 3195 07c9 00       		.byte	0
 3196 07ca 0F       		.uleb128 0xf
 3197 07cb 16000000 		.4byte	.LVL128
 3198 07cf 1B110000 		.4byte	0x111b
 3199 07d3 DD070000 		.4byte	0x7dd
 3200 07d7 10       		.uleb128 0x10
 3201 07d8 01       		.uleb128 0x1
 3202 07d9 50       		.byte	0x50
 3203 07da 01       		.uleb128 0x1
 3204 07db 30       		.byte	0x30
 3205 07dc 00       		.byte	0
 3206 07dd 0F       		.uleb128 0xf
 3207 07de 20000000 		.4byte	.LVL129
ARM GAS  C:\Users\faithc\AppData\Local\Temp\ccWgDYSd.s 			page 81


 3208 07e2 EB100000 		.4byte	0x10eb
 3209 07e6 FA070000 		.4byte	0x7fa
 3210 07ea 10       		.uleb128 0x10
 3211 07eb 01       		.uleb128 0x1
 3212 07ec 52       		.byte	0x52
 3213 07ed 01       		.uleb128 0x1
 3214 07ee 30       		.byte	0x30
 3215 07ef 10       		.uleb128 0x10
 3216 07f0 01       		.uleb128 0x1
 3217 07f1 51       		.byte	0x51
 3218 07f2 01       		.uleb128 0x1
 3219 07f3 30       		.byte	0x30
 3220 07f4 10       		.uleb128 0x10
 3221 07f5 01       		.uleb128 0x1
 3222 07f6 50       		.byte	0x50
 3223 07f7 01       		.uleb128 0x1
 3224 07f8 30       		.byte	0x30
 3225 07f9 00       		.byte	0
 3226 07fa 0F       		.uleb128 0xf
 3227 07fb 2A000000 		.4byte	.LVL130
 3228 07ff EB100000 		.4byte	0x10eb
 3229 0803 17080000 		.4byte	0x817
 3230 0807 10       		.uleb128 0x10
 3231 0808 01       		.uleb128 0x1
 3232 0809 52       		.byte	0x52
 3233 080a 01       		.uleb128 0x1
 3234 080b 30       		.byte	0x30
 3235 080c 10       		.uleb128 0x10
 3236 080d 01       		.uleb128 0x1
 3237 080e 51       		.byte	0x51
 3238 080f 01       		.uleb128 0x1
 3239 0810 30       		.byte	0x30
 3240 0811 10       		.uleb128 0x10
 3241 0812 01       		.uleb128 0x1
 3242 0813 50       		.byte	0x50
 3243 0814 01       		.uleb128 0x1
 3244 0815 31       		.byte	0x31
 3245 0816 00       		.byte	0
 3246 0817 0F       		.uleb128 0xf
 3247 0818 36000000 		.4byte	.LVL131
 3248 081c C7100000 		.4byte	0x10c7
 3249 0820 39080000 		.4byte	0x839
 3250 0824 10       		.uleb128 0x10
 3251 0825 01       		.uleb128 0x1
 3252 0826 53       		.byte	0x53
 3253 0827 01       		.uleb128 0x1
 3254 0828 30       		.byte	0x30
 3255 0829 10       		.uleb128 0x10
 3256 082a 01       		.uleb128 0x1
 3257 082b 52       		.byte	0x52
 3258 082c 01       		.uleb128 0x1
 3259 082d 30       		.byte	0x30
 3260 082e 10       		.uleb128 0x10
 3261 082f 01       		.uleb128 0x1
 3262 0830 51       		.byte	0x51
 3263 0831 01       		.uleb128 0x1
 3264 0832 30       		.byte	0x30
ARM GAS  C:\Users\faithc\AppData\Local\Temp\ccWgDYSd.s 			page 82


 3265 0833 10       		.uleb128 0x10
 3266 0834 01       		.uleb128 0x1
 3267 0835 50       		.byte	0x50
 3268 0836 01       		.uleb128 0x1
 3269 0837 30       		.byte	0x30
 3270 0838 00       		.byte	0
 3271 0839 11       		.uleb128 0x11
 3272 083a 42000000 		.4byte	.LVL132
 3273 083e C7100000 		.4byte	0x10c7
 3274 0842 10       		.uleb128 0x10
 3275 0843 01       		.uleb128 0x1
 3276 0844 53       		.byte	0x53
 3277 0845 01       		.uleb128 0x1
 3278 0846 30       		.byte	0x30
 3279 0847 10       		.uleb128 0x10
 3280 0848 01       		.uleb128 0x1
 3281 0849 52       		.byte	0x52
 3282 084a 01       		.uleb128 0x1
 3283 084b 30       		.byte	0x30
 3284 084c 10       		.uleb128 0x10
 3285 084d 01       		.uleb128 0x1
 3286 084e 51       		.byte	0x51
 3287 084f 01       		.uleb128 0x1
 3288 0850 30       		.byte	0x30
 3289 0851 10       		.uleb128 0x10
 3290 0852 01       		.uleb128 0x1
 3291 0853 50       		.byte	0x50
 3292 0854 01       		.uleb128 0x1
 3293 0855 31       		.byte	0x31
 3294 0856 00       		.byte	0
 3295 0857 00       		.byte	0
 3296 0858 16       		.uleb128 0x16
 3297 0859 35000000 		.4byte	.LASF153
 3298 085d 01       		.byte	0x1
 3299 085e 3C02     		.2byte	0x23c
 3300 0860 00000000 		.4byte	.LFB76
 3301 0864 88020000 		.4byte	.LFE76-.LFB76
 3302 0868 01       		.uleb128 0x1
 3303 0869 9C       		.byte	0x9c
 3304 086a A70C0000 		.4byte	0xca7
 3305 086e 17       		.uleb128 0x17
 3306 086f BA010000 		.4byte	.LASF96
 3307 0873 01       		.byte	0x1
 3308 0874 3E02     		.2byte	0x23e
 3309 0876 81000000 		.4byte	0x81
 3310 087a 05       		.uleb128 0x5
 3311 087b 03       		.byte	0x3
 3312 087c 1B000000 		.4byte	bToneChangeOnHornRing.7384
 3313 0880 0E       		.uleb128 0xe
 3314 0881 06000000 		.4byte	.LVL133
 3315 0885 30070000 		.4byte	0x730
 3316 0889 0F       		.uleb128 0xf
 3317 088a 20000000 		.4byte	.LVL134
 3318 088e 11030000 		.4byte	0x311
 3319 0892 9D080000 		.4byte	0x89d
 3320 0896 10       		.uleb128 0x10
 3321 0897 01       		.uleb128 0x1
ARM GAS  C:\Users\faithc\AppData\Local\Temp\ccWgDYSd.s 			page 83


 3322 0898 50       		.byte	0x50
 3323 0899 02       		.uleb128 0x2
 3324 089a 74       		.byte	0x74
 3325 089b 00       		.sleb128 0
 3326 089c 00       		.byte	0
 3327 089d 0F       		.uleb128 0xf
 3328 089e 28000000 		.4byte	.LVL135
 3329 08a2 E6020000 		.4byte	0x2e6
 3330 08a6 B1080000 		.4byte	0x8b1
 3331 08aa 10       		.uleb128 0x10
 3332 08ab 01       		.uleb128 0x1
 3333 08ac 50       		.byte	0x50
 3334 08ad 02       		.uleb128 0x2
 3335 08ae 74       		.byte	0x74
 3336 08af 00       		.sleb128 0
 3337 08b0 00       		.byte	0
 3338 08b1 0F       		.uleb128 0xf
 3339 08b2 3A000000 		.4byte	.LVL136
 3340 08b6 23040000 		.4byte	0x423
 3341 08ba CF080000 		.4byte	0x8cf
 3342 08be 10       		.uleb128 0x10
 3343 08bf 01       		.uleb128 0x1
 3344 08c0 52       		.byte	0x52
 3345 08c1 01       		.uleb128 0x1
 3346 08c2 31       		.byte	0x31
 3347 08c3 10       		.uleb128 0x10
 3348 08c4 01       		.uleb128 0x1
 3349 08c5 51       		.byte	0x51
 3350 08c6 02       		.uleb128 0x2
 3351 08c7 74       		.byte	0x74
 3352 08c8 00       		.sleb128 0
 3353 08c9 10       		.uleb128 0x10
 3354 08ca 01       		.uleb128 0x1
 3355 08cb 50       		.byte	0x50
 3356 08cc 01       		.uleb128 0x1
 3357 08cd 30       		.byte	0x30
 3358 08ce 00       		.byte	0
 3359 08cf 0E       		.uleb128 0xe
 3360 08d0 40000000 		.4byte	.LVL137
 3361 08d4 8F070000 		.4byte	0x78f
 3362 08d8 0F       		.uleb128 0xf
 3363 08d9 4C000000 		.4byte	.LVL138
 3364 08dd 23040000 		.4byte	0x423
 3365 08e1 F6080000 		.4byte	0x8f6
 3366 08e5 10       		.uleb128 0x10
 3367 08e6 01       		.uleb128 0x1
 3368 08e7 52       		.byte	0x52
 3369 08e8 01       		.uleb128 0x1
 3370 08e9 31       		.byte	0x31
 3371 08ea 10       		.uleb128 0x10
 3372 08eb 01       		.uleb128 0x1
 3373 08ec 51       		.byte	0x51
 3374 08ed 02       		.uleb128 0x2
 3375 08ee 74       		.byte	0x74
 3376 08ef 00       		.sleb128 0
 3377 08f0 10       		.uleb128 0x10
 3378 08f1 01       		.uleb128 0x1
ARM GAS  C:\Users\faithc\AppData\Local\Temp\ccWgDYSd.s 			page 84


 3379 08f2 50       		.byte	0x50
 3380 08f3 01       		.uleb128 0x1
 3381 08f4 30       		.byte	0x30
 3382 08f5 00       		.byte	0
 3383 08f6 0F       		.uleb128 0xf
 3384 08f7 58000000 		.4byte	.LVL139
 3385 08fb 11030000 		.4byte	0x311
 3386 08ff 0A090000 		.4byte	0x90a
 3387 0903 10       		.uleb128 0x10
 3388 0904 01       		.uleb128 0x1
 3389 0905 50       		.byte	0x50
 3390 0906 02       		.uleb128 0x2
 3391 0907 75       		.byte	0x75
 3392 0908 00       		.sleb128 0
 3393 0909 00       		.byte	0
 3394 090a 0F       		.uleb128 0xf
 3395 090b 60000000 		.4byte	.LVL140
 3396 090f E6020000 		.4byte	0x2e6
 3397 0913 1E090000 		.4byte	0x91e
 3398 0917 10       		.uleb128 0x10
 3399 0918 01       		.uleb128 0x1
 3400 0919 50       		.byte	0x50
 3401 091a 02       		.uleb128 0x2
 3402 091b 75       		.byte	0x75
 3403 091c 00       		.sleb128 0
 3404 091d 00       		.byte	0
 3405 091e 0F       		.uleb128 0xf
 3406 091f 72000000 		.4byte	.LVL141
 3407 0923 23040000 		.4byte	0x423
 3408 0927 3C090000 		.4byte	0x93c
 3409 092b 10       		.uleb128 0x10
 3410 092c 01       		.uleb128 0x1
 3411 092d 52       		.byte	0x52
 3412 092e 01       		.uleb128 0x1
 3413 092f 31       		.byte	0x31
 3414 0930 10       		.uleb128 0x10
 3415 0931 01       		.uleb128 0x1
 3416 0932 51       		.byte	0x51
 3417 0933 02       		.uleb128 0x2
 3418 0934 75       		.byte	0x75
 3419 0935 00       		.sleb128 0
 3420 0936 10       		.uleb128 0x10
 3421 0937 01       		.uleb128 0x1
 3422 0938 50       		.byte	0x50
 3423 0939 01       		.uleb128 0x1
 3424 093a 31       		.byte	0x31
 3425 093b 00       		.byte	0
 3426 093c 0E       		.uleb128 0xe
 3427 093d 78000000 		.4byte	.LVL142
 3428 0941 8F070000 		.4byte	0x78f
 3429 0945 0F       		.uleb128 0xf
 3430 0946 84000000 		.4byte	.LVL143
 3431 094a 23040000 		.4byte	0x423
 3432 094e 63090000 		.4byte	0x963
 3433 0952 10       		.uleb128 0x10
 3434 0953 01       		.uleb128 0x1
 3435 0954 52       		.byte	0x52
ARM GAS  C:\Users\faithc\AppData\Local\Temp\ccWgDYSd.s 			page 85


 3436 0955 01       		.uleb128 0x1
 3437 0956 31       		.byte	0x31
 3438 0957 10       		.uleb128 0x10
 3439 0958 01       		.uleb128 0x1
 3440 0959 51       		.byte	0x51
 3441 095a 02       		.uleb128 0x2
 3442 095b 75       		.byte	0x75
 3443 095c 00       		.sleb128 0
 3444 095d 10       		.uleb128 0x10
 3445 095e 01       		.uleb128 0x1
 3446 095f 50       		.byte	0x50
 3447 0960 01       		.uleb128 0x1
 3448 0961 31       		.byte	0x31
 3449 0962 00       		.byte	0
 3450 0963 0E       		.uleb128 0xe
 3451 0964 90000000 		.4byte	.LVL144
 3452 0968 8F070000 		.4byte	0x78f
 3453 096c 0E       		.uleb128 0xe
 3454 096d A8000000 		.4byte	.LVL145
 3455 0971 8F070000 		.4byte	0x78f
 3456 0975 0F       		.uleb128 0xf
 3457 0976 B6000000 		.4byte	.LVL146
 3458 097a 60030000 		.4byte	0x360
 3459 097e 89090000 		.4byte	0x989
 3460 0982 10       		.uleb128 0x10
 3461 0983 01       		.uleb128 0x1
 3462 0984 50       		.byte	0x50
 3463 0985 02       		.uleb128 0x2
 3464 0986 74       		.byte	0x74
 3465 0987 00       		.sleb128 0
 3466 0988 00       		.byte	0
 3467 0989 0F       		.uleb128 0xf
 3468 098a C4000000 		.4byte	.LVL147
 3469 098e DC040000 		.4byte	0x4dc
 3470 0992 A1090000 		.4byte	0x9a1
 3471 0996 10       		.uleb128 0x10
 3472 0997 01       		.uleb128 0x1
 3473 0998 52       		.byte	0x52
 3474 0999 01       		.uleb128 0x1
 3475 099a 31       		.byte	0x31
 3476 099b 10       		.uleb128 0x10
 3477 099c 01       		.uleb128 0x1
 3478 099d 50       		.byte	0x50
 3479 099e 01       		.uleb128 0x1
 3480 099f 30       		.byte	0x30
 3481 09a0 00       		.byte	0
 3482 09a1 0E       		.uleb128 0xe
 3483 09a2 CC000000 		.4byte	.LVL148
 3484 09a6 60030000 		.4byte	0x360
 3485 09aa 0F       		.uleb128 0xf
 3486 09ab D8000000 		.4byte	.LVL149
 3487 09af DC040000 		.4byte	0x4dc
 3488 09b3 C2090000 		.4byte	0x9c2
 3489 09b7 10       		.uleb128 0x10
 3490 09b8 01       		.uleb128 0x1
 3491 09b9 52       		.byte	0x52
 3492 09ba 01       		.uleb128 0x1
ARM GAS  C:\Users\faithc\AppData\Local\Temp\ccWgDYSd.s 			page 86


 3493 09bb 31       		.byte	0x31
 3494 09bc 10       		.uleb128 0x10
 3495 09bd 01       		.uleb128 0x1
 3496 09be 50       		.byte	0x50
 3497 09bf 01       		.uleb128 0x1
 3498 09c0 31       		.byte	0x31
 3499 09c1 00       		.byte	0
 3500 09c2 0F       		.uleb128 0xf
 3501 09c3 E0000000 		.4byte	.LVL150
 3502 09c7 1B110000 		.4byte	0x111b
 3503 09cb D5090000 		.4byte	0x9d5
 3504 09cf 10       		.uleb128 0x10
 3505 09d0 01       		.uleb128 0x1
 3506 09d1 50       		.byte	0x50
 3507 09d2 01       		.uleb128 0x1
 3508 09d3 30       		.byte	0x30
 3509 09d4 00       		.byte	0
 3510 09d5 0F       		.uleb128 0xf
 3511 09d6 EE000000 		.4byte	.LVL151
 3512 09da DC040000 		.4byte	0x4dc
 3513 09de F2090000 		.4byte	0x9f2
 3514 09e2 10       		.uleb128 0x10
 3515 09e3 01       		.uleb128 0x1
 3516 09e4 52       		.byte	0x52
 3517 09e5 01       		.uleb128 0x1
 3518 09e6 30       		.byte	0x30
 3519 09e7 10       		.uleb128 0x10
 3520 09e8 01       		.uleb128 0x1
 3521 09e9 51       		.byte	0x51
 3522 09ea 01       		.uleb128 0x1
 3523 09eb 30       		.byte	0x30
 3524 09ec 10       		.uleb128 0x10
 3525 09ed 01       		.uleb128 0x1
 3526 09ee 50       		.byte	0x50
 3527 09ef 01       		.uleb128 0x1
 3528 09f0 31       		.byte	0x31
 3529 09f1 00       		.byte	0
 3530 09f2 0F       		.uleb128 0xf
 3531 09f3 FE000000 		.4byte	.LVL152
 3532 09f7 DC040000 		.4byte	0x4dc
 3533 09fb 100A0000 		.4byte	0xa10
 3534 09ff 10       		.uleb128 0x10
 3535 0a00 01       		.uleb128 0x1
 3536 0a01 52       		.byte	0x52
 3537 0a02 01       		.uleb128 0x1
 3538 0a03 31       		.byte	0x31
 3539 0a04 10       		.uleb128 0x10
 3540 0a05 01       		.uleb128 0x1
 3541 0a06 51       		.byte	0x51
 3542 0a07 02       		.uleb128 0x2
 3543 0a08 74       		.byte	0x74
 3544 0a09 00       		.sleb128 0
 3545 0a0a 10       		.uleb128 0x10
 3546 0a0b 01       		.uleb128 0x1
 3547 0a0c 50       		.byte	0x50
 3548 0a0d 01       		.uleb128 0x1
 3549 0a0e 30       		.byte	0x30
ARM GAS  C:\Users\faithc\AppData\Local\Temp\ccWgDYSd.s 			page 87


 3550 0a0f 00       		.byte	0
 3551 0a10 0F       		.uleb128 0xf
 3552 0a11 0C010000 		.4byte	.LVL153
 3553 0a15 DC040000 		.4byte	0x4dc
 3554 0a19 280A0000 		.4byte	0xa28
 3555 0a1d 10       		.uleb128 0x10
 3556 0a1e 01       		.uleb128 0x1
 3557 0a1f 52       		.byte	0x52
 3558 0a20 01       		.uleb128 0x1
 3559 0a21 31       		.byte	0x31
 3560 0a22 10       		.uleb128 0x10
 3561 0a23 01       		.uleb128 0x1
 3562 0a24 50       		.byte	0x50
 3563 0a25 01       		.uleb128 0x1
 3564 0a26 31       		.byte	0x31
 3565 0a27 00       		.byte	0
 3566 0a28 0F       		.uleb128 0xf
 3567 0a29 14010000 		.4byte	.LVL154
 3568 0a2d 1B110000 		.4byte	0x111b
 3569 0a31 3B0A0000 		.4byte	0xa3b
 3570 0a35 10       		.uleb128 0x10
 3571 0a36 01       		.uleb128 0x1
 3572 0a37 50       		.byte	0x50
 3573 0a38 01       		.uleb128 0x1
 3574 0a39 30       		.byte	0x30
 3575 0a3a 00       		.byte	0
 3576 0a3b 0F       		.uleb128 0xf
 3577 0a3c 22010000 		.4byte	.LVL155
 3578 0a40 DC040000 		.4byte	0x4dc
 3579 0a44 580A0000 		.4byte	0xa58
 3580 0a48 10       		.uleb128 0x10
 3581 0a49 01       		.uleb128 0x1
 3582 0a4a 52       		.byte	0x52
 3583 0a4b 01       		.uleb128 0x1
 3584 0a4c 30       		.byte	0x30
 3585 0a4d 10       		.uleb128 0x10
 3586 0a4e 01       		.uleb128 0x1
 3587 0a4f 51       		.byte	0x51
 3588 0a50 01       		.uleb128 0x1
 3589 0a51 30       		.byte	0x30
 3590 0a52 10       		.uleb128 0x10
 3591 0a53 01       		.uleb128 0x1
 3592 0a54 50       		.byte	0x50
 3593 0a55 01       		.uleb128 0x1
 3594 0a56 31       		.byte	0x31
 3595 0a57 00       		.byte	0
 3596 0a58 0F       		.uleb128 0xf
 3597 0a59 32010000 		.4byte	.LVL156
 3598 0a5d 11030000 		.4byte	0x311
 3599 0a61 6C0A0000 		.4byte	0xa6c
 3600 0a65 10       		.uleb128 0x10
 3601 0a66 01       		.uleb128 0x1
 3602 0a67 50       		.byte	0x50
 3603 0a68 02       		.uleb128 0x2
 3604 0a69 74       		.byte	0x74
 3605 0a6a 00       		.sleb128 0
 3606 0a6b 00       		.byte	0
ARM GAS  C:\Users\faithc\AppData\Local\Temp\ccWgDYSd.s 			page 88


 3607 0a6c 0F       		.uleb128 0xf
 3608 0a6d 3A010000 		.4byte	.LVL157
 3609 0a71 E6020000 		.4byte	0x2e6
 3610 0a75 800A0000 		.4byte	0xa80
 3611 0a79 10       		.uleb128 0x10
 3612 0a7a 01       		.uleb128 0x1
 3613 0a7b 50       		.byte	0x50
 3614 0a7c 02       		.uleb128 0x2
 3615 0a7d 74       		.byte	0x74
 3616 0a7e 00       		.sleb128 0
 3617 0a7f 00       		.byte	0
 3618 0a80 0F       		.uleb128 0xf
 3619 0a81 4C010000 		.4byte	.LVL158
 3620 0a85 23040000 		.4byte	0x423
 3621 0a89 9E0A0000 		.4byte	0xa9e
 3622 0a8d 10       		.uleb128 0x10
 3623 0a8e 01       		.uleb128 0x1
 3624 0a8f 52       		.byte	0x52
 3625 0a90 01       		.uleb128 0x1
 3626 0a91 31       		.byte	0x31
 3627 0a92 10       		.uleb128 0x10
 3628 0a93 01       		.uleb128 0x1
 3629 0a94 51       		.byte	0x51
 3630 0a95 02       		.uleb128 0x2
 3631 0a96 74       		.byte	0x74
 3632 0a97 00       		.sleb128 0
 3633 0a98 10       		.uleb128 0x10
 3634 0a99 01       		.uleb128 0x1
 3635 0a9a 50       		.byte	0x50
 3636 0a9b 01       		.uleb128 0x1
 3637 0a9c 31       		.byte	0x31
 3638 0a9d 00       		.byte	0
 3639 0a9e 0E       		.uleb128 0xe
 3640 0a9f 52010000 		.4byte	.LVL159
 3641 0aa3 8F070000 		.4byte	0x78f
 3642 0aa7 0F       		.uleb128 0xf
 3643 0aa8 5E010000 		.4byte	.LVL160
 3644 0aac 23040000 		.4byte	0x423
 3645 0ab0 C50A0000 		.4byte	0xac5
 3646 0ab4 10       		.uleb128 0x10
 3647 0ab5 01       		.uleb128 0x1
 3648 0ab6 52       		.byte	0x52
 3649 0ab7 01       		.uleb128 0x1
 3650 0ab8 31       		.byte	0x31
 3651 0ab9 10       		.uleb128 0x10
 3652 0aba 01       		.uleb128 0x1
 3653 0abb 51       		.byte	0x51
 3654 0abc 02       		.uleb128 0x2
 3655 0abd 74       		.byte	0x74
 3656 0abe 00       		.sleb128 0
 3657 0abf 10       		.uleb128 0x10
 3658 0ac0 01       		.uleb128 0x1
 3659 0ac1 50       		.byte	0x50
 3660 0ac2 01       		.uleb128 0x1
 3661 0ac3 31       		.byte	0x31
 3662 0ac4 00       		.byte	0
 3663 0ac5 0E       		.uleb128 0xe
ARM GAS  C:\Users\faithc\AppData\Local\Temp\ccWgDYSd.s 			page 89


 3664 0ac6 6A010000 		.4byte	.LVL161
 3665 0aca 8F070000 		.4byte	0x78f
 3666 0ace 0E       		.uleb128 0xe
 3667 0acf 82010000 		.4byte	.LVL162
 3668 0ad3 8F070000 		.4byte	0x78f
 3669 0ad7 0F       		.uleb128 0xf
 3670 0ad8 90010000 		.4byte	.LVL163
 3671 0adc 0A110000 		.4byte	0x110a
 3672 0ae0 EA0A0000 		.4byte	0xaea
 3673 0ae4 10       		.uleb128 0x10
 3674 0ae5 01       		.uleb128 0x1
 3675 0ae6 50       		.byte	0x50
 3676 0ae7 01       		.uleb128 0x1
 3677 0ae8 30       		.byte	0x30
 3678 0ae9 00       		.byte	0
 3679 0aea 0F       		.uleb128 0xf
 3680 0aeb 9E010000 		.4byte	.LVL164
 3681 0aef DC040000 		.4byte	0x4dc
 3682 0af3 070B0000 		.4byte	0xb07
 3683 0af7 10       		.uleb128 0x10
 3684 0af8 01       		.uleb128 0x1
 3685 0af9 52       		.byte	0x52
 3686 0afa 01       		.uleb128 0x1
 3687 0afb 30       		.byte	0x30
 3688 0afc 10       		.uleb128 0x10
 3689 0afd 01       		.uleb128 0x1
 3690 0afe 51       		.byte	0x51
 3691 0aff 01       		.uleb128 0x1
 3692 0b00 30       		.byte	0x30
 3693 0b01 10       		.uleb128 0x10
 3694 0b02 01       		.uleb128 0x1
 3695 0b03 50       		.byte	0x50
 3696 0b04 01       		.uleb128 0x1
 3697 0b05 30       		.byte	0x30
 3698 0b06 00       		.byte	0
 3699 0b07 0E       		.uleb128 0xe
 3700 0b08 A4010000 		.4byte	.LVL165
 3701 0b0c 60030000 		.4byte	0x360
 3702 0b10 0F       		.uleb128 0xf
 3703 0b11 B0010000 		.4byte	.LVL166
 3704 0b15 DC040000 		.4byte	0x4dc
 3705 0b19 280B0000 		.4byte	0xb28
 3706 0b1d 10       		.uleb128 0x10
 3707 0b1e 01       		.uleb128 0x1
 3708 0b1f 52       		.byte	0x52
 3709 0b20 01       		.uleb128 0x1
 3710 0b21 31       		.byte	0x31
 3711 0b22 10       		.uleb128 0x10
 3712 0b23 01       		.uleb128 0x1
 3713 0b24 50       		.byte	0x50
 3714 0b25 01       		.uleb128 0x1
 3715 0b26 31       		.byte	0x31
 3716 0b27 00       		.byte	0
 3717 0b28 0F       		.uleb128 0xf
 3718 0b29 B8010000 		.4byte	.LVL167
 3719 0b2d 0A110000 		.4byte	0x110a
 3720 0b31 3B0B0000 		.4byte	0xb3b
ARM GAS  C:\Users\faithc\AppData\Local\Temp\ccWgDYSd.s 			page 90


 3721 0b35 10       		.uleb128 0x10
 3722 0b36 01       		.uleb128 0x1
 3723 0b37 50       		.byte	0x50
 3724 0b38 01       		.uleb128 0x1
 3725 0b39 30       		.byte	0x30
 3726 0b3a 00       		.byte	0
 3727 0b3b 0F       		.uleb128 0xf
 3728 0b3c C6010000 		.4byte	.LVL168
 3729 0b40 DC040000 		.4byte	0x4dc
 3730 0b44 580B0000 		.4byte	0xb58
 3731 0b48 10       		.uleb128 0x10
 3732 0b49 01       		.uleb128 0x1
 3733 0b4a 52       		.byte	0x52
 3734 0b4b 01       		.uleb128 0x1
 3735 0b4c 30       		.byte	0x30
 3736 0b4d 10       		.uleb128 0x10
 3737 0b4e 01       		.uleb128 0x1
 3738 0b4f 51       		.byte	0x51
 3739 0b50 01       		.uleb128 0x1
 3740 0b51 30       		.byte	0x30
 3741 0b52 10       		.uleb128 0x10
 3742 0b53 01       		.uleb128 0x1
 3743 0b54 50       		.byte	0x50
 3744 0b55 01       		.uleb128 0x1
 3745 0b56 30       		.byte	0x30
 3746 0b57 00       		.byte	0
 3747 0b58 0F       		.uleb128 0xf
 3748 0b59 D2010000 		.4byte	.LVL169
 3749 0b5d DC040000 		.4byte	0x4dc
 3750 0b61 700B0000 		.4byte	0xb70
 3751 0b65 10       		.uleb128 0x10
 3752 0b66 01       		.uleb128 0x1
 3753 0b67 52       		.byte	0x52
 3754 0b68 01       		.uleb128 0x1
 3755 0b69 31       		.byte	0x31
 3756 0b6a 10       		.uleb128 0x10
 3757 0b6b 01       		.uleb128 0x1
 3758 0b6c 50       		.byte	0x50
 3759 0b6d 01       		.uleb128 0x1
 3760 0b6e 31       		.byte	0x31
 3761 0b6f 00       		.byte	0
 3762 0b70 0E       		.uleb128 0xe
 3763 0b71 DE010000 		.4byte	.LVL170
 3764 0b75 8F070000 		.4byte	0x78f
 3765 0b79 0E       		.uleb128 0xe
 3766 0b7a F0010000 		.4byte	.LVL171
 3767 0b7e C0100000 		.4byte	0x10c0
 3768 0b82 0F       		.uleb128 0xf
 3769 0b83 FC010000 		.4byte	.LVL172
 3770 0b87 DC040000 		.4byte	0x4dc
 3771 0b8b A70B0000 		.4byte	0xba7
 3772 0b8f 10       		.uleb128 0x10
 3773 0b90 01       		.uleb128 0x1
 3774 0b91 53       		.byte	0x53
 3775 0b92 02       		.uleb128 0x2
 3776 0b93 74       		.byte	0x74
 3777 0b94 00       		.sleb128 0
ARM GAS  C:\Users\faithc\AppData\Local\Temp\ccWgDYSd.s 			page 91


 3778 0b95 10       		.uleb128 0x10
 3779 0b96 01       		.uleb128 0x1
 3780 0b97 52       		.byte	0x52
 3781 0b98 02       		.uleb128 0x2
 3782 0b99 74       		.byte	0x74
 3783 0b9a 00       		.sleb128 0
 3784 0b9b 10       		.uleb128 0x10
 3785 0b9c 01       		.uleb128 0x1
 3786 0b9d 51       		.byte	0x51
 3787 0b9e 01       		.uleb128 0x1
 3788 0b9f 35       		.byte	0x35
 3789 0ba0 10       		.uleb128 0x10
 3790 0ba1 01       		.uleb128 0x1
 3791 0ba2 50       		.byte	0x50
 3792 0ba3 02       		.uleb128 0x2
 3793 0ba4 74       		.byte	0x74
 3794 0ba5 00       		.sleb128 0
 3795 0ba6 00       		.byte	0
 3796 0ba7 0F       		.uleb128 0xf
 3797 0ba8 08020000 		.4byte	.LVL173
 3798 0bac DC040000 		.4byte	0x4dc
 3799 0bb0 CB0B0000 		.4byte	0xbcb
 3800 0bb4 10       		.uleb128 0x10
 3801 0bb5 01       		.uleb128 0x1
 3802 0bb6 53       		.byte	0x53
 3803 0bb7 02       		.uleb128 0x2
 3804 0bb8 74       		.byte	0x74
 3805 0bb9 00       		.sleb128 0
 3806 0bba 10       		.uleb128 0x10
 3807 0bbb 01       		.uleb128 0x1
 3808 0bbc 52       		.byte	0x52
 3809 0bbd 02       		.uleb128 0x2
 3810 0bbe 74       		.byte	0x74
 3811 0bbf 00       		.sleb128 0
 3812 0bc0 10       		.uleb128 0x10
 3813 0bc1 01       		.uleb128 0x1
 3814 0bc2 51       		.byte	0x51
 3815 0bc3 01       		.uleb128 0x1
 3816 0bc4 35       		.byte	0x35
 3817 0bc5 10       		.uleb128 0x10
 3818 0bc6 01       		.uleb128 0x1
 3819 0bc7 50       		.byte	0x50
 3820 0bc8 01       		.uleb128 0x1
 3821 0bc9 31       		.byte	0x31
 3822 0bca 00       		.byte	0
 3823 0bcb 0F       		.uleb128 0xf
 3824 0bcc 14020000 		.4byte	.LVL174
 3825 0bd0 B2020000 		.4byte	0x2b2
 3826 0bd4 DF0B0000 		.4byte	0xbdf
 3827 0bd8 10       		.uleb128 0x10
 3828 0bd9 01       		.uleb128 0x1
 3829 0bda 50       		.byte	0x50
 3830 0bdb 02       		.uleb128 0x2
 3831 0bdc 74       		.byte	0x74
 3832 0bdd 00       		.sleb128 0
 3833 0bde 00       		.byte	0
 3834 0bdf 0F       		.uleb128 0xf
ARM GAS  C:\Users\faithc\AppData\Local\Temp\ccWgDYSd.s 			page 92


 3835 0be0 1C020000 		.4byte	.LVL175
 3836 0be4 11030000 		.4byte	0x311
 3837 0be8 F30B0000 		.4byte	0xbf3
 3838 0bec 10       		.uleb128 0x10
 3839 0bed 01       		.uleb128 0x1
 3840 0bee 50       		.byte	0x50
 3841 0bef 02       		.uleb128 0x2
 3842 0bf0 74       		.byte	0x74
 3843 0bf1 00       		.sleb128 0
 3844 0bf2 00       		.byte	0
 3845 0bf3 0F       		.uleb128 0xf
 3846 0bf4 28020000 		.4byte	.LVL176
 3847 0bf8 23040000 		.4byte	0x423
 3848 0bfc 110C0000 		.4byte	0xc11
 3849 0c00 10       		.uleb128 0x10
 3850 0c01 01       		.uleb128 0x1
 3851 0c02 52       		.byte	0x52
 3852 0c03 01       		.uleb128 0x1
 3853 0c04 30       		.byte	0x30
 3854 0c05 10       		.uleb128 0x10
 3855 0c06 01       		.uleb128 0x1
 3856 0c07 51       		.byte	0x51
 3857 0c08 02       		.uleb128 0x2
 3858 0c09 74       		.byte	0x74
 3859 0c0a 00       		.sleb128 0
 3860 0c0b 10       		.uleb128 0x10
 3861 0c0c 01       		.uleb128 0x1
 3862 0c0d 50       		.byte	0x50
 3863 0c0e 01       		.uleb128 0x1
 3864 0c0f 30       		.byte	0x30
 3865 0c10 00       		.byte	0
 3866 0c11 0F       		.uleb128 0xf
 3867 0c12 36020000 		.4byte	.LVL177
 3868 0c16 DC040000 		.4byte	0x4dc
 3869 0c1a 340C0000 		.4byte	0xc34
 3870 0c1e 10       		.uleb128 0x10
 3871 0c1f 01       		.uleb128 0x1
 3872 0c20 53       		.byte	0x53
 3873 0c21 01       		.uleb128 0x1
 3874 0c22 30       		.byte	0x30
 3875 0c23 10       		.uleb128 0x10
 3876 0c24 01       		.uleb128 0x1
 3877 0c25 52       		.byte	0x52
 3878 0c26 01       		.uleb128 0x1
 3879 0c27 30       		.byte	0x30
 3880 0c28 10       		.uleb128 0x10
 3881 0c29 01       		.uleb128 0x1
 3882 0c2a 51       		.byte	0x51
 3883 0c2b 02       		.uleb128 0x2
 3884 0c2c 74       		.byte	0x74
 3885 0c2d 00       		.sleb128 0
 3886 0c2e 10       		.uleb128 0x10
 3887 0c2f 01       		.uleb128 0x1
 3888 0c30 50       		.byte	0x50
 3889 0c31 01       		.uleb128 0x1
 3890 0c32 30       		.byte	0x30
 3891 0c33 00       		.byte	0
ARM GAS  C:\Users\faithc\AppData\Local\Temp\ccWgDYSd.s 			page 93


 3892 0c34 0F       		.uleb128 0xf
 3893 0c35 4A020000 		.4byte	.LVL178
 3894 0c39 B2020000 		.4byte	0x2b2
 3895 0c3d 480C0000 		.4byte	0xc48
 3896 0c41 10       		.uleb128 0x10
 3897 0c42 01       		.uleb128 0x1
 3898 0c43 50       		.byte	0x50
 3899 0c44 02       		.uleb128 0x2
 3900 0c45 74       		.byte	0x74
 3901 0c46 00       		.sleb128 0
 3902 0c47 00       		.byte	0
 3903 0c48 0F       		.uleb128 0xf
 3904 0c49 52020000 		.4byte	.LVL179
 3905 0c4d 11030000 		.4byte	0x311
 3906 0c51 5C0C0000 		.4byte	0xc5c
 3907 0c55 10       		.uleb128 0x10
 3908 0c56 01       		.uleb128 0x1
 3909 0c57 50       		.byte	0x50
 3910 0c58 02       		.uleb128 0x2
 3911 0c59 74       		.byte	0x74
 3912 0c5a 00       		.sleb128 0
 3913 0c5b 00       		.byte	0
 3914 0c5c 0F       		.uleb128 0xf
 3915 0c5d 5E020000 		.4byte	.LVL180
 3916 0c61 23040000 		.4byte	0x423
 3917 0c65 7A0C0000 		.4byte	0xc7a
 3918 0c69 10       		.uleb128 0x10
 3919 0c6a 01       		.uleb128 0x1
 3920 0c6b 52       		.byte	0x52
 3921 0c6c 01       		.uleb128 0x1
 3922 0c6d 30       		.byte	0x30
 3923 0c6e 10       		.uleb128 0x10
 3924 0c6f 01       		.uleb128 0x1
 3925 0c70 51       		.byte	0x51
 3926 0c71 02       		.uleb128 0x2
 3927 0c72 74       		.byte	0x74
 3928 0c73 00       		.sleb128 0
 3929 0c74 10       		.uleb128 0x10
 3930 0c75 01       		.uleb128 0x1
 3931 0c76 50       		.byte	0x50
 3932 0c77 01       		.uleb128 0x1
 3933 0c78 31       		.byte	0x31
 3934 0c79 00       		.byte	0
 3935 0c7a 0F       		.uleb128 0xf
 3936 0c7b 6C020000 		.4byte	.LVL181
 3937 0c7f DC040000 		.4byte	0x4dc
 3938 0c83 9D0C0000 		.4byte	0xc9d
 3939 0c87 10       		.uleb128 0x10
 3940 0c88 01       		.uleb128 0x1
 3941 0c89 53       		.byte	0x53
 3942 0c8a 01       		.uleb128 0x1
 3943 0c8b 30       		.byte	0x30
 3944 0c8c 10       		.uleb128 0x10
 3945 0c8d 01       		.uleb128 0x1
 3946 0c8e 52       		.byte	0x52
 3947 0c8f 01       		.uleb128 0x1
 3948 0c90 30       		.byte	0x30
ARM GAS  C:\Users\faithc\AppData\Local\Temp\ccWgDYSd.s 			page 94


 3949 0c91 10       		.uleb128 0x10
 3950 0c92 01       		.uleb128 0x1
 3951 0c93 51       		.byte	0x51
 3952 0c94 02       		.uleb128 0x2
 3953 0c95 74       		.byte	0x74
 3954 0c96 00       		.sleb128 0
 3955 0c97 10       		.uleb128 0x10
 3956 0c98 01       		.uleb128 0x1
 3957 0c99 50       		.byte	0x50
 3958 0c9a 01       		.uleb128 0x1
 3959 0c9b 31       		.byte	0x31
 3960 0c9c 00       		.byte	0
 3961 0c9d 0E       		.uleb128 0xe
 3962 0c9e 80020000 		.4byte	.LVL182
 3963 0ca2 8F070000 		.4byte	0x78f
 3964 0ca6 00       		.byte	0
 3965 0ca7 13       		.uleb128 0x13
 3966 0ca8 C2080000 		.4byte	.LASF97
 3967 0cac 01       		.byte	0x1
 3968 0cad D5       		.byte	0xd5
 3969 0cae 00000000 		.4byte	.LFB66
 3970 0cb2 4C000000 		.4byte	.LFE66-.LFB66
 3971 0cb6 01       		.uleb128 0x1
 3972 0cb7 9C       		.byte	0x9c
 3973 0cb8 0D0D0000 		.4byte	0xd0d
 3974 0cbc 14       		.uleb128 0x14
 3975 0cbd 65050000 		.4byte	.LASF98
 3976 0cc1 01       		.byte	0x1
 3977 0cc2 D7       		.byte	0xd7
 3978 0cc3 81000000 		.4byte	0x81
 3979 0cc7 30060000 		.4byte	.LLST20
 3980 0ccb 0E       		.uleb128 0xe
 3981 0ccc 06000000 		.4byte	.LVL184
 3982 0cd0 E4110000 		.4byte	0x11e4
 3983 0cd4 0E       		.uleb128 0xe
 3984 0cd5 0E000000 		.4byte	.LVL185
 3985 0cd9 EF110000 		.4byte	0x11ef
 3986 0cdd 0E       		.uleb128 0xe
 3987 0cde 18000000 		.4byte	.LVL186
 3988 0ce2 FA110000 		.4byte	0x11fa
 3989 0ce6 0E       		.uleb128 0xe
 3990 0ce7 22000000 		.4byte	.LVL187
 3991 0ceb 05120000 		.4byte	0x1205
 3992 0cef 0F       		.uleb128 0xf
 3993 0cf0 32000000 		.4byte	.LVL189
 3994 0cf4 D6030000 		.4byte	0x3d6
 3995 0cf8 030D0000 		.4byte	0xd03
 3996 0cfc 10       		.uleb128 0x10
 3997 0cfd 01       		.uleb128 0x1
 3998 0cfe 50       		.byte	0x50
 3999 0cff 02       		.uleb128 0x2
 4000 0d00 74       		.byte	0x74
 4001 0d01 00       		.sleb128 0
 4002 0d02 00       		.byte	0
 4003 0d03 0E       		.uleb128 0xe
 4004 0d04 44000000 		.4byte	.LVL192
 4005 0d08 58080000 		.4byte	0x858
ARM GAS  C:\Users\faithc\AppData\Local\Temp\ccWgDYSd.s 			page 95


 4006 0d0c 00       		.byte	0
 4007 0d0d 13       		.uleb128 0x13
 4008 0d0e 72050000 		.4byte	.LASF99
 4009 0d12 01       		.byte	0x1
 4010 0d13 F3       		.byte	0xf3
 4011 0d14 00000000 		.4byte	.LFB67
 4012 0d18 B8000000 		.4byte	.LFE67-.LFB67
 4013 0d1c 01       		.uleb128 0x1
 4014 0d1d 9C       		.byte	0x9c
 4015 0d1e C30D0000 		.4byte	0xdc3
 4016 0d22 14       		.uleb128 0x14
 4017 0d23 7F040000 		.4byte	.LASF100
 4018 0d27 01       		.byte	0x1
 4019 0d28 F5       		.byte	0xf5
 4020 0d29 BF000000 		.4byte	0xbf
 4021 0d2d 5A060000 		.4byte	.LLST21
 4022 0d31 14       		.uleb128 0x14
 4023 0d32 A6010000 		.4byte	.LASF90
 4024 0d36 01       		.byte	0x1
 4025 0d37 F6       		.byte	0xf6
 4026 0d38 8C000000 		.4byte	0x8c
 4027 0d3c 9A060000 		.4byte	.LLST22
 4028 0d40 14       		.uleb128 0x14
 4029 0d41 4D050000 		.4byte	.LASF89
 4030 0d45 01       		.byte	0x1
 4031 0d46 F7       		.byte	0xf7
 4032 0d47 81000000 		.4byte	0x81
 4033 0d4b B9060000 		.4byte	.LLST23
 4034 0d4f 14       		.uleb128 0x14
 4035 0d50 C0000000 		.4byte	.LASF88
 4036 0d54 01       		.byte	0x1
 4037 0d55 F8       		.byte	0xf8
 4038 0d56 81000000 		.4byte	0x81
 4039 0d5a D8060000 		.4byte	.LLST24
 4040 0d5e 0E       		.uleb128 0xe
 4041 0d5f 08000000 		.4byte	.LVL195
 4042 0d63 10120000 		.4byte	0x1210
 4043 0d67 0E       		.uleb128 0xe
 4044 0d68 24000000 		.4byte	.LVL196
 4045 0d6c C0100000 		.4byte	0x10c0
 4046 0d70 0E       		.uleb128 0xe
 4047 0d71 28000000 		.4byte	.LVL197
 4048 0d75 2C110000 		.4byte	0x112c
 4049 0d79 0E       		.uleb128 0xe
 4050 0d7a 2C000000 		.4byte	.LVL198
 4051 0d7e 30070000 		.4byte	0x730
 4052 0d82 0E       		.uleb128 0xe
 4053 0d83 34000000 		.4byte	.LVL199
 4054 0d87 4F110000 		.4byte	0x114f
 4055 0d8b 0F       		.uleb128 0xf
 4056 0d8c 5C000000 		.4byte	.LVL203
 4057 0d90 3A110000 		.4byte	0x113a
 4058 0d94 9F0D0000 		.4byte	0xd9f
 4059 0d98 10       		.uleb128 0x10
 4060 0d99 01       		.uleb128 0x1
 4061 0d9a 50       		.byte	0x50
 4062 0d9b 02       		.uleb128 0x2
ARM GAS  C:\Users\faithc\AppData\Local\Temp\ccWgDYSd.s 			page 96


 4063 0d9c 75       		.byte	0x75
 4064 0d9d 00       		.sleb128 0
 4065 0d9e 00       		.byte	0
 4066 0d9f 0F       		.uleb128 0xf
 4067 0da0 88000000 		.4byte	.LVL208
 4068 0da4 5A110000 		.4byte	0x115a
 4069 0da8 B90D0000 		.4byte	0xdb9
 4070 0dac 10       		.uleb128 0x10
 4071 0dad 01       		.uleb128 0x1
 4072 0dae 51       		.byte	0x51
 4073 0daf 02       		.uleb128 0x2
 4074 0db0 75       		.byte	0x75
 4075 0db1 00       		.sleb128 0
 4076 0db2 10       		.uleb128 0x10
 4077 0db3 01       		.uleb128 0x1
 4078 0db4 50       		.byte	0x50
 4079 0db5 02       		.uleb128 0x2
 4080 0db6 77       		.byte	0x77
 4081 0db7 00       		.sleb128 0
 4082 0db8 00       		.byte	0
 4083 0db9 0E       		.uleb128 0xe
 4084 0dba AC000000 		.4byte	.LVL211
 4085 0dbe 58080000 		.4byte	0x858
 4086 0dc2 00       		.byte	0
 4087 0dc3 15       		.uleb128 0x15
 4088 0dc4 8C030000 		.4byte	.LASF101
 4089 0dc8 01       		.byte	0x1
 4090 0dc9 3401     		.2byte	0x134
 4091 0dcb 00000000 		.4byte	.LFB68
 4092 0dcf 60000000 		.4byte	.LFE68-.LFB68
 4093 0dd3 01       		.uleb128 0x1
 4094 0dd4 9C       		.byte	0x9c
 4095 0dd5 650E0000 		.4byte	0xe65
 4096 0dd9 12       		.uleb128 0x12
 4097 0dda 65050000 		.4byte	.LASF98
 4098 0dde 01       		.byte	0x1
 4099 0ddf 3601     		.2byte	0x136
 4100 0de1 81000000 		.4byte	0x81
 4101 0de5 02070000 		.4byte	.LLST25
 4102 0de9 0E       		.uleb128 0xe
 4103 0dea 06000000 		.4byte	.LVL213
 4104 0dee E4110000 		.4byte	0x11e4
 4105 0df2 0E       		.uleb128 0xe
 4106 0df3 0C000000 		.4byte	.LVL214
 4107 0df7 EF110000 		.4byte	0x11ef
 4108 0dfb 0E       		.uleb128 0xe
 4109 0dfc 24000000 		.4byte	.LVL215
 4110 0e00 C0100000 		.4byte	0x10c0
 4111 0e04 0E       		.uleb128 0xe
 4112 0e05 28000000 		.4byte	.LVL216
 4113 0e09 2C110000 		.4byte	0x112c
 4114 0e0d 0F       		.uleb128 0xf
 4115 0e0e 2E000000 		.4byte	.LVL217
 4116 0e12 0A110000 		.4byte	0x110a
 4117 0e16 200E0000 		.4byte	0xe20
 4118 0e1a 10       		.uleb128 0x10
 4119 0e1b 01       		.uleb128 0x1
ARM GAS  C:\Users\faithc\AppData\Local\Temp\ccWgDYSd.s 			page 97


 4120 0e1c 50       		.byte	0x50
 4121 0e1d 01       		.uleb128 0x1
 4122 0e1e 31       		.byte	0x31
 4123 0e1f 00       		.byte	0
 4124 0e20 0F       		.uleb128 0xf
 4125 0e21 34000000 		.4byte	.LVL218
 4126 0e25 1B110000 		.4byte	0x111b
 4127 0e29 330E0000 		.4byte	0xe33
 4128 0e2d 10       		.uleb128 0x10
 4129 0e2e 01       		.uleb128 0x1
 4130 0e2f 50       		.byte	0x50
 4131 0e30 01       		.uleb128 0x1
 4132 0e31 30       		.byte	0x30
 4133 0e32 00       		.byte	0
 4134 0e33 0F       		.uleb128 0xf
 4135 0e34 3E000000 		.4byte	.LVL220
 4136 0e38 BA110000 		.4byte	0x11ba
 4137 0e3c 470E0000 		.4byte	0xe47
 4138 0e40 10       		.uleb128 0x10
 4139 0e41 01       		.uleb128 0x1
 4140 0e42 50       		.byte	0x50
 4141 0e43 02       		.uleb128 0x2
 4142 0e44 74       		.byte	0x74
 4143 0e45 00       		.sleb128 0
 4144 0e46 00       		.byte	0
 4145 0e47 0F       		.uleb128 0xf
 4146 0e48 44000000 		.4byte	.LVL221
 4147 0e4c CF110000 		.4byte	0x11cf
 4148 0e50 5B0E0000 		.4byte	0xe5b
 4149 0e54 10       		.uleb128 0x10
 4150 0e55 01       		.uleb128 0x1
 4151 0e56 50       		.byte	0x50
 4152 0e57 02       		.uleb128 0x2
 4153 0e58 74       		.byte	0x74
 4154 0e59 00       		.sleb128 0
 4155 0e5a 00       		.byte	0
 4156 0e5b 0E       		.uleb128 0xe
 4157 0e5c 5A000000 		.4byte	.LVL225
 4158 0e60 58080000 		.4byte	0x858
 4159 0e64 00       		.byte	0
 4160 0e65 15       		.uleb128 0x15
 4161 0e66 89020000 		.4byte	.LASF102
 4162 0e6a 01       		.byte	0x1
 4163 0e6b 5A01     		.2byte	0x15a
 4164 0e6d 00000000 		.4byte	.LFB69
 4165 0e71 18000000 		.4byte	.LFE69-.LFB69
 4166 0e75 01       		.uleb128 0x1
 4167 0e76 9C       		.byte	0x9c
 4168 0e77 8E0E0000 		.4byte	0xe8e
 4169 0e7b 0E       		.uleb128 0xe
 4170 0e7c 06000000 		.4byte	.LVL226
 4171 0e80 FA110000 		.4byte	0x11fa
 4172 0e84 0E       		.uleb128 0xe
 4173 0e85 12000000 		.4byte	.LVL227
 4174 0e89 58080000 		.4byte	0x858
 4175 0e8d 00       		.byte	0
 4176 0e8e 15       		.uleb128 0x15
ARM GAS  C:\Users\faithc\AppData\Local\Temp\ccWgDYSd.s 			page 98


 4177 0e8f 25010000 		.4byte	.LASF103
 4178 0e93 01       		.byte	0x1
 4179 0e94 6E01     		.2byte	0x16e
 4180 0e96 00000000 		.4byte	.LFB70
 4181 0e9a 18000000 		.4byte	.LFE70-.LFB70
 4182 0e9e 01       		.uleb128 0x1
 4183 0e9f 9C       		.byte	0x9c
 4184 0ea0 B70E0000 		.4byte	0xeb7
 4185 0ea4 0E       		.uleb128 0xe
 4186 0ea5 06000000 		.4byte	.LVL228
 4187 0ea9 05120000 		.4byte	0x1205
 4188 0ead 0E       		.uleb128 0xe
 4189 0eae 12000000 		.4byte	.LVL229
 4190 0eb2 58080000 		.4byte	0x858
 4191 0eb6 00       		.byte	0
 4192 0eb7 15       		.uleb128 0x15
 4193 0eb8 7E070000 		.4byte	.LASF104
 4194 0ebc 01       		.byte	0x1
 4195 0ebd 8201     		.2byte	0x182
 4196 0ebf 00000000 		.4byte	.LFB71
 4197 0ec3 1C000000 		.4byte	.LFE71-.LFB71
 4198 0ec7 01       		.uleb128 0x1
 4199 0ec8 9C       		.byte	0x9c
 4200 0ec9 E00E0000 		.4byte	0xee0
 4201 0ecd 0E       		.uleb128 0xe
 4202 0ece 06000000 		.4byte	.LVL230
 4203 0ed2 1B120000 		.4byte	0x121b
 4204 0ed6 0E       		.uleb128 0xe
 4205 0ed7 14000000 		.4byte	.LVL231
 4206 0edb 58080000 		.4byte	0x858
 4207 0edf 00       		.byte	0
 4208 0ee0 15       		.uleb128 0x15
 4209 0ee1 8B050000 		.4byte	.LASF105
 4210 0ee5 01       		.byte	0x1
 4211 0ee6 9701     		.2byte	0x197
 4212 0ee8 00000000 		.4byte	.LFB72
 4213 0eec A4000000 		.4byte	.LFE72-.LFB72
 4214 0ef0 01       		.uleb128 0x1
 4215 0ef1 9C       		.byte	0x9c
 4216 0ef2 930F0000 		.4byte	0xf93
 4217 0ef6 17       		.uleb128 0x17
 4218 0ef7 2F030000 		.4byte	.LASF106
 4219 0efb 01       		.byte	0x1
 4220 0efc 9901     		.2byte	0x199
 4221 0efe 77020000 		.4byte	0x277
 4222 0f02 05       		.uleb128 0x5
 4223 0f03 03       		.byte	0x3
 4224 0f04 1C000000 		.4byte	previousChannels.7356
 4225 0f08 17       		.uleb128 0x17
 4226 0f09 2F060000 		.4byte	.LASF107
 4227 0f0d 01       		.byte	0x1
 4228 0f0e 9A01     		.2byte	0x19a
 4229 0f10 77020000 		.4byte	0x277
 4230 0f14 02       		.uleb128 0x2
 4231 0f15 91       		.byte	0x91
 4232 0f16 5C       		.sleb128 -36
 4233 0f17 18       		.uleb128 0x18
ARM GAS  C:\Users\faithc\AppData\Local\Temp\ccWgDYSd.s 			page 99


 4234 0f18 F5060000 		.4byte	.LASF108
 4235 0f1c 01       		.byte	0x1
 4236 0f1d 9B01     		.2byte	0x19b
 4237 0f1f 77020000 		.4byte	0x277
 4238 0f23 18       		.uleb128 0x18
 4239 0f24 0A000000 		.4byte	.LASF109
 4240 0f28 01       		.byte	0x1
 4241 0f29 9C01     		.2byte	0x19c
 4242 0f2b 77020000 		.4byte	0x277
 4243 0f2f 12       		.uleb128 0x12
 4244 0f30 65050000 		.4byte	.LASF98
 4245 0f34 01       		.byte	0x1
 4246 0f35 9D01     		.2byte	0x19d
 4247 0f37 81000000 		.4byte	0x81
 4248 0f3b 38070000 		.4byte	.LLST26
 4249 0f3f 12       		.uleb128 0x12
 4250 0f40 1C090000 		.4byte	.LASF110
 4251 0f44 01       		.byte	0x1
 4252 0f45 9E01     		.2byte	0x19e
 4253 0f47 81000000 		.4byte	0x81
 4254 0f4b 62070000 		.4byte	.LLST27
 4255 0f4f 0E       		.uleb128 0xe
 4256 0f50 0A000000 		.4byte	.LVL233
 4257 0f54 B5100000 		.4byte	0x10b5
 4258 0f58 0E       		.uleb128 0xe
 4259 0f59 12000000 		.4byte	.LVL234
 4260 0f5d AA100000 		.4byte	0x10aa
 4261 0f61 0F       		.uleb128 0xf
 4262 0f62 36000000 		.4byte	.LVL236
 4263 0f66 9B030000 		.4byte	0x39b
 4264 0f6a 750F0000 		.4byte	0xf75
 4265 0f6e 10       		.uleb128 0x10
 4266 0f6f 01       		.uleb128 0x1
 4267 0f70 50       		.byte	0x50
 4268 0f71 02       		.uleb128 0x2
 4269 0f72 76       		.byte	0x76
 4270 0f73 00       		.sleb128 0
 4271 0f74 00       		.byte	0
 4272 0f75 0F       		.uleb128 0xf
 4273 0f76 3E000000 		.4byte	.LVL237
 4274 0f7a D6030000 		.4byte	0x3d6
 4275 0f7e 890F0000 		.4byte	0xf89
 4276 0f82 10       		.uleb128 0x10
 4277 0f83 01       		.uleb128 0x1
 4278 0f84 50       		.byte	0x50
 4279 0f85 02       		.uleb128 0x2
 4280 0f86 75       		.byte	0x75
 4281 0f87 00       		.sleb128 0
 4282 0f88 00       		.byte	0
 4283 0f89 0E       		.uleb128 0xe
 4284 0f8a 98000000 		.4byte	.LVL244
 4285 0f8e 58080000 		.4byte	0x858
 4286 0f92 00       		.byte	0
 4287 0f93 19       		.uleb128 0x19
 4288 0f94 DB060000 		.4byte	.LASF154
 4289 0f98 01       		.byte	0x1
 4290 0f99 D101     		.2byte	0x1d1
ARM GAS  C:\Users\faithc\AppData\Local\Temp\ccWgDYSd.s 			page 100


 4291 0f9b 81000000 		.4byte	0x81
 4292 0f9f 00000000 		.4byte	.LFB73
 4293 0fa3 94000000 		.4byte	.LFE73-.LFB73
 4294 0fa7 01       		.uleb128 0x1
 4295 0fa8 9C       		.byte	0x9c
 4296 0fa9 07100000 		.4byte	0x1007
 4297 0fad 0D       		.uleb128 0xd
 4298 0fae 00000000 		.4byte	.LASF111
 4299 0fb2 01       		.byte	0x1
 4300 0fb3 D101     		.2byte	0x1d1
 4301 0fb5 BF000000 		.4byte	0xbf
 4302 0fb9 A4070000 		.4byte	.LLST28
 4303 0fbd 0D       		.uleb128 0xd
 4304 0fbe FE070000 		.4byte	.LASF112
 4305 0fc2 01       		.byte	0x1
 4306 0fc3 D101     		.2byte	0x1d1
 4307 0fc5 BF000000 		.4byte	0xbf
 4308 0fc9 2A080000 		.4byte	.LLST29
 4309 0fcd 0D       		.uleb128 0xd
 4310 0fce A6070000 		.4byte	.LASF63
 4311 0fd2 01       		.byte	0x1
 4312 0fd3 D201     		.2byte	0x1d2
 4313 0fd5 81000000 		.4byte	0x81
 4314 0fd9 56080000 		.4byte	.LLST30
 4315 0fdd 12       		.uleb128 0x12
 4316 0fde 65050000 		.4byte	.LASF98
 4317 0fe2 01       		.byte	0x1
 4318 0fe3 D401     		.2byte	0x1d4
 4319 0fe5 81000000 		.4byte	0x81
 4320 0fe9 A0080000 		.4byte	.LLST31
 4321 0fed 12       		.uleb128 0x12
 4322 0fee 1E060000 		.4byte	.LASF113
 4323 0ff2 01       		.byte	0x1
 4324 0ff3 D501     		.2byte	0x1d5
 4325 0ff5 81000000 		.4byte	0x81
 4326 0ff9 E1080000 		.4byte	.LLST32
 4327 0ffd 0E       		.uleb128 0xe
 4328 0ffe 7C000000 		.4byte	.LVL251
 4329 1002 58080000 		.4byte	0x858
 4330 1006 00       		.byte	0
 4331 1007 0A       		.uleb128 0xa
 4332 1008 81000000 		.4byte	0x81
 4333 100c 17100000 		.4byte	0x1017
 4334 1010 0B       		.uleb128 0xb
 4335 1011 B8000000 		.4byte	0xb8
 4336 1015 0B       		.byte	0xb
 4337 1016 00       		.byte	0
 4338 1017 1A       		.uleb128 0x1a
 4339 1018 F4000000 		.4byte	.LASF114
 4340 101c 01       		.byte	0x1
 4341 101d 2B       		.byte	0x2b
 4342 101e 28100000 		.4byte	0x1028
 4343 1022 05       		.uleb128 0x5
 4344 1023 03       		.byte	0x3
 4345 1024 00000000 		.4byte	DEFAULT_CONFIGURATION_LIST
 4346 1028 1B       		.uleb128 0x1b
 4347 1029 07100000 		.4byte	0x1007
ARM GAS  C:\Users\faithc\AppData\Local\Temp\ccWgDYSd.s 			page 101


 4348 102d 1C       		.uleb128 0x1c
 4349 102e 24000000 		.4byte	.LASF115
 4350 1032 01       		.byte	0x1
 4351 1033 2F       		.byte	0x2f
 4352 1034 39100000 		.4byte	0x1039
 4353 1038 FF       		.byte	0xff
 4354 1039 1B       		.uleb128 0x1b
 4355 103a 8C000000 		.4byte	0x8c
 4356 103e 1D       		.uleb128 0x1d
 4357 103f E2010000 		.4byte	.LASF116
 4358 1043 01       		.byte	0x1
 4359 1044 30       		.byte	0x30
 4360 1045 4B100000 		.4byte	0x104b
 4361 1049 AA7F     		.sleb128 -86
 4362 104b 1B       		.uleb128 0x1b
 4363 104c 81000000 		.4byte	0x81
 4364 1050 0A       		.uleb128 0xa
 4365 1051 BF000000 		.4byte	0xbf
 4366 1055 66100000 		.4byte	0x1066
 4367 1059 0B       		.uleb128 0xb
 4368 105a B8000000 		.4byte	0xb8
 4369 105e 01       		.byte	0x1
 4370 105f 0B       		.uleb128 0xb
 4371 1060 B8000000 		.4byte	0xb8
 4372 1064 05       		.byte	0x5
 4373 1065 00       		.byte	0
 4374 1066 1A       		.uleb128 0x1a
 4375 1067 DD090000 		.4byte	.LASF117
 4376 106b 01       		.byte	0x1
 4377 106c 33       		.byte	0x33
 4378 106d 50100000 		.4byte	0x1050
 4379 1071 05       		.uleb128 0x5
 4380 1072 03       		.byte	0x3
 4381 1073 00000000 		.4byte	toneConfigurationList
 4382 1077 1A       		.uleb128 0x1a
 4383 1078 CA050000 		.4byte	.LASF118
 4384 107c 01       		.byte	0x1
 4385 107d 3D       		.byte	0x3d
 4386 107e CD010000 		.4byte	0x1cd
 4387 1082 05       		.uleb128 0x5
 4388 1083 03       		.byte	0x3
 4389 1084 0C000000 		.4byte	InputRead
 4390 1088 1A       		.uleb128 0x1a
 4391 1089 89090000 		.4byte	.LASF119
 4392 108d 01       		.byte	0x1
 4393 108e 45       		.byte	0x45
 4394 108f 2E020000 		.4byte	0x22e
 4395 1093 05       		.uleb128 0x5
 4396 1094 03       		.byte	0x3
 4397 1095 14000000 		.4byte	ToneStatus
 4398 1099 1E       		.uleb128 0x1e
 4399 109a B3060000 		.4byte	.LASF155
 4400 109e 16       		.byte	0x16
 4401 109f 2A06     		.2byte	0x62a
 4402 10a1 A5100000 		.4byte	0x10a5
 4403 10a5 1F       		.uleb128 0x1f
 4404 10a6 76000000 		.4byte	0x76
ARM GAS  C:\Users\faithc\AppData\Local\Temp\ccWgDYSd.s 			page 102


 4405 10aa 20       		.uleb128 0x20
 4406 10ab 02070000 		.4byte	.LASF120
 4407 10af 06       		.byte	0x6
 4408 10b0 28       		.byte	0x28
 4409 10b1 81000000 		.4byte	0x81
 4410 10b5 20       		.uleb128 0x20
 4411 10b6 2C090000 		.4byte	.LASF121
 4412 10ba 07       		.byte	0x7
 4413 10bb 28       		.byte	0x28
 4414 10bc 81000000 		.4byte	0x81
 4415 10c0 21       		.uleb128 0x21
 4416 10c1 A6030000 		.4byte	.LASF126
 4417 10c5 08       		.byte	0x8
 4418 10c6 1F       		.byte	0x1f
 4419 10c7 22       		.uleb128 0x22
 4420 10c8 75000000 		.4byte	.LASF122
 4421 10cc 08       		.byte	0x8
 4422 10cd 19       		.byte	0x19
 4423 10ce 81000000 		.4byte	0x81
 4424 10d2 EB100000 		.4byte	0x10eb
 4425 10d6 23       		.uleb128 0x23
 4426 10d7 81000000 		.4byte	0x81
 4427 10db 23       		.uleb128 0x23
 4428 10dc BF000000 		.4byte	0xbf
 4429 10e0 23       		.uleb128 0x23
 4430 10e1 81000000 		.4byte	0x81
 4431 10e5 23       		.uleb128 0x23
 4432 10e6 81000000 		.4byte	0x81
 4433 10ea 00       		.byte	0
 4434 10eb 22       		.uleb128 0x22
 4435 10ec CF090000 		.4byte	.LASF123
 4436 10f0 09       		.byte	0x9
 4437 10f1 1A       		.byte	0x1a
 4438 10f2 81000000 		.4byte	0x81
 4439 10f6 0A110000 		.4byte	0x110a
 4440 10fa 23       		.uleb128 0x23
 4441 10fb 81000000 		.4byte	0x81
 4442 10ff 23       		.uleb128 0x23
 4443 1100 BF000000 		.4byte	0xbf
 4444 1104 23       		.uleb128 0x23
 4445 1105 81000000 		.4byte	0x81
 4446 1109 00       		.byte	0
 4447 110a 24       		.uleb128 0x24
 4448 110b B5040000 		.4byte	.LASF124
 4449 110f 0A       		.byte	0xa
 4450 1110 28       		.byte	0x28
 4451 1111 1B110000 		.4byte	0x111b
 4452 1115 23       		.uleb128 0x23
 4453 1116 81000000 		.4byte	0x81
 4454 111a 00       		.byte	0
 4455 111b 24       		.uleb128 0x24
 4456 111c 8E000000 		.4byte	.LASF125
 4457 1120 0B       		.byte	0xb
 4458 1121 28       		.byte	0x28
 4459 1122 2C110000 		.4byte	0x112c
 4460 1126 23       		.uleb128 0x23
 4461 1127 81000000 		.4byte	0x81
ARM GAS  C:\Users\faithc\AppData\Local\Temp\ccWgDYSd.s 			page 103


 4462 112b 00       		.byte	0
 4463 112c 21       		.uleb128 0x21
 4464 112d 77010000 		.4byte	.LASF127
 4465 1131 09       		.byte	0x9
 4466 1132 1F       		.byte	0x1f
 4467 1133 21       		.uleb128 0x21
 4468 1134 98040000 		.4byte	.LASF128
 4469 1138 0C       		.byte	0xc
 4470 1139 1F       		.byte	0x1f
 4471 113a 22       		.uleb128 0x22
 4472 113b A5040000 		.4byte	.LASF129
 4473 113f 0C       		.byte	0xc
 4474 1140 23       		.byte	0x23
 4475 1141 81000000 		.4byte	0x81
 4476 1145 4F110000 		.4byte	0x114f
 4477 1149 23       		.uleb128 0x23
 4478 114a 8C000000 		.4byte	0x8c
 4479 114e 00       		.byte	0
 4480 114f 20       		.uleb128 0x20
 4481 1150 51000000 		.4byte	.LASF130
 4482 1154 0C       		.byte	0xc
 4483 1155 24       		.byte	0x24
 4484 1156 81000000 		.4byte	0x81
 4485 115a 22       		.uleb128 0x22
 4486 115b 04090000 		.4byte	.LASF131
 4487 115f 0C       		.byte	0xc
 4488 1160 21       		.byte	0x21
 4489 1161 AC000000 		.4byte	0xac
 4490 1165 74110000 		.4byte	0x1174
 4491 1169 23       		.uleb128 0x23
 4492 116a 81000000 		.4byte	0x81
 4493 116e 23       		.uleb128 0x23
 4494 116f 8C000000 		.4byte	0x8c
 4495 1173 00       		.byte	0
 4496 1174 21       		.uleb128 0x21
 4497 1175 C7060000 		.4byte	.LASF132
 4498 1179 0D       		.byte	0xd
 4499 117a 17       		.byte	0x17
 4500 117b 21       		.uleb128 0x21
 4501 117c 92060000 		.4byte	.LASF133
 4502 1180 0E       		.byte	0xe
 4503 1181 29       		.byte	0x29
 4504 1182 21       		.uleb128 0x21
 4505 1183 C0030000 		.4byte	.LASF134
 4506 1187 0F       		.byte	0xf
 4507 1188 17       		.byte	0x17
 4508 1189 21       		.uleb128 0x21
 4509 118a A2080000 		.4byte	.LASF135
 4510 118e 10       		.byte	0x10
 4511 118f 29       		.byte	0x29
 4512 1190 21       		.uleb128 0x21
 4513 1191 41040000 		.4byte	.LASF136
 4514 1195 11       		.byte	0x11
 4515 1196 17       		.byte	0x17
 4516 1197 21       		.uleb128 0x21
 4517 1198 40030000 		.4byte	.LASF137
 4518 119c 0E       		.byte	0xe
ARM GAS  C:\Users\faithc\AppData\Local\Temp\ccWgDYSd.s 			page 104


 4519 119d 2A       		.byte	0x2a
 4520 119e 21       		.uleb128 0x21
 4521 119f A7090000 		.4byte	.LASF138
 4522 11a3 0D       		.byte	0xd
 4523 11a4 19       		.byte	0x19
 4524 11a5 21       		.uleb128 0x21
 4525 11a6 D4050000 		.4byte	.LASF139
 4526 11aa 10       		.byte	0x10
 4527 11ab 2A       		.byte	0x2a
 4528 11ac 21       		.uleb128 0x21
 4529 11ad D8000000 		.4byte	.LASF140
 4530 11b1 0F       		.byte	0xf
 4531 11b2 19       		.byte	0x19
 4532 11b3 21       		.uleb128 0x21
 4533 11b4 EF040000 		.4byte	.LASF141
 4534 11b8 11       		.byte	0x11
 4535 11b9 19       		.byte	0x19
 4536 11ba 22       		.uleb128 0x22
 4537 11bb D0010000 		.4byte	.LASF142
 4538 11bf 08       		.byte	0x8
 4539 11c0 1A       		.byte	0x1a
 4540 11c1 81000000 		.4byte	0x81
 4541 11c5 CF110000 		.4byte	0x11cf
 4542 11c9 23       		.uleb128 0x23
 4543 11ca 81000000 		.4byte	0x81
 4544 11ce 00       		.byte	0
 4545 11cf 22       		.uleb128 0x22
 4546 11d0 21070000 		.4byte	.LASF143
 4547 11d4 09       		.byte	0x9
 4548 11d5 1B       		.byte	0x1b
 4549 11d6 81000000 		.4byte	0x81
 4550 11da E4110000 		.4byte	0x11e4
 4551 11de 23       		.uleb128 0x23
 4552 11df 81000000 		.4byte	0x81
 4553 11e3 00       		.byte	0
 4554 11e4 20       		.uleb128 0x20
 4555 11e5 EF030000 		.4byte	.LASF144
 4556 11e9 12       		.byte	0x12
 4557 11ea 2B       		.byte	0x2b
 4558 11eb 81000000 		.4byte	0x81
 4559 11ef 20       		.uleb128 0x20
 4560 11f0 78060000 		.4byte	.LASF145
 4561 11f4 13       		.byte	0x13
 4562 11f5 2B       		.byte	0x2b
 4563 11f6 81000000 		.4byte	0x81
 4564 11fa 20       		.uleb128 0x20
 4565 11fb 57020000 		.4byte	.LASF146
 4566 11ff 14       		.byte	0x14
 4567 1200 28       		.byte	0x28
 4568 1201 81000000 		.4byte	0x81
 4569 1205 20       		.uleb128 0x20
 4570 1206 6B040000 		.4byte	.LASF147
 4571 120a 15       		.byte	0x15
 4572 120b 28       		.byte	0x28
 4573 120c 81000000 		.4byte	0x81
 4574 1210 20       		.uleb128 0x20
 4575 1211 02050000 		.4byte	.LASF148
ARM GAS  C:\Users\faithc\AppData\Local\Temp\ccWgDYSd.s 			page 105


 4576 1215 0E       		.byte	0xe
 4577 1216 28       		.byte	0x28
 4578 1217 81000000 		.4byte	0x81
 4579 121b 20       		.uleb128 0x20
 4580 121c 09060000 		.4byte	.LASF149
 4581 1220 10       		.byte	0x10
 4582 1221 28       		.byte	0x28
 4583 1222 81000000 		.4byte	0x81
 4584 1226 00       		.byte	0
 4585              		.section	.debug_abbrev,"",%progbits
 4586              	.Ldebug_abbrev0:
 4587 0000 01       		.uleb128 0x1
 4588 0001 11       		.uleb128 0x11
 4589 0002 01       		.byte	0x1
 4590 0003 25       		.uleb128 0x25
 4591 0004 0E       		.uleb128 0xe
 4592 0005 13       		.uleb128 0x13
 4593 0006 0B       		.uleb128 0xb
 4594 0007 03       		.uleb128 0x3
 4595 0008 0E       		.uleb128 0xe
 4596 0009 1B       		.uleb128 0x1b
 4597 000a 0E       		.uleb128 0xe
 4598 000b 55       		.uleb128 0x55
 4599 000c 17       		.uleb128 0x17
 4600 000d 11       		.uleb128 0x11
 4601 000e 01       		.uleb128 0x1
 4602 000f 10       		.uleb128 0x10
 4603 0010 17       		.uleb128 0x17
 4604 0011 00       		.byte	0
 4605 0012 00       		.byte	0
 4606 0013 02       		.uleb128 0x2
 4607 0014 24       		.uleb128 0x24
 4608 0015 00       		.byte	0
 4609 0016 0B       		.uleb128 0xb
 4610 0017 0B       		.uleb128 0xb
 4611 0018 3E       		.uleb128 0x3e
 4612 0019 0B       		.uleb128 0xb
 4613 001a 03       		.uleb128 0x3
 4614 001b 0E       		.uleb128 0xe
 4615 001c 00       		.byte	0
 4616 001d 00       		.byte	0
 4617 001e 03       		.uleb128 0x3
 4618 001f 16       		.uleb128 0x16
 4619 0020 00       		.byte	0
 4620 0021 03       		.uleb128 0x3
 4621 0022 0E       		.uleb128 0xe
 4622 0023 3A       		.uleb128 0x3a
 4623 0024 0B       		.uleb128 0xb
 4624 0025 3B       		.uleb128 0x3b
 4625 0026 0B       		.uleb128 0xb
 4626 0027 49       		.uleb128 0x49
 4627 0028 13       		.uleb128 0x13
 4628 0029 00       		.byte	0
 4629 002a 00       		.byte	0
 4630 002b 04       		.uleb128 0x4
 4631 002c 24       		.uleb128 0x24
 4632 002d 00       		.byte	0
ARM GAS  C:\Users\faithc\AppData\Local\Temp\ccWgDYSd.s 			page 106


 4633 002e 0B       		.uleb128 0xb
 4634 002f 0B       		.uleb128 0xb
 4635 0030 3E       		.uleb128 0x3e
 4636 0031 0B       		.uleb128 0xb
 4637 0032 03       		.uleb128 0x3
 4638 0033 08       		.uleb128 0x8
 4639 0034 00       		.byte	0
 4640 0035 00       		.byte	0
 4641 0036 05       		.uleb128 0x5
 4642 0037 16       		.uleb128 0x16
 4643 0038 00       		.byte	0
 4644 0039 03       		.uleb128 0x3
 4645 003a 0E       		.uleb128 0xe
 4646 003b 3A       		.uleb128 0x3a
 4647 003c 0B       		.uleb128 0xb
 4648 003d 3B       		.uleb128 0x3b
 4649 003e 05       		.uleb128 0x5
 4650 003f 49       		.uleb128 0x49
 4651 0040 13       		.uleb128 0x13
 4652 0041 00       		.byte	0
 4653 0042 00       		.byte	0
 4654 0043 06       		.uleb128 0x6
 4655 0044 04       		.uleb128 0x4
 4656 0045 01       		.byte	0x1
 4657 0046 03       		.uleb128 0x3
 4658 0047 0E       		.uleb128 0xe
 4659 0048 0B       		.uleb128 0xb
 4660 0049 0B       		.uleb128 0xb
 4661 004a 3A       		.uleb128 0x3a
 4662 004b 0B       		.uleb128 0xb
 4663 004c 3B       		.uleb128 0x3b
 4664 004d 0B       		.uleb128 0xb
 4665 004e 01       		.uleb128 0x1
 4666 004f 13       		.uleb128 0x13
 4667 0050 00       		.byte	0
 4668 0051 00       		.byte	0
 4669 0052 07       		.uleb128 0x7
 4670 0053 28       		.uleb128 0x28
 4671 0054 00       		.byte	0
 4672 0055 03       		.uleb128 0x3
 4673 0056 0E       		.uleb128 0xe
 4674 0057 1C       		.uleb128 0x1c
 4675 0058 0D       		.uleb128 0xd
 4676 0059 00       		.byte	0
 4677 005a 00       		.byte	0
 4678 005b 08       		.uleb128 0x8
 4679 005c 13       		.uleb128 0x13
 4680 005d 01       		.byte	0x1
 4681 005e 0B       		.uleb128 0xb
 4682 005f 0B       		.uleb128 0xb
 4683 0060 3A       		.uleb128 0x3a
 4684 0061 0B       		.uleb128 0xb
 4685 0062 3B       		.uleb128 0x3b
 4686 0063 0B       		.uleb128 0xb
 4687 0064 01       		.uleb128 0x1
 4688 0065 13       		.uleb128 0x13
 4689 0066 00       		.byte	0
ARM GAS  C:\Users\faithc\AppData\Local\Temp\ccWgDYSd.s 			page 107


 4690 0067 00       		.byte	0
 4691 0068 09       		.uleb128 0x9
 4692 0069 0D       		.uleb128 0xd
 4693 006a 00       		.byte	0
 4694 006b 03       		.uleb128 0x3
 4695 006c 0E       		.uleb128 0xe
 4696 006d 3A       		.uleb128 0x3a
 4697 006e 0B       		.uleb128 0xb
 4698 006f 3B       		.uleb128 0x3b
 4699 0070 0B       		.uleb128 0xb
 4700 0071 49       		.uleb128 0x49
 4701 0072 13       		.uleb128 0x13
 4702 0073 38       		.uleb128 0x38
 4703 0074 0B       		.uleb128 0xb
 4704 0075 00       		.byte	0
 4705 0076 00       		.byte	0
 4706 0077 0A       		.uleb128 0xa
 4707 0078 01       		.uleb128 0x1
 4708 0079 01       		.byte	0x1
 4709 007a 49       		.uleb128 0x49
 4710 007b 13       		.uleb128 0x13
 4711 007c 01       		.uleb128 0x1
 4712 007d 13       		.uleb128 0x13
 4713 007e 00       		.byte	0
 4714 007f 00       		.byte	0
 4715 0080 0B       		.uleb128 0xb
 4716 0081 21       		.uleb128 0x21
 4717 0082 00       		.byte	0
 4718 0083 49       		.uleb128 0x49
 4719 0084 13       		.uleb128 0x13
 4720 0085 2F       		.uleb128 0x2f
 4721 0086 0B       		.uleb128 0xb
 4722 0087 00       		.byte	0
 4723 0088 00       		.byte	0
 4724 0089 0C       		.uleb128 0xc
 4725 008a 2E       		.uleb128 0x2e
 4726 008b 01       		.byte	0x1
 4727 008c 03       		.uleb128 0x3
 4728 008d 0E       		.uleb128 0xe
 4729 008e 3A       		.uleb128 0x3a
 4730 008f 0B       		.uleb128 0xb
 4731 0090 3B       		.uleb128 0x3b
 4732 0091 05       		.uleb128 0x5
 4733 0092 27       		.uleb128 0x27
 4734 0093 19       		.uleb128 0x19
 4735 0094 49       		.uleb128 0x49
 4736 0095 13       		.uleb128 0x13
 4737 0096 11       		.uleb128 0x11
 4738 0097 01       		.uleb128 0x1
 4739 0098 12       		.uleb128 0x12
 4740 0099 06       		.uleb128 0x6
 4741 009a 40       		.uleb128 0x40
 4742 009b 18       		.uleb128 0x18
 4743 009c 9742     		.uleb128 0x2117
 4744 009e 19       		.uleb128 0x19
 4745 009f 01       		.uleb128 0x1
 4746 00a0 13       		.uleb128 0x13
ARM GAS  C:\Users\faithc\AppData\Local\Temp\ccWgDYSd.s 			page 108


 4747 00a1 00       		.byte	0
 4748 00a2 00       		.byte	0
 4749 00a3 0D       		.uleb128 0xd
 4750 00a4 05       		.uleb128 0x5
 4751 00a5 00       		.byte	0
 4752 00a6 03       		.uleb128 0x3
 4753 00a7 0E       		.uleb128 0xe
 4754 00a8 3A       		.uleb128 0x3a
 4755 00a9 0B       		.uleb128 0xb
 4756 00aa 3B       		.uleb128 0x3b
 4757 00ab 05       		.uleb128 0x5
 4758 00ac 49       		.uleb128 0x49
 4759 00ad 13       		.uleb128 0x13
 4760 00ae 02       		.uleb128 0x2
 4761 00af 17       		.uleb128 0x17
 4762 00b0 00       		.byte	0
 4763 00b1 00       		.byte	0
 4764 00b2 0E       		.uleb128 0xe
 4765 00b3 898201   		.uleb128 0x4109
 4766 00b6 00       		.byte	0
 4767 00b7 11       		.uleb128 0x11
 4768 00b8 01       		.uleb128 0x1
 4769 00b9 31       		.uleb128 0x31
 4770 00ba 13       		.uleb128 0x13
 4771 00bb 00       		.byte	0
 4772 00bc 00       		.byte	0
 4773 00bd 0F       		.uleb128 0xf
 4774 00be 898201   		.uleb128 0x4109
 4775 00c1 01       		.byte	0x1
 4776 00c2 11       		.uleb128 0x11
 4777 00c3 01       		.uleb128 0x1
 4778 00c4 31       		.uleb128 0x31
 4779 00c5 13       		.uleb128 0x13
 4780 00c6 01       		.uleb128 0x1
 4781 00c7 13       		.uleb128 0x13
 4782 00c8 00       		.byte	0
 4783 00c9 00       		.byte	0
 4784 00ca 10       		.uleb128 0x10
 4785 00cb 8A8201   		.uleb128 0x410a
 4786 00ce 00       		.byte	0
 4787 00cf 02       		.uleb128 0x2
 4788 00d0 18       		.uleb128 0x18
 4789 00d1 9142     		.uleb128 0x2111
 4790 00d3 18       		.uleb128 0x18
 4791 00d4 00       		.byte	0
 4792 00d5 00       		.byte	0
 4793 00d6 11       		.uleb128 0x11
 4794 00d7 898201   		.uleb128 0x4109
 4795 00da 01       		.byte	0x1
 4796 00db 11       		.uleb128 0x11
 4797 00dc 01       		.uleb128 0x1
 4798 00dd 31       		.uleb128 0x31
 4799 00de 13       		.uleb128 0x13
 4800 00df 00       		.byte	0
 4801 00e0 00       		.byte	0
 4802 00e1 12       		.uleb128 0x12
 4803 00e2 34       		.uleb128 0x34
ARM GAS  C:\Users\faithc\AppData\Local\Temp\ccWgDYSd.s 			page 109


 4804 00e3 00       		.byte	0
 4805 00e4 03       		.uleb128 0x3
 4806 00e5 0E       		.uleb128 0xe
 4807 00e6 3A       		.uleb128 0x3a
 4808 00e7 0B       		.uleb128 0xb
 4809 00e8 3B       		.uleb128 0x3b
 4810 00e9 05       		.uleb128 0x5
 4811 00ea 49       		.uleb128 0x49
 4812 00eb 13       		.uleb128 0x13
 4813 00ec 02       		.uleb128 0x2
 4814 00ed 17       		.uleb128 0x17
 4815 00ee 00       		.byte	0
 4816 00ef 00       		.byte	0
 4817 00f0 13       		.uleb128 0x13
 4818 00f1 2E       		.uleb128 0x2e
 4819 00f2 01       		.byte	0x1
 4820 00f3 3F       		.uleb128 0x3f
 4821 00f4 19       		.uleb128 0x19
 4822 00f5 03       		.uleb128 0x3
 4823 00f6 0E       		.uleb128 0xe
 4824 00f7 3A       		.uleb128 0x3a
 4825 00f8 0B       		.uleb128 0xb
 4826 00f9 3B       		.uleb128 0x3b
 4827 00fa 0B       		.uleb128 0xb
 4828 00fb 27       		.uleb128 0x27
 4829 00fc 19       		.uleb128 0x19
 4830 00fd 11       		.uleb128 0x11
 4831 00fe 01       		.uleb128 0x1
 4832 00ff 12       		.uleb128 0x12
 4833 0100 06       		.uleb128 0x6
 4834 0101 40       		.uleb128 0x40
 4835 0102 18       		.uleb128 0x18
 4836 0103 9742     		.uleb128 0x2117
 4837 0105 19       		.uleb128 0x19
 4838 0106 01       		.uleb128 0x1
 4839 0107 13       		.uleb128 0x13
 4840 0108 00       		.byte	0
 4841 0109 00       		.byte	0
 4842 010a 14       		.uleb128 0x14
 4843 010b 34       		.uleb128 0x34
 4844 010c 00       		.byte	0
 4845 010d 03       		.uleb128 0x3
 4846 010e 0E       		.uleb128 0xe
 4847 010f 3A       		.uleb128 0x3a
 4848 0110 0B       		.uleb128 0xb
 4849 0111 3B       		.uleb128 0x3b
 4850 0112 0B       		.uleb128 0xb
 4851 0113 49       		.uleb128 0x49
 4852 0114 13       		.uleb128 0x13
 4853 0115 02       		.uleb128 0x2
 4854 0116 17       		.uleb128 0x17
 4855 0117 00       		.byte	0
 4856 0118 00       		.byte	0
 4857 0119 15       		.uleb128 0x15
 4858 011a 2E       		.uleb128 0x2e
 4859 011b 01       		.byte	0x1
 4860 011c 3F       		.uleb128 0x3f
ARM GAS  C:\Users\faithc\AppData\Local\Temp\ccWgDYSd.s 			page 110


 4861 011d 19       		.uleb128 0x19
 4862 011e 03       		.uleb128 0x3
 4863 011f 0E       		.uleb128 0xe
 4864 0120 3A       		.uleb128 0x3a
 4865 0121 0B       		.uleb128 0xb
 4866 0122 3B       		.uleb128 0x3b
 4867 0123 05       		.uleb128 0x5
 4868 0124 27       		.uleb128 0x27
 4869 0125 19       		.uleb128 0x19
 4870 0126 11       		.uleb128 0x11
 4871 0127 01       		.uleb128 0x1
 4872 0128 12       		.uleb128 0x12
 4873 0129 06       		.uleb128 0x6
 4874 012a 40       		.uleb128 0x40
 4875 012b 18       		.uleb128 0x18
 4876 012c 9742     		.uleb128 0x2117
 4877 012e 19       		.uleb128 0x19
 4878 012f 01       		.uleb128 0x1
 4879 0130 13       		.uleb128 0x13
 4880 0131 00       		.byte	0
 4881 0132 00       		.byte	0
 4882 0133 16       		.uleb128 0x16
 4883 0134 2E       		.uleb128 0x2e
 4884 0135 01       		.byte	0x1
 4885 0136 03       		.uleb128 0x3
 4886 0137 0E       		.uleb128 0xe
 4887 0138 3A       		.uleb128 0x3a
 4888 0139 0B       		.uleb128 0xb
 4889 013a 3B       		.uleb128 0x3b
 4890 013b 05       		.uleb128 0x5
 4891 013c 27       		.uleb128 0x27
 4892 013d 19       		.uleb128 0x19
 4893 013e 11       		.uleb128 0x11
 4894 013f 01       		.uleb128 0x1
 4895 0140 12       		.uleb128 0x12
 4896 0141 06       		.uleb128 0x6
 4897 0142 40       		.uleb128 0x40
 4898 0143 18       		.uleb128 0x18
 4899 0144 9742     		.uleb128 0x2117
 4900 0146 19       		.uleb128 0x19
 4901 0147 01       		.uleb128 0x1
 4902 0148 13       		.uleb128 0x13
 4903 0149 00       		.byte	0
 4904 014a 00       		.byte	0
 4905 014b 17       		.uleb128 0x17
 4906 014c 34       		.uleb128 0x34
 4907 014d 00       		.byte	0
 4908 014e 03       		.uleb128 0x3
 4909 014f 0E       		.uleb128 0xe
 4910 0150 3A       		.uleb128 0x3a
 4911 0151 0B       		.uleb128 0xb
 4912 0152 3B       		.uleb128 0x3b
 4913 0153 05       		.uleb128 0x5
 4914 0154 49       		.uleb128 0x49
 4915 0155 13       		.uleb128 0x13
 4916 0156 02       		.uleb128 0x2
 4917 0157 18       		.uleb128 0x18
ARM GAS  C:\Users\faithc\AppData\Local\Temp\ccWgDYSd.s 			page 111


 4918 0158 00       		.byte	0
 4919 0159 00       		.byte	0
 4920 015a 18       		.uleb128 0x18
 4921 015b 34       		.uleb128 0x34
 4922 015c 00       		.byte	0
 4923 015d 03       		.uleb128 0x3
 4924 015e 0E       		.uleb128 0xe
 4925 015f 3A       		.uleb128 0x3a
 4926 0160 0B       		.uleb128 0xb
 4927 0161 3B       		.uleb128 0x3b
 4928 0162 05       		.uleb128 0x5
 4929 0163 49       		.uleb128 0x49
 4930 0164 13       		.uleb128 0x13
 4931 0165 00       		.byte	0
 4932 0166 00       		.byte	0
 4933 0167 19       		.uleb128 0x19
 4934 0168 2E       		.uleb128 0x2e
 4935 0169 01       		.byte	0x1
 4936 016a 3F       		.uleb128 0x3f
 4937 016b 19       		.uleb128 0x19
 4938 016c 03       		.uleb128 0x3
 4939 016d 0E       		.uleb128 0xe
 4940 016e 3A       		.uleb128 0x3a
 4941 016f 0B       		.uleb128 0xb
 4942 0170 3B       		.uleb128 0x3b
 4943 0171 05       		.uleb128 0x5
 4944 0172 27       		.uleb128 0x27
 4945 0173 19       		.uleb128 0x19
 4946 0174 49       		.uleb128 0x49
 4947 0175 13       		.uleb128 0x13
 4948 0176 11       		.uleb128 0x11
 4949 0177 01       		.uleb128 0x1
 4950 0178 12       		.uleb128 0x12
 4951 0179 06       		.uleb128 0x6
 4952 017a 40       		.uleb128 0x40
 4953 017b 18       		.uleb128 0x18
 4954 017c 9742     		.uleb128 0x2117
 4955 017e 19       		.uleb128 0x19
 4956 017f 01       		.uleb128 0x1
 4957 0180 13       		.uleb128 0x13
 4958 0181 00       		.byte	0
 4959 0182 00       		.byte	0
 4960 0183 1A       		.uleb128 0x1a
 4961 0184 34       		.uleb128 0x34
 4962 0185 00       		.byte	0
 4963 0186 03       		.uleb128 0x3
 4964 0187 0E       		.uleb128 0xe
 4965 0188 3A       		.uleb128 0x3a
 4966 0189 0B       		.uleb128 0xb
 4967 018a 3B       		.uleb128 0x3b
 4968 018b 0B       		.uleb128 0xb
 4969 018c 49       		.uleb128 0x49
 4970 018d 13       		.uleb128 0x13
 4971 018e 02       		.uleb128 0x2
 4972 018f 18       		.uleb128 0x18
 4973 0190 00       		.byte	0
 4974 0191 00       		.byte	0
ARM GAS  C:\Users\faithc\AppData\Local\Temp\ccWgDYSd.s 			page 112


 4975 0192 1B       		.uleb128 0x1b
 4976 0193 26       		.uleb128 0x26
 4977 0194 00       		.byte	0
 4978 0195 49       		.uleb128 0x49
 4979 0196 13       		.uleb128 0x13
 4980 0197 00       		.byte	0
 4981 0198 00       		.byte	0
 4982 0199 1C       		.uleb128 0x1c
 4983 019a 34       		.uleb128 0x34
 4984 019b 00       		.byte	0
 4985 019c 03       		.uleb128 0x3
 4986 019d 0E       		.uleb128 0xe
 4987 019e 3A       		.uleb128 0x3a
 4988 019f 0B       		.uleb128 0xb
 4989 01a0 3B       		.uleb128 0x3b
 4990 01a1 0B       		.uleb128 0xb
 4991 01a2 49       		.uleb128 0x49
 4992 01a3 13       		.uleb128 0x13
 4993 01a4 1C       		.uleb128 0x1c
 4994 01a5 0B       		.uleb128 0xb
 4995 01a6 00       		.byte	0
 4996 01a7 00       		.byte	0
 4997 01a8 1D       		.uleb128 0x1d
 4998 01a9 34       		.uleb128 0x34
 4999 01aa 00       		.byte	0
 5000 01ab 03       		.uleb128 0x3
 5001 01ac 0E       		.uleb128 0xe
 5002 01ad 3A       		.uleb128 0x3a
 5003 01ae 0B       		.uleb128 0xb
 5004 01af 3B       		.uleb128 0x3b
 5005 01b0 0B       		.uleb128 0xb
 5006 01b1 49       		.uleb128 0x49
 5007 01b2 13       		.uleb128 0x13
 5008 01b3 1C       		.uleb128 0x1c
 5009 01b4 0D       		.uleb128 0xd
 5010 01b5 00       		.byte	0
 5011 01b6 00       		.byte	0
 5012 01b7 1E       		.uleb128 0x1e
 5013 01b8 34       		.uleb128 0x34
 5014 01b9 00       		.byte	0
 5015 01ba 03       		.uleb128 0x3
 5016 01bb 0E       		.uleb128 0xe
 5017 01bc 3A       		.uleb128 0x3a
 5018 01bd 0B       		.uleb128 0xb
 5019 01be 3B       		.uleb128 0x3b
 5020 01bf 05       		.uleb128 0x5
 5021 01c0 49       		.uleb128 0x49
 5022 01c1 13       		.uleb128 0x13
 5023 01c2 3F       		.uleb128 0x3f
 5024 01c3 19       		.uleb128 0x19
 5025 01c4 3C       		.uleb128 0x3c
 5026 01c5 19       		.uleb128 0x19
 5027 01c6 00       		.byte	0
 5028 01c7 00       		.byte	0
 5029 01c8 1F       		.uleb128 0x1f
 5030 01c9 35       		.uleb128 0x35
 5031 01ca 00       		.byte	0
ARM GAS  C:\Users\faithc\AppData\Local\Temp\ccWgDYSd.s 			page 113


 5032 01cb 49       		.uleb128 0x49
 5033 01cc 13       		.uleb128 0x13
 5034 01cd 00       		.byte	0
 5035 01ce 00       		.byte	0
 5036 01cf 20       		.uleb128 0x20
 5037 01d0 2E       		.uleb128 0x2e
 5038 01d1 00       		.byte	0
 5039 01d2 3F       		.uleb128 0x3f
 5040 01d3 19       		.uleb128 0x19
 5041 01d4 03       		.uleb128 0x3
 5042 01d5 0E       		.uleb128 0xe
 5043 01d6 3A       		.uleb128 0x3a
 5044 01d7 0B       		.uleb128 0xb
 5045 01d8 3B       		.uleb128 0x3b
 5046 01d9 0B       		.uleb128 0xb
 5047 01da 27       		.uleb128 0x27
 5048 01db 19       		.uleb128 0x19
 5049 01dc 49       		.uleb128 0x49
 5050 01dd 13       		.uleb128 0x13
 5051 01de 3C       		.uleb128 0x3c
 5052 01df 19       		.uleb128 0x19
 5053 01e0 00       		.byte	0
 5054 01e1 00       		.byte	0
 5055 01e2 21       		.uleb128 0x21
 5056 01e3 2E       		.uleb128 0x2e
 5057 01e4 00       		.byte	0
 5058 01e5 3F       		.uleb128 0x3f
 5059 01e6 19       		.uleb128 0x19
 5060 01e7 03       		.uleb128 0x3
 5061 01e8 0E       		.uleb128 0xe
 5062 01e9 3A       		.uleb128 0x3a
 5063 01ea 0B       		.uleb128 0xb
 5064 01eb 3B       		.uleb128 0x3b
 5065 01ec 0B       		.uleb128 0xb
 5066 01ed 27       		.uleb128 0x27
 5067 01ee 19       		.uleb128 0x19
 5068 01ef 3C       		.uleb128 0x3c
 5069 01f0 19       		.uleb128 0x19
 5070 01f1 00       		.byte	0
 5071 01f2 00       		.byte	0
 5072 01f3 22       		.uleb128 0x22
 5073 01f4 2E       		.uleb128 0x2e
 5074 01f5 01       		.byte	0x1
 5075 01f6 3F       		.uleb128 0x3f
 5076 01f7 19       		.uleb128 0x19
 5077 01f8 03       		.uleb128 0x3
 5078 01f9 0E       		.uleb128 0xe
 5079 01fa 3A       		.uleb128 0x3a
 5080 01fb 0B       		.uleb128 0xb
 5081 01fc 3B       		.uleb128 0x3b
 5082 01fd 0B       		.uleb128 0xb
 5083 01fe 27       		.uleb128 0x27
 5084 01ff 19       		.uleb128 0x19
 5085 0200 49       		.uleb128 0x49
 5086 0201 13       		.uleb128 0x13
 5087 0202 3C       		.uleb128 0x3c
 5088 0203 19       		.uleb128 0x19
ARM GAS  C:\Users\faithc\AppData\Local\Temp\ccWgDYSd.s 			page 114


 5089 0204 01       		.uleb128 0x1
 5090 0205 13       		.uleb128 0x13
 5091 0206 00       		.byte	0
 5092 0207 00       		.byte	0
 5093 0208 23       		.uleb128 0x23
 5094 0209 05       		.uleb128 0x5
 5095 020a 00       		.byte	0
 5096 020b 49       		.uleb128 0x49
 5097 020c 13       		.uleb128 0x13
 5098 020d 00       		.byte	0
 5099 020e 00       		.byte	0
 5100 020f 24       		.uleb128 0x24
 5101 0210 2E       		.uleb128 0x2e
 5102 0211 01       		.byte	0x1
 5103 0212 3F       		.uleb128 0x3f
 5104 0213 19       		.uleb128 0x19
 5105 0214 03       		.uleb128 0x3
 5106 0215 0E       		.uleb128 0xe
 5107 0216 3A       		.uleb128 0x3a
 5108 0217 0B       		.uleb128 0xb
 5109 0218 3B       		.uleb128 0x3b
 5110 0219 0B       		.uleb128 0xb
 5111 021a 27       		.uleb128 0x27
 5112 021b 19       		.uleb128 0x19
 5113 021c 3C       		.uleb128 0x3c
 5114 021d 19       		.uleb128 0x19
 5115 021e 01       		.uleb128 0x1
 5116 021f 13       		.uleb128 0x13
 5117 0220 00       		.byte	0
 5118 0221 00       		.byte	0
 5119 0222 00       		.byte	0
 5120              		.section	.debug_loc,"",%progbits
 5121              	.Ldebug_loc0:
 5122              	.LLST0:
 5123 0000 00000000 		.4byte	.LVL0
 5124 0004 02000000 		.4byte	.LVL1
 5125 0008 0100     		.2byte	0x1
 5126 000a 50       		.byte	0x50
 5127 000b 02000000 		.4byte	.LVL1
 5128 000f 10000000 		.4byte	.LFE83
 5129 0013 0400     		.2byte	0x4
 5130 0015 F3       		.byte	0xf3
 5131 0016 01       		.uleb128 0x1
 5132 0017 50       		.byte	0x50
 5133 0018 9F       		.byte	0x9f
 5134 0019 00000000 		.4byte	0
 5135 001d 00000000 		.4byte	0
 5136              	.LLST1:
 5137 0021 00000000 		.4byte	.LVL2
 5138 0025 0D000000 		.4byte	.LVL3-1
 5139 0029 0100     		.2byte	0x1
 5140 002b 50       		.byte	0x50
 5141 002c 0D000000 		.4byte	.LVL3-1
 5142 0030 16000000 		.4byte	.LVL4
 5143 0034 0400     		.2byte	0x4
 5144 0036 F3       		.byte	0xf3
 5145 0037 01       		.uleb128 0x1
ARM GAS  C:\Users\faithc\AppData\Local\Temp\ccWgDYSd.s 			page 115


 5146 0038 50       		.byte	0x50
 5147 0039 9F       		.byte	0x9f
 5148 003a 16000000 		.4byte	.LVL4
 5149 003e 1C000000 		.4byte	.LVL5
 5150 0042 0100     		.2byte	0x1
 5151 0044 50       		.byte	0x50
 5152 0045 1C000000 		.4byte	.LVL5
 5153 0049 20000000 		.4byte	.LFE81
 5154 004d 0400     		.2byte	0x4
 5155 004f F3       		.byte	0xf3
 5156 0050 01       		.uleb128 0x1
 5157 0051 50       		.byte	0x50
 5158 0052 9F       		.byte	0x9f
 5159 0053 00000000 		.4byte	0
 5160 0057 00000000 		.4byte	0
 5161              	.LLST2:
 5162 005b 00000000 		.4byte	.LVL6
 5163 005f 06000000 		.4byte	.LVL7
 5164 0063 0100     		.2byte	0x1
 5165 0065 50       		.byte	0x50
 5166 0066 06000000 		.4byte	.LVL7
 5167 006a 08000000 		.4byte	.LVL8
 5168 006e 0400     		.2byte	0x4
 5169 0070 F3       		.byte	0xf3
 5170 0071 01       		.uleb128 0x1
 5171 0072 50       		.byte	0x50
 5172 0073 9F       		.byte	0x9f
 5173 0074 08000000 		.4byte	.LVL8
 5174 0078 0A000000 		.4byte	.LVL9
 5175 007c 0100     		.2byte	0x1
 5176 007e 50       		.byte	0x50
 5177 007f 0A000000 		.4byte	.LVL9
 5178 0083 0C000000 		.4byte	.LFE84
 5179 0087 0400     		.2byte	0x4
 5180 0089 F3       		.byte	0xf3
 5181 008a 01       		.uleb128 0x1
 5182 008b 50       		.byte	0x50
 5183 008c 9F       		.byte	0x9f
 5184 008d 00000000 		.4byte	0
 5185 0091 00000000 		.4byte	0
 5186              	.LLST3:
 5187 0095 00000000 		.4byte	.LVL10
 5188 0099 0B000000 		.4byte	.LVL11-1
 5189 009d 0100     		.2byte	0x1
 5190 009f 50       		.byte	0x50
 5191 00a0 0B000000 		.4byte	.LVL11-1
 5192 00a4 1C000000 		.4byte	.LVL13
 5193 00a8 0400     		.2byte	0x4
 5194 00aa F3       		.byte	0xf3
 5195 00ab 01       		.uleb128 0x1
 5196 00ac 50       		.byte	0x50
 5197 00ad 9F       		.byte	0x9f
 5198 00ae 1C000000 		.4byte	.LVL13
 5199 00b2 20000000 		.4byte	.LVL14
 5200 00b6 0100     		.2byte	0x1
 5201 00b8 50       		.byte	0x50
 5202 00b9 20000000 		.4byte	.LVL14
ARM GAS  C:\Users\faithc\AppData\Local\Temp\ccWgDYSd.s 			page 116


 5203 00bd 28000000 		.4byte	.LFE82
 5204 00c1 0400     		.2byte	0x4
 5205 00c3 F3       		.byte	0xf3
 5206 00c4 01       		.uleb128 0x1
 5207 00c5 50       		.byte	0x50
 5208 00c6 9F       		.byte	0x9f
 5209 00c7 00000000 		.4byte	0
 5210 00cb 00000000 		.4byte	0
 5211              	.LLST4:
 5212 00cf 00000000 		.4byte	.LVL15
 5213 00d3 09000000 		.4byte	.LVL16-1
 5214 00d7 0100     		.2byte	0x1
 5215 00d9 50       		.byte	0x50
 5216 00da 09000000 		.4byte	.LVL16-1
 5217 00de 22000000 		.4byte	.LVL17
 5218 00e2 0400     		.2byte	0x4
 5219 00e4 F3       		.byte	0xf3
 5220 00e5 01       		.uleb128 0x1
 5221 00e6 50       		.byte	0x50
 5222 00e7 9F       		.byte	0x9f
 5223 00e8 22000000 		.4byte	.LVL17
 5224 00ec 24000000 		.4byte	.LVL18
 5225 00f0 0100     		.2byte	0x1
 5226 00f2 50       		.byte	0x50
 5227 00f3 24000000 		.4byte	.LVL18
 5228 00f7 38000000 		.4byte	.LFE80
 5229 00fb 0400     		.2byte	0x4
 5230 00fd F3       		.byte	0xf3
 5231 00fe 01       		.uleb128 0x1
 5232 00ff 50       		.byte	0x50
 5233 0100 9F       		.byte	0x9f
 5234 0101 00000000 		.4byte	0
 5235 0105 00000000 		.4byte	0
 5236              	.LLST5:
 5237 0109 00000000 		.4byte	.LVL19
 5238 010d 02000000 		.4byte	.LVL20
 5239 0111 0100     		.2byte	0x1
 5240 0113 50       		.byte	0x50
 5241 0114 02000000 		.4byte	.LVL20
 5242 0118 46000000 		.4byte	.LFE85
 5243 011c 0400     		.2byte	0x4
 5244 011e F3       		.byte	0xf3
 5245 011f 01       		.uleb128 0x1
 5246 0120 50       		.byte	0x50
 5247 0121 9F       		.byte	0x9f
 5248 0122 00000000 		.4byte	0
 5249 0126 00000000 		.4byte	0
 5250              	.LLST6:
 5251 012a 00000000 		.4byte	.LVL19
 5252 012e 2E000000 		.4byte	.LVL21
 5253 0132 0200     		.2byte	0x2
 5254 0134 30       		.byte	0x30
 5255 0135 9F       		.byte	0x9f
 5256 0136 2E000000 		.4byte	.LVL21
 5257 013a 32000000 		.4byte	.LVL22
 5258 013e 0200     		.2byte	0x2
 5259 0140 32       		.byte	0x32
ARM GAS  C:\Users\faithc\AppData\Local\Temp\ccWgDYSd.s 			page 117


 5260 0141 9F       		.byte	0x9f
 5261 0142 32000000 		.4byte	.LVL22
 5262 0146 36000000 		.4byte	.LVL23
 5263 014a 0200     		.2byte	0x2
 5264 014c 33       		.byte	0x33
 5265 014d 9F       		.byte	0x9f
 5266 014e 36000000 		.4byte	.LVL23
 5267 0152 3A000000 		.4byte	.LVL24
 5268 0156 0200     		.2byte	0x2
 5269 0158 34       		.byte	0x34
 5270 0159 9F       		.byte	0x9f
 5271 015a 3A000000 		.4byte	.LVL24
 5272 015e 3E000000 		.4byte	.LVL25
 5273 0162 0200     		.2byte	0x2
 5274 0164 35       		.byte	0x35
 5275 0165 9F       		.byte	0x9f
 5276 0166 3E000000 		.4byte	.LVL25
 5277 016a 42000000 		.4byte	.LVL26
 5278 016e 0300     		.2byte	0x3
 5279 0170 09       		.byte	0x9
 5280 0171 FF       		.byte	0xff
 5281 0172 9F       		.byte	0x9f
 5282 0173 42000000 		.4byte	.LVL26
 5283 0177 44000000 		.4byte	.LVL27
 5284 017b 0200     		.2byte	0x2
 5285 017d 30       		.byte	0x30
 5286 017e 9F       		.byte	0x9f
 5287 017f 44000000 		.4byte	.LVL27
 5288 0183 46000000 		.4byte	.LFE85
 5289 0187 0100     		.2byte	0x1
 5290 0189 50       		.byte	0x50
 5291 018a 00000000 		.4byte	0
 5292 018e 00000000 		.4byte	0
 5293              	.LLST7:
 5294 0192 00000000 		.4byte	.LVL28
 5295 0196 0B000000 		.4byte	.LVL29-1
 5296 019a 0100     		.2byte	0x1
 5297 019c 50       		.byte	0x50
 5298 019d 0B000000 		.4byte	.LVL29-1
 5299 01a1 0E000000 		.4byte	.LVL30
 5300 01a5 0400     		.2byte	0x4
 5301 01a7 F3       		.byte	0xf3
 5302 01a8 01       		.uleb128 0x1
 5303 01a9 50       		.byte	0x50
 5304 01aa 9F       		.byte	0x9f
 5305 01ab 0E000000 		.4byte	.LVL30
 5306 01af 11000000 		.4byte	.LVL31-1
 5307 01b3 0100     		.2byte	0x1
 5308 01b5 50       		.byte	0x50
 5309 01b6 11000000 		.4byte	.LVL31-1
 5310 01ba 3A000000 		.4byte	.LVL33
 5311 01be 0400     		.2byte	0x4
 5312 01c0 F3       		.byte	0xf3
 5313 01c1 01       		.uleb128 0x1
 5314 01c2 50       		.byte	0x50
 5315 01c3 9F       		.byte	0x9f
 5316 01c4 3A000000 		.4byte	.LVL33
ARM GAS  C:\Users\faithc\AppData\Local\Temp\ccWgDYSd.s 			page 118


 5317 01c8 3C000000 		.4byte	.LVL34
 5318 01cc 0100     		.2byte	0x1
 5319 01ce 50       		.byte	0x50
 5320 01cf 3C000000 		.4byte	.LVL34
 5321 01d3 56000000 		.4byte	.LFE79
 5322 01d7 0400     		.2byte	0x4
 5323 01d9 F3       		.byte	0xf3
 5324 01da 01       		.uleb128 0x1
 5325 01db 50       		.byte	0x50
 5326 01dc 9F       		.byte	0x9f
 5327 01dd 00000000 		.4byte	0
 5328 01e1 00000000 		.4byte	0
 5329              	.LLST8:
 5330 01e5 00000000 		.4byte	.LVL28
 5331 01e9 0C000000 		.4byte	.LVL29
 5332 01ed 0200     		.2byte	0x2
 5333 01ef 30       		.byte	0x30
 5334 01f0 9F       		.byte	0x9f
 5335 01f1 0C000000 		.4byte	.LVL29
 5336 01f5 0E000000 		.4byte	.LVL30
 5337 01f9 0100     		.2byte	0x1
 5338 01fb 50       		.byte	0x50
 5339 01fc 0E000000 		.4byte	.LVL30
 5340 0200 12000000 		.4byte	.LVL31
 5341 0204 0200     		.2byte	0x2
 5342 0206 30       		.byte	0x30
 5343 0207 9F       		.byte	0x9f
 5344 0208 12000000 		.4byte	.LVL31
 5345 020c 38000000 		.4byte	.LVL32
 5346 0210 0100     		.2byte	0x1
 5347 0212 50       		.byte	0x50
 5348 0213 3A000000 		.4byte	.LVL33
 5349 0217 3E000000 		.4byte	.LVL35
 5350 021b 0200     		.2byte	0x2
 5351 021d 30       		.byte	0x30
 5352 021e 9F       		.byte	0x9f
 5353 021f 3E000000 		.4byte	.LVL35
 5354 0223 40000000 		.4byte	.LVL36
 5355 0227 0100     		.2byte	0x1
 5356 0229 50       		.byte	0x50
 5357 022a 42000000 		.4byte	.LVL37
 5358 022e 44000000 		.4byte	.LVL38
 5359 0232 0100     		.2byte	0x1
 5360 0234 50       		.byte	0x50
 5361 0235 46000000 		.4byte	.LVL39
 5362 0239 48000000 		.4byte	.LVL40
 5363 023d 0100     		.2byte	0x1
 5364 023f 50       		.byte	0x50
 5365 0240 4A000000 		.4byte	.LVL41
 5366 0244 4C000000 		.4byte	.LVL42
 5367 0248 0100     		.2byte	0x1
 5368 024a 50       		.byte	0x50
 5369 024b 4E000000 		.4byte	.LVL43
 5370 024f 50000000 		.4byte	.LVL44
 5371 0253 0100     		.2byte	0x1
 5372 0255 50       		.byte	0x50
 5373 0256 52000000 		.4byte	.LVL45
ARM GAS  C:\Users\faithc\AppData\Local\Temp\ccWgDYSd.s 			page 119


 5374 025a 54000000 		.4byte	.LVL46
 5375 025e 0100     		.2byte	0x1
 5376 0260 50       		.byte	0x50
 5377 0261 00000000 		.4byte	0
 5378 0265 00000000 		.4byte	0
 5379              	.LLST9:
 5380 0269 00000000 		.4byte	.LVL47
 5381 026d 1B000000 		.4byte	.LVL48-1
 5382 0271 0100     		.2byte	0x1
 5383 0273 50       		.byte	0x50
 5384 0274 1B000000 		.4byte	.LVL48-1
 5385 0278 42000000 		.4byte	.LVL53
 5386 027c 0400     		.2byte	0x4
 5387 027e F3       		.byte	0xf3
 5388 027f 01       		.uleb128 0x1
 5389 0280 50       		.byte	0x50
 5390 0281 9F       		.byte	0x9f
 5391 0282 42000000 		.4byte	.LVL53
 5392 0286 44000000 		.4byte	.LVL54
 5393 028a 0100     		.2byte	0x1
 5394 028c 50       		.byte	0x50
 5395 028d 44000000 		.4byte	.LVL54
 5396 0291 46000000 		.4byte	.LVL55
 5397 0295 0400     		.2byte	0x4
 5398 0297 F3       		.byte	0xf3
 5399 0298 01       		.uleb128 0x1
 5400 0299 50       		.byte	0x50
 5401 029a 9F       		.byte	0x9f
 5402 029b 46000000 		.4byte	.LVL55
 5403 029f 48000000 		.4byte	.LVL56
 5404 02a3 0100     		.2byte	0x1
 5405 02a5 50       		.byte	0x50
 5406 02a6 48000000 		.4byte	.LVL56
 5407 02aa 4A000000 		.4byte	.LVL57
 5408 02ae 0400     		.2byte	0x4
 5409 02b0 F3       		.byte	0xf3
 5410 02b1 01       		.uleb128 0x1
 5411 02b2 50       		.byte	0x50
 5412 02b3 9F       		.byte	0x9f
 5413 02b4 4A000000 		.4byte	.LVL57
 5414 02b8 4C000000 		.4byte	.LVL58
 5415 02bc 0100     		.2byte	0x1
 5416 02be 50       		.byte	0x50
 5417 02bf 4C000000 		.4byte	.LVL58
 5418 02c3 4E000000 		.4byte	.LFE78
 5419 02c7 0400     		.2byte	0x4
 5420 02c9 F3       		.byte	0xf3
 5421 02ca 01       		.uleb128 0x1
 5422 02cb 50       		.byte	0x50
 5423 02cc 9F       		.byte	0x9f
 5424 02cd 00000000 		.4byte	0
 5425 02d1 00000000 		.4byte	0
 5426              	.LLST10:
 5427 02d5 00000000 		.4byte	.LVL47
 5428 02d9 1B000000 		.4byte	.LVL48-1
 5429 02dd 0100     		.2byte	0x1
 5430 02df 51       		.byte	0x51
ARM GAS  C:\Users\faithc\AppData\Local\Temp\ccWgDYSd.s 			page 120


 5431 02e0 1B000000 		.4byte	.LVL48-1
 5432 02e4 42000000 		.4byte	.LVL53
 5433 02e8 0400     		.2byte	0x4
 5434 02ea F3       		.byte	0xf3
 5435 02eb 01       		.uleb128 0x1
 5436 02ec 51       		.byte	0x51
 5437 02ed 9F       		.byte	0x9f
 5438 02ee 42000000 		.4byte	.LVL53
 5439 02f2 4E000000 		.4byte	.LFE78
 5440 02f6 0100     		.2byte	0x1
 5441 02f8 51       		.byte	0x51
 5442 02f9 00000000 		.4byte	0
 5443 02fd 00000000 		.4byte	0
 5444              	.LLST11:
 5445 0301 00000000 		.4byte	.LVL47
 5446 0305 1B000000 		.4byte	.LVL48-1
 5447 0309 0100     		.2byte	0x1
 5448 030b 52       		.byte	0x52
 5449 030c 1B000000 		.4byte	.LVL48-1
 5450 0310 42000000 		.4byte	.LVL53
 5451 0314 0400     		.2byte	0x4
 5452 0316 F3       		.byte	0xf3
 5453 0317 01       		.uleb128 0x1
 5454 0318 52       		.byte	0x52
 5455 0319 9F       		.byte	0x9f
 5456 031a 42000000 		.4byte	.LVL53
 5457 031e 4E000000 		.4byte	.LFE78
 5458 0322 0100     		.2byte	0x1
 5459 0324 52       		.byte	0x52
 5460 0325 00000000 		.4byte	0
 5461 0329 00000000 		.4byte	0
 5462              	.LLST12:
 5463 032d 00000000 		.4byte	.LVL59
 5464 0331 19000000 		.4byte	.LVL60-1
 5465 0335 0100     		.2byte	0x1
 5466 0337 50       		.byte	0x50
 5467 0338 19000000 		.4byte	.LVL60-1
 5468 033c 48000000 		.4byte	.LVL65
 5469 0340 0400     		.2byte	0x4
 5470 0342 F3       		.byte	0xf3
 5471 0343 01       		.uleb128 0x1
 5472 0344 50       		.byte	0x50
 5473 0345 9F       		.byte	0x9f
 5474 0346 48000000 		.4byte	.LVL65
 5475 034a 4A000000 		.4byte	.LVL66
 5476 034e 0100     		.2byte	0x1
 5477 0350 50       		.byte	0x50
 5478 0351 4A000000 		.4byte	.LVL66
 5479 0355 4C000000 		.4byte	.LVL67
 5480 0359 0400     		.2byte	0x4
 5481 035b F3       		.byte	0xf3
 5482 035c 01       		.uleb128 0x1
 5483 035d 50       		.byte	0x50
 5484 035e 9F       		.byte	0x9f
 5485 035f 4C000000 		.4byte	.LVL67
 5486 0363 4E000000 		.4byte	.LVL68
 5487 0367 0100     		.2byte	0x1
ARM GAS  C:\Users\faithc\AppData\Local\Temp\ccWgDYSd.s 			page 121


 5488 0369 50       		.byte	0x50
 5489 036a 4E000000 		.4byte	.LVL68
 5490 036e 50000000 		.4byte	.LVL69
 5491 0372 0400     		.2byte	0x4
 5492 0374 F3       		.byte	0xf3
 5493 0375 01       		.uleb128 0x1
 5494 0376 50       		.byte	0x50
 5495 0377 9F       		.byte	0x9f
 5496 0378 50000000 		.4byte	.LVL69
 5497 037c 52000000 		.4byte	.LVL70
 5498 0380 0100     		.2byte	0x1
 5499 0382 50       		.byte	0x50
 5500 0383 52000000 		.4byte	.LVL70
 5501 0387 58000000 		.4byte	.LFE77
 5502 038b 0400     		.2byte	0x4
 5503 038d F3       		.byte	0xf3
 5504 038e 01       		.uleb128 0x1
 5505 038f 50       		.byte	0x50
 5506 0390 9F       		.byte	0x9f
 5507 0391 00000000 		.4byte	0
 5508 0395 00000000 		.4byte	0
 5509              	.LLST13:
 5510 0399 00000000 		.4byte	.LVL59
 5511 039d 19000000 		.4byte	.LVL60-1
 5512 03a1 0100     		.2byte	0x1
 5513 03a3 51       		.byte	0x51
 5514 03a4 19000000 		.4byte	.LVL60-1
 5515 03a8 48000000 		.4byte	.LVL65
 5516 03ac 0400     		.2byte	0x4
 5517 03ae F3       		.byte	0xf3
 5518 03af 01       		.uleb128 0x1
 5519 03b0 51       		.byte	0x51
 5520 03b1 9F       		.byte	0x9f
 5521 03b2 48000000 		.4byte	.LVL65
 5522 03b6 54000000 		.4byte	.LVL71
 5523 03ba 0100     		.2byte	0x1
 5524 03bc 51       		.byte	0x51
 5525 03bd 54000000 		.4byte	.LVL71
 5526 03c1 58000000 		.4byte	.LFE77
 5527 03c5 0400     		.2byte	0x4
 5528 03c7 F3       		.byte	0xf3
 5529 03c8 01       		.uleb128 0x1
 5530 03c9 51       		.byte	0x51
 5531 03ca 9F       		.byte	0x9f
 5532 03cb 00000000 		.4byte	0
 5533 03cf 00000000 		.4byte	0
 5534              	.LLST14:
 5535 03d3 00000000 		.4byte	.LVL59
 5536 03d7 19000000 		.4byte	.LVL60-1
 5537 03db 0100     		.2byte	0x1
 5538 03dd 52       		.byte	0x52
 5539 03de 19000000 		.4byte	.LVL60-1
 5540 03e2 48000000 		.4byte	.LVL65
 5541 03e6 0400     		.2byte	0x4
 5542 03e8 F3       		.byte	0xf3
 5543 03e9 01       		.uleb128 0x1
 5544 03ea 52       		.byte	0x52
ARM GAS  C:\Users\faithc\AppData\Local\Temp\ccWgDYSd.s 			page 122


 5545 03eb 9F       		.byte	0x9f
 5546 03ec 48000000 		.4byte	.LVL65
 5547 03f0 54000000 		.4byte	.LVL71
 5548 03f4 0100     		.2byte	0x1
 5549 03f6 52       		.byte	0x52
 5550 03f7 54000000 		.4byte	.LVL71
 5551 03fb 58000000 		.4byte	.LFE77
 5552 03ff 0400     		.2byte	0x4
 5553 0401 F3       		.byte	0xf3
 5554 0402 01       		.uleb128 0x1
 5555 0403 52       		.byte	0x52
 5556 0404 9F       		.byte	0x9f
 5557 0405 00000000 		.4byte	0
 5558 0409 00000000 		.4byte	0
 5559              	.LLST15:
 5560 040d 00000000 		.4byte	.LVL59
 5561 0411 19000000 		.4byte	.LVL60-1
 5562 0415 0100     		.2byte	0x1
 5563 0417 53       		.byte	0x53
 5564 0418 19000000 		.4byte	.LVL60-1
 5565 041c 48000000 		.4byte	.LVL65
 5566 0420 0400     		.2byte	0x4
 5567 0422 F3       		.byte	0xf3
 5568 0423 01       		.uleb128 0x1
 5569 0424 53       		.byte	0x53
 5570 0425 9F       		.byte	0x9f
 5571 0426 48000000 		.4byte	.LVL65
 5572 042a 54000000 		.4byte	.LVL71
 5573 042e 0100     		.2byte	0x1
 5574 0430 53       		.byte	0x53
 5575 0431 54000000 		.4byte	.LVL71
 5576 0435 58000000 		.4byte	.LFE77
 5577 0439 0400     		.2byte	0x4
 5578 043b F3       		.byte	0xf3
 5579 043c 01       		.uleb128 0x1
 5580 043d 53       		.byte	0x53
 5581 043e 9F       		.byte	0x9f
 5582 043f 00000000 		.4byte	0
 5583 0443 00000000 		.4byte	0
 5584              	.LLST16:
 5585 0447 02000000 		.4byte	.LVL72
 5586 044b 0C000000 		.4byte	.LVL74
 5587 044f 0200     		.2byte	0x2
 5588 0451 30       		.byte	0x30
 5589 0452 9F       		.byte	0x9f
 5590 0453 0C000000 		.4byte	.LVL74
 5591 0457 AC000000 		.4byte	.LVL110
 5592 045b 0100     		.2byte	0x1
 5593 045d 56       		.byte	0x56
 5594 045e 00000000 		.4byte	0
 5595 0462 00000000 		.4byte	0
 5596              	.LLST17:
 5597 0466 02000000 		.4byte	.LVL72
 5598 046a 0C000000 		.4byte	.LVL74
 5599 046e 0200     		.2byte	0x2
 5600 0470 30       		.byte	0x30
 5601 0471 9F       		.byte	0x9f
ARM GAS  C:\Users\faithc\AppData\Local\Temp\ccWgDYSd.s 			page 123


 5602 0472 0C000000 		.4byte	.LVL74
 5603 0476 30000000 		.4byte	.LVL83
 5604 047a 0100     		.2byte	0x1
 5605 047c 55       		.byte	0x55
 5606 047d 32000000 		.4byte	.LVL84
 5607 0481 46000000 		.4byte	.LVL86
 5608 0485 0100     		.2byte	0x1
 5609 0487 55       		.byte	0x55
 5610 0488 46000000 		.4byte	.LVL86
 5611 048c 4A000000 		.4byte	.LVL87
 5612 0490 0200     		.2byte	0x2
 5613 0492 30       		.byte	0x30
 5614 0493 9F       		.byte	0x9f
 5615 0494 4A000000 		.4byte	.LVL87
 5616 0498 6A000000 		.4byte	.LVL94
 5617 049c 0100     		.2byte	0x1
 5618 049e 55       		.byte	0x55
 5619 049f 6C000000 		.4byte	.LVL95
 5620 04a3 7A000000 		.4byte	.LVL97
 5621 04a7 0100     		.2byte	0x1
 5622 04a9 55       		.byte	0x55
 5623 04aa 7C000000 		.4byte	.LVL98
 5624 04ae A4000000 		.4byte	.LVL108
 5625 04b2 0100     		.2byte	0x1
 5626 04b4 55       		.byte	0x55
 5627 04b5 A6000000 		.4byte	.LVL109
 5628 04b9 AC000000 		.4byte	.LVL110
 5629 04bd 0100     		.2byte	0x1
 5630 04bf 55       		.byte	0x55
 5631 04c0 00000000 		.4byte	0
 5632 04c4 00000000 		.4byte	0
 5633              	.LLST18:
 5634 04c8 02000000 		.4byte	.LVL72
 5635 04cc 0C000000 		.4byte	.LVL74
 5636 04d0 0300     		.2byte	0x3
 5637 04d2 09       		.byte	0x9
 5638 04d3 FF       		.byte	0xff
 5639 04d4 9F       		.byte	0x9f
 5640 04d5 0C000000 		.4byte	.LVL74
 5641 04d9 20000000 		.4byte	.LVL77
 5642 04dd 0100     		.2byte	0x1
 5643 04df 54       		.byte	0x54
 5644 04e0 22000000 		.4byte	.LVL78
 5645 04e4 24000000 		.4byte	.LVL79
 5646 04e8 0100     		.2byte	0x1
 5647 04ea 54       		.byte	0x54
 5648 04eb 26000000 		.4byte	.LVL80
 5649 04ef 32000000 		.4byte	.LVL84
 5650 04f3 0100     		.2byte	0x1
 5651 04f5 54       		.byte	0x54
 5652 04f6 4A000000 		.4byte	.LVL87
 5653 04fa 5E000000 		.4byte	.LVL90
 5654 04fe 0100     		.2byte	0x1
 5655 0500 54       		.byte	0x54
 5656 0501 60000000 		.4byte	.LVL91
 5657 0505 62000000 		.4byte	.LVL92
 5658 0509 0100     		.2byte	0x1
ARM GAS  C:\Users\faithc\AppData\Local\Temp\ccWgDYSd.s 			page 124


 5659 050b 54       		.byte	0x54
 5660 050c 64000000 		.4byte	.LVL93
 5661 0510 6C000000 		.4byte	.LVL95
 5662 0514 0100     		.2byte	0x1
 5663 0516 54       		.byte	0x54
 5664 0517 7C000000 		.4byte	.LVL98
 5665 051b 98000000 		.4byte	.LVL104
 5666 051f 0100     		.2byte	0x1
 5667 0521 54       		.byte	0x54
 5668 0522 9A000000 		.4byte	.LVL105
 5669 0526 9C000000 		.4byte	.LVL106
 5670 052a 0100     		.2byte	0x1
 5671 052c 54       		.byte	0x54
 5672 052d 9E000000 		.4byte	.LVL107
 5673 0531 A6000000 		.4byte	.LVL109
 5674 0535 0100     		.2byte	0x1
 5675 0537 54       		.byte	0x54
 5676 0538 00000000 		.4byte	0
 5677 053c 00000000 		.4byte	0
 5678              	.LLST19:
 5679 0540 02000000 		.4byte	.LVL72
 5680 0544 0C000000 		.4byte	.LVL74
 5681 0548 0200     		.2byte	0x2
 5682 054a 30       		.byte	0x30
 5683 054b 9F       		.byte	0x9f
 5684 054c 14000000 		.4byte	.LVL75
 5685 0550 19000000 		.4byte	.LVL76-1
 5686 0554 0100     		.2byte	0x1
 5687 0556 50       		.byte	0x50
 5688 0557 19000000 		.4byte	.LVL76-1
 5689 055b 20000000 		.4byte	.LVL77
 5690 055f 0D00     		.2byte	0xd
 5691 0561 75       		.byte	0x75
 5692 0562 00       		.sleb128 0
 5693 0563 31       		.byte	0x31
 5694 0564 24       		.byte	0x24
 5695 0565 75       		.byte	0x75
 5696 0566 00       		.sleb128 0
 5697 0567 22       		.byte	0x22
 5698 0568 31       		.byte	0x31
 5699 0569 24       		.byte	0x24
 5700 056a 74       		.byte	0x74
 5701 056b 00       		.sleb128 0
 5702 056c 22       		.byte	0x22
 5703 056d 9F       		.byte	0x9f
 5704 056e 20000000 		.4byte	.LVL77
 5705 0572 22000000 		.4byte	.LVL78
 5706 0576 0F00     		.2byte	0xf
 5707 0578 75       		.byte	0x75
 5708 0579 00       		.sleb128 0
 5709 057a 31       		.byte	0x31
 5710 057b 24       		.byte	0x24
 5711 057c 75       		.byte	0x75
 5712 057d 00       		.sleb128 0
 5713 057e 22       		.byte	0x22
 5714 057f 31       		.byte	0x31
 5715 0580 24       		.byte	0x24
ARM GAS  C:\Users\faithc\AppData\Local\Temp\ccWgDYSd.s 			page 125


 5716 0581 74       		.byte	0x74
 5717 0582 00       		.sleb128 0
 5718 0583 22       		.byte	0x22
 5719 0584 31       		.byte	0x31
 5720 0585 1C       		.byte	0x1c
 5721 0586 9F       		.byte	0x9f
 5722 0587 2C000000 		.4byte	.LVL81
 5723 058b 2E000000 		.4byte	.LVL82
 5724 058f 0D00     		.2byte	0xd
 5725 0591 75       		.byte	0x75
 5726 0592 00       		.sleb128 0
 5727 0593 31       		.byte	0x31
 5728 0594 24       		.byte	0x24
 5729 0595 75       		.byte	0x75
 5730 0596 00       		.sleb128 0
 5731 0597 22       		.byte	0x22
 5732 0598 31       		.byte	0x31
 5733 0599 24       		.byte	0x24
 5734 059a 74       		.byte	0x74
 5735 059b 00       		.sleb128 0
 5736 059c 22       		.byte	0x22
 5737 059d 9F       		.byte	0x9f
 5738 059e 54000000 		.4byte	.LVL88
 5739 05a2 5B000000 		.4byte	.LVL89-1
 5740 05a6 0100     		.2byte	0x1
 5741 05a8 51       		.byte	0x51
 5742 05a9 5B000000 		.4byte	.LVL89-1
 5743 05ad 5E000000 		.4byte	.LVL90
 5744 05b1 0D00     		.2byte	0xd
 5745 05b3 75       		.byte	0x75
 5746 05b4 00       		.sleb128 0
 5747 05b5 31       		.byte	0x31
 5748 05b6 24       		.byte	0x24
 5749 05b7 75       		.byte	0x75
 5750 05b8 00       		.sleb128 0
 5751 05b9 22       		.byte	0x22
 5752 05ba 31       		.byte	0x31
 5753 05bb 24       		.byte	0x24
 5754 05bc 74       		.byte	0x74
 5755 05bd 00       		.sleb128 0
 5756 05be 22       		.byte	0x22
 5757 05bf 9F       		.byte	0x9f
 5758 05c0 5E000000 		.4byte	.LVL90
 5759 05c4 60000000 		.4byte	.LVL91
 5760 05c8 0F00     		.2byte	0xf
 5761 05ca 75       		.byte	0x75
 5762 05cb 00       		.sleb128 0
 5763 05cc 31       		.byte	0x31
 5764 05cd 24       		.byte	0x24
 5765 05ce 75       		.byte	0x75
 5766 05cf 00       		.sleb128 0
 5767 05d0 22       		.byte	0x22
 5768 05d1 31       		.byte	0x31
 5769 05d2 24       		.byte	0x24
 5770 05d3 74       		.byte	0x74
 5771 05d4 00       		.sleb128 0
 5772 05d5 22       		.byte	0x22
ARM GAS  C:\Users\faithc\AppData\Local\Temp\ccWgDYSd.s 			page 126


 5773 05d6 31       		.byte	0x31
 5774 05d7 1C       		.byte	0x1c
 5775 05d8 9F       		.byte	0x9f
 5776 05d9 84000000 		.4byte	.LVL99
 5777 05dd 89000000 		.4byte	.LVL100-1
 5778 05e1 0100     		.2byte	0x1
 5779 05e3 50       		.byte	0x50
 5780 05e4 89000000 		.4byte	.LVL100-1
 5781 05e8 8E000000 		.4byte	.LVL101
 5782 05ec 0D00     		.2byte	0xd
 5783 05ee 75       		.byte	0x75
 5784 05ef 00       		.sleb128 0
 5785 05f0 31       		.byte	0x31
 5786 05f1 24       		.byte	0x24
 5787 05f2 75       		.byte	0x75
 5788 05f3 00       		.sleb128 0
 5789 05f4 22       		.byte	0x22
 5790 05f5 31       		.byte	0x31
 5791 05f6 24       		.byte	0x24
 5792 05f7 74       		.byte	0x74
 5793 05f8 00       		.sleb128 0
 5794 05f9 22       		.byte	0x22
 5795 05fa 9F       		.byte	0x9f
 5796 05fb 8E000000 		.4byte	.LVL101
 5797 05ff 90000000 		.4byte	.LVL102
 5798 0603 0800     		.2byte	0x8
 5799 0605 73       		.byte	0x73
 5800 0606 00       		.sleb128 0
 5801 0607 31       		.byte	0x31
 5802 0608 24       		.byte	0x24
 5803 0609 74       		.byte	0x74
 5804 060a 00       		.sleb128 0
 5805 060b 22       		.byte	0x22
 5806 060c 9F       		.byte	0x9f
 5807 060d 90000000 		.4byte	.LVL102
 5808 0611 92000000 		.4byte	.LVL103
 5809 0615 0600     		.2byte	0x6
 5810 0617 73       		.byte	0x73
 5811 0618 00       		.sleb128 0
 5812 0619 74       		.byte	0x74
 5813 061a 00       		.sleb128 0
 5814 061b 22       		.byte	0x22
 5815 061c 9F       		.byte	0x9f
 5816 061d 92000000 		.4byte	.LVL103
 5817 0621 9C000000 		.4byte	.LVL106
 5818 0625 0100     		.2byte	0x1
 5819 0627 53       		.byte	0x53
 5820 0628 00000000 		.4byte	0
 5821 062c 00000000 		.4byte	0
 5822              	.LLST20:
 5823 0630 02000000 		.4byte	.LVL183
 5824 0634 2C000000 		.4byte	.LVL188
 5825 0638 0200     		.2byte	0x2
 5826 063a 30       		.byte	0x30
 5827 063b 9F       		.byte	0x9f
 5828 063c 2C000000 		.4byte	.LVL188
 5829 0640 3A000000 		.4byte	.LVL190
ARM GAS  C:\Users\faithc\AppData\Local\Temp\ccWgDYSd.s 			page 127


 5830 0644 0100     		.2byte	0x1
 5831 0646 54       		.byte	0x54
 5832 0647 3C000000 		.4byte	.LVL191
 5833 064b 46000000 		.4byte	.LVL193
 5834 064f 0100     		.2byte	0x1
 5835 0651 54       		.byte	0x54
 5836 0652 00000000 		.4byte	0
 5837 0656 00000000 		.4byte	0
 5838              	.LLST21:
 5839 065a 04000000 		.4byte	.LVL194
 5840 065e 3A000000 		.4byte	.LVL200
 5841 0662 0200     		.2byte	0x2
 5842 0664 30       		.byte	0x30
 5843 0665 9F       		.byte	0x9f
 5844 0666 3A000000 		.4byte	.LVL200
 5845 066a 5C000000 		.4byte	.LVL203
 5846 066e 0100     		.2byte	0x1
 5847 0670 57       		.byte	0x57
 5848 0671 5C000000 		.4byte	.LVL203
 5849 0675 5E000000 		.4byte	.LVL204
 5850 0679 0100     		.2byte	0x1
 5851 067b 50       		.byte	0x50
 5852 067c 76000000 		.4byte	.LVL205
 5853 0680 7A000000 		.4byte	.LVL206
 5854 0684 0100     		.2byte	0x1
 5855 0686 57       		.byte	0x57
 5856 0687 80000000 		.4byte	.LVL207
 5857 068b AC000000 		.4byte	.LVL211
 5858 068f 0100     		.2byte	0x1
 5859 0691 57       		.byte	0x57
 5860 0692 00000000 		.4byte	0
 5861 0696 00000000 		.4byte	0
 5862              	.LLST22:
 5863 069a 04000000 		.4byte	.LVL194
 5864 069e 3A000000 		.4byte	.LVL200
 5865 06a2 0200     		.2byte	0x2
 5866 06a4 30       		.byte	0x30
 5867 06a5 9F       		.byte	0x9f
 5868 06a6 4E000000 		.4byte	.LVL202
 5869 06aa A4000000 		.4byte	.LVL210
 5870 06ae 0100     		.2byte	0x1
 5871 06b0 55       		.byte	0x55
 5872 06b1 00000000 		.4byte	0
 5873 06b5 00000000 		.4byte	0
 5874              	.LLST23:
 5875 06b9 04000000 		.4byte	.LVL194
 5876 06bd 3A000000 		.4byte	.LVL200
 5877 06c1 0200     		.2byte	0x2
 5878 06c3 30       		.byte	0x30
 5879 06c4 9F       		.byte	0x9f
 5880 06c5 44000000 		.4byte	.LVL201
 5881 06c9 A4000000 		.4byte	.LVL210
 5882 06cd 0100     		.2byte	0x1
 5883 06cf 58       		.byte	0x58
 5884 06d0 00000000 		.4byte	0
 5885 06d4 00000000 		.4byte	0
 5886              	.LLST24:
ARM GAS  C:\Users\faithc\AppData\Local\Temp\ccWgDYSd.s 			page 128


 5887 06d8 04000000 		.4byte	.LVL194
 5888 06dc 3A000000 		.4byte	.LVL200
 5889 06e0 0200     		.2byte	0x2
 5890 06e2 30       		.byte	0x30
 5891 06e3 9F       		.byte	0x9f
 5892 06e4 3A000000 		.4byte	.LVL200
 5893 06e8 A2000000 		.4byte	.LVL209
 5894 06ec 0100     		.2byte	0x1
 5895 06ee 54       		.byte	0x54
 5896 06ef A4000000 		.4byte	.LVL210
 5897 06f3 AC000000 		.4byte	.LVL211
 5898 06f7 0100     		.2byte	0x1
 5899 06f9 54       		.byte	0x54
 5900 06fa 00000000 		.4byte	0
 5901 06fe 00000000 		.4byte	0
 5902              	.LLST25:
 5903 0702 02000000 		.4byte	.LVL212
 5904 0706 38000000 		.4byte	.LVL219
 5905 070a 0200     		.2byte	0x2
 5906 070c 30       		.byte	0x30
 5907 070d 9F       		.byte	0x9f
 5908 070e 38000000 		.4byte	.LVL219
 5909 0712 4E000000 		.4byte	.LVL222
 5910 0716 0100     		.2byte	0x1
 5911 0718 54       		.byte	0x54
 5912 0719 50000000 		.4byte	.LVL223
 5913 071d 56000000 		.4byte	.LVL224
 5914 0721 0100     		.2byte	0x1
 5915 0723 54       		.byte	0x54
 5916 0724 56000000 		.4byte	.LVL224
 5917 0728 60000000 		.4byte	.LFE68
 5918 072c 0200     		.2byte	0x2
 5919 072e 30       		.byte	0x30
 5920 072f 9F       		.byte	0x9f
 5921 0730 00000000 		.4byte	0
 5922 0734 00000000 		.4byte	0
 5923              	.LLST26:
 5924 0738 06000000 		.4byte	.LVL232
 5925 073c 1A000000 		.4byte	.LVL235
 5926 0740 0200     		.2byte	0x2
 5927 0742 30       		.byte	0x30
 5928 0743 9F       		.byte	0x9f
 5929 0744 1A000000 		.4byte	.LVL235
 5930 0748 8E000000 		.4byte	.LVL242
 5931 074c 0100     		.2byte	0x1
 5932 074e 54       		.byte	0x54
 5933 074f 90000000 		.4byte	.LVL243
 5934 0753 9E000000 		.4byte	.LVL245
 5935 0757 0100     		.2byte	0x1
 5936 0759 54       		.byte	0x54
 5937 075a 00000000 		.4byte	0
 5938 075e 00000000 		.4byte	0
 5939              	.LLST27:
 5940 0762 06000000 		.4byte	.LVL232
 5941 0766 1A000000 		.4byte	.LVL235
 5942 076a 0200     		.2byte	0x2
 5943 076c 30       		.byte	0x30
ARM GAS  C:\Users\faithc\AppData\Local\Temp\ccWgDYSd.s 			page 129


 5944 076d 9F       		.byte	0x9f
 5945 076e 42000000 		.4byte	.LVL238
 5946 0772 7C000000 		.4byte	.LVL239
 5947 0776 0100     		.2byte	0x1
 5948 0778 50       		.byte	0x50
 5949 0779 7C000000 		.4byte	.LVL239
 5950 077d 84000000 		.4byte	.LVL240
 5951 0781 0200     		.2byte	0x2
 5952 0783 78       		.byte	0x78
 5953 0784 11       		.sleb128 17
 5954 0785 84000000 		.4byte	.LVL240
 5955 0789 8C000000 		.4byte	.LVL241
 5956 078d 0100     		.2byte	0x1
 5957 078f 50       		.byte	0x50
 5958 0790 8C000000 		.4byte	.LVL241
 5959 0794 90000000 		.4byte	.LVL243
 5960 0798 0200     		.2byte	0x2
 5961 079a 78       		.byte	0x78
 5962 079b 11       		.sleb128 17
 5963 079c 00000000 		.4byte	0
 5964 07a0 00000000 		.4byte	0
 5965              	.LLST28:
 5966 07a4 00000000 		.4byte	.LVL246
 5967 07a8 7B000000 		.4byte	.LVL251-1
 5968 07ac 0100     		.2byte	0x1
 5969 07ae 50       		.byte	0x50
 5970 07af 7B000000 		.4byte	.LVL251-1
 5971 07b3 80000000 		.4byte	.LVL252
 5972 07b7 0400     		.2byte	0x4
 5973 07b9 F3       		.byte	0xf3
 5974 07ba 01       		.uleb128 0x1
 5975 07bb 50       		.byte	0x50
 5976 07bc 9F       		.byte	0x9f
 5977 07bd 80000000 		.4byte	.LVL252
 5978 07c1 82000000 		.4byte	.LVL253
 5979 07c5 0100     		.2byte	0x1
 5980 07c7 50       		.byte	0x50
 5981 07c8 82000000 		.4byte	.LVL253
 5982 07cc 84000000 		.4byte	.LVL254
 5983 07d0 0400     		.2byte	0x4
 5984 07d2 F3       		.byte	0xf3
 5985 07d3 01       		.uleb128 0x1
 5986 07d4 50       		.byte	0x50
 5987 07d5 9F       		.byte	0x9f
 5988 07d6 84000000 		.4byte	.LVL254
 5989 07da 86000000 		.4byte	.LVL255
 5990 07de 0100     		.2byte	0x1
 5991 07e0 50       		.byte	0x50
 5992 07e1 86000000 		.4byte	.LVL255
 5993 07e5 88000000 		.4byte	.LVL256
 5994 07e9 0400     		.2byte	0x4
 5995 07eb F3       		.byte	0xf3
 5996 07ec 01       		.uleb128 0x1
 5997 07ed 50       		.byte	0x50
 5998 07ee 9F       		.byte	0x9f
 5999 07ef 88000000 		.4byte	.LVL256
 6000 07f3 8A000000 		.4byte	.LVL257
ARM GAS  C:\Users\faithc\AppData\Local\Temp\ccWgDYSd.s 			page 130


 6001 07f7 0100     		.2byte	0x1
 6002 07f9 50       		.byte	0x50
 6003 07fa 8A000000 		.4byte	.LVL257
 6004 07fe 8C000000 		.4byte	.LVL258
 6005 0802 0400     		.2byte	0x4
 6006 0804 F3       		.byte	0xf3
 6007 0805 01       		.uleb128 0x1
 6008 0806 50       		.byte	0x50
 6009 0807 9F       		.byte	0x9f
 6010 0808 8C000000 		.4byte	.LVL258
 6011 080c 8E000000 		.4byte	.LVL259
 6012 0810 0100     		.2byte	0x1
 6013 0812 50       		.byte	0x50
 6014 0813 8E000000 		.4byte	.LVL259
 6015 0817 94000000 		.4byte	.LFE73
 6016 081b 0500     		.2byte	0x5
 6017 081d 03       		.byte	0x3
 6018 081e 16000000 		.4byte	.LANCHOR1+22
 6019 0822 00000000 		.4byte	0
 6020 0826 00000000 		.4byte	0
 6021              	.LLST29:
 6022 082a 00000000 		.4byte	.LVL246
 6023 082e 7B000000 		.4byte	.LVL251-1
 6024 0832 0100     		.2byte	0x1
 6025 0834 51       		.byte	0x51
 6026 0835 7B000000 		.4byte	.LVL251-1
 6027 0839 80000000 		.4byte	.LVL252
 6028 083d 0400     		.2byte	0x4
 6029 083f F3       		.byte	0xf3
 6030 0840 01       		.uleb128 0x1
 6031 0841 51       		.byte	0x51
 6032 0842 9F       		.byte	0x9f
 6033 0843 80000000 		.4byte	.LVL252
 6034 0847 94000000 		.4byte	.LFE73
 6035 084b 0100     		.2byte	0x1
 6036 084d 51       		.byte	0x51
 6037 084e 00000000 		.4byte	0
 6038 0852 00000000 		.4byte	0
 6039              	.LLST30:
 6040 0856 00000000 		.4byte	.LVL246
 6041 085a 34000000 		.4byte	.LVL248
 6042 085e 0100     		.2byte	0x1
 6043 0860 52       		.byte	0x52
 6044 0861 34000000 		.4byte	.LVL248
 6045 0865 7B000000 		.4byte	.LVL251-1
 6046 0869 0500     		.2byte	0x5
 6047 086b 03       		.byte	0x3
 6048 086c 1A000000 		.4byte	ToneStatus+6
 6049 0870 7B000000 		.4byte	.LVL251-1
 6050 0874 80000000 		.4byte	.LVL252
 6051 0878 0400     		.2byte	0x4
 6052 087a F3       		.byte	0xf3
 6053 087b 01       		.uleb128 0x1
 6054 087c 52       		.byte	0x52
 6055 087d 9F       		.byte	0x9f
 6056 087e 80000000 		.4byte	.LVL252
 6057 0882 8C000000 		.4byte	.LVL258
ARM GAS  C:\Users\faithc\AppData\Local\Temp\ccWgDYSd.s 			page 131


 6058 0886 0100     		.2byte	0x1
 6059 0888 52       		.byte	0x52
 6060 0889 8C000000 		.4byte	.LVL258
 6061 088d 94000000 		.4byte	.LFE73
 6062 0891 0500     		.2byte	0x5
 6063 0893 03       		.byte	0x3
 6064 0894 1A000000 		.4byte	ToneStatus+6
 6065 0898 00000000 		.4byte	0
 6066 089c 00000000 		.4byte	0
 6067              	.LLST31:
 6068 08a0 00000000 		.4byte	.LVL246
 6069 08a4 34000000 		.4byte	.LVL248
 6070 08a8 0200     		.2byte	0x2
 6071 08aa 30       		.byte	0x30
 6072 08ab 9F       		.byte	0x9f
 6073 08ac 34000000 		.4byte	.LVL248
 6074 08b0 64000000 		.4byte	.LVL249
 6075 08b4 0100     		.2byte	0x1
 6076 08b6 53       		.byte	0x53
 6077 08b7 66000000 		.4byte	.LVL250
 6078 08bb 7B000000 		.4byte	.LVL251-1
 6079 08bf 0100     		.2byte	0x1
 6080 08c1 53       		.byte	0x53
 6081 08c2 80000000 		.4byte	.LVL252
 6082 08c6 8C000000 		.4byte	.LVL258
 6083 08ca 0200     		.2byte	0x2
 6084 08cc 30       		.byte	0x30
 6085 08cd 9F       		.byte	0x9f
 6086 08ce 8C000000 		.4byte	.LVL258
 6087 08d2 90000000 		.4byte	.LVL260
 6088 08d6 0100     		.2byte	0x1
 6089 08d8 53       		.byte	0x53
 6090 08d9 00000000 		.4byte	0
 6091 08dd 00000000 		.4byte	0
 6092              	.LLST32:
 6093 08e1 00000000 		.4byte	.LVL246
 6094 08e5 2C000000 		.4byte	.LVL247
 6095 08e9 0200     		.2byte	0x2
 6096 08eb 30       		.byte	0x30
 6097 08ec 9F       		.byte	0x9f
 6098 08ed 2C000000 		.4byte	.LVL247
 6099 08f1 7B000000 		.4byte	.LVL251-1
 6100 08f5 0100     		.2byte	0x1
 6101 08f7 5E       		.byte	0x5e
 6102 08f8 80000000 		.4byte	.LVL252
 6103 08fc 8C000000 		.4byte	.LVL258
 6104 0900 0200     		.2byte	0x2
 6105 0902 30       		.byte	0x30
 6106 0903 9F       		.byte	0x9f
 6107 0904 8C000000 		.4byte	.LVL258
 6108 0908 94000000 		.4byte	.LFE73
 6109 090c 0100     		.2byte	0x1
 6110 090e 5E       		.byte	0x5e
 6111 090f 00000000 		.4byte	0
 6112 0913 00000000 		.4byte	0
 6113              		.section	.debug_aranges,"",%progbits
 6114 0000 CC000000 		.4byte	0xcc
ARM GAS  C:\Users\faithc\AppData\Local\Temp\ccWgDYSd.s 			page 132


 6115 0004 0200     		.2byte	0x2
 6116 0006 00000000 		.4byte	.Ldebug_info0
 6117 000a 04       		.byte	0x4
 6118 000b 00       		.byte	0
 6119 000c 0000     		.2byte	0
 6120 000e 0000     		.2byte	0
 6121 0010 00000000 		.4byte	.LFB83
 6122 0014 10000000 		.4byte	.LFE83-.LFB83
 6123 0018 00000000 		.4byte	.LFB81
 6124 001c 20000000 		.4byte	.LFE81-.LFB81
 6125 0020 00000000 		.4byte	.LFB84
 6126 0024 0C000000 		.4byte	.LFE84-.LFB84
 6127 0028 00000000 		.4byte	.LFB82
 6128 002c 28000000 		.4byte	.LFE82-.LFB82
 6129 0030 00000000 		.4byte	.LFB80
 6130 0034 38000000 		.4byte	.LFE80-.LFB80
 6131 0038 00000000 		.4byte	.LFB85
 6132 003c 46000000 		.4byte	.LFE85-.LFB85
 6133 0040 00000000 		.4byte	.LFB79
 6134 0044 56000000 		.4byte	.LFE79-.LFB79
 6135 0048 00000000 		.4byte	.LFB78
 6136 004c 4E000000 		.4byte	.LFE78-.LFB78
 6137 0050 00000000 		.4byte	.LFB77
 6138 0054 58000000 		.4byte	.LFE77-.LFB77
 6139 0058 00000000 		.4byte	.LFB63
 6140 005c B4000000 		.4byte	.LFE63-.LFB63
 6141 0060 00000000 		.4byte	.LFB64
 6142 0064 18000000 		.4byte	.LFE64-.LFB64
 6143 0068 00000000 		.4byte	.LFB65
 6144 006c 18000000 		.4byte	.LFE65-.LFB65
 6145 0070 00000000 		.4byte	.LFB74
 6146 0074 1C000000 		.4byte	.LFE74-.LFB74
 6147 0078 00000000 		.4byte	.LFB75
 6148 007c 44000000 		.4byte	.LFE75-.LFB75
 6149 0080 00000000 		.4byte	.LFB76
 6150 0084 88020000 		.4byte	.LFE76-.LFB76
 6151 0088 00000000 		.4byte	.LFB66
 6152 008c 4C000000 		.4byte	.LFE66-.LFB66
 6153 0090 00000000 		.4byte	.LFB67
 6154 0094 B8000000 		.4byte	.LFE67-.LFB67
 6155 0098 00000000 		.4byte	.LFB68
 6156 009c 60000000 		.4byte	.LFE68-.LFB68
 6157 00a0 00000000 		.4byte	.LFB69
 6158 00a4 18000000 		.4byte	.LFE69-.LFB69
 6159 00a8 00000000 		.4byte	.LFB70
 6160 00ac 18000000 		.4byte	.LFE70-.LFB70
 6161 00b0 00000000 		.4byte	.LFB71
 6162 00b4 1C000000 		.4byte	.LFE71-.LFB71
 6163 00b8 00000000 		.4byte	.LFB72
 6164 00bc A4000000 		.4byte	.LFE72-.LFB72
 6165 00c0 00000000 		.4byte	.LFB73
 6166 00c4 94000000 		.4byte	.LFE73-.LFB73
 6167 00c8 00000000 		.4byte	0
 6168 00cc 00000000 		.4byte	0
 6169              		.section	.debug_ranges,"",%progbits
 6170              	.Ldebug_ranges0:
 6171 0000 00000000 		.4byte	.LFB83
ARM GAS  C:\Users\faithc\AppData\Local\Temp\ccWgDYSd.s 			page 133


 6172 0004 10000000 		.4byte	.LFE83
 6173 0008 00000000 		.4byte	.LFB81
 6174 000c 20000000 		.4byte	.LFE81
 6175 0010 00000000 		.4byte	.LFB84
 6176 0014 0C000000 		.4byte	.LFE84
 6177 0018 00000000 		.4byte	.LFB82
 6178 001c 28000000 		.4byte	.LFE82
 6179 0020 00000000 		.4byte	.LFB80
 6180 0024 38000000 		.4byte	.LFE80
 6181 0028 00000000 		.4byte	.LFB85
 6182 002c 46000000 		.4byte	.LFE85
 6183 0030 00000000 		.4byte	.LFB79
 6184 0034 56000000 		.4byte	.LFE79
 6185 0038 00000000 		.4byte	.LFB78
 6186 003c 4E000000 		.4byte	.LFE78
 6187 0040 00000000 		.4byte	.LFB77
 6188 0044 58000000 		.4byte	.LFE77
 6189 0048 00000000 		.4byte	.LFB63
 6190 004c B4000000 		.4byte	.LFE63
 6191 0050 00000000 		.4byte	.LFB64
 6192 0054 18000000 		.4byte	.LFE64
 6193 0058 00000000 		.4byte	.LFB65
 6194 005c 18000000 		.4byte	.LFE65
 6195 0060 00000000 		.4byte	.LFB74
 6196 0064 1C000000 		.4byte	.LFE74
 6197 0068 00000000 		.4byte	.LFB75
 6198 006c 44000000 		.4byte	.LFE75
 6199 0070 00000000 		.4byte	.LFB76
 6200 0074 88020000 		.4byte	.LFE76
 6201 0078 00000000 		.4byte	.LFB66
 6202 007c 4C000000 		.4byte	.LFE66
 6203 0080 00000000 		.4byte	.LFB67
 6204 0084 B8000000 		.4byte	.LFE67
 6205 0088 00000000 		.4byte	.LFB68
 6206 008c 60000000 		.4byte	.LFE68
 6207 0090 00000000 		.4byte	.LFB69
 6208 0094 18000000 		.4byte	.LFE69
 6209 0098 00000000 		.4byte	.LFB70
 6210 009c 18000000 		.4byte	.LFE70
 6211 00a0 00000000 		.4byte	.LFB71
 6212 00a4 1C000000 		.4byte	.LFE71
 6213 00a8 00000000 		.4byte	.LFB72
 6214 00ac A4000000 		.4byte	.LFE72
 6215 00b0 00000000 		.4byte	.LFB73
 6216 00b4 94000000 		.4byte	.LFE73
 6217 00b8 00000000 		.4byte	0
 6218 00bc 00000000 		.4byte	0
 6219              		.section	.debug_line,"",%progbits
 6220              	.Ldebug_line0:
 6221 0000 93060000 		.section	.debug_str,"MS",%progbits,1
 6221      02009102 
 6221      00000201 
 6221      FB0E0D00 
 6221      01010101 
 6222              	.LASF111:
 6223 0000 66697273 		.ascii	"firstTone\000"
 6223      74546F6E 
ARM GAS  C:\Users\faithc\AppData\Local\Temp\ccWgDYSd.s 			page 134


 6223      6500
 6224              	.LASF109:
 6225 000a 6368616E 		.ascii	"changedChannel\000"
 6225      67656443 
 6225      68616E6E 
 6225      656C00
 6226              	.LASF28:
 6227 0019 5043414C 		.ascii	"PCALL_FAST\000"
 6227      4C5F4641 
 6227      535400
 6228              	.LASF115:
 6229 0024 45455052 		.ascii	"EEPROM_KEY_INDEX\000"
 6229      4F4D5F4B 
 6229      45595F49 
 6229      4E444558 
 6229      00
 6230              	.LASF153:
 6231 0035 64656369 		.ascii	"decideTonesToPlay\000"
 6231      6465546F 
 6231      6E657354 
 6231      6F506C61 
 6231      7900
 6232              	.LASF30:
 6233 0047 484F524E 		.ascii	"HORN_YELP\000"
 6233      5F59454C 
 6233      5000
 6234              	.LASF130:
 6235 0051 45455052 		.ascii	"EEPROM_UpdateTemperature\000"
 6235      4F4D5F55 
 6235      70646174 
 6235      6554656D 
 6235      70657261 
 6236              	.LASF24:
 6237 006a 4D454348 		.ascii	"MECHANICAL\000"
 6237      414E4943 
 6237      414C00
 6238              	.LASF122:
 6239 0075 706C6179 		.ascii	"playPWMTone\000"
 6239      50574D54 
 6239      6F6E6500 
 6240              	.LASF8:
 6241 0081 756E7369 		.ascii	"unsigned int\000"
 6241      676E6564 
 6241      20696E74 
 6241      00
 6242              	.LASF125:
 6243 008e 506F7765 		.ascii	"PowerAmpOutput2_Write\000"
 6243      72416D70 
 6243      4F757470 
 6243      7574325F 
 6243      57726974 
 6244              	.LASF37:
 6245 00a4 53544550 		.ascii	"STEP_OUT_HANDS_UP\000"
 6245      5F4F5554 
 6245      5F48414E 
 6245      44535F55 
 6245      5000
ARM GAS  C:\Users\faithc\AppData\Local\Temp\ccWgDYSd.s 			page 135


 6246              	.LASF9:
 6247 00b6 5F5F696E 		.ascii	"__int32_t\000"
 6247      7433325F 
 6247      7400
 6248              	.LASF88:
 6249 00c0 62537065 		.ascii	"bSpeakerIndex\000"
 6249      616B6572 
 6249      496E6465 
 6249      7800
 6250              	.LASF33:
 6251 00ce 434F5053 		.ascii	"COPS_SONG\000"
 6251      5F534F4E 
 6251      4700
 6252              	.LASF140:
 6253 00d8 4475616C 		.ascii	"DualDelayISR_Stop\000"
 6253      44656C61 
 6253      79495352 
 6253      5F53746F 
 6253      7000
 6254              	.LASF60:
 6255 00ea 62506172 		.ascii	"bParkKill\000"
 6255      6B4B696C 
 6255      6C00
 6256              	.LASF114:
 6257 00f4 44454641 		.ascii	"DEFAULT_CONFIGURATION_LIST\000"
 6257      554C545F 
 6257      434F4E46 
 6257      49475552 
 6257      4154494F 
 6258              	.LASF83:
 6259 010f 62537065 		.ascii	"bSpeaker\000"
 6259      616B6572 
 6259      00
 6260              	.LASF65:
 6261 0118 70726576 		.ascii	"previousTone\000"
 6261      696F7573 
 6261      546F6E65 
 6261      00
 6262              	.LASF103:
 6263 0125 70726F63 		.ascii	"processHornRingRoutine\000"
 6263      65737348 
 6263      6F726E52 
 6263      696E6752 
 6263      6F757469 
 6264              	.LASF62:
 6265 013c 62486F72 		.ascii	"bHornRing\000"
 6265      6E52696E 
 6265      6700
 6266              	.LASF41:
 6267 0146 546F6E65 		.ascii	"ToneType\000"
 6267      54797065 
 6267      00
 6268              	.LASF51:
 6269 014f 42495430 		.ascii	"BIT0\000"
 6269      00
 6270              	.LASF52:
 6271 0154 42495431 		.ascii	"BIT1\000"
ARM GAS  C:\Users\faithc\AppData\Local\Temp\ccWgDYSd.s 			page 136


 6271      00
 6272              	.LASF53:
 6273 0159 42495432 		.ascii	"BIT2\000"
 6273      00
 6274              	.LASF54:
 6275 015e 42495433 		.ascii	"BIT3\000"
 6275      00
 6276              	.LASF55:
 6277 0163 42495434 		.ascii	"BIT4\000"
 6277      00
 6278              	.LASF56:
 6279 0168 42495435 		.ascii	"BIT5\000"
 6279      00
 6280              	.LASF57:
 6281 016d 42495436 		.ascii	"BIT6\000"
 6281      00
 6282              	.LASF58:
 6283 0172 42495437 		.ascii	"BIT7\000"
 6283      00
 6284              	.LASF127:
 6285 0177 64656163 		.ascii	"deactivateAudio\000"
 6285      74697661 
 6285      74654175 
 6285      64696F00 
 6286              	.LASF36:
 6287 0187 53544550 		.ascii	"STEP_OUT\000"
 6287      5F4F5554 
 6287      00
 6288              	.LASF61:
 6289 0190 62546163 		.ascii	"bTackSwitch\000"
 6289      6B537769 
 6289      74636800 
 6290              	.LASF69:
 6291 019c 6973436F 		.ascii	"isCommand\000"
 6291      6D6D616E 
 6291      6400
 6292              	.LASF90:
 6293 01a6 61646472 		.ascii	"addressIndex\000"
 6293      65737349 
 6293      6E646578 
 6293      00
 6294              	.LASF72:
 6295 01b3 6973536F 		.ascii	"isSong\000"
 6295      6E6700
 6296              	.LASF96:
 6297 01ba 62546F6E 		.ascii	"bToneChangeOnHornRing\000"
 6297      65436861 
 6297      6E67654F 
 6297      6E486F72 
 6297      6E52696E 
 6298              	.LASF142:
 6299 01d0 73746F70 		.ascii	"stopPWMTone\000"
 6299      50574D54 
 6299      6F6E6500 
 6300              	.LASF13:
 6301 01dc 666C6F61 		.ascii	"float\000"
 6301      7400
ARM GAS  C:\Users\faithc\AppData\Local\Temp\ccWgDYSd.s 			page 137


 6302              	.LASF116:
 6303 01e2 45455052 		.ascii	"EEPROM_KEY_VALUE\000"
 6303      4F4D5F4B 
 6303      45595F56 
 6303      414C5545 
 6303      00
 6304              	.LASF32:
 6305 01f3 4543544F 		.ascii	"ECTOSIREN\000"
 6305      53495245 
 6305      4E00
 6306              	.LASF81:
 6307 01fd 6D6F6465 		.ascii	"modeStatusByte\000"
 6307      53746174 
 6307      75734279 
 6307      746500
 6308              	.LASF77:
 6309 020c 6D61736B 		.ascii	"maskNumber\000"
 6309      4E756D62 
 6309      657200
 6310              	.LASF25:
 6311 0217 4D414E55 		.ascii	"MANUAL_WAIL\000"
 6311      414C5F57 
 6311      41494C00 
 6312              	.LASF7:
 6313 0223 6C6F6E67 		.ascii	"long long unsigned int\000"
 6313      206C6F6E 
 6313      6720756E 
 6313      7369676E 
 6313      65642069 
 6314              	.LASF40:
 6315 023a 54455354 		.ascii	"TEST_TONE\000"
 6315      5F544F4E 
 6315      4500
 6316              	.LASF39:
 6317 0244 52454D41 		.ascii	"REMAIN_WINDOW_DOWN\000"
 6317      494E5F57 
 6317      494E444F 
 6317      575F444F 
 6317      574E00
 6318              	.LASF146:
 6319 0257 5061726B 		.ascii	"ParkKillStatus_Read\000"
 6319      4B696C6C 
 6319      53746174 
 6319      75735F52 
 6319      65616400 
 6320              	.LASF42:
 6321 026b 4368616E 		.ascii	"ChannelIndex\000"
 6321      6E656C49 
 6321      6E646578 
 6321      00
 6322              	.LASF68:
 6323 0278 62447561 		.ascii	"bDualDelayEnable\000"
 6323      6C44656C 
 6323      6179456E 
 6323      61626C65 
 6323      00
 6324              	.LASF102:
ARM GAS  C:\Users\faithc\AppData\Local\Temp\ccWgDYSd.s 			page 138


 6325 0289 70726F63 		.ascii	"processParkKillRoutine\000"
 6325      65737350 
 6325      61726B4B 
 6325      696C6C52 
 6325      6F757469 
 6326              	.LASF152:
 6327 02a0 5C5C4441 		.ascii	"\\\\DATA\\Folder Redirection\\faithc\\Desktop\\FAIT"
 6327      54415C46 
 6327      6F6C6465 
 6327      72205265 
 6327      64697265 
 6328 02cd 48532052 		.ascii	"HS RELEASED FIRMWARE\\SirenProject200W_RevF\\SirenP"
 6328      454C4541 
 6328      53454420 
 6328      4649524D 
 6328      57415245 
 6329 02fe 726F6A65 		.ascii	"roject200W_RevD\\ReleaseVersion.cydsn\000"
 6329      63743230 
 6329      30575F52 
 6329      6576445C 
 6329      52656C65 
 6330              	.LASF29:
 6331 0323 484F524E 		.ascii	"HORN_PHASER\000"
 6331      5F504841 
 6331      53455200 
 6332              	.LASF106:
 6333 032f 70726576 		.ascii	"previousChannels\000"
 6333      696F7573 
 6333      4368616E 
 6333      6E656C73 
 6333      00
 6334              	.LASF137:
 6335 0340 5461636B 		.ascii	"TackSwitchStatus_InterruptDisable\000"
 6335      53776974 
 6335      63685374 
 6335      61747573 
 6335      5F496E74 
 6336              	.LASF38:
 6337 0362 52454D41 		.ascii	"REMAIN_IN_VEHICLE\000"
 6337      494E5F49 
 6337      4E5F5645 
 6337      4849434C 
 6337      4500
 6338              	.LASF34:
 6339 0374 4D4F5645 		.ascii	"MOVE_OUT\000"
 6339      5F4F5554 
 6339      00
 6340              	.LASF79:
 6341 037d 62537065 		.ascii	"bSpeakerNumber\000"
 6341      616B6572 
 6341      4E756D62 
 6341      657200
 6342              	.LASF101:
 6343 038c 70726F63 		.ascii	"processRadioMicKeyRoutine\000"
 6343      65737352 
 6343      6164696F 
 6343      4D69634B 
ARM GAS  C:\Users\faithc\AppData\Local\Temp\ccWgDYSd.s 			page 139


 6343      6579526F 
 6344              	.LASF126:
 6345 03a6 64656163 		.ascii	"deactivateManualWail\000"
 6345      74697661 
 6345      74654D61 
 6345      6E75616C 
 6345      5761696C 
 6346              	.LASF19:
 6347 03bb 5741494C 		.ascii	"WAIL\000"
 6347      00
 6348              	.LASF134:
 6349 03c0 4475616C 		.ascii	"DualDelayISR_Start\000"
 6349      44656C61 
 6349      79495352 
 6349      5F537461 
 6349      727400
 6350              	.LASF15:
 6351 03d3 63686172 		.ascii	"char\000"
 6351      00
 6352              	.LASF64:
 6353 03d8 68696768 		.ascii	"highestPriorityChannel\000"
 6353      65737450 
 6353      72696F72 
 6353      69747943 
 6353      68616E6E 
 6354              	.LASF144:
 6355 03ef 52616469 		.ascii	"RadioRebroadcastInput_Read\000"
 6355      6F526562 
 6355      726F6164 
 6355      63617374 
 6355      496E7075 
 6356              	.LASF26:
 6357 040a 48494748 		.ascii	"HIGH_LOW\000"
 6357      5F4C4F57 
 6357      00
 6358              	.LASF12:
 6359 0413 75696E74 		.ascii	"uint16\000"
 6359      313600
 6360              	.LASF76:
 6361 041a 67657442 		.ascii	"getBitIndex\000"
 6361      6974496E 
 6361      64657800 
 6362              	.LASF80:
 6363 0426 696E6465 		.ascii	"indexResult\000"
 6363      78526573 
 6363      756C7400 
 6364              	.LASF70:
 6365 0432 69735472 		.ascii	"isTrailingTone\000"
 6365      61696C69 
 6365      6E67546F 
 6365      6E6500
 6366              	.LASF136:
 6367 0441 4D6F6465 		.ascii	"ModeStatusISR_Start\000"
 6367      53746174 
 6367      75734953 
 6367      525F5374 
 6367      61727400 
ARM GAS  C:\Users\faithc\AppData\Local\Temp\ccWgDYSd.s 			page 140


 6368              	.LASF35:
 6369 0455 50554C4C 		.ascii	"PULL_OVER\000"
 6369      5F4F5645 
 6369      5200
 6370              	.LASF73:
 6371 045f 69734175 		.ascii	"isAudioTone\000"
 6371      64696F54 
 6371      6F6E6500 
 6372              	.LASF147:
 6373 046b 486F726E 		.ascii	"HornRingStatus_Read\000"
 6373      52696E67 
 6373      53746174 
 6373      75735F52 
 6373      65616400 
 6374              	.LASF100:
 6375 047f 746F6E65 		.ascii	"toneToPlay\000"
 6375      546F506C 
 6375      617900
 6376              	.LASF6:
 6377 048a 6C6F6E67 		.ascii	"long long int\000"
 6377      206C6F6E 
 6377      6720696E 
 6377      7400
 6378              	.LASF128:
 6379 0498 45455052 		.ascii	"EEPROM_Start\000"
 6379      4F4D5F53 
 6379      74617274 
 6379      00
 6380              	.LASF129:
 6381 04a5 45455052 		.ascii	"EEPROM_ReadByte\000"
 6381      4F4D5F52 
 6381      65616442 
 6381      79746500 
 6382              	.LASF124:
 6383 04b5 506F7765 		.ascii	"PowerAmpOutput1_Write\000"
 6383      72416D70 
 6383      4F757470 
 6383      7574315F 
 6383      57726974 
 6384              	.LASF78:
 6385 04cb 67657448 		.ascii	"getHighestPriorityChannel\000"
 6385      69676865 
 6385      73745072 
 6385      696F7269 
 6385      74794368 
 6386              	.LASF21:
 6387 04e5 46415354 		.ascii	"FAST_YELP\000"
 6387      5F59454C 
 6387      5000
 6388              	.LASF141:
 6389 04ef 4D6F6465 		.ascii	"ModeStatusISR_Stop\000"
 6389      53746174 
 6389      75734953 
 6389      525F5374 
 6389      6F7000
 6390              	.LASF148:
 6391 0502 5461636B 		.ascii	"TackSwitchStatus_Read\000"
ARM GAS  C:\Users\faithc\AppData\Local\Temp\ccWgDYSd.s 			page 141


 6391      53776974 
 6391      63685374 
 6391      61747573 
 6391      5F526561 
 6392              	.LASF66:
 6393 0518 63757272 		.ascii	"currentTone\000"
 6393      656E7454 
 6393      6F6E6500 
 6394              	.LASF92:
 6395 0524 656E6162 		.ascii	"enableToneInputInterrupts\000"
 6395      6C65546F 
 6395      6E65496E 
 6395      70757449 
 6395      6E746572 
 6396              	.LASF151:
 6397 053e 2E5C5369 		.ascii	".\\SirenState.c\000"
 6397      72656E53 
 6397      74617465 
 6397      2E6300
 6398              	.LASF89:
 6399 054d 6368616E 		.ascii	"channelIndex\000"
 6399      6E656C49 
 6399      6E646578 
 6399      00
 6400              	.LASF49:
 6401 055a 4E4F5F43 		.ascii	"NO_CHANNEL\000"
 6401      48414E4E 
 6401      454C00
 6402              	.LASF98:
 6403 0565 73706561 		.ascii	"speakerIndex\000"
 6403      6B657249 
 6403      6E646578 
 6403      00
 6404              	.LASF99:
 6405 0572 70726F63 		.ascii	"processTackSwitchRoutine\000"
 6405      65737354 
 6405      61636B53 
 6405      77697463 
 6405      68526F75 
 6406              	.LASF105:
 6407 058b 70726F63 		.ascii	"processToneChangeRoutine\000"
 6407      65737354 
 6407      6F6E6543 
 6407      68616E67 
 6407      65526F75 
 6408              	.LASF27:
 6409 05a4 5043414C 		.ascii	"PCALL_SLOW\000"
 6409      4C5F534C 
 6409      4F5700
 6410              	.LASF93:
 6411 05af 64697361 		.ascii	"disableToneInputInterrupts\000"
 6411      626C6554 
 6411      6F6E6549 
 6411      6E707574 
 6411      496E7465 
 6412              	.LASF118:
 6413 05ca 496E7075 		.ascii	"InputRead\000"
ARM GAS  C:\Users\faithc\AppData\Local\Temp\ccWgDYSd.s 			page 142


 6413      74526561 
 6413      6400
 6414              	.LASF139:
 6415 05d4 4475616C 		.ascii	"DualDelayStatus_InterruptDisable\000"
 6415      44656C61 
 6415      79537461 
 6415      7475735F 
 6415      496E7465 
 6416              	.LASF18:
 6417 05f5 4E4F5F54 		.ascii	"NO_TONE\000"
 6417      4F4E4500 
 6418              	.LASF31:
 6419 05fd 50484153 		.ascii	"PHASER_YELP\000"
 6419      45525F59 
 6419      454C5000 
 6420              	.LASF149:
 6421 0609 4475616C 		.ascii	"DualDelayStatus_Read\000"
 6421      44656C61 
 6421      79537461 
 6421      7475735F 
 6421      52656164 
 6422              	.LASF113:
 6423 061e 62447561 		.ascii	"bDualDelayChange\000"
 6423      6C44656C 
 6423      61794368 
 6423      616E6765 
 6423      00
 6424              	.LASF107:
 6425 062f 63757272 		.ascii	"currentChannels\000"
 6425      656E7443 
 6425      68616E6E 
 6425      656C7300 
 6426              	.LASF2:
 6427 063f 73686F72 		.ascii	"short int\000"
 6427      7420696E 
 6427      7400
 6428              	.LASF82:
 6429 0649 656E6162 		.ascii	"enableSpeakersForAudioTone\000"
 6429      6C655370 
 6429      65616B65 
 6429      7273466F 
 6429      72417564 
 6430              	.LASF95:
 6431 0664 64697361 		.ascii	"disableBothSpeakers\000"
 6431      626C6542 
 6431      6F746853 
 6431      7065616B 
 6431      65727300 
 6432              	.LASF145:
 6433 0678 4D69634B 		.ascii	"MicKeyInput_Read\000"
 6433      6579496E 
 6433      7075745F 
 6433      52656164 
 6433      00
 6434              	.LASF4:
 6435 0689 6C6F6E67 		.ascii	"long int\000"
 6435      20696E74 
ARM GAS  C:\Users\faithc\AppData\Local\Temp\ccWgDYSd.s 			page 143


 6435      00
 6436              	.LASF133:
 6437 0692 5461636B 		.ascii	"TackSwitchStatus_InterruptEnable\000"
 6437      53776974 
 6437      63685374 
 6437      61747573 
 6437      5F496E74 
 6438              	.LASF155:
 6439 06b3 49544D5F 		.ascii	"ITM_RxBuffer\000"
 6439      52784275 
 6439      66666572 
 6439      00
 6440              	.LASF86:
 6441 06c0 6244656C 		.ascii	"bDelay\000"
 6441      617900
 6442              	.LASF132:
 6443 06c7 5461636B 		.ascii	"TackSwitchISR_Start\000"
 6443      53776974 
 6443      63684953 
 6443      525F5374 
 6443      61727400 
 6444              	.LASF154:
 6445 06db 73657454 		.ascii	"setTonesWithCommunication\000"
 6445      6F6E6573 
 6445      57697468 
 6445      436F6D6D 
 6445      756E6963 
 6446              	.LASF108:
 6447 06f5 6368616E 		.ascii	"changeStatus\000"
 6447      67655374 
 6447      61747573 
 6447      00
 6448              	.LASF120:
 6449 0702 4D6F6465 		.ascii	"ModeStatus2_Read\000"
 6449      53746174 
 6449      7573325F 
 6449      52656164 
 6449      00
 6450              	.LASF75:
 6451 0713 746F6E65 		.ascii	"toneSelection\000"
 6451      53656C65 
 6451      6374696F 
 6451      6E00
 6452              	.LASF143:
 6453 0721 73746F70 		.ascii	"stopAudioTone\000"
 6453      41756469 
 6453      6F546F6E 
 6453      6500
 6454              	.LASF17:
 6455 072f 73697A65 		.ascii	"sizetype\000"
 6455      74797065 
 6455      00
 6456              	.LASF5:
 6457 0738 6C6F6E67 		.ascii	"long unsigned int\000"
 6457      20756E73 
 6457      69676E65 
 6457      6420696E 
ARM GAS  C:\Users\faithc\AppData\Local\Temp\ccWgDYSd.s 			page 144


 6457      7400
 6458              	.LASF84:
 6459 074a 62496E70 		.ascii	"bInputEnable\000"
 6459      7574456E 
 6459      61626C65 
 6459      00
 6460              	.LASF94:
 6461 0757 64697361 		.ascii	"disableAudioAndPWM\000"
 6461      626C6541 
 6461      7564696F 
 6461      416E6450 
 6461      574D00
 6462              	.LASF67:
 6463 076a 62526973 		.ascii	"bRisingEdge\000"
 6463      696E6745 
 6463      64676500 
 6464              	.LASF10:
 6465 0776 696E7433 		.ascii	"int32_t\000"
 6465      325F7400 
 6466              	.LASF104:
 6467 077e 70726F63 		.ascii	"processDualDelayRoutine\000"
 6467      65737344 
 6467      75616C44 
 6467      656C6179 
 6467      526F7574 
 6468              	.LASF59:
 6469 0796 62526164 		.ascii	"bRadioAndMicKey\000"
 6469      696F416E 
 6469      644D6963 
 6469      4B657900 
 6470              	.LASF63:
 6471 07a6 62447561 		.ascii	"bDualDelay\000"
 6471      6C44656C 
 6471      617900
 6472              	.LASF74:
 6473 07b1 67657441 		.ascii	"getAlternatingTone\000"
 6473      6C746572 
 6473      6E617469 
 6473      6E67546F 
 6473      6E6500
 6474              	.LASF16:
 6475 07c4 63797374 		.ascii	"cystatus\000"
 6475      61747573 
 6475      00
 6476              	.LASF85:
 6477 07cd 656E6162 		.ascii	"enableSpeakerForSirenTone\000"
 6477      6C655370 
 6477      65616B65 
 6477      72466F72 
 6477      53697265 
 6478              	.LASF71:
 6479 07e7 74686973 		.ascii	"thisTone\000"
 6479      546F6E65 
 6479      00
 6480              	.LASF1:
 6481 07f0 756E7369 		.ascii	"unsigned char\000"
 6481      676E6564 
ARM GAS  C:\Users\faithc\AppData\Local\Temp\ccWgDYSd.s 			page 145


 6481      20636861 
 6481      7200
 6482              	.LASF112:
 6483 07fe 7365636F 		.ascii	"secondTone\000"
 6483      6E64546F 
 6483      6E6500
 6484              	.LASF150:
 6485 0809 474E5520 		.ascii	"GNU C 4.9.3 20150303 (release) [ARM/embedded-4_9-br"
 6485      4320342E 
 6485      392E3320 
 6485      32303135 
 6485      30333033 
 6486 083c 616E6368 		.ascii	"anch revision 221220] -mcpu=cortex-m3 -mthumb -g -O"
 6486      20726576 
 6486      6973696F 
 6486      6E203232 
 6486      31323230 
 6487 086f 67202D66 		.ascii	"g -ffunction-sections -ffat-lto-objects\000"
 6487      66756E63 
 6487      74696F6E 
 6487      2D736563 
 6487      74696F6E 
 6488              	.LASF87:
 6489 0897 62486173 		.ascii	"bHasNoTone\000"
 6489      4E6F546F 
 6489      6E6500
 6490              	.LASF135:
 6491 08a2 4475616C 		.ascii	"DualDelayStatus_InterruptEnable\000"
 6491      44656C61 
 6491      79537461 
 6491      7475735F 
 6491      496E7465 
 6492              	.LASF97:
 6493 08c2 696E6974 		.ascii	"initializeInputReadings\000"
 6493      69616C69 
 6493      7A65496E 
 6493      70757452 
 6493      65616469 
 6494              	.LASF20:
 6495 08da 534C4F57 		.ascii	"SLOW_YELP\000"
 6495      5F59454C 
 6495      5000
 6496              	.LASF91:
 6497 08e4 696E6974 		.ascii	"initializeToneConfigurationList\000"
 6497      69616C69 
 6497      7A65546F 
 6497      6E65436F 
 6497      6E666967 
 6498              	.LASF131:
 6499 0904 45455052 		.ascii	"EEPROM_WriteByte\000"
 6499      4F4D5F57 
 6499      72697465 
 6499      42797465 
 6499      00
 6500              	.LASF22:
 6501 0915 50484153 		.ascii	"PHASER\000"
 6501      455200
ARM GAS  C:\Users\faithc\AppData\Local\Temp\ccWgDYSd.s 			page 146


 6502              	.LASF110:
 6503 091c 7072696F 		.ascii	"priorityChannel\000"
 6503      72697479 
 6503      4368616E 
 6503      6E656C00 
 6504              	.LASF121:
 6505 092c 4D6F6465 		.ascii	"ModeStatus_Read\000"
 6505      53746174 
 6505      75735F52 
 6505      65616400 
 6506              	.LASF23:
 6507 093c 484F524E 		.ascii	"HORN\000"
 6507      00
 6508              	.LASF43:
 6509 0941 4348414E 		.ascii	"CHANNEL_1\000"
 6509      4E454C5F 
 6509      3100
 6510              	.LASF44:
 6511 094b 4348414E 		.ascii	"CHANNEL_2\000"
 6511      4E454C5F 
 6511      3200
 6512              	.LASF45:
 6513 0955 4348414E 		.ascii	"CHANNEL_3\000"
 6513      4E454C5F 
 6513      3300
 6514              	.LASF46:
 6515 095f 4348414E 		.ascii	"CHANNEL_4\000"
 6515      4E454C5F 
 6515      3400
 6516              	.LASF47:
 6517 0969 4348414E 		.ascii	"CHANNEL_5\000"
 6517      4E454C5F 
 6517      3500
 6518              	.LASF48:
 6519 0973 4348414E 		.ascii	"CHANNEL_6\000"
 6519      4E454C5F 
 6519      3600
 6520              	.LASF0:
 6521 097d 7369676E 		.ascii	"signed char\000"
 6521      65642063 
 6521      68617200 
 6522              	.LASF119:
 6523 0989 546F6E65 		.ascii	"ToneStatus\000"
 6523      53746174 
 6523      757300
 6524              	.LASF3:
 6525 0994 73686F72 		.ascii	"short unsigned int\000"
 6525      7420756E 
 6525      7369676E 
 6525      65642069 
 6525      6E7400
 6526              	.LASF138:
 6527 09a7 5461636B 		.ascii	"TackSwitchISR_Stop\000"
 6527      53776974 
 6527      63684953 
 6527      525F5374 
 6527      6F7000
ARM GAS  C:\Users\faithc\AppData\Local\Temp\ccWgDYSd.s 			page 147


 6528              	.LASF11:
 6529 09ba 75696E74 		.ascii	"uint8\000"
 6529      3800
 6530              	.LASF14:
 6531 09c0 646F7562 		.ascii	"double\000"
 6531      6C6500
 6532              	.LASF50:
 6533 09c7 4269744D 		.ascii	"BitMask\000"
 6533      61736B00 
 6534              	.LASF123:
 6535 09cf 706C6179 		.ascii	"playAudioTone\000"
 6535      41756469 
 6535      6F546F6E 
 6535      6500
 6536              	.LASF117:
 6537 09dd 746F6E65 		.ascii	"toneConfigurationList\000"
 6537      436F6E66 
 6537      69677572 
 6537      6174696F 
 6537      6E4C6973 
 6538              		.ident	"GCC: (GNU Tools for ARM Embedded Processors) 4.9.3 20150303 (release) [ARM/embedded-4_9-br
